---
triple:          'arm64-apple-darwin'
binary-path:     '/Users/cedric/orange/ran-llm-claude-flow/src/rust-pipeline/target/debug/deps/libdisplaydoc-443895c28c32c4e0.dylib'
relocations:
  - { offset: 0x1E, size: 0x8, addend: 0x0, symName: __RINvCs6IAuOt8vWmF_3syn5parseNtNtB2_6derive11DeriveInputECsfcpOYk5gj7s_10displaydoc, symObjAddr: 0x0, symBinAddr: 0xC50, symSize: 0x30 }
  - { offset: 0xD8, size: 0x8, addend: 0x0, symName: __RINvCs6IAuOt8vWmF_3syn5parseNtNtB2_6derive11DeriveInputECsfcpOYk5gj7s_10displaydoc, symObjAddr: 0x0, symBinAddr: 0xC50, symSize: 0x30 }
  - { offset: 0x5ED7, size: 0x8, addend: 0x0, symName: __RNvXs1_NtCse1nGBsou5OW_5alloc7raw_vecINtB5_6RawVecINtNtCsfvfooZQ3Axs_4core6option6OptionNtNtCsfcpOYk5gj7s_10displaydoc4attr14VariantDisplayEENtNtNtBR_3ops4drop4Drop4dropB1s_, symObjAddr: 0x1164, symBinAddr: 0x1DB4, symSize: 0x34 }
  - { offset: 0x5F13, size: 0x8, addend: 0x0, symName: __RNvXs1_NtCse1nGBsou5OW_5alloc7raw_vecINtB5_6RawVecNtCs3cP53eQoTwO_11proc_macro211TokenStreamENtNtNtCsfvfooZQ3Axs_4core3ops4drop4Drop4dropCsfcpOYk5gj7s_10displaydoc, symObjAddr: 0x1198, symBinAddr: 0x1DE8, symSize: 0x34 }
  - { offset: 0x5F4F, size: 0x8, addend: 0x0, symName: __RNvXs1_NtCse1nGBsou5OW_5alloc7raw_vecINtB5_6RawVecNtNtCs6IAuOt8vWmF_3syn8generics10TraitBoundENtNtNtCsfvfooZQ3Axs_4core3ops4drop4Drop4dropCsfcpOYk5gj7s_10displaydoc, symObjAddr: 0x11CC, symBinAddr: 0x1E1C, symSize: 0x34 }
  - { offset: 0x5F8B, size: 0x8, addend: 0x0, symName: __RNvXs1_NtCse1nGBsou5OW_5alloc7raw_vecINtB5_6RawVecRNtNtCs6IAuOt8vWmF_3syn8generics9TypeParamENtNtNtCsfvfooZQ3Axs_4core3ops4drop4Drop4dropCsfcpOYk5gj7s_10displaydoc, symObjAddr: 0x1200, symBinAddr: 0x1E50, symSize: 0x30 }
  - { offset: 0x6352, size: 0x8, addend: 0x0, symName: __RNvXs1_NtCs3cP53eQoTwO_11proc_macro26markerNtB5_19ProcMacroAutoTraitsNtNtCsfvfooZQ3Axs_4core5clone5Clone5cloneCsfcpOYk5gj7s_10displaydoc, symObjAddr: 0x1154, symBinAddr: 0x1DA4, symSize: 0x10 }
  - { offset: 0x66B9, size: 0x8, addend: 0x0, symName: __RNCINvNtNtCs9i5KxIbZ5ph_10proc_macro6bridge6client10run_clientNtB4_11TokenStreamINtNtCsfvfooZQ3Axs_4core6option6OptionBY_ENCNCINvMs7_B4_INtB4_6ClientNtB8_11TokenStreamB2n_E7expand1NvCsfcpOYk5gj7s_10displaydoc12derive_errorE00E0B2U_, symObjAddr: 0x4C0, symBinAddr: 0x1110, symSize: 0x324 }
  - { offset: 0x6921, size: 0x8, addend: 0x0, symName: __RNCNCINvNtNtCs9i5KxIbZ5ph_10proc_macro6bridge6client10run_clientNtB6_11TokenStreamINtNtCsfvfooZQ3Axs_4core6option6OptionB10_ENCNCINvMs7_B6_INtB6_6ClientNtBa_11TokenStreamB2q_E7expand1NvCsfcpOYk5gj7s_10displaydoc12derive_errorE00E00B2X_, symObjAddr: 0x874, symBinAddr: 0x14C4, symSize: 0x28 }
  - { offset: 0x69BD, size: 0x8, addend: 0x0, symName: __RNCNCINvMs7_NtNtCs9i5KxIbZ5ph_10proc_macro6bridge6clientINtBa_6ClientNtBe_11TokenStreamB15_E7expand1NvCsfcpOYk5gj7s_10displaydoc12derive_errorE00B1C_, symObjAddr: 0x844, symBinAddr: 0x1494, symSize: 0x30 }
  - { offset: 0x6A06, size: 0x8, addend: 0x0, symName: __RNCINvMs7_NtNtCs9i5KxIbZ5ph_10proc_macro6bridge6clientINtB8_6ClientNtBc_11TokenStreamB13_E7expand1NvCsfcpOYk5gj7s_10displaydoc12derive_errorE0B1A_, symObjAddr: 0x490, symBinAddr: 0x10E0, symSize: 0x30 }
  - { offset: 0x6A51, size: 0x8, addend: 0x0, symName: __RINvNtNtCs9i5KxIbZ5ph_10proc_macro6bridge6client10run_clientNtB2_11TokenStreamINtNtCsfvfooZQ3Axs_4core6option6OptionBW_ENCNCINvMs7_B2_INtB2_6ClientNtB6_11TokenStreamB2l_E7expand1NvCsfcpOYk5gj7s_10displaydoc12derive_errorE00EB2S_, symObjAddr: 0xCC, symBinAddr: 0xD1C, symSize: 0x21C }
  - { offset: 0x6C43, size: 0x8, addend: 0x0, symName: __RINvNtNtNtCs9i5KxIbZ5ph_10proc_macro6bridge6client5state3setINtNtCsfvfooZQ3Axs_4core6option6OptionNtB4_11TokenStreamENCNCINvB4_10run_clientB1y_BW_NCNCINvMs7_B4_INtB4_6ClientNtB8_11TokenStreamB2L_E7expand1NvCsfcpOYk5gj7s_10displaydoc12derive_errorE00E00EB3i_, symObjAddr: 0x2E8, symBinAddr: 0xF38, symSize: 0xE8 }
  - { offset: 0x6D22, size: 0x8, addend: 0x0, symName: __RNCNkNvNtNtNtCs9i5KxIbZ5ph_10proc_macro6bridge6client5state12BRIDGE_STATE0s_0CsfcpOYk5gj7s_10displaydoc, symObjAddr: 0x89C, symBinAddr: 0x14EC, symSize: 0x34 }
  - { offset: 0x6D7E, size: 0x8, addend: 0x0, symName: __RNvXsg_NtNtCs9i5KxIbZ5ph_10proc_macro6bridge6clientNtB5_11TokenStreamINtNtB7_3rpc6EncodeuE6encodeCsfcpOYk5gj7s_10displaydoc, symObjAddr: 0x2658, symBinAddr: 0x32A8, symSize: 0x50 }
  - { offset: 0x6E8F, size: 0x8, addend: 0x0, symName: __RNvXsj_NtNtCs9i5KxIbZ5ph_10proc_macro6bridge6clientNtB5_11TokenStreamINtNtB7_3rpc9DecodeMutuE6decodeCsfcpOYk5gj7s_10displaydoc, symObjAddr: 0x27D4, symBinAddr: 0x3424, symSize: 0x2C }
  - { offset: 0x6ED8, size: 0x8, addend: 0x0, symName: __RNvXsq_NtNtCs9i5KxIbZ5ph_10proc_macro6bridge6clientNtB5_4SpanINtNtB7_3rpc9DecodeMutuE6decodeCsfcpOYk5gj7s_10displaydoc, symObjAddr: 0x2D48, symBinAddr: 0x3998, symSize: 0x2C }
  - { offset: 0x7331, size: 0x8, addend: 0x0, symName: __RNvXs7_NtNtCs9i5KxIbZ5ph_10proc_macro6bridge3rpcINtNtNtCsfvfooZQ3Axs_4core3num7nonzero7NonZeromEINtB5_9DecodeMutuE6decodeCsfcpOYk5gj7s_10displaydoc, symObjAddr: 0x1F88, symBinAddr: 0x2BD8, symSize: 0x5C }
  - { offset: 0x74BA, size: 0x8, addend: 0x0, symName: __RNvXsV_NtCs9i5KxIbZ5ph_10proc_macro6bridgeINtNtCsfvfooZQ3Axs_4core6result6ResultINtNtBJ_6option6OptionNtNtB5_6client11TokenStreamEuEINtNtB5_3rpc6EncodeuE6encodeCsfcpOYk5gj7s_10displaydoc, symObjAddr: 0x1FE4, symBinAddr: 0x2C34, symSize: 0x108 }
  - { offset: 0x757E, size: 0x8, addend: 0x0, symName: __RNvXsV_NtCs9i5KxIbZ5ph_10proc_macro6bridgeINtNtCsfvfooZQ3Axs_4core6result6ResultuNtNtB5_3rpc12PanicMessageEINtB1j_6EncodeuE6encodeCsfcpOYk5gj7s_10displaydoc, symObjAddr: 0x20EC, symBinAddr: 0x2D3C, symSize: 0x12C }
  - { offset: 0x7840, size: 0x8, addend: 0x0, symName: __RNvNvMsc_NtNtCsfvfooZQ3Axs_4core3num7nonzeroINtB7_7NonZeropE13new_unchecked18precondition_checkCsfcpOYk5gj7s_10displaydoc, symObjAddr: 0xE1C, symBinAddr: 0x1A6C, symSize: 0x1C }
  - { offset: 0x78C9, size: 0x8, addend: 0x0, symName: __RNvNvMs3_NtCsfvfooZQ3Axs_4core3numi13unchecked_neg18precondition_checkCsfcpOYk5gj7s_10displaydoc, symObjAddr: 0xD8C, symBinAddr: 0x19DC, symSize: 0x4C }
  - { offset: 0x7963, size: 0x8, addend: 0x0, symName: __RNvNvMs9_NtCsfvfooZQ3Axs_4core3numj13unchecked_add18precondition_checkCsfcpOYk5gj7s_10displaydoc, symObjAddr: 0xDD8, symBinAddr: 0x1A28, symSize: 0x44 }
  - { offset: 0x8A2F, size: 0x8, addend: 0x0, symName: __RINvXsn_NtCsfvfooZQ3Axs_4core6resultINtB6_6ResultINtNtCse1nGBsou5OW_5alloc3vec3VecINtNtB8_6option6OptionNtNtCsfcpOYk5gj7s_10displaydoc4attr14VariantDisplayEENtNtCs6IAuOt8vWmF_3syn5error5ErrorEINtNtNtNtB8_4iter6traits7collect12FromIteratorIBz_B1i_B2v_EE9from_iterINtNtNtB3b_8adapters3map3MapINtNtB2z_10punctuated4IterNtNtB2z_4data7VariantENCNvNtB1I_6expand9impl_enum0EEB1I_, symObjAddr: 0x3D0, symBinAddr: 0x1020, symSize: 0x34 }
  - { offset: 0x8A82, size: 0x8, addend: 0x0, symName: __RINvXsn_NtCsfvfooZQ3Axs_4core6resultINtB6_6ResultINtNtCse1nGBsou5OW_5alloc3vec3VecNtCs3cP53eQoTwO_11proc_macro211TokenStreamENtNtCs6IAuOt8vWmF_3syn5error5ErrorEINtNtNtNtB8_4iter6traits7collect12FromIteratorIBz_B1i_B1Z_EE9from_iterINtNtNtB2F_8adapters3map3MapINtNtB3L_3zip3ZipINtNtB23_10punctuated4IterNtNtB23_4data7VariantEINtNtBO_9into_iter8IntoIterINtNtB8_6option6OptionNtNtCsfcpOYk5gj7s_10displaydoc4attr14VariantDisplayEEENCNvNtB62_6expand9impl_enums_0EEB62_, symObjAddr: 0x404, symBinAddr: 0x1054, symSize: 0x34 }
  - { offset: 0x8ADA, size: 0x8, addend: 0x0, symName: __RNCINvXsn_NtCsfvfooZQ3Axs_4core6resultINtB8_6ResultINtNtCse1nGBsou5OW_5alloc3vec3VecINtNtBa_6option6OptionNtNtCsfcpOYk5gj7s_10displaydoc4attr14VariantDisplayEENtNtCs6IAuOt8vWmF_3syn5error5ErrorEINtNtNtNtBa_4iter6traits7collect12FromIteratorIBB_B1k_B2x_EE9from_iterINtNtNtB3d_8adapters3map3MapINtNtB2B_10punctuated4IterNtNtB2B_4data7VariantENCNvNtB1K_6expand9impl_enum0EE0B1K_, symObjAddr: 0x7E4, symBinAddr: 0x1434, symSize: 0x30 }
  - { offset: 0x8B56, size: 0x8, addend: 0x0, symName: __RNCINvXsn_NtCsfvfooZQ3Axs_4core6resultINtB8_6ResultINtNtCse1nGBsou5OW_5alloc3vec3VecNtCs3cP53eQoTwO_11proc_macro211TokenStreamENtNtCs6IAuOt8vWmF_3syn5error5ErrorEINtNtNtNtBa_4iter6traits7collect12FromIteratorIBB_B1k_B21_EE9from_iterINtNtNtB2H_8adapters3map3MapINtNtB3N_3zip3ZipINtNtB25_10punctuated4IterNtNtB25_4data7VariantEINtNtBQ_9into_iter8IntoIterINtNtBa_6option6OptionNtNtCsfcpOYk5gj7s_10displaydoc4attr14VariantDisplayEEENCNvNtB64_6expand9impl_enums_0EE0B64_, symObjAddr: 0x814, symBinAddr: 0x1464, symSize: 0x30 }
  - { offset: 0x8D92, size: 0x8, addend: 0x0, symName: __RNvXso_NtCsfvfooZQ3Axs_4core6resultINtB5_6ResultINtNtB7_6option6OptionNtNtCsfcpOYk5gj7s_10displaydoc4attr14VariantDisplayENtNtCs6IAuOt8vWmF_3syn5error5ErrorENtNtNtB7_3ops9try_trait3Try6branchB1a_, symObjAddr: 0x2800, symBinAddr: 0x3450, symSize: 0xB8 }
  - { offset: 0x8E0F, size: 0x8, addend: 0x0, symName: __RNvXso_NtCsfvfooZQ3Axs_4core6resultINtB5_6ResultINtNtB7_6option6OptionNtNtCsfcpOYk5gj7s_10displaydoc4attr7DisplayENtNtCs6IAuOt8vWmF_3syn5error5ErrorENtNtNtB7_3ops9try_trait3Try6branchB1a_, symObjAddr: 0x28B8, symBinAddr: 0x3508, symSize: 0xB8 }
  - { offset: 0x8E8C, size: 0x8, addend: 0x0, symName: __RNvXso_NtCsfvfooZQ3Axs_4core6resultINtB5_6ResultINtNtCse1nGBsou5OW_5alloc3vec3VecINtNtB7_6option6OptionNtNtCsfcpOYk5gj7s_10displaydoc4attr14VariantDisplayEENtNtCs6IAuOt8vWmF_3syn5error5ErrorENtNtNtB7_3ops9try_trait3Try11from_outputB1H_, symObjAddr: 0x2970, symBinAddr: 0x35C0, symSize: 0x18 }
  - { offset: 0x8ECC, size: 0x8, addend: 0x0, symName: __RNvXso_NtCsfvfooZQ3Axs_4core6resultINtB5_6ResultINtNtCse1nGBsou5OW_5alloc3vec3VecINtNtB7_6option6OptionNtNtCsfcpOYk5gj7s_10displaydoc4attr14VariantDisplayEENtNtCs6IAuOt8vWmF_3syn5error5ErrorENtNtNtB7_3ops9try_trait3Try6branchB1H_, symObjAddr: 0x2988, symBinAddr: 0x35D8, symSize: 0x94 }
  - { offset: 0x8F49, size: 0x8, addend: 0x0, symName: __RNvXso_NtCsfvfooZQ3Axs_4core6resultINtB5_6ResultINtNtCse1nGBsou5OW_5alloc3vec3VecNtCs3cP53eQoTwO_11proc_macro211TokenStreamENtNtCs6IAuOt8vWmF_3syn5error5ErrorENtNtNtB7_3ops9try_trait3Try11from_outputCsfcpOYk5gj7s_10displaydoc, symObjAddr: 0x2A1C, symBinAddr: 0x366C, symSize: 0x18 }
  - { offset: 0x8F89, size: 0x8, addend: 0x0, symName: __RNvXso_NtCsfvfooZQ3Axs_4core6resultINtB5_6ResultINtNtCse1nGBsou5OW_5alloc3vec3VecNtCs3cP53eQoTwO_11proc_macro211TokenStreamENtNtCs6IAuOt8vWmF_3syn5error5ErrorENtNtNtB7_3ops9try_trait3Try6branchCsfcpOYk5gj7s_10displaydoc, symObjAddr: 0x2A34, symBinAddr: 0x3684, symSize: 0x94 }
  - { offset: 0x9006, size: 0x8, addend: 0x0, symName: __RNvXso_NtCsfvfooZQ3Axs_4core6resultINtB5_6ResultNtNtCs6IAuOt8vWmF_3syn6derive11DeriveInputNtNtBO_5error5ErrorENtNtNtB7_3ops9try_trait3Try6branchCsfcpOYk5gj7s_10displaydoc, symObjAddr: 0x2AC8, symBinAddr: 0x3718, symSize: 0xB4 }
  - { offset: 0x9084, size: 0x8, addend: 0x0, symName: __RNvXso_NtCsfvfooZQ3Axs_4core6resultINtB5_6ResultNtNtCsfcpOYk5gj7s_10displaydoc4attr14VariantDisplayNtNtCs6IAuOt8vWmF_3syn5error5ErrorENtNtNtB7_3ops9try_trait3Try6branchBO_, symObjAddr: 0x2B7C, symBinAddr: 0x37CC, symSize: 0xB0 }
  - { offset: 0x9107, size: 0x8, addend: 0x0, symName: __RNvXsp_NtCsfvfooZQ3Axs_4core6resultINtB5_6ResultINtNtB7_6option6OptionNtNtCsfcpOYk5gj7s_10displaydoc4attr14VariantDisplayENtNtCs6IAuOt8vWmF_3syn5error5ErrorEINtNtNtB7_3ops9try_trait12FromResidualIBy_NtNtB7_7convert10InfallibleB1W_EE13from_residualB1a_, symObjAddr: 0x2C2C, symBinAddr: 0x387C, symSize: 0x4C }
  - { offset: 0x918C, size: 0x8, addend: 0x0, symName: __RNvXsp_NtCsfvfooZQ3Axs_4core6resultINtB5_6ResultINtNtCse1nGBsou5OW_5alloc3vec3VecINtNtB7_6option6OptionNtNtCsfcpOYk5gj7s_10displaydoc4attr14VariantDisplayEENtNtCs6IAuOt8vWmF_3syn5error5ErrorEINtNtNtB7_3ops9try_trait12FromResidualIBy_NtNtB7_7convert10InfallibleB2u_EE13from_residualB1H_, symObjAddr: 0x2C78, symBinAddr: 0x38C8, symSize: 0x48 }
  - { offset: 0x9211, size: 0x8, addend: 0x0, symName: __RNvXsp_NtCsfvfooZQ3Axs_4core6resultINtB5_6ResultINtNtCse1nGBsou5OW_5alloc3vec3VecNtCs3cP53eQoTwO_11proc_macro211TokenStreamENtNtCs6IAuOt8vWmF_3syn5error5ErrorEINtNtNtB7_3ops9try_trait12FromResidualIBy_NtNtB7_7convert10InfallibleB1Y_EE13from_residualCsfcpOYk5gj7s_10displaydoc, symObjAddr: 0x2CC0, symBinAddr: 0x3910, symSize: 0x48 }
  - { offset: 0x9296, size: 0x8, addend: 0x0, symName: __RNvXsp_NtCsfvfooZQ3Axs_4core6resultINtB5_6ResultNtNtCs6IAuOt8vWmF_3syn3lit6LitStrNtNtBO_5error5ErrorEINtNtNtB7_3ops9try_trait12FromResidualIBy_NtNtB7_7convert10InfallibleB1h_EE13from_residualCsfcpOYk5gj7s_10displaydoc, symObjAddr: 0x2D08, symBinAddr: 0x3958, symSize: 0x40 }
  - { offset: 0xBC6B, size: 0x8, addend: 0x0, symName: __RINvYINtNtNtCsfvfooZQ3Axs_4core3ops5range5RangejENtNtNtNtBa_4iter6traits8iterator8Iterator3mapNtCs3cP53eQoTwO_11proc_macro25IdentNCNCNvNtCsfcpOYk5gj7s_10displaydoc6expand11impl_struct0s_0EB2b_, symObjAddr: 0x438, symBinAddr: 0x1088, symSize: 0x14 }
  - { offset: 0xBCC3, size: 0x8, addend: 0x0, symName: __RINvYINtNtNtCsfvfooZQ3Axs_4core3ops5range5RangejENtNtNtNtBa_4iter6traits8iterator8Iterator3mapNtCs3cP53eQoTwO_11proc_macro25IdentNCNCNvNtCsfcpOYk5gj7s_10displaydoc6expand9impl_enums_0s0_0EB2b_, symObjAddr: 0x44C, symBinAddr: 0x109C, symSize: 0x14 }
  - { offset: 0xBD1B, size: 0x8, addend: 0x0, symName: __RINvYINtNtNtNtCsfvfooZQ3Axs_4core4iter8adapters7flatten7FlatMapINtNtCs6IAuOt8vWmF_3syn10punctuated4IterNtNtB14_8generics14TypeParamBoundEINtNtBc_6option6OptionRNtB1F_10TraitBoundENCNCNvNtCsfcpOYk5gj7s_10displaydoc6expand37extract_trait_constraints_from_source00ENtNtNtBa_6traits8iterator8Iterator6clonedB2y_EB2Z_, symObjAddr: 0x460, symBinAddr: 0x10B0, symSize: 0x30 }
  - { offset: 0xBDDD, size: 0x8, addend: 0x0, symName: __RNvXNtNtNtCsfvfooZQ3Axs_4core4iter6traits7collectINtNtNtB6_8adapters7flatten7FlatMapINtNtCs6IAuOt8vWmF_3syn10punctuated7IterMutNtNtB1p_8generics14WherePredicateEINtNtB8_6option6OptionQNtB23_13PredicateTypeENCNvNtCsfcpOYk5gj7s_10displaydoc6expand39ensure_display_in_where_clause_for_type0ENtB2_12IntoIterator9into_iterB3o_, symObjAddr: 0x1124, symBinAddr: 0x1D74, symSize: 0x30 }
  - { offset: 0xBED8, size: 0x8, addend: 0x0, symName: __RNvXs1_NtNtNtCsfvfooZQ3Axs_4core4iter8adapters7flattenINtB5_7FlatMapINtNtCs6IAuOt8vWmF_3syn10punctuated4IterNtNtB19_8generics14TypeParamBoundEINtNtBb_6option6OptionRNtB1K_10TraitBoundENCNCNvNtCsfcpOYk5gj7s_10displaydoc6expand37extract_trait_constraints_from_source00ENtNtNtB9_6traits8iterator8Iterator4nextB34_, symObjAddr: 0x1230, symBinAddr: 0x1E80, symSize: 0x24 }
  - { offset: 0xBF1F, size: 0x8, addend: 0x0, symName: __RNvXs1_NtNtNtCsfvfooZQ3Axs_4core4iter8adapters7flattenINtB5_7FlatMapINtNtCs6IAuOt8vWmF_3syn10punctuated4IterNtNtB19_8generics14TypeParamBoundEINtNtBb_6option6OptionRNtB1K_10TraitBoundENCNCNvNtCsfcpOYk5gj7s_10displaydoc6expand37extract_trait_constraints_from_source00ENtNtNtB9_6traits8iterator8Iterator9size_hintB34_, symObjAddr: 0x1254, symBinAddr: 0x1EA4, symSize: 0x24 }
  - { offset: 0xBF66, size: 0x8, addend: 0x0, symName: __RNvXs1_NtNtNtCsfvfooZQ3Axs_4core4iter8adapters7flattenINtB5_7FlatMapINtNtCs6IAuOt8vWmF_3syn10punctuated7IterMutNtNtB19_8generics14WherePredicateEINtNtBb_6option6OptionQNtB1N_13PredicateTypeENCNvNtCsfcpOYk5gj7s_10displaydoc6expand39ensure_display_in_where_clause_for_type0ENtNtNtB9_6traits8iterator8Iterator4nextB38_, symObjAddr: 0x1278, symBinAddr: 0x1EC8, symSize: 0x24 }
  - { offset: 0xBFB3, size: 0x8, addend: 0x0, symName: __RNvXsV_NtNtNtCsfvfooZQ3Axs_4core4iter8adapters7flattenINtB5_13FlattenCompatINtNtB7_3map3MapINtNtCs6IAuOt8vWmF_3syn10punctuated4IterNtNtB1w_8generics14TypeParamBoundENCNCNvNtCsfcpOYk5gj7s_10displaydoc6expand37extract_trait_constraints_from_source00EINtNtBb_6option8IntoIterRNtB27_10TraitBoundEENtNtNtB9_6traits8iterator8Iterator4nextB2L_, symObjAddr: 0x2218, symBinAddr: 0x2E68, symSize: 0xD0 }
  - { offset: 0xC03D, size: 0x8, addend: 0x0, symName: __RNvXsV_NtNtNtCsfvfooZQ3Axs_4core4iter8adapters7flattenINtB5_13FlattenCompatINtNtB7_3map3MapINtNtCs6IAuOt8vWmF_3syn10punctuated4IterNtNtB1w_8generics14TypeParamBoundENCNCNvNtCsfcpOYk5gj7s_10displaydoc6expand37extract_trait_constraints_from_source00EINtNtBb_6option8IntoIterRNtB27_10TraitBoundEENtNtNtB9_6traits8iterator8Iterator9size_hintB2L_, symObjAddr: 0x22E8, symBinAddr: 0x2F38, symSize: 0x148 }
  - { offset: 0xC0DF, size: 0x8, addend: 0x0, symName: __RNvXsV_NtNtNtCsfvfooZQ3Axs_4core4iter8adapters7flattenINtB5_13FlattenCompatINtNtB7_3map3MapINtNtCs6IAuOt8vWmF_3syn10punctuated7IterMutNtNtB1w_8generics14WherePredicateENCNvNtCsfcpOYk5gj7s_10displaydoc6expand39ensure_display_in_where_clause_for_type0EINtNtBb_6option8IntoIterQNtB2a_13PredicateTypeEENtNtNtB9_6traits8iterator8Iterator4nextB2M_, symObjAddr: 0x2430, symBinAddr: 0x3080, symSize: 0xD0 }
  - { offset: 0xC50A, size: 0x8, addend: 0x0, symName: __RNvXsh_NtNtNtCsfvfooZQ3Axs_4core4iter8adapters7step_byINtNtNtBb_3ops5range5RangejEINtB5_14SpecRangeSetupBQ_E5setupCsfcpOYk5gj7s_10displaydoc, symObjAddr: 0x26A8, symBinAddr: 0x32F8, symSize: 0x12C }
  - { offset: 0xC617, size: 0x8, addend: 0x0, symName: __RNvXs3_NtNtCsfvfooZQ3Axs_4core4iter5rangeINtNtNtB9_3ops5range5RangejENtB5_17RangeIteratorImpl9spec_nextCsfcpOYk5gj7s_10displaydoc, symObjAddr: 0x16D0, symBinAddr: 0x2320, symSize: 0x94 }
  - { offset: 0xC698, size: 0x8, addend: 0x0, symName: __RNvXs4_NtNtCsfvfooZQ3Axs_4core4iter5rangeINtNtNtB9_3ops5range5RangejENtNtNtB7_6traits8iterator8Iterator4nextCsfcpOYk5gj7s_10displaydoc, symObjAddr: 0x1764, symBinAddr: 0x23B4, symSize: 0x24 }
  - { offset: 0xC722, size: 0x8, addend: 0x0, symName: __RNvNvNtNtCsfvfooZQ3Axs_4core5slice3raw14from_raw_parts18precondition_checkCsfcpOYk5gj7s_10displaydoc, symObjAddr: 0xE54, symBinAddr: 0x1AA4, symSize: 0x168 }
  - { offset: 0xC868, size: 0x8, addend: 0x0, symName: __RNvNvNtNtCsfvfooZQ3Axs_4core5slice3raw18from_raw_parts_mut18precondition_checkCsfcpOYk5gj7s_10displaydoc, symObjAddr: 0xFBC, symBinAddr: 0x1C0C, symSize: 0x168 }
  - { offset: 0xC9AF, size: 0x8, addend: 0x0, symName: __RNvMNtCsfvfooZQ3Axs_4core5sliceSRe8is_emptyCsfcpOYk5gj7s_10displaydoc, symObjAddr: 0x8D0, symBinAddr: 0x1520, symSize: 0x1C }
  - { offset: 0xCA32, size: 0x8, addend: 0x0, symName: __RNvMNtCsfvfooZQ3Axs_4core5sliceSh15copy_from_sliceCsfcpOYk5gj7s_10displaydoc, symObjAddr: 0x8EC, symBinAddr: 0x153C, symSize: 0xA4 }
  - { offset: 0xCC1E, size: 0x8, addend: 0x0, symName: __RNvXs5_NtNtCsfvfooZQ3Axs_4core5slice5indexINtNtNtB9_3ops5range9RangeFromjEINtB5_10SliceIndexSReE5indexCsfcpOYk5gj7s_10displaydoc, symObjAddr: 0x1988, symBinAddr: 0x25D8, symSize: 0x88 }
  - { offset: 0xD027, size: 0x8, addend: 0x0, symName: __RNvNtNtCsfvfooZQ3Axs_4core4hash3sip9u8to64_leCsfcpOYk5gj7s_10displaydoc, symObjAddr: 0xB64, symBinAddr: 0x17B4, symSize: 0x228 }
  - { offset: 0xD1E4, size: 0x8, addend: 0x0, symName: __RNvXs3_NtNtCsfvfooZQ3Axs_4core4hash3sipINtB5_6HasherNtB5_11Sip13RoundsENtB7_6Hasher5writeCsfcpOYk5gj7s_10displaydoc, symObjAddr: 0x13A4, symBinAddr: 0x1FF4, symSize: 0x230 }
  - { offset: 0xD35A, size: 0x8, addend: 0x0, symName: __RNvXs3_NtNtCsfvfooZQ3Axs_4core4hash3sipINtB5_6HasherNtB5_11Sip13RoundsENtB7_6Hasher6finishCsfcpOYk5gj7s_10displaydoc, symObjAddr: 0x15D4, symBinAddr: 0x2224, symSize: 0xA0 }
  - { offset: 0xD3CD, size: 0x8, addend: 0x0, symName: __RNvXs3_NtNtCsfvfooZQ3Axs_4core4hash3sipINtB5_6HasherNtB5_11Sip13RoundsENtB7_6Hasher9write_strCsfcpOYk5gj7s_10displaydoc, symObjAddr: 0x1674, symBinAddr: 0x22C4, symSize: 0x5C }
  - { offset: 0xD433, size: 0x8, addend: 0x0, symName: __RNvXs6_NtNtCsfvfooZQ3Axs_4core4hash3sipNtB5_11Sip13RoundsNtB5_3Sip8c_roundsCsfcpOYk5gj7s_10displaydoc, symObjAddr: 0x1A10, symBinAddr: 0x2660, symSize: 0x170 }
  - { offset: 0xD5A9, size: 0x8, addend: 0x0, symName: __RNvXs6_NtNtCsfvfooZQ3Axs_4core4hash3sipNtB5_11Sip13RoundsNtB5_3Sip8d_roundsCsfcpOYk5gj7s_10displaydoc, symObjAddr: 0x1B80, symBinAddr: 0x27D0, symSize: 0x408 }
  - { offset: 0xDA1E, size: 0x8, addend: 0x0, symName: __RNvNvNtCsfvfooZQ3Axs_4core4hint21unreachable_unchecked18precondition_checkCsfcpOYk5gj7s_10displaydoc, symObjAddr: 0xE38, symBinAddr: 0x1A88, symSize: 0x1C }
  - { offset: 0xDBBE, size: 0x8, addend: 0x0, symName: __RNvXs2_NtNtNtCsfvfooZQ3Axs_4core3ops8function5implsQNCNCNvNtCsfcpOYk5gj7s_10displaydoc6expand11impl_struct00INtB7_6FnOnceTRNtNtCs6IAuOt8vWmF_3syn4data5FieldEE9call_onceBW_, symObjAddr: 0x129C, symBinAddr: 0x1EEC, symSize: 0x2C }
  - { offset: 0xDC0D, size: 0x8, addend: 0x0, symName: __RNvXs2_NtNtNtCsfvfooZQ3Axs_4core3ops8function5implsQNCNCNvNtCsfcpOYk5gj7s_10displaydoc6expand11impl_struct0s_0INtB7_6FnOnceTjEE9call_onceBW_, symObjAddr: 0x12C8, symBinAddr: 0x1F18, symSize: 0x2C }
  - { offset: 0xDC5C, size: 0x8, addend: 0x0, symName: __RNvXs2_NtNtNtCsfvfooZQ3Axs_4core3ops8function5implsQNCNCNvNtCsfcpOYk5gj7s_10displaydoc6expand37extract_trait_constraints_from_source00INtB7_6FnOnceTRNtNtCs6IAuOt8vWmF_3syn8generics14TypeParamBoundEE9call_onceBW_, symObjAddr: 0x12F4, symBinAddr: 0x1F44, symSize: 0x2C }
  - { offset: 0xDCAB, size: 0x8, addend: 0x0, symName: __RNvXs2_NtNtNtCsfvfooZQ3Axs_4core3ops8function5implsQNCNCNvNtCsfcpOYk5gj7s_10displaydoc6expand9impl_enums_0s0_0INtB7_6FnOnceTjEE9call_onceBW_, symObjAddr: 0x1320, symBinAddr: 0x1F70, symSize: 0x2C }
  - { offset: 0xDCFA, size: 0x8, addend: 0x0, symName: __RNvXs2_NtNtNtCsfvfooZQ3Axs_4core3ops8function5implsQNCNCNvNtCsfcpOYk5gj7s_10displaydoc6expand9impl_enums_0s_0INtB7_6FnOnceTRNtNtCs6IAuOt8vWmF_3syn4data5FieldEE9call_onceBW_, symObjAddr: 0x134C, symBinAddr: 0x1F9C, symSize: 0x2C }
  - { offset: 0xDD49, size: 0x8, addend: 0x0, symName: __RNvXs2_NtNtNtCsfvfooZQ3Axs_4core3ops8function5implsQNCNvNtCsfcpOYk5gj7s_10displaydoc6expand39ensure_display_in_where_clause_for_type0INtB7_6FnOnceTQNtNtCs6IAuOt8vWmF_3syn8generics14WherePredicateEE9call_onceBU_, symObjAddr: 0x1378, symBinAddr: 0x1FC8, symSize: 0x2C }
  - { offset: 0xE2AB, size: 0x8, addend: 0x0, symName: __RNvXs5_NtNtCsfvfooZQ3Axs_4core3str6traitsINtNtNtB9_3ops5range5RangejEINtNtNtB9_5slice5index10SliceIndexeE3getCsfcpOYk5gj7s_10displaydoc, symObjAddr: 0x1788, symBinAddr: 0x23D8, symSize: 0x200 }
  - { offset: 0xE43F, size: 0x8, addend: 0x0, symName: __RNvXsb_NtNtCsfvfooZQ3Axs_4core3str6traitsINtNtNtB9_3ops5range14RangeInclusivejEINtNtNtB9_5slice5index10SliceIndexeE5indexCsfcpOYk5gj7s_10displaydoc, symObjAddr: 0x2500, symBinAddr: 0x3150, symSize: 0x110 }
  - { offset: 0xE50F, size: 0x8, addend: 0x0, symName: __RNvXsd_NtNtCsfvfooZQ3Axs_4core3str6traitsINtNtNtB9_3ops5range16RangeToInclusivejEINtNtNtB9_5slice5index10SliceIndexeE5indexCsfcpOYk5gj7s_10displaydoc, symObjAddr: 0x2610, symBinAddr: 0x3260, symSize: 0x48 }
  - { offset: 0xE7A0, size: 0x8, addend: 0x0, symName: __RNCNCNvNtCsfcpOYk5gj7s_10displaydoc6expand37extract_trait_constraints_from_source00B7_, symObjAddr: 0x50C0, symBinAddr: 0x5D10, symSize: 0x80 }
  - { offset: 0xE7F4, size: 0x8, addend: 0x0, symName: __RNCNvNtCsfcpOYk5gj7s_10displaydoc6expand37extract_trait_constraints_from_source0B5_, symObjAddr: 0x4FD4, symBinAddr: 0x5C24, symSize: 0xEC }
  - { offset: 0xE83F, size: 0x8, addend: 0x0, symName: __RNCNvNtCsfcpOYk5gj7s_10displaydoc6expand37extract_trait_constraints_from_sources_0B5_, symObjAddr: 0x5140, symBinAddr: 0x5D90, symSize: 0x50 }
  - { offset: 0xE8C2, size: 0x8, addend: 0x0, symName: __RNCNvNtCsfcpOYk5gj7s_10displaydoc6expand9impl_enum0B5_, symObjAddr: 0x6718, symBinAddr: 0x7368, symSize: 0x84 }
  - { offset: 0xE916, size: 0x8, addend: 0x0, symName: __RNCNvNtCsfcpOYk5gj7s_10displaydoc6expand9impl_enums_0B5_, symObjAddr: 0x679C, symBinAddr: 0x73EC, symSize: 0x89C }
  - { offset: 0xEC3D, size: 0x8, addend: 0x0, symName: __RNCNCNvNtCsfcpOYk5gj7s_10displaydoc6expand9impl_enums_00B7_, symObjAddr: 0x7038, symBinAddr: 0x7C88, symSize: 0x48 }
  - { offset: 0xEC6D, size: 0x8, addend: 0x0, symName: __RNCNCNvNtCsfcpOYk5gj7s_10displaydoc6expand9impl_enums_0s_0B7_, symObjAddr: 0x7080, symBinAddr: 0x7CD0, symSize: 0x28 }
  - { offset: 0xECA6, size: 0x8, addend: 0x0, symName: __RNCNCNvNtCsfcpOYk5gj7s_10displaydoc6expand9impl_enums_0s0_0B7_, symObjAddr: 0x70A8, symBinAddr: 0x7CF8, symSize: 0x11C }
  - { offset: 0xED30, size: 0x8, addend: 0x0, symName: __RNCNvNtCsfcpOYk5gj7s_10displaydoc6expand39ensure_display_in_where_clause_for_type0B5_, symObjAddr: 0x5494, symBinAddr: 0x60E4, symSize: 0x78 }
  - { offset: 0xED88, size: 0x8, addend: 0x0, symName: __RNvNtCsfcpOYk5gj7s_10displaydoc6expand6derive, symObjAddr: 0x2E54, symBinAddr: 0x3AA4, symSize: 0x47C }
  - { offset: 0xEEAD, size: 0x8, addend: 0x0, symName: __RNvNtCsfcpOYk5gj7s_10displaydoc6expand14specialization, symObjAddr: 0x32D0, symBinAddr: 0x3F20, symSize: 0x24 }
  - { offset: 0xEECA, size: 0x8, addend: 0x0, symName: __RNvNtCsfcpOYk5gj7s_10displaydoc6expand11impl_struct, symObjAddr: 0x32F4, symBinAddr: 0x3F44, symSize: 0x294 }
  - { offset: 0xEFD2, size: 0x8, addend: 0x0, symName: __RNCNvNtCsfcpOYk5gj7s_10displaydoc6expand11impl_struct0B5_, symObjAddr: 0x3588, symBinAddr: 0x41D8, symSize: 0xB40 }
  - { offset: 0xF2E9, size: 0x8, addend: 0x0, symName: __RNCNCNvNtCsfcpOYk5gj7s_10displaydoc6expand11impl_struct00B7_, symObjAddr: 0x40C8, symBinAddr: 0x4D18, symSize: 0x28 }
  - { offset: 0xF31F, size: 0x8, addend: 0x0, symName: __RNCNCNvNtCsfcpOYk5gj7s_10displaydoc6expand11impl_struct0s_0B7_, symObjAddr: 0x40F0, symBinAddr: 0x4D40, symSize: 0x11C }
  - { offset: 0xF398, size: 0x8, addend: 0x0, symName: __RNvNtCsfcpOYk5gj7s_10displaydoc6expand30new_empty_where_type_predicate, symObjAddr: 0x420C, symBinAddr: 0x4E5C, symSize: 0x248 }
  - { offset: 0xF3DA, size: 0x8, addend: 0x0, symName: __RNvNtCsfcpOYk5gj7s_10displaydoc6expand22new_empty_where_clause, symObjAddr: 0x4454, symBinAddr: 0x50A4, symSize: 0x58 }
  - { offset: 0xF3F7, size: 0x8, addend: 0x0, symName: __RNvNtCsfcpOYk5gj7s_10displaydoc6expand10join_paths, symObjAddr: 0x44AC, symBinAddr: 0x50FC, symSize: 0x434 }
  - { offset: 0xF499, size: 0x8, addend: 0x0, symName: __RNvNtCsfcpOYk5gj7s_10displaydoc6expand34append_where_clause_type_predicate, symObjAddr: 0x48E0, symBinAddr: 0x5530, symSize: 0x12C }
  - { offset: 0xF4D0, size: 0x8, addend: 0x0, symName: __RNvNtCsfcpOYk5gj7s_10displaydoc6expand40add_display_constraint_to_type_predicate, symObjAddr: 0x4A0C, symBinAddr: 0x565C, symSize: 0x1C0 }
  - { offset: 0xF524, size: 0x8, addend: 0x0, symName: __RNvNtCsfcpOYk5gj7s_10displaydoc6expand37extract_trait_constraints_from_source, symObjAddr: 0x4BCC, symBinAddr: 0x581C, symSize: 0x408 }
  - { offset: 0xF658, size: 0x8, addend: 0x0, symName: __RNvNtCsfcpOYk5gj7s_10displaydoc6expand39ensure_display_in_where_clause_for_type, symObjAddr: 0x5190, symBinAddr: 0x5DE0, symSize: 0x304 }
  - { offset: 0xF71C, size: 0x8, addend: 0x0, symName: __RNvNtCsfcpOYk5gj7s_10displaydoc6expand61ensure_where_clause_has_display_for_all_unconstrained_members, symObjAddr: 0x550C, symBinAddr: 0x615C, symSize: 0x1F4 }
  - { offset: 0xF7AA, size: 0x8, addend: 0x0, symName: __RNvNtCsfcpOYk5gj7s_10displaydoc6expand21generate_where_clause, symObjAddr: 0x5700, symBinAddr: 0x6350, symSize: 0x138 }
  - { offset: 0xF814, size: 0x8, addend: 0x0, symName: __RNvNtCsfcpOYk5gj7s_10displaydoc6expand9impl_enum, symObjAddr: 0x5838, symBinAddr: 0x6488, symSize: 0xEE0 }
  - { offset: 0xFBEA, size: 0x8, addend: 0x0, symName: __RINvMNtCsfvfooZQ3Axs_4core6resultINtB3_6ResultNtCs3cP53eQoTwO_11proc_macro211TokenStreamNtNtCs6IAuOt8vWmF_3syn5error5ErrorE14unwrap_or_elseNCNvCsfcpOYk5gj7s_10displaydoc12derive_error0EB2h_, symObjAddr: 0x30, symBinAddr: 0xC80, symSize: 0x9C }
  - { offset: 0x10533, size: 0x8, addend: 0x0, symName: __RNvMNtCsfvfooZQ3Axs_4core6resultINtB2_6ResultNtNtCs6IAuOt8vWmF_3syn3lit6LitStrNtNtBL_5error5ErrorE6expectCsfcpOYk5gj7s_10displaydoc, symObjAddr: 0x990, symBinAddr: 0x15E0, symSize: 0xB4 }
  - { offset: 0x105E8, size: 0x8, addend: 0x0, symName: __RNvMs0_NtCse1nGBsou5OW_5alloc7raw_vecINtB5_6RawVecNtNtCs6IAuOt8vWmF_3syn8generics10TraitBoundE8grow_oneCsfcpOYk5gj7s_10displaydoc, symObjAddr: 0xA44, symBinAddr: 0x1694, symSize: 0x94 }
  - { offset: 0x1065E, size: 0x8, addend: 0x0, symName: __RNvMs0_NtNtCsfvfooZQ3Axs_4core4hash3sipINtB5_6HasherNtB5_11Sip13RoundsE5resetCsfcpOYk5gj7s_10displaydoc, symObjAddr: 0xAD8, symBinAddr: 0x1728, symSize: 0x8C }
  - { offset: 0x10A07, size: 0x8, addend: 0x0, symName: __RNvYRNtNtCs6IAuOt8vWmF_3syn4data7VariantNtNtCs2cqEZUIJimJ_5quote9to_tokens8ToTokens15to_token_streamCsfcpOYk5gj7s_10displaydoc, symObjAddr: 0x2D74, symBinAddr: 0x39C4, symSize: 0x8C }
  - { offset: 0x10A51, size: 0x8, addend: 0x0, symName: __RNvYRNtNtCs6IAuOt8vWmF_3syn4data7VariantNtNtCs2cqEZUIJimJ_5quote9to_tokens8ToTokens17into_token_streamCsfcpOYk5gj7s_10displaydoc, symObjAddr: 0x2E00, symBinAddr: 0x3A50, symSize: 0x54 }
  - { offset: 0x1113D, size: 0x8, addend: 0x0, symName: __RINvMs6_NtCsloNvcHxBCre_9hashbrown3rawINtB6_8RawTableTNtCs3cP53eQoTwO_11proc_macro25IdentINtNtCse1nGBsou5OW_5alloc3vec3VecNtNtCs6IAuOt8vWmF_3syn8generics10TraitBoundEEE14reserve_rehashNCINvNtB8_3map11make_hasherBQ_B1p_NtNtNtCscOYdFFY2T5N_3std4hash6random11RandomStateE0ECsfcpOYk5gj7s_10displaydoc, symObjAddr: 0x0, symBinAddr: 0x17C890, symSize: 0x830 }
  - { offset: 0x11179, size: 0x8, addend: 0x0, symName: __RNCINvMs6_NtCsloNvcHxBCre_9hashbrown3rawINtB8_8RawTableTNtCs3cP53eQoTwO_11proc_macro25IdentINtNtCse1nGBsou5OW_5alloc3vec3VecNtNtCs6IAuOt8vWmF_3syn8generics10TraitBoundEEE14reserve_rehashNCINvNtBa_3map11make_hasherBS_B1r_NtNtNtCscOYdFFY2T5N_3std4hash6random11RandomStateE0E0CsfcpOYk5gj7s_10displaydoc, symObjAddr: 0x12A4, symBinAddr: 0x88DC, symSize: 0xC0 }
  - { offset: 0x11336, size: 0x8, addend: 0x0, symName: __RNCINvMs6_NtCsloNvcHxBCre_9hashbrown3rawINtB8_8RawTableTNtCs3cP53eQoTwO_11proc_macro25IdentINtNtCse1nGBsou5OW_5alloc3vec3VecNtNtCs6IAuOt8vWmF_3syn8generics10TraitBoundEEE14reserve_rehashNCINvNtBa_3map11make_hasherBS_B1r_NtNtNtCscOYdFFY2T5N_3std4hash6random11RandomStateE0Es_0CsfcpOYk5gj7s_10displaydoc, symObjAddr: 0x1364, symBinAddr: 0x899C, symSize: 0x30 }
  - { offset: 0x11393, size: 0x8, addend: 0x0, symName: __RNCINvMs6_NtCsloNvcHxBCre_9hashbrown3rawINtB8_8RawTableTNtCs3cP53eQoTwO_11proc_macro25IdentINtNtCse1nGBsou5OW_5alloc3vec3VecNtNtCs6IAuOt8vWmF_3syn8generics10TraitBoundEEE24find_or_find_insert_slotNCINvNtBa_3map14equivalent_keyBS_BS_B1r_E0NCINvB3d_11make_hasherBS_B1r_NtNtNtCscOYdFFY2T5N_3std4hash6random11RandomStateE0E0CsfcpOYk5gj7s_10displaydoc, symObjAddr: 0x1394, symBinAddr: 0x89CC, symSize: 0xC4 }
  - { offset: 0x11CD8, size: 0x8, addend: 0x0, symName: __RNCINvMsa_NtCsloNvcHxBCre_9hashbrown3rawNtB8_13RawTableInner14prepare_resizeNtNtCse1nGBsou5OW_5alloc5alloc6GlobalE0CsfcpOYk5gj7s_10displaydoc, symObjAddr: 0x1458, symBinAddr: 0x8A90, symSize: 0xBC }
  - { offset: 0x11EBB, size: 0x8, addend: 0x0, symName: __RNCNvMsa_NtCsloNvcHxBCre_9hashbrown3rawNtB7_13RawTableInner15rehash_in_place0CsfcpOYk5gj7s_10displaydoc, symObjAddr: 0x1514, symBinAddr: 0x8B4C, symSize: 0x23C }
  - { offset: 0x1257B, size: 0x8, addend: 0x0, symName: __RNvNtCsloNvcHxBCre_9hashbrown3raw19capacity_to_bucketsCsfcpOYk5gj7s_10displaydoc, symObjAddr: 0x2C24, symBinAddr: 0xA25C, symSize: 0x198 }
  - { offset: 0x12736, size: 0x8, addend: 0x0, symName: __RNvXsB_NtCsloNvcHxBCre_9hashbrown3rawINtB5_11RawIntoIterTNtCs3cP53eQoTwO_11proc_macro25IdentINtNtCse1nGBsou5OW_5alloc3vec3VecNtNtCs6IAuOt8vWmF_3syn8generics10TraitBoundEEENtNtNtCsfvfooZQ3Axs_4core3ops4drop4Drop4dropCsfcpOYk5gj7s_10displaydoc, symObjAddr: 0x2DBC, symBinAddr: 0xA3F4, symSize: 0x78 }
  - { offset: 0x127B6, size: 0x8, addend: 0x0, symName: __RNvXsD_NtCsloNvcHxBCre_9hashbrown3rawINtB5_11RawIntoIterTNtCs3cP53eQoTwO_11proc_macro25IdentINtNtCse1nGBsou5OW_5alloc3vec3VecNtNtCs6IAuOt8vWmF_3syn8generics10TraitBoundEEENtNtNtNtCsfvfooZQ3Axs_4core4iter6traits8iterator8Iterator4nextCsfcpOYk5gj7s_10displaydoc, symObjAddr: 0x2E34, symBinAddr: 0xA46C, symSize: 0x110 }
  - { offset: 0x12945, size: 0x8, addend: 0x0, symName: __RNvXsg_NtCsloNvcHxBCre_9hashbrown3rawINtB5_8RawTableTNtCs3cP53eQoTwO_11proc_macro25IdentINtNtCse1nGBsou5OW_5alloc3vec3VecNtNtCs6IAuOt8vWmF_3syn8generics10TraitBoundEEENtNtNtCsfvfooZQ3Axs_4core3ops4drop4Drop4dropCsfcpOYk5gj7s_10displaydoc, symObjAddr: 0x2F44, symBinAddr: 0xA57C, symSize: 0x3C }
  - { offset: 0x12987, size: 0x8, addend: 0x0, symName: __RNvXsh_NtCsloNvcHxBCre_9hashbrown3rawINtB5_8RawTableTNtCs3cP53eQoTwO_11proc_macro25IdentINtNtCse1nGBsou5OW_5alloc3vec3VecNtNtCs6IAuOt8vWmF_3syn8generics10TraitBoundEEENtNtNtNtCsfvfooZQ3Axs_4core4iter6traits7collect12IntoIterator9into_iterCsfcpOYk5gj7s_10displaydoc, symObjAddr: 0x2F80, symBinAddr: 0xA5B8, symSize: 0x11C }
  - { offset: 0x1E852, size: 0x8, addend: 0x0, symName: __RINvMs6_NtCsloNvcHxBCre_9hashbrown3rawINtB6_8RawTableTNtCs3cP53eQoTwO_11proc_macro25IdentINtNtCse1nGBsou5OW_5alloc3vec3VecNtNtCs6IAuOt8vWmF_3syn8generics10TraitBoundEEE14reserve_rehashNCINvNtB8_3map11make_hasherBQ_B1p_NtNtNtCscOYdFFY2T5N_3std4hash6random11RandomStateE0ECsfcpOYk5gj7s_10displaydoc, symObjAddr: 0x0, symBinAddr: 0x17C890, symSize: 0x830 }
  - { offset: 0x1F242, size: 0x8, addend: 0x0, symName: __RINvMs6_NtCsloNvcHxBCre_9hashbrown3rawINtB6_8RawTableTNtCs3cP53eQoTwO_11proc_macro25IdentINtNtCse1nGBsou5OW_5alloc3vec3VecNtNtCs6IAuOt8vWmF_3syn8generics10TraitBoundEEE24find_or_find_insert_slotNCINvNtB8_3map14equivalent_keyBQ_BQ_B1p_E0NCINvB3b_11make_hasherBQ_B1p_NtNtNtCscOYdFFY2T5N_3std4hash6random11RandomStateE0ECsfcpOYk5gj7s_10displaydoc, symObjAddr: 0x830, symBinAddr: 0x7E68, symSize: 0x13C }
  - { offset: 0x1F426, size: 0x8, addend: 0x0, symName: __RINvMs6_NtCsloNvcHxBCre_9hashbrown3rawINtB6_8RawTableTNtCs3cP53eQoTwO_11proc_macro25IdentINtNtCse1nGBsou5OW_5alloc3vec3VecNtNtCs6IAuOt8vWmF_3syn8generics10TraitBoundEEE7reserveNCINvNtB8_3map11make_hasherBQ_B1p_NtNtNtCscOYdFFY2T5N_3std4hash6random11RandomStateE0ECsfcpOYk5gj7s_10displaydoc, symObjAddr: 0x96C, symBinAddr: 0x7FA4, symSize: 0xCC }
  - { offset: 0x1F60A, size: 0x8, addend: 0x0, symName: __RINvMsa_NtCsloNvcHxBCre_9hashbrown3rawNtB6_13RawTableInner13drop_elementsTNtCs3cP53eQoTwO_11proc_macro25IdentINtNtCse1nGBsou5OW_5alloc3vec3VecNtNtCs6IAuOt8vWmF_3syn8generics10TraitBoundEEECsfcpOYk5gj7s_10displaydoc, symObjAddr: 0xA38, symBinAddr: 0x8070, symSize: 0x174 }
  - { offset: 0x1F977, size: 0x8, addend: 0x0, symName: __RINvMsa_NtCsloNvcHxBCre_9hashbrown3rawNtB6_13RawTableInner16drop_inner_tableTNtCs3cP53eQoTwO_11proc_macro25IdentINtNtCse1nGBsou5OW_5alloc3vec3VecNtNtCs6IAuOt8vWmF_3syn8generics10TraitBoundEENtNtB1R_5alloc6GlobalECsfcpOYk5gj7s_10displaydoc, symObjAddr: 0xBAC, symBinAddr: 0x81E4, symSize: 0xBC }
  - { offset: 0x1FB8A, size: 0x8, addend: 0x0, symName: __RINvMsa_NtCsloNvcHxBCre_9hashbrown3rawNtB6_13RawTableInner17new_uninitializedNtNtCse1nGBsou5OW_5alloc5alloc6GlobalECsfcpOYk5gj7s_10displaydoc, symObjAddr: 0xC68, symBinAddr: 0x82A0, symSize: 0x1B0 }
  - { offset: 0x1FDC3, size: 0x8, addend: 0x0, symName: __RINvMsa_NtCsloNvcHxBCre_9hashbrown3rawNtB6_13RawTableInner22fallible_with_capacityNtNtCse1nGBsou5OW_5alloc5alloc6GlobalECsfcpOYk5gj7s_10displaydoc, symObjAddr: 0xE18, symBinAddr: 0x8450, symSize: 0x2A8 }
  - { offset: 0x2023A, size: 0x8, addend: 0x0, symName: __RINvMsi_NtCsloNvcHxBCre_9hashbrown3rawINtB6_12RawIterRangeTNtCs3cP53eQoTwO_11proc_macro25IdentINtNtCse1nGBsou5OW_5alloc3vec3VecNtNtCs6IAuOt8vWmF_3syn8generics10TraitBoundEEE9next_implKb0_ECsfcpOYk5gj7s_10displaydoc, symObjAddr: 0x10C0, symBinAddr: 0x86F8, symSize: 0x1E4 }
  - { offset: 0x209D2, size: 0x8, addend: 0x0, symName: __RNvMs1_NtCsloNvcHxBCre_9hashbrown3rawNtB5_11TableLayout20calculate_layout_forCsfcpOYk5gj7s_10displaydoc, symObjAddr: 0x1750, symBinAddr: 0x8D88, symSize: 0x210 }
  - { offset: 0x20E5F, size: 0x8, addend: 0x0, symName: __RNvMs6_NtCsloNvcHxBCre_9hashbrown3rawINtB5_8RawTableTNtCs3cP53eQoTwO_11proc_macro25IdentINtNtCse1nGBsou5OW_5alloc3vec3VecNtNtCs6IAuOt8vWmF_3syn8generics10TraitBoundEEE14insert_in_slotCsfcpOYk5gj7s_10displaydoc, symObjAddr: 0x1960, symBinAddr: 0x8F98, symSize: 0x140 }
  - { offset: 0x211F1, size: 0x8, addend: 0x0, symName: __RNvMs6_NtCsloNvcHxBCre_9hashbrown3rawINtB5_8RawTableTNtCs3cP53eQoTwO_11proc_macro25IdentINtNtCse1nGBsou5OW_5alloc3vec3VecNtNtCs6IAuOt8vWmF_3syn8generics10TraitBoundEEE14into_iter_fromCsfcpOYk5gj7s_10displaydoc, symObjAddr: 0x1AA0, symBinAddr: 0x90D8, symSize: 0x90 }
  - { offset: 0x212DD, size: 0x8, addend: 0x0, symName: __RNvMs6_NtCsloNvcHxBCre_9hashbrown3rawINtB5_8RawTableTNtCs3cP53eQoTwO_11proc_macro25IdentINtNtCse1nGBsou5OW_5alloc3vec3VecNtNtCs6IAuOt8vWmF_3syn8generics10TraitBoundEEE15into_allocationCsfcpOYk5gj7s_10displaydoc, symObjAddr: 0x1B30, symBinAddr: 0x9168, symSize: 0x13C }
  - { offset: 0x2151E, size: 0x8, addend: 0x0, symName: __RNvMsa_NtCsloNvcHxBCre_9hashbrown3rawNtB5_13RawTableInner15fix_insert_slotCsfcpOYk5gj7s_10displaydoc, symObjAddr: 0x1C6C, symBinAddr: 0x92A4, symSize: 0x128 }
  - { offset: 0x2189C, size: 0x8, addend: 0x0, symName: __RNvMsa_NtCsloNvcHxBCre_9hashbrown3rawNtB5_13RawTableInner15rehash_in_placeCsfcpOYk5gj7s_10displaydoc, symObjAddr: 0x1D94, symBinAddr: 0x93CC, symSize: 0x4E8 }
  - { offset: 0x220B3, size: 0x8, addend: 0x0, symName: __RNvMsa_NtCsloNvcHxBCre_9hashbrown3rawNtB5_13RawTableInner16find_insert_slotCsfcpOYk5gj7s_10displaydoc, symObjAddr: 0x227C, symBinAddr: 0x98B4, symSize: 0x10C }
  - { offset: 0x222A4, size: 0x8, addend: 0x0, symName: __RNvMsa_NtCsloNvcHxBCre_9hashbrown3rawNtB5_13RawTableInner19prepare_insert_slotCsfcpOYk5gj7s_10displaydoc, symObjAddr: 0x2388, symBinAddr: 0x99C0, symSize: 0x74 }
  - { offset: 0x22596, size: 0x8, addend: 0x0, symName: __RNvMsa_NtCsloNvcHxBCre_9hashbrown3rawNtB5_13RawTableInner23prepare_rehash_in_placeCsfcpOYk5gj7s_10displaydoc, symObjAddr: 0x23FC, symBinAddr: 0x9A34, symSize: 0x254 }
  - { offset: 0x22C92, size: 0x8, addend: 0x0, symName: __RNvMsa_NtCsloNvcHxBCre_9hashbrown3rawNtB5_13RawTableInner25find_insert_slot_in_groupCsfcpOYk5gj7s_10displaydoc, symObjAddr: 0x2650, symBinAddr: 0x9C88, symSize: 0x160 }
  - { offset: 0x22FA3, size: 0x8, addend: 0x0, symName: __RNvMsa_NtCsloNvcHxBCre_9hashbrown3rawNtB5_13RawTableInner30find_or_find_insert_slot_innerCsfcpOYk5gj7s_10displaydoc, symObjAddr: 0x27B0, symBinAddr: 0x9DE8, symSize: 0x2BC }
  - { offset: 0x2339E, size: 0x8, addend: 0x0, symName: __RNvMsi_NtCsloNvcHxBCre_9hashbrown3rawINtB5_12RawIterRangeTNtCs3cP53eQoTwO_11proc_macro25IdentINtNtCse1nGBsou5OW_5alloc3vec3VecNtNtCs6IAuOt8vWmF_3syn8generics10TraitBoundEEE3newCsfcpOYk5gj7s_10displaydoc, symObjAddr: 0x2A6C, symBinAddr: 0xA0A4, symSize: 0xC0 }
  - { offset: 0x2364E, size: 0x8, addend: 0x0, symName: __RNvMso_NtCsloNvcHxBCre_9hashbrown3rawINtB5_7RawIterTNtCs3cP53eQoTwO_11proc_macro25IdentINtNtCse1nGBsou5OW_5alloc3vec3VecNtNtCs6IAuOt8vWmF_3syn8generics10TraitBoundEEE13drop_elementsCsfcpOYk5gj7s_10displaydoc, symObjAddr: 0x2B2C, symBinAddr: 0xA164, symSize: 0xF8 }
  - { offset: 0x238F5, size: 0x8, addend: 0x0, symName: __RINvMsi_NtCse1nGBsou5OW_5alloc3vecINtB6_3VecINtNtCsfvfooZQ3Axs_4core6option6OptionNtNtCsfcpOYk5gj7s_10displaydoc4attr14VariantDisplayEE16extend_desugaredINtNtNtBL_4iter8adapters12GenericShuntINtNtB2u_3map3MapINtNtCs6IAuOt8vWmF_3syn10punctuated4IterNtNtB3p_4data7VariantENCNvNtB1m_6expand9impl_enum0EINtNtBL_6result6ResultNtNtBL_7convert10InfallibleNtNtB3p_5error5ErrorEEEB1m_, symObjAddr: 0x0, symBinAddr: 0xA6D4, symSize: 0x200 }
  - { offset: 0x23E6C, size: 0x8, addend: 0x0, symName: __RNCNCNvXsG_NtCs6IAuOt8vWmF_3syn10punctuatedINtB9_14PrivateIterMutNtNtBb_8generics14WherePredicateNtNtBb_5token5CommaENtNtNtNtCsfvfooZQ3Axs_4core4iter6traits12double_ended19DoubleEndedIterator9next_back00CsfcpOYk5gj7s_10displaydoc, symObjAddr: 0xDF0, symBinAddr: 0xB4C4, symSize: 0x24 }
  - { offset: 0x23EBF, size: 0x8, addend: 0x0, symName: __RNCNvXsG_NtCs6IAuOt8vWmF_3syn10punctuatedINtB7_14PrivateIterMutNtNtB9_8generics14WherePredicateNtNtB9_5token5CommaENtNtNtNtCsfvfooZQ3Axs_4core4iter6traits12double_ended19DoubleEndedIterator9next_back0CsfcpOYk5gj7s_10displaydoc, symObjAddr: 0xEB4, symBinAddr: 0xB588, symSize: 0x38 }
  - { offset: 0x23F02, size: 0x8, addend: 0x0, symName: __RNvXsG_NtCs6IAuOt8vWmF_3syn10punctuatedINtB5_14PrivateIterMutNtNtB7_8generics14WherePredicateNtNtB7_5token5CommaENtNtNtNtCsfvfooZQ3Axs_4core4iter6traits12double_ended19DoubleEndedIterator9next_backCsfcpOYk5gj7s_10displaydoc, symObjAddr: 0x2884, symBinAddr: 0xCF58, symSize: 0x40 }
  - { offset: 0x23F52, size: 0x8, addend: 0x0, symName: __RNCNCNvXsx_NtCs6IAuOt8vWmF_3syn10punctuatedINtB9_11PrivateIterNtNtBb_4data7VariantNtNtBb_5token5CommaENtNtNtNtCsfvfooZQ3Axs_4core4iter6traits12double_ended19DoubleEndedIterator9next_back00CsfcpOYk5gj7s_10displaydoc, symObjAddr: 0xE14, symBinAddr: 0xB4E8, symSize: 0x24 }
  - { offset: 0x23F9D, size: 0x8, addend: 0x0, symName: __RNCNCNvXsx_NtCs6IAuOt8vWmF_3syn10punctuatedINtB9_11PrivateIterNtNtBb_8generics14WherePredicateNtNtBb_5token5CommaENtNtNtNtCsfvfooZQ3Axs_4core4iter6traits12double_ended19DoubleEndedIterator9next_back00CsfcpOYk5gj7s_10displaydoc, symObjAddr: 0xE38, symBinAddr: 0xB50C, symSize: 0x24 }
  - { offset: 0x23FF7, size: 0x8, addend: 0x0, symName: __RNCNvXsx_NtCs6IAuOt8vWmF_3syn10punctuatedINtB7_11PrivateIterNtNtB9_4data7VariantNtNtB9_5token5CommaENtNtNtNtCsfvfooZQ3Axs_4core4iter6traits12double_ended19DoubleEndedIterator9next_back0CsfcpOYk5gj7s_10displaydoc, symObjAddr: 0xF9C, symBinAddr: 0xB670, symSize: 0x38 }
  - { offset: 0x24039, size: 0x8, addend: 0x0, symName: __RNCNvXsx_NtCs6IAuOt8vWmF_3syn10punctuatedINtB7_11PrivateIterNtNtB9_8generics14WherePredicateNtNtB9_5token5CommaENtNtNtNtCsfvfooZQ3Axs_4core4iter6traits12double_ended19DoubleEndedIterator9next_back0CsfcpOYk5gj7s_10displaydoc, symObjAddr: 0xFD4, symBinAddr: 0xB6A8, symSize: 0x38 }
  - { offset: 0x2407C, size: 0x8, addend: 0x0, symName: __RNvXsx_NtCs6IAuOt8vWmF_3syn10punctuatedINtB5_11PrivateIterNtNtB7_4data7VariantNtNtB7_5token5CommaENtNtNtNtCsfvfooZQ3Axs_4core4iter6traits12double_ended19DoubleEndedIterator9next_backCsfcpOYk5gj7s_10displaydoc, symObjAddr: 0x2DA8, symBinAddr: 0xD47C, symSize: 0x40 }
  - { offset: 0x240BC, size: 0x8, addend: 0x0, symName: __RNvXsx_NtCs6IAuOt8vWmF_3syn10punctuatedINtB5_11PrivateIterNtNtB7_8generics14WherePredicateNtNtB7_5token5CommaENtNtNtNtCsfvfooZQ3Axs_4core4iter6traits12double_ended19DoubleEndedIterator9next_backCsfcpOYk5gj7s_10displaydoc, symObjAddr: 0x2DE8, symBinAddr: 0xD4BC, symSize: 0x40 }
  - { offset: 0x24107, size: 0x8, addend: 0x0, symName: __RNCNvXsF_NtCs6IAuOt8vWmF_3syn10punctuatedINtB7_14PrivateIterMutNtNtB9_8generics14WherePredicateNtNtB9_5token5CommaENtNtNtNtCsfvfooZQ3Axs_4core4iter6traits8iterator8Iterator4next0CsfcpOYk5gj7s_10displaydoc, symObjAddr: 0xE5C, symBinAddr: 0xB530, symSize: 0x24 }
  - { offset: 0x24152, size: 0x8, addend: 0x0, symName: __RNCNvXsF_NtCs6IAuOt8vWmF_3syn10punctuatedINtB7_14PrivateIterMutNtNtB9_8generics14WherePredicateNtNtB9_5token5CommaENtNtNtNtCsfvfooZQ3Axs_4core4iter6traits8iterator8Iterator4nexts_0CsfcpOYk5gj7s_10displaydoc, symObjAddr: 0xE80, symBinAddr: 0xB554, symSize: 0x34 }
  - { offset: 0x2419C, size: 0x8, addend: 0x0, symName: __RNvXsF_NtCs6IAuOt8vWmF_3syn10punctuatedINtB5_14PrivateIterMutNtNtB7_8generics14WherePredicateNtNtB7_5token5CommaENtNtNtNtCsfvfooZQ3Axs_4core4iter6traits8iterator8Iterator4nextCsfcpOYk5gj7s_10displaydoc, symObjAddr: 0x2840, symBinAddr: 0xCF14, symSize: 0x44 }
  - { offset: 0x241E7, size: 0x8, addend: 0x0, symName: __RNCNvXsw_NtCs6IAuOt8vWmF_3syn10punctuatedINtB7_11PrivateIterNtNtB9_4data7VariantNtNtB9_5token5CommaENtNtNtNtCsfvfooZQ3Axs_4core4iter6traits8iterator8Iterator4next0CsfcpOYk5gj7s_10displaydoc, symObjAddr: 0xEEC, symBinAddr: 0xB5C0, symSize: 0x24 }
  - { offset: 0x24232, size: 0x8, addend: 0x0, symName: __RNCNvXsw_NtCs6IAuOt8vWmF_3syn10punctuatedINtB7_11PrivateIterNtNtB9_4data7VariantNtNtB9_5token5CommaENtNtNtNtCsfvfooZQ3Axs_4core4iter6traits8iterator8Iterator4nexts_0CsfcpOYk5gj7s_10displaydoc, symObjAddr: 0xF10, symBinAddr: 0xB5E4, symSize: 0x34 }
  - { offset: 0x24274, size: 0x8, addend: 0x0, symName: __RNCNvXsw_NtCs6IAuOt8vWmF_3syn10punctuatedINtB7_11PrivateIterNtNtB9_8generics14WherePredicateNtNtB9_5token5CommaENtNtNtNtCsfvfooZQ3Axs_4core4iter6traits8iterator8Iterator4next0CsfcpOYk5gj7s_10displaydoc, symObjAddr: 0xF44, symBinAddr: 0xB618, symSize: 0x24 }
  - { offset: 0x242BF, size: 0x8, addend: 0x0, symName: __RNCNvXsw_NtCs6IAuOt8vWmF_3syn10punctuatedINtB7_11PrivateIterNtNtB9_8generics14WherePredicateNtNtB9_5token5CommaENtNtNtNtCsfvfooZQ3Axs_4core4iter6traits8iterator8Iterator4nexts_0CsfcpOYk5gj7s_10displaydoc, symObjAddr: 0xF68, symBinAddr: 0xB63C, symSize: 0x34 }
  - { offset: 0x24310, size: 0x8, addend: 0x0, symName: __RNvXsw_NtCs6IAuOt8vWmF_3syn10punctuatedINtB5_11PrivateIterNtNtB7_4data7VariantNtNtB7_5token5CommaENtNtNtNtCsfvfooZQ3Axs_4core4iter6traits8iterator8Iterator4nextCsfcpOYk5gj7s_10displaydoc, symObjAddr: 0x2D20, symBinAddr: 0xD3F4, symSize: 0x44 }
  - { offset: 0x24350, size: 0x8, addend: 0x0, symName: __RNvXsw_NtCs6IAuOt8vWmF_3syn10punctuatedINtB5_11PrivateIterNtNtB7_8generics14WherePredicateNtNtB7_5token5CommaENtNtNtNtCsfvfooZQ3Axs_4core4iter6traits8iterator8Iterator4nextCsfcpOYk5gj7s_10displaydoc, symObjAddr: 0x2D64, symBinAddr: 0xD438, symSize: 0x44 }
  - { offset: 0x243B4, size: 0x8, addend: 0x0, symName: __RNvXsA_NtCs6IAuOt8vWmF_3syn10punctuatedINtB5_11PrivateIterNtNtB7_4data7VariantNtNtB7_5token5CommaEINtB5_9IterTraitBU_E9clone_boxCsfcpOYk5gj7s_10displaydoc, symObjAddr: 0x26D0, symBinAddr: 0xCDA4, symSize: 0x94 }
  - { offset: 0x24412, size: 0x8, addend: 0x0, symName: __RNvXsA_NtCs6IAuOt8vWmF_3syn10punctuatedINtB5_11PrivateIterNtNtB7_8generics14WherePredicateNtNtB7_5token5CommaEINtB5_9IterTraitBU_E9clone_boxCsfcpOYk5gj7s_10displaydoc, symObjAddr: 0x2764, symBinAddr: 0xCE38, symSize: 0x94 }
  - { offset: 0x24476, size: 0x8, addend: 0x0, symName: __RNvXsC_NtCs6IAuOt8vWmF_3syn10punctuatedINtB5_7IterMutNtNtB7_8generics14WherePredicateENtNtNtNtCsfvfooZQ3Axs_4core4iter6traits8iterator8Iterator4nextCsfcpOYk5gj7s_10displaydoc, symObjAddr: 0x27F8, symBinAddr: 0xCECC, symSize: 0x48 }
  - { offset: 0x244B3, size: 0x8, addend: 0x0, symName: __RNvXsH_NtCs6IAuOt8vWmF_3syn10punctuatedINtB5_14PrivateIterMutNtNtB7_8generics14WherePredicateNtNtB7_5token5CommaENtNtNtNtCsfvfooZQ3Axs_4core4iter6traits10exact_size17ExactSizeIterator3lenCsfcpOYk5gj7s_10displaydoc, symObjAddr: 0x28C4, symBinAddr: 0xCF98, symSize: 0x94 }
  - { offset: 0x2452D, size: 0x8, addend: 0x0, symName: __RNvXst_NtCs6IAuOt8vWmF_3syn10punctuatedINtB5_4IterNtNtB7_4data7VariantENtNtNtNtCsfvfooZQ3Axs_4core4iter6traits8iterator8Iterator4nextCsfcpOYk5gj7s_10displaydoc, symObjAddr: 0x2B08, symBinAddr: 0xD1DC, symSize: 0x48 }
  - { offset: 0x24564, size: 0x8, addend: 0x0, symName: __RNvXst_NtCs6IAuOt8vWmF_3syn10punctuatedINtB5_4IterNtNtB7_4data7VariantENtNtNtNtCsfvfooZQ3Axs_4core4iter6traits8iterator8Iterator9size_hintCsfcpOYk5gj7s_10displaydoc, symObjAddr: 0x2B50, symBinAddr: 0xD224, symSize: 0x7C }
  - { offset: 0x2459B, size: 0x8, addend: 0x0, symName: __RNvXst_NtCs6IAuOt8vWmF_3syn10punctuatedINtB5_4IterNtNtB7_8generics14TypeParamBoundENtNtNtNtCsfvfooZQ3Axs_4core4iter6traits8iterator8Iterator9size_hintCsfcpOYk5gj7s_10displaydoc, symObjAddr: 0x2BCC, symBinAddr: 0xD2A0, symSize: 0x7C }
  - { offset: 0x245D2, size: 0x8, addend: 0x0, symName: __RNvXst_NtCs6IAuOt8vWmF_3syn10punctuatedINtB5_4IterNtNtB7_8generics14WherePredicateENtNtNtNtCsfvfooZQ3Axs_4core4iter6traits8iterator8Iterator4nextCsfcpOYk5gj7s_10displaydoc, symObjAddr: 0x2C48, symBinAddr: 0xD31C, symSize: 0x48 }
  - { offset: 0x2460F, size: 0x8, addend: 0x0, symName: __RNvXsv_NtCs6IAuOt8vWmF_3syn10punctuatedINtB5_4IterNtNtB7_4data7VariantENtNtNtNtCsfvfooZQ3Axs_4core4iter6traits10exact_size17ExactSizeIterator3lenCsfcpOYk5gj7s_10displaydoc, symObjAddr: 0x2C90, symBinAddr: 0xD364, symSize: 0x48 }
  - { offset: 0x24646, size: 0x8, addend: 0x0, symName: __RNvXsv_NtCs6IAuOt8vWmF_3syn10punctuatedINtB5_4IterNtNtB7_8generics14TypeParamBoundENtNtNtNtCsfvfooZQ3Axs_4core4iter6traits10exact_size17ExactSizeIterator3lenCsfcpOYk5gj7s_10displaydoc, symObjAddr: 0x2CD8, symBinAddr: 0xD3AC, symSize: 0x48 }
  - { offset: 0x24683, size: 0x8, addend: 0x0, symName: __RNvXsy_NtCs6IAuOt8vWmF_3syn10punctuatedINtB5_11PrivateIterNtNtB7_4data7VariantNtNtB7_5token5CommaENtNtNtNtCsfvfooZQ3Axs_4core4iter6traits10exact_size17ExactSizeIterator3lenCsfcpOYk5gj7s_10displaydoc, symObjAddr: 0x2E28, symBinAddr: 0xD4FC, symSize: 0x94 }
  - { offset: 0x246F7, size: 0x8, addend: 0x0, symName: __RNvXsy_NtCs6IAuOt8vWmF_3syn10punctuatedINtB5_11PrivateIterNtNtB7_8generics14WherePredicateNtNtB7_5token5CommaENtNtNtNtCsfvfooZQ3Axs_4core4iter6traits10exact_size17ExactSizeIterator3lenCsfcpOYk5gj7s_10displaydoc, symObjAddr: 0x2EBC, symBinAddr: 0xD590, symSize: 0x94 }
  - { offset: 0x24771, size: 0x8, addend: 0x0, symName: __RNvXsz_NtCs6IAuOt8vWmF_3syn10punctuatedINtB5_11PrivateIterNtNtB7_4data7VariantNtNtB7_5token5CommaENtNtCsfvfooZQ3Axs_4core5clone5Clone5cloneCsfcpOYk5gj7s_10displaydoc, symObjAddr: 0x2F50, symBinAddr: 0xD624, symSize: 0x68 }
  - { offset: 0x247B1, size: 0x8, addend: 0x0, symName: __RNvXsz_NtCs6IAuOt8vWmF_3syn10punctuatedINtB5_11PrivateIterNtNtB7_8generics14WherePredicateNtNtB7_5token5CommaENtNtCsfvfooZQ3Axs_4core5clone5Clone5cloneCsfcpOYk5gj7s_10displaydoc, symObjAddr: 0x2FB8, symBinAddr: 0xD68C, symSize: 0x68 }
  - { offset: 0x2A3D3, size: 0x8, addend: 0x0, symName: __RINvXsd_NtCse1nGBsou5OW_5alloc3vecINtB6_3VecINtNtCsfvfooZQ3Axs_4core6option6OptionNtNtCsfcpOYk5gj7s_10displaydoc4attr14VariantDisplayEEINtNtNtNtBL_4iter6traits7collect12FromIteratorBG_E9from_iterINtNtB2g_8adapters12GenericShuntINtNtB3a_3map3MapINtNtCs6IAuOt8vWmF_3syn10punctuated4IterNtNtB3Z_4data7VariantENCNvNtB1m_6expand9impl_enum0EINtNtBL_6result6ResultNtNtBL_7convert10InfallibleNtNtB3Z_5error5ErrorEEEB1m_, symObjAddr: 0x900, symBinAddr: 0xAFD4, symSize: 0x3C }
  - { offset: 0x2A414, size: 0x8, addend: 0x0, symName: __RINvXsd_NtCse1nGBsou5OW_5alloc3vecINtB6_3VecNtCs3cP53eQoTwO_11proc_macro211TokenStreamEINtNtNtNtCsfvfooZQ3Axs_4core4iter6traits7collect12FromIteratorBG_E9from_iterINtNtB1u_8adapters12GenericShuntINtNtB2E_3map3MapINtNtB2E_3zip3ZipINtNtCs6IAuOt8vWmF_3syn10punctuated4IterNtNtB3K_4data7VariantEINtNtB6_9into_iter8IntoIterINtNtB1w_6option6OptionNtNtCsfcpOYk5gj7s_10displaydoc4attr14VariantDisplayEEENCNvNtB5x_6expand9impl_enums_0EINtNtB1w_6result6ResultNtNtB1w_7convert10InfallibleNtNtB3K_5error5ErrorEEEB5x_, symObjAddr: 0x93C, symBinAddr: 0xB010, symSize: 0x3C }
  - { offset: 0x2A455, size: 0x8, addend: 0x0, symName: __RINvXsd_NtCse1nGBsou5OW_5alloc3vecINtB6_3VecNtNtCs6IAuOt8vWmF_3syn8generics10TraitBoundEINtNtNtNtCsfvfooZQ3Axs_4core4iter6traits7collect12FromIteratorBG_E9from_iterINtNtNtB1v_8adapters6cloned6ClonedINtNtB2H_7flatten7FlatMapINtNtBK_10punctuated4IterNtBI_14TypeParamBoundEINtNtB1x_6option6OptionRBG_ENCNCNvNtCsfcpOYk5gj7s_10displaydoc6expand37extract_trait_constraints_from_source00EEEB4U_, symObjAddr: 0x978, symBinAddr: 0xB04C, symSize: 0x3C }
  - { offset: 0x2A496, size: 0x8, addend: 0x0, symName: __RINvXsd_NtCse1nGBsou5OW_5alloc3vecINtB6_3VecRNtNtCs6IAuOt8vWmF_3syn8generics9TypeParamEINtNtNtNtCsfvfooZQ3Axs_4core4iter6traits7collect12FromIteratorBG_E9from_iterNtBJ_10TypeParamsECsfcpOYk5gj7s_10displaydoc, symObjAddr: 0x9B4, symBinAddr: 0xB088, symSize: 0x40 }
  - { offset: 0x2A4D6, size: 0x8, addend: 0x0, symName: __RINvXsd_NtCse1nGBsou5OW_5alloc3vecINtB6_3VecReEINtNtNtNtCsfvfooZQ3Axs_4core4iter6traits7collect12FromIteratorBG_E9from_iterINtNtNtBQ_8adapters3map3MapNtNtNtBS_3str4iter5LinesNCNvMs0_NtCsfcpOYk5gj7s_10displaydoc4attrNtB2U_11AttrsHelper7displays0_0EEB2W_, symObjAddr: 0x9F4, symBinAddr: 0xB0C8, symSize: 0x3C }
  - { offset: 0x2A522, size: 0x8, addend: 0x0, symName: __RNvXNtNtCse1nGBsou5OW_5alloc3vec11spec_extendINtB4_3VecINtNtCsfvfooZQ3Axs_4core6option6OptionNtNtCsfcpOYk5gj7s_10displaydoc4attr14VariantDisplayEEINtB2_10SpecExtendBR_INtNtNtBW_4iter8adapters12GenericShuntINtNtB2I_3map3MapINtNtCs6IAuOt8vWmF_3syn10punctuated4IterNtNtB3D_4data7VariantENCNvNtB1x_6expand9impl_enum0EINtNtBW_6result6ResultNtNtBW_7convert10InfallibleNtNtB3D_5error5ErrorEEE11spec_extendB1x_, symObjAddr: 0x1998, symBinAddr: 0xC06C, symSize: 0x24 }
  - { offset: 0x2A574, size: 0x8, addend: 0x0, symName: __RNvXNtNtCse1nGBsou5OW_5alloc3vec11spec_extendINtB4_3VecNtCs3cP53eQoTwO_11proc_macro211TokenStreamEINtB2_10SpecExtendBR_INtNtNtCsfvfooZQ3Axs_4core4iter8adapters12GenericShuntINtNtB1W_3map3MapINtNtB1W_3zip3ZipINtNtCs6IAuOt8vWmF_3syn10punctuated4IterNtNtB3o_4data7VariantEINtNtB4_9into_iter8IntoIterINtNtB20_6option6OptionNtNtCsfcpOYk5gj7s_10displaydoc4attr14VariantDisplayEEENCNvNtB5b_6expand9impl_enums_0EINtNtB20_6result6ResultNtNtB20_7convert10InfallibleNtNtB3o_5error5ErrorEEE11spec_extendB5b_, symObjAddr: 0x19BC, symBinAddr: 0xC090, symSize: 0x24 }
  - { offset: 0x2A5C6, size: 0x8, addend: 0x0, symName: __RNvXNtNtCse1nGBsou5OW_5alloc3vec11spec_extendINtB4_3VecNtNtCs6IAuOt8vWmF_3syn8generics10TraitBoundEINtB2_10SpecExtendBR_INtNtNtNtCsfvfooZQ3Axs_4core4iter8adapters6cloned6ClonedINtNtB1Z_7flatten7FlatMapINtNtBV_10punctuated4IterNtBT_14TypeParamBoundEINtNtB23_6option6OptionRBR_ENCNCNvNtCsfcpOYk5gj7s_10displaydoc6expand37extract_trait_constraints_from_source00EEE11spec_extendB4y_, symObjAddr: 0x19E0, symBinAddr: 0xC0B4, symSize: 0x24 }
  - { offset: 0x2A618, size: 0x8, addend: 0x0, symName: __RNvXNtNtCse1nGBsou5OW_5alloc3vec11spec_extendINtB4_3VecRNtNtCs6IAuOt8vWmF_3syn8generics9TypeParamEINtB2_10SpecExtendBR_NtBU_10TypeParamsE11spec_extendCsfcpOYk5gj7s_10displaydoc, symObjAddr: 0x1A04, symBinAddr: 0xC0D8, symSize: 0x34 }
  - { offset: 0x2A669, size: 0x8, addend: 0x0, symName: __RNvXNtNtCse1nGBsou5OW_5alloc3vec11spec_extendINtB4_3VecReEINtB2_10SpecExtendBR_INtNtNtNtCsfvfooZQ3Axs_4core4iter8adapters3map3MapNtNtNtB1o_3str4iter5LinesNCNvMs0_NtCsfcpOYk5gj7s_10displaydoc4attrNtB2A_11AttrsHelper7displays0_0EE11spec_extendB2C_, symObjAddr: 0x1A38, symBinAddr: 0xC10C, symSize: 0x24 }
  - { offset: 0x2A6C7, size: 0x8, addend: 0x0, symName: __RNvXNtNtCse1nGBsou5OW_5alloc3vec14spec_from_iterINtB4_3VecINtNtCsfvfooZQ3Axs_4core6option6OptionNtNtCsfcpOYk5gj7s_10displaydoc4attr14VariantDisplayEEINtB2_12SpecFromIterBU_INtNtNtBZ_4iter8adapters12GenericShuntINtNtB2N_3map3MapINtNtCs6IAuOt8vWmF_3syn10punctuated4IterNtNtB3I_4data7VariantENCNvNtB1A_6expand9impl_enum0EINtNtBZ_6result6ResultNtNtBZ_7convert10InfallibleNtNtB3I_5error5ErrorEEE9from_iterB1A_, symObjAddr: 0x1A5C, symBinAddr: 0xC130, symSize: 0x14 }
  - { offset: 0x2A706, size: 0x8, addend: 0x0, symName: __RNvXNtNtCse1nGBsou5OW_5alloc3vec14spec_from_iterINtB4_3VecNtCs3cP53eQoTwO_11proc_macro211TokenStreamEINtB2_12SpecFromIterBU_INtNtNtCsfvfooZQ3Axs_4core4iter8adapters12GenericShuntINtNtB21_3map3MapINtNtB21_3zip3ZipINtNtCs6IAuOt8vWmF_3syn10punctuated4IterNtNtB3t_4data7VariantEINtNtB4_9into_iter8IntoIterINtNtB25_6option6OptionNtNtCsfcpOYk5gj7s_10displaydoc4attr14VariantDisplayEEENCNvNtB5g_6expand9impl_enums_0EINtNtB25_6result6ResultNtNtB25_7convert10InfallibleNtNtB3t_5error5ErrorEEE9from_iterB5g_, symObjAddr: 0x1A70, symBinAddr: 0xC144, symSize: 0x14 }
  - { offset: 0x2A745, size: 0x8, addend: 0x0, symName: __RNvXNtNtCse1nGBsou5OW_5alloc3vec14spec_from_iterINtB4_3VecNtNtCs6IAuOt8vWmF_3syn8generics10TraitBoundEINtB2_12SpecFromIterBU_INtNtNtNtCsfvfooZQ3Axs_4core4iter8adapters6cloned6ClonedINtNtB24_7flatten7FlatMapINtNtBY_10punctuated4IterNtBW_14TypeParamBoundEINtNtB28_6option6OptionRBU_ENCNCNvNtCsfcpOYk5gj7s_10displaydoc6expand37extract_trait_constraints_from_source00EEE9from_iterB4D_, symObjAddr: 0x1A84, symBinAddr: 0xC158, symSize: 0x14 }
  - { offset: 0x2A784, size: 0x8, addend: 0x0, symName: __RNvXNtNtCse1nGBsou5OW_5alloc3vec14spec_from_iterINtB4_3VecRNtNtCs6IAuOt8vWmF_3syn8generics9TypeParamEINtB2_12SpecFromIterBU_NtBX_10TypeParamsE9from_iterCsfcpOYk5gj7s_10displaydoc, symObjAddr: 0x1A98, symBinAddr: 0xC16C, symSize: 0x2C }
  - { offset: 0x2A7C2, size: 0x8, addend: 0x0, symName: __RNvXNtNtCse1nGBsou5OW_5alloc3vec14spec_from_iterINtB4_3VecReEINtB2_12SpecFromIterBU_INtNtNtNtCsfvfooZQ3Axs_4core4iter8adapters3map3MapNtNtNtB1t_3str4iter5LinesNCNvMs0_NtCsfcpOYk5gj7s_10displaydoc4attrNtB2F_11AttrsHelper7displays0_0EE9from_iterB2H_, symObjAddr: 0x1AC4, symBinAddr: 0xC198, symSize: 0x14 }
  - { offset: 0x2A80D, size: 0x8, addend: 0x0, symName: __RNvXNtNtCse1nGBsou5OW_5alloc3vec21spec_from_iter_nestedINtB4_3VecINtNtCsfvfooZQ3Axs_4core6option6OptionNtNtCsfcpOYk5gj7s_10displaydoc4attr14VariantDisplayEEINtB2_18SpecFromIterNestedB11_INtNtNtB16_4iter8adapters12GenericShuntINtNtB31_3map3MapINtNtCs6IAuOt8vWmF_3syn10punctuated4IterNtNtB3X_4data7VariantENCNvNtB1H_6expand9impl_enum0EINtNtB16_6result6ResultNtNtB16_7convert10InfallibleNtNtB3X_5error5ErrorEEE9from_iterB1H_, symObjAddr: 0x1AD8, symBinAddr: 0xC1AC, symSize: 0x24C }
  - { offset: 0x2AA2C, size: 0x8, addend: 0x0, symName: __RNvXNtNtCse1nGBsou5OW_5alloc3vec21spec_from_iter_nestedINtB4_3VecNtCs3cP53eQoTwO_11proc_macro211TokenStreamEINtB2_18SpecFromIterNestedB11_INtNtNtCsfvfooZQ3Axs_4core4iter8adapters12GenericShuntINtNtB2f_3map3MapINtNtB2f_3zip3ZipINtNtCs6IAuOt8vWmF_3syn10punctuated4IterNtNtB3H_4data7VariantEINtNtB4_9into_iter8IntoIterINtNtB2j_6option6OptionNtNtCsfcpOYk5gj7s_10displaydoc4attr14VariantDisplayEEENCNvNtB5u_6expand9impl_enums_0EINtNtB2j_6result6ResultNtNtB2j_7convert10InfallibleNtNtB3H_5error5ErrorEEE9from_iterB5u_, symObjAddr: 0x1D24, symBinAddr: 0xC3F8, symSize: 0x234 }
  - { offset: 0x2AC4B, size: 0x8, addend: 0x0, symName: __RNvXNtNtCse1nGBsou5OW_5alloc3vec21spec_from_iter_nestedINtB4_3VecNtNtCs6IAuOt8vWmF_3syn8generics10TraitBoundEINtB2_18SpecFromIterNestedB11_INtNtNtNtCsfvfooZQ3Axs_4core4iter8adapters6cloned6ClonedINtNtB2i_7flatten7FlatMapINtNtB15_10punctuated4IterNtB13_14TypeParamBoundEINtNtB2m_6option6OptionRB11_ENCNCNvNtCsfcpOYk5gj7s_10displaydoc6expand37extract_trait_constraints_from_source00EEE9from_iterB4U_, symObjAddr: 0x1F58, symBinAddr: 0xC62C, symSize: 0x248 }
  - { offset: 0x2AE6A, size: 0x8, addend: 0x0, symName: __RNvXNtNtCse1nGBsou5OW_5alloc3vec21spec_from_iter_nestedINtB4_3VecRNtNtCs6IAuOt8vWmF_3syn8generics9TypeParamEINtB2_18SpecFromIterNestedB11_NtB14_10TypeParamsE9from_iterCsfcpOYk5gj7s_10displaydoc, symObjAddr: 0x21A0, symBinAddr: 0xC874, symSize: 0x204 }
  - { offset: 0x2B088, size: 0x8, addend: 0x0, symName: __RNvXNtNtCse1nGBsou5OW_5alloc3vec21spec_from_iter_nestedINtB4_3VecReEINtB2_18SpecFromIterNestedB11_INtNtNtNtCsfvfooZQ3Axs_4core4iter8adapters3map3MapNtNtNtB1H_3str4iter5LinesNCNvMs0_NtCsfcpOYk5gj7s_10displaydoc4attrNtB2T_11AttrsHelper7displays0_0EE9from_iterB2V_, symObjAddr: 0x23A4, symBinAddr: 0xCA78, symSize: 0x22C }
  - { offset: 0x2B2AE, size: 0x8, addend: 0x0, symName: __RNvXs6_NtCse1nGBsou5OW_5alloc3vecINtB5_3VecINtNtCsfvfooZQ3Axs_4core6option6OptionNtNtCsfcpOYk5gj7s_10displaydoc4attr14VariantDisplayEENtNtNtBK_3ops5deref5Deref5derefB1l_, symObjAddr: 0x2640, symBinAddr: 0xCD14, symSize: 0x24 }
  - { offset: 0x2B2EE, size: 0x8, addend: 0x0, symName: __RNvXs6_NtCse1nGBsou5OW_5alloc3vecINtB5_3VecNtCs3cP53eQoTwO_11proc_macro211TokenStreamENtNtNtCsfvfooZQ3Axs_4core3ops5deref5Deref5derefCsfcpOYk5gj7s_10displaydoc, symObjAddr: 0x2664, symBinAddr: 0xCD38, symSize: 0x24 }
  - { offset: 0x2B32E, size: 0x8, addend: 0x0, symName: __RNvXs6_NtCse1nGBsou5OW_5alloc3vecINtB5_3VecRNtNtCs6IAuOt8vWmF_3syn8generics9TypeParamENtNtNtCsfvfooZQ3Axs_4core3ops5deref5Deref5derefCsfcpOYk5gj7s_10displaydoc, symObjAddr: 0x2688, symBinAddr: 0xCD5C, symSize: 0x24 }
  - { offset: 0x2B374, size: 0x8, addend: 0x0, symName: __RNvXs7_NtCse1nGBsou5OW_5alloc3vecINtB5_3VecTNtNtCs6IAuOt8vWmF_3syn8generics14WherePredicateNtNtBK_5token5CommaEENtNtNtCsfvfooZQ3Axs_4core3ops5deref8DerefMut9deref_mutCsfcpOYk5gj7s_10displaydoc, symObjAddr: 0x26AC, symBinAddr: 0xCD80, symSize: 0x24 }
  - { offset: 0x2B3BA, size: 0x8, addend: 0x0, symName: __RNvXse_NtCse1nGBsou5OW_5alloc3vecINtB5_3VecINtNtCsfvfooZQ3Axs_4core6option6OptionNtNtCsfcpOYk5gj7s_10displaydoc4attr14VariantDisplayEENtNtNtNtBK_4iter6traits7collect12IntoIterator9into_iterB1l_, symObjAddr: 0x2958, symBinAddr: 0xD02C, symSize: 0xE4 }
  - { offset: 0x2B652, size: 0x8, addend: 0x0, symName: __RNvXsn_NtCse1nGBsou5OW_5alloc3vecINtB5_3VecINtNtCsfvfooZQ3Axs_4core6option6OptionNtNtCsfcpOYk5gj7s_10displaydoc4attr14VariantDisplayEENtNtNtBK_3ops4drop4Drop4dropB1l_, symObjAddr: 0x2A3C, symBinAddr: 0xD110, symSize: 0x38 }
  - { offset: 0x2B702, size: 0x8, addend: 0x0, symName: __RNvXsn_NtCse1nGBsou5OW_5alloc3vecINtB5_3VecNtCs3cP53eQoTwO_11proc_macro211TokenStreamENtNtNtCsfvfooZQ3Axs_4core3ops4drop4Drop4dropCsfcpOYk5gj7s_10displaydoc, symObjAddr: 0x2A74, symBinAddr: 0xD148, symSize: 0x38 }
  - { offset: 0x2B7B2, size: 0x8, addend: 0x0, symName: __RNvXsn_NtCse1nGBsou5OW_5alloc3vecINtB5_3VecNtNtCs6IAuOt8vWmF_3syn8generics10TraitBoundENtNtNtCsfvfooZQ3Axs_4core3ops4drop4Drop4dropCsfcpOYk5gj7s_10displaydoc, symObjAddr: 0x2AAC, symBinAddr: 0xD180, symSize: 0x38 }
  - { offset: 0x2B862, size: 0x8, addend: 0x0, symName: __RNvXsn_NtCse1nGBsou5OW_5alloc3vecINtB5_3VecRNtNtCs6IAuOt8vWmF_3syn8generics9TypeParamENtNtNtCsfvfooZQ3Axs_4core3ops4drop4Drop4dropCsfcpOYk5gj7s_10displaydoc, symObjAddr: 0x2AE4, symBinAddr: 0xD1B8, symSize: 0x24 }
  - { offset: 0x30ED6, size: 0x8, addend: 0x0, symName: __RINvYINtNtCs6IAuOt8vWmF_3syn10punctuated4IterNtNtB8_4data5FieldENtNtNtNtCsfvfooZQ3Axs_4core4iter6traits8iterator8Iterator3mapRINtNtB18_6option6OptionNtCs3cP53eQoTwO_11proc_macro25IdentENCNCNvNtCsfcpOYk5gj7s_10displaydoc6expand11impl_struct00EB35_, symObjAddr: 0xA30, symBinAddr: 0xB104, symSize: 0x1C }
  - { offset: 0x30F2E, size: 0x8, addend: 0x0, symName: __RINvYINtNtCs6IAuOt8vWmF_3syn10punctuated4IterNtNtB8_4data5FieldENtNtNtNtCsfvfooZQ3Axs_4core4iter6traits8iterator8Iterator3mapRINtNtB18_6option6OptionNtCs3cP53eQoTwO_11proc_macro25IdentENCNCNvNtCsfcpOYk5gj7s_10displaydoc6expand9impl_enums_0s_0EB35_, symObjAddr: 0xA4C, symBinAddr: 0xB120, symSize: 0x1C }
  - { offset: 0x30F86, size: 0x8, addend: 0x0, symName: __RINvYINtNtCs6IAuOt8vWmF_3syn10punctuated4IterNtNtB8_4data7VariantENtNtNtNtCsfvfooZQ3Axs_4core4iter6traits8iterator8Iterator3mapINtNtB1a_6result6ResultINtNtB1a_6option6OptionNtNtCsfcpOYk5gj7s_10displaydoc4attr14VariantDisplayENtNtB8_5error5ErrorENCNvNtB2P_6expand9impl_enum0EB2P_, symObjAddr: 0xA68, symBinAddr: 0xB13C, symSize: 0x3C }
  - { offset: 0x30FF3, size: 0x8, addend: 0x0, symName: __RINvYINtNtCs6IAuOt8vWmF_3syn10punctuated4IterNtNtB8_4data7VariantENtNtNtNtCsfvfooZQ3Axs_4core4iter6traits8iterator8Iterator3zipINtNtCse1nGBsou5OW_5alloc3vec3VecINtNtB1a_6option6OptionNtNtCsfcpOYk5gj7s_10displaydoc4attr14VariantDisplayEEEB2Z_, symObjAddr: 0xAA4, symBinAddr: 0xB178, symSize: 0xA0 }
  - { offset: 0x31069, size: 0x8, addend: 0x0, symName: __RINvYINtNtCs6IAuOt8vWmF_3syn10punctuated4IterNtNtB8_4data7VariantENtNtNtNtCsfvfooZQ3Axs_4core4iter6traits8iterator8Iterator8try_folduNCINvNtNtB18_8adapters3map12map_try_foldRBH_INtNtB1a_6result6ResultINtNtB1a_6option6OptionNtNtCsfcpOYk5gj7s_10displaydoc4attr14VariantDisplayENtNtB8_5error5ErrorEuINtNtNtB1a_3ops12control_flow11ControlFlowIB4L_B3c_EENCNvNtB3D_6expand9impl_enum0NCINvXB2e_INtB2e_12GenericShuntINtB2c_3MapB3_B5B_EIB2Q_NtNtB1a_7convert10InfallibleB4p_EEB12_8try_folduNCINvNvB12_12try_for_each4callB3c_B5q_NcNtB5q_5Break0E0B5q_E0E0B4K_EB3D_, symObjAddr: 0xB44, symBinAddr: 0xB218, symSize: 0x14C }
  - { offset: 0x31125, size: 0x8, addend: 0x0, symName: __RINvYINtNtCs6IAuOt8vWmF_3syn10punctuated4IterNtNtB8_8generics14TypeParamBoundENtNtNtNtCsfvfooZQ3Axs_4core4iter6traits8iterator8Iterator3mapINtNtB1m_6option6OptionRNtBJ_10TraitBoundENCNCNvNtCsfcpOYk5gj7s_10displaydoc6expand37extract_trait_constraints_from_source00EB31_, symObjAddr: 0xC90, symBinAddr: 0xB364, symSize: 0x1C }
  - { offset: 0x311A4, size: 0x8, addend: 0x0, symName: __RINvYINtNtCs6IAuOt8vWmF_3syn10punctuated4IterNtNtB8_8generics14TypeParamBoundENtNtNtNtCsfvfooZQ3Axs_4core4iter6traits8iterator8Iterator8flat_mapINtNtB1m_6option6OptionRNtBJ_10TraitBoundENCNCNvNtCsfcpOYk5gj7s_10displaydoc6expand37extract_trait_constraints_from_source00EB36_, symObjAddr: 0xCAC, symBinAddr: 0xB380, symSize: 0x94 }
  - { offset: 0x31272, size: 0x8, addend: 0x0, symName: __RINvYINtNtCs6IAuOt8vWmF_3syn10punctuated7IterMutNtNtB8_8generics14WherePredicateENtNtNtNtCsfvfooZQ3Axs_4core4iter6traits8iterator8Iterator3mapINtNtB1p_6option6OptionQNtBM_13PredicateTypeENCNvNtCsfcpOYk5gj7s_10displaydoc6expand39ensure_display_in_where_clause_for_type0EB35_, symObjAddr: 0xD40, symBinAddr: 0xB414, symSize: 0x1C }
  - { offset: 0x312F1, size: 0x8, addend: 0x0, symName: __RINvYINtNtCs6IAuOt8vWmF_3syn10punctuated7IterMutNtNtB8_8generics14WherePredicateENtNtNtNtCsfvfooZQ3Axs_4core4iter6traits8iterator8Iterator8flat_mapINtNtB1p_6option6OptionQNtBM_13PredicateTypeENCNvNtCsfcpOYk5gj7s_10displaydoc6expand39ensure_display_in_where_clause_for_type0EB3a_, symObjAddr: 0xD5C, symBinAddr: 0xB430, symSize: 0x94 }
  - { offset: 0x313BF, size: 0x8, addend: 0x0, symName: __RNvYINtNtCs6IAuOt8vWmF_3syn10punctuated11PrivateIterNtNtB7_4data7VariantNtNtB7_5token5CommaENtNtNtNtCsfvfooZQ3Axs_4core4iter6traits8iterator8Iterator10advance_byCsfcpOYk5gj7s_10displaydoc, symObjAddr: 0x31E8, symBinAddr: 0xD8BC, symSize: 0x134 }
  - { offset: 0x31515, size: 0x8, addend: 0x0, symName: __RNvYINtNtCs6IAuOt8vWmF_3syn10punctuated11PrivateIterNtNtB7_4data7VariantNtNtB7_5token5CommaENtNtNtNtCsfvfooZQ3Axs_4core4iter6traits8iterator8Iterator3nthCsfcpOYk5gj7s_10displaydoc, symObjAddr: 0x331C, symBinAddr: 0xD9F0, symSize: 0x80 }
  - { offset: 0x315E1, size: 0x8, addend: 0x0, symName: __RNvYINtNtCs6IAuOt8vWmF_3syn10punctuated11PrivateIterNtNtB7_4data7VariantNtNtB7_5token5CommaENtNtNtNtCsfvfooZQ3Axs_4core4iter6traits8iterator8Iterator9size_hintCsfcpOYk5gj7s_10displaydoc, symObjAddr: 0x339C, symBinAddr: 0xDA70, symSize: 0x34 }
  - { offset: 0x31616, size: 0x8, addend: 0x0, symName: __RNvYINtNtCs6IAuOt8vWmF_3syn10punctuated11PrivateIterNtNtB7_8generics14WherePredicateNtNtB7_5token5CommaENtNtNtNtCsfvfooZQ3Axs_4core4iter6traits8iterator8Iterator10advance_byCsfcpOYk5gj7s_10displaydoc, symObjAddr: 0x3598, symBinAddr: 0xDC6C, symSize: 0x134 }
  - { offset: 0x3176C, size: 0x8, addend: 0x0, symName: __RNvYINtNtCs6IAuOt8vWmF_3syn10punctuated11PrivateIterNtNtB7_8generics14WherePredicateNtNtB7_5token5CommaENtNtNtNtCsfvfooZQ3Axs_4core4iter6traits8iterator8Iterator3nthCsfcpOYk5gj7s_10displaydoc, symObjAddr: 0x36CC, symBinAddr: 0xDDA0, symSize: 0x80 }
  - { offset: 0x31838, size: 0x8, addend: 0x0, symName: __RNvYINtNtCs6IAuOt8vWmF_3syn10punctuated11PrivateIterNtNtB7_8generics14WherePredicateNtNtB7_5token5CommaENtNtNtNtCsfvfooZQ3Axs_4core4iter6traits8iterator8Iterator9size_hintCsfcpOYk5gj7s_10displaydoc, symObjAddr: 0x374C, symBinAddr: 0xDE20, symSize: 0x34 }
  - { offset: 0x3186D, size: 0x8, addend: 0x0, symName: __RNvYINtNtCs6IAuOt8vWmF_3syn10punctuated14PrivateIterMutNtNtB7_8generics14WherePredicateNtNtB7_5token5CommaENtNtNtNtCsfvfooZQ3Axs_4core4iter6traits8iterator8Iterator10advance_byCsfcpOYk5gj7s_10displaydoc, symObjAddr: 0x3948, symBinAddr: 0xE01C, symSize: 0x134 }
  - { offset: 0x319C3, size: 0x8, addend: 0x0, symName: __RNvYINtNtCs6IAuOt8vWmF_3syn10punctuated14PrivateIterMutNtNtB7_8generics14WherePredicateNtNtB7_5token5CommaENtNtNtNtCsfvfooZQ3Axs_4core4iter6traits8iterator8Iterator3nthCsfcpOYk5gj7s_10displaydoc, symObjAddr: 0x3A7C, symBinAddr: 0xE150, symSize: 0x80 }
  - { offset: 0x31A8F, size: 0x8, addend: 0x0, symName: __RNvYINtNtCs6IAuOt8vWmF_3syn10punctuated14PrivateIterMutNtNtB7_8generics14WherePredicateNtNtB7_5token5CommaENtNtNtNtCsfvfooZQ3Axs_4core4iter6traits8iterator8Iterator9size_hintCsfcpOYk5gj7s_10displaydoc, symObjAddr: 0x3AFC, symBinAddr: 0xE1D0, symSize: 0x34 }
  - { offset: 0x31AEF, size: 0x8, addend: 0x0, symName: __RNvXNtNtNtCsfvfooZQ3Axs_4core4iter6traits7collectINtNtCs6IAuOt8vWmF_3syn10punctuated4IterNtNtBQ_8generics14TypeParamBoundENtB2_12IntoIterator9into_iterCsfcpOYk5gj7s_10displaydoc, symObjAddr: 0x25D0, symBinAddr: 0xCCA4, symSize: 0x1C }
  - { offset: 0x31B26, size: 0x8, addend: 0x0, symName: __RNvXNtNtNtCsfvfooZQ3Axs_4core4iter6traits7collectINtNtCs6IAuOt8vWmF_3syn10punctuated4IterNtNtBQ_8generics14WherePredicateENtB2_12IntoIterator9into_iterCsfcpOYk5gj7s_10displaydoc, symObjAddr: 0x25EC, symBinAddr: 0xCCC0, symSize: 0x1C }
  - { offset: 0x31B69, size: 0x8, addend: 0x0, symName: __RNvYINtNtCs6IAuOt8vWmF_3syn10punctuated11PrivateIterNtNtB7_4data7VariantNtNtB7_5token5CommaENtNtNtNtCsfvfooZQ3Axs_4core4iter6traits10exact_size17ExactSizeIterator8is_emptyCsfcpOYk5gj7s_10displaydoc, symObjAddr: 0x3020, symBinAddr: 0xD6F4, symSize: 0x2C }
  - { offset: 0x31B9E, size: 0x8, addend: 0x0, symName: __RNvYINtNtCs6IAuOt8vWmF_3syn10punctuated11PrivateIterNtNtB7_8generics14WherePredicateNtNtB7_5token5CommaENtNtNtNtCsfvfooZQ3Axs_4core4iter6traits10exact_size17ExactSizeIterator8is_emptyCsfcpOYk5gj7s_10displaydoc, symObjAddr: 0x33D0, symBinAddr: 0xDAA4, symSize: 0x2C }
  - { offset: 0x31BD3, size: 0x8, addend: 0x0, symName: __RNvYINtNtCs6IAuOt8vWmF_3syn10punctuated14PrivateIterMutNtNtB7_8generics14WherePredicateNtNtB7_5token5CommaENtNtNtNtCsfvfooZQ3Axs_4core4iter6traits10exact_size17ExactSizeIterator8is_emptyCsfcpOYk5gj7s_10displaydoc, symObjAddr: 0x3780, symBinAddr: 0xDE54, symSize: 0x2C }
  - { offset: 0x31C14, size: 0x8, addend: 0x0, symName: __RNvYINtNtCs6IAuOt8vWmF_3syn10punctuated11PrivateIterNtNtB7_4data7VariantNtNtB7_5token5CommaENtNtNtNtCsfvfooZQ3Axs_4core4iter6traits12double_ended19DoubleEndedIterator15advance_back_byCsfcpOYk5gj7s_10displaydoc, symObjAddr: 0x304C, symBinAddr: 0xD720, symSize: 0x134 }
  - { offset: 0x31D62, size: 0x8, addend: 0x0, symName: __RNvYINtNtCs6IAuOt8vWmF_3syn10punctuated11PrivateIterNtNtB7_4data7VariantNtNtB7_5token5CommaENtNtNtNtCsfvfooZQ3Axs_4core4iter6traits12double_ended19DoubleEndedIterator8nth_backCsfcpOYk5gj7s_10displaydoc, symObjAddr: 0x3180, symBinAddr: 0xD854, symSize: 0x68 }
  - { offset: 0x31DE0, size: 0x8, addend: 0x0, symName: __RNvYINtNtCs6IAuOt8vWmF_3syn10punctuated11PrivateIterNtNtB7_8generics14WherePredicateNtNtB7_5token5CommaENtNtNtNtCsfvfooZQ3Axs_4core4iter6traits12double_ended19DoubleEndedIterator15advance_back_byCsfcpOYk5gj7s_10displaydoc, symObjAddr: 0x33FC, symBinAddr: 0xDAD0, symSize: 0x134 }
  - { offset: 0x31F2E, size: 0x8, addend: 0x0, symName: __RNvYINtNtCs6IAuOt8vWmF_3syn10punctuated11PrivateIterNtNtB7_8generics14WherePredicateNtNtB7_5token5CommaENtNtNtNtCsfvfooZQ3Axs_4core4iter6traits12double_ended19DoubleEndedIterator8nth_backCsfcpOYk5gj7s_10displaydoc, symObjAddr: 0x3530, symBinAddr: 0xDC04, symSize: 0x68 }
  - { offset: 0x31FAC, size: 0x8, addend: 0x0, symName: __RNvYINtNtCs6IAuOt8vWmF_3syn10punctuated14PrivateIterMutNtNtB7_8generics14WherePredicateNtNtB7_5token5CommaENtNtNtNtCsfvfooZQ3Axs_4core4iter6traits12double_ended19DoubleEndedIterator15advance_back_byCsfcpOYk5gj7s_10displaydoc, symObjAddr: 0x37AC, symBinAddr: 0xDE80, symSize: 0x134 }
  - { offset: 0x320FA, size: 0x8, addend: 0x0, symName: __RNvYINtNtCs6IAuOt8vWmF_3syn10punctuated14PrivateIterMutNtNtB7_8generics14WherePredicateNtNtB7_5token5CommaENtNtNtNtCsfvfooZQ3Axs_4core4iter6traits12double_ended19DoubleEndedIterator8nth_backCsfcpOYk5gj7s_10displaydoc, symObjAddr: 0x38E0, symBinAddr: 0xDFB4, symSize: 0x68 }
  - { offset: 0x33475, size: 0x8, addend: 0x0, symName: __RINvMsi_NtCse1nGBsou5OW_5alloc3vecINtB6_3VecINtNtCsfvfooZQ3Axs_4core6option6OptionNtNtCsfcpOYk5gj7s_10displaydoc4attr14VariantDisplayEE16extend_desugaredINtNtNtBL_4iter8adapters12GenericShuntINtNtB2u_3map3MapINtNtCs6IAuOt8vWmF_3syn10punctuated4IterNtNtB3p_4data7VariantENCNvNtB1m_6expand9impl_enum0EINtNtBL_6result6ResultNtNtBL_7convert10InfallibleNtNtB3p_5error5ErrorEEEB1m_, symObjAddr: 0x0, symBinAddr: 0xA6D4, symSize: 0x200 }
  - { offset: 0x3384C, size: 0x8, addend: 0x0, symName: __RINvMsi_NtCse1nGBsou5OW_5alloc3vecINtB6_3VecNtCs3cP53eQoTwO_11proc_macro211TokenStreamE16extend_desugaredINtNtNtCsfvfooZQ3Axs_4core4iter8adapters12GenericShuntINtNtB1I_3map3MapINtNtB1I_3zip3ZipINtNtCs6IAuOt8vWmF_3syn10punctuated4IterNtNtB3a_4data7VariantEINtNtB6_9into_iter8IntoIterINtNtB1M_6option6OptionNtNtCsfcpOYk5gj7s_10displaydoc4attr14VariantDisplayEEENCNvNtB4X_6expand9impl_enums_0EINtNtB1M_6result6ResultNtNtB1M_7convert10InfallibleNtNtB3a_5error5ErrorEEEB4X_, symObjAddr: 0x200, symBinAddr: 0xA8D4, symSize: 0x1D8 }
  - { offset: 0x33C5E, size: 0x8, addend: 0x0, symName: __RINvMsi_NtCse1nGBsou5OW_5alloc3vecINtB6_3VecNtNtCs6IAuOt8vWmF_3syn8generics10TraitBoundE16extend_desugaredINtNtNtNtCsfvfooZQ3Axs_4core4iter8adapters6cloned6ClonedINtNtB1L_7flatten7FlatMapINtNtBK_10punctuated4IterNtBI_14TypeParamBoundEINtNtB1P_6option6OptionRBG_ENCNCNvNtCsfcpOYk5gj7s_10displaydoc6expand37extract_trait_constraints_from_source00EEEB4k_, symObjAddr: 0x3D8, symBinAddr: 0xAAAC, symSize: 0x1FC }
  - { offset: 0x34070, size: 0x8, addend: 0x0, symName: __RINvMsi_NtCse1nGBsou5OW_5alloc3vecINtB6_3VecRNtNtCs6IAuOt8vWmF_3syn8generics9TypeParamE16extend_desugaredNtBJ_10TypeParamsECsfcpOYk5gj7s_10displaydoc, symObjAddr: 0x5D4, symBinAddr: 0xACA8, symSize: 0x190 }
  - { offset: 0x34451, size: 0x8, addend: 0x0, symName: __RINvMsi_NtCse1nGBsou5OW_5alloc3vecINtB6_3VecReE16extend_desugaredINtNtNtNtCsfvfooZQ3Axs_4core4iter8adapters3map3MapNtNtNtB1a_3str4iter5LinesNCNvMs0_NtCsfcpOYk5gj7s_10displaydoc4attrNtB2m_11AttrsHelper7displays0_0EEB2o_, symObjAddr: 0x764, symBinAddr: 0xAE38, symSize: 0x19C }
  - { offset: 0x34820, size: 0x8, addend: 0x0, symName: __RNvMNtCs6IAuOt8vWmF_3syn10punctuatedINtB2_10PunctuatedNtNtB4_4data7VariantNtNtB4_5token5CommaE4iterCsfcpOYk5gj7s_10displaydoc, symObjAddr: 0x100C, symBinAddr: 0xB6E0, symSize: 0xC8 }
  - { offset: 0x34871, size: 0x8, addend: 0x0, symName: __RNvMNtCs6IAuOt8vWmF_3syn10punctuatedINtB2_10PunctuatedNtNtB4_4data7VariantNtNtB4_5token5CommaE8is_emptyCsfcpOYk5gj7s_10displaydoc, symObjAddr: 0x10D4, symBinAddr: 0xB7A8, symSize: 0x74 }
  - { offset: 0x348ED, size: 0x8, addend: 0x0, symName: __RNvMNtCs6IAuOt8vWmF_3syn10punctuatedINtB2_10PunctuatedNtNtB4_8generics14WherePredicateNtNtB4_5token5CommaE4iterCsfcpOYk5gj7s_10displaydoc, symObjAddr: 0x1148, symBinAddr: 0xB81C, symSize: 0xC8 }
  - { offset: 0x34958, size: 0x8, addend: 0x0, symName: __RNvMNtCs6IAuOt8vWmF_3syn10punctuatedINtB2_10PunctuatedNtNtB4_8generics14WherePredicateNtNtB4_5token5CommaE8iter_mutCsfcpOYk5gj7s_10displaydoc, symObjAddr: 0x1210, symBinAddr: 0xB8E4, symSize: 0xC8 }
  - { offset: 0x34AD9, size: 0x8, addend: 0x0, symName: __RNvMs_NtCse1nGBsou5OW_5alloc3vecINtB4_3VecINtNtCsfvfooZQ3Axs_4core6option6OptionNtNtCsfcpOYk5gj7s_10displaydoc4attr14VariantDisplayEE7reserveB1k_, symObjAddr: 0x12D8, symBinAddr: 0xB9AC, symSize: 0xC8 }
  - { offset: 0x34CD7, size: 0x8, addend: 0x0, symName: __RNvMs_NtCse1nGBsou5OW_5alloc3vecINtB4_3VecINtNtCsfvfooZQ3Axs_4core6option6OptionNtNtCsfcpOYk5gj7s_10displaydoc4attr14VariantDisplayEE8as_sliceB1k_, symObjAddr: 0x13A0, symBinAddr: 0xBA74, symSize: 0x64 }
  - { offset: 0x34EA7, size: 0x8, addend: 0x0, symName: __RNvMs_NtCse1nGBsou5OW_5alloc3vecINtB4_3VecNtCs3cP53eQoTwO_11proc_macro211TokenStreamE7reserveCsfcpOYk5gj7s_10displaydoc, symObjAddr: 0x1404, symBinAddr: 0xBAD8, symSize: 0xC8 }
  - { offset: 0x350A5, size: 0x8, addend: 0x0, symName: __RNvMs_NtCse1nGBsou5OW_5alloc3vecINtB4_3VecNtCs3cP53eQoTwO_11proc_macro211TokenStreamE8as_sliceCsfcpOYk5gj7s_10displaydoc, symObjAddr: 0x14CC, symBinAddr: 0xBBA0, symSize: 0x64 }
  - { offset: 0x3523E, size: 0x8, addend: 0x0, symName: __RNvMs_NtCse1nGBsou5OW_5alloc3vecINtB4_3VecNtNtCs6IAuOt8vWmF_3syn8generics10TraitBoundE4pushCsfcpOYk5gj7s_10displaydoc, symObjAddr: 0x1530, symBinAddr: 0xBC04, symSize: 0x120 }
  - { offset: 0x3550B, size: 0x8, addend: 0x0, symName: __RNvMs_NtCse1nGBsou5OW_5alloc3vecINtB4_3VecNtNtCs6IAuOt8vWmF_3syn8generics10TraitBoundE7reserveCsfcpOYk5gj7s_10displaydoc, symObjAddr: 0x1650, symBinAddr: 0xBD24, symSize: 0xC8 }
  - { offset: 0x35697, size: 0x8, addend: 0x0, symName: __RNvMs_NtCse1nGBsou5OW_5alloc3vecINtB4_3VecNtNtCs6IAuOt8vWmF_3syn8generics10TraitBoundE8is_emptyCsfcpOYk5gj7s_10displaydoc, symObjAddr: 0x1718, symBinAddr: 0xBDEC, symSize: 0x20 }
  - { offset: 0x35800, size: 0x8, addend: 0x0, symName: __RNvMs_NtCse1nGBsou5OW_5alloc3vecINtB4_3VecRNtNtCs6IAuOt8vWmF_3syn8generics9TypeParamE7reserveCsfcpOYk5gj7s_10displaydoc, symObjAddr: 0x1738, symBinAddr: 0xBE0C, symSize: 0xBC }
  - { offset: 0x359FE, size: 0x8, addend: 0x0, symName: __RNvMs_NtCse1nGBsou5OW_5alloc3vecINtB4_3VecRNtNtCs6IAuOt8vWmF_3syn8generics9TypeParamE8as_sliceCsfcpOYk5gj7s_10displaydoc, symObjAddr: 0x17F4, symBinAddr: 0xBEC8, symSize: 0x60 }
  - { offset: 0x35BCE, size: 0x8, addend: 0x0, symName: __RNvMs_NtCse1nGBsou5OW_5alloc3vecINtB4_3VecReE7reserveCsfcpOYk5gj7s_10displaydoc, symObjAddr: 0x1854, symBinAddr: 0xBF28, symSize: 0xC8 }
  - { offset: 0x35D42, size: 0x8, addend: 0x0, symName: __RNvMs_NtCse1nGBsou5OW_5alloc3vecINtB4_3VecTNtNtCs6IAuOt8vWmF_3syn4data7VariantNtNtBJ_5token5CommaEE3lenCsfcpOYk5gj7s_10displaydoc, symObjAddr: 0x191C, symBinAddr: 0xBFF0, symSize: 0x18 }
  - { offset: 0x35E38, size: 0x8, addend: 0x0, symName: __RNvMs_NtCse1nGBsou5OW_5alloc3vecINtB4_3VecTNtNtCs6IAuOt8vWmF_3syn8generics14WherePredicateNtNtBJ_5token5CommaEE12as_mut_sliceCsfcpOYk5gj7s_10displaydoc, symObjAddr: 0x1934, symBinAddr: 0xC008, symSize: 0x64 }
  - { offset: 0x3655B, size: 0x8, addend: 0x0, symName: __RNvXs4_NtNtCs2cqEZUIJimJ_5quote9___private3extINtNtCse1nGBsou5OW_5alloc3vec3VecNtCs3cP53eQoTwO_11proc_macro211TokenStreamENtB5_16RepAsIteratorExt15quote_into_iterCsfcpOYk5gj7s_10displaydoc, symObjAddr: 0x2608, symBinAddr: 0xCCDC, symSize: 0x38 }
  - { offset: 0x36F20, size: 0x8, addend: 0x0, symName: __RINvNtNtNtCsfvfooZQ3Axs_4core9core_arch10arm_shared4neon13vget_lane_u64Kl0_ECsfcpOYk5gj7s_10displaydoc, symObjAddr: 0x0, symBinAddr: 0xE204, symSize: 0x18 }
  - { offset: 0x380EC, size: 0x8, addend: 0x0, symName: __RINvNtNtNtCsfvfooZQ3Axs_4core9core_arch10arm_shared4neon13vget_lane_u64Kl0_ECsfcpOYk5gj7s_10displaydoc, symObjAddr: 0x0, symBinAddr: 0xE204, symSize: 0x18 }
  - { offset: 0x38166, size: 0x8, addend: 0x0, symName: __RNvNtNtNtCsfvfooZQ3Axs_4core9core_arch10arm_shared4neon9vdup_n_u8CsfcpOYk5gj7s_10displaydoc, symObjAddr: 0x9F8, symBinAddr: 0xEBFC, symSize: 0x34 }
  - { offset: 0x381EF, size: 0x8, addend: 0x0, symName: __RINvXs2U_NtNtCsfvfooZQ3Axs_4core5slice4iterINtB7_4IterINtNtBb_6option6OptionNtNtCsfcpOYk5gj7s_10displaydoc4attr14VariantDisplayEENtNtNtNtBb_4iter6traits8iterator8Iterator3anyNvMBT_BQ_7is_someEB1g_, symObjAddr: 0x18, symBinAddr: 0xE21C, symSize: 0xB0 }
  - { offset: 0x38254, size: 0x8, addend: 0x0, symName: __RINvXs2U_NtNtCsfvfooZQ3Axs_4core5slice4iterINtB7_4IterNtNtCs6IAuOt8vWmF_3syn4attr9AttributeENtNtNtNtBb_4iter6traits8iterator8Iterator3anyNCNvMs0_NtCsfcpOYk5gj7s_10displaydoc4attrNtB2j_11AttrsHelper3new0EB2l_, symObjAddr: 0xC8, symBinAddr: 0xE2CC, symSize: 0xB0 }
  - { offset: 0x382B9, size: 0x8, addend: 0x0, symName: __RINvXs2U_NtNtCsfvfooZQ3Axs_4core5slice4iterINtB7_4IterNtNtCs6IAuOt8vWmF_3syn4attr9AttributeENtNtNtNtBb_4iter6traits8iterator8Iterator3anyNCNvMs0_NtCsfcpOYk5gj7s_10displaydoc4attrNtB2j_11AttrsHelper3news_0EB2l_, symObjAddr: 0x178, symBinAddr: 0xE37C, symSize: 0xB0 }
  - { offset: 0x3831E, size: 0x8, addend: 0x0, symName: __RINvXs2U_NtNtCsfvfooZQ3Axs_4core5slice4iterINtB7_4IterNtNtCs6IAuOt8vWmF_3syn4attr9AttributeENtNtNtNtBb_4iter6traits8iterator8Iterator4findNCNvMs0_NtCsfcpOYk5gj7s_10displaydoc4attrNtB2k_11AttrsHelper7display0EB2m_, symObjAddr: 0x228, symBinAddr: 0xE42C, symSize: 0xB0 }
  - { offset: 0x38383, size: 0x8, addend: 0x0, symName: __RINvXs2U_NtNtCsfvfooZQ3Axs_4core5slice4iterINtB7_4IterNtNtCs6IAuOt8vWmF_3syn4attr9AttributeENtNtNtNtBb_4iter6traits8iterator8Iterator4foldjNCINvNtNtB1y_8adapters3map8map_foldRBQ_jjNCINvNvXs1_NtB2k_6filterINtB33_6FilterppEB1s_5count8to_usizeB2M_NCNvMs0_NtCsfcpOYk5gj7s_10displaydoc4attrNtB42_11AttrsHelper7displays_0E0NCINvXsK_NtB1w_5accumjNtB5e_3Sum3sumINtB2i_3MapBF_B2S_EE0E0EB44_, symObjAddr: 0x2D8, symBinAddr: 0xE4DC, symSize: 0x1B4 }
  - { offset: 0x384DB, size: 0x8, addend: 0x0, symName: __RINvXs2U_NtNtCsfvfooZQ3Axs_4core5slice4iterINtB7_4IterRNtNtCs6IAuOt8vWmF_3syn8generics9TypeParamENtNtNtNtBb_4iter6traits8iterator8Iterator4folduNCINvNtNtB1D_8adapters3map8map_foldRBQ_TNtCs3cP53eQoTwO_11proc_macro25IdentINtNtCse1nGBsou5OW_5alloc3vec3VecNtBT_10TraitBoundEEuNCNvNtCsfcpOYk5gj7s_10displaydoc6expand37extract_trait_constraints_from_source0NCINvNvB1x_8for_each4callB2V_NCINvXs1i_NtCsloNvcHxBCre_9hashbrown3mapINtB6g_7HashMapB2W_B3v_NtNtNtCscOYdFFY2T5N_3std4hash6random11RandomStateEINtNtB1B_7collect6ExtendB2V_E6extendINtB2n_3MapBF_B4m_EE0E0E0EB4s_, symObjAddr: 0x48C, symBinAddr: 0xE690, symSize: 0x184 }
  - { offset: 0x3862E, size: 0x8, addend: 0x0, symName: __RNvXs2U_NtNtCsfvfooZQ3Axs_4core5slice4iterINtB6_4IterINtNtBa_6option6OptionNtNtCsfcpOYk5gj7s_10displaydoc4attr14VariantDisplayEENtNtNtNtBa_4iter6traits8iterator8Iterator4nextB1f_, symObjAddr: 0xBE0, symBinAddr: 0xEDE4, symSize: 0xBC }
  - { offset: 0x3877C, size: 0x8, addend: 0x0, symName: __RNvXs2U_NtNtCsfvfooZQ3Axs_4core5slice4iterINtB6_4IterNtCs3cP53eQoTwO_11proc_macro211TokenStreamENtNtNtNtBa_4iter6traits8iterator8Iterator4nextCsfcpOYk5gj7s_10displaydoc, symObjAddr: 0xC9C, symBinAddr: 0xEEA0, symSize: 0xBC }
  - { offset: 0x388CA, size: 0x8, addend: 0x0, symName: __RNvXs2U_NtNtCsfvfooZQ3Axs_4core5slice4iterINtB6_4IterRNtNtCs6IAuOt8vWmF_3syn8generics9TypeParamENtNtNtNtBa_4iter6traits8iterator8Iterator9size_hintCsfcpOYk5gj7s_10displaydoc, symObjAddr: 0xD58, symBinAddr: 0xEF5C, symSize: 0x70 }
  - { offset: 0x38C3A, size: 0x8, addend: 0x0, symName: __RNvXs2V_NtNtCsfvfooZQ3Axs_4core5slice4iterINtB6_4IterTNtNtCs6IAuOt8vWmF_3syn4data7VariantNtNtBU_5token5CommaEENtNtNtNtBa_4iter6traits12double_ended19DoubleEndedIterator9next_backCsfcpOYk5gj7s_10displaydoc, symObjAddr: 0xDC8, symBinAddr: 0xEFCC, symSize: 0x100 }
  - { offset: 0x38D96, size: 0x8, addend: 0x0, symName: __RNvXs2V_NtNtCsfvfooZQ3Axs_4core5slice4iterINtB6_4IterTNtNtCs6IAuOt8vWmF_3syn8generics14WherePredicateNtNtBU_5token5CommaEENtNtNtNtBa_4iter6traits12double_ended19DoubleEndedIterator9next_backCsfcpOYk5gj7s_10displaydoc, symObjAddr: 0xEC8, symBinAddr: 0xF0CC, symSize: 0x100 }
  - { offset: 0x38F9C, size: 0x8, addend: 0x0, symName: __RNvXs32_NtNtCsfvfooZQ3Axs_4core5slice4iterINtB6_7IterMutTNtNtCs6IAuOt8vWmF_3syn8generics14WherePredicateNtNtBX_5token5CommaEENtNtNtNtBa_4iter6traits8iterator8Iterator4nextCsfcpOYk5gj7s_10displaydoc, symObjAddr: 0x10DC, symBinAddr: 0xF2E0, symSize: 0xBC }
  - { offset: 0x390DB, size: 0x8, addend: 0x0, symName: __RNvXs33_NtNtCsfvfooZQ3Axs_4core5slice4iterINtB6_7IterMutTNtNtCs6IAuOt8vWmF_3syn8generics14WherePredicateNtNtBX_5token5CommaEENtNtNtNtBa_4iter6traits12double_ended19DoubleEndedIterator9next_backCsfcpOYk5gj7s_10displaydoc, symObjAddr: 0x1198, symBinAddr: 0xF39C, symSize: 0x100 }
  - { offset: 0x3923D, size: 0x8, addend: 0x0, symName: __RNvXs5_NtNtCsfvfooZQ3Axs_4core5slice4iterINtB5_4IterTNtNtCs6IAuOt8vWmF_3syn4data7VariantNtNtBT_5token5CommaEENtNtB9_5clone5Clone5cloneCsfcpOYk5gj7s_10displaydoc, symObjAddr: 0x1298, symBinAddr: 0xF49C, symSize: 0x20 }
  - { offset: 0x39272, size: 0x8, addend: 0x0, symName: __RNvXs5_NtNtCsfvfooZQ3Axs_4core5slice4iterINtB5_4IterTNtNtCs6IAuOt8vWmF_3syn8generics14WherePredicateNtNtBT_5token5CommaEENtNtB9_5clone5Clone5cloneCsfcpOYk5gj7s_10displaydoc, symObjAddr: 0x12B8, symBinAddr: 0xF4BC, symSize: 0x20 }
  - { offset: 0x39455, size: 0x8, addend: 0x0, symName: __RNvMNtCsfvfooZQ3Axs_4core5sliceSRNtNtCs6IAuOt8vWmF_3syn8generics9TypeParam4iterCsfcpOYk5gj7s_10displaydoc, symObjAddr: 0x858, symBinAddr: 0xEA5C, symSize: 0x28 }
  - { offset: 0x3948C, size: 0x8, addend: 0x0, symName: __RNvMNtCsfvfooZQ3Axs_4core5sliceSTNtNtCs6IAuOt8vWmF_3syn8generics14WherePredicateNtNtBz_5token5CommaE8iter_mutCsfcpOYk5gj7s_10displaydoc, symObjAddr: 0x880, symBinAddr: 0xEA84, symSize: 0x28 }
  - { offset: 0x3BBEE, size: 0x8, addend: 0x0, symName: __RINvYINtNtNtCsfvfooZQ3Axs_4core5slice4iter4IterNtNtCs6IAuOt8vWmF_3syn4attr9AttributeENtNtNtNtBa_4iter6traits8iterator8Iterator3mapjNCINvNvXs1_NtNtB1r_8adapters6filterINtB2g_6FilterppEB1l_5count8to_usizeRBJ_NCNvMs0_NtCsfcpOYk5gj7s_10displaydoc4attrNtB3q_11AttrsHelper7displays_0E0EB3s_, symObjAddr: 0x774, symBinAddr: 0xE978, symSize: 0x1C }
  - { offset: 0x3BC46, size: 0x8, addend: 0x0, symName: __RINvYINtNtNtCsfvfooZQ3Axs_4core5slice4iter4IterNtNtCs6IAuOt8vWmF_3syn4attr9AttributeENtNtNtNtBa_4iter6traits8iterator8Iterator6filterNCNvMs0_NtCsfcpOYk5gj7s_10displaydoc4attrNtB2f_11AttrsHelper7displays_0EB2h_, symObjAddr: 0x790, symBinAddr: 0xE994, symSize: 0x1C }
  - { offset: 0x3BC95, size: 0x8, addend: 0x0, symName: __RINvYINtNtNtCsfvfooZQ3Axs_4core5slice4iter4IterRNtNtCs6IAuOt8vWmF_3syn8generics9TypeParamENtNtNtNtBa_4iter6traits8iterator8Iterator3mapTNtCs3cP53eQoTwO_11proc_macro25IdentINtNtCse1nGBsou5OW_5alloc3vec3VecNtBM_10TraitBoundEENCNvNtCsfcpOYk5gj7s_10displaydoc6expand37extract_trait_constraints_from_source0EB3F_, symObjAddr: 0x7AC, symBinAddr: 0xE9B0, symSize: 0x1C }
  - { offset: 0x3BCED, size: 0x8, addend: 0x0, symName: __RINvYNtNtCs6IAuOt8vWmF_3syn8generics10TypeParamsNtNtNtNtCsfvfooZQ3Axs_4core4iter6traits8iterator8Iterator7collectINtNtCse1nGBsou5OW_5alloc3vec3VecRNtB5_9TypeParamEECsfcpOYk5gj7s_10displaydoc, symObjAddr: 0x7C8, symBinAddr: 0xE9CC, symSize: 0x34 }
  - { offset: 0x3BD5D, size: 0x8, addend: 0x0, symName: __RNvYNtNtCs6IAuOt8vWmF_3syn8generics10TypeParamsNtNtNtNtCsfvfooZQ3Axs_4core4iter6traits8iterator8Iterator9size_hintCsfcpOYk5gj7s_10displaydoc, symObjAddr: 0x2294, symBinAddr: 0x10498, symSize: 0x34 }
  - { offset: 0x3BDBD, size: 0x8, addend: 0x0, symName: __RNvXNtNtNtCsfvfooZQ3Axs_4core4iter6traits7collectINtNtNtB8_5slice4iter4IterReENtB2_12IntoIterator9into_iterCsfcpOYk5gj7s_10displaydoc, symObjAddr: 0xB58, symBinAddr: 0xED5C, symSize: 0x1C }
  - { offset: 0x3BDF4, size: 0x8, addend: 0x0, symName: __RNvXNtNtNtCsfvfooZQ3Axs_4core4iter6traits7collectNtNtCs6IAuOt8vWmF_3syn8generics10TypeParamsNtB2_12IntoIterator9into_iterCsfcpOYk5gj7s_10displaydoc, symObjAddr: 0xB74, symBinAddr: 0xED78, symSize: 0x1C }
  - { offset: 0x3BE85, size: 0x8, addend: 0x0, symName: __RNCINvNvXs1_NtNtNtCsfvfooZQ3Axs_4core4iter8adapters6filterINtBa_6FilterppENtNtNtBe_6traits8iterator8Iterator5count8to_usizeRNtNtCs6IAuOt8vWmF_3syn4attr9AttributeNCNvMs0_NtCsfcpOYk5gj7s_10displaydoc4attrNtB2H_11AttrsHelper7displays_0E0B2J_, symObjAddr: 0x7FC, symBinAddr: 0xEA00, symSize: 0x5C }
  - { offset: 0x3BEE8, size: 0x8, addend: 0x0, symName: __RNvXs1_NtNtNtCsfvfooZQ3Axs_4core4iter8adapters6filterINtB5_6FilterINtNtNtBb_5slice4iter4IterNtNtCs6IAuOt8vWmF_3syn4attr9AttributeENCNvMs0_NtCsfcpOYk5gj7s_10displaydoc4attrNtB2c_11AttrsHelper7displays_0ENtNtNtB9_6traits8iterator8Iterator5countB2e_, symObjAddr: 0xB90, symBinAddr: 0xED94, symSize: 0x50 }
  - { offset: 0x3C0F0, size: 0x8, addend: 0x0, symName: __RNvNvNtCsfvfooZQ3Axs_4core9ub_checks23maybe_is_nonoverlapping7runtimeCsfcpOYk5gj7s_10displaydoc, symObjAddr: 0xA2C, symBinAddr: 0xEC30, symSize: 0xD8 }
  - { offset: 0x3C435, size: 0x8, addend: 0x0, symName: __RNvXs2_NtNtCsfvfooZQ3Axs_4core3str7patterncNtB5_7Pattern13into_searcherCsfcpOYk5gj7s_10displaydoc, symObjAddr: 0xFC8, symBinAddr: 0xF1CC, symSize: 0x114 }
  - { offset: 0x3C553, size: 0x8, addend: 0x0, symName: __RNvXs7_NtNtCsfvfooZQ3Axs_4core3str7patternINtB5_18MultiCharEqPatternNCNvMB7_e4trim0ENtB5_7Pattern13into_searcherCsfcpOYk5gj7s_10displaydoc, symObjAddr: 0x12D8, symBinAddr: 0xF4DC, symSize: 0x90 }
  - { offset: 0x3C5B5, size: 0x8, addend: 0x0, symName: __RNvXs8_NtNtCsfvfooZQ3Axs_4core3str7patternINtB5_19MultiCharEqSearcherNCNvMB7_e4trim0ENtB5_8Searcher4nextCsfcpOYk5gj7s_10displaydoc, symObjAddr: 0x1368, symBinAddr: 0xF56C, symSize: 0x13C }
  - { offset: 0x3C6DB, size: 0x8, addend: 0x0, symName: __RNvXs9_NtNtCsfvfooZQ3Axs_4core3str7patternINtB5_19MultiCharEqSearcherNCNvMB7_e4trim0ENtB5_15ReverseSearcher9next_backCsfcpOYk5gj7s_10displaydoc, symObjAddr: 0x14A4, symBinAddr: 0xF6A8, symSize: 0x13C }
  - { offset: 0x3C868, size: 0x8, addend: 0x0, symName: __RNvXs_NtNtCsfvfooZQ3Axs_4core3str7patternNtB4_12CharSearcherNtB4_8Searcher10next_matchCsfcpOYk5gj7s_10displaydoc, symObjAddr: 0x170C, symBinAddr: 0xF910, symSize: 0x384 }
  - { offset: 0x3CD09, size: 0x8, addend: 0x0, symName: __RNvXs_NtNtCsfvfooZQ3Axs_4core3str7patternNtB4_12CharSearcherNtB4_8Searcher4nextCsfcpOYk5gj7s_10displaydoc, symObjAddr: 0x1A90, symBinAddr: 0xFC94, symSize: 0x1CC }
  - { offset: 0x3CFC5, size: 0x8, addend: 0x0, symName: __RNvXs_NtNtCsfvfooZQ3Axs_4core3str7patternNtB4_12CharSearcherNtB4_8Searcher8haystackCsfcpOYk5gj7s_10displaydoc, symObjAddr: 0x1C5C, symBinAddr: 0xFE60, symSize: 0x20 }
  - { offset: 0x3CFF9, size: 0x8, addend: 0x0, symName: __RNvXso_NtNtCsfvfooZQ3Axs_4core3str7patternINtB5_21CharPredicateSearcherNCNvMB7_e4trim0ENtB5_8Searcher11next_rejectCsfcpOYk5gj7s_10displaydoc, symObjAddr: 0x1FB4, symBinAddr: 0x101B8, symSize: 0x24 }
  - { offset: 0x3D036, size: 0x8, addend: 0x0, symName: __RNvXsp_NtNtCsfvfooZQ3Axs_4core3str7patternINtB5_21CharPredicateSearcherNCNvMB7_e4trim0ENtB5_15ReverseSearcher16next_reject_backCsfcpOYk5gj7s_10displaydoc, symObjAddr: 0x1FD8, symBinAddr: 0x101DC, symSize: 0x24 }
  - { offset: 0x3D09D, size: 0x8, addend: 0x0, symName: __RNvXst_NtNtCsfvfooZQ3Axs_4core3str7patternReNtB5_7Pattern15strip_suffix_ofCsfcpOYk5gj7s_10displaydoc, symObjAddr: 0x1FFC, symBinAddr: 0x10200, symSize: 0xE0 }
  - { offset: 0x3D1DC, size: 0x8, addend: 0x0, symName: __RNvYINtNtNtCsfvfooZQ3Axs_4core3str7pattern19MultiCharEqSearcherNCNvMB7_e4trim0ENtB5_15ReverseSearcher16next_reject_backCsfcpOYk5gj7s_10displaydoc, symObjAddr: 0x2174, symBinAddr: 0x10378, symSize: 0x90 }
  - { offset: 0x3D247, size: 0x8, addend: 0x0, symName: __RNvYINtNtNtCsfvfooZQ3Axs_4core3str7pattern19MultiCharEqSearcherNCNvMB7_e4trim0ENtB5_8Searcher11next_rejectCsfcpOYk5gj7s_10displaydoc, symObjAddr: 0x2204, symBinAddr: 0x10408, symSize: 0x90 }
  - { offset: 0x3D2AC, size: 0x8, addend: 0x0, symName: __RNvYNtNtNtCsfvfooZQ3Axs_4core3str7pattern12CharSearcherNtB4_8Searcher11next_rejectCsfcpOYk5gj7s_10displaydoc, symObjAddr: 0x22C8, symBinAddr: 0x104CC, symSize: 0x90 }
  - { offset: 0x3DCBF, size: 0x8, addend: 0x0, symName: __RNvXNtNtCs9i5KxIbZ5ph_10proc_macro6bridge3rpcuINtB2_6EncodeuE6encodeCsfcpOYk5gj7s_10displaydoc, symObjAddr: 0xB44, symBinAddr: 0xED48, symSize: 0x14 }
  - { offset: 0x3DD38, size: 0x8, addend: 0x0, symName: __RNvXsa_NtNtCs9i5KxIbZ5ph_10proc_macro6bridge3rpcRShINtB5_6EncodeuE6encodeCsfcpOYk5gj7s_10displaydoc, symObjAddr: 0x1C7C, symBinAddr: 0xFE80, symSize: 0xD0 }
  - { offset: 0x3DE3A, size: 0x8, addend: 0x0, symName: __RNvXsc_NtNtCs9i5KxIbZ5ph_10proc_macro6bridge3rpcReINtB5_6EncodeuE6encodeCsfcpOYk5gj7s_10displaydoc, symObjAddr: 0x1D4C, symBinAddr: 0xFF50, symSize: 0x38 }
  - { offset: 0x3DF22, size: 0x8, addend: 0x0, symName: __RNvXsl_NtNtCs9i5KxIbZ5ph_10proc_macro6bridge3rpcNtB5_12PanicMessageINtB5_6EncodeuE6encodeCsfcpOYk5gj7s_10displaydoc, symObjAddr: 0x1D84, symBinAddr: 0xFF88, symSize: 0x128 }
  - { offset: 0x3E0E8, size: 0x8, addend: 0x0, symName: __RNvXso_NtNtCs9i5KxIbZ5ph_10proc_macro6bridge3rpcmINtB5_9DecodeMutuE6decodeCsfcpOYk5gj7s_10displaydoc, symObjAddr: 0x1EAC, symBinAddr: 0x100B0, symSize: 0x108 }
  - { offset: 0x3E740, size: 0x8, addend: 0x0, symName: __RINvXs7_NtCs3cP53eQoTwO_11proc_macro23impNtB6_11TokenStreamINtNtNtNtCsfvfooZQ3Axs_4core4iter6traits7collect6ExtendNtB8_9TokenTreeE6extendNtB8_11TokenStreamECsfcpOYk5gj7s_10displaydoc, symObjAddr: 0x610, symBinAddr: 0xE814, symSize: 0x164 }
  - { offset: 0x3E7DC, size: 0x8, addend: 0x0, symName: __RNvXsA_NtCs3cP53eQoTwO_11proc_macro23impNtB5_19DeferredTokenStreamNtNtCsfvfooZQ3Axs_4core5clone5Clone5cloneCsfcpOYk5gj7s_10displaydoc, symObjAddr: 0x15E0, symBinAddr: 0xF7E4, symSize: 0x90 }
  - { offset: 0x3E80E, size: 0x8, addend: 0x0, symName: __RNvXsF_NtCs3cP53eQoTwO_11proc_macro23impNtB5_5IdentNtNtCsfvfooZQ3Axs_4core5clone5Clone5cloneCsfcpOYk5gj7s_10displaydoc, symObjAddr: 0x1670, symBinAddr: 0xF874, symSize: 0x9C }
  - { offset: 0x3E87E, size: 0x8, addend: 0x0, symName: __RNvXsz_NtCs3cP53eQoTwO_11proc_macro23impNtB5_11TokenStreamNtNtCsfvfooZQ3Axs_4core5clone5Clone5cloneCsfcpOYk5gj7s_10displaydoc, symObjAddr: 0x20DC, symBinAddr: 0x102E0, symSize: 0x98 }
  - { offset: 0x4508E, size: 0x8, addend: 0x0, symName: __RNvMs4_NtNtCsfvfooZQ3Axs_4core5slice4iterINtB5_4IterINtNtB9_6option6OptionNtNtCsfcpOYk5gj7s_10displaydoc4attr14VariantDisplayEE3newB1e_, symObjAddr: 0x8A8, symBinAddr: 0xEAAC, symSize: 0x58 }
  - { offset: 0x45276, size: 0x8, addend: 0x0, symName: __RNvMs4_NtNtCsfvfooZQ3Axs_4core5slice4iterINtB5_4IterNtCs3cP53eQoTwO_11proc_macro211TokenStreamE3newCsfcpOYk5gj7s_10displaydoc, symObjAddr: 0x900, symBinAddr: 0xEB04, symSize: 0x50 }
  - { offset: 0x45444, size: 0x8, addend: 0x0, symName: __RNvMs4_NtNtCsfvfooZQ3Axs_4core5slice4iterINtB5_4IterRNtNtCs6IAuOt8vWmF_3syn8generics9TypeParamE3newCsfcpOYk5gj7s_10displaydoc, symObjAddr: 0x950, symBinAddr: 0xEB54, symSize: 0x50 }
  - { offset: 0x4562C, size: 0x8, addend: 0x0, symName: __RNvMsa_NtNtCsfvfooZQ3Axs_4core5slice4iterINtB5_7IterMutTNtNtCs6IAuOt8vWmF_3syn8generics14WherePredicateNtNtBW_5token5CommaEE3newCsfcpOYk5gj7s_10displaydoc, symObjAddr: 0x9A0, symBinAddr: 0xEBA4, symSize: 0x58 }
  - { offset: 0x457B2, size: 0x8, addend: 0x0, symName: __RNvXNtCs2cqEZUIJimJ_5quote9to_tokensRNtNtCs6IAuOt8vWmF_3syn6derive11DeriveInputNtB2_8ToTokens9to_tokensCsfcpOYk5gj7s_10displaydoc, symObjAddr: 0xB04, symBinAddr: 0xED08, symSize: 0x40 }
  - { offset: 0x457F7, size: 0x8, addend: 0x0, symName: __RNvYRNtNtCs6IAuOt8vWmF_3syn6derive11DeriveInputNtNtCs2cqEZUIJimJ_5quote9to_tokens8ToTokens15to_token_streamCsfcpOYk5gj7s_10displaydoc, symObjAddr: 0x2358, symBinAddr: 0x1055C, symSize: 0x8C }
  - { offset: 0x45841, size: 0x8, addend: 0x0, symName: __RNvYRNtNtCs6IAuOt8vWmF_3syn6derive11DeriveInputNtNtCs2cqEZUIJimJ_5quote9to_tokens8ToTokens17into_token_streamCsfcpOYk5gj7s_10displaydoc, symObjAddr: 0x23E4, symBinAddr: 0x105E8, symSize: 0x54 }
  - { offset: 0x464BB, size: 0x8, addend: 0x0, symName: __RINvMNtCsfvfooZQ3Axs_4core6optionINtB3_6OptionNtNtCs6IAuOt8vWmF_3syn8generics11WhereClauseE14unwrap_or_elseNvNtCsfcpOYk5gj7s_10displaydoc6expand22new_empty_where_clauseEB1L_, symObjAddr: 0x0, symBinAddr: 0x1063C, symSize: 0x74 }
  - { offset: 0x46887, size: 0x8, addend: 0x0, symName: __RNvXs1J_NtCs9i5KxIbZ5ph_10proc_macro6bridgeINtB6_11ExpnGlobalsNtNtB6_6client4SpanEINtNtB6_3rpc9DecodeMutuE6decodeCsfcpOYk5gj7s_10displaydoc, symObjAddr: 0x2DAC, symBinAddr: 0x13310, symSize: 0xB0 }
  - { offset: 0x468DE, size: 0x8, addend: 0x0, symName: __RNvXs9_NtNtCs9i5KxIbZ5ph_10proc_macro6bridge3rpcTINtB7_11ExpnGlobalsNtNtB7_6client4SpanENtB16_11TokenStreamEINtB5_9DecodeMutuE6decodeCsfcpOYk5gj7s_10displaydoc, symObjAddr: 0x3364, symBinAddr: 0x138C8, symSize: 0x84 }
  - { offset: 0x46A64, size: 0x8, addend: 0x0, symName: __RNvXsR_NtCs9i5KxIbZ5ph_10proc_macro6bridgeINtNtCsfvfooZQ3Axs_4core6option6OptionNtNtB5_6client11TokenStreamEINtNtB5_3rpc6EncodeuE6encodeCsfcpOYk5gj7s_10displaydoc, symObjAddr: 0x3564, symBinAddr: 0x13AC8, symSize: 0xCC }
  - { offset: 0x46B0A, size: 0x8, addend: 0x0, symName: __RNvXsR_NtCs9i5KxIbZ5ph_10proc_macro6bridgeINtNtCsfvfooZQ3Axs_4core6option6OptionReEINtNtB5_3rpc6EncodeuE6encodeCsfcpOYk5gj7s_10displaydoc, symObjAddr: 0x3630, symBinAddr: 0x13B94, symSize: 0xD8 }
  - { offset: 0x47048, size: 0x8, addend: 0x0, symName: __RINvXsa_NtCs3cP53eQoTwO_11proc_macro28fallbackNtB6_11TokenStreamINtNtNtNtCsfvfooZQ3Axs_4core4iter6traits7collect6ExtendNtB8_9TokenTreeE6extendNtB8_11TokenStreamECsfcpOYk5gj7s_10displaydoc, symObjAddr: 0x1EA0, symBinAddr: 0x12408, symSize: 0xC0 }
  - { offset: 0x470AE, size: 0x8, addend: 0x0, symName: __RNCINvXsa_NtCs3cP53eQoTwO_11proc_macro28fallbackNtB8_11TokenStreamINtNtNtNtCsfvfooZQ3Axs_4core4iter6traits7collect6ExtendNtBa_9TokenTreeE6extendNtBa_11TokenStreamE0CsfcpOYk5gj7s_10displaydoc, symObjAddr: 0x22A0, symBinAddr: 0x12808, symSize: 0xAC }
  - { offset: 0x4710E, size: 0x8, addend: 0x0, symName: __RNvXsA_NtCs3cP53eQoTwO_11proc_macro28fallbackNtB5_5IdentNtNtCsfvfooZQ3Axs_4core5clone5Clone5cloneCsfcpOYk5gj7s_10displaydoc, symObjAddr: 0x33E8, symBinAddr: 0x1394C, symSize: 0x94 }
  - { offset: 0x47142, size: 0x8, addend: 0x0, symName: __RNvXss_NtCs3cP53eQoTwO_11proc_macro28fallbackNtB5_11TokenStreamNtNtCsfvfooZQ3Axs_4core5clone5Clone5cloneCsfcpOYk5gj7s_10displaydoc, symObjAddr: 0x38B8, symBinAddr: 0x13E1C, symSize: 0x24 }
  - { offset: 0x47174, size: 0x8, addend: 0x0, symName: __RNvXsu_NtCs3cP53eQoTwO_11proc_macro28fallbackNtB5_4SpanNtNtCsfvfooZQ3Axs_4core5clone5Clone5cloneCsfcpOYk5gj7s_10displaydoc, symObjAddr: 0x38DC, symBinAddr: 0x13E40, symSize: 0x10 }
  - { offset: 0x47BAF, size: 0x8, addend: 0x0, symName: __RINvNtCsfvfooZQ3Axs_4core3ptr13drop_in_placeINtNtB4_4cell10UnsafeCellNtNtNtCs9i5KxIbZ5ph_10proc_macro6bridge6client6BridgeEECsfcpOYk5gj7s_10displaydoc, symObjAddr: 0xA04, symBinAddr: 0x10FBC, symSize: 0x24 }
  - { offset: 0x47BDE, size: 0x8, addend: 0x0, symName: __RINvNtCsfvfooZQ3Axs_4core3ptr13drop_in_placeINtNtB4_4cell7RefCellNtNtNtCs9i5KxIbZ5ph_10proc_macro6bridge6client6BridgeEECsfcpOYk5gj7s_10displaydoc, symObjAddr: 0xA28, symBinAddr: 0x10FE0, symSize: 0x24 }
  - { offset: 0x47C0D, size: 0x8, addend: 0x0, symName: __RINvNtCsfvfooZQ3Axs_4core3ptr13drop_in_placeINtNtB4_6option6OptionIBH_NtNtCsfcpOYk5gj7s_10displaydoc4attr14VariantDisplayEEEB1a_, symObjAddr: 0xA4C, symBinAddr: 0x11004, symSize: 0x4C }
  - { offset: 0x47C3C, size: 0x8, addend: 0x0, symName: __RINvNtCsfvfooZQ3Axs_4core3ptr13drop_in_placeINtNtB4_6option6OptionINtNtB4_6result6ResultNtNtB4_7convert10InfallibleNtNtCs6IAuOt8vWmF_3syn5error5ErrorEEECsfcpOYk5gj7s_10displaydoc, symObjAddr: 0xA98, symBinAddr: 0x11050, symSize: 0x48 }
  - { offset: 0x47C6B, size: 0x8, addend: 0x0, symName: __RINvNtCsfvfooZQ3Axs_4core3ptr13drop_in_placeINtNtB4_6option6OptionINtNtCse1nGBsou5OW_5alloc3vec3VecNtNtCs6IAuOt8vWmF_3syn8generics10TraitBoundEEECsfcpOYk5gj7s_10displaydoc, symObjAddr: 0xAE0, symBinAddr: 0x11098, symSize: 0x48 }
  - { offset: 0x47C9A, size: 0x8, addend: 0x0, symName: __RINvNtCsfvfooZQ3Axs_4core3ptr13drop_in_placeINtNtB4_6option6OptionINtNtNtNtB4_4iter8adapters3map3MapINtNtCs6IAuOt8vWmF_3syn10punctuated4IterNtNtB1F_8generics14TypeParamBoundENCNCNvNtCsfcpOYk5gj7s_10displaydoc6expand37extract_trait_constraints_from_source00EEEB2U_, symObjAddr: 0xB28, symBinAddr: 0x110E0, symSize: 0x44 }
  - { offset: 0x47CC9, size: 0x8, addend: 0x0, symName: __RINvNtCsfvfooZQ3Axs_4core3ptr13drop_in_placeINtNtB4_6option6OptionINtNtNtNtB4_4iter8adapters3map3MapINtNtCs6IAuOt8vWmF_3syn10punctuated7IterMutNtNtB1F_8generics14WherePredicateENCNvNtCsfcpOYk5gj7s_10displaydoc6expand39ensure_display_in_where_clause_for_type0EEEB2V_, symObjAddr: 0xB6C, symBinAddr: 0x11124, symSize: 0x44 }
  - { offset: 0x47CF8, size: 0x8, addend: 0x0, symName: __RINvNtCsfvfooZQ3Axs_4core3ptr13drop_in_placeINtNtB4_6option6OptionNtNtCs6IAuOt8vWmF_3syn8generics10TraitBoundEECsfcpOYk5gj7s_10displaydoc, symObjAddr: 0xBB0, symBinAddr: 0x11168, symSize: 0x48 }
  - { offset: 0x47D27, size: 0x8, addend: 0x0, symName: __RINvNtCsfvfooZQ3Axs_4core3ptr13drop_in_placeINtNtB4_6option6OptionNtNtCsfcpOYk5gj7s_10displaydoc4attr14VariantDisplayEEB16_, symObjAddr: 0xBF8, symBinAddr: 0x111B0, symSize: 0x48 }
  - { offset: 0x47D56, size: 0x8, addend: 0x0, symName: __RINvNtCsfvfooZQ3Axs_4core3ptr13drop_in_placeINtNtB4_6option6OptionNtNtCsfcpOYk5gj7s_10displaydoc4attr7DisplayEEB16_, symObjAddr: 0xC40, symBinAddr: 0x111F8, symSize: 0x48 }
  - { offset: 0x47D85, size: 0x8, addend: 0x0, symName: __RINvNtCsfvfooZQ3Axs_4core3ptr13drop_in_placeINtNtB4_6option6OptionTRNtNtCs6IAuOt8vWmF_3syn4data7VariantIBH_NtNtCsfcpOYk5gj7s_10displaydoc4attr14VariantDisplayEEEEB1L_, symObjAddr: 0xC88, symBinAddr: 0x11240, symSize: 0x4C }
  - { offset: 0x47DB4, size: 0x8, addend: 0x0, symName: __RINvNtCsfvfooZQ3Axs_4core3ptr13drop_in_placeINtNtB4_6result6ResultNtNtB4_7convert10InfallibleNtNtCs6IAuOt8vWmF_3syn5error5ErrorEECsfcpOYk5gj7s_10displaydoc, symObjAddr: 0xCD4, symBinAddr: 0x1128C, symSize: 0x30 }
  - { offset: 0x47DE3, size: 0x8, addend: 0x0, symName: __RINvNtCsfvfooZQ3Axs_4core3ptr13drop_in_placeINtNtCs2cqEZUIJimJ_5quote9___private9RepInterpNtCs3cP53eQoTwO_11proc_macro25IdentEECsfcpOYk5gj7s_10displaydoc, symObjAddr: 0xD04, symBinAddr: 0x112BC, symSize: 0x24 }
  - { offset: 0x47E12, size: 0x8, addend: 0x0, symName: __RINvNtCsfvfooZQ3Axs_4core3ptr13drop_in_placeINtNtCs6IAuOt8vWmF_3syn10punctuated4IterNtNtBL_4data5FieldEECsfcpOYk5gj7s_10displaydoc, symObjAddr: 0xD58, symBinAddr: 0x112E0, symSize: 0x24 }
  - { offset: 0x47E41, size: 0x8, addend: 0x0, symName: __RINvNtCsfvfooZQ3Axs_4core3ptr13drop_in_placeINtNtCs6IAuOt8vWmF_3syn10punctuated4IterNtNtBL_4data7VariantEECsfcpOYk5gj7s_10displaydoc, symObjAddr: 0xD7C, symBinAddr: 0x11304, symSize: 0x24 }
  - { offset: 0x47E70, size: 0x8, addend: 0x0, symName: __RINvNtCsfvfooZQ3Axs_4core3ptr13drop_in_placeINtNtCs6IAuOt8vWmF_3syn10punctuated4IterNtNtBL_8generics12GenericParamEECsfcpOYk5gj7s_10displaydoc, symObjAddr: 0xDA0, symBinAddr: 0x11328, symSize: 0x24 }
  - { offset: 0x47E9F, size: 0x8, addend: 0x0, symName: __RINvNtCsfvfooZQ3Axs_4core3ptr13drop_in_placeINtNtCs6IAuOt8vWmF_3syn10punctuated4IterNtNtBL_8generics14WherePredicateEECsfcpOYk5gj7s_10displaydoc, symObjAddr: 0xDC4, symBinAddr: 0x1134C, symSize: 0x24 }
  - { offset: 0x47ECE, size: 0x8, addend: 0x0, symName: __RINvNtCsfvfooZQ3Axs_4core3ptr13drop_in_placeINtNtCs6IAuOt8vWmF_3syn10punctuated7IterMutNtNtBL_8generics14WherePredicateEECsfcpOYk5gj7s_10displaydoc, symObjAddr: 0xDE8, symBinAddr: 0x11370, symSize: 0x24 }
  - { offset: 0x47EFD, size: 0x8, addend: 0x0, symName: __RINvNtCsfvfooZQ3Axs_4core3ptr13drop_in_placeINtNtCse1nGBsou5OW_5alloc3vec3VecINtNtB4_6option6OptionNtNtCsfcpOYk5gj7s_10displaydoc4attr14VariantDisplayEEEB1D_, symObjAddr: 0xE0C, symBinAddr: 0x11394, symSize: 0x5C }
  - { offset: 0x47F2C, size: 0x8, addend: 0x0, symName: __RINvNtCsfvfooZQ3Axs_4core3ptr13drop_in_placeINtNtCse1nGBsou5OW_5alloc3vec3VecNtCs3cP53eQoTwO_11proc_macro211TokenStreamEECsfcpOYk5gj7s_10displaydoc, symObjAddr: 0xE68, symBinAddr: 0x113F0, symSize: 0x5C }
  - { offset: 0x47F5B, size: 0x8, addend: 0x0, symName: __RINvNtCsfvfooZQ3Axs_4core3ptr13drop_in_placeINtNtCse1nGBsou5OW_5alloc3vec3VecNtNtCs6IAuOt8vWmF_3syn8generics10TraitBoundEECsfcpOYk5gj7s_10displaydoc, symObjAddr: 0xEC4, symBinAddr: 0x1144C, symSize: 0x5C }
  - { offset: 0x47F8A, size: 0x8, addend: 0x0, symName: __RINvNtCsfvfooZQ3Axs_4core3ptr13drop_in_placeINtNtCse1nGBsou5OW_5alloc3vec3VecRNtNtCs6IAuOt8vWmF_3syn8generics9TypeParamEECsfcpOYk5gj7s_10displaydoc, symObjAddr: 0xF20, symBinAddr: 0x114A8, symSize: 0x5C }
  - { offset: 0x47FB9, size: 0x8, addend: 0x0, symName: __RINvNtCsfvfooZQ3Axs_4core3ptr13drop_in_placeINtNtCse1nGBsou5OW_5alloc5boxed3BoxDNtNtB4_5error5ErrorNtNtB4_6marker4SendNtB1B_4SyncEL_EECsfcpOYk5gj7s_10displaydoc, symObjAddr: 0xF7C, symBinAddr: 0x11504, symSize: 0x80 }
  - { offset: 0x47FE8, size: 0x8, addend: 0x0, symName: __RINvNtCsfvfooZQ3Axs_4core3ptr13drop_in_placeINtNtCse1nGBsou5OW_5alloc5boxed3BoxINtNtCs6IAuOt8vWmF_3syn5drops6NoDropDINtNtB1k_10punctuated12IterMutTraitNtNtB1k_8generics14WherePredicateEp4ItemQB2p_EL_EEECsfcpOYk5gj7s_10displaydoc, symObjAddr: 0xFFC, symBinAddr: 0x11584, symSize: 0x2C }
  - { offset: 0x48017, size: 0x8, addend: 0x0, symName: __RINvNtCsfvfooZQ3Axs_4core3ptr13drop_in_placeINtNtCse1nGBsou5OW_5alloc5boxed3BoxINtNtCs6IAuOt8vWmF_3syn5drops6NoDropDINtNtB1k_10punctuated9IterTraitNtNtB1k_4data5FieldEp4ItemRB2l_EL_EEECsfcpOYk5gj7s_10displaydoc, symObjAddr: 0x1028, symBinAddr: 0x115B0, symSize: 0x2C }
  - { offset: 0x48046, size: 0x8, addend: 0x0, symName: __RINvNtCsfvfooZQ3Axs_4core3ptr13drop_in_placeINtNtCse1nGBsou5OW_5alloc5boxed3BoxINtNtCs6IAuOt8vWmF_3syn5drops6NoDropDINtNtB1k_10punctuated9IterTraitNtNtB1k_4data7VariantEp4ItemRB2l_EL_EEECsfcpOYk5gj7s_10displaydoc, symObjAddr: 0x1054, symBinAddr: 0x115DC, symSize: 0x2C }
  - { offset: 0x48075, size: 0x8, addend: 0x0, symName: __RINvNtCsfvfooZQ3Axs_4core3ptr13drop_in_placeINtNtCse1nGBsou5OW_5alloc5boxed3BoxINtNtCs6IAuOt8vWmF_3syn5drops6NoDropDINtNtB1k_10punctuated9IterTraitNtNtB1k_8generics12GenericParamEp4ItemRB2l_EL_EEECsfcpOYk5gj7s_10displaydoc, symObjAddr: 0x1080, symBinAddr: 0x11608, symSize: 0x2C }
  - { offset: 0x480A4, size: 0x8, addend: 0x0, symName: __RINvNtCsfvfooZQ3Axs_4core3ptr13drop_in_placeINtNtCse1nGBsou5OW_5alloc5boxed3BoxINtNtCs6IAuOt8vWmF_3syn5drops6NoDropDINtNtB1k_10punctuated9IterTraitNtNtB1k_8generics14WherePredicateEp4ItemRB2l_EL_EEECsfcpOYk5gj7s_10displaydoc, symObjAddr: 0x10AC, symBinAddr: 0x11634, symSize: 0x2C }
  - { offset: 0x480D3, size: 0x8, addend: 0x0, symName: __RINvNtCsfvfooZQ3Axs_4core3ptr13drop_in_placeINtNtCse1nGBsou5OW_5alloc5boxed3BoxNtNtNtCscOYdFFY2T5N_3std2io5error6CustomEECsfcpOYk5gj7s_10displaydoc, symObjAddr: 0x10D8, symBinAddr: 0x11660, symSize: 0x60 }
  - { offset: 0x48102, size: 0x8, addend: 0x0, symName: __RINvNtCsfvfooZQ3Axs_4core3ptr13drop_in_placeINtNtCse1nGBsou5OW_5alloc7raw_vec6RawVecINtNtB4_6option6OptionNtNtCsfcpOYk5gj7s_10displaydoc4attr14VariantDisplayEEEB1K_, symObjAddr: 0x1138, symBinAddr: 0x116C0, symSize: 0x24 }
  - { offset: 0x48131, size: 0x8, addend: 0x0, symName: __RINvNtCsfvfooZQ3Axs_4core3ptr13drop_in_placeINtNtCse1nGBsou5OW_5alloc7raw_vec6RawVecNtCs3cP53eQoTwO_11proc_macro211TokenStreamEECsfcpOYk5gj7s_10displaydoc, symObjAddr: 0x115C, symBinAddr: 0x116E4, symSize: 0x24 }
  - { offset: 0x48160, size: 0x8, addend: 0x0, symName: __RINvNtCsfvfooZQ3Axs_4core3ptr13drop_in_placeINtNtCse1nGBsou5OW_5alloc7raw_vec6RawVecNtNtCs6IAuOt8vWmF_3syn8generics10TraitBoundEECsfcpOYk5gj7s_10displaydoc, symObjAddr: 0x1180, symBinAddr: 0x11708, symSize: 0x24 }
  - { offset: 0x4818F, size: 0x8, addend: 0x0, symName: __RINvNtCsfvfooZQ3Axs_4core3ptr13drop_in_placeINtNtCse1nGBsou5OW_5alloc7raw_vec6RawVecRNtNtCs6IAuOt8vWmF_3syn8generics9TypeParamEECsfcpOYk5gj7s_10displaydoc, symObjAddr: 0x11A4, symBinAddr: 0x1172C, symSize: 0x24 }
  - { offset: 0x481BE, size: 0x8, addend: 0x0, symName: __RINvNtCsfvfooZQ3Axs_4core3ptr13drop_in_placeINtNtCsloNvcHxBCre_9hashbrown10scopeguard10ScopeGuardNtNtBL_3raw13RawTableInnerNCINvMsa_B1z_B1x_14prepare_resizeNtNtCse1nGBsou5OW_5alloc5alloc6GlobalE0EECsfcpOYk5gj7s_10displaydoc, symObjAddr: 0x11C8, symBinAddr: 0x11750, symSize: 0x24 }
  - { offset: 0x481ED, size: 0x8, addend: 0x0, symName: __RINvNtCsfvfooZQ3Axs_4core3ptr13drop_in_placeINtNtCsloNvcHxBCre_9hashbrown10scopeguard10ScopeGuardQNtNtBL_3raw13RawTableInnerNCNvMsa_B1A_B1y_15rehash_in_place0EECsfcpOYk5gj7s_10displaydoc, symObjAddr: 0x11EC, symBinAddr: 0x11774, symSize: 0x24 }
  - { offset: 0x4821C, size: 0x8, addend: 0x0, symName: __RINvNtCsfvfooZQ3Axs_4core3ptr13drop_in_placeINtNtCsloNvcHxBCre_9hashbrown3map7HashMapNtCs3cP53eQoTwO_11proc_macro25IdentINtNtCse1nGBsou5OW_5alloc3vec3VecNtNtCs6IAuOt8vWmF_3syn8generics10TraitBoundENtNtNtCscOYdFFY2T5N_3std4hash6random11RandomStateEECsfcpOYk5gj7s_10displaydoc, symObjAddr: 0x1210, symBinAddr: 0x11798, symSize: 0x24 }
  - { offset: 0x4824B, size: 0x8, addend: 0x0, symName: __RINvNtCsfvfooZQ3Axs_4core3ptr13drop_in_placeINtNtCsloNvcHxBCre_9hashbrown3map8IntoIterNtCs3cP53eQoTwO_11proc_macro25IdentINtNtCse1nGBsou5OW_5alloc3vec3VecNtNtCs6IAuOt8vWmF_3syn8generics10TraitBoundEEECsfcpOYk5gj7s_10displaydoc, symObjAddr: 0x1234, symBinAddr: 0x117BC, symSize: 0x24 }
  - { offset: 0x4827A, size: 0x8, addend: 0x0, symName: __RINvNtCsfvfooZQ3Axs_4core3ptr13drop_in_placeINtNtCsloNvcHxBCre_9hashbrown3raw11RawIntoIterTNtCs3cP53eQoTwO_11proc_macro25IdentINtNtCse1nGBsou5OW_5alloc3vec3VecNtNtCs6IAuOt8vWmF_3syn8generics10TraitBoundEEEECsfcpOYk5gj7s_10displaydoc, symObjAddr: 0x1258, symBinAddr: 0x117E0, symSize: 0x24 }
  - { offset: 0x482A9, size: 0x8, addend: 0x0, symName: __RINvNtCsfvfooZQ3Axs_4core3ptr13drop_in_placeINtNtCsloNvcHxBCre_9hashbrown3raw8RawTableTNtCs3cP53eQoTwO_11proc_macro25IdentINtNtCse1nGBsou5OW_5alloc3vec3VecNtNtCs6IAuOt8vWmF_3syn8generics10TraitBoundEEEECsfcpOYk5gj7s_10displaydoc, symObjAddr: 0x127C, symBinAddr: 0x11804, symSize: 0x24 }
  - { offset: 0x482D8, size: 0x8, addend: 0x0, symName: __RINvNtCsfvfooZQ3Axs_4core3ptr13drop_in_placeINtNtNtB4_3ops12control_flow11ControlFlowINtNtB4_6option6OptionNtNtCsfcpOYk5gj7s_10displaydoc4attr14VariantDisplayEEEB1L_, symObjAddr: 0x12A0, symBinAddr: 0x11828, symSize: 0x4C }
  - { offset: 0x48307, size: 0x8, addend: 0x0, symName: __RINvNtCsfvfooZQ3Axs_4core3ptr13drop_in_placeINtNtNtB4_3ops12control_flow11ControlFlowNtCs3cP53eQoTwO_11proc_macro211TokenStreamEECsfcpOYk5gj7s_10displaydoc, symObjAddr: 0x12EC, symBinAddr: 0x11874, symSize: 0x48 }
  - { offset: 0x48336, size: 0x8, addend: 0x0, symName: __RINvNtCsfvfooZQ3Axs_4core3ptr13drop_in_placeINtNtNtB4_4iter8adapters12GenericShuntINtNtBJ_3map3MapINtNtBJ_3zip3ZipINtNtCs6IAuOt8vWmF_3syn10punctuated4IterNtNtB1T_4data7VariantEINtNtNtCse1nGBsou5OW_5alloc3vec9into_iter8IntoIterINtNtB4_6option6OptionNtNtCsfcpOYk5gj7s_10displaydoc4attr14VariantDisplayEEENCNvNtB42_6expand9impl_enums_0EINtNtB4_6result6ResultNtNtB4_7convert10InfallibleNtNtB1T_5error5ErrorEEEB42_, symObjAddr: 0x1334, symBinAddr: 0x118BC, symSize: 0x24 }
  - { offset: 0x48365, size: 0x8, addend: 0x0, symName: __RINvNtCsfvfooZQ3Axs_4core3ptr13drop_in_placeINtNtNtB4_4iter8adapters12GenericShuntINtNtBJ_3map3MapINtNtCs6IAuOt8vWmF_3syn10punctuated4IterNtNtB1D_4data7VariantENCNvNtCsfcpOYk5gj7s_10displaydoc6expand9impl_enum0EINtNtB4_6result6ResultNtNtB4_7convert10InfallibleNtNtB1D_5error5ErrorEEEB2E_, symObjAddr: 0x1358, symBinAddr: 0x118E0, symSize: 0x24 }
  - { offset: 0x48394, size: 0x8, addend: 0x0, symName: __RINvNtCsfvfooZQ3Axs_4core3ptr13drop_in_placeINtNtNtCscOYdFFY2T5N_3std2io5error9ErrorDataINtNtCse1nGBsou5OW_5alloc5boxed3BoxNtBJ_6CustomEEECsfcpOYk5gj7s_10displaydoc, symObjAddr: 0x137C, symBinAddr: 0x11904, symSize: 0x48 }
  - { offset: 0x483C3, size: 0x8, addend: 0x0, symName: __RINvNtCsfvfooZQ3Axs_4core3ptr13drop_in_placeINtNtNtCse1nGBsou5OW_5alloc3vec9into_iter8IntoIterINtNtB4_6option6OptionNtNtCsfcpOYk5gj7s_10displaydoc4attr14VariantDisplayEEEB1U_, symObjAddr: 0x13C4, symBinAddr: 0x1194C, symSize: 0x24 }
  - { offset: 0x483F2, size: 0x8, addend: 0x0, symName: __RINvNtCsfvfooZQ3Axs_4core3ptr13drop_in_placeINtNtNtNtB4_4iter8adapters3map3MapINtNtBL_3zip3ZipINtNtCs6IAuOt8vWmF_3syn10punctuated4IterNtNtB1z_4data7VariantEINtNtNtCse1nGBsou5OW_5alloc3vec9into_iter8IntoIterINtNtB4_6option6OptionNtNtCsfcpOYk5gj7s_10displaydoc4attr14VariantDisplayEEENCNvNtB3I_6expand9impl_enums_0EEB3I_, symObjAddr: 0x13E8, symBinAddr: 0x11970, symSize: 0x24 }
  - { offset: 0x48421, size: 0x8, addend: 0x0, symName: __RINvNtCsfvfooZQ3Axs_4core3ptr13drop_in_placeINtNtNtNtB4_4iter8adapters3map3MapINtNtCs6IAuOt8vWmF_3syn10punctuated4IterNtNtB1j_4data5FieldENCNCNvNtCsfcpOYk5gj7s_10displaydoc6expand11impl_struct00EEB2k_, symObjAddr: 0x140C, symBinAddr: 0x11994, symSize: 0x24 }
  - { offset: 0x48450, size: 0x8, addend: 0x0, symName: __RINvNtCsfvfooZQ3Axs_4core3ptr13drop_in_placeINtNtNtNtB4_4iter8adapters3map3MapINtNtCs6IAuOt8vWmF_3syn10punctuated4IterNtNtB1j_4data5FieldENCNCNvNtCsfcpOYk5gj7s_10displaydoc6expand9impl_enums_0s_0EEB2k_, symObjAddr: 0x1430, symBinAddr: 0x119B8, symSize: 0x24 }
  - { offset: 0x4847F, size: 0x8, addend: 0x0, symName: __RINvNtCsfvfooZQ3Axs_4core3ptr13drop_in_placeINtNtNtNtB4_4iter8adapters3map3MapINtNtCs6IAuOt8vWmF_3syn10punctuated4IterNtNtB1j_4data7VariantENCNvNtCsfcpOYk5gj7s_10displaydoc6expand9impl_enum0EEB2k_, symObjAddr: 0x1454, symBinAddr: 0x119DC, symSize: 0x24 }
  - { offset: 0x484AE, size: 0x8, addend: 0x0, symName: __RINvNtCsfvfooZQ3Axs_4core3ptr13drop_in_placeINtNtNtNtB4_4iter8adapters3map3MapINtNtCs6IAuOt8vWmF_3syn10punctuated4IterNtNtB1j_8generics14TypeParamBoundENCNCNvNtCsfcpOYk5gj7s_10displaydoc6expand37extract_trait_constraints_from_source00EEB2y_, symObjAddr: 0x1478, symBinAddr: 0x11A00, symSize: 0x24 }
  - { offset: 0x484DD, size: 0x8, addend: 0x0, symName: __RINvNtCsfvfooZQ3Axs_4core3ptr13drop_in_placeINtNtNtNtB4_4iter8adapters3map3MapINtNtCs6IAuOt8vWmF_3syn10punctuated7IterMutNtNtB1j_8generics14WherePredicateENCNvNtCsfcpOYk5gj7s_10displaydoc6expand39ensure_display_in_where_clause_for_type0EEB2z_, symObjAddr: 0x149C, symBinAddr: 0x11A24, symSize: 0x24 }
  - { offset: 0x4850C, size: 0x8, addend: 0x0, symName: __RINvNtCsfvfooZQ3Axs_4core3ptr13drop_in_placeINtNtNtNtB4_4iter8adapters3zip3ZipINtNtCs6IAuOt8vWmF_3syn10punctuated4IterNtNtB1j_4data7VariantEINtNtNtCse1nGBsou5OW_5alloc3vec9into_iter8IntoIterINtNtB4_6option6OptionNtNtCsfcpOYk5gj7s_10displaydoc4attr14VariantDisplayEEEEB3s_, symObjAddr: 0x14C0, symBinAddr: 0x11A48, symSize: 0x60 }
  - { offset: 0x4853B, size: 0x8, addend: 0x0, symName: __RINvNtCsfvfooZQ3Axs_4core3ptr13drop_in_placeINtNtNtNtB4_4iter8adapters4fuse4FuseINtNtBL_3map3MapINtNtCs6IAuOt8vWmF_3syn10punctuated4IterNtNtB1B_8generics14TypeParamBoundENCNCNvNtCsfcpOYk5gj7s_10displaydoc6expand37extract_trait_constraints_from_source00EEEB2Q_, symObjAddr: 0x1520, symBinAddr: 0x11AA8, symSize: 0x24 }
  - { offset: 0x4856A, size: 0x8, addend: 0x0, symName: __RINvNtCsfvfooZQ3Axs_4core3ptr13drop_in_placeINtNtNtNtB4_4iter8adapters4fuse4FuseINtNtBL_3map3MapINtNtCs6IAuOt8vWmF_3syn10punctuated7IterMutNtNtB1B_8generics14WherePredicateENCNvNtCsfcpOYk5gj7s_10displaydoc6expand39ensure_display_in_where_clause_for_type0EEEB2R_, symObjAddr: 0x1544, symBinAddr: 0x11ACC, symSize: 0x24 }
  - { offset: 0x48599, size: 0x8, addend: 0x0, symName: __RINvNtCsfvfooZQ3Axs_4core3ptr13drop_in_placeINtNtNtNtB4_4iter8adapters6cloned6ClonedINtNtBL_7flatten7FlatMapINtNtCs6IAuOt8vWmF_3syn10punctuated4IterNtNtB1N_8generics14TypeParamBoundEINtNtB4_6option6OptionRNtB2o_10TraitBoundENCNCNvNtCsfcpOYk5gj7s_10displaydoc6expand37extract_trait_constraints_from_source00EEEB3I_, symObjAddr: 0x1568, symBinAddr: 0x11AF0, symSize: 0x24 }
  - { offset: 0x485C8, size: 0x8, addend: 0x0, symName: __RINvNtCsfvfooZQ3Axs_4core3ptr13drop_in_placeINtNtNtNtB4_4iter8adapters7flatten13FlattenCompatINtNtBL_3map3MapINtNtCs6IAuOt8vWmF_3syn10punctuated4IterNtNtB1O_8generics14TypeParamBoundENCNCNvNtCsfcpOYk5gj7s_10displaydoc6expand37extract_trait_constraints_from_source00EINtNtB4_6option8IntoIterRNtB2p_10TraitBoundEEEB33_, symObjAddr: 0x158C, symBinAddr: 0x11B14, symSize: 0x24 }
  - { offset: 0x485F7, size: 0x8, addend: 0x0, symName: __RINvNtCsfvfooZQ3Axs_4core3ptr13drop_in_placeINtNtNtNtB4_4iter8adapters7flatten13FlattenCompatINtNtBL_3map3MapINtNtCs6IAuOt8vWmF_3syn10punctuated7IterMutNtNtB1O_8generics14WherePredicateENCNvNtCsfcpOYk5gj7s_10displaydoc6expand39ensure_display_in_where_clause_for_type0EINtNtB4_6option8IntoIterQNtB2s_13PredicateTypeEEEB34_, symObjAddr: 0x15B0, symBinAddr: 0x11B38, symSize: 0x24 }
  - { offset: 0x48626, size: 0x8, addend: 0x0, symName: __RINvNtCsfvfooZQ3Axs_4core3ptr13drop_in_placeINtNtNtNtB4_4iter8adapters7flatten7FlatMapINtNtCs6IAuOt8vWmF_3syn10punctuated4IterNtNtB1r_8generics14TypeParamBoundEINtNtB4_6option6OptionRNtB22_10TraitBoundENCNCNvNtCsfcpOYk5gj7s_10displaydoc6expand37extract_trait_constraints_from_source00EEB3m_, symObjAddr: 0x15D4, symBinAddr: 0x11B5C, symSize: 0x24 }
  - { offset: 0x48655, size: 0x8, addend: 0x0, symName: __RINvNtCsfvfooZQ3Axs_4core3ptr13drop_in_placeINtNtNtNtB4_4iter8adapters7flatten7FlatMapINtNtCs6IAuOt8vWmF_3syn10punctuated7IterMutNtNtB1r_8generics14WherePredicateEINtNtB4_6option6OptionQNtB25_13PredicateTypeENCNvNtCsfcpOYk5gj7s_10displaydoc6expand39ensure_display_in_where_clause_for_type0EEB3q_, symObjAddr: 0x15F8, symBinAddr: 0x11B80, symSize: 0x24 }
  - { offset: 0x48684, size: 0x8, addend: 0x0, symName: __RINvNtCsfvfooZQ3Axs_4core3ptr13drop_in_placeINtNtNtNtCscOYdFFY2T5N_3std11collections4hash3map7HashMapNtCs3cP53eQoTwO_11proc_macro25IdentINtNtCse1nGBsou5OW_5alloc3vec3VecNtNtCs6IAuOt8vWmF_3syn8generics10TraitBoundEEECsfcpOYk5gj7s_10displaydoc, symObjAddr: 0x161C, symBinAddr: 0x11BA4, symSize: 0x24 }
  - { offset: 0x486B3, size: 0x8, addend: 0x0, symName: __RINvNtCsfvfooZQ3Axs_4core3ptr13drop_in_placeINtNtNtNtCscOYdFFY2T5N_3std11collections4hash3map8IntoIterNtCs3cP53eQoTwO_11proc_macro25IdentINtNtCse1nGBsou5OW_5alloc3vec3VecNtNtCs6IAuOt8vWmF_3syn8generics10TraitBoundEEECsfcpOYk5gj7s_10displaydoc, symObjAddr: 0x1640, symBinAddr: 0x11BC8, symSize: 0x24 }
  - { offset: 0x486E2, size: 0x8, addend: 0x0, symName: __RINvNtCsfvfooZQ3Axs_4core3ptr13drop_in_placeINtNvXsd_NtNtCse1nGBsou5OW_5alloc3vec9into_iterINtBP_8IntoIterppENtNtNtB4_3ops4drop4Drop4drop9DropGuardINtNtB4_6option6OptionNtNtCsfcpOYk5gj7s_10displaydoc4attr14VariantDisplayENtNtBT_5alloc6GlobalEEB2L_, symObjAddr: 0x1664, symBinAddr: 0x11BEC, symSize: 0x24 }
  - { offset: 0x48711, size: 0x8, addend: 0x0, symName: __RINvNtCsfvfooZQ3Axs_4core3ptr13drop_in_placeNCNCINvNtNtCs9i5KxIbZ5ph_10proc_macro6bridge6client10run_clientNtBN_11TokenStreamINtNtB4_6option6OptionB1H_ENCNCINvMs7_BN_INtBN_6ClientNtBR_11TokenStreamB2R_E7expand1NvCsfcpOYk5gj7s_10displaydoc12derive_errorE00E00EB3o_, symObjAddr: 0x16A8, symBinAddr: 0x11C10, symSize: 0x24 }
  - { offset: 0x48740, size: 0x8, addend: 0x0, symName: __RINvNtCsfvfooZQ3Axs_4core3ptr13drop_in_placeNCNvMs0_NtCsfcpOYk5gj7s_10displaydoc4attrNtBO_11AttrsHelper18display_with_input0EBQ_, symObjAddr: 0x16CC, symBinAddr: 0x11C34, symSize: 0x24 }
  - { offset: 0x4876F, size: 0x8, addend: 0x0, symName: __RINvNtCsfvfooZQ3Axs_4core3ptr13drop_in_placeNtNtCs6IAuOt8vWmF_3syn6derive11DeriveInputECsfcpOYk5gj7s_10displaydoc, symObjAddr: 0x16F0, symBinAddr: 0x11C58, symSize: 0xEC }
  - { offset: 0x4879E, size: 0x8, addend: 0x0, symName: __RINvNtCsfvfooZQ3Axs_4core3ptr13drop_in_placeNtNtCs6IAuOt8vWmF_3syn8generics10TypeParamsECsfcpOYk5gj7s_10displaydoc, symObjAddr: 0x17DC, symBinAddr: 0x11D44, symSize: 0x24 }
  - { offset: 0x487CD, size: 0x8, addend: 0x0, symName: __RINvNtCsfvfooZQ3Axs_4core3ptr13drop_in_placeNtNtCsfcpOYk5gj7s_10displaydoc4attr14VariantDisplayEBK_, symObjAddr: 0x1800, symBinAddr: 0x11D68, symSize: 0x5C }
  - { offset: 0x487FC, size: 0x8, addend: 0x0, symName: __RINvNtCsfvfooZQ3Axs_4core3ptr13drop_in_placeNtNtCsfcpOYk5gj7s_10displaydoc4attr7DisplayEBK_, symObjAddr: 0x185C, symBinAddr: 0x11DC4, symSize: 0x5C }
  - { offset: 0x4882B, size: 0x8, addend: 0x0, symName: __RINvNtCsfvfooZQ3Axs_4core3ptr13drop_in_placeNtNtNtCs9i5KxIbZ5ph_10proc_macro6bridge3rpc12PanicMessageECsfcpOYk5gj7s_10displaydoc, symObjAddr: 0x18B8, symBinAddr: 0x11E20, symSize: 0x50 }
  - { offset: 0x4885A, size: 0x8, addend: 0x0, symName: __RINvNtCsfvfooZQ3Axs_4core3ptr13drop_in_placeNtNtNtCs9i5KxIbZ5ph_10proc_macro6bridge6buffer6BufferECsfcpOYk5gj7s_10displaydoc, symObjAddr: 0x1908, symBinAddr: 0x11E70, symSize: 0x24 }
  - { offset: 0x48889, size: 0x8, addend: 0x0, symName: __RINvNtCsfvfooZQ3Axs_4core3ptr13drop_in_placeNtNtNtCs9i5KxIbZ5ph_10proc_macro6bridge6client6BridgeECsfcpOYk5gj7s_10displaydoc, symObjAddr: 0x192C, symBinAddr: 0x11E94, symSize: 0x24 }
  - { offset: 0x488B8, size: 0x8, addend: 0x0, symName: __RINvNtCsfvfooZQ3Axs_4core3ptr13drop_in_placeNtNtNtCscOYdFFY2T5N_3std2io5error5ErrorECsfcpOYk5gj7s_10displaydoc, symObjAddr: 0x1950, symBinAddr: 0x11EB8, symSize: 0x24 }
  - { offset: 0x488E7, size: 0x8, addend: 0x0, symName: __RINvNtCsfvfooZQ3Axs_4core3ptr13drop_in_placeNtNtNtCscOYdFFY2T5N_3std2io5error6CustomECsfcpOYk5gj7s_10displaydoc, symObjAddr: 0x1974, symBinAddr: 0x11EDC, symSize: 0x24 }
  - { offset: 0x48916, size: 0x8, addend: 0x0, symName: __RINvNtCsfvfooZQ3Axs_4core3ptr13drop_in_placeNtNtNtNtCscOYdFFY2T5N_3std2io5error14repr_bitpacked4ReprECsfcpOYk5gj7s_10displaydoc, symObjAddr: 0x1998, symBinAddr: 0x11F00, symSize: 0x24 }
  - { offset: 0x48945, size: 0x8, addend: 0x0, symName: __RINvNtCsfvfooZQ3Axs_4core3ptr13drop_in_placeNtNvNtNtNtCs9i5KxIbZ5ph_10proc_macro6bridge6client5state3set13RestoreOnDropECsfcpOYk5gj7s_10displaydoc, symObjAddr: 0x19BC, symBinAddr: 0x11F24, symSize: 0x24 }
  - { offset: 0x48974, size: 0x8, addend: 0x0, symName: __RINvNtCsfvfooZQ3Axs_4core3ptr13drop_in_placeSINtNtB4_6option6OptionNtNtCsfcpOYk5gj7s_10displaydoc4attr14VariantDisplayEEB17_, symObjAddr: 0x19E0, symBinAddr: 0x11F48, symSize: 0xC4 }
  - { offset: 0x489A3, size: 0x8, addend: 0x0, symName: __RINvNtCsfvfooZQ3Axs_4core3ptr13drop_in_placeSNtCs3cP53eQoTwO_11proc_macro211TokenStreamECsfcpOYk5gj7s_10displaydoc, symObjAddr: 0x1AA4, symBinAddr: 0x1200C, symSize: 0xB4 }
  - { offset: 0x489D2, size: 0x8, addend: 0x0, symName: __RINvNtCsfvfooZQ3Axs_4core3ptr13drop_in_placeSNtNtCs6IAuOt8vWmF_3syn8generics10TraitBoundECsfcpOYk5gj7s_10displaydoc, symObjAddr: 0x1B58, symBinAddr: 0x120C0, symSize: 0xC4 }
  - { offset: 0x48A01, size: 0x8, addend: 0x0, symName: __RINvNtCsfvfooZQ3Axs_4core3ptr13drop_in_placeTNtCs3cP53eQoTwO_11proc_macro25IdentINtNtCse1nGBsou5OW_5alloc3vec3VecNtNtCs6IAuOt8vWmF_3syn8generics10TraitBoundEEECsfcpOYk5gj7s_10displaydoc, symObjAddr: 0x1C1C, symBinAddr: 0x12184, symSize: 0x60 }
  - { offset: 0x48A30, size: 0x8, addend: 0x0, symName: __RINvNtCsfvfooZQ3Axs_4core3ptr13drop_in_placeTRNtNtCs6IAuOt8vWmF_3syn4data7VariantINtNtB4_6option6OptionNtNtCsfcpOYk5gj7s_10displaydoc4attr14VariantDisplayEEEB1H_, symObjAddr: 0x1C7C, symBinAddr: 0x121E4, symSize: 0x24 }
  - { offset: 0x4BA1A, size: 0x8, addend: 0x0, symName: __RNvXs5_NtCsfvfooZQ3Axs_4core6optionINtB5_6OptionQNtNtCs6IAuOt8vWmF_3syn8generics13PredicateTypeENtNtNtNtB7_4iter6traits7collect12IntoIterator9into_iterCsfcpOYk5gj7s_10displaydoc, symObjAddr: 0x32A4, symBinAddr: 0x13808, symSize: 0x14 }
  - { offset: 0x4BA51, size: 0x8, addend: 0x0, symName: __RNvXs5_NtCsfvfooZQ3Axs_4core6optionINtB5_6OptionQNtNtCs6IAuOt8vWmF_3syn8generics14WherePredicateENtNtNtNtB7_4iter6traits7collect12IntoIterator9into_iterCsfcpOYk5gj7s_10displaydoc, symObjAddr: 0x32B8, symBinAddr: 0x1381C, symSize: 0x14 }
  - { offset: 0x4BA88, size: 0x8, addend: 0x0, symName: __RNvXs5_NtCsfvfooZQ3Axs_4core6optionINtB5_6OptionRNtNtCs6IAuOt8vWmF_3syn8generics10TraitBoundENtNtNtNtB7_4iter6traits7collect12IntoIterator9into_iterCsfcpOYk5gj7s_10displaydoc, symObjAddr: 0x32CC, symBinAddr: 0x13830, symSize: 0x14 }
  - { offset: 0x4BB8B, size: 0x8, addend: 0x0, symName: __RNvXsO_NtCsfvfooZQ3Axs_4core6optionINtB5_8IntoIterRNtNtCs6IAuOt8vWmF_3syn4data7VariantENtNtB7_5clone5Clone5cloneCsfcpOYk5gj7s_10displaydoc, symObjAddr: 0x3494, symBinAddr: 0x139F8, symSize: 0x68 }
  - { offset: 0x4BC32, size: 0x8, addend: 0x0, symName: __RNvXsO_NtCsfvfooZQ3Axs_4core6optionINtB5_8IntoIterRNtNtCs6IAuOt8vWmF_3syn8generics14WherePredicateENtNtB7_5clone5Clone5cloneCsfcpOYk5gj7s_10displaydoc, symObjAddr: 0x34FC, symBinAddr: 0x13A60, symSize: 0x68 }
  - { offset: 0x4BCDF, size: 0x8, addend: 0x0, symName: __RNvXsc_NtCsfvfooZQ3Axs_4core6optionINtB5_6OptionRNtCs3cP53eQoTwO_11proc_macro25IdentENtNtB7_3cmp9PartialEq2eqCsfcpOYk5gj7s_10displaydoc, symObjAddr: 0x380C, symBinAddr: 0x13D70, symSize: 0xAC }
  - { offset: 0x4BEEE, size: 0x8, addend: 0x0, symName: __RNvXsv_NtCsfvfooZQ3Axs_4core6optionINtB5_8IntoIterQNtNtCs6IAuOt8vWmF_3syn8generics13PredicateTypeENtNtNtNtB7_4iter6traits8iterator8Iterator4nextCsfcpOYk5gj7s_10displaydoc, symObjAddr: 0x38EC, symBinAddr: 0x13E50, symSize: 0x28 }
  - { offset: 0x4BF91, size: 0x8, addend: 0x0, symName: __RNvXsv_NtCsfvfooZQ3Axs_4core6optionINtB5_8IntoIterQNtNtCs6IAuOt8vWmF_3syn8generics14WherePredicateENtNtNtNtB7_4iter6traits8iterator8Iterator4nextCsfcpOYk5gj7s_10displaydoc, symObjAddr: 0x3914, symBinAddr: 0x13E78, symSize: 0x28 }
  - { offset: 0x4C034, size: 0x8, addend: 0x0, symName: __RNvXsv_NtCsfvfooZQ3Axs_4core6optionINtB5_8IntoIterQNtNtCs6IAuOt8vWmF_3syn8generics14WherePredicateENtNtNtNtB7_4iter6traits8iterator8Iterator9size_hintCsfcpOYk5gj7s_10displaydoc, symObjAddr: 0x393C, symBinAddr: 0x13EA0, symSize: 0x44 }
  - { offset: 0x4C0AC, size: 0x8, addend: 0x0, symName: __RNvXsv_NtCsfvfooZQ3Axs_4core6optionINtB5_8IntoIterRNtNtCs6IAuOt8vWmF_3syn4data7VariantENtNtNtNtB7_4iter6traits8iterator8Iterator9size_hintCsfcpOYk5gj7s_10displaydoc, symObjAddr: 0x3980, symBinAddr: 0x13EE4, symSize: 0x44 }
  - { offset: 0x4C124, size: 0x8, addend: 0x0, symName: __RNvXsv_NtCsfvfooZQ3Axs_4core6optionINtB5_8IntoIterRNtNtCs6IAuOt8vWmF_3syn8generics10TraitBoundENtNtNtNtB7_4iter6traits8iterator8Iterator4nextCsfcpOYk5gj7s_10displaydoc, symObjAddr: 0x39C4, symBinAddr: 0x13F28, symSize: 0x28 }
  - { offset: 0x4C1C7, size: 0x8, addend: 0x0, symName: __RNvXsv_NtCsfvfooZQ3Axs_4core6optionINtB5_8IntoIterRNtNtCs6IAuOt8vWmF_3syn8generics14WherePredicateENtNtNtNtB7_4iter6traits8iterator8Iterator9size_hintCsfcpOYk5gj7s_10displaydoc, symObjAddr: 0x39EC, symBinAddr: 0x13F50, symSize: 0x44 }
  - { offset: 0x4D4AC, size: 0x8, addend: 0x0, symName: __RNvMNtCsfvfooZQ3Axs_4core5sliceSINtNtB4_6option6OptionNtNtCsfcpOYk5gj7s_10displaydoc4attr14VariantDisplayE4iterBU_, symObjAddr: 0x2550, symBinAddr: 0x12AB8, symSize: 0x28 }
  - { offset: 0x4D4EF, size: 0x8, addend: 0x0, symName: __RNvNvNtCsfvfooZQ3Axs_4core10intrinsics19copy_nonoverlapping18precondition_checkCsfcpOYk5gj7s_10displaydoc, symObjAddr: 0x29B0, symBinAddr: 0x12F14, symSize: 0x2E4 }
  - { offset: 0x4D8FA, size: 0x8, addend: 0x0, symName: __RINvNtNtNtCsfvfooZQ3Axs_4core4iter8adapters4fuse17and_then_or_clearINtNtB4_3map3MapINtNtCs6IAuOt8vWmF_3syn10punctuated4IterNtNtB1o_8generics14TypeParamBoundENCNCNvNtCsfcpOYk5gj7s_10displaydoc6expand37extract_trait_constraints_from_source00EINtNtB8_6option6OptionRNtB1Z_10TraitBoundENvYB13_NtNtNtB6_6traits8iterator8Iterator4nextEB2D_, symObjAddr: 0x1CA0, symBinAddr: 0x12208, symSize: 0x100 }
  - { offset: 0x4DA38, size: 0x8, addend: 0x0, symName: __RINvNtNtNtCsfvfooZQ3Axs_4core4iter8adapters4fuse17and_then_or_clearINtNtB4_3map3MapINtNtCs6IAuOt8vWmF_3syn10punctuated7IterMutNtNtB1o_8generics14WherePredicateENCNvNtCsfcpOYk5gj7s_10displaydoc6expand39ensure_display_in_where_clause_for_type0EINtNtB8_6option6OptionQNtB22_13PredicateTypeENvYB13_NtNtNtB6_6traits8iterator8Iterator4nextEB2E_, symObjAddr: 0x1DA0, symBinAddr: 0x12308, symSize: 0x100 }
  - { offset: 0x4DB7B, size: 0x8, addend: 0x0, symName: __RNvXs8_NtNtNtCsfvfooZQ3Axs_4core4iter8adapters4fuseINtB5_4FuseINtNtB7_3map3MapINtNtCs6IAuOt8vWmF_3syn10punctuated4IterNtNtB1j_8generics14TypeParamBoundENCNCNvNtCsfcpOYk5gj7s_10displaydoc6expand37extract_trait_constraints_from_source00EEINtB5_8FuseImplBY_E4nextB2y_, symObjAddr: 0x331C, symBinAddr: 0x13880, symSize: 0x24 }
  - { offset: 0x4DBB2, size: 0x8, addend: 0x0, symName: __RNvXs8_NtNtNtCsfvfooZQ3Axs_4core4iter8adapters4fuseINtB5_4FuseINtNtB7_3map3MapINtNtCs6IAuOt8vWmF_3syn10punctuated7IterMutNtNtB1j_8generics14WherePredicateENCNvNtCsfcpOYk5gj7s_10displaydoc6expand39ensure_display_in_where_clause_for_type0EEINtB5_8FuseImplBY_E4nextB2z_, symObjAddr: 0x3340, symBinAddr: 0x138A4, symSize: 0x24 }
  - { offset: 0x4DC88, size: 0x8, addend: 0x0, symName: __RNvXs1_NtNtNtCsfvfooZQ3Axs_4core4iter8adapters3zipINtB5_3ZipINtNtCs6IAuOt8vWmF_3syn10punctuated4IterNtNtB11_4data7VariantEINtNtNtCse1nGBsou5OW_5alloc3vec9into_iter8IntoIterINtNtBb_6option6OptionNtNtCsfcpOYk5gj7s_10displaydoc4attr14VariantDisplayEEEINtB5_7ZipImplBW_B1W_E3newB3a_, symObjAddr: 0x2E5C, symBinAddr: 0x133C0, symSize: 0x40 }
  - { offset: 0x4DCD4, size: 0x8, addend: 0x0, symName: __RNvXs1_NtNtNtCsfvfooZQ3Axs_4core4iter8adapters3zipINtB5_3ZipINtNtCs6IAuOt8vWmF_3syn10punctuated4IterNtNtB11_4data7VariantEINtNtNtCse1nGBsou5OW_5alloc3vec9into_iter8IntoIterINtNtBb_6option6OptionNtNtCsfcpOYk5gj7s_10displaydoc4attr14VariantDisplayEEEINtB5_7ZipImplBW_B1W_E4nextB3a_, symObjAddr: 0x2E9C, symBinAddr: 0x13400, symSize: 0x154 }
  - { offset: 0x4DE20, size: 0x8, addend: 0x0, symName: __RNvXs1_NtNtNtCsfvfooZQ3Axs_4core4iter8adapters3zipINtB5_3ZipINtNtCs6IAuOt8vWmF_3syn10punctuated4IterNtNtB11_4data7VariantEINtNtNtCse1nGBsou5OW_5alloc3vec9into_iter8IntoIterINtNtBb_6option6OptionNtNtCsfcpOYk5gj7s_10displaydoc4attr14VariantDisplayEEEINtB5_7ZipImplBW_B1W_E9size_hintB3a_, symObjAddr: 0x2FF0, symBinAddr: 0x13554, symSize: 0x134 }
  - { offset: 0x4DF90, size: 0x8, addend: 0x0, symName: __RNvXs_NtNtNtCsfvfooZQ3Axs_4core4iter8adapters3zipINtB4_3ZipINtNtCs6IAuOt8vWmF_3syn10punctuated4IterNtNtB10_4data7VariantEINtNtNtCse1nGBsou5OW_5alloc3vec9into_iter8IntoIterINtNtBa_6option6OptionNtNtCsfcpOYk5gj7s_10displaydoc4attr14VariantDisplayEEENtNtNtB8_6traits8iterator8Iterator4nextB39_, symObjAddr: 0x37C4, symBinAddr: 0x13D28, symSize: 0x24 }
  - { offset: 0x4DFCE, size: 0x8, addend: 0x0, symName: __RNvXs_NtNtNtCsfvfooZQ3Axs_4core4iter8adapters3zipINtB4_3ZipINtNtCs6IAuOt8vWmF_3syn10punctuated4IterNtNtB10_4data7VariantEINtNtNtCse1nGBsou5OW_5alloc3vec9into_iter8IntoIterINtNtBa_6option6OptionNtNtCsfcpOYk5gj7s_10displaydoc4attr14VariantDisplayEEENtNtNtB8_6traits8iterator8Iterator9size_hintB39_, symObjAddr: 0x37E8, symBinAddr: 0x13D4C, symSize: 0x24 }
  - { offset: 0x4E018, size: 0x8, addend: 0x0, symName: __RNvXsA_NtNtNtCsfvfooZQ3Axs_4core4iter8adapters7flattenINtNtBb_6option6OptionRNtNtCs6IAuOt8vWmF_3syn8generics10TraitBoundENtB5_21ConstSizeIntoIterator4sizeCsfcpOYk5gj7s_10displaydoc, symObjAddr: 0x347C, symBinAddr: 0x139E0, symSize: 0x18 }
  - { offset: 0x4E1E4, size: 0x8, addend: 0x0, symName: __RINvYINtNtNtNtCsfvfooZQ3Axs_4core4iter8adapters3zip3ZipINtNtCs6IAuOt8vWmF_3syn10punctuated4IterNtNtBW_4data7VariantEINtNtNtCse1nGBsou5OW_5alloc3vec9into_iter8IntoIterINtNtBc_6option6OptionNtNtCsfcpOYk5gj7s_10displaydoc4attr14VariantDisplayEEENtNtNtBa_6traits8iterator8Iterator3mapINtNtBc_6result6ResultNtCs3cP53eQoTwO_11proc_macro211TokenStreamNtNtBW_5error5ErrorENCNvNtB34_6expand9impl_enums_0EB34_, symObjAddr: 0x1F60, symBinAddr: 0x124C8, symSize: 0x30 }
  - { offset: 0x4E252, size: 0x8, addend: 0x0, symName: __RINvYINtNtNtNtCsfvfooZQ3Axs_4core4iter8adapters3zip3ZipINtNtCs6IAuOt8vWmF_3syn10punctuated4IterNtNtBW_4data7VariantEINtNtNtCse1nGBsou5OW_5alloc3vec9into_iter8IntoIterINtNtBc_6option6OptionNtNtCsfcpOYk5gj7s_10displaydoc4attr14VariantDisplayEEENtNtNtBa_6traits8iterator8Iterator8try_folduNCINvNtB8_3map12map_try_foldTRB1v_B2E_EINtNtBc_6result6ResultNtCs3cP53eQoTwO_11proc_macro211TokenStreamNtNtBW_5error5ErrorEuINtNtNtBc_3ops12control_flow11ControlFlowIB6B_B5z_EENCNvNtB34_6expand9impl_enums_0NCINvXB8_INtB8_12GenericShuntINtB4F_3MapB3_B7q_EIB5e_NtNtBc_7convert10InfallibleB6f_EEB3S_8try_folduNCINvNvB3S_12try_for_each4callB5z_B7f_NcNtB7f_5Break0E0B7f_E0E0B6A_EB34_, symObjAddr: 0x1F90, symBinAddr: 0x124F8, symSize: 0x18C }
  - { offset: 0x4E319, size: 0x8, addend: 0x0, symName: __RNCINvNvNtNtNtNtCsfvfooZQ3Axs_4core4iter6traits8iterator8Iterator12try_for_each4callINtNtBe_6option6OptionNtNtCsfcpOYk5gj7s_10displaydoc4attr14VariantDisplayEINtNtNtBe_3ops12control_flow11ControlFlowB1k_ENcNtB2w_5Break0E0B1K_, symObjAddr: 0x211C, symBinAddr: 0x12684, symSize: 0x48 }
  - { offset: 0x4E37F, size: 0x8, addend: 0x0, symName: __RNCINvNvNtNtNtNtCsfvfooZQ3Axs_4core4iter6traits8iterator8Iterator12try_for_each4callNtCs3cP53eQoTwO_11proc_macro211TokenStreamINtNtNtBe_3ops12control_flow11ControlFlowB1k_ENcNtB20_5Break0E0CsfcpOYk5gj7s_10displaydoc, symObjAddr: 0x2164, symBinAddr: 0x126CC, symSize: 0x3C }
  - { offset: 0x4E404, size: 0x8, addend: 0x0, symName: __RNCINvNvNtNtNtNtCsfvfooZQ3Axs_4core4iter6traits8iterator8Iterator4find5checkTRNtCs3cP53eQoTwO_11proc_macro25IdentQINtNtCse1nGBsou5OW_5alloc3vec3VecNtNtCs6IAuOt8vWmF_3syn8generics10TraitBoundEENCNvNtCsfcpOYk5gj7s_10displaydoc6expand37extract_trait_constraints_from_sources_0E0B3a_, symObjAddr: 0x21A0, symBinAddr: 0x12708, symSize: 0x84 }
  - { offset: 0x4E46C, size: 0x8, addend: 0x0, symName: __RNCINvNvNtNtNtNtCsfvfooZQ3Axs_4core4iter6traits8iterator8Iterator8for_each4callNtCs3cP53eQoTwO_11proc_macro29TokenTreeNCINvXsa_NtB1h_8fallbackNtB21_11TokenStreamINtNtBa_7collect6ExtendB1f_E6extendNtB1h_11TokenStreamE0E0CsfcpOYk5gj7s_10displaydoc, symObjAddr: 0x2224, symBinAddr: 0x1278C, symSize: 0x3C }
  - { offset: 0x4E4C5, size: 0x8, addend: 0x0, symName: __RNCINvNvNtNtNtNtCsfvfooZQ3Axs_4core4iter6traits8iterator8Iterator8for_each4callTNtCs3cP53eQoTwO_11proc_macro25IdentINtNtCse1nGBsou5OW_5alloc3vec3VecNtNtCs6IAuOt8vWmF_3syn8generics10TraitBoundEENCINvXs1i_NtCsloNvcHxBCre_9hashbrown3mapINtB3f_7HashMapB1g_B1P_NtNtNtCscOYdFFY2T5N_3std4hash6random11RandomStateEINtNtBa_7collect6ExtendB1f_E6extendINtNtNtBc_8adapters3map3MapINtNtNtBe_5slice4iter4IterRNtB2o_9TypeParamENCNvNtCsfcpOYk5gj7s_10displaydoc6expand37extract_trait_constraints_from_source0EE0E0B6I_, symObjAddr: 0x2260, symBinAddr: 0x127C8, symSize: 0x40 }
  - { offset: 0x4E52C, size: 0x8, addend: 0x0, symName: __RNvYINtNtCsfvfooZQ3Axs_4core6option8IntoIterQNtNtCs6IAuOt8vWmF_3syn8generics14WherePredicateENtNtNtNtB7_4iter6traits10exact_size17ExactSizeIterator3lenCsfcpOYk5gj7s_10displaydoc, symObjAddr: 0x3A30, symBinAddr: 0x13F94, symSize: 0xF4 }
  - { offset: 0x4E61F, size: 0x8, addend: 0x0, symName: __RNvYINtNtCsfvfooZQ3Axs_4core6option8IntoIterRNtNtCs6IAuOt8vWmF_3syn4data7VariantENtNtNtNtB7_4iter6traits10exact_size17ExactSizeIterator3lenCsfcpOYk5gj7s_10displaydoc, symObjAddr: 0x3B24, symBinAddr: 0x14088, symSize: 0xF4 }
  - { offset: 0x4E712, size: 0x8, addend: 0x0, symName: __RNvYINtNtCsfvfooZQ3Axs_4core6option8IntoIterRNtNtCs6IAuOt8vWmF_3syn8generics14WherePredicateENtNtNtNtB7_4iter6traits10exact_size17ExactSizeIterator3lenCsfcpOYk5gj7s_10displaydoc, symObjAddr: 0x3C18, symBinAddr: 0x1417C, symSize: 0xF4 }
  - { offset: 0x4EE7A, size: 0x8, addend: 0x0, symName: __RNSNvYNCINvMs6_NtCsloNvcHxBCre_9hashbrown3rawINtBd_8RawTableTNtCs3cP53eQoTwO_11proc_macro25IdentINtNtCse1nGBsou5OW_5alloc3vec3VecNtNtCs6IAuOt8vWmF_3syn8generics10TraitBoundEEE14reserve_rehashNCINvNtBf_3map11make_hasherBX_B1w_NtNtNtCscOYdFFY2T5N_3std4hash6random11RandomStateE0E0INtNtNtCsfvfooZQ3Axs_4core3ops8function6FnOnceTQNtBd_13RawTableInnerjEE9call_once6vtableCsfcpOYk5gj7s_10displaydoc, symObjAddr: 0x234C, symBinAddr: 0x128B4, symSize: 0x38 }
  - { offset: 0x4EEBE, size: 0x8, addend: 0x0, symName: __RNSNvYNCINvMs6_NtCsloNvcHxBCre_9hashbrown3rawINtBd_8RawTableTNtCs3cP53eQoTwO_11proc_macro25IdentINtNtCse1nGBsou5OW_5alloc3vec3VecNtNtCs6IAuOt8vWmF_3syn8generics10TraitBoundEEE24find_or_find_insert_slotNCINvNtBf_3map14equivalent_keyBX_BX_B1w_E0NCINvB3i_11make_hasherBX_B1w_NtNtNtCscOYdFFY2T5N_3std4hash6random11RandomStateE0E0INtNtNtCsfvfooZQ3Axs_4core3ops8function6FnOnceTjEE9call_once6vtableCsfcpOYk5gj7s_10displaydoc, symObjAddr: 0x2384, symBinAddr: 0x128EC, symSize: 0x38 }
  - { offset: 0x4EF02, size: 0x8, addend: 0x0, symName: __RNvYNCINvMs6_NtCsloNvcHxBCre_9hashbrown3rawINtBb_8RawTableTNtCs3cP53eQoTwO_11proc_macro25IdentINtNtCse1nGBsou5OW_5alloc3vec3VecNtNtCs6IAuOt8vWmF_3syn8generics10TraitBoundEEE14reserve_rehashNCINvNtBd_3map11make_hasherBV_B1u_NtNtNtCscOYdFFY2T5N_3std4hash6random11RandomStateE0E0INtNtNtCsfvfooZQ3Axs_4core3ops8function6FnOnceTQNtBb_13RawTableInnerjEE9call_onceCsfcpOYk5gj7s_10displaydoc, symObjAddr: 0x3D0C, symBinAddr: 0x14270, symSize: 0x5C }
  - { offset: 0x4EF46, size: 0x8, addend: 0x0, symName: __RNvYNCINvMs6_NtCsloNvcHxBCre_9hashbrown3rawINtBb_8RawTableTNtCs3cP53eQoTwO_11proc_macro25IdentINtNtCse1nGBsou5OW_5alloc3vec3VecNtNtCs6IAuOt8vWmF_3syn8generics10TraitBoundEEE14reserve_rehashNCINvNtBd_3map11make_hasherBV_B1u_NtNtNtCscOYdFFY2T5N_3std4hash6random11RandomStateE0Es_0INtNtNtCsfvfooZQ3Axs_4core3ops8function6FnOnceTOhEE9call_onceCsfcpOYk5gj7s_10displaydoc, symObjAddr: 0x3D68, symBinAddr: 0x142CC, symSize: 0x44 }
  - { offset: 0x4EF86, size: 0x8, addend: 0x0, symName: __RNvYNCINvMs6_NtCsloNvcHxBCre_9hashbrown3rawINtBb_8RawTableTNtCs3cP53eQoTwO_11proc_macro25IdentINtNtCse1nGBsou5OW_5alloc3vec3VecNtNtCs6IAuOt8vWmF_3syn8generics10TraitBoundEEE24find_or_find_insert_slotNCINvNtBd_3map14equivalent_keyBV_BV_B1u_E0NCINvB3g_11make_hasherBV_B1u_NtNtNtCscOYdFFY2T5N_3std4hash6random11RandomStateE0E0INtNtNtCsfvfooZQ3Axs_4core3ops8function6FnOnceTjEE9call_onceCsfcpOYk5gj7s_10displaydoc, symObjAddr: 0x3DAC, symBinAddr: 0x14310, symSize: 0x58 }
  - { offset: 0x4EFCA, size: 0x8, addend: 0x0, symName: __RNvYNCNkNvNtNtNtCs9i5KxIbZ5ph_10proc_macro6bridge6client5state12BRIDGE_STATE0s_0INtNtNtCsfvfooZQ3Axs_4core3ops8function6FnOnceTINtNtB1n_6option6OptionQIB22_INtNtB1n_4cell4CellPuEEEEE9call_onceCsfcpOYk5gj7s_10displaydoc, symObjAddr: 0x3E04, symBinAddr: 0x14368, symSize: 0x4C }
  - { offset: 0x4F00E, size: 0x8, addend: 0x0, symName: __RNvYNCNkNvNvMNtNtCscOYdFFY2T5N_3std4hash6randomNtBb_11RandomState3new4KEYS0s_0INtNtNtCsfvfooZQ3Axs_4core3ops8function6FnOnceTINtNtB1l_6option6OptionQIB20_INtNtB1l_4cell4CellTyyEEEEEE9call_onceCsfcpOYk5gj7s_10displaydoc, symObjAddr: 0x3E50, symBinAddr: 0x143B4, symSize: 0x4C }
  - { offset: 0x4F052, size: 0x8, addend: 0x0, symName: __RNvYNvMNtCsfvfooZQ3Axs_4core6optionINtB5_6OptionINtNtB7_4cell4CellTyyEEE4takeINtNtNtB7_3ops8function6FnOnceTQBx_EE9call_onceCsfcpOYk5gj7s_10displaydoc, symObjAddr: 0x3F44, symBinAddr: 0x144A8, symSize: 0x24 }
  - { offset: 0x4F096, size: 0x8, addend: 0x0, symName: __RNvYNvNtCsfcpOYk5gj7s_10displaydoc6expand22new_empty_where_clauseINtNtNtCsfvfooZQ3Axs_4core3ops8function6FnOnceuE9call_onceB6_, symObjAddr: 0x3F90, symBinAddr: 0x144F4, symSize: 0x1C }
  - { offset: 0x4F0DA, size: 0x8, addend: 0x0, symName: __RNvYNvNvNvMNtNtCscOYdFFY2T5N_3std4hash6randomNtB9_11RandomState3new4KEYS6___initINtNtNtCsfvfooZQ3Axs_4core3ops8function6FnOnceuE9call_onceCsfcpOYk5gj7s_10displaydoc, symObjAddr: 0x3FAC, symBinAddr: 0x14510, symSize: 0x1C }
  - { offset: 0x4F11E, size: 0x8, addend: 0x0, symName: __RNvYNvYINtNtCse1nGBsou5OW_5alloc5boxed3BoxNtNtCs6IAuOt8vWmF_3syn8generics14WherePredicateEINtNtCsfvfooZQ3Axs_4core7convert5AsMutBE_E6as_mutINtNtNtB1v_3ops8function6FnOnceTQB5_EE9call_onceCsfcpOYk5gj7s_10displaydoc, symObjAddr: 0x3FC8, symBinAddr: 0x1452C, symSize: 0x24 }
  - { offset: 0x4F162, size: 0x8, addend: 0x0, symName: __RNvYNvYINtNtNtNtCsfvfooZQ3Axs_4core4iter8adapters3map3MapINtNtCs6IAuOt8vWmF_3syn10punctuated4IterNtNtBY_8generics14TypeParamBoundENCNCNvNtCsfcpOYk5gj7s_10displaydoc6expand37extract_trait_constraints_from_source00ENtNtNtBc_6traits8iterator8Iterator4nextINtNtNtBe_3ops8function6FnOnceTQB5_EE9call_onceB2c_, symObjAddr: 0x3FEC, symBinAddr: 0x14550, symSize: 0x24 }
  - { offset: 0x4F1A6, size: 0x8, addend: 0x0, symName: __RNvYNvYINtNtNtNtCsfvfooZQ3Axs_4core4iter8adapters3map3MapINtNtCs6IAuOt8vWmF_3syn10punctuated7IterMutNtNtBY_8generics14WherePredicateENCNvNtCsfcpOYk5gj7s_10displaydoc6expand39ensure_display_in_where_clause_for_type0ENtNtNtBc_6traits8iterator8Iterator4nextINtNtNtBe_3ops8function6FnOnceTQB5_EE9call_onceB2d_, symObjAddr: 0x4010, symBinAddr: 0x14574, symSize: 0x24 }
  - { offset: 0x4F1EA, size: 0x8, addend: 0x0, symName: __RNvYNvYNtNtCs6IAuOt8vWmF_3syn3lit6LitStrNtNtB9_5parse5Parse5parseINtNtNtCsfvfooZQ3Axs_4core3ops8function6FnOnceTRNtBE_11ParseBufferEE9call_onceCsfcpOYk5gj7s_10displaydoc, symObjAddr: 0x4034, symBinAddr: 0x14598, symSize: 0x24 }
  - { offset: 0x4F22E, size: 0x8, addend: 0x0, symName: __RNvYNvYNtNtCs6IAuOt8vWmF_3syn6derive11DeriveInputNtNtB9_5parse5Parse5parseINtNtNtCsfvfooZQ3Axs_4core3ops8function6FnOnceTRNtBN_11ParseBufferEE9call_onceCsfcpOYk5gj7s_10displaydoc, symObjAddr: 0x4058, symBinAddr: 0x145BC, symSize: 0x24 }
  - { offset: 0x4F272, size: 0x8, addend: 0x0, symName: __RNvYNvYNtNtNtCs9i5KxIbZ5ph_10proc_macro6bridge3rpc12PanicMessageINtNtCsfvfooZQ3Axs_4core7convert4FromINtNtCse1nGBsou5OW_5alloc5boxed3BoxDNtNtB15_3any3AnyNtNtB15_6marker4SendEL_EE4fromINtNtNtB15_3ops8function6FnOnceTB1B_EE9call_onceCsfcpOYk5gj7s_10displaydoc, symObjAddr: 0x407C, symBinAddr: 0x145E0, symSize: 0x2C }
  - { offset: 0x4F2BC, size: 0x8, addend: 0x0, symName: __RNvYNcNtINtNtNtCsfvfooZQ3Axs_4core3ops12control_flow11ControlFlowINtNtBd_6option6OptionNtNtCsfcpOYk5gj7s_10displaydoc4attr14VariantDisplayEE5Break0INtNtBb_8function5FnMutTB11_EE8call_mutB1r_, symObjAddr: 0x3E9C, symBinAddr: 0x14400, symSize: 0x48 }
  - { offset: 0x4F300, size: 0x8, addend: 0x0, symName: __RNvYNcNtINtNtNtCsfvfooZQ3Axs_4core3ops12control_flow11ControlFlowNtCs3cP53eQoTwO_11proc_macro211TokenStreamE5Break0INtNtBb_8function5FnMutTB11_EE8call_mutCsfcpOYk5gj7s_10displaydoc, symObjAddr: 0x3EE4, symBinAddr: 0x14448, symSize: 0x38 }
  - { offset: 0x4F344, size: 0x8, addend: 0x0, symName: __RNvYNvMNtCsfvfooZQ3Axs_4core6optionINtB5_6OptionNtNtCsfcpOYk5gj7s_10displaydoc4attr14VariantDisplayE7is_someINtNtNtB7_3ops8function5FnMutTRBx_EE8call_mutBO_, symObjAddr: 0x3F68, symBinAddr: 0x144CC, symSize: 0x28 }
  - { offset: 0x4F38E, size: 0x8, addend: 0x0, symName: __RNvYNvCsfcpOYk5gj7s_10displaydoc12derive_errorINtNtNtCsfvfooZQ3Axs_4core3ops8function2FnTNtCs9i5KxIbZ5ph_10proc_macro11TokenStreamEE4callB4_, symObjAddr: 0x3F1C, symBinAddr: 0x14480, symSize: 0x28 }
  - { offset: 0x4F4AB, size: 0x8, addend: 0x0, symName: __RNvNtNtNtNtCsfvfooZQ3Axs_4core9core_arch10arm_shared4neon9generated18vreinterpret_s8_u8CsfcpOYk5gj7s_10displaydoc, symObjAddr: 0x2970, symBinAddr: 0x12ED4, symSize: 0xC }
  - { offset: 0x4F4D9, size: 0x8, addend: 0x0, symName: __RNvNtNtNtNtCsfvfooZQ3Axs_4core9core_arch10arm_shared4neon9generated19vreinterpret_u64_u8CsfcpOYk5gj7s_10displaydoc, symObjAddr: 0x297C, symBinAddr: 0x12EE0, symSize: 0xC }
  - { offset: 0x4F507, size: 0x8, addend: 0x0, symName: __RNvNtNtNtNtCsfvfooZQ3Axs_4core9core_arch10arm_shared4neon9generated7vceq_u8CsfcpOYk5gj7s_10displaydoc, symObjAddr: 0x2988, symBinAddr: 0x12EEC, symSize: 0x14 }
  - { offset: 0x4F544, size: 0x8, addend: 0x0, symName: __RNvNtNtNtNtCsfvfooZQ3Axs_4core9core_arch10arm_shared4neon9generated7vorr_u8CsfcpOYk5gj7s_10displaydoc, symObjAddr: 0x299C, symBinAddr: 0x12F00, symSize: 0x14 }
  - { offset: 0x4F689, size: 0x8, addend: 0x0, symName: __RNvNvXs5_NtNtCsfvfooZQ3Axs_4core3str6traitsINtNtNtBb_3ops5range5RangejEINtNtNtBb_5slice5index10SliceIndexeE13get_unchecked18precondition_checkCsfcpOYk5gj7s_10displaydoc, symObjAddr: 0x2C94, symBinAddr: 0x131F8, symSize: 0x60 }
  - { offset: 0x4F6D4, size: 0x8, addend: 0x0, symName: __RNvXs2_NtNtCsfvfooZQ3Axs_4core3str6traitseINtNtNtB9_3ops5index5IndexINtNtBJ_5range16RangeToInclusivejEE5indexCsfcpOYk5gj7s_10displaydoc, symObjAddr: 0x3124, symBinAddr: 0x13688, symSize: 0x44 }
  - { offset: 0x54F81, size: 0x8, addend: 0x0, symName: __RNvNtCse1nGBsou5OW_5alloc5alloc12alloc_zeroedCsfcpOYk5gj7s_10displaydoc, symObjAddr: 0x27C0, symBinAddr: 0x12D28, symSize: 0x84 }
  - { offset: 0x55045, size: 0x8, addend: 0x0, symName: __RNvXs_NtCse1nGBsou5OW_5alloc5allocNtB4_6GlobalNtNtCsfvfooZQ3Axs_4core5alloc9Allocator10deallocateCsfcpOYk5gj7s_10displaydoc, symObjAddr: 0x3708, symBinAddr: 0x13C6C, symSize: 0x88 }
  - { offset: 0x55120, size: 0x8, addend: 0x0, symName: __RNvXs_NtCse1nGBsou5OW_5alloc5allocNtB4_6GlobalNtNtCsfvfooZQ3Axs_4core5alloc9Allocator8allocateCsfcpOYk5gj7s_10displaydoc, symObjAddr: 0x3790, symBinAddr: 0x13CF4, symSize: 0x34 }
  - { offset: 0x5515B, size: 0x8, addend: 0x0, symName: __RNvNtCse1nGBsou5OW_5alloc5alloc15exchange_mallocCsfcpOYk5gj7s_10displaydoc, symObjAddr: 0x2844, symBinAddr: 0x12DAC, symSize: 0xA4 }
  - { offset: 0x551F2, size: 0x8, addend: 0x0, symName: __RNvNtCse1nGBsou5OW_5alloc5alloc5allocCsfcpOYk5gj7s_10displaydoc, symObjAddr: 0x28E8, symBinAddr: 0x12E50, symSize: 0x84 }
  - { offset: 0x56636, size: 0x8, addend: 0x0, symName: __RINvMNtCsfvfooZQ3Axs_4core6optionINtB3_6OptionNtNtCs6IAuOt8vWmF_3syn8generics11WhereClauseE14unwrap_or_elseNvNtCsfcpOYk5gj7s_10displaydoc6expand22new_empty_where_clauseEB1L_, symObjAddr: 0x0, symBinAddr: 0x1063C, symSize: 0x74 }
  - { offset: 0x56817, size: 0x8, addend: 0x0, symName: __RINvMNtCsfvfooZQ3Axs_4core6optionINtB3_6OptionNtNtCsfcpOYk5gj7s_10displaydoc4attr14VariantDisplayE10ok_or_elseNtNtCs6IAuOt8vWmF_3syn5error5ErrorNCNCNvNtBM_6expand9impl_enums_00EBM_, symObjAddr: 0x74, symBinAddr: 0x106B0, symSize: 0x9C }
  - { offset: 0x56883, size: 0x8, addend: 0x0, symName: __RINvMNtCsfvfooZQ3Axs_4core6optionINtB3_6OptionNtNtCsfcpOYk5gj7s_10displaydoc4attr7DisplayE3mapNtBK_14VariantDisplayNCNvMs0_BK_NtBK_11AttrsHelper18display_with_input0EBM_, symObjAddr: 0x110, symBinAddr: 0x1074C, symSize: 0xCC }
  - { offset: 0x5694C, size: 0x8, addend: 0x0, symName: __RINvMNtCsfvfooZQ3Axs_4core6optionINtB3_6OptionNtNtCsfcpOYk5gj7s_10displaydoc4attr7DisplayE3mapNtCs3cP53eQoTwO_11proc_macro211TokenStreamNCNvNtBM_6expand11impl_struct0EBM_, symObjAddr: 0x1DC, symBinAddr: 0x10818, symSize: 0xB8 }
  - { offset: 0x569EB, size: 0x8, addend: 0x0, symName: __RINvMNtCsfvfooZQ3Axs_4core6optionINtB3_6OptionQINtNtCse1nGBsou5OW_5alloc5boxed3BoxNtNtCs6IAuOt8vWmF_3syn8generics14WherePredicateEE3mapQB1i_NvYBJ_INtNtB5_7convert5AsMutB1i_E6as_mutECsfcpOYk5gj7s_10displaydoc, symObjAddr: 0x294, symBinAddr: 0x108D0, symSize: 0x50 }
  - { offset: 0x56A63, size: 0x8, addend: 0x0, symName: __RINvMNtCsfvfooZQ3Axs_4core6optionINtB3_6OptionQNtNtCs6IAuOt8vWmF_3syn8generics14WherePredicateE7or_elseNCNvXsF_NtBN_10punctuatedINtB1L_14PrivateIterMutBJ_NtNtBN_5token5CommaENtNtNtNtB5_4iter6traits8iterator8Iterator4nexts_0ECsfcpOYk5gj7s_10displaydoc, symObjAddr: 0x2E4, symBinAddr: 0x10920, symSize: 0xA8 }
  - { offset: 0x56AF9, size: 0x8, addend: 0x0, symName: __RINvMNtCsfvfooZQ3Axs_4core6optionINtB3_6OptionQNtNtCs6IAuOt8vWmF_3syn8generics14WherePredicateE7or_elseNCNvXsG_NtBN_10punctuatedINtB1L_14PrivateIterMutBJ_NtNtBN_5token5CommaENtNtNtNtB5_4iter6traits12double_ended19DoubleEndedIterator9next_back0ECsfcpOYk5gj7s_10displaydoc, symObjAddr: 0x38C, symBinAddr: 0x109C8, symSize: 0xA8 }
  - { offset: 0x56B5B, size: 0x8, addend: 0x0, symName: __RINvMNtCsfvfooZQ3Axs_4core6optionINtB3_6OptionQTNtNtCs6IAuOt8vWmF_3syn8generics14WherePredicateNtNtBO_5token5CommaEE3mapQBK_NCNCNvXsG_NtBO_10punctuatedINtB28_14PrivateIterMutBK_B1v_ENtNtNtNtB5_4iter6traits12double_ended19DoubleEndedIterator9next_back00ECsfcpOYk5gj7s_10displaydoc, symObjAddr: 0x434, symBinAddr: 0x10A70, symSize: 0x50 }
  - { offset: 0x56BC6, size: 0x8, addend: 0x0, symName: __RINvMNtCsfvfooZQ3Axs_4core6optionINtB3_6OptionQTNtNtCs6IAuOt8vWmF_3syn8generics14WherePredicateNtNtBO_5token5CommaEE3mapQBK_NCNvXsF_NtBO_10punctuatedINtB26_14PrivateIterMutBK_B1v_ENtNtNtNtB5_4iter6traits8iterator8Iterator4next0ECsfcpOYk5gj7s_10displaydoc, symObjAddr: 0x484, symBinAddr: 0x10AC0, symSize: 0x50 }
  - { offset: 0x56C3E, size: 0x8, addend: 0x0, symName: __RINvMNtCsfvfooZQ3Axs_4core6optionINtB3_6OptionRNtNtCs6IAuOt8vWmF_3syn4data7VariantE7or_elseNCNvXsw_NtBN_10punctuatedINtB1z_11PrivateIterBJ_NtNtBN_5token5CommaENtNtNtNtB5_4iter6traits8iterator8Iterator4nexts_0ECsfcpOYk5gj7s_10displaydoc, symObjAddr: 0x4D4, symBinAddr: 0x10B10, symSize: 0xA8 }
  - { offset: 0x56CC7, size: 0x8, addend: 0x0, symName: __RINvMNtCsfvfooZQ3Axs_4core6optionINtB3_6OptionRNtNtCs6IAuOt8vWmF_3syn4data7VariantE7or_elseNCNvXsx_NtBN_10punctuatedINtB1z_11PrivateIterBJ_NtNtBN_5token5CommaENtNtNtNtB5_4iter6traits12double_ended19DoubleEndedIterator9next_back0ECsfcpOYk5gj7s_10displaydoc, symObjAddr: 0x57C, symBinAddr: 0x10BB8, symSize: 0xA8 }
  - { offset: 0x56D43, size: 0x8, addend: 0x0, symName: __RINvMNtCsfvfooZQ3Axs_4core6optionINtB3_6OptionRNtNtCs6IAuOt8vWmF_3syn8generics14WherePredicateE7or_elseNCNvXsw_NtBN_10punctuatedINtB1L_11PrivateIterBJ_NtNtBN_5token5CommaENtNtNtNtB5_4iter6traits8iterator8Iterator4nexts_0ECsfcpOYk5gj7s_10displaydoc, symObjAddr: 0x624, symBinAddr: 0x10C60, symSize: 0xA8 }
  - { offset: 0x56DBF, size: 0x8, addend: 0x0, symName: __RINvMNtCsfvfooZQ3Axs_4core6optionINtB3_6OptionRNtNtCs6IAuOt8vWmF_3syn8generics14WherePredicateE7or_elseNCNvXsx_NtBN_10punctuatedINtB1L_11PrivateIterBJ_NtNtBN_5token5CommaENtNtNtNtB5_4iter6traits12double_ended19DoubleEndedIterator9next_back0ECsfcpOYk5gj7s_10displaydoc, symObjAddr: 0x6CC, symBinAddr: 0x10D08, symSize: 0xA8 }
  - { offset: 0x56E21, size: 0x8, addend: 0x0, symName: __RINvMNtCsfvfooZQ3Axs_4core6optionINtB3_6OptionRTNtNtCs6IAuOt8vWmF_3syn4data7VariantNtNtBO_5token5CommaEE3mapRBK_NCNCNvXsx_NtBO_10punctuatedINtB1W_11PrivateIterBK_B1j_ENtNtNtNtB5_4iter6traits12double_ended19DoubleEndedIterator9next_back00ECsfcpOYk5gj7s_10displaydoc, symObjAddr: 0x774, symBinAddr: 0x10DB0, symSize: 0x50 }
  - { offset: 0x56E8C, size: 0x8, addend: 0x0, symName: __RINvMNtCsfvfooZQ3Axs_4core6optionINtB3_6OptionRTNtNtCs6IAuOt8vWmF_3syn4data7VariantNtNtBO_5token5CommaEE3mapRBK_NCNvXsw_NtBO_10punctuatedINtB1U_11PrivateIterBK_B1j_ENtNtNtNtB5_4iter6traits8iterator8Iterator4next0ECsfcpOYk5gj7s_10displaydoc, symObjAddr: 0x7C4, symBinAddr: 0x10E00, symSize: 0x50 }
  - { offset: 0x56EF7, size: 0x8, addend: 0x0, symName: __RINvMNtCsfvfooZQ3Axs_4core6optionINtB3_6OptionRTNtNtCs6IAuOt8vWmF_3syn8generics14WherePredicateNtNtBO_5token5CommaEE3mapRBK_NCNCNvXsx_NtBO_10punctuatedINtB28_11PrivateIterBK_B1v_ENtNtNtNtB5_4iter6traits12double_ended19DoubleEndedIterator9next_back00ECsfcpOYk5gj7s_10displaydoc, symObjAddr: 0x814, symBinAddr: 0x10E50, symSize: 0x50 }
  - { offset: 0x56F62, size: 0x8, addend: 0x0, symName: __RINvMNtCsfvfooZQ3Axs_4core6optionINtB3_6OptionRTNtNtCs6IAuOt8vWmF_3syn8generics14WherePredicateNtNtBO_5token5CommaEE3mapRBK_NCNvXsw_NtBO_10punctuatedINtB26_11PrivateIterBK_B1v_ENtNtNtNtB5_4iter6traits8iterator8Iterator4next0ECsfcpOYk5gj7s_10displaydoc, symObjAddr: 0x864, symBinAddr: 0x10EA0, symSize: 0x50 }
  - { offset: 0x57102, size: 0x8, addend: 0x0, symName: __RINvMs3_NtCsfvfooZQ3Axs_4core3fmtNtB6_9Arguments6new_v1Kj3_Kj2_ECsfcpOYk5gj7s_10displaydoc, symObjAddr: 0x8B4, symBinAddr: 0x10EF0, symSize: 0x54 }
  - { offset: 0x5717B, size: 0x8, addend: 0x0, symName: __RINvNtCs2cqEZUIJimJ_5quote9___private8get_spanNtCs3cP53eQoTwO_11proc_macro24SpanECsfcpOYk5gj7s_10displaydoc, symObjAddr: 0x960, symBinAddr: 0x10F9C, symSize: 0x20 }
  - { offset: 0x571B5, size: 0x8, addend: 0x0, symName: __RNvXs4_NtCs2cqEZUIJimJ_5quote9___privateINtB5_9RepInterpNtCs3cP53eQoTwO_11proc_macro25IdentENtNtB7_9to_tokens8ToTokens9to_tokensCsfcpOYk5gj7s_10displaydoc, symObjAddr: 0x31F0, symBinAddr: 0x13754, symSize: 0x3C }
  - { offset: 0x571F4, size: 0x8, addend: 0x0, symName: __RNvXs4_NtCs2cqEZUIJimJ_5quote9___privateINtB5_9RepInterpRINtNtCsfvfooZQ3Axs_4core6option6OptionNtCs3cP53eQoTwO_11proc_macro25IdentEENtNtB7_9to_tokens8ToTokens9to_tokensCsfcpOYk5gj7s_10displaydoc, symObjAddr: 0x322C, symBinAddr: 0x13790, symSize: 0x3C }
  - { offset: 0x57233, size: 0x8, addend: 0x0, symName: __RNvXs4_NtCs2cqEZUIJimJ_5quote9___privateINtB5_9RepInterpRNtCs3cP53eQoTwO_11proc_macro211TokenStreamENtNtB7_9to_tokens8ToTokens9to_tokensCsfcpOYk5gj7s_10displaydoc, symObjAddr: 0x3268, symBinAddr: 0x137CC, symSize: 0x3C }
  - { offset: 0x57278, size: 0x8, addend: 0x0, symName: __RNvXs6_NtCs2cqEZUIJimJ_5quote9___privateINtB5_20IdentFragmentAdapterRjENtNtCsfvfooZQ3Axs_4core3fmt7Display3fmtCsfcpOYk5gj7s_10displaydoc, symObjAddr: 0x32E0, symBinAddr: 0x13844, symSize: 0x3C }
  - { offset: 0x57384, size: 0x8, addend: 0x0, symName: __RNvXNtCs2cqEZUIJimJ_5quote14ident_fragmentRjNtB2_13IdentFragment3fmtCsfcpOYk5gj7s_10displaydoc, symObjAddr: 0x2CF4, symBinAddr: 0x13258, symSize: 0x40 }
  - { offset: 0x573C7, size: 0x8, addend: 0x0, symName: __RNvXNtCs2cqEZUIJimJ_5quote14ident_fragmentRjNtB2_13IdentFragment4spanCsfcpOYk5gj7s_10displaydoc, symObjAddr: 0x2D34, symBinAddr: 0x13298, symSize: 0x38 }
  - { offset: 0x57402, size: 0x8, addend: 0x0, symName: __RNvYjNtNtCs2cqEZUIJimJ_5quote14ident_fragment13IdentFragment4spanCsfcpOYk5gj7s_10displaydoc, symObjAddr: 0x40A8, symBinAddr: 0x1460C, symSize: 0x2C }
  - { offset: 0x57443, size: 0x8, addend: 0x0, symName: __RNvXNtCs2cqEZUIJimJ_5quote9to_tokensRINtNtCsfvfooZQ3Axs_4core6option6OptionNtCs3cP53eQoTwO_11proc_macro25IdentENtB2_8ToTokens9to_tokensCsfcpOYk5gj7s_10displaydoc, symObjAddr: 0x2D6C, symBinAddr: 0x132D0, symSize: 0x40 }
  - { offset: 0x57488, size: 0x8, addend: 0x0, symName: __RNvXs3_NtCs2cqEZUIJimJ_5quote9to_tokensINtNtCsfvfooZQ3Axs_4core6option6OptionNtCs3cP53eQoTwO_11proc_macro211TokenStreamENtB5_8ToTokens9to_tokensCsfcpOYk5gj7s_10displaydoc, symObjAddr: 0x3168, symBinAddr: 0x136CC, symSize: 0x88 }
  - { offset: 0x57539, size: 0x8, addend: 0x0, symName: __RINvMs_NtNtCsfvfooZQ3Axs_4core3fmt2rtNtB5_8Argument11new_displayINtNtCs2cqEZUIJimJ_5quote9___private20IdentFragmentAdapterRjEECsfcpOYk5gj7s_10displaydoc, symObjAddr: 0x908, symBinAddr: 0x10F44, symSize: 0x2C }
  - { offset: 0x575D3, size: 0x8, addend: 0x0, symName: __RINvMs_NtNtCsfvfooZQ3Axs_4core3fmt2rtNtB5_8Argument11new_displayNtNtNtCs6IAuOt8vWmF_3syn4attr7parsing16DisplayAttrStyleECsfcpOYk5gj7s_10displaydoc, symObjAddr: 0x934, symBinAddr: 0x10F70, symSize: 0x2C }
  - { offset: 0x579A8, size: 0x8, addend: 0x0, symName: __RNvMNtCse1nGBsou5OW_5alloc5allocNtB2_6Global10alloc_implCsfcpOYk5gj7s_10displaydoc, symObjAddr: 0x23BC, symBinAddr: 0x12924, symSize: 0x194 }
  - { offset: 0x57CE0, size: 0x8, addend: 0x0, symName: __RNvMNtCsfvfooZQ3Axs_4core6optionINtB2_6OptionINtNtB4_4cell4CellTyyEEE4takeCsfcpOYk5gj7s_10displaydoc, symObjAddr: 0x2578, symBinAddr: 0x12AE0, symSize: 0x3C }
  - { offset: 0x57D73, size: 0x8, addend: 0x0, symName: __RNvMNtCsfvfooZQ3Axs_4core6optionINtB2_6OptionINtNtCse1nGBsou5OW_5alloc5boxed3BoxNtNtCs6IAuOt8vWmF_3syn8generics14WherePredicateEE6as_mutCsfcpOYk5gj7s_10displaydoc, symObjAddr: 0x25B4, symBinAddr: 0x12B1C, symSize: 0x4C }
  - { offset: 0x57DBD, size: 0x8, addend: 0x0, symName: __RNvMNtCsfvfooZQ3Axs_4core6optionINtB2_6OptionNtCs3cP53eQoTwO_11proc_macro24SpanE2orCsfcpOYk5gj7s_10displaydoc, symObjAddr: 0x2600, symBinAddr: 0x12B68, symSize: 0x80 }
  - { offset: 0x57E23, size: 0x8, addend: 0x0, symName: __RNvMNtCsfvfooZQ3Axs_4core6optionINtB2_6OptionNtNtCsfcpOYk5gj7s_10displaydoc4attr14VariantDisplayE7is_someBL_, symObjAddr: 0x2680, symBinAddr: 0x12BE8, symSize: 0x2C }
  - { offset: 0x57E4F, size: 0x8, addend: 0x0, symName: __RNvMNtCsfvfooZQ3Axs_4core6optionINtB2_6OptionNtNtCsfcpOYk5gj7s_10displaydoc4attr7DisplayE6expectBL_, symObjAddr: 0x26AC, symBinAddr: 0x12C14, symSize: 0x70 }
  - { offset: 0x57E8B, size: 0x8, addend: 0x0, symName: __RNvMs0_NtCsfvfooZQ3Axs_4core6optionINtB5_6OptionRNtNtCs6IAuOt8vWmF_3syn8generics11WhereClauseE6clonedCsfcpOYk5gj7s_10displaydoc, symObjAddr: 0x271C, symBinAddr: 0x12C84, symSize: 0x70 }
  - { offset: 0x57ED5, size: 0x8, addend: 0x0, symName: __RNvMs5_NtCs2cqEZUIJimJ_5quote9___privateINtB5_20IdentFragmentAdapterRjE4spanCsfcpOYk5gj7s_10displaydoc, symObjAddr: 0x278C, symBinAddr: 0x12CF4, symSize: 0x34 }
  - { offset: 0x590A1, size: 0x8, addend: 0x0, symName: __RINvMNtCsfvfooZQ3Axs_4core3stre12trim_matchesNCNvB2_4trim0ECsfcpOYk5gj7s_10displaydoc, symObjAddr: 0x0, symBinAddr: 0x14638, symSize: 0x128 }
  - { offset: 0x590C3, size: 0x8, addend: 0x0, symName: ___rustc_proc_macro_decls_b10c0189eef2076c__, symObjAddr: 0x3068, symBinAddr: 0x2108B0, symSize: 0x0 }
  - { offset: 0x591ED, size: 0x8, addend: 0x0, symName: __RNvCsfcpOYk5gj7s_10displaydoc12derive_error, symObjAddr: 0x2B74, symBinAddr: 0x16F48, symSize: 0x198 }
  - { offset: 0x59267, size: 0x8, addend: 0x0, symName: __RNCNvCsfcpOYk5gj7s_10displaydoc12derive_error0B3_, symObjAddr: 0x2D0C, symBinAddr: 0x170E0, symSize: 0x64 }
  - { offset: 0x5991F, size: 0x8, addend: 0x0, symName: __RNvXs1f_Cs9i5KxIbZ5ph_10proc_macroNtB6_5IdentNtNtCsfvfooZQ3Axs_4core5clone5Clone5cloneCsfcpOYk5gj7s_10displaydoc, symObjAddr: 0x212C, symBinAddr: 0x16500, symSize: 0x40 }
  - { offset: 0x59953, size: 0x8, addend: 0x0, symName: __RNvXsU_Cs9i5KxIbZ5ph_10proc_macroNtB5_11TokenStreamNtNtCsfvfooZQ3Axs_4core5clone5Clone5cloneCsfcpOYk5gj7s_10displaydoc, symObjAddr: 0x2758, symBinAddr: 0x16B2C, symSize: 0x64 }
  - { offset: 0x5CD6E, size: 0x8, addend: 0x0, symName: __RNvNvMNtNtCsfvfooZQ3Axs_4core3ptr9const_ptrPp7sub_ptr18precondition_checkCsfcpOYk5gj7s_10displaydoc, symObjAddr: 0x1924, symBinAddr: 0x15CF8, symSize: 0x40 }
  - { offset: 0x5D3BB, size: 0x8, addend: 0x0, symName: __RINvMNtCsfvfooZQ3Axs_4core3stre12trim_matchesNCNvB2_4trim0ECsfcpOYk5gj7s_10displaydoc, symObjAddr: 0x0, symBinAddr: 0x14638, symSize: 0x128 }
  - { offset: 0x5D5A8, size: 0x8, addend: 0x0, symName: __RINvMNtCsfvfooZQ3Axs_4core3stre18trim_start_matchescECsfcpOYk5gj7s_10displaydoc, symObjAddr: 0x128, symBinAddr: 0x14760, symSize: 0xEC }
  - { offset: 0x5D73D, size: 0x8, addend: 0x0, symName: __RNCNvMNtCsfvfooZQ3Axs_4core3stre4trim0CsfcpOYk5gj7s_10displaydoc, symObjAddr: 0xF40, symBinAddr: 0x15314, symSize: 0x94 }
  - { offset: 0x5D7AA, size: 0x8, addend: 0x0, symName: __RNvMNtCsfvfooZQ3Axs_4core3stre12char_indicesCsfcpOYk5gj7s_10displaydoc, symObjAddr: 0x10C0, symBinAddr: 0x15494, symSize: 0x3C }
  - { offset: 0x5D7D8, size: 0x8, addend: 0x0, symName: __RNvMNtCsfvfooZQ3Axs_4core3stre4trimCsfcpOYk5gj7s_10displaydoc, symObjAddr: 0x10FC, symBinAddr: 0x154D0, symSize: 0x28 }
  - { offset: 0x5D806, size: 0x8, addend: 0x0, symName: __RNvMNtCsfvfooZQ3Axs_4core3stre5charsCsfcpOYk5gj7s_10displaydoc, symObjAddr: 0x1124, symBinAddr: 0x154F8, symSize: 0x20 }
  - { offset: 0x5D8A8, size: 0x8, addend: 0x0, symName: __RNvMNtCsfvfooZQ3Axs_4core3stre5linesCsfcpOYk5gj7s_10displaydoc, symObjAddr: 0x1144, symBinAddr: 0x15518, symSize: 0xC4 }
  - { offset: 0x5DAB6, size: 0x8, addend: 0x0, symName: __RNvXs3_NtNtCsfvfooZQ3Axs_4core3str7patternNCNvMB7_e4trim0NtB5_11MultiCharEq7matchesCsfcpOYk5gj7s_10displaydoc, symObjAddr: 0x24E8, symBinAddr: 0x168BC, symSize: 0x28 }
  - { offset: 0x5DB02, size: 0x8, addend: 0x0, symName: __RNvXsr_NtNtCsfvfooZQ3Axs_4core3str7patternNCNvMB7_e4trim0NtB5_7Pattern13into_searcherCsfcpOYk5gj7s_10displaydoc, symObjAddr: 0x2998, symBinAddr: 0x16D6C, symSize: 0x48 }
  - { offset: 0x5DBAB, size: 0x8, addend: 0x0, symName: __RNvXs3_NtCsfvfooZQ3Axs_4core3strNtB5_8LinesMapINtNtNtB7_3ops8function2FnTReEE4callCsfcpOYk5gj7s_10displaydoc, symObjAddr: 0x2204, symBinAddr: 0x165D8, symSize: 0x17C }
  - { offset: 0x5DCD6, size: 0x8, addend: 0x0, symName: __RNvXs4_NtCsfvfooZQ3Axs_4core3strNtB5_8LinesMapINtNtNtB7_3ops8function5FnMutTReEE8call_mutCsfcpOYk5gj7s_10displaydoc, symObjAddr: 0x2510, symBinAddr: 0x168E4, symSize: 0x3C }
  - { offset: 0x5E0A6, size: 0x8, addend: 0x0, symName: __RNvXs2_NtNtNtCsfvfooZQ3Axs_4core3ops8function5implsQNtNtBb_3str8LinesMapINtB7_6FnOnceTReEE9call_onceCsfcpOYk5gj7s_10displaydoc, symObjAddr: 0x21D0, symBinAddr: 0x165A4, symSize: 0x34 }
  - { offset: 0x5E409, size: 0x8, addend: 0x0, symName: __RNCINvNtNtNtCsfvfooZQ3Axs_4core4iter8adapters3map12map_try_foldRNtNtCs6IAuOt8vWmF_3syn4data7VariantINtNtBa_6result6ResultINtNtBa_6option6OptionNtNtCsfcpOYk5gj7s_10displaydoc4attr14VariantDisplayENtNtB14_5error5ErrorEuINtNtNtBa_3ops12control_flow11ControlFlowIB3u_B1V_EENCNvNtB2l_6expand9impl_enum0NCINvXB6_INtB6_12GenericShuntINtB4_3MapINtNtB14_10punctuated4IterB10_EB4j_EIB1A_NtNtBa_7convert10InfallibleB37_EENtNtNtB8_6traits8iterator8Iterator8try_folduNCINvNvB6A_12try_for_each4callB1V_B48_NcNtB48_5Break0E0B48_E0E0B2l_, symObjAddr: 0xC1C, symBinAddr: 0x14FF0, symSize: 0xA8 }
  - { offset: 0x5E49B, size: 0x8, addend: 0x0, symName: __RNCINvNtNtNtCsfvfooZQ3Axs_4core4iter8adapters3map12map_try_foldTRNtNtCs6IAuOt8vWmF_3syn4data7VariantINtNtBa_6option6OptionNtNtCsfcpOYk5gj7s_10displaydoc4attr14VariantDisplayEEINtNtBa_6result6ResultNtCs3cP53eQoTwO_11proc_macro211TokenStreamNtNtB15_5error5ErrorEuINtNtNtBa_3ops12control_flow11ControlFlowIB4c_B39_EENCNvNtB20_6expand9impl_enums_0NCINvXB6_INtB6_12GenericShuntINtB4_3MapINtNtB6_3zip3ZipINtNtB15_10punctuated4IterB11_EINtNtNtCse1nGBsou5OW_5alloc3vec9into_iter8IntoIterB1A_EEB51_EIB2O_NtNtBa_7convert10InfallibleB3P_EENtNtNtB8_6traits8iterator8Iterator8try_folduNCINvNvB8u_12try_for_each4callB39_B4Q_NcNtB4Q_5Break0E0B4Q_E0E0B20_, symObjAddr: 0xCC4, symBinAddr: 0x15098, symSize: 0xB0 }
  - { offset: 0x5E534, size: 0x8, addend: 0x0, symName: __RINvXs0_NtNtNtCsfvfooZQ3Axs_4core4iter8adapters3mapINtB6_3MapINtNtB8_3zip3ZipINtNtCs6IAuOt8vWmF_3syn10punctuated4IterNtNtB1i_4data7VariantEINtNtNtCse1nGBsou5OW_5alloc3vec9into_iter8IntoIterINtNtBc_6option6OptionNtNtCsfcpOYk5gj7s_10displaydoc4attr14VariantDisplayEEENCNvNtB3r_6expand9impl_enums_0ENtNtNtBa_6traits8iterator8Iterator8try_folduNCINvXB8_INtB8_12GenericShuntBN_INtNtBc_6result6ResultNtNtBc_7convert10InfallibleNtNtB1i_5error5ErrorEEB4K_8try_folduNCINvNvB4K_12try_for_each4callNtCs3cP53eQoTwO_11proc_macro211TokenStreamINtNtNtBc_3ops12control_flow11ControlFlowB7P_ENcNtB8v_5Break0E0B8v_E0IB8w_B8v_EEB3r_, symObjAddr: 0x54C, symBinAddr: 0x14920, symSize: 0x54 }
  - { offset: 0x5E5D7, size: 0x8, addend: 0x0, symName: __RINvXs0_NtNtNtCsfvfooZQ3Axs_4core4iter8adapters3mapINtB6_3MapINtNtCs6IAuOt8vWmF_3syn10punctuated4IterNtNtB12_4data7VariantENCNvNtCsfcpOYk5gj7s_10displaydoc6expand9impl_enum0ENtNtNtBa_6traits8iterator8Iterator8try_folduNCINvXB8_INtB8_12GenericShuntBN_INtNtBc_6result6ResultNtNtBc_7convert10InfallibleNtNtB12_5error5ErrorEEB2M_8try_folduNCINvNvB2M_12try_for_each4callINtNtBc_6option6OptionNtNtB23_4attr14VariantDisplayEINtNtNtBc_3ops12control_flow11ControlFlowB5R_ENcNtB6H_5Break0E0B6H_E0IB6I_B6H_EEB23_, symObjAddr: 0x5A0, symBinAddr: 0x14974, symSize: 0x54 }
  - { offset: 0x5E67A, size: 0x8, addend: 0x0, symName: __RINvXs0_NtNtNtCsfvfooZQ3Axs_4core4iter8adapters3mapINtB6_3MapINtNtNtBc_5slice4iter4IterRNtNtCs6IAuOt8vWmF_3syn8generics9TypeParamENCNvNtCsfcpOYk5gj7s_10displaydoc6expand37extract_trait_constraints_from_source0ENtNtNtBa_6traits8iterator8Iterator4folduNCINvNvB3m_8for_each4callTNtCs3cP53eQoTwO_11proc_macro25IdentINtNtCse1nGBsou5OW_5alloc3vec3VecNtB1q_10TraitBoundEENCINvXs1i_NtCsloNvcHxBCre_9hashbrown3mapINtB60_7HashMapB4q_B4Z_NtNtNtCscOYdFFY2T5N_3std4hash6random11RandomStateEINtNtB3q_7collect6ExtendB4p_E6extendBN_E0E0EB2a_, symObjAddr: 0x5F4, symBinAddr: 0x149C8, symSize: 0x34 }
  - { offset: 0x5E6EB, size: 0x8, addend: 0x0, symName: __RNvXs0_NtNtNtCsfvfooZQ3Axs_4core4iter8adapters3mapINtB5_3MapINtNtB7_3zip3ZipINtNtCs6IAuOt8vWmF_3syn10punctuated4IterNtNtB1h_4data7VariantEINtNtNtCse1nGBsou5OW_5alloc3vec9into_iter8IntoIterINtNtBb_6option6OptionNtNtCsfcpOYk5gj7s_10displaydoc4attr14VariantDisplayEEENCNvNtB3q_6expand9impl_enums_0ENtNtNtB9_6traits8iterator8Iterator9size_hintB3q_, symObjAddr: 0x1C68, symBinAddr: 0x1603C, symSize: 0x24 }
  - { offset: 0x5E732, size: 0x8, addend: 0x0, symName: __RNvXs0_NtNtNtCsfvfooZQ3Axs_4core4iter8adapters3mapINtB5_3MapINtNtCs6IAuOt8vWmF_3syn10punctuated4IterNtNtB11_4data5FieldENCNCNvNtCsfcpOYk5gj7s_10displaydoc6expand11impl_struct00ENtNtNtB9_6traits8iterator8Iterator4nextB22_, symObjAddr: 0x1C8C, symBinAddr: 0x16060, symSize: 0x74 }
  - { offset: 0x5E7AC, size: 0x8, addend: 0x0, symName: __RNvXs0_NtNtNtCsfvfooZQ3Axs_4core4iter8adapters3mapINtB5_3MapINtNtCs6IAuOt8vWmF_3syn10punctuated4IterNtNtB11_4data5FieldENCNCNvNtCsfcpOYk5gj7s_10displaydoc6expand9impl_enums_0s_0ENtNtNtB9_6traits8iterator8Iterator4nextB22_, symObjAddr: 0x1D00, symBinAddr: 0x160D4, symSize: 0x74 }
  - { offset: 0x5E826, size: 0x8, addend: 0x0, symName: __RNvXs0_NtNtNtCsfvfooZQ3Axs_4core4iter8adapters3mapINtB5_3MapINtNtCs6IAuOt8vWmF_3syn10punctuated4IterNtNtB11_4data7VariantENCNvNtCsfcpOYk5gj7s_10displaydoc6expand9impl_enum0ENtNtNtB9_6traits8iterator8Iterator9size_hintB22_, symObjAddr: 0x1D74, symBinAddr: 0x16148, symSize: 0x24 }
  - { offset: 0x5E86D, size: 0x8, addend: 0x0, symName: __RNvXs0_NtNtNtCsfvfooZQ3Axs_4core4iter8adapters3mapINtB5_3MapINtNtCs6IAuOt8vWmF_3syn10punctuated4IterNtNtB11_8generics14TypeParamBoundENCNCNvNtCsfcpOYk5gj7s_10displaydoc6expand37extract_trait_constraints_from_source00ENtNtNtB9_6traits8iterator8Iterator4nextB2g_, symObjAddr: 0x1D98, symBinAddr: 0x1616C, symSize: 0x80 }
  - { offset: 0x5E8E7, size: 0x8, addend: 0x0, symName: __RNvXs0_NtNtNtCsfvfooZQ3Axs_4core4iter8adapters3mapINtB5_3MapINtNtCs6IAuOt8vWmF_3syn10punctuated4IterNtNtB11_8generics14TypeParamBoundENCNCNvNtCsfcpOYk5gj7s_10displaydoc6expand37extract_trait_constraints_from_source00ENtNtNtB9_6traits8iterator8Iterator9size_hintB2g_, symObjAddr: 0x1E18, symBinAddr: 0x161EC, symSize: 0x24 }
  - { offset: 0x5E92E, size: 0x8, addend: 0x0, symName: __RNvXs0_NtNtNtCsfvfooZQ3Axs_4core4iter8adapters3mapINtB5_3MapINtNtCs6IAuOt8vWmF_3syn10punctuated7IterMutNtNtB11_8generics14WherePredicateENCNvNtCsfcpOYk5gj7s_10displaydoc6expand39ensure_display_in_where_clause_for_type0ENtNtNtB9_6traits8iterator8Iterator4nextB2h_, symObjAddr: 0x1E3C, symBinAddr: 0x16210, symSize: 0x80 }
  - { offset: 0x5E9A8, size: 0x8, addend: 0x0, symName: __RNvXs0_NtNtNtCsfvfooZQ3Axs_4core4iter8adapters3mapINtB5_3MapINtNtNtBb_3ops5range5RangejENCNCNvNtCsfcpOYk5gj7s_10displaydoc6expand11impl_struct0s_0ENtNtNtB9_6traits8iterator8Iterator4nextB1w_, symObjAddr: 0x1EBC, symBinAddr: 0x16290, symSize: 0x8C }
  - { offset: 0x5EA22, size: 0x8, addend: 0x0, symName: __RNvXs0_NtNtNtCsfvfooZQ3Axs_4core4iter8adapters3mapINtB5_3MapINtNtNtBb_3ops5range5RangejENCNCNvNtCsfcpOYk5gj7s_10displaydoc6expand9impl_enums_0s0_0ENtNtNtB9_6traits8iterator8Iterator4nextB1w_, symObjAddr: 0x1F48, symBinAddr: 0x1631C, symSize: 0x8C }
  - { offset: 0x5EA9C, size: 0x8, addend: 0x0, symName: __RNvXs0_NtNtNtCsfvfooZQ3Axs_4core4iter8adapters3mapINtB5_3MapINtNtNtBb_3str4iter14SplitInclusivecENtB11_8LinesMapENtNtNtB9_6traits8iterator8Iterator4nextCsfcpOYk5gj7s_10displaydoc, symObjAddr: 0x1FD4, symBinAddr: 0x163A8, symSize: 0x88 }
  - { offset: 0x5EB16, size: 0x8, addend: 0x0, symName: __RNvXs0_NtNtNtCsfvfooZQ3Axs_4core4iter8adapters3mapINtB5_3MapINtNtNtBb_5slice4iter4IterRNtNtCs6IAuOt8vWmF_3syn8generics9TypeParamENCNvNtCsfcpOYk5gj7s_10displaydoc6expand37extract_trait_constraints_from_source0ENtNtNtB9_6traits8iterator8Iterator9size_hintB29_, symObjAddr: 0x205C, symBinAddr: 0x16430, symSize: 0x24 }
  - { offset: 0x5EB5D, size: 0x8, addend: 0x0, symName: __RNvXs0_NtNtNtCsfvfooZQ3Axs_4core4iter8adapters3mapINtB5_3MapNtNtNtBb_3str4iter5LinesNCNvMs0_NtCsfcpOYk5gj7s_10displaydoc4attrNtB1s_11AttrsHelper7displays0_0ENtNtNtB9_6traits8iterator8Iterator4nextB1u_, symObjAddr: 0x2080, symBinAddr: 0x16454, symSize: 0x88 }
  - { offset: 0x5EBD7, size: 0x8, addend: 0x0, symName: __RNvXs0_NtNtNtCsfvfooZQ3Axs_4core4iter8adapters3mapINtB5_3MapNtNtNtBb_3str4iter5LinesNCNvMs0_NtCsfcpOYk5gj7s_10displaydoc4attrNtB1s_11AttrsHelper7displays0_0ENtNtNtB9_6traits8iterator8Iterator9size_hintB1u_, symObjAddr: 0x2108, symBinAddr: 0x164DC, symSize: 0x24 }
  - { offset: 0x5ECB4, size: 0x8, addend: 0x0, symName: __RNCINvNtNtNtCsfvfooZQ3Axs_4core4iter8adapters3map8map_foldRNtNtCs6IAuOt8vWmF_3syn4attr9AttributejjNCINvNvXs1_NtB6_6filterINtB1J_6FilterppENtNtNtB8_6traits8iterator8Iterator5count8to_usizeBU_NCNvMs0_NtCsfcpOYk5gj7s_10displaydoc4attrNtB3a_11AttrsHelper7displays_0E0NCINvXsK_NtB2g_5accumjNtB4m_3Sum3sumINtB4_3MapINtNtNtBa_5slice4iter4IterBV_EB1y_EE0E0B3c_, symObjAddr: 0xD74, symBinAddr: 0x15148, symSize: 0x98 }
  - { offset: 0x5ED3B, size: 0x8, addend: 0x0, symName: __RNCINvNtNtNtCsfvfooZQ3Axs_4core4iter8adapters3map8map_foldRRNtNtCs6IAuOt8vWmF_3syn8generics9TypeParamTNtCs3cP53eQoTwO_11proc_macro25IdentINtNtCse1nGBsou5OW_5alloc3vec3VecNtBY_10TraitBoundEEuNCNvNtCsfcpOYk5gj7s_10displaydoc6expand37extract_trait_constraints_from_source0NCINvNvNtNtNtB8_6traits8iterator8Iterator8for_each4callB1B_NCINvXs1i_NtCsloNvcHxBCre_9hashbrown3mapINtB5q_7HashMapB1C_B2b_NtNtNtCscOYdFFY2T5N_3std4hash6random11RandomStateEINtNtB4u_7collect6ExtendB1B_E6extendINtB4_3MapINtNtNtBa_5slice4iter4IterBV_EB32_EE0E0E0B38_, symObjAddr: 0xE0C, symBinAddr: 0x151E0, symSize: 0x94 }
  - { offset: 0x5F15D, size: 0x8, addend: 0x0, symName: __RINvYINtNtNtNtCscOYdFFY2T5N_3std11collections4hash3map7IterMutNtCs3cP53eQoTwO_11proc_macro25IdentINtNtCse1nGBsou5OW_5alloc3vec3VecNtNtCs6IAuOt8vWmF_3syn8generics10TraitBoundEENtNtNtNtCsfvfooZQ3Axs_4core4iter6traits8iterator8Iterator4findNCNvNtCsfcpOYk5gj7s_10displaydoc6expand37extract_trait_constraints_from_sources_0EB3T_, symObjAddr: 0x860, symBinAddr: 0x14C34, symSize: 0x90 }
  - { offset: 0x5F1D8, size: 0x8, addend: 0x0, symName: __RINvYINtNtNtNtCscOYdFFY2T5N_3std11collections4hash3map7IterMutNtCs3cP53eQoTwO_11proc_macro25IdentINtNtCse1nGBsou5OW_5alloc3vec3VecNtNtCs6IAuOt8vWmF_3syn8generics10TraitBoundEENtNtNtNtCsfvfooZQ3Axs_4core4iter6traits8iterator8Iterator8try_folduNCINvNvB2N_4find5checkTRBY_QB1x_ENCNvNtCsfcpOYk5gj7s_10displaydoc6expand37extract_trait_constraints_from_sources_0E0INtNtNtB2V_3ops12control_flow11ControlFlowB4e_EEB4v_, symObjAddr: 0x8F0, symBinAddr: 0x14CC4, symSize: 0x198 }
  - { offset: 0x5F296, size: 0x8, addend: 0x0, symName: __RINvYINtNtNtNtCsfvfooZQ3Axs_4core4iter8adapters3map3MapINtNtB8_3zip3ZipINtNtCs6IAuOt8vWmF_3syn10punctuated4IterNtNtB1c_4data7VariantEINtNtNtCse1nGBsou5OW_5alloc3vec9into_iter8IntoIterINtNtBc_6option6OptionNtNtCsfcpOYk5gj7s_10displaydoc4attr14VariantDisplayEEENCNvNtB3l_6expand9impl_enums_0ENtNtNtBa_6traits8iterator8Iterator7collectINtNtBc_6result6ResultINtB2c_3VecNtCs3cP53eQoTwO_11proc_macro211TokenStreamENtNtB1c_5error5ErrorEEB3l_, symObjAddr: 0xA88, symBinAddr: 0x14E5C, symSize: 0x14 }
  - { offset: 0x5F2D7, size: 0x8, addend: 0x0, symName: __RINvYINtNtNtNtCsfvfooZQ3Axs_4core4iter8adapters3map3MapINtNtCs6IAuOt8vWmF_3syn10punctuated4IterNtNtBW_4data7VariantENCNvNtCsfcpOYk5gj7s_10displaydoc6expand9impl_enum0ENtNtNtBa_6traits8iterator8Iterator7collectINtNtBc_6result6ResultINtNtCse1nGBsou5OW_5alloc3vec3VecINtNtBc_6option6OptionNtNtB1W_4attr14VariantDisplayEENtNtBW_5error5ErrorEEB1W_, symObjAddr: 0xA9C, symBinAddr: 0x14E70, symSize: 0x14 }
  - { offset: 0x5F318, size: 0x8, addend: 0x0, symName: __RINvYINtNtNtNtCsfvfooZQ3Axs_4core4iter8adapters3map3MapINtNtNtBc_5slice4iter4IterRNtNtCs6IAuOt8vWmF_3syn8generics9TypeParamENCNvNtCsfcpOYk5gj7s_10displaydoc6expand37extract_trait_constraints_from_source0ENtNtNtBa_6traits8iterator8Iterator7collectINtNtNtNtCscOYdFFY2T5N_3std11collections4hash3map7HashMapNtCs3cP53eQoTwO_11proc_macro25IdentINtNtCse1nGBsou5OW_5alloc3vec3VecNtB1k_10TraitBoundEEEB24_, symObjAddr: 0xAB0, symBinAddr: 0x14E84, symSize: 0x2C }
  - { offset: 0x5F358, size: 0x8, addend: 0x0, symName: __RINvYINtNtNtNtCsfvfooZQ3Axs_4core4iter8adapters3map3MapINtNtNtBc_5slice4iter4IterRNtNtCs6IAuOt8vWmF_3syn8generics9TypeParamENCNvNtCsfcpOYk5gj7s_10displaydoc6expand37extract_trait_constraints_from_source0ENtNtNtBa_6traits8iterator8Iterator8for_eachNCINvXs1i_NtCsloNvcHxBCre_9hashbrown3mapINtB47_7HashMapNtCs3cP53eQoTwO_11proc_macro25IdentINtNtCse1nGBsou5OW_5alloc3vec3VecNtB1k_10TraitBoundENtNtNtCscOYdFFY2T5N_3std4hash6random11RandomStateEINtNtB3k_7collect6ExtendTB4Q_B5p_EE6extendB3_E0EB24_, symObjAddr: 0xADC, symBinAddr: 0x14EB0, symSize: 0x34 }
  - { offset: 0x5F3A3, size: 0x8, addend: 0x0, symName: __RINvYINtNtNtNtCsfvfooZQ3Axs_4core4iter8adapters3map3MapNtNtNtBc_3str4iter5LinesNCNvMs0_NtCsfcpOYk5gj7s_10displaydoc4attrNtB1n_11AttrsHelper7displays0_0ENtNtNtBa_6traits8iterator8Iterator7collectINtNtCse1nGBsou5OW_5alloc3vec3VecReEEB1p_, symObjAddr: 0xB10, symBinAddr: 0x14EE4, symSize: 0x1C }
  - { offset: 0x5F474, size: 0x8, addend: 0x0, symName: __RNvXNtNtNtCsfvfooZQ3Axs_4core4iter6traits7collectINtNtNtB6_8adapters3map3MapINtNtBQ_3zip3ZipINtNtCs6IAuOt8vWmF_3syn10punctuated4IterNtNtB1x_4data7VariantEINtNtNtCse1nGBsou5OW_5alloc3vec9into_iter8IntoIterINtNtB8_6option6OptionNtNtCsfcpOYk5gj7s_10displaydoc4attr14VariantDisplayEEENCNvNtB3G_6expand9impl_enums_0ENtB2_12IntoIterator9into_iterB3G_, symObjAddr: 0x1A78, symBinAddr: 0x15E4C, symSize: 0x30 }
  - { offset: 0x5F4AC, size: 0x8, addend: 0x0, symName: __RNvXNtNtNtCsfvfooZQ3Axs_4core4iter6traits7collectINtNtNtB6_8adapters3map3MapINtNtCs6IAuOt8vWmF_3syn10punctuated4IterNtNtB1h_4data7VariantENCNvNtCsfcpOYk5gj7s_10displaydoc6expand9impl_enum0ENtB2_12IntoIterator9into_iterB2i_, symObjAddr: 0x1AA8, symBinAddr: 0x15E7C, symSize: 0x14 }
  - { offset: 0x5F4E3, size: 0x8, addend: 0x0, symName: __RNvXNtNtNtCsfvfooZQ3Axs_4core4iter6traits7collectINtNtNtB6_8adapters3map3MapINtNtNtB8_5slice4iter4IterRNtNtCs6IAuOt8vWmF_3syn8generics9TypeParamENCNvNtCsfcpOYk5gj7s_10displaydoc6expand37extract_trait_constraints_from_source0ENtB2_12IntoIterator9into_iterB2p_, symObjAddr: 0x1ABC, symBinAddr: 0x15E90, symSize: 0x1C }
  - { offset: 0x5F51A, size: 0x8, addend: 0x0, symName: __RNvXNtNtNtCsfvfooZQ3Axs_4core4iter6traits7collectINtNtNtB6_8adapters3map3MapNtNtNtB8_3str4iter5LinesNCNvMs0_NtCsfcpOYk5gj7s_10displaydoc4attrNtB1I_11AttrsHelper7displays0_0ENtB2_12IntoIterator9into_iterB1K_, symObjAddr: 0x1AD8, symBinAddr: 0x15EAC, symSize: 0x30 }
  - { offset: 0x5F552, size: 0x8, addend: 0x0, symName: __RNvXNtNtNtCsfvfooZQ3Axs_4core4iter6traits7collectINtNtNtNtCscOYdFFY2T5N_3std11collections4hash3map8IntoIterNtCs3cP53eQoTwO_11proc_macro25IdentINtNtCse1nGBsou5OW_5alloc3vec3VecNtNtCs6IAuOt8vWmF_3syn8generics10TraitBoundEENtB2_12IntoIterator9into_iterCsfcpOYk5gj7s_10displaydoc, symObjAddr: 0x1B08, symBinAddr: 0x15EDC, symSize: 0x30 }
  - { offset: 0x5F5C1, size: 0x8, addend: 0x0, symName: __RNvYINtNtNtCse1nGBsou5OW_5alloc3vec9into_iter8IntoIterINtNtCsfvfooZQ3Axs_4core6option6OptionNtNtCsfcpOYk5gj7s_10displaydoc4attr14VariantDisplayEENtNtNtNtBV_4iter6traits10exact_size17ExactSizeIterator3lenB1w_, symObjAddr: 0x29E0, symBinAddr: 0x16DB4, symSize: 0xF4 }
  - { offset: 0x5FC2A, size: 0x8, addend: 0x0, symName: __RNvNvXs0_NtNtCsfvfooZQ3Axs_4core5slice5indexjINtB7_10SliceIndexSpE13get_unchecked18precondition_checkCsfcpOYk5gj7s_10displaydoc, symObjAddr: 0x19D8, symBinAddr: 0x15DAC, symSize: 0x40 }
  - { offset: 0x5FC6C, size: 0x8, addend: 0x0, symName: __RNvNvXs2_NtNtCsfvfooZQ3Axs_4core5slice5indexINtNtNtBb_3ops5range5RangejEINtB7_10SliceIndexSpE13get_unchecked18precondition_checkCsfcpOYk5gj7s_10displaydoc, symObjAddr: 0x1A18, symBinAddr: 0x15DEC, symSize: 0x60 }
  - { offset: 0x5FCBE, size: 0x8, addend: 0x0, symName: __RINvYNtNtNtCscOYdFFY2T5N_3std4hash6random11RandomStateNtNtCsfvfooZQ3Axs_4core4hash11BuildHasher8hash_oneRNtCs3cP53eQoTwO_11proc_macro25IdentECsfcpOYk5gj7s_10displaydoc, symObjAddr: 0xB2C, symBinAddr: 0x14F00, symSize: 0x84 }
  - { offset: 0x5FF23, size: 0x8, addend: 0x0, symName: __RNvNtNtCsfvfooZQ3Axs_4core4char7methods15encode_utf8_rawCsfcpOYk5gj7s_10displaydoc, symObjAddr: 0x16FC, symBinAddr: 0x15AD0, symSize: 0x228 }
  - { offset: 0x600E9, size: 0x8, addend: 0x0, symName: __RNvNvMNtNtCsfvfooZQ3Axs_4core5alloc6layoutNtB4_6Layout25from_size_align_unchecked18precondition_checkCsfcpOYk5gj7s_10displaydoc, symObjAddr: 0x1964, symBinAddr: 0x15D38, symSize: 0x50 }
  - { offset: 0x60A4D, size: 0x8, addend: 0x0, symName: __RINvXNtNtNtNtCscOYdFFY2T5N_3std3sys12thread_local6native4lazyzNtB3_14DestroyedState13register_dtorINtNtCsfvfooZQ3Axs_4core4cell4CellTyyEEECsfcpOYk5gj7s_10displaydoc, symObjAddr: 0x53C, symBinAddr: 0x14910, symSize: 0x10 }
  - { offset: 0x60AE8, size: 0x8, addend: 0x0, symName: __RNCNkNvNvMNtNtCscOYdFFY2T5N_3std4hash6randomNtB8_11RandomState3new4KEYS0s_0CsfcpOYk5gj7s_10displaydoc, symObjAddr: 0xF04, symBinAddr: 0x152D8, symSize: 0x3C }
  - { offset: 0x60B26, size: 0x8, addend: 0x0, symName: __RNvNvNvMNtNtCscOYdFFY2T5N_3std4hash6randomNtB6_11RandomState3new4KEYS6___initCsfcpOYk5gj7s_10displaydoc, symObjAddr: 0x19B4, symBinAddr: 0x15D88, symSize: 0x24 }
  - { offset: 0x60B44, size: 0x8, addend: 0x0, symName: __RNCNvMNtNtCscOYdFFY2T5N_3std4hash6randomNtB4_11RandomState3new0CsfcpOYk5gj7s_10displaydoc, symObjAddr: 0xFD4, symBinAddr: 0x153A8, symSize: 0x2C }
  - { offset: 0x60C1F, size: 0x8, addend: 0x0, symName: __RNvXs2_NtNtCscOYdFFY2T5N_3std4hash6randomNtB5_13DefaultHasherNtNtCsfvfooZQ3Axs_4core4hash6Hasher6finishCsfcpOYk5gj7s_10displaydoc, symObjAddr: 0x216C, symBinAddr: 0x16540, symSize: 0x2C }
  - { offset: 0x60C68, size: 0x8, addend: 0x0, symName: __RNvXs2_NtNtCscOYdFFY2T5N_3std4hash6randomNtB5_13DefaultHasherNtNtCsfvfooZQ3Axs_4core4hash6Hasher9write_strCsfcpOYk5gj7s_10displaydoc, symObjAddr: 0x2198, symBinAddr: 0x1656C, symSize: 0x38 }
  - { offset: 0x60CC9, size: 0x8, addend: 0x0, symName: __RNvXs3_NtNtCscOYdFFY2T5N_3std4hash6randomNtB5_11RandomStateNtNtCsfvfooZQ3Axs_4core7default7Default7defaultCsfcpOYk5gj7s_10displaydoc, symObjAddr: 0x2380, symBinAddr: 0x16754, symSize: 0x1C }
  - { offset: 0x60D01, size: 0x8, addend: 0x0, symName: __RNvXs_NtNtCscOYdFFY2T5N_3std4hash6randomNtB4_11RandomStateNtNtCsfvfooZQ3Axs_4core4hash11BuildHasher12build_hasherCsfcpOYk5gj7s_10displaydoc, symObjAddr: 0x2834, symBinAddr: 0x16C08, symSize: 0xCC }
  - { offset: 0x60E9C, size: 0x8, addend: 0x0, symName: __RINvXs1n_NtNtNtCscOYdFFY2T5N_3std11collections4hash3mapINtB7_7HashMapNtCs3cP53eQoTwO_11proc_macro25IdentINtNtCse1nGBsou5OW_5alloc3vec3VecNtNtCs6IAuOt8vWmF_3syn8generics10TraitBoundEEINtNtNtNtCsfvfooZQ3Axs_4core4iter6traits7collect12FromIteratorTB15_B1E_EE9from_iterINtNtNtB31_8adapters3map3MapINtNtNtB33_5slice4iter4IterRNtB2d_9TypeParamENCNvNtCsfcpOYk5gj7s_10displaydoc6expand37extract_trait_constraints_from_source0EEB5w_, symObjAddr: 0x730, symBinAddr: 0x14B04, symSize: 0x130 }
  - { offset: 0x60FA1, size: 0x8, addend: 0x0, symName: __RNvXsI_NtNtNtCscOYdFFY2T5N_3std11collections4hash3mapINtB5_7HashMapNtCs3cP53eQoTwO_11proc_macro25IdentINtNtCse1nGBsou5OW_5alloc3vec3VecNtNtCs6IAuOt8vWmF_3syn8generics10TraitBoundEENtNtNtNtCsfvfooZQ3Axs_4core4iter6traits7collect12IntoIterator9into_iterCsfcpOYk5gj7s_10displaydoc, symObjAddr: 0x25B8, symBinAddr: 0x1698C, symSize: 0x58 }
  - { offset: 0x60FF1, size: 0x8, addend: 0x0, symName: __RNvXsM_NtNtNtCscOYdFFY2T5N_3std11collections4hash3mapINtB5_7IterMutNtCs3cP53eQoTwO_11proc_macro25IdentINtNtCse1nGBsou5OW_5alloc3vec3VecNtNtCs6IAuOt8vWmF_3syn8generics10TraitBoundEENtNtNtNtCsfvfooZQ3Axs_4core4iter6traits8iterator8Iterator4nextCsfcpOYk5gj7s_10displaydoc, symObjAddr: 0x2708, symBinAddr: 0x16ADC, symSize: 0x24 }
  - { offset: 0x61037, size: 0x8, addend: 0x0, symName: __RNvXsQ_NtNtNtCscOYdFFY2T5N_3std11collections4hash3mapINtB5_8IntoIterNtCs3cP53eQoTwO_11proc_macro25IdentINtNtCse1nGBsou5OW_5alloc3vec3VecNtNtCs6IAuOt8vWmF_3syn8generics10TraitBoundEENtNtNtNtCsfvfooZQ3Axs_4core4iter6traits8iterator8Iterator4nextCsfcpOYk5gj7s_10displaydoc, symObjAddr: 0x272C, symBinAddr: 0x16B00, symSize: 0x2C }
  - { offset: 0x61118, size: 0x8, addend: 0x0, symName: __RINvMs0_NtNtNtNtCscOYdFFY2T5N_3std3sys12thread_local6native4lazyINtB6_7StorageINtNtCsfvfooZQ3Axs_4core4cell4CellTyyEEzE10initializeNvNvNvMNtNtBe_4hash6randomNtB2c_11RandomState3new4KEYS6___initECsfcpOYk5gj7s_10displaydoc, symObjAddr: 0x214, symBinAddr: 0x17D0C0, symSize: 0x264 }
  - { offset: 0x6136C, size: 0x8, addend: 0x0, symName: __RINvMs0_NtNtNtNtCscOYdFFY2T5N_3std3sys12thread_local6native4lazyINtB6_7StorageINtNtCsfvfooZQ3Axs_4core4cell4CellTyyEEzE11get_or_initNvNvNvMNtNtBe_4hash6randomNtB2d_11RandomState3new4KEYS6___initECsfcpOYk5gj7s_10displaydoc, symObjAddr: 0x478, symBinAddr: 0x1484C, symSize: 0xC4 }
  - { offset: 0x66427, size: 0x8, addend: 0x0, symName: __RNvXs0_NtCs6IAuOt8vWmF_3syn5dropsINtB5_6NoDropDINtNtB7_10punctuated12IterMutTraitNtNtB7_8generics14WherePredicateEp4ItemQB1h_EL_ENtNtNtCsfvfooZQ3Axs_4core3ops5deref8DerefMut9deref_mutCsfcpOYk5gj7s_10displaydoc, symObjAddr: 0x1BB4, symBinAddr: 0x15F88, symSize: 0x3C }
  - { offset: 0x6645C, size: 0x8, addend: 0x0, symName: __RNvXs0_NtCs6IAuOt8vWmF_3syn5dropsINtB5_6NoDropDINtNtB7_10punctuated9IterTraitNtNtB7_4data7VariantEp4ItemRB1d_EL_ENtNtNtCsfvfooZQ3Axs_4core3ops5deref8DerefMut9deref_mutCsfcpOYk5gj7s_10displaydoc, symObjAddr: 0x1BF0, symBinAddr: 0x15FC4, symSize: 0x3C }
  - { offset: 0x66491, size: 0x8, addend: 0x0, symName: __RNvXs0_NtCs6IAuOt8vWmF_3syn5dropsINtB5_6NoDropDINtNtB7_10punctuated9IterTraitNtNtB7_8generics14WherePredicateEp4ItemRB1d_EL_ENtNtNtCsfvfooZQ3Axs_4core3ops5deref8DerefMut9deref_mutCsfcpOYk5gj7s_10displaydoc, symObjAddr: 0x1C2C, symBinAddr: 0x16000, symSize: 0x3C }
  - { offset: 0x664CC, size: 0x8, addend: 0x0, symName: __RNvXs_NtCs6IAuOt8vWmF_3syn5dropsINtB4_6NoDropDINtNtB6_10punctuated9IterTraitNtNtB6_4data7VariantEp4ItemRB1c_EL_ENtNtNtCsfvfooZQ3Axs_4core3ops5deref5Deref5derefCsfcpOYk5gj7s_10displaydoc, symObjAddr: 0x27BC, symBinAddr: 0x16B90, symSize: 0x3C }
  - { offset: 0x66501, size: 0x8, addend: 0x0, symName: __RNvXs_NtCs6IAuOt8vWmF_3syn5dropsINtB4_6NoDropDINtNtB6_10punctuated9IterTraitNtNtB6_8generics14TypeParamBoundEp4ItemRB1c_EL_ENtNtNtCsfvfooZQ3Axs_4core3ops5deref5Deref5derefCsfcpOYk5gj7s_10displaydoc, symObjAddr: 0x27F8, symBinAddr: 0x16BCC, symSize: 0x3C }
  - { offset: 0x66BE7, size: 0x8, addend: 0x0, symName: __RNvXNvXsd_NtNtCse1nGBsou5OW_5alloc3vec9into_iterINtB8_8IntoIterppENtNtNtCsfvfooZQ3Axs_4core3ops4drop4Drop4dropINtB2_9DropGuardINtNtB18_6option6OptionNtNtCsfcpOYk5gj7s_10displaydoc4attr14VariantDisplayENtNtBc_5alloc6GlobalEB12_4dropB2r_, symObjAddr: 0x1B38, symBinAddr: 0x15F0C, symSize: 0x7C }
  - { offset: 0x66D1D, size: 0x8, addend: 0x0, symName: __RNvXsd_NtNtCse1nGBsou5OW_5alloc3vec9into_iterINtB5_8IntoIterINtNtCsfvfooZQ3Axs_4core6option6OptionNtNtCsfcpOYk5gj7s_10displaydoc4attr14VariantDisplayEENtNtNtB11_3ops4drop4Drop4dropB1C_, symObjAddr: 0x2900, symBinAddr: 0x16CD4, symSize: 0x98 }
  - { offset: 0x66DBD, size: 0x8, addend: 0x0, symName: __RNvXs3_NtNtCse1nGBsou5OW_5alloc3vec9into_iterINtB5_8IntoIterINtNtCsfvfooZQ3Axs_4core6option6OptionNtNtCsfcpOYk5gj7s_10displaydoc4attr14VariantDisplayEENtNtNtNtB11_4iter6traits8iterator8Iterator4nextB1C_, symObjAddr: 0x239C, symBinAddr: 0x16770, symSize: 0xE0 }
  - { offset: 0x66F2F, size: 0x8, addend: 0x0, symName: __RNvXs3_NtNtCse1nGBsou5OW_5alloc3vec9into_iterINtB5_8IntoIterINtNtCsfvfooZQ3Axs_4core6option6OptionNtNtCsfcpOYk5gj7s_10displaydoc4attr14VariantDisplayEENtNtNtNtB11_4iter6traits8iterator8Iterator9size_hintB1C_, symObjAddr: 0x247C, symBinAddr: 0x16850, symSize: 0x6C }
  - { offset: 0x678F4, size: 0x8, addend: 0x0, symName: __RNvNtCse1nGBsou5OW_5alloc3fmt6formatCsfcpOYk5gj7s_10displaydoc, symObjAddr: 0x1628, symBinAddr: 0x159FC, symSize: 0xD4 }
  - { offset: 0x6839B, size: 0x8, addend: 0x0, symName: __RINvXs1i_NtCsloNvcHxBCre_9hashbrown3mapINtB7_7HashMapNtCs3cP53eQoTwO_11proc_macro25IdentINtNtCse1nGBsou5OW_5alloc3vec3VecNtNtCs6IAuOt8vWmF_3syn8generics10TraitBoundENtNtNtCscOYdFFY2T5N_3std4hash6random11RandomStateEINtNtNtNtCsfvfooZQ3Axs_4core4iter6traits7collect6ExtendTBP_B1o_EE6extendINtNtNtB3y_8adapters3map3MapINtNtNtB3A_5slice4iter4IterRNtB1X_9TypeParamENCNvNtCsfcpOYk5gj7s_10displaydoc6expand37extract_trait_constraints_from_source0EEB5S_, symObjAddr: 0x628, symBinAddr: 0x149FC, symSize: 0x108 }
  - { offset: 0x684A9, size: 0x8, addend: 0x0, symName: __RNCINvXs1i_NtCsloNvcHxBCre_9hashbrown3mapINtB9_7HashMapNtCs3cP53eQoTwO_11proc_macro25IdentINtNtCse1nGBsou5OW_5alloc3vec3VecNtNtCs6IAuOt8vWmF_3syn8generics10TraitBoundENtNtNtCscOYdFFY2T5N_3std4hash6random11RandomStateEINtNtNtNtCsfvfooZQ3Axs_4core4iter6traits7collect6ExtendTBR_B1q_EE6extendINtNtNtB3A_8adapters3map3MapINtNtNtB3C_5slice4iter4IterRNtB1Z_9TypeParamENCNvNtCsfcpOYk5gj7s_10displaydoc6expand37extract_trait_constraints_from_source0EE0B5U_, symObjAddr: 0xEA0, symBinAddr: 0x15274, symSize: 0x64 }
  - { offset: 0x6858F, size: 0x8, addend: 0x0, symName: __RNCINvNtCsloNvcHxBCre_9hashbrown3map11make_hasherNtCs3cP53eQoTwO_11proc_macro25IdentINtNtCse1nGBsou5OW_5alloc3vec3VecNtNtCs6IAuOt8vWmF_3syn8generics10TraitBoundENtNtNtCscOYdFFY2T5N_3std4hash6random11RandomStateE0CsfcpOYk5gj7s_10displaydoc, symObjAddr: 0xBB0, symBinAddr: 0x14F84, symSize: 0x3C }
  - { offset: 0x68611, size: 0x8, addend: 0x0, symName: __RNCINvNtCsloNvcHxBCre_9hashbrown3map14equivalent_keyNtCs3cP53eQoTwO_11proc_macro25IdentBO_INtNtCse1nGBsou5OW_5alloc3vec3VecNtNtCs6IAuOt8vWmF_3syn8generics10TraitBoundEE0CsfcpOYk5gj7s_10displaydoc, symObjAddr: 0xBEC, symBinAddr: 0x14FC0, symSize: 0x30 }
  - { offset: 0x686DA, size: 0x8, addend: 0x0, symName: __RNvXsE_NtCsloNvcHxBCre_9hashbrown3mapINtB5_7HashMapNtCs3cP53eQoTwO_11proc_macro25IdentINtNtCse1nGBsou5OW_5alloc3vec3VecNtNtCs6IAuOt8vWmF_3syn8generics10TraitBoundENtNtNtCscOYdFFY2T5N_3std4hash6random11RandomStateENtNtNtNtCsfvfooZQ3Axs_4core4iter6traits7collect12IntoIterator9into_iterCsfcpOYk5gj7s_10displaydoc, symObjAddr: 0x254C, symBinAddr: 0x16920, symSize: 0x6C }
  - { offset: 0x68733, size: 0x8, addend: 0x0, symName: __RNvXsK_NtCsloNvcHxBCre_9hashbrown3mapINtB5_7IterMutNtCs3cP53eQoTwO_11proc_macro25IdentINtNtCse1nGBsou5OW_5alloc3vec3VecNtNtCs6IAuOt8vWmF_3syn8generics10TraitBoundEENtNtNtNtCsfvfooZQ3Axs_4core4iter6traits8iterator8Iterator4nextCsfcpOYk5gj7s_10displaydoc, symObjAddr: 0x2610, symBinAddr: 0x169E4, symSize: 0xF8 }
  - { offset: 0x68BC0, size: 0x8, addend: 0x0, symName: __RNvMNtCs6IAuOt8vWmF_3syn5dropsINtB2_6NoDropINtNtB4_10punctuated11PrivateIterNtNtB4_4data7VariantNtNtB4_5token5CommaEE3newCsfcpOYk5gj7s_10displaydoc, symObjAddr: 0x1000, symBinAddr: 0x153D4, symSize: 0x40 }
  - { offset: 0x68C4A, size: 0x8, addend: 0x0, symName: __RNvMNtCs6IAuOt8vWmF_3syn5dropsINtB2_6NoDropINtNtB4_10punctuated11PrivateIterNtNtB4_8generics14WherePredicateNtNtB4_5token5CommaEE3newCsfcpOYk5gj7s_10displaydoc, symObjAddr: 0x1040, symBinAddr: 0x15414, symSize: 0x40 }
  - { offset: 0x68CD4, size: 0x8, addend: 0x0, symName: __RNvMNtCs6IAuOt8vWmF_3syn5dropsINtB2_6NoDropINtNtB4_10punctuated14PrivateIterMutNtNtB4_8generics14WherePredicateNtNtB4_5token5CommaEE3newCsfcpOYk5gj7s_10displaydoc, symObjAddr: 0x1080, symBinAddr: 0x15454, symSize: 0x40 }
  - { offset: 0x68D7D, size: 0x8, addend: 0x0, symName: __RNvMNtNtNtCsfvfooZQ3Axs_4core4iter8adapters7step_byINtB2_6StepByINtNtNtB8_3ops5range5RangejEE3newCsfcpOYk5gj7s_10displaydoc, symObjAddr: 0x1208, symBinAddr: 0x155DC, symSize: 0xE0 }
  - { offset: 0x68EE6, size: 0x8, addend: 0x0, symName: __RNvMs0_NtCsloNvcHxBCre_9hashbrown3mapINtB5_7HashMapNtCs3cP53eQoTwO_11proc_macro25IdentINtNtCse1nGBsou5OW_5alloc3vec3VecNtNtCs6IAuOt8vWmF_3syn8generics10TraitBoundENtNtNtCscOYdFFY2T5N_3std4hash6random11RandomStateE8iter_mutCsfcpOYk5gj7s_10displaydoc, symObjAddr: 0x12E8, symBinAddr: 0x156BC, symSize: 0xC8 }
  - { offset: 0x69118, size: 0x8, addend: 0x0, symName: __RNvMs1_NtCsloNvcHxBCre_9hashbrown3mapINtB5_7HashMapNtCs3cP53eQoTwO_11proc_macro25IdentINtNtCse1nGBsou5OW_5alloc3vec3VecNtNtCs6IAuOt8vWmF_3syn8generics10TraitBoundENtNtNtCscOYdFFY2T5N_3std4hash6random11RandomStateE6insertCsfcpOYk5gj7s_10displaydoc, symObjAddr: 0x13B0, symBinAddr: 0x15784, symSize: 0x234 }
  - { offset: 0x692E1, size: 0x8, addend: 0x0, symName: __RNvMs_NtNtNtCscOYdFFY2T5N_3std11collections4hash3mapINtB4_7HashMapNtCs3cP53eQoTwO_11proc_macro25IdentINtNtCse1nGBsou5OW_5alloc3vec3VecNtNtCs6IAuOt8vWmF_3syn8generics10TraitBoundEE8iter_mutCsfcpOYk5gj7s_10displaydoc, symObjAddr: 0x15E4, symBinAddr: 0x159B8, symSize: 0x44 }
  - { offset: 0x69A54, size: 0x8, addend: 0x0, symName: __RNvYINtNtNtNtCsfvfooZQ3Axs_4core4iter8adapters3map3MapINtNtCs6IAuOt8vWmF_3syn10punctuated4IterNtNtBV_4data5FieldENCNCNvNtCsfcpOYk5gj7s_10displaydoc6expand11impl_struct00ENtNtNtCs2cqEZUIJimJ_5quote9___private3ext14RepIteratorExt15quote_into_iterB1V_, symObjAddr: 0x2AD4, symBinAddr: 0x16EA8, symSize: 0x2C }
  - { offset: 0x69A89, size: 0x8, addend: 0x0, symName: __RNvYINtNtNtNtCsfvfooZQ3Axs_4core4iter8adapters3map3MapINtNtCs6IAuOt8vWmF_3syn10punctuated4IterNtNtBV_4data5FieldENCNCNvNtCsfcpOYk5gj7s_10displaydoc6expand9impl_enums_0s_0ENtNtNtCs2cqEZUIJimJ_5quote9___private3ext14RepIteratorExt15quote_into_iterB1V_, symObjAddr: 0x2B00, symBinAddr: 0x16ED4, symSize: 0x2C }
  - { offset: 0x69ABE, size: 0x8, addend: 0x0, symName: __RNvYINtNtNtNtCsfvfooZQ3Axs_4core4iter8adapters3map3MapINtNtNtBb_3ops5range5RangejENCNCNvNtCsfcpOYk5gj7s_10displaydoc6expand11impl_struct0s_0ENtNtNtCs2cqEZUIJimJ_5quote9___private3ext14RepIteratorExt15quote_into_iterB1q_, symObjAddr: 0x2B2C, symBinAddr: 0x16F00, symSize: 0x24 }
  - { offset: 0x69AF3, size: 0x8, addend: 0x0, symName: __RNvYINtNtNtNtCsfvfooZQ3Axs_4core4iter8adapters3map3MapINtNtNtBb_3ops5range5RangejENCNCNvNtCsfcpOYk5gj7s_10displaydoc6expand9impl_enums_0s0_0ENtNtNtCs2cqEZUIJimJ_5quote9___private3ext14RepIteratorExt15quote_into_iterB1q_, symObjAddr: 0x2B50, symBinAddr: 0x16F24, symSize: 0x24 }
  - { offset: 0x69FE7, size: 0x8, addend: 0x0, symName: __RINvMNtCs6IAuOt8vWmF_3syn4attrNtB3_9Attribute10parse_argsNtNtB5_3lit6LitStrECsfcpOYk5gj7s_10displaydoc, symObjAddr: 0x0, symBinAddr: 0x17144, symSize: 0x34 }
  - { offset: 0x6B50E, size: 0x8, addend: 0x0, symName: __RINvNtCsfvfooZQ3Axs_4core3ptr14read_unalignedNtNtNtNtB4_9core_arch10arm_shared4neon9uint8x8_tECsfcpOYk5gj7s_10displaydoc, symObjAddr: 0x624, symBinAddr: 0x17768, symSize: 0x8C }
  - { offset: 0x6B5E2, size: 0x8, addend: 0x0, symName: __RINvNtCsfvfooZQ3Axs_4core3ptr15write_unalignedNtNtNtNtB4_9core_arch10arm_shared4neon9uint8x8_tECsfcpOYk5gj7s_10displaydoc, symObjAddr: 0x6B0, symBinAddr: 0x177F4, symSize: 0x70 }
  - { offset: 0x6B76E, size: 0x8, addend: 0x0, symName: __RINvNvNtCsfvfooZQ3Axs_4core3ptr19swap_nonoverlapping7runtimehECsfcpOYk5gj7s_10displaydoc, symObjAddr: 0xBCC, symBinAddr: 0x17B8C, symSize: 0x1B4 }
  - { offset: 0x6BF44, size: 0x8, addend: 0x0, symName: __RNvNvNtCsfvfooZQ3Axs_4core3ptr13read_volatile18precondition_checkCsfcpOYk5gj7s_10displaydoc, symObjAddr: 0x1A44, symBinAddr: 0x18A04, symSize: 0x100 }
  - { offset: 0x6C059, size: 0x8, addend: 0x0, symName: __RNvNvNtCsfvfooZQ3Axs_4core3ptr7replace18precondition_checkCsfcpOYk5gj7s_10displaydoc, symObjAddr: 0x1E44, symBinAddr: 0x18B04, symSize: 0x100 }
  - { offset: 0x6E906, size: 0x8, addend: 0x0, symName: __RNvXsn_NtNtCsfvfooZQ3Axs_4core5panic11unwind_safeINtB5_16AssertUnwindSafeNCINvNtNtCs9i5KxIbZ5ph_10proc_macro6bridge6client10run_clientNtB1e_11TokenStreamINtNtB9_6option6OptionB28_ENCNCINvMs7_B1e_INtB1e_6ClientNtB1i_11TokenStreamB3l_E7expand1NvCsfcpOYk5gj7s_10displaydoc12derive_errorE00E0EINtNtNtB9_3ops8function6FnOnceuE9call_onceB3T_, symObjAddr: 0x3164, symBinAddr: 0x19E24, symSize: 0x38 }
  - { offset: 0x6EBB4, size: 0x8, addend: 0x0, symName: __RNvNtNtNtNtCsfvfooZQ3Axs_4core9core_arch7aarch644neon9generated8vcgez_s8CsfcpOYk5gj7s_10displaydoc, symObjAddr: 0x1974, symBinAddr: 0x18934, symSize: 0x68 }
  - { offset: 0x6EC56, size: 0x8, addend: 0x0, symName: __RNvNtNtNtNtCsfvfooZQ3Axs_4core9core_arch7aarch644neon9generated8vcltz_s8CsfcpOYk5gj7s_10displaydoc, symObjAddr: 0x19DC, symBinAddr: 0x1899C, symSize: 0x68 }
  - { offset: 0x6ED82, size: 0x8, addend: 0x0, symName: __RINvNtNtCsfvfooZQ3Axs_4core4iter8adapters11try_processINtNtB2_3map3MapINtNtB2_3zip3ZipINtNtCs6IAuOt8vWmF_3syn10punctuated4IterNtNtB1r_4data7VariantEINtNtNtCse1nGBsou5OW_5alloc3vec9into_iter8IntoIterINtNtB6_6option6OptionNtNtCsfcpOYk5gj7s_10displaydoc4attr14VariantDisplayEEENCNvNtB3A_6expand9impl_enums_0ENtCs3cP53eQoTwO_11proc_macro211TokenStreamINtNtB6_6result6ResultNtNtB6_7convert10InfallibleNtNtB1r_5error5ErrorENCINvXsn_B5C_IB5A_INtB2r_3VecB4T_EB6m_EINtNtNtB4_6traits7collect12FromIteratorIB5A_B4T_B6m_EE9from_iterBQ_E0B6Z_EB3A_, symObjAddr: 0x788, symBinAddr: 0x17864, symSize: 0x19C }
  - { offset: 0x6EE49, size: 0x8, addend: 0x0, symName: __RINvNtNtCsfvfooZQ3Axs_4core4iter8adapters11try_processINtNtB2_3map3MapINtNtCs6IAuOt8vWmF_3syn10punctuated4IterNtNtB1b_4data7VariantENCNvNtCsfcpOYk5gj7s_10displaydoc6expand9impl_enum0EINtNtB6_6option6OptionNtNtB2c_4attr14VariantDisplayEINtNtB6_6result6ResultNtNtB6_7convert10InfallibleNtNtB1b_5error5ErrorENCINvXsn_B3O_IB3M_INtNtCse1nGBsou5OW_5alloc3vec3VecB2V_EB4y_EINtNtNtB4_6traits7collect12FromIteratorIB3M_B2V_B4y_EE9from_iterBQ_E0B5b_EB2c_, symObjAddr: 0x924, symBinAddr: 0x17A00, symSize: 0x18C }
  - { offset: 0x6EF15, size: 0x8, addend: 0x0, symName: __RINvXNtNtCsfvfooZQ3Axs_4core4iter8adaptersINtB3_12GenericShuntINtNtB3_3map3MapINtNtB3_3zip3ZipINtNtCs6IAuOt8vWmF_3syn10punctuated4IterNtNtB1z_4data7VariantEINtNtNtCse1nGBsou5OW_5alloc3vec9into_iter8IntoIterINtNtB7_6option6OptionNtNtCsfcpOYk5gj7s_10displaydoc4attr14VariantDisplayEEENCNvNtB3I_6expand9impl_enums_0EINtNtB7_6result6ResultNtNtB7_7convert10InfallibleNtNtB1z_5error5ErrorEENtNtNtB5_6traits8iterator8Iterator8try_folduNCINvNvB6a_12try_for_each4callNtCs3cP53eQoTwO_11proc_macro211TokenStreamINtNtNtB7_3ops12control_flow11ControlFlowB7m_ENcNtB82_5Break0E0B82_EB3I_, symObjAddr: 0xD80, symBinAddr: 0x17D40, symSize: 0xA4 }
  - { offset: 0x6EFCB, size: 0x8, addend: 0x0, symName: __RINvXNtNtCsfvfooZQ3Axs_4core4iter8adaptersINtB3_12GenericShuntINtNtB3_3map3MapINtNtCs6IAuOt8vWmF_3syn10punctuated4IterNtNtB1j_4data7VariantENCNvNtCsfcpOYk5gj7s_10displaydoc6expand9impl_enum0EINtNtB7_6result6ResultNtNtB7_7convert10InfallibleNtNtB1j_5error5ErrorEENtNtNtB5_6traits8iterator8Iterator8try_folduNCINvNvB4c_12try_for_each4callINtNtB7_6option6OptionNtNtB2k_4attr14VariantDisplayEINtNtNtB7_3ops12control_flow11ControlFlowB5o_ENcNtB6e_5Break0E0B6e_EB2k_, symObjAddr: 0xE24, symBinAddr: 0x17DE4, symSize: 0xC0 }
  - { offset: 0x6F087, size: 0x8, addend: 0x0, symName: __RNCINvXNtNtCsfvfooZQ3Axs_4core4iter8adaptersINtB5_12GenericShuntINtNtB5_3map3MapINtNtB5_3zip3ZipINtNtCs6IAuOt8vWmF_3syn10punctuated4IterNtNtB1B_4data7VariantEINtNtNtCse1nGBsou5OW_5alloc3vec9into_iter8IntoIterINtNtB9_6option6OptionNtNtCsfcpOYk5gj7s_10displaydoc4attr14VariantDisplayEEENCNvNtB3K_6expand9impl_enums_0EINtNtB9_6result6ResultNtNtB9_7convert10InfallibleNtNtB1B_5error5ErrorEENtNtNtB7_6traits8iterator8Iterator8try_folduNCINvNvB6c_12try_for_each4callNtCs3cP53eQoTwO_11proc_macro211TokenStreamINtNtNtB9_3ops12control_flow11ControlFlowB7o_ENcNtB84_5Break0E0B84_E0B3K_, symObjAddr: 0x10CC, symBinAddr: 0x1808C, symSize: 0x1EC }
  - { offset: 0x6F17A, size: 0x8, addend: 0x0, symName: __RNCINvXNtNtCsfvfooZQ3Axs_4core4iter8adaptersINtB5_12GenericShuntINtNtB5_3map3MapINtNtCs6IAuOt8vWmF_3syn10punctuated4IterNtNtB1l_4data7VariantENCNvNtCsfcpOYk5gj7s_10displaydoc6expand9impl_enum0EINtNtB9_6result6ResultNtNtB9_7convert10InfallibleNtNtB1l_5error5ErrorEENtNtNtB7_6traits8iterator8Iterator8try_folduNCINvNvB4e_12try_for_each4callINtNtB9_6option6OptionNtNtB2m_4attr14VariantDisplayEINtNtNtB9_3ops12control_flow11ControlFlowB5q_ENcNtB6g_5Break0E0B6g_E0B2m_, symObjAddr: 0x12B8, symBinAddr: 0x18278, symSize: 0x204 }
  - { offset: 0x6F26E, size: 0x8, addend: 0x0, symName: __RNvXNtNtCsfvfooZQ3Axs_4core4iter8adaptersINtB2_12GenericShuntINtNtB2_3map3MapINtNtB2_3zip3ZipINtNtCs6IAuOt8vWmF_3syn10punctuated4IterNtNtB1y_4data7VariantEINtNtNtCse1nGBsou5OW_5alloc3vec9into_iter8IntoIterINtNtB6_6option6OptionNtNtCsfcpOYk5gj7s_10displaydoc4attr14VariantDisplayEEENCNvNtB3H_6expand9impl_enums_0EINtNtB6_6result6ResultNtNtB6_7convert10InfallibleNtNtB1y_5error5ErrorEENtNtNtB4_6traits8iterator8Iterator4nextB3H_, symObjAddr: 0x2388, symBinAddr: 0x19048, symSize: 0xA4 }
  - { offset: 0x6F2FC, size: 0x8, addend: 0x0, symName: __RNvXNtNtCsfvfooZQ3Axs_4core4iter8adaptersINtB2_12GenericShuntINtNtB2_3map3MapINtNtB2_3zip3ZipINtNtCs6IAuOt8vWmF_3syn10punctuated4IterNtNtB1y_4data7VariantEINtNtNtCse1nGBsou5OW_5alloc3vec9into_iter8IntoIterINtNtB6_6option6OptionNtNtCsfcpOYk5gj7s_10displaydoc4attr14VariantDisplayEEENCNvNtB3H_6expand9impl_enums_0EINtNtB6_6result6ResultNtNtB6_7convert10InfallibleNtNtB1y_5error5ErrorEENtNtNtB4_6traits8iterator8Iterator9size_hintB3H_, symObjAddr: 0x242C, symBinAddr: 0x190EC, symSize: 0xA8 }
  - { offset: 0x6F374, size: 0x8, addend: 0x0, symName: __RNvXNtNtCsfvfooZQ3Axs_4core4iter8adaptersINtB2_12GenericShuntINtNtB2_3map3MapINtNtCs6IAuOt8vWmF_3syn10punctuated4IterNtNtB1i_4data7VariantENCNvNtCsfcpOYk5gj7s_10displaydoc6expand9impl_enum0EINtNtB6_6result6ResultNtNtB6_7convert10InfallibleNtNtB1i_5error5ErrorEENtNtNtB4_6traits8iterator8Iterator4nextB2j_, symObjAddr: 0x24D4, symBinAddr: 0x19194, symSize: 0xB8 }
  - { offset: 0x6F403, size: 0x8, addend: 0x0, symName: __RNvXNtNtCsfvfooZQ3Axs_4core4iter8adaptersINtB2_12GenericShuntINtNtB2_3map3MapINtNtCs6IAuOt8vWmF_3syn10punctuated4IterNtNtB1i_4data7VariantENCNvNtCsfcpOYk5gj7s_10displaydoc6expand9impl_enum0EINtNtB6_6result6ResultNtNtB6_7convert10InfallibleNtNtB1i_5error5ErrorEENtNtNtB4_6traits8iterator8Iterator9size_hintB2j_, symObjAddr: 0x258C, symBinAddr: 0x1924C, symSize: 0xA8 }
  - { offset: 0x6F67F, size: 0x8, addend: 0x0, symName: __RINvYNtNtCs3cP53eQoTwO_11proc_macro212token_stream8IntoIterNtNtNtNtCsfvfooZQ3Axs_4core4iter6traits8iterator8Iterator4folduNCINvNvBV_8for_each4callNtB7_9TokenTreeNCINvXsa_NtB7_8fallbackNtB2I_11TokenStreamINtNtBZ_7collect6ExtendB2k_E6extendNtB7_11TokenStreamE0E0ECsfcpOYk5gj7s_10displaydoc, symObjAddr: 0xF6C, symBinAddr: 0x17F2C, symSize: 0x10C }
  - { offset: 0x6F710, size: 0x8, addend: 0x0, symName: __RINvYNtNtCs3cP53eQoTwO_11proc_macro212token_stream8IntoIterNtNtNtNtCsfvfooZQ3Axs_4core4iter6traits8iterator8Iterator8for_eachNCINvXsa_NtB7_8fallbackNtB28_11TokenStreamINtNtBZ_7collect6ExtendNtB7_9TokenTreeE6extendNtB7_11TokenStreamE0ECsfcpOYk5gj7s_10displaydoc, symObjAddr: 0x1078, symBinAddr: 0x18038, symSize: 0x24 }
  - { offset: 0x6F75C, size: 0x8, addend: 0x0, symName: __RINvYNtNtNtCsfvfooZQ3Axs_4core3str4iter5LinesNtNtNtNtB9_4iter6traits8iterator8Iterator3mapReNCNvMs0_NtCsfcpOYk5gj7s_10displaydoc4attrNtB1A_11AttrsHelper7displays0_0EB1C_, symObjAddr: 0x109C, symBinAddr: 0x1805C, symSize: 0x30 }
  - { offset: 0x6F8CD, size: 0x8, addend: 0x0, symName: __RNvXNtNtNtCsfvfooZQ3Axs_4core4iter6traits7collectINtNtB6_8adapters12GenericShuntINtNtBO_3map3MapINtNtBO_3zip3ZipINtNtCs6IAuOt8vWmF_3syn10punctuated4IterNtNtB1R_4data7VariantEINtNtNtCse1nGBsou5OW_5alloc3vec9into_iter8IntoIterINtNtB8_6option6OptionNtNtCsfcpOYk5gj7s_10displaydoc4attr14VariantDisplayEEENCNvNtB40_6expand9impl_enums_0EINtNtB8_6result6ResultNtNtB8_7convert10InfallibleNtNtB1R_5error5ErrorEENtB2_12IntoIterator9into_iterB40_, symObjAddr: 0x2634, symBinAddr: 0x192F4, symSize: 0x30 }
  - { offset: 0x6F905, size: 0x8, addend: 0x0, symName: __RNvXNtNtNtCsfvfooZQ3Axs_4core4iter6traits7collectINtNtB6_8adapters12GenericShuntINtNtBO_3map3MapINtNtCs6IAuOt8vWmF_3syn10punctuated4IterNtNtB1B_4data7VariantENCNvNtCsfcpOYk5gj7s_10displaydoc6expand9impl_enum0EINtNtB8_6result6ResultNtNtB8_7convert10InfallibleNtNtB1B_5error5ErrorEENtB2_12IntoIterator9into_iterB2C_, symObjAddr: 0x2664, symBinAddr: 0x19324, symSize: 0x30 }
  - { offset: 0x6FD19, size: 0x8, addend: 0x0, symName: __RNcNtINtNtNtCsfvfooZQ3Axs_4core3ops12control_flow11ControlFlowINtNtBa_6option6OptionNtNtCsfcpOYk5gj7s_10displaydoc4attr14VariantDisplayEE5Break0B1o_, symObjAddr: 0x14BC, symBinAddr: 0x1847C, symSize: 0x30 }
  - { offset: 0x6FD54, size: 0x8, addend: 0x0, symName: __RNcNtINtNtNtCsfvfooZQ3Axs_4core3ops12control_flow11ControlFlowNtCs3cP53eQoTwO_11proc_macro211TokenStreamE5Break0CsfcpOYk5gj7s_10displaydoc, symObjAddr: 0x14EC, symBinAddr: 0x184AC, symSize: 0x14 }
  - { offset: 0x6FD95, size: 0x8, addend: 0x0, symName: __RNvXNtNtCsfvfooZQ3Axs_4core3ops12control_flowINtB2_11ControlFlowIBI_INtNtB6_6option6OptionNtNtCsfcpOYk5gj7s_10displaydoc4attr14VariantDisplayEEENtNtB4_9try_trait3Try11from_outputB1u_, symObjAddr: 0x201C, symBinAddr: 0x18CDC, symSize: 0x18 }
  - { offset: 0x6FDD3, size: 0x8, addend: 0x0, symName: __RNvXNtNtCsfvfooZQ3Axs_4core3ops12control_flowINtB2_11ControlFlowIBI_INtNtB6_6option6OptionNtNtCsfcpOYk5gj7s_10displaydoc4attr14VariantDisplayEEENtNtB4_9try_trait3Try6branchB1u_, symObjAddr: 0x2034, symBinAddr: 0x18CF4, symSize: 0x8C }
  - { offset: 0x6FE4C, size: 0x8, addend: 0x0, symName: __RNvXNtNtCsfvfooZQ3Axs_4core3ops12control_flowINtB2_11ControlFlowIBI_NtCs3cP53eQoTwO_11proc_macro211TokenStreamEENtNtB4_9try_trait3Try11from_outputCsfcpOYk5gj7s_10displaydoc, symObjAddr: 0x20C0, symBinAddr: 0x18D80, symSize: 0x1C }
  - { offset: 0x6FE8A, size: 0x8, addend: 0x0, symName: __RNvXNtNtCsfvfooZQ3Axs_4core3ops12control_flowINtB2_11ControlFlowIBI_NtCs3cP53eQoTwO_11proc_macro211TokenStreamEENtNtB4_9try_trait3Try6branchCsfcpOYk5gj7s_10displaydoc, symObjAddr: 0x20DC, symBinAddr: 0x18D9C, symSize: 0x80 }
  - { offset: 0x6FF04, size: 0x8, addend: 0x0, symName: __RNvXNtNtCsfvfooZQ3Axs_4core3ops12control_flowINtB2_11ControlFlowINtNtB6_6option6OptionNtNtCsfcpOYk5gj7s_10displaydoc4attr14VariantDisplayEENtNtB4_9try_trait3Try11from_outputB1q_, symObjAddr: 0x215C, symBinAddr: 0x18E1C, symSize: 0x1C }
  - { offset: 0x6FF42, size: 0x8, addend: 0x0, symName: __RNvXNtNtCsfvfooZQ3Axs_4core3ops12control_flowINtB2_11ControlFlowINtNtB6_6option6OptionNtNtCsfcpOYk5gj7s_10displaydoc4attr14VariantDisplayEENtNtB4_9try_trait3Try6branchB1q_, symObjAddr: 0x2178, symBinAddr: 0x18E38, symSize: 0x94 }
  - { offset: 0x6FFBB, size: 0x8, addend: 0x0, symName: __RNvXNtNtCsfvfooZQ3Axs_4core3ops12control_flowINtB2_11ControlFlowNtCs3cP53eQoTwO_11proc_macro211TokenStreamENtNtB4_9try_trait3Try11from_outputCsfcpOYk5gj7s_10displaydoc, symObjAddr: 0x220C, symBinAddr: 0x18ECC, symSize: 0x18 }
  - { offset: 0x6FFF9, size: 0x8, addend: 0x0, symName: __RNvXNtNtCsfvfooZQ3Axs_4core3ops12control_flowINtB2_11ControlFlowNtCs3cP53eQoTwO_11proc_macro211TokenStreamENtNtB4_9try_trait3Try6branchCsfcpOYk5gj7s_10displaydoc, symObjAddr: 0x2224, symBinAddr: 0x18EE4, symSize: 0x78 }
  - { offset: 0x70073, size: 0x8, addend: 0x0, symName: __RNvXNtNtCsfvfooZQ3Axs_4core3ops12control_flowINtB2_11ControlFlowTRNtCs3cP53eQoTwO_11proc_macro25IdentQINtNtCse1nGBsou5OW_5alloc3vec3VecNtNtCs6IAuOt8vWmF_3syn8generics10TraitBoundEEENtNtB4_9try_trait3Try11from_outputCsfcpOYk5gj7s_10displaydoc, symObjAddr: 0x229C, symBinAddr: 0x18F5C, symSize: 0x18 }
  - { offset: 0x700B1, size: 0x8, addend: 0x0, symName: __RNvXNtNtCsfvfooZQ3Axs_4core3ops12control_flowINtB2_11ControlFlowTRNtCs3cP53eQoTwO_11proc_macro25IdentQINtNtCse1nGBsou5OW_5alloc3vec3VecNtNtCs6IAuOt8vWmF_3syn8generics10TraitBoundEEENtNtB4_9try_trait3Try6branchCsfcpOYk5gj7s_10displaydoc, symObjAddr: 0x22B4, symBinAddr: 0x18F74, symSize: 0x64 }
  - { offset: 0x70130, size: 0x8, addend: 0x0, symName: __RNvXs_NtNtCsfvfooZQ3Axs_4core3ops12control_flowINtB4_11ControlFlowIBK_INtNtB8_6option6OptionNtNtCsfcpOYk5gj7s_10displaydoc4attr14VariantDisplayEEEINtNtB6_9try_trait12FromResidualIBK_B12_NtNtB8_7convert10InfallibleEE13from_residualB1w_, symObjAddr: 0x296C, symBinAddr: 0x1962C, symSize: 0x48 }
  - { offset: 0x7016F, size: 0x8, addend: 0x0, symName: __RNvXs_NtNtCsfvfooZQ3Axs_4core3ops12control_flowINtB4_11ControlFlowIBK_NtCs3cP53eQoTwO_11proc_macro211TokenStreamEEINtNtB6_9try_trait12FromResidualIBK_B12_NtNtB8_7convert10InfallibleEE13from_residualCsfcpOYk5gj7s_10displaydoc, symObjAddr: 0x29B4, symBinAddr: 0x19674, symSize: 0x2C }
  - { offset: 0x701AD, size: 0x8, addend: 0x0, symName: __RNvXs_NtNtCsfvfooZQ3Axs_4core3ops12control_flowINtB4_11ControlFlowINtNtB8_6option6OptionNtNtCsfcpOYk5gj7s_10displaydoc4attr14VariantDisplayEEINtNtB6_9try_trait12FromResidualIBK_B12_NtNtB8_7convert10InfallibleEE13from_residualB1s_, symObjAddr: 0x29E0, symBinAddr: 0x196A0, symSize: 0x48 }
  - { offset: 0x701EC, size: 0x8, addend: 0x0, symName: __RNvXs_NtNtCsfvfooZQ3Axs_4core3ops12control_flowINtB4_11ControlFlowNtCs3cP53eQoTwO_11proc_macro211TokenStreamEINtNtB6_9try_trait12FromResidualIBK_B12_NtNtB8_7convert10InfallibleEE13from_residualCsfcpOYk5gj7s_10displaydoc, symObjAddr: 0x2A28, symBinAddr: 0x196E8, symSize: 0x2C }
  - { offset: 0x7022A, size: 0x8, addend: 0x0, symName: __RNvXs_NtNtCsfvfooZQ3Axs_4core3ops12control_flowINtB4_11ControlFlowTRNtCs3cP53eQoTwO_11proc_macro25IdentQINtNtCse1nGBsou5OW_5alloc3vec3VecNtNtCs6IAuOt8vWmF_3syn8generics10TraitBoundEEEINtNtB6_9try_trait12FromResidualIBK_B12_NtNtB8_7convert10InfallibleEE13from_residualCsfcpOYk5gj7s_10displaydoc, symObjAddr: 0x2A54, symBinAddr: 0x19714, symSize: 0x2C }
  - { offset: 0x709FA, size: 0x8, addend: 0x0, symName: __RNvXNtNtCsfvfooZQ3Axs_4core3str4iterNtB2_5CharsNtNtNtNtB6_4iter6traits8iterator8Iterator4nextCsfcpOYk5gj7s_10displaydoc, symObjAddr: 0x2318, symBinAddr: 0x18FD8, symSize: 0x70 }
  - { offset: 0x70AC8, size: 0x8, addend: 0x0, symName: __RNvXs3_NtNtCsfvfooZQ3Axs_4core3str4iterNtB5_11CharIndicesNtNtNtNtB9_4iter6traits8iterator8Iterator4nextCsfcpOYk5gj7s_10displaydoc, symObjAddr: 0x26EC, symBinAddr: 0x193AC, symSize: 0x120 }
  - { offset: 0x70D01, size: 0x8, addend: 0x0, symName: __RNvXs4_NtNtCsfvfooZQ3Axs_4core3str4iterNtB5_11CharIndicesNtNtNtNtB9_4iter6traits12double_ended19DoubleEndedIterator9next_backCsfcpOYk5gj7s_10displaydoc, symObjAddr: 0x280C, symBinAddr: 0x194CC, symSize: 0x13C }
  - { offset: 0x70E54, size: 0x8, addend: 0x0, symName: __RNvXsH_NtNtCsfvfooZQ3Axs_4core3str4iterINtB5_14SplitInclusivecENtNtNtNtB9_4iter6traits8iterator8Iterator4nextCsfcpOYk5gj7s_10displaydoc, symObjAddr: 0x2948, symBinAddr: 0x19608, symSize: 0x24 }
  - { offset: 0x70E91, size: 0x8, addend: 0x0, symName: __RNvXss_NtNtCsfvfooZQ3Axs_4core3str4iterNtB5_5LinesNtNtNtNtB9_4iter6traits8iterator8Iterator4nextCsfcpOYk5gj7s_10displaydoc, symObjAddr: 0x31F0, symBinAddr: 0x19EB0, symSize: 0x24 }
  - { offset: 0x70EBF, size: 0x8, addend: 0x0, symName: __RNvXss_NtNtCsfvfooZQ3Axs_4core3str4iterNtB5_5LinesNtNtNtNtB9_4iter6traits8iterator8Iterator9size_hintCsfcpOYk5gj7s_10displaydoc, symObjAddr: 0x3214, symBinAddr: 0x19ED4, symSize: 0x34 }
  - { offset: 0x71279, size: 0x8, addend: 0x0, symName: __RNvNvNtNtCsfvfooZQ3Axs_4core4char7convert18from_u32_unchecked18precondition_checkCsfcpOYk5gj7s_10displaydoc, symObjAddr: 0x1F44, symBinAddr: 0x18C04, symSize: 0x98 }
  - { offset: 0x7135E, size: 0x8, addend: 0x0, symName: __RNvNtNtNtCsfvfooZQ3Axs_4core7unicode12unicode_data11white_space6lookupCsfcpOYk5gj7s_10displaydoc, symObjAddr: 0x1828, symBinAddr: 0x187E8, symSize: 0x14C }
  - { offset: 0x762AE, size: 0x8, addend: 0x0, symName: __RINvNtCs6IAuOt8vWmF_3syn5parse12parse_scopedNvYNtNtB4_3lit6LitStrNtB2_5Parse5parseECsfcpOYk5gj7s_10displaydoc, symObjAddr: 0x5F4, symBinAddr: 0x17738, symSize: 0x30 }
  - { offset: 0x76309, size: 0x8, addend: 0x0, symName: __RNvXsh_NtCs6IAuOt8vWmF_3syn5parseNvYNtNtB7_3lit6LitStrNtB5_5Parse5parseNtB5_6Parser14___parse_scopedCsfcpOYk5gj7s_10displaydoc, symObjAddr: 0x2A80, symBinAddr: 0x19740, symSize: 0x38C }
  - { offset: 0x76455, size: 0x8, addend: 0x0, symName: __RNvXsh_NtCs6IAuOt8vWmF_3syn5parseNvYNtNtB7_6derive11DeriveInputNtB5_5Parse5parseNtB5_6Parser6parse2CsfcpOYk5gj7s_10displaydoc, symObjAddr: 0x2E0C, symBinAddr: 0x19ACC, symSize: 0x358 }
  - { offset: 0x7656B, size: 0x8, addend: 0x0, symName: __RNvYNvYNtNtCs6IAuOt8vWmF_3syn6derive11DeriveInputNtNtB9_5parse5Parse5parseNtBN_6Parser5parseCsfcpOYk5gj7s_10displaydoc, symObjAddr: 0x3248, symBinAddr: 0x19F08, symSize: 0x88 }
  - { offset: 0x779B2, size: 0x8, addend: 0x0, symName: __RNvXss_NtCse1nGBsou5OW_5alloc6stringNtB5_6StringNtNtNtCsfvfooZQ3Axs_4core3ops5deref5Deref5derefCsfcpOYk5gj7s_10displaydoc, symObjAddr: 0x31CC, symBinAddr: 0x19E8C, symSize: 0x24 }
  - { offset: 0x779E6, size: 0x8, addend: 0x0, symName: __RINvXsn_NtCse1nGBsou5OW_5alloc6stringNtB6_6StringNtNtCsfvfooZQ3Axs_4core4hash4Hash4hashNtNtNtCscOYdFFY2T5N_3std4hash6random13DefaultHasherECsfcpOYk5gj7s_10displaydoc, symObjAddr: 0xEE4, symBinAddr: 0x17EA4, symSize: 0x88 }
  - { offset: 0x77B94, size: 0x8, addend: 0x0, symName: __RNvXsp_NtCse1nGBsou5OW_5alloc6stringNtB5_6StringINtNtNtCsfvfooZQ3Axs_4core3ops5arith9AddAssignReE10add_assignCsfcpOYk5gj7s_10displaydoc, symObjAddr: 0x319C, symBinAddr: 0x19E5C, symSize: 0x30 }
  - { offset: 0x78145, size: 0x8, addend: 0x0, symName: __RINvMNtCs6IAuOt8vWmF_3syn4attrNtB3_9Attribute10parse_argsNtNtB5_3lit6LitStrECsfcpOYk5gj7s_10displaydoc, symObjAddr: 0x0, symBinAddr: 0x17144, symSize: 0x34 }
  - { offset: 0x78226, size: 0x8, addend: 0x0, symName: __RINvMNtCs6IAuOt8vWmF_3syn4attrNtB3_9Attribute15parse_args_withNvYNtNtB5_3lit6LitStrNtNtB5_5parse5Parse5parseECsfcpOYk5gj7s_10displaydoc, symObjAddr: 0x34, symBinAddr: 0x17178, symSize: 0x348 }
  - { offset: 0x78308, size: 0x8, addend: 0x0, symName: __RINvMNtCs6IAuOt8vWmF_3syn5errorNtB3_5Error11new_spannedRNtNtB5_4data7VariantReECsfcpOYk5gj7s_10displaydoc, symObjAddr: 0x37C, symBinAddr: 0x174C0, symSize: 0xC4 }
  - { offset: 0x78357, size: 0x8, addend: 0x0, symName: __RINvMNtCs6IAuOt8vWmF_3syn5errorNtB3_5Error11new_spannedRNtNtB5_6derive11DeriveInputReECsfcpOYk5gj7s_10displaydoc, symObjAddr: 0x440, symBinAddr: 0x17584, symSize: 0xC4 }
  - { offset: 0x783A6, size: 0x8, addend: 0x0, symName: __RINvMs0_NtCs6IAuOt8vWmF_3syn4attrNtB6_8MetaList15parse_args_withNvYNtNtB8_3lit6LitStrNtNtB8_5parse5Parse5parseECsfcpOYk5gj7s_10displaydoc, symObjAddr: 0x504, symBinAddr: 0x17648, symSize: 0xF0 }
  - { offset: 0x78505, size: 0x8, addend: 0x0, symName: __RNvXs1_NtCsloNvcHxBCre_9hashbrown10scopeguardINtB5_10ScopeGuardNtNtB7_3raw13RawTableInnerNCINvMsa_B11_BZ_14prepare_resizeNtNtCse1nGBsou5OW_5alloc5alloc6GlobalE0ENtNtNtCsfvfooZQ3Axs_4core3ops4drop4Drop4dropCsfcpOYk5gj7s_10displaydoc, symObjAddr: 0x2694, symBinAddr: 0x19354, symSize: 0x2C }
  - { offset: 0x7853F, size: 0x8, addend: 0x0, symName: __RNvXs1_NtCsloNvcHxBCre_9hashbrown10scopeguardINtB5_10ScopeGuardQNtNtB7_3raw13RawTableInnerNCNvMsa_B12_B10_15rehash_in_place0ENtNtNtCsfvfooZQ3Axs_4core3ops4drop4Drop4dropCsfcpOYk5gj7s_10displaydoc, symObjAddr: 0x26C0, symBinAddr: 0x19380, symSize: 0x2C }
  - { offset: 0x788E6, size: 0x8, addend: 0x0, symName: __RNvMNtCse1nGBsou5OW_5alloc6stringNtB2_6String3newCsfcpOYk5gj7s_10displaydoc, symObjAddr: 0x1500, symBinAddr: 0x184C0, symSize: 0x30 }
  - { offset: 0x78A63, size: 0x8, addend: 0x0, symName: __RNvMNtCse1nGBsou5OW_5alloc6stringNtB2_6String4pushCsfcpOYk5gj7s_10displaydoc, symObjAddr: 0x1530, symBinAddr: 0x184F0, symSize: 0x100 }
  - { offset: 0x78CE2, size: 0x8, addend: 0x0, symName: __RNvMNtCse1nGBsou5OW_5alloc6stringNtB2_6String6as_strCsfcpOYk5gj7s_10displaydoc, symObjAddr: 0x1630, symBinAddr: 0x185F0, symSize: 0x70 }
  - { offset: 0x78EBE, size: 0x8, addend: 0x0, symName: __RNvMNtCse1nGBsou5OW_5alloc6stringNtB2_6String8push_strCsfcpOYk5gj7s_10displaydoc, symObjAddr: 0x16A0, symBinAddr: 0x18660, symSize: 0x60 }
  - { offset: 0x79061, size: 0x8, addend: 0x0, symName: __RNvMsf_NtNtCsfvfooZQ3Axs_4core3str4iterINtB5_13SplitInternalcE14next_inclusiveCsfcpOYk5gj7s_10displaydoc, symObjAddr: 0x1700, symBinAddr: 0x186C0, symSize: 0x128 }
  - { offset: 0x79383, size: 0x8, addend: 0x0, symName: __RNvXNtCs2cqEZUIJimJ_5quote9to_tokensRNtNtCs6IAuOt8vWmF_3syn3lit6LitStrNtB2_8ToTokens9to_tokensCsfcpOYk5gj7s_10displaydoc, symObjAddr: 0x1FDC, symBinAddr: 0x18C9C, symSize: 0x40 }
  - { offset: 0x79920, size: 0x8, addend: 0x0, symName: __RINvMs2_NtNtCscOYdFFY2T5N_3std6thread5localINtB6_8LocalKeyINtNtCsfvfooZQ3Axs_4core4cell4CellPuEE4withNCNvMs3_B6_BF_7replace0B1s_ECsfcpOYk5gj7s_10displaydoc, symObjAddr: 0x0, symBinAddr: 0x19F90, symSize: 0x54 }
  - { offset: 0x79AA4, size: 0x8, addend: 0x0, symName: __RNCNvXs1_NtNtNtCscOYdFFY2T5N_3std2io5error14repr_bitpackedNtB7_4ReprNtNtNtCsfvfooZQ3Axs_4core3ops4drop4Drop4drop0CsfcpOYk5gj7s_10displaydoc, symObjAddr: 0xA08, symBinAddr: 0x1A998, symSize: 0x34 }
  - { offset: 0x79B59, size: 0x8, addend: 0x0, symName: __RNvXs1_NtNtNtCscOYdFFY2T5N_3std2io5error14repr_bitpackedNtB5_4ReprNtNtNtCsfvfooZQ3Axs_4core3ops4drop4Drop4dropCsfcpOYk5gj7s_10displaydoc, symObjAddr: 0x19A0, symBinAddr: 0x1B930, symSize: 0x38 }
  - { offset: 0x79B82, size: 0x8, addend: 0x0, symName: __RINvNtNtNtCscOYdFFY2T5N_3std2io5error14repr_bitpacked11decode_reprINtNtCse1nGBsou5OW_5alloc5boxed3BoxNtB4_6CustomENCNvXs1_B2_NtB2_4ReprNtNtNtCsfvfooZQ3Axs_4core3ops4drop4Drop4drop0ECsfcpOYk5gj7s_10displaydoc, symObjAddr: 0x548, symBinAddr: 0x1A4D8, symSize: 0x230 }
  - { offset: 0x79E27, size: 0x8, addend: 0x0, symName: __RNvNtNtNtCscOYdFFY2T5N_3std2io5error14repr_bitpacked14kind_from_primCsfcpOYk5gj7s_10displaydoc, symObjAddr: 0x11D4, symBinAddr: 0x1B164, symSize: 0x608 }
  - { offset: 0x7A7E2, size: 0x8, addend: 0x0, symName: __RNCNvMs3_NtNtCscOYdFFY2T5N_3std6thread5localINtB7_8LocalKeyINtNtCsfvfooZQ3Axs_4core4cell4CellPuEE7replace0CsfcpOYk5gj7s_10displaydoc, symObjAddr: 0x9E0, symBinAddr: 0x1A970, symSize: 0x28 }
  - { offset: 0x7A991, size: 0x8, addend: 0x0, symName: __RINvNvNtCscOYdFFY2T5N_3std9panicking3try7do_callINtNtNtCsfvfooZQ3Axs_4core5panic11unwind_safe16AssertUnwindSafeNCINvNtNtCs9i5KxIbZ5ph_10proc_macro6bridge6client10run_clientNtB1Q_11TokenStreamINtNtBR_6option6OptionB2K_ENCNCINvMs7_B1Q_INtB1Q_6ClientNtB1U_11TokenStreamB3X_E7expand1NvCsfcpOYk5gj7s_10displaydoc12derive_errorE00E0EuEB4v_, symObjAddr: 0x778, symBinAddr: 0x1A708, symSize: 0x50 }
  - { offset: 0x7AA59, size: 0x8, addend: 0x0, symName: __RINvNvNtCscOYdFFY2T5N_3std9panicking3try8do_catchINtNtNtCsfvfooZQ3Axs_4core5panic11unwind_safe16AssertUnwindSafeNCINvNtNtCs9i5KxIbZ5ph_10proc_macro6bridge6client10run_clientNtB1R_11TokenStreamINtNtBS_6option6OptionB2L_ENCNCINvMs7_B1R_INtB1R_6ClientNtB1V_11TokenStreamB3Y_E7expand1NvCsfcpOYk5gj7s_10displaydoc12derive_errorE00E0EuEB4w_, symObjAddr: 0x7C8, symBinAddr: 0x1A758, symSize: 0x70 }
  - { offset: 0x7B74E, size: 0x8, addend: 0x0, symName: __RNvNvMs1_NtNtCsfvfooZQ3Axs_4core3ptr8non_nullINtB7_7NonNullpE13new_unchecked18precondition_checkCsfcpOYk5gj7s_10displaydoc, symObjAddr: 0x1840, symBinAddr: 0x1B7D0, symSize: 0x38 }
  - { offset: 0x7E4B2, size: 0x8, addend: 0x0, symName: __RNvXs1_NtCsfvfooZQ3Axs_4core7convertNtCs3cP53eQoTwO_11proc_macro211TokenStreamINtB5_4IntoNtCs9i5KxIbZ5ph_10proc_macro11TokenStreamE4intoCsfcpOYk5gj7s_10displaydoc, symObjAddr: 0x198C, symBinAddr: 0x1B91C, symSize: 0x14 }
  - { offset: 0x7E60D, size: 0x8, addend: 0x0, symName: __RNvXs2_NtNtNtCsfvfooZQ3Axs_4core3ops8function5implsQNCNvMs0_NtCsfcpOYk5gj7s_10displaydoc4attrNtBW_11AttrsHelper7displays0_0INtB7_6FnOnceTReEE9call_onceBY_, symObjAddr: 0x19D8, symBinAddr: 0x1B968, symSize: 0x34 }
  - { offset: 0x7ECD8, size: 0x8, addend: 0x0, symName: __RNvMNtCsfvfooZQ3Axs_4core5sliceSNtCs3cP53eQoTwO_11proc_macro211TokenStream4iterCsfcpOYk5gj7s_10displaydoc, symObjAddr: 0xA3C, symBinAddr: 0x1A9CC, symSize: 0x28 }
  - { offset: 0x7ED71, size: 0x8, addend: 0x0, symName: __RNvNtNtCsfvfooZQ3Axs_4core5slice6memchr6memchrCsfcpOYk5gj7s_10displaydoc, symObjAddr: 0x10C0, symBinAddr: 0x1B050, symSize: 0x114 }
  - { offset: 0x7F334, size: 0x8, addend: 0x0, symName: __RINvXs3_NtNtCsfvfooZQ3Axs_4core4hash5implsRNtCs3cP53eQoTwO_11proc_macro25IdentNtB8_4Hash4hashNtNtNtCscOYdFFY2T5N_3std4hash6random13DefaultHasherECsfcpOYk5gj7s_10displaydoc, symObjAddr: 0x894, symBinAddr: 0x1A824, symSize: 0x30 }
  - { offset: 0x7F458, size: 0x8, addend: 0x0, symName: __RINvYINtNtNtNtCsfvfooZQ3Axs_4core4iter8adapters6cloned6ClonedINtNtB8_7flatten7FlatMapINtNtCs6IAuOt8vWmF_3syn10punctuated4IterNtNtB1q_8generics14TypeParamBoundEINtNtBc_6option6OptionRNtB21_10TraitBoundENCNCNvNtCsfcpOYk5gj7s_10displaydoc6expand37extract_trait_constraints_from_source00EENtNtNtBa_6traits8iterator8Iterator7collectINtNtCse1nGBsou5OW_5alloc3vec3VecB2U_EEB3l_, symObjAddr: 0x97C, symBinAddr: 0x1A90C, symSize: 0x1C }
  - { offset: 0x7F4AA, size: 0x8, addend: 0x0, symName: __RNCINvXsK_NtNtNtCsfvfooZQ3Axs_4core4iter6traits5accumjNtB8_3Sum3sumINtNtNtBc_8adapters3map3MapINtNtNtBe_5slice4iter4IterNtNtCs6IAuOt8vWmF_3syn4attr9AttributeENCINvNvXs1_NtB18_6filterINtB2H_6FilterppENtNtBa_8iterator8Iterator5count8to_usizeRB1U_NCNvMs0_NtCsfcpOYk5gj7s_10displaydoc4attrNtB42_11AttrsHelper7displays_0E0EE0B44_, symObjAddr: 0x998, symBinAddr: 0x1A928, symSize: 0x48 }
  - { offset: 0x7F50B, size: 0x8, addend: 0x0, symName: __RNvXNtNtNtCsfvfooZQ3Axs_4core4iter6traits7collectINtNtNtB6_8adapters6cloned6ClonedINtNtBQ_7flatten7FlatMapINtNtCs6IAuOt8vWmF_3syn10punctuated4IterNtNtB1L_8generics14TypeParamBoundEINtNtB8_6option6OptionRNtB2m_10TraitBoundENCNCNvNtCsfcpOYk5gj7s_10displaydoc6expand37extract_trait_constraints_from_source00EENtB2_12IntoIterator9into_iterB3G_, symObjAddr: 0x195C, symBinAddr: 0x1B8EC, symSize: 0x30 }
  - { offset: 0x7F550, size: 0x8, addend: 0x0, symName: __RNvXsF_NtNtCsfvfooZQ3Axs_4core4iter5rangejNtB5_4Step13steps_betweenCsfcpOYk5gj7s_10displaydoc, symObjAddr: 0x219C, symBinAddr: 0x1C12C, symSize: 0xA4 }
  - { offset: 0x7F5AB, size: 0x8, addend: 0x0, symName: __RNvXsF_NtNtCsfvfooZQ3Axs_4core4iter5rangejNtB5_4Step17forward_uncheckedCsfcpOYk5gj7s_10displaydoc, symObjAddr: 0x2240, symBinAddr: 0x1C1D0, symSize: 0x48 }
  - { offset: 0x7F61B, size: 0x8, addend: 0x0, symName: __RNvXs_NtNtNtCsfvfooZQ3Axs_4core4iter8adapters6clonedINtB4_6ClonedINtNtB6_7flatten7FlatMapINtNtCs6IAuOt8vWmF_3syn10punctuated4IterNtNtB1u_8generics14TypeParamBoundEINtNtBa_6option6OptionRNtB25_10TraitBoundENCNCNvNtCsfcpOYk5gj7s_10displaydoc6expand37extract_trait_constraints_from_source00EENtNtNtB8_6traits8iterator8Iterator4nextB3p_, symObjAddr: 0x2378, symBinAddr: 0x1C308, symSize: 0x7C }
  - { offset: 0x7F68C, size: 0x8, addend: 0x0, symName: __RNvXs_NtNtNtCsfvfooZQ3Axs_4core4iter8adapters6clonedINtB4_6ClonedINtNtB6_7flatten7FlatMapINtNtCs6IAuOt8vWmF_3syn10punctuated4IterNtNtB1u_8generics14TypeParamBoundEINtNtBa_6option6OptionRNtB25_10TraitBoundENCNCNvNtCsfcpOYk5gj7s_10displaydoc6expand37extract_trait_constraints_from_source00EENtNtNtB8_6traits8iterator8Iterator9size_hintB3p_, symObjAddr: 0x23F4, symBinAddr: 0x1C384, symSize: 0x24 }
  - { offset: 0x7F84C, size: 0x8, addend: 0x0, symName: __RNvNtNtNtCsfvfooZQ3Axs_4core9core_arch7aarch644neon7vld1_u8CsfcpOYk5gj7s_10displaydoc, symObjAddr: 0x17DC, symBinAddr: 0x1B76C, symSize: 0x2C }
  - { offset: 0x7F87A, size: 0x8, addend: 0x0, symName: __RNvNtNtNtCsfvfooZQ3Axs_4core9core_arch7aarch644neon7vst1_u8CsfcpOYk5gj7s_10displaydoc, symObjAddr: 0x1808, symBinAddr: 0x1B798, symSize: 0x38 }
  - { offset: 0x7F90F, size: 0x8, addend: 0x0, symName: __RNvXNtCsfvfooZQ3Axs_4core6borrowNtCs3cP53eQoTwO_11proc_macro25IdentINtB2_6BorrowBu_E6borrowCsfcpOYk5gj7s_10displaydoc, symObjAddr: 0x1948, symBinAddr: 0x1B8D8, symSize: 0x14 }
  - { offset: 0x7FC38, size: 0x8, addend: 0x0, symName: __RNvXs5_NtNtCs9i5KxIbZ5ph_10proc_macro6bridge6bufferNtB5_6BufferNtNtNtCsfvfooZQ3Axs_4core3ops4drop4Drop4dropCsfcpOYk5gj7s_10displaydoc, symObjAddr: 0x1A0C, symBinAddr: 0x1B99C, symSize: 0x8C }
  - { offset: 0x7FE4E, size: 0x8, addend: 0x0, symName: __RINvNvNtNtCs9i5KxIbZ5ph_10proc_macro6bridge14selfless_reify31reify_to_extern_c_fn_hrt_bridge7wrapperNtNtB6_6buffer6BufferNCINvMs7_NtB6_6clientINtB24_6ClientNtB8_11TokenStreamB2u_E7expand1NvCsfcpOYk5gj7s_10displaydoc12derive_errorE0EB31_, symObjAddr: 0x838, symBinAddr: 0x1A7C8, symSize: 0x5C }
  - { offset: 0x802CB, size: 0x8, addend: 0x0, symName: __RINvXs4_Cs3cP53eQoTwO_11proc_macro2NtB6_11TokenStreamINtNtNtNtCsfvfooZQ3Axs_4core4iter6traits7collect6ExtendNtB6_9TokenTreeE6extendBx_ECsfcpOYk5gj7s_10displaydoc, symObjAddr: 0x8C4, symBinAddr: 0x1A854, symSize: 0x34 }
  - { offset: 0x80314, size: 0x8, addend: 0x0, symName: __RINvXsz_Cs3cP53eQoTwO_11proc_macro2NtB6_5IdentNtNtCsfvfooZQ3Axs_4core4hash4Hash4hashNtNtNtCscOYdFFY2T5N_3std4hash6random13DefaultHasherECsfcpOYk5gj7s_10displaydoc, symObjAddr: 0x8F8, symBinAddr: 0x1A888, symSize: 0x84 }
  - { offset: 0x80838, size: 0x8, addend: 0x0, symName: __RNvXsG_Cs3cP53eQoTwO_11proc_macro2NtB5_11TokenStreamNtNtCsfvfooZQ3Axs_4core5clone5Clone5cloneCsfcpOYk5gj7s_10displaydoc, symObjAddr: 0x2288, symBinAddr: 0x1C218, symSize: 0x78 }
  - { offset: 0x8086A, size: 0x8, addend: 0x0, symName: __RNvXsY_Cs3cP53eQoTwO_11proc_macro2NtB5_5IdentNtNtCsfvfooZQ3Axs_4core5clone5Clone5cloneCsfcpOYk5gj7s_10displaydoc, symObjAddr: 0x2300, symBinAddr: 0x1C290, symSize: 0x78 }
  - { offset: 0x808F4, size: 0x8, addend: 0x0, symName: __RINvMs2_NtNtCscOYdFFY2T5N_3std6thread5localINtB6_8LocalKeyINtNtCsfvfooZQ3Axs_4core4cell4CellPuEE4withNCNvMs3_B6_BF_7replace0B1s_ECsfcpOYk5gj7s_10displaydoc, symObjAddr: 0x0, symBinAddr: 0x19F90, symSize: 0x54 }
  - { offset: 0x809AD, size: 0x8, addend: 0x0, symName: __RINvMs2_NtNtCscOYdFFY2T5N_3std6thread5localINtB6_8LocalKeyINtNtCsfvfooZQ3Axs_4core4cell4CellPuEE8try_withNCNvMs3_B6_BF_7replace0B1s_ECsfcpOYk5gj7s_10displaydoc, symObjAddr: 0x54, symBinAddr: 0x19FE4, symSize: 0xE4 }
  - { offset: 0x80B3F, size: 0x8, addend: 0x0, symName: __RINvMs2_NtNtCscOYdFFY2T5N_3std6thread5localINtB6_8LocalKeyINtNtCsfvfooZQ3Axs_4core4cell4CellTyyEEE4withNCNvMNtNtBa_4hash6randomNtB1I_11RandomState3new0B21_ECsfcpOYk5gj7s_10displaydoc, symObjAddr: 0x138, symBinAddr: 0x1A0C8, symSize: 0x50 }
  - { offset: 0x80BF8, size: 0x8, addend: 0x0, symName: __RINvMs2_NtNtCscOYdFFY2T5N_3std6thread5localINtB6_8LocalKeyINtNtCsfvfooZQ3Axs_4core4cell4CellTyyEEE8try_withNCNvMNtNtBa_4hash6randomNtB1M_11RandomState3new0B25_ECsfcpOYk5gj7s_10displaydoc, symObjAddr: 0x188, symBinAddr: 0x1A118, symSize: 0xE8 }
  - { offset: 0x80DE6, size: 0x8, addend: 0x0, symName: __RINvMs3_NtNtCs9i5KxIbZ5ph_10proc_macro6bridge6bufferNtB6_6Buffer17extend_from_arrayKj4_ECsfcpOYk5gj7s_10displaydoc, symObjAddr: 0x270, symBinAddr: 0x1A200, symSize: 0x16C }
  - { offset: 0x80FAC, size: 0x8, addend: 0x0, symName: __RINvMs3_NtNtCs9i5KxIbZ5ph_10proc_macro6bridge6bufferNtB6_6Buffer17extend_from_arrayKj8_ECsfcpOYk5gj7s_10displaydoc, symObjAddr: 0x3DC, symBinAddr: 0x1A36C, symSize: 0x16C }
  - { offset: 0x81463, size: 0x8, addend: 0x0, symName: __RNvXs6_NtCse1nGBsou5OW_5alloc5boxedINtB5_3BoxDNtNtCsfvfooZQ3Axs_4core5error5ErrorNtNtBM_6marker4SendNtB1j_4SyncEL_ENtNtNtBM_3ops4drop4Drop4dropCsfcpOYk5gj7s_10displaydoc, symObjAddr: 0x1A98, symBinAddr: 0x1BA28, symSize: 0xC4 }
  - { offset: 0x8159A, size: 0x8, addend: 0x0, symName: __RNvXs6_NtCse1nGBsou5OW_5alloc5boxedINtB5_3BoxINtNtCs6IAuOt8vWmF_3syn5drops6NoDropDINtNtBM_10punctuated12IterMutTraitNtNtBM_8generics14WherePredicateEp4ItemQB1Q_EL_EENtNtNtCsfvfooZQ3Axs_4core3ops4drop4Drop4dropCsfcpOYk5gj7s_10displaydoc, symObjAddr: 0x1B5C, symBinAddr: 0x1BAEC, symSize: 0x118 }
  - { offset: 0x816D1, size: 0x8, addend: 0x0, symName: __RNvXs6_NtCse1nGBsou5OW_5alloc5boxedINtB5_3BoxINtNtCs6IAuOt8vWmF_3syn5drops6NoDropDINtNtBM_10punctuated9IterTraitNtNtBM_4data5FieldEp4ItemRB1M_EL_EENtNtNtCsfvfooZQ3Axs_4core3ops4drop4Drop4dropCsfcpOYk5gj7s_10displaydoc, symObjAddr: 0x1C74, symBinAddr: 0x1BC04, symSize: 0x118 }
  - { offset: 0x81808, size: 0x8, addend: 0x0, symName: __RNvXs6_NtCse1nGBsou5OW_5alloc5boxedINtB5_3BoxINtNtCs6IAuOt8vWmF_3syn5drops6NoDropDINtNtBM_10punctuated9IterTraitNtNtBM_4data7VariantEp4ItemRB1M_EL_EENtNtNtCsfvfooZQ3Axs_4core3ops4drop4Drop4dropCsfcpOYk5gj7s_10displaydoc, symObjAddr: 0x1D8C, symBinAddr: 0x1BD1C, symSize: 0x118 }
  - { offset: 0x8193F, size: 0x8, addend: 0x0, symName: __RNvXs6_NtCse1nGBsou5OW_5alloc5boxedINtB5_3BoxINtNtCs6IAuOt8vWmF_3syn5drops6NoDropDINtNtBM_10punctuated9IterTraitNtNtBM_8generics12GenericParamEp4ItemRB1M_EL_EENtNtNtCsfvfooZQ3Axs_4core3ops4drop4Drop4dropCsfcpOYk5gj7s_10displaydoc, symObjAddr: 0x1EA4, symBinAddr: 0x1BE34, symSize: 0x118 }
  - { offset: 0x81A76, size: 0x8, addend: 0x0, symName: __RNvXs6_NtCse1nGBsou5OW_5alloc5boxedINtB5_3BoxINtNtCs6IAuOt8vWmF_3syn5drops6NoDropDINtNtBM_10punctuated9IterTraitNtNtBM_8generics14WherePredicateEp4ItemRB1M_EL_EENtNtNtCsfvfooZQ3Axs_4core3ops4drop4Drop4dropCsfcpOYk5gj7s_10displaydoc, symObjAddr: 0x1FBC, symBinAddr: 0x1BF4C, symSize: 0x118 }
  - { offset: 0x81BAD, size: 0x8, addend: 0x0, symName: __RNvXs6_NtCse1nGBsou5OW_5alloc5boxedINtB5_3BoxNtNtNtCscOYdFFY2T5N_3std2io5error6CustomENtNtNtCsfvfooZQ3Axs_4core3ops4drop4Drop4dropCsfcpOYk5gj7s_10displaydoc, symObjAddr: 0x20D4, symBinAddr: 0x1C064, symSize: 0xB0 }
  - { offset: 0x81CEA, size: 0x8, addend: 0x0, symName: __RNvXsC_NtCse1nGBsou5OW_5alloc5boxedINtB5_3BoxNtNtCs6IAuOt8vWmF_3syn8generics14WherePredicateEINtNtCsfvfooZQ3Axs_4core7convert5AsMutBH_E6as_mutCsfcpOYk5gj7s_10displaydoc, symObjAddr: 0x2184, symBinAddr: 0x1C114, symSize: 0x18 }
  - { offset: 0x82B06, size: 0x8, addend: 0x0, symName: __RNvXNtCs2cqEZUIJimJ_5quote9to_tokensRNtCs3cP53eQoTwO_11proc_macro211TokenStreamNtB2_8ToTokens9to_tokensCsfcpOYk5gj7s_10displaydoc, symObjAddr: 0x18C8, symBinAddr: 0x1B858, symSize: 0x40 }
  - { offset: 0x82B45, size: 0x8, addend: 0x0, symName: __RNvXNtCs2cqEZUIJimJ_5quote9to_tokensRNtCs3cP53eQoTwO_11proc_macro25IdentNtB2_8ToTokens9to_tokensCsfcpOYk5gj7s_10displaydoc, symObjAddr: 0x1908, symBinAddr: 0x1B898, symSize: 0x40 }
  - { offset: 0x82B94, size: 0x8, addend: 0x0, symName: __RNvMNtNtCs2cqEZUIJimJ_5quote9___private8get_spanINtB2_7GetSpanNtCs3cP53eQoTwO_11proc_macro24SpanE11___into_spanCsfcpOYk5gj7s_10displaydoc, symObjAddr: 0xA64, symBinAddr: 0x1A9F4, symSize: 0x20 }
  - { offset: 0x82C76, size: 0x8, addend: 0x0, symName: __RNvXCsloNvcHxBCre_9hashbrownNtCs3cP53eQoTwO_11proc_macro25IdentINtB2_10EquivalentBq_E10equivalentCsfcpOYk5gj7s_10displaydoc, symObjAddr: 0x1878, symBinAddr: 0x1B808, symSize: 0x50 }
  - { offset: 0x82CE9, size: 0x8, addend: 0x0, symName: __RNvMNtNtNtCsloNvcHxBCre_9hashbrown7control5group4neonNtB2_5Group10match_fullCsfcpOYk5gj7s_10displaydoc, symObjAddr: 0xA84, symBinAddr: 0x1AA14, symSize: 0x68 }
  - { offset: 0x82D21, size: 0x8, addend: 0x0, symName: __RNvMNtNtNtCsloNvcHxBCre_9hashbrown7control5group4neonNtB2_5Group22match_empty_or_deletedCsfcpOYk5gj7s_10displaydoc, symObjAddr: 0xAEC, symBinAddr: 0x1AA7C, symSize: 0x68 }
  - { offset: 0x82D59, size: 0x8, addend: 0x0, symName: __RNvMNtNtNtCsloNvcHxBCre_9hashbrown7control5group4neonNtB2_5Group44convert_special_to_empty_and_full_to_deletedCsfcpOYk5gj7s_10displaydoc, symObjAddr: 0xB54, symBinAddr: 0x1AAE4, symSize: 0x88 }
  - { offset: 0x82D91, size: 0x8, addend: 0x0, symName: __RNvMNtNtNtCsloNvcHxBCre_9hashbrown7control5group4neonNtB2_5Group9match_tagCsfcpOYk5gj7s_10displaydoc, symObjAddr: 0xBDC, symBinAddr: 0x1AB6C, symSize: 0x7C }
  - { offset: 0x82E41, size: 0x8, addend: 0x0, symName: __RNvXNtCsfcpOYk5gj7s_10displaydoc4attrNtB2_7DisplayNtNtCs2cqEZUIJimJ_5quote9to_tokens8ToTokens9to_tokens, symObjAddr: 0x2418, symBinAddr: 0x1C3A8, symSize: 0x154 }
  - { offset: 0x82ED2, size: 0x8, addend: 0x0, symName: __RNvXs_NtCsfcpOYk5gj7s_10displaydoc4attrNtB4_14VariantDisplayNtNtCs2cqEZUIJimJ_5quote9to_tokens8ToTokens9to_tokens, symObjAddr: 0x256C, symBinAddr: 0x1C4FC, symSize: 0x1D4 }
  - { offset: 0x82FC3, size: 0x8, addend: 0x0, symName: __RNCNvMs0_NtCsfcpOYk5gj7s_10displaydoc4attrNtB7_11AttrsHelper3new0B9_, symObjAddr: 0x27CC, symBinAddr: 0x1C75C, symSize: 0x54 }
  - { offset: 0x82FF9, size: 0x8, addend: 0x0, symName: __RNCNvMs0_NtCsfcpOYk5gj7s_10displaydoc4attrNtB7_11AttrsHelper3news_0B9_, symObjAddr: 0x2820, symBinAddr: 0x1C7B0, symSize: 0x54 }
  - { offset: 0x83043, size: 0x8, addend: 0x0, symName: __RNCNvMs0_NtCsfcpOYk5gj7s_10displaydoc4attrNtB7_11AttrsHelper7display0B9_, symObjAddr: 0x2E3C, symBinAddr: 0x1CDCC, symSize: 0x50 }
  - { offset: 0x83079, size: 0x8, addend: 0x0, symName: __RNCNvMs0_NtCsfcpOYk5gj7s_10displaydoc4attrNtB7_11AttrsHelper7displays_0B9_, symObjAddr: 0x2E8C, symBinAddr: 0x1CE1C, symSize: 0x50 }
  - { offset: 0x830AF, size: 0x8, addend: 0x0, symName: __RNCNvMs0_NtCsfcpOYk5gj7s_10displaydoc4attrNtB7_11AttrsHelper7displays0_0B9_, symObjAddr: 0x2EDC, symBinAddr: 0x1CE6C, symSize: 0x54 }
  - { offset: 0x83100, size: 0x8, addend: 0x0, symName: __RNCNvMs0_NtCsfcpOYk5gj7s_10displaydoc4attrNtB7_11AttrsHelper18display_with_input0B9_, symObjAddr: 0x31FC, symBinAddr: 0x1D18C, symSize: 0x78 }
  - { offset: 0x83145, size: 0x8, addend: 0x0, symName: __RNvNtCsfcpOYk5gj7s_10displaydoc3fmt8take_int, symObjAddr: 0x39A8, symBinAddr: 0x1D938, symSize: 0x204 }
  - { offset: 0x831C1, size: 0x8, addend: 0x0, symName: __RNvNtCsfcpOYk5gj7s_10displaydoc3fmt10take_ident, symObjAddr: 0x3BAC, symBinAddr: 0x1DB3C, symSize: 0x26C }
  - { offset: 0x8804A, size: 0x8, addend: 0x0, symName: __RNvMs1_NtNtCsfvfooZQ3Axs_4core3ptr8non_nullINtB5_7NonNullINtNtB9_6option6OptionNtNtCsfcpOYk5gj7s_10displaydoc4attr14VariantDisplayEE7sub_ptrB1j_, symObjAddr: 0xC58, symBinAddr: 0x1ABE8, symSize: 0x74 }
  - { offset: 0x88612, size: 0x8, addend: 0x0, symName: __RNvMs1_NtNtCsfvfooZQ3Axs_4core3ptr8non_nullINtB5_7NonNullRNtNtCs6IAuOt8vWmF_3syn8generics9TypeParamE7sub_ptrCsfcpOYk5gj7s_10displaydoc, symObjAddr: 0xCCC, symBinAddr: 0x1AC5C, symSize: 0x74 }
  - { offset: 0x88718, size: 0x8, addend: 0x0, symName: __RNvMs1_NtNtCsfvfooZQ3Axs_4core3ptr8non_nullINtB5_7NonNullTNtNtCs6IAuOt8vWmF_3syn4data7VariantNtNtBY_5token5CommaEE7sub_ptrCsfcpOYk5gj7s_10displaydoc, symObjAddr: 0xD40, symBinAddr: 0x1ACD0, symSize: 0x74 }
  - { offset: 0x8881E, size: 0x8, addend: 0x0, symName: __RNvMs1_NtNtCsfvfooZQ3Axs_4core3ptr8non_nullINtB5_7NonNullTNtNtCs6IAuOt8vWmF_3syn8generics14WherePredicateNtNtBY_5token5CommaEE7sub_ptrCsfcpOYk5gj7s_10displaydoc, symObjAddr: 0xDB4, symBinAddr: 0x1AD44, symSize: 0x74 }
  - { offset: 0x88900, size: 0x8, addend: 0x0, symName: __RNvMs3_NtNtCs9i5KxIbZ5ph_10proc_macro6bridge6bufferNtB5_6Buffer17extend_from_sliceCsfcpOYk5gj7s_10displaydoc, symObjAddr: 0xE28, symBinAddr: 0x1ADB8, symSize: 0x164 }
  - { offset: 0x88ABC, size: 0x8, addend: 0x0, symName: __RNvMs3_NtNtCs9i5KxIbZ5ph_10proc_macro6bridge6bufferNtB5_6Buffer4pushCsfcpOYk5gj7s_10displaydoc, symObjAddr: 0xF8C, symBinAddr: 0x1AF1C, symSize: 0x134 }
  - { offset: 0x89172, size: 0x8, addend: 0x0, symName: __RNvMs0_NtCsfcpOYk5gj7s_10displaydoc4attrNtB5_11AttrsHelper3new, symObjAddr: 0x2740, symBinAddr: 0x1C6D0, symSize: 0x8C }
  - { offset: 0x891BE, size: 0x8, addend: 0x0, symName: __RNvMs0_NtCsfcpOYk5gj7s_10displaydoc4attrNtB5_11AttrsHelper7display, symObjAddr: 0x2874, symBinAddr: 0x1C804, symSize: 0x5C8 }
  - { offset: 0x892F6, size: 0x8, addend: 0x0, symName: __RNvMs0_NtCsfcpOYk5gj7s_10displaydoc4attrNtB5_11AttrsHelper18display_with_input, symObjAddr: 0x2F30, symBinAddr: 0x1CEC0, symSize: 0x2CC }
  - { offset: 0x893B2, size: 0x8, addend: 0x0, symName: __RNvMNtCsfcpOYk5gj7s_10displaydoc3fmtNtNtB4_4attr7Display16expand_shorthand, symObjAddr: 0x3274, symBinAddr: 0x1D204, symSize: 0x734 }
  - { offset: 0x89841, size: 0x8, addend: 0x0, symName: __RINvXNtNtCse1nGBsou5OW_5alloc5slice4hackNtNtCs6IAuOt8vWmF_3syn4item11ForeignItemNtB3_10ConvertVec6to_vecNtNtB7_5alloc6GlobalEBG_, symObjAddr: 0x0, symBinAddr: 0x1DDBC, symSize: 0x36C }
  - { offset: 0x8ADB8, size: 0x8, addend: 0x0, symName: __RNvXNtNtCs6IAuOt8vWmF_3syn4item7parsingNtB4_4ItemNtNtB6_5parse5Parse5parse, symObjAddr: 0x34B4, symBinAddr: 0x1F7C4, symSize: 0x1B4 }
  - { offset: 0x8AE5E, size: 0x8, addend: 0x0, symName: __RNvXs0_NtNtCs6IAuOt8vWmF_3syn4item7parsingNtB7_9ItemMacroNtNtB9_5parse5Parse5parse, symObjAddr: 0x3668, symBinAddr: 0x1F978, symSize: 0x620 }
  - { offset: 0x8B02C, size: 0x8, addend: 0x0, symName: __RNvXs1_NtNtCs6IAuOt8vWmF_3syn4item7parsingNtB7_15ItemExternCrateNtNtB9_5parse5Parse5parse, symObjAddr: 0x3C88, symBinAddr: 0x1FF98, symSize: 0x93C }
  - { offset: 0x8B236, size: 0x8, addend: 0x0, symName: __RNvXs3_NtNtCs6IAuOt8vWmF_3syn4item7parsingNtB7_7UseTreeNtNtB9_5parse5Parse5parse, symObjAddr: 0x461C, symBinAddr: 0x208D4, symSize: 0x58 }
  - { offset: 0x8B288, size: 0x8, addend: 0x0, symName: __RNvXs6_NtNtCs6IAuOt8vWmF_3syn4item7parsingNtB7_9SignatureNtNtB9_5parse5Parse5parse, symObjAddr: 0x5B9C, symBinAddr: 0x2092C, symSize: 0x60 }
  - { offset: 0x8B2DA, size: 0x8, addend: 0x0, symName: __RNvXs9_NtNtCs6IAuOt8vWmF_3syn4item7parsingNtB7_8ReceiverNtNtB9_5parse5Parse5parse, symObjAddr: 0x622C, symBinAddr: 0x2098C, symSize: 0x95C }
  - { offset: 0x8B533, size: 0x8, addend: 0x0, symName: __RNvXsa_NtNtCs6IAuOt8vWmF_3syn4item7parsingNtB7_7ItemModNtNtB9_5parse5Parse5parse, symObjAddr: 0x6B88, symBinAddr: 0x212E8, symSize: 0xC34 }
  - { offset: 0x8B796, size: 0x8, addend: 0x0, symName: __RNvXsb_NtNtCs6IAuOt8vWmF_3syn4item7parsingNtB7_14ItemForeignModNtNtB9_5parse5Parse5parse, symObjAddr: 0x77BC, symBinAddr: 0x21F1C, symSize: 0x610 }
  - { offset: 0x8B947, size: 0x8, addend: 0x0, symName: __RNvXsc_NtNtCs6IAuOt8vWmF_3syn4item7parsingNtB7_11ForeignItemNtNtB9_5parse5Parse5parse, symObjAddr: 0x7DCC, symBinAddr: 0x2252C, symSize: 0x1D80 }
  - { offset: 0x8BFB7, size: 0x8, addend: 0x0, symName: __RNvXsg_NtNtCs6IAuOt8vWmF_3syn4item7parsingNtB7_16ForeignItemMacroNtNtB9_5parse5Parse5parse, symObjAddr: 0xAE74, symBinAddr: 0x242AC, symSize: 0x32C }
  - { offset: 0x8C0CB, size: 0x8, addend: 0x0, symName: __RNvXsi_NtNtCs6IAuOt8vWmF_3syn4item7parsingNtB7_10ItemStructNtNtB9_5parse5Parse5parse, symObjAddr: 0xBB78, symBinAddr: 0x245D8, symSize: 0x638 }
  - { offset: 0x8C2C8, size: 0x8, addend: 0x0, symName: __RNvXsj_NtNtCs6IAuOt8vWmF_3syn4item7parsingNtB7_8ItemEnumNtNtB9_5parse5Parse5parse, symObjAddr: 0xC1B0, symBinAddr: 0x24C10, symSize: 0x63C }
  - { offset: 0x8C4C5, size: 0x8, addend: 0x0, symName: __RNvXsk_NtNtCs6IAuOt8vWmF_3syn4item7parsingNtB7_9ItemUnionNtNtB9_5parse5Parse5parse, symObjAddr: 0xC7EC, symBinAddr: 0x2524C, symSize: 0x62C }
  - { offset: 0x8C6B1, size: 0x8, addend: 0x0, symName: __RNvXsl_NtNtCs6IAuOt8vWmF_3syn4item7parsingNtB7_9ItemTraitNtNtB9_5parse5Parse5parse, symObjAddr: 0xCE18, symBinAddr: 0x25878, symSize: 0x634 }
  - { offset: 0x8C8B8, size: 0x8, addend: 0x0, symName: __RNvXsn_NtNtCs6IAuOt8vWmF_3syn4item7parsingNtB7_9TraitItemNtNtB9_5parse5Parse5parse, symObjAddr: 0xD6BC, symBinAddr: 0x25EAC, symSize: 0x1654 }
  - { offset: 0x8CD2D, size: 0x8, addend: 0x0, symName: __RNvXsp_NtNtCs6IAuOt8vWmF_3syn4item7parsingNtB7_11TraitItemFnNtNtB9_5parse5Parse5parse, symObjAddr: 0xF584, symBinAddr: 0x27500, symSize: 0x7DC }
  - { offset: 0x8CF31, size: 0x8, addend: 0x0, symName: __RNvXsr_NtNtCs6IAuOt8vWmF_3syn4item7parsingNtB7_14TraitItemMacroNtNtB9_5parse5Parse5parse, symObjAddr: 0x10484, symBinAddr: 0x27CDC, symSize: 0x32C }
  - { offset: 0x8D045, size: 0x8, addend: 0x0, symName: __RNvXst_NtNtCs6IAuOt8vWmF_3syn4item7parsingNtB7_8ImplItemNtNtB9_5parse5Parse5parse, symObjAddr: 0x10810, symBinAddr: 0x28008, symSize: 0x1A78 }
  - { offset: 0x8D567, size: 0x8, addend: 0x0, symName: __RNvXsx_NtNtCs6IAuOt8vWmF_3syn4item7parsingNtB7_13ImplItemMacroNtNtB9_5parse5Parse5parse, symObjAddr: 0x134F8, symBinAddr: 0x29A80, symSize: 0x32C }
  - { offset: 0x8D67B, size: 0x8, addend: 0x0, symName: __RNvXsz_NtNtCs6IAuOt8vWmF_3syn4item7parsingNtB7_16StaticMutabilityNtNtB9_5parse5Parse5parse, symObjAddr: 0x13824, symBinAddr: 0x29DAC, symSize: 0xDC }
  - { offset: 0x8D6F1, size: 0x8, addend: 0x0, symName: __RNvXNtNtCs6IAuOt8vWmF_3syn4item8printingNtB4_15ItemExternCrateNtNtCs2cqEZUIJimJ_5quote9to_tokens8ToTokens9to_tokens, symObjAddr: 0x13900, symBinAddr: 0x29E88, symSize: 0x110 }
  - { offset: 0x8D75E, size: 0x8, addend: 0x0, symName: __RNvXs_NtNtCs6IAuOt8vWmF_3syn4item8printingNtB6_7ItemUseNtNtCs2cqEZUIJimJ_5quote9to_tokens8ToTokens9to_tokens, symObjAddr: 0x13A10, symBinAddr: 0x29F98, symSize: 0xA4 }
  - { offset: 0x8D79D, size: 0x8, addend: 0x0, symName: __RNvXs0_NtNtCs6IAuOt8vWmF_3syn4item8printingNtB7_10ItemStaticNtNtCs2cqEZUIJimJ_5quote9to_tokens8ToTokens9to_tokens, symObjAddr: 0x13AB4, symBinAddr: 0x2A03C, symSize: 0xE4 }
  - { offset: 0x8D7DC, size: 0x8, addend: 0x0, symName: __RNvXs1_NtNtCs6IAuOt8vWmF_3syn4item8printingNtB7_9ItemConstNtNtCs2cqEZUIJimJ_5quote9to_tokens8ToTokens9to_tokens, symObjAddr: 0x13B98, symBinAddr: 0x2A120, symSize: 0xD4 }
  - { offset: 0x8D81B, size: 0x8, addend: 0x0, symName: __RNvXs2_NtNtCs6IAuOt8vWmF_3syn4item8printingNtB7_6ItemFnNtNtCs2cqEZUIJimJ_5quote9to_tokens8ToTokens9to_tokens, symObjAddr: 0x13C6C, symBinAddr: 0x2A1F4, symSize: 0xB4 }
  - { offset: 0x8D85A, size: 0x8, addend: 0x0, symName: __RNvXs3_NtNtCs6IAuOt8vWmF_3syn4item8printingNtB7_7ItemModNtNtCs2cqEZUIJimJ_5quote9to_tokens8ToTokens9to_tokens, symObjAddr: 0x13D20, symBinAddr: 0x2A2A8, symSize: 0x110 }
  - { offset: 0x8D8C7, size: 0x8, addend: 0x0, symName: __RNvXs4_NtNtCs6IAuOt8vWmF_3syn4item8printingNtB7_14ItemForeignModNtNtCs2cqEZUIJimJ_5quote9to_tokens8ToTokens9to_tokens, symObjAddr: 0x13E30, symBinAddr: 0x2A3B8, symSize: 0x88 }
  - { offset: 0x8D906, size: 0x8, addend: 0x0, symName: __RNvXs5_NtNtCs6IAuOt8vWmF_3syn4item8printingNtB7_8ItemTypeNtNtCs2cqEZUIJimJ_5quote9to_tokens8ToTokens9to_tokens, symObjAddr: 0x13EB8, symBinAddr: 0x2A440, symSize: 0xD4 }
  - { offset: 0x8D945, size: 0x8, addend: 0x0, symName: __RNvXs6_NtNtCs6IAuOt8vWmF_3syn4item8printingNtB7_8ItemEnumNtNtCs2cqEZUIJimJ_5quote9to_tokens8ToTokens9to_tokens, symObjAddr: 0x13F8C, symBinAddr: 0x2A514, symSize: 0xB8 }
  - { offset: 0x8D984, size: 0x8, addend: 0x0, symName: __RNvXs7_NtNtCs6IAuOt8vWmF_3syn4item8printingNtB7_10ItemStructNtNtCs2cqEZUIJimJ_5quote9to_tokens8ToTokens9to_tokens, symObjAddr: 0x14044, symBinAddr: 0x2A5CC, symSize: 0x188 }
  - { offset: 0x8D9FF, size: 0x8, addend: 0x0, symName: __RNvXs8_NtNtCs6IAuOt8vWmF_3syn4item8printingNtB7_9ItemUnionNtNtCs2cqEZUIJimJ_5quote9to_tokens8ToTokens9to_tokens, symObjAddr: 0x141CC, symBinAddr: 0x2A754, symSize: 0xB4 }
  - { offset: 0x8DA3E, size: 0x8, addend: 0x0, symName: __RNvXs9_NtNtCs6IAuOt8vWmF_3syn4item8printingNtB7_9ItemTraitNtNtCs2cqEZUIJimJ_5quote9to_tokens8ToTokens9to_tokens, symObjAddr: 0x14280, symBinAddr: 0x2A808, symSize: 0x130 }
  - { offset: 0x8DA7D, size: 0x8, addend: 0x0, symName: __RNvXsa_NtNtCs6IAuOt8vWmF_3syn4item8printingNtB7_14ItemTraitAliasNtNtCs2cqEZUIJimJ_5quote9to_tokens8ToTokens9to_tokens, symObjAddr: 0x143B0, symBinAddr: 0x2A938, symSize: 0xD4 }
  - { offset: 0x8DABC, size: 0x8, addend: 0x0, symName: __RNvXsb_NtNtCs6IAuOt8vWmF_3syn4item8printingNtB7_8ItemImplNtNtCs2cqEZUIJimJ_5quote9to_tokens8ToTokens9to_tokens, symObjAddr: 0x14484, symBinAddr: 0x2AA0C, symSize: 0x14C }
  - { offset: 0x8DB39, size: 0x8, addend: 0x0, symName: __RNvXsc_NtNtCs6IAuOt8vWmF_3syn4item8printingNtB7_9ItemMacroNtNtCs2cqEZUIJimJ_5quote9to_tokens8ToTokens9to_tokens, symObjAddr: 0x145D0, symBinAddr: 0x2AB58, symSize: 0x148 }
  - { offset: 0x8DBCA, size: 0x8, addend: 0x0, symName: __RNvXsd_NtNtCs6IAuOt8vWmF_3syn4item8printingNtB7_7UsePathNtNtCs2cqEZUIJimJ_5quote9to_tokens8ToTokens9to_tokens, symObjAddr: 0x14718, symBinAddr: 0x2ACA0, symSize: 0x60 }
  - { offset: 0x8DC09, size: 0x8, addend: 0x0, symName: __RNvXse_NtNtCs6IAuOt8vWmF_3syn4item8printingNtB7_7UseNameNtNtCs2cqEZUIJimJ_5quote9to_tokens8ToTokens9to_tokens, symObjAddr: 0x14778, symBinAddr: 0x2AD00, symSize: 0x3C }
  - { offset: 0x8DC48, size: 0x8, addend: 0x0, symName: __RNvXsf_NtNtCs6IAuOt8vWmF_3syn4item8printingNtB7_9UseRenameNtNtCs2cqEZUIJimJ_5quote9to_tokens8ToTokens9to_tokens, symObjAddr: 0x147B4, symBinAddr: 0x2AD3C, symSize: 0x60 }
  - { offset: 0x8DC87, size: 0x8, addend: 0x0, symName: __RNvXsg_NtNtCs6IAuOt8vWmF_3syn4item8printingNtB7_7UseGlobNtNtCs2cqEZUIJimJ_5quote9to_tokens8ToTokens9to_tokens, symObjAddr: 0x14814, symBinAddr: 0x2AD9C, symSize: 0x3C }
  - { offset: 0x8DCC6, size: 0x8, addend: 0x0, symName: __RNvXsh_NtNtCs6IAuOt8vWmF_3syn4item8printingNtB7_8UseGroupNtNtCs2cqEZUIJimJ_5quote9to_tokens8ToTokens9to_tokens, symObjAddr: 0x14850, symBinAddr: 0x2ADD8, symSize: 0x44 }
  - { offset: 0x8DD05, size: 0x8, addend: 0x0, symName: __RNvXsi_NtNtCs6IAuOt8vWmF_3syn4item8printingNtB7_14TraitItemConstNtNtCs2cqEZUIJimJ_5quote9to_tokens8ToTokens9to_tokens, symObjAddr: 0x14894, symBinAddr: 0x2AE1C, symSize: 0x110 }
  - { offset: 0x8DD72, size: 0x8, addend: 0x0, symName: __RNvXsj_NtNtCs6IAuOt8vWmF_3syn4item8printingNtB7_11TraitItemFnNtNtCs2cqEZUIJimJ_5quote9to_tokens8ToTokens9to_tokens, symObjAddr: 0x149A4, symBinAddr: 0x2AF2C, symSize: 0xD4 }
  - { offset: 0x8DDCF, size: 0x8, addend: 0x0, symName: __RNvXsk_NtNtCs6IAuOt8vWmF_3syn4item8printingNtB7_13TraitItemTypeNtNtCs2cqEZUIJimJ_5quote9to_tokens8ToTokens9to_tokens, symObjAddr: 0x14A78, symBinAddr: 0x2B000, symSize: 0x168 }
  - { offset: 0x8DE3C, size: 0x8, addend: 0x0, symName: __RNvXsl_NtNtCs6IAuOt8vWmF_3syn4item8printingNtB7_14TraitItemMacroNtNtCs2cqEZUIJimJ_5quote9to_tokens8ToTokens9to_tokens, symObjAddr: 0x14BE0, symBinAddr: 0x2B168, symSize: 0x74 }
  - { offset: 0x8DE7B, size: 0x8, addend: 0x0, symName: __RNvXsm_NtNtCs6IAuOt8vWmF_3syn4item8printingNtB7_13ImplItemConstNtNtCs2cqEZUIJimJ_5quote9to_tokens8ToTokens9to_tokens, symObjAddr: 0x14C54, symBinAddr: 0x2B1DC, symSize: 0xE4 }
  - { offset: 0x8DEBA, size: 0x8, addend: 0x0, symName: __RNvXsn_NtNtCs6IAuOt8vWmF_3syn4item8printingNtB7_10ImplItemFnNtNtCs2cqEZUIJimJ_5quote9to_tokens8ToTokens9to_tokens, symObjAddr: 0x14D38, symBinAddr: 0x2B2C0, symSize: 0x98 }
  - { offset: 0x8DEF9, size: 0x8, addend: 0x0, symName: __RNvXso_NtNtCs6IAuOt8vWmF_3syn4item8printingNtB7_12ImplItemTypeNtNtCs2cqEZUIJimJ_5quote9to_tokens8ToTokens9to_tokens, symObjAddr: 0x14DD0, symBinAddr: 0x2B358, symSize: 0xE4 }
  - { offset: 0x8DF38, size: 0x8, addend: 0x0, symName: __RNvXsp_NtNtCs6IAuOt8vWmF_3syn4item8printingNtB7_13ImplItemMacroNtNtCs2cqEZUIJimJ_5quote9to_tokens8ToTokens9to_tokens, symObjAddr: 0x14EB4, symBinAddr: 0x2B43C, symSize: 0x74 }
  - { offset: 0x8DF77, size: 0x8, addend: 0x0, symName: __RNvXsq_NtNtCs6IAuOt8vWmF_3syn4item8printingNtB7_13ForeignItemFnNtNtCs2cqEZUIJimJ_5quote9to_tokens8ToTokens9to_tokens, symObjAddr: 0x14F28, symBinAddr: 0x2B4B0, symSize: 0x84 }
  - { offset: 0x8DFB6, size: 0x8, addend: 0x0, symName: __RNvXsr_NtNtCs6IAuOt8vWmF_3syn4item8printingNtB7_17ForeignItemStaticNtNtCs2cqEZUIJimJ_5quote9to_tokens8ToTokens9to_tokens, symObjAddr: 0x14FAC, symBinAddr: 0x2B534, symSize: 0xC4 }
  - { offset: 0x8DFF5, size: 0x8, addend: 0x0, symName: __RNvXss_NtNtCs6IAuOt8vWmF_3syn4item8printingNtB7_15ForeignItemTypeNtNtCs2cqEZUIJimJ_5quote9to_tokens8ToTokens9to_tokens, symObjAddr: 0x15070, symBinAddr: 0x2B5F8, symSize: 0xB4 }
  - { offset: 0x8E034, size: 0x8, addend: 0x0, symName: __RNvXst_NtNtCs6IAuOt8vWmF_3syn4item8printingNtB7_16ForeignItemMacroNtNtCs2cqEZUIJimJ_5quote9to_tokens8ToTokens9to_tokens, symObjAddr: 0x15124, symBinAddr: 0x2B6AC, symSize: 0x74 }
  - { offset: 0x8E073, size: 0x8, addend: 0x0, symName: __RNvXsu_NtNtCs6IAuOt8vWmF_3syn4item8printingNtB7_9SignatureNtNtCs2cqEZUIJimJ_5quote9to_tokens8ToTokens9to_tokens, symObjAddr: 0x15198, symBinAddr: 0x2B720, symSize: 0xD4 }
  - { offset: 0x8E0B2, size: 0x8, addend: 0x0, symName: __RNvXsv_NtNtCs6IAuOt8vWmF_3syn4item8printingNtB7_8ReceiverNtNtCs2cqEZUIJimJ_5quote9to_tokens8ToTokens9to_tokens, symObjAddr: 0x1526C, symBinAddr: 0x2B7F4, symSize: 0x3FC }
  - { offset: 0x8E1AA, size: 0x8, addend: 0x0, symName: __RNvXsw_NtNtCs6IAuOt8vWmF_3syn4item8printingNtB7_8VariadicNtNtCs2cqEZUIJimJ_5quote9to_tokens8ToTokens9to_tokens, symObjAddr: 0x15668, symBinAddr: 0x2BBF0, symSize: 0xE0 }
  - { offset: 0x8E217, size: 0x8, addend: 0x0, symName: __RNvXsx_NtNtCs6IAuOt8vWmF_3syn4item8printingNtB7_16StaticMutabilityNtNtCs2cqEZUIJimJ_5quote9to_tokens8ToTokens9to_tokens, symObjAddr: 0x15748, symBinAddr: 0x2BCD0, symSize: 0x7C }
  - { offset: 0x8E27A, size: 0x8, addend: 0x0, symName: __RNcNtNtNtCs6IAuOt8vWmF_3syn4item4Item4Enum0B7_, symObjAddr: 0x157C4, symBinAddr: 0x2BD4C, symSize: 0x3C }
  - { offset: 0x8E2A9, size: 0x8, addend: 0x0, symName: __RNcNtNtNtCs6IAuOt8vWmF_3syn4item4Item11ExternCrate0B7_, symObjAddr: 0x15800, symBinAddr: 0x2BD88, symSize: 0x3C }
  - { offset: 0x8E2D8, size: 0x8, addend: 0x0, symName: __RNcNtNtNtCs6IAuOt8vWmF_3syn4item4Item2Fn0B7_, symObjAddr: 0x1583C, symBinAddr: 0x2BDC4, symSize: 0x30 }
  - { offset: 0x8E307, size: 0x8, addend: 0x0, symName: __RNcNtNtNtCs6IAuOt8vWmF_3syn4item4Item10ForeignMod0B7_, symObjAddr: 0x1586C, symBinAddr: 0x2BDF4, symSize: 0x3C }
  - { offset: 0x8E336, size: 0x8, addend: 0x0, symName: __RNcNtNtNtCs6IAuOt8vWmF_3syn4item4Item5Macro0B7_, symObjAddr: 0x158A8, symBinAddr: 0x2BE30, symSize: 0x3C }
  - { offset: 0x8E365, size: 0x8, addend: 0x0, symName: __RNcNtNtNtCs6IAuOt8vWmF_3syn4item4Item3Mod0B7_, symObjAddr: 0x158E4, symBinAddr: 0x2BE6C, symSize: 0x3C }
  - { offset: 0x8E394, size: 0x8, addend: 0x0, symName: __RNcNtNtNtCs6IAuOt8vWmF_3syn4item4Item6Struct0B7_, symObjAddr: 0x15920, symBinAddr: 0x2BEA8, symSize: 0x3C }
  - { offset: 0x8E3C3, size: 0x8, addend: 0x0, symName: __RNcNtNtNtCs6IAuOt8vWmF_3syn4item4Item5Trait0B7_, symObjAddr: 0x1595C, symBinAddr: 0x2BEE4, symSize: 0x3C }
  - { offset: 0x8E3F2, size: 0x8, addend: 0x0, symName: __RNcNtNtNtCs6IAuOt8vWmF_3syn4item4Item10TraitAlias0B7_, symObjAddr: 0x15998, symBinAddr: 0x2BF20, symSize: 0x3C }
  - { offset: 0x8E421, size: 0x8, addend: 0x0, symName: __RNcNtNtNtCs6IAuOt8vWmF_3syn4item4Item5Union0B7_, symObjAddr: 0x159D4, symBinAddr: 0x2BF5C, symSize: 0x3C }
  - { offset: 0x8E451, size: 0x8, addend: 0x0, symName: __RNvXsk_NtCs6IAuOt8vWmF_3syn4itemNtB5_4ItemNtNtCs2cqEZUIJimJ_5quote9to_tokens8ToTokens9to_tokens, symObjAddr: 0x15E78, symBinAddr: 0x2BF98, symSize: 0x230 }
  - { offset: 0x8E663, size: 0x8, addend: 0x0, symName: __RNvXsq_NtCs6IAuOt8vWmF_3syn4itemNtB5_7UseTreeNtNtCs2cqEZUIJimJ_5quote9to_tokens8ToTokens9to_tokens, symObjAddr: 0x161F4, symBinAddr: 0x2C1C8, symSize: 0x10C }
  - { offset: 0x8E735, size: 0x8, addend: 0x0, symName: __RNcNtNtNtCs6IAuOt8vWmF_3syn4item11ForeignItem5Macro0B7_, symObjAddr: 0x16300, symBinAddr: 0x2C2D4, symSize: 0x3C }
  - { offset: 0x8E767, size: 0x8, addend: 0x0, symName: __RNvXsv_NtCs6IAuOt8vWmF_3syn4itemNtB5_11ForeignItemNtNtCs2cqEZUIJimJ_5quote9to_tokens8ToTokens9to_tokens, symObjAddr: 0x16460, symBinAddr: 0x2C310, symSize: 0x118 }
  - { offset: 0x8E839, size: 0x8, addend: 0x0, symName: __RNcNtNtNtCs6IAuOt8vWmF_3syn4item9TraitItem2Fn0B7_, symObjAddr: 0x16578, symBinAddr: 0x2C428, symSize: 0x3C }
  - { offset: 0x8E86A, size: 0x8, addend: 0x0, symName: __RNcNtNtNtCs6IAuOt8vWmF_3syn4item9TraitItem5Macro0B7_, symObjAddr: 0x165B4, symBinAddr: 0x2C464, symSize: 0x3C }
  - { offset: 0x8E89C, size: 0x8, addend: 0x0, symName: __RNvXsA_NtCs6IAuOt8vWmF_3syn4itemNtB5_9TraitItemNtNtCs2cqEZUIJimJ_5quote9to_tokens8ToTokens9to_tokens, symObjAddr: 0x16714, symBinAddr: 0x2C4A0, symSize: 0x118 }
  - { offset: 0x8E96E, size: 0x8, addend: 0x0, symName: __RNcNtNtNtCs6IAuOt8vWmF_3syn4item8ImplItem5Macro0B7_, symObjAddr: 0x1682C, symBinAddr: 0x2C5B8, symSize: 0x3C }
  - { offset: 0x8E9A0, size: 0x8, addend: 0x0, symName: __RNvXsF_NtCs6IAuOt8vWmF_3syn4itemNtB5_8ImplItemNtNtCs2cqEZUIJimJ_5quote9to_tokens8ToTokens9to_tokens, symObjAddr: 0x1698C, symBinAddr: 0x2C5F4, symSize: 0x118 }
  - { offset: 0x8EA6D, size: 0x8, addend: 0x0, symName: __RNvXsI_NtCs6IAuOt8vWmF_3syn4itemNtB5_5FnArgNtNtCs2cqEZUIJimJ_5quote9to_tokens8ToTokens9to_tokens, symObjAddr: 0x16B30, symBinAddr: 0x2C70C, symSize: 0x8C }
  - { offset: 0x8EAE8, size: 0x8, addend: 0x0, symName: __RNcNtNtNtCs6IAuOt8vWmF_3syn4item16StaticMutability3Mut0B7_, symObjAddr: 0x16BBC, symBinAddr: 0x2C798, symSize: 0x20 }
  - { offset: 0x92596, size: 0x8, addend: 0x0, symName: __RNvXs16_NtNtCs6IAuOt8vWmF_3syn3gen5cloneNtNtBa_4item5FnArgNtNtCsfvfooZQ3Axs_4core5clone5Clone5clone, symObjAddr: 0x16BDC, symBinAddr: 0x2C7B8, symSize: 0xDC }
  - { offset: 0x925FE, size: 0x8, addend: 0x0, symName: __RNvXs17_NtNtCs6IAuOt8vWmF_3syn3gen5cloneNtNtBa_4item11ForeignItemNtNtCsfvfooZQ3Axs_4core5clone5Clone5clone, symObjAddr: 0x16CB8, symBinAddr: 0x2C894, symSize: 0x224 }
  - { offset: 0x926C0, size: 0x8, addend: 0x0, symName: __RNvXs18_NtNtCs6IAuOt8vWmF_3syn3gen5cloneNtNtBa_4item13ForeignItemFnNtNtCsfvfooZQ3Axs_4core5clone5Clone5clone, symObjAddr: 0x16EDC, symBinAddr: 0x2CAB8, symSize: 0x13C }
  - { offset: 0x926F4, size: 0x8, addend: 0x0, symName: __RNvXs19_NtNtCs6IAuOt8vWmF_3syn3gen5cloneNtNtBa_4item16ForeignItemMacroNtNtCsfvfooZQ3Axs_4core5clone5Clone5clone, symObjAddr: 0x17018, symBinAddr: 0x2CBF4, symSize: 0xF4 }
  - { offset: 0x92728, size: 0x8, addend: 0x0, symName: __RNvXs1a_NtNtCs6IAuOt8vWmF_3syn3gen5cloneNtNtBa_4item17ForeignItemStaticNtNtCsfvfooZQ3Axs_4core5clone5Clone5clone, symObjAddr: 0x1710C, symBinAddr: 0x2CCE8, symSize: 0x1DC }
  - { offset: 0x9275C, size: 0x8, addend: 0x0, symName: __RNvXs1b_NtNtCs6IAuOt8vWmF_3syn3gen5cloneNtNtBa_4item15ForeignItemTypeNtNtCsfvfooZQ3Axs_4core5clone5Clone5clone, symObjAddr: 0x172E8, symBinAddr: 0x2CEC4, symSize: 0x198 }
  - { offset: 0x92790, size: 0x8, addend: 0x0, symName: __RNvXs1f_NtNtCs6IAuOt8vWmF_3syn3gen5cloneNtNtBa_4item8ImplItemNtNtCsfvfooZQ3Axs_4core5clone5Clone5clone, symObjAddr: 0x17480, symBinAddr: 0x2D05C, symSize: 0x21C }
  - { offset: 0x92852, size: 0x8, addend: 0x0, symName: __RNvXs1g_NtNtCs6IAuOt8vWmF_3syn3gen5cloneNtNtBa_4item13ImplItemConstNtNtCsfvfooZQ3Axs_4core5clone5Clone5clone, symObjAddr: 0x1769C, symBinAddr: 0x2D278, symSize: 0x2AC }
  - { offset: 0x92886, size: 0x8, addend: 0x0, symName: __RNvXs1h_NtNtCs6IAuOt8vWmF_3syn3gen5cloneNtNtBa_4item10ImplItemFnNtNtCsfvfooZQ3Axs_4core5clone5Clone5clone, symObjAddr: 0x17948, symBinAddr: 0x2D524, symSize: 0x160 }
  - { offset: 0x928BA, size: 0x8, addend: 0x0, symName: __RNvXs1i_NtNtCs6IAuOt8vWmF_3syn3gen5cloneNtNtBa_4item13ImplItemMacroNtNtCsfvfooZQ3Axs_4core5clone5Clone5clone, symObjAddr: 0x17AA8, symBinAddr: 0x2D684, symSize: 0xF4 }
  - { offset: 0x928EE, size: 0x8, addend: 0x0, symName: __RNvXs1j_NtNtCs6IAuOt8vWmF_3syn3gen5cloneNtNtBa_4item12ImplItemTypeNtNtCsfvfooZQ3Axs_4core5clone5Clone5clone, symObjAddr: 0x17B9C, symBinAddr: 0x2D778, symSize: 0x238 }
  - { offset: 0x92922, size: 0x8, addend: 0x0, symName: __RNvXs1m_NtNtCs6IAuOt8vWmF_3syn3gen5cloneNtNtBa_4item4ItemNtNtCsfvfooZQ3Axs_4core5clone5Clone5clone, symObjAddr: 0x17DE0, symBinAddr: 0x2D9B0, symSize: 0x5D0 }
  - { offset: 0x92B39, size: 0x8, addend: 0x0, symName: __RNvXs1n_NtNtCs6IAuOt8vWmF_3syn3gen5cloneNtNtBa_4item9ItemConstNtNtCsfvfooZQ3Axs_4core5clone5Clone5clone, symObjAddr: 0x183B0, symBinAddr: 0x2DF80, symSize: 0x270 }
  - { offset: 0x92B6D, size: 0x8, addend: 0x0, symName: __RNvXs1o_NtNtCs6IAuOt8vWmF_3syn3gen5cloneNtNtBa_4item8ItemEnumNtNtCsfvfooZQ3Axs_4core5clone5Clone5clone, symObjAddr: 0x18620, symBinAddr: 0x2E1F0, symSize: 0x1C0 }
  - { offset: 0x92BA1, size: 0x8, addend: 0x0, symName: __RNvXs1p_NtNtCs6IAuOt8vWmF_3syn3gen5cloneNtNtBa_4item15ItemExternCrateNtNtCsfvfooZQ3Axs_4core5clone5Clone5clone, symObjAddr: 0x187E0, symBinAddr: 0x2E3B0, symSize: 0x1A4 }
  - { offset: 0x92BD5, size: 0x8, addend: 0x0, symName: __RNvXs1q_NtNtCs6IAuOt8vWmF_3syn3gen5cloneNtNtBa_4item6ItemFnNtNtCsfvfooZQ3Axs_4core5clone5Clone5clone, symObjAddr: 0x18984, symBinAddr: 0x2E554, symSize: 0x12C }
  - { offset: 0x92C09, size: 0x8, addend: 0x0, symName: __RNvXs1r_NtNtCs6IAuOt8vWmF_3syn3gen5cloneNtNtBa_4item14ItemForeignModNtNtCsfvfooZQ3Axs_4core5clone5Clone5clone, symObjAddr: 0x18AB0, symBinAddr: 0x2E680, symSize: 0x14C }
  - { offset: 0x92C3D, size: 0x8, addend: 0x0, symName: __RNvXs1s_NtNtCs6IAuOt8vWmF_3syn3gen5cloneNtNtBa_4item8ItemImplNtNtCsfvfooZQ3Axs_4core5clone5Clone5clone, symObjAddr: 0x18BFC, symBinAddr: 0x2E7CC, symSize: 0x220 }
  - { offset: 0x92C71, size: 0x8, addend: 0x0, symName: __RNvXs1t_NtNtCs6IAuOt8vWmF_3syn3gen5cloneNtNtBa_4item9ItemMacroNtNtCsfvfooZQ3Axs_4core5clone5Clone5clone, symObjAddr: 0x18E1C, symBinAddr: 0x2E9EC, symSize: 0x134 }
  - { offset: 0x92CA5, size: 0x8, addend: 0x0, symName: __RNvXs1u_NtNtCs6IAuOt8vWmF_3syn3gen5cloneNtNtBa_4item7ItemModNtNtCsfvfooZQ3Axs_4core5clone5Clone5clone, symObjAddr: 0x18F50, symBinAddr: 0x2EB20, symSize: 0x1B8 }
  - { offset: 0x92CD9, size: 0x8, addend: 0x0, symName: __RNvXs1v_NtNtCs6IAuOt8vWmF_3syn3gen5cloneNtNtBa_4item10ItemStaticNtNtCsfvfooZQ3Axs_4core5clone5Clone5clone, symObjAddr: 0x19108, symBinAddr: 0x2ECD8, symSize: 0x248 }
  - { offset: 0x92D0D, size: 0x8, addend: 0x0, symName: __RNvXs1w_NtNtCs6IAuOt8vWmF_3syn3gen5cloneNtNtBa_4item10ItemStructNtNtCsfvfooZQ3Axs_4core5clone5Clone5clone, symObjAddr: 0x19350, symBinAddr: 0x2EF20, symSize: 0x1DC }
  - { offset: 0x92D41, size: 0x8, addend: 0x0, symName: __RNvXs1x_NtNtCs6IAuOt8vWmF_3syn3gen5cloneNtNtBa_4item9ItemTraitNtNtCsfvfooZQ3Axs_4core5clone5Clone5clone, symObjAddr: 0x1952C, symBinAddr: 0x2F0FC, symSize: 0x288 }
  - { offset: 0x92D75, size: 0x8, addend: 0x0, symName: __RNvXs1y_NtNtCs6IAuOt8vWmF_3syn3gen5cloneNtNtBa_4item14ItemTraitAliasNtNtCsfvfooZQ3Axs_4core5clone5Clone5clone, symObjAddr: 0x197B4, symBinAddr: 0x2F384, symSize: 0x204 }
  - { offset: 0x92DA9, size: 0x8, addend: 0x0, symName: __RNvXs1z_NtNtCs6IAuOt8vWmF_3syn3gen5cloneNtNtBa_4item8ItemTypeNtNtCsfvfooZQ3Axs_4core5clone5Clone5clone, symObjAddr: 0x199B8, symBinAddr: 0x2F588, symSize: 0x204 }
  - { offset: 0x92DDD, size: 0x8, addend: 0x0, symName: __RNvXs1A_NtNtCs6IAuOt8vWmF_3syn3gen5cloneNtNtBa_4item9ItemUnionNtNtCsfvfooZQ3Axs_4core5clone5Clone5clone, symObjAddr: 0x19BBC, symBinAddr: 0x2F78C, symSize: 0x194 }
  - { offset: 0x92E11, size: 0x8, addend: 0x0, symName: __RNvXs1B_NtNtCs6IAuOt8vWmF_3syn3gen5cloneNtNtBa_4item7ItemUseNtNtCsfvfooZQ3Axs_4core5clone5Clone5clone, symObjAddr: 0x19D50, symBinAddr: 0x2F920, symSize: 0x174 }
  - { offset: 0x92E45, size: 0x8, addend: 0x0, symName: __RNvXs2b_NtNtCs6IAuOt8vWmF_3syn3gen5cloneNtNtBa_4item8ReceiverNtNtCsfvfooZQ3Axs_4core5clone5Clone5clone, symObjAddr: 0x19EC4, symBinAddr: 0x2FA94, symSize: 0x154 }
  - { offset: 0x92E79, size: 0x8, addend: 0x0, symName: __RNvXs2d_NtNtCs6IAuOt8vWmF_3syn3gen5cloneNtNtBa_4item9SignatureNtNtCsfvfooZQ3Axs_4core5clone5Clone5clone, symObjAddr: 0x1A018, symBinAddr: 0x2FBE8, symSize: 0x278 }
  - { offset: 0x92EAD, size: 0x8, addend: 0x0, symName: __RNvXs2e_NtNtCs6IAuOt8vWmF_3syn3gen5cloneNtNtBa_4item16StaticMutabilityNtNtCsfvfooZQ3Axs_4core5clone5Clone5clone, symObjAddr: 0x1A290, symBinAddr: 0x2FE60, symSize: 0x88 }
  - { offset: 0x92EFF, size: 0x8, addend: 0x0, symName: __RNvXs2k_NtNtCs6IAuOt8vWmF_3syn3gen5cloneNtNtBa_4item9TraitItemNtNtCsfvfooZQ3Axs_4core5clone5Clone5clone, symObjAddr: 0x1A318, symBinAddr: 0x2FEE8, symSize: 0x21C }
  - { offset: 0x92FC1, size: 0x8, addend: 0x0, symName: __RNvXs2l_NtNtCs6IAuOt8vWmF_3syn3gen5cloneNtNtBa_4item14TraitItemConstNtNtCsfvfooZQ3Axs_4core5clone5Clone5clone, symObjAddr: 0x1A534, symBinAddr: 0x30104, symSize: 0x218 }
  - { offset: 0x92FF5, size: 0x8, addend: 0x0, symName: __RNvXs2m_NtNtCs6IAuOt8vWmF_3syn3gen5cloneNtNtBa_4item11TraitItemFnNtNtCsfvfooZQ3Axs_4core5clone5Clone5clone, symObjAddr: 0x1A74C, symBinAddr: 0x3031C, symSize: 0x140 }
  - { offset: 0x93029, size: 0x8, addend: 0x0, symName: __RNvXs2n_NtNtCs6IAuOt8vWmF_3syn3gen5cloneNtNtBa_4item14TraitItemMacroNtNtCsfvfooZQ3Axs_4core5clone5Clone5clone, symObjAddr: 0x1A88C, symBinAddr: 0x3045C, symSize: 0xF4 }
  - { offset: 0x9305D, size: 0x8, addend: 0x0, symName: __RNvXs2o_NtNtCs6IAuOt8vWmF_3syn3gen5cloneNtNtBa_4item13TraitItemTypeNtNtCsfvfooZQ3Axs_4core5clone5Clone5clone, symObjAddr: 0x1A980, symBinAddr: 0x30550, symSize: 0x20C }
  - { offset: 0x93091, size: 0x8, addend: 0x0, symName: __RNvXs2I_NtNtCs6IAuOt8vWmF_3syn3gen5cloneNtNtBa_4item7UseGlobNtNtCsfvfooZQ3Axs_4core5clone5Clone5clone, symObjAddr: 0x1AB8C, symBinAddr: 0x3075C, symSize: 0x4C }
  - { offset: 0x930C5, size: 0x8, addend: 0x0, symName: __RNvXs2J_NtNtCs6IAuOt8vWmF_3syn3gen5cloneNtNtBa_4item8UseGroupNtNtCsfvfooZQ3Axs_4core5clone5Clone5clone, symObjAddr: 0x1ABD8, symBinAddr: 0x307A8, symSize: 0x70 }
  - { offset: 0x930F9, size: 0x8, addend: 0x0, symName: __RNvXs2K_NtNtCs6IAuOt8vWmF_3syn3gen5cloneNtNtBa_4item7UseNameNtNtCsfvfooZQ3Axs_4core5clone5Clone5clone, symObjAddr: 0x1AC48, symBinAddr: 0x30818, symSize: 0x50 }
  - { offset: 0x9312D, size: 0x8, addend: 0x0, symName: __RNvXs2L_NtNtCs6IAuOt8vWmF_3syn3gen5cloneNtNtBa_4item7UsePathNtNtCsfvfooZQ3Axs_4core5clone5Clone5clone, symObjAddr: 0x1AC98, symBinAddr: 0x30868, symSize: 0xC0 }
  - { offset: 0x93161, size: 0x8, addend: 0x0, symName: __RNvXs2M_NtNtCs6IAuOt8vWmF_3syn3gen5cloneNtNtBa_4item9UseRenameNtNtCsfvfooZQ3Axs_4core5clone5Clone5clone, symObjAddr: 0x1AD58, symBinAddr: 0x30928, symSize: 0xB8 }
  - { offset: 0x93195, size: 0x8, addend: 0x0, symName: __RNvXs2N_NtNtCs6IAuOt8vWmF_3syn3gen5cloneNtNtBa_4item7UseTreeNtNtCsfvfooZQ3Axs_4core5clone5Clone5clone, symObjAddr: 0x1AE10, symBinAddr: 0x309E0, symSize: 0x20C }
  - { offset: 0x93258, size: 0x8, addend: 0x0, symName: __RNvXs2O_NtNtCs6IAuOt8vWmF_3syn3gen5cloneNtNtBa_4item8VariadicNtNtCsfvfooZQ3Axs_4core5clone5Clone5clone, symObjAddr: 0x1B01C, symBinAddr: 0x30BEC, symSize: 0x108 }
  - { offset: 0x94C21, size: 0x8, addend: 0x0, symName: __RINvXNtNtCse1nGBsou5OW_5alloc5slice4hackNtNtCs6IAuOt8vWmF_3syn4item11ForeignItemNtB3_10ConvertVec6to_vecNtNtB7_5alloc6GlobalEBG_, symObjAddr: 0x0, symBinAddr: 0x1DDBC, symSize: 0x36C }
  - { offset: 0x950E4, size: 0x8, addend: 0x0, symName: __RINvXNtNtCse1nGBsou5OW_5alloc5slice4hackNtNtCs6IAuOt8vWmF_3syn4item4ItemNtB3_10ConvertVec6to_vecNtNtB7_5alloc6GlobalEBG_, symObjAddr: 0x36C, symBinAddr: 0x1E128, symSize: 0x36C }
  - { offset: 0x955A7, size: 0x8, addend: 0x0, symName: __RINvXNtNtCse1nGBsou5OW_5alloc5slice4hackNtNtCs6IAuOt8vWmF_3syn4item8ImplItemNtB3_10ConvertVec6to_vecNtNtB7_5alloc6GlobalEBG_, symObjAddr: 0x6D8, symBinAddr: 0x1E494, symSize: 0x36C }
  - { offset: 0x95A6A, size: 0x8, addend: 0x0, symName: __RINvXNtNtCse1nGBsou5OW_5alloc5slice4hackNtNtCs6IAuOt8vWmF_3syn4item9TraitItemNtB3_10ConvertVec6to_vecNtNtB7_5alloc6GlobalEBG_, symObjAddr: 0xA44, symBinAddr: 0x1E800, symSize: 0x36C }
  - { offset: 0x95F2D, size: 0x8, addend: 0x0, symName: __RINvXNtNtCse1nGBsou5OW_5alloc5slice4hackTNtNtCs6IAuOt8vWmF_3syn4item5FnArgNtNtBH_5token5CommaENtB3_10ConvertVec6to_vecNtNtB7_5alloc6GlobalEBH_, symObjAddr: 0xDB0, symBinAddr: 0x1EB6C, symSize: 0x368 }
  - { offset: 0x963F0, size: 0x8, addend: 0x0, symName: __RINvXNtNtCse1nGBsou5OW_5alloc5slice4hackTNtNtCs6IAuOt8vWmF_3syn4item7UseTreeNtNtBH_5token5CommaENtB3_10ConvertVec6to_vecNtNtB7_5alloc6GlobalEBH_, symObjAddr: 0x1118, symBinAddr: 0x1EED4, symSize: 0x368 }
  - { offset: 0x9ABA5, size: 0x8, addend: 0x0, symName: __RNvMNtCsfvfooZQ3Axs_4core5sliceSTNtNtCs6IAuOt8vWmF_3syn4item5FnArgNtNtBz_5token5CommaE4iterBz_, symObjAddr: 0x1480, symBinAddr: 0x1F23C, symSize: 0x28 }
  - { offset: 0x9ABDC, size: 0x8, addend: 0x0, symName: __RNvMNtCsfvfooZQ3Axs_4core5sliceSTNtNtCs6IAuOt8vWmF_3syn4item7UseTreeNtNtBz_5token5CommaE4iterBz_, symObjAddr: 0x14A8, symBinAddr: 0x1F264, symSize: 0x28 }
  - { offset: 0x9B2CC, size: 0x8, addend: 0x0, symName: __RNvXNtNtCsfvfooZQ3Axs_4core5clone6uninitNtNtCs6IAuOt8vWmF_3syn4item5FnArgNtB2_8CopySpec9clone_oneBG_, symObjAddr: 0x1650, symBinAddr: 0x1F40C, symSize: 0x48 }
  - { offset: 0x9B330, size: 0x8, addend: 0x0, symName: __RNvXNtNtCsfvfooZQ3Axs_4core5clone6uninitNtNtCs6IAuOt8vWmF_3syn4item7UseTreeNtB2_8CopySpec9clone_oneBG_, symObjAddr: 0x1698, symBinAddr: 0x1F454, symSize: 0x48 }
  - { offset: 0x9DAC0, size: 0x8, addend: 0x0, symName: __RNvXNtCs2cqEZUIJimJ_5quote9to_tokensRNtNtCs6IAuOt8vWmF_3syn4item11ForeignItemNtB2_8ToTokens9to_tokensBD_, symObjAddr: 0x14D0, symBinAddr: 0x1F28C, symSize: 0x40 }
  - { offset: 0x9DAFF, size: 0x8, addend: 0x0, symName: __RNvXNtCs2cqEZUIJimJ_5quote9to_tokensRNtNtCs6IAuOt8vWmF_3syn4item4ItemNtB2_8ToTokens9to_tokensBD_, symObjAddr: 0x1510, symBinAddr: 0x1F2CC, symSize: 0x40 }
  - { offset: 0x9DB3E, size: 0x8, addend: 0x0, symName: __RNvXNtCs2cqEZUIJimJ_5quote9to_tokensRNtNtCs6IAuOt8vWmF_3syn4item5FnArgNtB2_8ToTokens9to_tokensBD_, symObjAddr: 0x1550, symBinAddr: 0x1F30C, symSize: 0x40 }
  - { offset: 0x9DB7D, size: 0x8, addend: 0x0, symName: __RNvXNtCs2cqEZUIJimJ_5quote9to_tokensRNtNtCs6IAuOt8vWmF_3syn4item7UseTreeNtB2_8ToTokens9to_tokensBD_, symObjAddr: 0x1590, symBinAddr: 0x1F34C, symSize: 0x40 }
  - { offset: 0x9DBBC, size: 0x8, addend: 0x0, symName: __RNvXNtCs2cqEZUIJimJ_5quote9to_tokensRNtNtCs6IAuOt8vWmF_3syn4item8ImplItemNtB2_8ToTokens9to_tokensBD_, symObjAddr: 0x15D0, symBinAddr: 0x1F38C, symSize: 0x40 }
  - { offset: 0x9DBFB, size: 0x8, addend: 0x0, symName: __RNvXNtCs2cqEZUIJimJ_5quote9to_tokensRNtNtCs6IAuOt8vWmF_3syn4item9TraitItemNtB2_8ToTokens9to_tokensBD_, symObjAddr: 0x1610, symBinAddr: 0x1F3CC, symSize: 0x40 }
  - { offset: 0x9DC57, size: 0x8, addend: 0x0, symName: __RNvMNtCs6IAuOt8vWmF_3syn4itemNtB2_4Item13replace_attrs, symObjAddr: 0x2BF8, symBinAddr: 0x1F49C, symSize: 0x328 }
  - { offset: 0x9E209, size: 0x8, addend: 0x0, symName: __RINvMs_NtCse1nGBsou5OW_5alloc3vecINtB5_3VecReE10retain_mutNCNvMNtCs6IAuOt8vWmF_3syn9lookaheadNtBZ_10Lookahead15error0EB11_, symObjAddr: 0x0, symBinAddr: 0x30CF4, symSize: 0xE4 }
  - { offset: 0x9EFAE, size: 0x8, addend: 0x0, symName: __RNvXs1a_NtCsfvfooZQ3Axs_4core3fmtRINtNtCse1nGBsou5OW_5alloc3vec3VechENtB6_5Debug3fmtCs6IAuOt8vWmF_3syn, symObjAddr: 0x6C30, symBinAddr: 0x354B0, symSize: 0x30 }
  - { offset: 0xA668A, size: 0x8, addend: 0x0, symName: __RNvXs1_NtCsfvfooZQ3Axs_4core7convertINtNtCse1nGBsou5OW_5alloc3vec3VechEINtB5_4IntoBy_E4intoCs6IAuOt8vWmF_3syn, symObjAddr: 0x6BE8, symBinAddr: 0x35498, symSize: 0x18 }
  - { offset: 0xA68C7, size: 0x8, addend: 0x0, symName: __RINvNvMs_NtCse1nGBsou5OW_5alloc3vecINtB7_3VecppE10retain_mut12process_loopNCNvMNtCs6IAuOt8vWmF_3syn9lookaheadNtB1f_10Lookahead15error0ReNtNtB9_5alloc6GlobalKb0_EB1h_, symObjAddr: 0xC64, symBinAddr: 0x312D4, symSize: 0xCC }
  - { offset: 0xA6A1B, size: 0x8, addend: 0x0, symName: __RINvNvMs_NtCse1nGBsou5OW_5alloc3vecINtB7_3VecppE10retain_mut12process_loopNCNvMNtCs6IAuOt8vWmF_3syn9lookaheadNtB1f_10Lookahead15error0ReNtNtB9_5alloc6GlobalKb1_EB1h_, symObjAddr: 0xD30, symBinAddr: 0x313A0, symSize: 0x168 }
  - { offset: 0xA6C11, size: 0x8, addend: 0x0, symName: __RNvXNvMs_NtCse1nGBsou5OW_5alloc3vecINtB7_3VecppE10retain_mutINtB2_15BackshiftOnDropReNtNtB9_5alloc6GlobalENtNtNtCsfvfooZQ3Axs_4core3ops4drop4Drop4dropCs6IAuOt8vWmF_3syn, symObjAddr: 0x681C, symBinAddr: 0x35164, symSize: 0x124 }
  - { offset: 0xA967C, size: 0x8, addend: 0x0, symName: __RINvXsh_NtCse1nGBsou5OW_5alloc3vecINtB6_3VecNtCs3cP53eQoTwO_11proc_macro29TokenTreeEINtNtNtNtCsfvfooZQ3Axs_4core4iter6traits7collect6ExtendBG_E6extendINtNtNtB1r_8adapters7flatten7FlattenINtNtB2t_3map3MapIB2Z_IB2Z_INtNtNtB1t_5slice4iter4IterNtNtCs6IAuOt8vWmF_3syn5error12ErrorMessageENvMs_B3S_B3Q_16to_compile_errorENCINvXs7_BI_NtBI_11TokenStreamINtB1n_12FromIteratorB5f_E9from_iterB3k_E0ENCINvXs6_NtBI_3impNtB6n_11TokenStreamIB5y_B6w_E9from_iterB3f_Es_0EEEB3U_, symObjAddr: 0xED4, symBinAddr: 0x31508, symSize: 0x48 }
  - { offset: 0xA96D1, size: 0x8, addend: 0x0, symName: __RINvXsh_NtCse1nGBsou5OW_5alloc3vecINtB6_3VecNtNtCs6IAuOt8vWmF_3syn4attr9AttributeEINtNtNtNtCsfvfooZQ3Axs_4core4iter6traits7collect6ExtendBG_E6extendBw_EBK_, symObjAddr: 0xF1C, symBinAddr: 0x31550, symSize: 0x48 }
  - { offset: 0xA9726, size: 0x8, addend: 0x0, symName: __RINvXsh_NtCse1nGBsou5OW_5alloc3vecINtB6_3VecNtNtCs6IAuOt8vWmF_3syn8generics14TypeParamBoundEINtNtNtNtCsfvfooZQ3Axs_4core4iter6traits7collect6ExtendBG_E6extendINtNtB1B_6option6OptionBG_EEBK_, symObjAddr: 0x108C, symBinAddr: 0x31598, symSize: 0x48 }
  - { offset: 0xA977B, size: 0x8, addend: 0x0, symName: __RINvXsh_NtCse1nGBsou5OW_5alloc3vecINtB6_3VecNtNtCs6IAuOt8vWmF_3syn8generics14TypeParamBoundEINtNtNtNtCsfvfooZQ3Axs_4core4iter6traits7collect6ExtendBG_E6extendINtNtNtB1z_8adapters3map3MapINtNtB6_9into_iter8IntoIterTBG_NtNtBK_5token4PlusEENCNvXs8_NtBK_10punctuatedINtB3V_10PunctuatedBG_B3t_ENtB1v_12IntoIterator9into_iter0EEBK_, symObjAddr: 0x10D4, symBinAddr: 0x315E0, symSize: 0x48 }
  - { offset: 0xA97DB, size: 0x8, addend: 0x0, symName: __RNCINvMsi_NtCse1nGBsou5OW_5alloc3vecINtB8_3VecNtNtCs6IAuOt8vWmF_3syn8generics14TypeParamBoundE14extend_trustedINtNtCsfvfooZQ3Axs_4core6option8IntoIterBI_EE0BM_, symObjAddr: 0x1218, symBinAddr: 0x31628, symSize: 0x54 }
  - { offset: 0xA9899, size: 0x8, addend: 0x0, symName: __RNCINvMsi_NtCse1nGBsou5OW_5alloc3vecINtB8_3VecNtNtCs6IAuOt8vWmF_3syn8generics14TypeParamBoundE14extend_trustedINtNtNtNtCsfvfooZQ3Axs_4core4iter8adapters3map3MapINtNtB8_9into_iter8IntoIterTBI_NtNtBM_5token4PlusEENCNvXs8_NtBM_10punctuatedINtB3v_10PunctuatedBI_B33_ENtNtNtB1R_6traits7collect12IntoIterator9into_iter0EE0BM_, symObjAddr: 0x126C, symBinAddr: 0x3167C, symSize: 0x54 }
  - { offset: 0xA9D99, size: 0x8, addend: 0x0, symName: __RNvXs6_NtCse1nGBsou5OW_5alloc3vecINtB5_3VecNtNtCs6IAuOt8vWmF_3syn4attr9AttributeENtNtNtCsfvfooZQ3Axs_4core3ops5deref5Deref5derefBJ_, symObjAddr: 0x6C60, symBinAddr: 0x354E0, symSize: 0x24 }
  - { offset: 0xA9DD9, size: 0x8, addend: 0x0, symName: __RNvXs6_NtCse1nGBsou5OW_5alloc3vecINtB5_3VecNtNtCs6IAuOt8vWmF_3syn4expr3ArmENtNtNtCsfvfooZQ3Axs_4core3ops5deref5Deref5derefBJ_, symObjAddr: 0x6C84, symBinAddr: 0x35504, symSize: 0x24 }
  - { offset: 0xA9E19, size: 0x8, addend: 0x0, symName: __RNvXs6_NtCse1nGBsou5OW_5alloc3vecINtB5_3VecNtNtCs6IAuOt8vWmF_3syn5error12ErrorMessageENtNtNtCsfvfooZQ3Axs_4core3ops5deref5Deref5derefBJ_, symObjAddr: 0x6CA8, symBinAddr: 0x35528, symSize: 0x24 }
  - { offset: 0xA9E59, size: 0x8, addend: 0x0, symName: __RNvXs6_NtCse1nGBsou5OW_5alloc3vecINtB5_3VecReENtNtNtCsfvfooZQ3Axs_4core3ops5deref5Deref5derefCs6IAuOt8vWmF_3syn, symObjAddr: 0x6CCC, symBinAddr: 0x3554C, symSize: 0x24 }
  - { offset: 0xA9E99, size: 0x8, addend: 0x0, symName: __RNvXs6_NtCse1nGBsou5OW_5alloc3vecINtB5_3VecTNtNtCs6IAuOt8vWmF_3syn2ty4TypeNtNtBK_5token5CommaEENtNtNtCsfvfooZQ3Axs_4core3ops5deref5Deref5derefBK_, symObjAddr: 0x6CF0, symBinAddr: 0x35570, symSize: 0x24 }
  - { offset: 0xA9ED9, size: 0x8, addend: 0x0, symName: __RNvXs6_NtCse1nGBsou5OW_5alloc3vecINtB5_3VecTNtNtCs6IAuOt8vWmF_3syn2ty9BareFnArgNtNtBK_5token5CommaEENtNtNtCsfvfooZQ3Axs_4core3ops5deref5Deref5derefBK_, symObjAddr: 0x6D14, symBinAddr: 0x35594, symSize: 0x24 }
  - { offset: 0xA9F19, size: 0x8, addend: 0x0, symName: __RNvXs6_NtCse1nGBsou5OW_5alloc3vecINtB5_3VecTNtNtCs6IAuOt8vWmF_3syn3pat3PatNtNtBK_5token2OrEENtNtNtCsfvfooZQ3Axs_4core3ops5deref5Deref5derefBK_, symObjAddr: 0x6D38, symBinAddr: 0x355B8, symSize: 0x24 }
  - { offset: 0xA9F59, size: 0x8, addend: 0x0, symName: __RNvXs6_NtCse1nGBsou5OW_5alloc3vecINtB5_3VecTNtNtCs6IAuOt8vWmF_3syn3pat3PatNtNtBK_5token5CommaEENtNtNtCsfvfooZQ3Axs_4core3ops5deref5Deref5derefBK_, symObjAddr: 0x6D5C, symBinAddr: 0x355DC, symSize: 0x24 }
  - { offset: 0xA9F99, size: 0x8, addend: 0x0, symName: __RNvXs6_NtCse1nGBsou5OW_5alloc3vecINtB5_3VecTNtNtCs6IAuOt8vWmF_3syn3pat8FieldPatNtNtBK_5token5CommaEENtNtNtCsfvfooZQ3Axs_4core3ops5deref5Deref5derefBK_, symObjAddr: 0x6D80, symBinAddr: 0x35600, symSize: 0x24 }
  - { offset: 0xA9FD9, size: 0x8, addend: 0x0, symName: __RNvXs6_NtCse1nGBsou5OW_5alloc3vecINtB5_3VecTNtNtCs6IAuOt8vWmF_3syn4data5FieldNtNtBK_5token5CommaEENtNtNtCsfvfooZQ3Axs_4core3ops5deref5Deref5derefBK_, symObjAddr: 0x6DA4, symBinAddr: 0x35624, symSize: 0x24 }
  - { offset: 0xAA019, size: 0x8, addend: 0x0, symName: __RNvXs6_NtCse1nGBsou5OW_5alloc3vecINtB5_3VecTNtNtCs6IAuOt8vWmF_3syn4data7VariantNtNtBK_5token5CommaEENtNtNtCsfvfooZQ3Axs_4core3ops5deref5Deref5derefBK_, symObjAddr: 0x6DC8, symBinAddr: 0x35648, symSize: 0x24 }
  - { offset: 0xAA059, size: 0x8, addend: 0x0, symName: __RNvXs6_NtCse1nGBsou5OW_5alloc3vecINtB5_3VecTNtNtCs6IAuOt8vWmF_3syn4expr10FieldValueNtNtBK_5token5CommaEENtNtNtCsfvfooZQ3Axs_4core3ops5deref5Deref5derefBK_, symObjAddr: 0x6DEC, symBinAddr: 0x3566C, symSize: 0x24 }
  - { offset: 0xAA099, size: 0x8, addend: 0x0, symName: __RNvXs6_NtCse1nGBsou5OW_5alloc3vecINtB5_3VecTNtNtCs6IAuOt8vWmF_3syn4expr4ExprNtNtBK_5token5CommaEENtNtNtCsfvfooZQ3Axs_4core3ops5deref5Deref5derefBK_, symObjAddr: 0x6E10, symBinAddr: 0x35690, symSize: 0x24 }
  - { offset: 0xAA0D9, size: 0x8, addend: 0x0, symName: __RNvXs6_NtCse1nGBsou5OW_5alloc3vecINtB5_3VecTNtNtCs6IAuOt8vWmF_3syn4item5FnArgNtNtBK_5token5CommaEENtNtNtCsfvfooZQ3Axs_4core3ops5deref5Deref5derefBK_, symObjAddr: 0x6E34, symBinAddr: 0x356B4, symSize: 0x24 }
  - { offset: 0xAA119, size: 0x8, addend: 0x0, symName: __RNvXs6_NtCse1nGBsou5OW_5alloc3vecINtB5_3VecTNtNtCs6IAuOt8vWmF_3syn4item7UseTreeNtNtBK_5token5CommaEENtNtNtCsfvfooZQ3Axs_4core3ops5deref5Deref5derefBK_, symObjAddr: 0x6E58, symBinAddr: 0x356D8, symSize: 0x24 }
  - { offset: 0xAA159, size: 0x8, addend: 0x0, symName: __RNvXs6_NtCse1nGBsou5OW_5alloc3vecINtB5_3VecTNtNtCs6IAuOt8vWmF_3syn4path11PathSegmentNtNtBK_5token7PathSepEENtNtNtCsfvfooZQ3Axs_4core3ops5deref5Deref5derefBK_, symObjAddr: 0x6E7C, symBinAddr: 0x356FC, symSize: 0x24 }
  - { offset: 0xAA199, size: 0x8, addend: 0x0, symName: __RNvXs6_NtCse1nGBsou5OW_5alloc3vecINtB5_3VecTNtNtCs6IAuOt8vWmF_3syn4path15GenericArgumentNtNtBK_5token5CommaEENtNtNtCsfvfooZQ3Axs_4core3ops5deref5Deref5derefBK_, symObjAddr: 0x6EA0, symBinAddr: 0x35720, symSize: 0x24 }
  - { offset: 0xAA1D9, size: 0x8, addend: 0x0, symName: __RNvXs6_NtCse1nGBsou5OW_5alloc3vecINtB5_3VecTNtNtCs6IAuOt8vWmF_3syn8generics12GenericParamNtNtBK_5token5CommaEENtNtNtCsfvfooZQ3Axs_4core3ops5deref5Deref5derefBK_, symObjAddr: 0x6EC4, symBinAddr: 0x35744, symSize: 0x24 }
  - { offset: 0xAA219, size: 0x8, addend: 0x0, symName: __RNvXs6_NtCse1nGBsou5OW_5alloc3vecINtB5_3VecTNtNtCs6IAuOt8vWmF_3syn8generics13CapturedParamNtNtBK_5token5CommaEENtNtNtCsfvfooZQ3Axs_4core3ops5deref5Deref5derefBK_, symObjAddr: 0x6EE8, symBinAddr: 0x35768, symSize: 0x24 }
  - { offset: 0xAA259, size: 0x8, addend: 0x0, symName: __RNvXs6_NtCse1nGBsou5OW_5alloc3vecINtB5_3VecTNtNtCs6IAuOt8vWmF_3syn8generics14TypeParamBoundNtNtBK_5token4PlusEENtNtNtCsfvfooZQ3Axs_4core3ops5deref5Deref5derefBK_, symObjAddr: 0x6F0C, symBinAddr: 0x3578C, symSize: 0x24 }
  - { offset: 0xAA299, size: 0x8, addend: 0x0, symName: __RNvXs6_NtCse1nGBsou5OW_5alloc3vecINtB5_3VecTNtNtCs6IAuOt8vWmF_3syn8generics14WherePredicateNtNtBK_5token5CommaEENtNtNtCsfvfooZQ3Axs_4core3ops5deref5Deref5derefBK_, symObjAddr: 0x6F30, symBinAddr: 0x357B0, symSize: 0x24 }
  - { offset: 0xAA2D9, size: 0x8, addend: 0x0, symName: __RNvXs6_NtCse1nGBsou5OW_5alloc3vecINtB5_3VecTNtNtCs6IAuOt8vWmF_3syn8lifetime8LifetimeNtNtBK_5token4PlusEENtNtNtCsfvfooZQ3Axs_4core3ops5deref5Deref5derefBK_, symObjAddr: 0x6F54, symBinAddr: 0x357D4, symSize: 0x24 }
  - { offset: 0xAA319, size: 0x8, addend: 0x0, symName: __RNvXs6_NtCse1nGBsou5OW_5alloc3vecINtB5_3VechENtNtNtCsfvfooZQ3Axs_4core3ops5deref5Deref5derefCs6IAuOt8vWmF_3syn, symObjAddr: 0x6F78, symBinAddr: 0x357F8, symSize: 0x24 }
  - { offset: 0xAAAAF, size: 0x8, addend: 0x0, symName: __RNvXsb_NtCse1nGBsou5OW_5alloc3vecINtB5_3VecNtNtCs6IAuOt8vWmF_3syn5error12ErrorMessageEINtNtNtCsfvfooZQ3Axs_4core3ops5index5IndexjE5indexBJ_, symObjAddr: 0x7EA4, symBinAddr: 0x365E8, symSize: 0x84 }
  - { offset: 0xAAC31, size: 0x8, addend: 0x0, symName: __RNvXsb_NtCse1nGBsou5OW_5alloc3vecINtB5_3VecReEINtNtNtCsfvfooZQ3Axs_4core3ops5index5IndexjE5indexCs6IAuOt8vWmF_3syn, symObjAddr: 0x7F28, symBinAddr: 0x3666C, symSize: 0x84 }
  - { offset: 0xAADB3, size: 0x8, addend: 0x0, symName: __RNvXsb_NtCse1nGBsou5OW_5alloc3vecINtB5_3VecTNtNtCs6IAuOt8vWmF_3syn3pat3PatNtNtBK_5token5CommaEEINtNtNtCsfvfooZQ3Axs_4core3ops5index5IndexjE5indexBK_, symObjAddr: 0x7FAC, symBinAddr: 0x366F0, symSize: 0x84 }
  - { offset: 0xAAF35, size: 0x8, addend: 0x0, symName: __RNvXsb_NtCse1nGBsou5OW_5alloc3vecINtB5_3VecTNtNtCs6IAuOt8vWmF_3syn4path11PathSegmentNtNtBK_5token7PathSepEEINtNtNtCsfvfooZQ3Axs_4core3ops5index5IndexjE5indexBK_, symObjAddr: 0x8030, symBinAddr: 0x36774, symSize: 0x84 }
  - { offset: 0xAB0B7, size: 0x8, addend: 0x0, symName: __RNvXsb_NtCse1nGBsou5OW_5alloc3vecINtB5_3VechEINtNtNtCsfvfooZQ3Axs_4core3ops5index5IndexINtNtBM_5range9RangeFromjEE5indexCs6IAuOt8vWmF_3syn, symObjAddr: 0x80B4, symBinAddr: 0x367F8, symSize: 0x80 }
  - { offset: 0xAB239, size: 0x8, addend: 0x0, symName: __RNvXsb_NtCse1nGBsou5OW_5alloc3vecINtB5_3VechEINtNtNtCsfvfooZQ3Axs_4core3ops5index5IndexjE5indexCs6IAuOt8vWmF_3syn, symObjAddr: 0x8134, symBinAddr: 0x36878, symSize: 0x80 }
  - { offset: 0xAB3C6, size: 0x8, addend: 0x0, symName: __RNvXNtNtCse1nGBsou5OW_5alloc3vec11spec_extendINtB4_3VecNtCs3cP53eQoTwO_11proc_macro29TokenTreeEINtB2_10SpecExtendBR_INtNtNtNtCsfvfooZQ3Axs_4core4iter8adapters7flatten7FlattenINtNtB1V_3map3MapIB2N_IB2N_INtNtNtB1Z_5slice4iter4IterNtNtCs6IAuOt8vWmF_3syn5error12ErrorMessageENvMs_B3G_B3E_16to_compile_errorENCINvXs7_BT_NtBT_11TokenStreamINtNtNtB1X_6traits7collect12FromIteratorB53_E9from_iterB38_E0ENCINvXs6_NtBT_3impNtB6u_11TokenStreamIB5m_B6D_E9from_iterB33_Es_0EEE11spec_extendB3I_, symObjAddr: 0x6590, symBinAddr: 0x35140, symSize: 0x24 }
  - { offset: 0xAB41E, size: 0x8, addend: 0x0, symName: __RNvXs0_NtNtCse1nGBsou5OW_5alloc3vec11spec_extendINtB7_3VecNtNtCs6IAuOt8vWmF_3syn4attr9AttributeEINtB5_10SpecExtendBU_INtNtB7_9into_iter8IntoIterBU_EE11spec_extendBY_, symObjAddr: 0x6AB8, symBinAddr: 0x35400, symSize: 0x98 }
  - { offset: 0xAB48A, size: 0x8, addend: 0x0, symName: __RNvXs_NtNtCse1nGBsou5OW_5alloc3vec11spec_extendINtB6_3VecNtNtCs6IAuOt8vWmF_3syn8generics14TypeParamBoundEINtB4_10SpecExtendBT_INtNtCsfvfooZQ3Axs_4core6option8IntoIterBT_EE11spec_extendBX_, symObjAddr: 0x7E5C, symBinAddr: 0x365A0, symSize: 0x24 }
  - { offset: 0xAB4DC, size: 0x8, addend: 0x0, symName: __RNvXs_NtNtCse1nGBsou5OW_5alloc3vec11spec_extendINtB6_3VecNtNtCs6IAuOt8vWmF_3syn8generics14TypeParamBoundEINtB4_10SpecExtendBT_INtNtNtNtCsfvfooZQ3Axs_4core4iter8adapters3map3MapINtNtB6_9into_iter8IntoIterTBT_NtNtBX_5token4PlusEENCNvXs8_NtBX_10punctuatedINtB3L_10PunctuatedBT_B3j_ENtNtNtB27_6traits7collect12IntoIterator9into_iter0EE11spec_extendBX_, symObjAddr: 0x7E80, symBinAddr: 0x365C4, symSize: 0x24 }
  - { offset: 0xAB535, size: 0x8, addend: 0x0, symName: __RNvXs7_NtCse1nGBsou5OW_5alloc3vecINtB5_3VecTNtNtCs6IAuOt8vWmF_3syn4path11PathSegmentNtNtBK_5token7PathSepEENtNtNtCsfvfooZQ3Axs_4core3ops5deref8DerefMut9deref_mutBK_, symObjAddr: 0x6FC0, symBinAddr: 0x3581C, symSize: 0x24 }
  - { offset: 0xAB60B, size: 0x8, addend: 0x0, symName: __RNvXs9_NtCse1nGBsou5OW_5alloc3vecINtB5_3VecNtNtCs6IAuOt8vWmF_3syn4attr9AttributeENtNtCsfvfooZQ3Axs_4core5clone5Clone5cloneBJ_, symObjAddr: 0x7008, symBinAddr: 0x35840, symSize: 0x88 }
  - { offset: 0xAB802, size: 0x8, addend: 0x0, symName: __RNvXs9_NtCse1nGBsou5OW_5alloc3vecINtB5_3VecNtNtCs6IAuOt8vWmF_3syn4expr3ArmENtNtCsfvfooZQ3Axs_4core5clone5Clone5cloneBJ_, symObjAddr: 0x7090, symBinAddr: 0x358C8, symSize: 0x88 }
  - { offset: 0xAB9F9, size: 0x8, addend: 0x0, symName: __RNvXs9_NtCse1nGBsou5OW_5alloc3vecINtB5_3VecNtNtCs6IAuOt8vWmF_3syn4item11ForeignItemENtNtCsfvfooZQ3Axs_4core5clone5Clone5cloneBJ_, symObjAddr: 0x7118, symBinAddr: 0x35950, symSize: 0x88 }
  - { offset: 0xABBF0, size: 0x8, addend: 0x0, symName: __RNvXs9_NtCse1nGBsou5OW_5alloc3vecINtB5_3VecNtNtCs6IAuOt8vWmF_3syn4item4ItemENtNtCsfvfooZQ3Axs_4core5clone5Clone5cloneBJ_, symObjAddr: 0x71A0, symBinAddr: 0x359D8, symSize: 0x88 }
  - { offset: 0xABDE7, size: 0x8, addend: 0x0, symName: __RNvXs9_NtCse1nGBsou5OW_5alloc3vecINtB5_3VecNtNtCs6IAuOt8vWmF_3syn4item8ImplItemENtNtCsfvfooZQ3Axs_4core5clone5Clone5cloneBJ_, symObjAddr: 0x7228, symBinAddr: 0x35A60, symSize: 0x88 }
  - { offset: 0xABFDE, size: 0x8, addend: 0x0, symName: __RNvXs9_NtCse1nGBsou5OW_5alloc3vecINtB5_3VecNtNtCs6IAuOt8vWmF_3syn4item9TraitItemENtNtCsfvfooZQ3Axs_4core5clone5Clone5cloneBJ_, symObjAddr: 0x72B0, symBinAddr: 0x35AE8, symSize: 0x88 }
  - { offset: 0xAC1D5, size: 0x8, addend: 0x0, symName: __RNvXs9_NtCse1nGBsou5OW_5alloc3vecINtB5_3VecNtNtCs6IAuOt8vWmF_3syn4stmt4StmtENtNtCsfvfooZQ3Axs_4core5clone5Clone5cloneBJ_, symObjAddr: 0x7338, symBinAddr: 0x35B70, symSize: 0x88 }
  - { offset: 0xAC3CC, size: 0x8, addend: 0x0, symName: __RNvXs9_NtCse1nGBsou5OW_5alloc3vecINtB5_3VecTNtNtCs6IAuOt8vWmF_3syn2ty4TypeNtNtBK_5token5CommaEENtNtCsfvfooZQ3Axs_4core5clone5Clone5cloneBK_, symObjAddr: 0x7448, symBinAddr: 0x35BF8, symSize: 0x88 }
  - { offset: 0xAC5C3, size: 0x8, addend: 0x0, symName: __RNvXs9_NtCse1nGBsou5OW_5alloc3vecINtB5_3VecTNtNtCs6IAuOt8vWmF_3syn2ty9BareFnArgNtNtBK_5token5CommaEENtNtCsfvfooZQ3Axs_4core5clone5Clone5cloneBK_, symObjAddr: 0x74D0, symBinAddr: 0x35C80, symSize: 0x88 }
  - { offset: 0xAC7BA, size: 0x8, addend: 0x0, symName: __RNvXs9_NtCse1nGBsou5OW_5alloc3vecINtB5_3VecTNtNtCs6IAuOt8vWmF_3syn3pat3PatNtNtBK_5token2OrEENtNtCsfvfooZQ3Axs_4core5clone5Clone5cloneBK_, symObjAddr: 0x7558, symBinAddr: 0x35D08, symSize: 0x88 }
  - { offset: 0xAC9B1, size: 0x8, addend: 0x0, symName: __RNvXs9_NtCse1nGBsou5OW_5alloc3vecINtB5_3VecTNtNtCs6IAuOt8vWmF_3syn3pat3PatNtNtBK_5token5CommaEENtNtCsfvfooZQ3Axs_4core5clone5Clone5cloneBK_, symObjAddr: 0x75E0, symBinAddr: 0x35D90, symSize: 0x88 }
  - { offset: 0xACBA8, size: 0x8, addend: 0x0, symName: __RNvXs9_NtCse1nGBsou5OW_5alloc3vecINtB5_3VecTNtNtCs6IAuOt8vWmF_3syn3pat8FieldPatNtNtBK_5token5CommaEENtNtCsfvfooZQ3Axs_4core5clone5Clone5cloneBK_, symObjAddr: 0x7668, symBinAddr: 0x35E18, symSize: 0x88 }
  - { offset: 0xACD9F, size: 0x8, addend: 0x0, symName: __RNvXs9_NtCse1nGBsou5OW_5alloc3vecINtB5_3VecTNtNtCs6IAuOt8vWmF_3syn4data5FieldNtNtBK_5token5CommaEENtNtCsfvfooZQ3Axs_4core5clone5Clone5cloneBK_, symObjAddr: 0x76F0, symBinAddr: 0x35EA0, symSize: 0x88 }
  - { offset: 0xACF96, size: 0x8, addend: 0x0, symName: __RNvXs9_NtCse1nGBsou5OW_5alloc3vecINtB5_3VecTNtNtCs6IAuOt8vWmF_3syn4data7VariantNtNtBK_5token5CommaEENtNtCsfvfooZQ3Axs_4core5clone5Clone5cloneBK_, symObjAddr: 0x7778, symBinAddr: 0x35F28, symSize: 0x88 }
  - { offset: 0xAD18D, size: 0x8, addend: 0x0, symName: __RNvXs9_NtCse1nGBsou5OW_5alloc3vecINtB5_3VecTNtNtCs6IAuOt8vWmF_3syn4expr10FieldValueNtNtBK_5token5CommaEENtNtCsfvfooZQ3Axs_4core5clone5Clone5cloneBK_, symObjAddr: 0x7800, symBinAddr: 0x35FB0, symSize: 0x88 }
  - { offset: 0xAD384, size: 0x8, addend: 0x0, symName: __RNvXs9_NtCse1nGBsou5OW_5alloc3vecINtB5_3VecTNtNtCs6IAuOt8vWmF_3syn4expr4ExprNtNtBK_5token5CommaEENtNtCsfvfooZQ3Axs_4core5clone5Clone5cloneBK_, symObjAddr: 0x7888, symBinAddr: 0x36038, symSize: 0x88 }
  - { offset: 0xAD57B, size: 0x8, addend: 0x0, symName: __RNvXs9_NtCse1nGBsou5OW_5alloc3vecINtB5_3VecTNtNtCs6IAuOt8vWmF_3syn4item5FnArgNtNtBK_5token5CommaEENtNtCsfvfooZQ3Axs_4core5clone5Clone5cloneBK_, symObjAddr: 0x7910, symBinAddr: 0x360C0, symSize: 0x88 }
  - { offset: 0xAD772, size: 0x8, addend: 0x0, symName: __RNvXs9_NtCse1nGBsou5OW_5alloc3vecINtB5_3VecTNtNtCs6IAuOt8vWmF_3syn4item7UseTreeNtNtBK_5token5CommaEENtNtCsfvfooZQ3Axs_4core5clone5Clone5cloneBK_, symObjAddr: 0x7998, symBinAddr: 0x36148, symSize: 0x88 }
  - { offset: 0xAD969, size: 0x8, addend: 0x0, symName: __RNvXs9_NtCse1nGBsou5OW_5alloc3vecINtB5_3VecTNtNtCs6IAuOt8vWmF_3syn4path11PathSegmentNtNtBK_5token7PathSepEENtNtCsfvfooZQ3Axs_4core5clone5Clone5cloneBK_, symObjAddr: 0x7A20, symBinAddr: 0x361D0, symSize: 0x88 }
  - { offset: 0xADB60, size: 0x8, addend: 0x0, symName: __RNvXs9_NtCse1nGBsou5OW_5alloc3vecINtB5_3VecTNtNtCs6IAuOt8vWmF_3syn4path15GenericArgumentNtNtBK_5token5CommaEENtNtCsfvfooZQ3Axs_4core5clone5Clone5cloneBK_, symObjAddr: 0x7AA8, symBinAddr: 0x36258, symSize: 0x88 }
  - { offset: 0xADD57, size: 0x8, addend: 0x0, symName: __RNvXs9_NtCse1nGBsou5OW_5alloc3vecINtB5_3VecTNtNtCs6IAuOt8vWmF_3syn8generics12GenericParamNtNtBK_5token5CommaEENtNtCsfvfooZQ3Axs_4core5clone5Clone5cloneBK_, symObjAddr: 0x7B30, symBinAddr: 0x362E0, symSize: 0x88 }
  - { offset: 0xADF4E, size: 0x8, addend: 0x0, symName: __RNvXs9_NtCse1nGBsou5OW_5alloc3vecINtB5_3VecTNtNtCs6IAuOt8vWmF_3syn8generics13CapturedParamNtNtBK_5token5CommaEENtNtCsfvfooZQ3Axs_4core5clone5Clone5cloneBK_, symObjAddr: 0x7BB8, symBinAddr: 0x36368, symSize: 0x88 }
  - { offset: 0xAE145, size: 0x8, addend: 0x0, symName: __RNvXs9_NtCse1nGBsou5OW_5alloc3vecINtB5_3VecTNtNtCs6IAuOt8vWmF_3syn8generics14TypeParamBoundNtNtBK_5token4PlusEENtNtCsfvfooZQ3Axs_4core5clone5Clone5cloneBK_, symObjAddr: 0x7C40, symBinAddr: 0x363F0, symSize: 0x88 }
  - { offset: 0xAE33C, size: 0x8, addend: 0x0, symName: __RNvXs9_NtCse1nGBsou5OW_5alloc3vecINtB5_3VecTNtNtCs6IAuOt8vWmF_3syn8generics14WherePredicateNtNtBK_5token5CommaEENtNtCsfvfooZQ3Axs_4core5clone5Clone5cloneBK_, symObjAddr: 0x7CC8, symBinAddr: 0x36478, symSize: 0x88 }
  - { offset: 0xAE533, size: 0x8, addend: 0x0, symName: __RNvXs9_NtCse1nGBsou5OW_5alloc3vecINtB5_3VecTNtNtCs6IAuOt8vWmF_3syn8lifetime8LifetimeNtNtBK_5token4PlusEENtNtCsfvfooZQ3Axs_4core5clone5Clone5cloneBK_, symObjAddr: 0x7D50, symBinAddr: 0x36500, symSize: 0x88 }
  - { offset: 0xAE730, size: 0x8, addend: 0x0, symName: __RNvXsc_NtCse1nGBsou5OW_5alloc3vecINtB5_3VecNtNtCs6IAuOt8vWmF_3syn6buffer5EntryEINtNtNtCsfvfooZQ3Axs_4core3ops5index8IndexMutjE9index_mutBJ_, symObjAddr: 0x81B4, symBinAddr: 0x368F8, symSize: 0x84 }
  - { offset: 0xAE884, size: 0x8, addend: 0x0, symName: __RNvXsc_NtCse1nGBsou5OW_5alloc3vecINtB5_3VechEINtNtNtCsfvfooZQ3Axs_4core3ops5index8IndexMutjE9index_mutCs6IAuOt8vWmF_3syn, symObjAddr: 0x8238, symBinAddr: 0x3697C, symSize: 0x80 }
  - { offset: 0xAE9DE, size: 0x8, addend: 0x0, symName: __RNvXse_NtCse1nGBsou5OW_5alloc3vecINtB5_3VecNtNtCs6IAuOt8vWmF_3syn4attr9AttributeENtNtNtNtCsfvfooZQ3Axs_4core4iter6traits7collect12IntoIterator9into_iterBJ_, symObjAddr: 0x82B8, symBinAddr: 0x369FC, symSize: 0xDC }
  - { offset: 0xAEC70, size: 0x8, addend: 0x0, symName: __RNvXse_NtCse1nGBsou5OW_5alloc3vecINtB5_3VecNtNtCs6IAuOt8vWmF_3syn8generics14TypeParamBoundENtNtNtNtCsfvfooZQ3Axs_4core4iter6traits7collect12IntoIterator9into_iterBJ_, symObjAddr: 0x855C, symBinAddr: 0x36AD8, symSize: 0xE4 }
  - { offset: 0xAEF02, size: 0x8, addend: 0x0, symName: __RNvXse_NtCse1nGBsou5OW_5alloc3vecINtB5_3VecTNtNtCs6IAuOt8vWmF_3syn4path11PathSegmentNtNtBK_5token7PathSepEENtNtNtNtCsfvfooZQ3Axs_4core4iter6traits7collect12IntoIterator9into_iterBK_, symObjAddr: 0x8808, symBinAddr: 0x36BBC, symSize: 0xE4 }
  - { offset: 0xAF194, size: 0x8, addend: 0x0, symName: __RNvXse_NtCse1nGBsou5OW_5alloc3vecINtB5_3VecTNtNtCs6IAuOt8vWmF_3syn8generics14TypeParamBoundNtNtBK_5token4PlusEENtNtNtNtCsfvfooZQ3Axs_4core4iter6traits7collect12IntoIterator9into_iterBK_, symObjAddr: 0x88EC, symBinAddr: 0x36CA0, symSize: 0xDC }
  - { offset: 0xAF42C, size: 0x8, addend: 0x0, symName: __RNvXsf_NtCse1nGBsou5OW_5alloc3vecRINtB5_3VecNtNtCs6IAuOt8vWmF_3syn4attr9AttributeENtNtNtNtCsfvfooZQ3Axs_4core4iter6traits7collect12IntoIterator9into_iterBK_, symObjAddr: 0x89C8, symBinAddr: 0x36D7C, symSize: 0x9C }
  - { offset: 0xAF688, size: 0x8, addend: 0x0, symName: __RNvXsf_NtCse1nGBsou5OW_5alloc3vecRINtB5_3VecNtNtCs6IAuOt8vWmF_3syn4item11ForeignItemENtNtNtNtCsfvfooZQ3Axs_4core4iter6traits7collect12IntoIterator9into_iterBK_, symObjAddr: 0x8A64, symBinAddr: 0x36E18, symSize: 0xA4 }
  - { offset: 0xAF8E4, size: 0x8, addend: 0x0, symName: __RNvXsf_NtCse1nGBsou5OW_5alloc3vecRINtB5_3VecNtNtCs6IAuOt8vWmF_3syn4item4ItemENtNtNtNtCsfvfooZQ3Axs_4core4iter6traits7collect12IntoIterator9into_iterBK_, symObjAddr: 0x8B08, symBinAddr: 0x36EBC, symSize: 0xA4 }
  - { offset: 0xAFB40, size: 0x8, addend: 0x0, symName: __RNvXsf_NtCse1nGBsou5OW_5alloc3vecRINtB5_3VecNtNtCs6IAuOt8vWmF_3syn4item8ImplItemENtNtNtNtCsfvfooZQ3Axs_4core4iter6traits7collect12IntoIterator9into_iterBK_, symObjAddr: 0x8BAC, symBinAddr: 0x36F60, symSize: 0xA4 }
  - { offset: 0xAFD9C, size: 0x8, addend: 0x0, symName: __RNvXsf_NtCse1nGBsou5OW_5alloc3vecRINtB5_3VecNtNtCs6IAuOt8vWmF_3syn4item9TraitItemENtNtNtNtCsfvfooZQ3Axs_4core4iter6traits7collect12IntoIterator9into_iterBK_, symObjAddr: 0x8C50, symBinAddr: 0x37004, symSize: 0xA4 }
  - { offset: 0xAFFF8, size: 0x8, addend: 0x0, symName: __RNvXsf_NtCse1nGBsou5OW_5alloc3vecRINtB5_3VecNtNtCs6IAuOt8vWmF_3syn4stmt4StmtENtNtNtNtCsfvfooZQ3Axs_4core4iter6traits7collect12IntoIterator9into_iterBK_, symObjAddr: 0x8CF4, symBinAddr: 0x370A8, symSize: 0xA4 }
  - { offset: 0xB025A, size: 0x8, addend: 0x0, symName: __RNvXsg_NtCse1nGBsou5OW_5alloc3vecQINtB5_3VechENtNtNtNtCsfvfooZQ3Axs_4core4iter6traits7collect12IntoIterator9into_iterCs6IAuOt8vWmF_3syn, symObjAddr: 0x9918, symBinAddr: 0x3714C, symSize: 0x98 }
  - { offset: 0xB048E, size: 0x8, addend: 0x0, symName: __RNvXsn_NtCse1nGBsou5OW_5alloc3vecINtB5_3VecNtNtCs6IAuOt8vWmF_3syn4attr9AttributeENtNtNtCsfvfooZQ3Axs_4core3ops4drop4Drop4dropBJ_, symObjAddr: 0x99B0, symBinAddr: 0x371E4, symSize: 0x38 }
  - { offset: 0xB053E, size: 0x8, addend: 0x0, symName: __RNvXsn_NtCse1nGBsou5OW_5alloc3vecINtB5_3VecNtNtCs6IAuOt8vWmF_3syn4expr3ArmENtNtNtCsfvfooZQ3Axs_4core3ops4drop4Drop4dropBJ_, symObjAddr: 0x9A20, symBinAddr: 0x3721C, symSize: 0x38 }
  - { offset: 0xB05EE, size: 0x8, addend: 0x0, symName: __RNvXsn_NtCse1nGBsou5OW_5alloc3vecINtB5_3VecNtNtCs6IAuOt8vWmF_3syn4expr6ExprIfENtNtNtCsfvfooZQ3Axs_4core3ops4drop4Drop4dropBJ_, symObjAddr: 0x9A58, symBinAddr: 0x37254, symSize: 0x38 }
  - { offset: 0xB069E, size: 0x8, addend: 0x0, symName: __RNvXsn_NtCse1nGBsou5OW_5alloc3vecINtB5_3VecNtNtCs6IAuOt8vWmF_3syn4item11ForeignItemENtNtNtCsfvfooZQ3Axs_4core3ops4drop4Drop4dropBJ_, symObjAddr: 0x9A90, symBinAddr: 0x3728C, symSize: 0x38 }
  - { offset: 0xB074E, size: 0x8, addend: 0x0, symName: __RNvXsn_NtCse1nGBsou5OW_5alloc3vecINtB5_3VecNtNtCs6IAuOt8vWmF_3syn4item4ItemENtNtNtCsfvfooZQ3Axs_4core3ops4drop4Drop4dropBJ_, symObjAddr: 0x9AC8, symBinAddr: 0x372C4, symSize: 0x38 }
  - { offset: 0xB07FE, size: 0x8, addend: 0x0, symName: __RNvXsn_NtCse1nGBsou5OW_5alloc3vecINtB5_3VecNtNtCs6IAuOt8vWmF_3syn4item8ImplItemENtNtNtCsfvfooZQ3Axs_4core3ops4drop4Drop4dropBJ_, symObjAddr: 0x9B00, symBinAddr: 0x372FC, symSize: 0x38 }
  - { offset: 0xB08AE, size: 0x8, addend: 0x0, symName: __RNvXsn_NtCse1nGBsou5OW_5alloc3vecINtB5_3VecNtNtCs6IAuOt8vWmF_3syn4item9TraitItemENtNtNtCsfvfooZQ3Axs_4core3ops4drop4Drop4dropBJ_, symObjAddr: 0x9B38, symBinAddr: 0x37334, symSize: 0x38 }
  - { offset: 0xB095E, size: 0x8, addend: 0x0, symName: __RNvXsn_NtCse1nGBsou5OW_5alloc3vecINtB5_3VecNtNtCs6IAuOt8vWmF_3syn4stmt4StmtENtNtNtCsfvfooZQ3Axs_4core3ops4drop4Drop4dropBJ_, symObjAddr: 0x9B70, symBinAddr: 0x3736C, symSize: 0x38 }
  - { offset: 0xB0A0E, size: 0x8, addend: 0x0, symName: __RNvXsn_NtCse1nGBsou5OW_5alloc3vecINtB5_3VecNtNtCs6IAuOt8vWmF_3syn5error12ErrorMessageENtNtNtCsfvfooZQ3Axs_4core3ops4drop4Drop4dropBJ_, symObjAddr: 0x9BA8, symBinAddr: 0x373A4, symSize: 0x38 }
  - { offset: 0xB0ABE, size: 0x8, addend: 0x0, symName: __RNvXsn_NtCse1nGBsou5OW_5alloc3vecINtB5_3VecNtNtCs6IAuOt8vWmF_3syn6buffer5EntryENtNtNtCsfvfooZQ3Axs_4core3ops4drop4Drop4dropBJ_, symObjAddr: 0x9BE0, symBinAddr: 0x373DC, symSize: 0x38 }
  - { offset: 0xB0B6E, size: 0x8, addend: 0x0, symName: __RNvXsn_NtCse1nGBsou5OW_5alloc3vecINtB5_3VecNtNtCs6IAuOt8vWmF_3syn8generics14TypeParamBoundENtNtNtCsfvfooZQ3Axs_4core3ops4drop4Drop4dropBJ_, symObjAddr: 0x9C18, symBinAddr: 0x37414, symSize: 0x38 }
  - { offset: 0xB0C1E, size: 0x8, addend: 0x0, symName: __RNvXsn_NtCse1nGBsou5OW_5alloc3vecINtB5_3VecReENtNtNtCsfvfooZQ3Axs_4core3ops4drop4Drop4dropCs6IAuOt8vWmF_3syn, symObjAddr: 0x9C50, symBinAddr: 0x3744C, symSize: 0x24 }
  - { offset: 0xB0CCE, size: 0x8, addend: 0x0, symName: __RNvXsn_NtCse1nGBsou5OW_5alloc3vecINtB5_3VecTNtNtCs6IAuOt8vWmF_3syn2ty4TypeNtNtBK_5token5CommaEENtNtNtCsfvfooZQ3Axs_4core3ops4drop4Drop4dropBK_, symObjAddr: 0x9C74, symBinAddr: 0x37470, symSize: 0x38 }
  - { offset: 0xB0D7E, size: 0x8, addend: 0x0, symName: __RNvXsn_NtCse1nGBsou5OW_5alloc3vecINtB5_3VecTNtNtCs6IAuOt8vWmF_3syn2ty9BareFnArgNtNtBK_5token5CommaEENtNtNtCsfvfooZQ3Axs_4core3ops4drop4Drop4dropBK_, symObjAddr: 0x9CAC, symBinAddr: 0x374A8, symSize: 0x38 }
  - { offset: 0xB0E2E, size: 0x8, addend: 0x0, symName: __RNvXsn_NtCse1nGBsou5OW_5alloc3vecINtB5_3VecTNtNtCs6IAuOt8vWmF_3syn3pat3PatNtNtBK_5token2OrEENtNtNtCsfvfooZQ3Axs_4core3ops4drop4Drop4dropBK_, symObjAddr: 0x9CE4, symBinAddr: 0x374E0, symSize: 0x38 }
  - { offset: 0xB0EDE, size: 0x8, addend: 0x0, symName: __RNvXsn_NtCse1nGBsou5OW_5alloc3vecINtB5_3VecTNtNtCs6IAuOt8vWmF_3syn3pat3PatNtNtBK_5token5CommaEENtNtNtCsfvfooZQ3Axs_4core3ops4drop4Drop4dropBK_, symObjAddr: 0x9D1C, symBinAddr: 0x37518, symSize: 0x38 }
  - { offset: 0xB0F8E, size: 0x8, addend: 0x0, symName: __RNvXsn_NtCse1nGBsou5OW_5alloc3vecINtB5_3VecTNtNtCs6IAuOt8vWmF_3syn3pat8FieldPatNtNtBK_5token5CommaEENtNtNtCsfvfooZQ3Axs_4core3ops4drop4Drop4dropBK_, symObjAddr: 0x9D54, symBinAddr: 0x37550, symSize: 0x38 }
  - { offset: 0xB103E, size: 0x8, addend: 0x0, symName: __RNvXsn_NtCse1nGBsou5OW_5alloc3vecINtB5_3VecTNtNtCs6IAuOt8vWmF_3syn4data5FieldNtNtBK_5token5CommaEENtNtNtCsfvfooZQ3Axs_4core3ops4drop4Drop4dropBK_, symObjAddr: 0x9D8C, symBinAddr: 0x37588, symSize: 0x38 }
  - { offset: 0xB10EE, size: 0x8, addend: 0x0, symName: __RNvXsn_NtCse1nGBsou5OW_5alloc3vecINtB5_3VecTNtNtCs6IAuOt8vWmF_3syn4data7VariantNtNtBK_5token5CommaEENtNtNtCsfvfooZQ3Axs_4core3ops4drop4Drop4dropBK_, symObjAddr: 0x9DFC, symBinAddr: 0x375C0, symSize: 0x38 }
  - { offset: 0xB119E, size: 0x8, addend: 0x0, symName: __RNvXsn_NtCse1nGBsou5OW_5alloc3vecINtB5_3VecTNtNtCs6IAuOt8vWmF_3syn4expr10FieldValueNtNtBK_5token5CommaEENtNtNtCsfvfooZQ3Axs_4core3ops4drop4Drop4dropBK_, symObjAddr: 0x9E34, symBinAddr: 0x375F8, symSize: 0x38 }
  - { offset: 0xB124E, size: 0x8, addend: 0x0, symName: __RNvXsn_NtCse1nGBsou5OW_5alloc3vecINtB5_3VecTNtNtCs6IAuOt8vWmF_3syn4expr4ExprNtNtBK_5token5CommaEENtNtNtCsfvfooZQ3Axs_4core3ops4drop4Drop4dropBK_, symObjAddr: 0x9E6C, symBinAddr: 0x37630, symSize: 0x38 }
  - { offset: 0xB12FE, size: 0x8, addend: 0x0, symName: __RNvXsn_NtCse1nGBsou5OW_5alloc3vecINtB5_3VecTNtNtCs6IAuOt8vWmF_3syn4item5FnArgNtNtBK_5token5CommaEENtNtNtCsfvfooZQ3Axs_4core3ops4drop4Drop4dropBK_, symObjAddr: 0x9EA4, symBinAddr: 0x37668, symSize: 0x38 }
  - { offset: 0xB13AE, size: 0x8, addend: 0x0, symName: __RNvXsn_NtCse1nGBsou5OW_5alloc3vecINtB5_3VecTNtNtCs6IAuOt8vWmF_3syn4item7UseTreeNtNtBK_5token5CommaEENtNtNtCsfvfooZQ3Axs_4core3ops4drop4Drop4dropBK_, symObjAddr: 0x9EDC, symBinAddr: 0x376A0, symSize: 0x38 }
  - { offset: 0xB145E, size: 0x8, addend: 0x0, symName: __RNvXsn_NtCse1nGBsou5OW_5alloc3vecINtB5_3VecTNtNtCs6IAuOt8vWmF_3syn4path11PathSegmentNtNtBK_5token7PathSepEENtNtNtCsfvfooZQ3Axs_4core3ops4drop4Drop4dropBK_, symObjAddr: 0x9F14, symBinAddr: 0x376D8, symSize: 0x38 }
  - { offset: 0xB150E, size: 0x8, addend: 0x0, symName: __RNvXsn_NtCse1nGBsou5OW_5alloc3vecINtB5_3VecTNtNtCs6IAuOt8vWmF_3syn4path15GenericArgumentNtNtBK_5token5CommaEENtNtNtCsfvfooZQ3Axs_4core3ops4drop4Drop4dropBK_, symObjAddr: 0x9F4C, symBinAddr: 0x37710, symSize: 0x38 }
  - { offset: 0xB15BE, size: 0x8, addend: 0x0, symName: __RNvXsn_NtCse1nGBsou5OW_5alloc3vecINtB5_3VecTNtNtCs6IAuOt8vWmF_3syn8generics12GenericParamNtNtBK_5token5CommaEENtNtNtCsfvfooZQ3Axs_4core3ops4drop4Drop4dropBK_, symObjAddr: 0x9F84, symBinAddr: 0x37748, symSize: 0x38 }
  - { offset: 0xB166E, size: 0x8, addend: 0x0, symName: __RNvXsn_NtCse1nGBsou5OW_5alloc3vecINtB5_3VecTNtNtCs6IAuOt8vWmF_3syn8generics13CapturedParamNtNtBK_5token5CommaEENtNtNtCsfvfooZQ3Axs_4core3ops4drop4Drop4dropBK_, symObjAddr: 0x9FBC, symBinAddr: 0x37780, symSize: 0x38 }
  - { offset: 0xB171E, size: 0x8, addend: 0x0, symName: __RNvXsn_NtCse1nGBsou5OW_5alloc3vecINtB5_3VecTNtNtCs6IAuOt8vWmF_3syn8generics14TypeParamBoundNtNtBK_5token4PlusEENtNtNtCsfvfooZQ3Axs_4core3ops4drop4Drop4dropBK_, symObjAddr: 0x9FF4, symBinAddr: 0x377B8, symSize: 0x38 }
  - { offset: 0xB17CE, size: 0x8, addend: 0x0, symName: __RNvXsn_NtCse1nGBsou5OW_5alloc3vecINtB5_3VecTNtNtCs6IAuOt8vWmF_3syn8generics14WherePredicateNtNtBK_5token5CommaEENtNtNtCsfvfooZQ3Axs_4core3ops4drop4Drop4dropBK_, symObjAddr: 0xA02C, symBinAddr: 0x377F0, symSize: 0x38 }
  - { offset: 0xB187E, size: 0x8, addend: 0x0, symName: __RNvXsn_NtCse1nGBsou5OW_5alloc3vecINtB5_3VecTNtNtCs6IAuOt8vWmF_3syn8lifetime8LifetimeNtNtBK_5token4PlusEENtNtNtCsfvfooZQ3Axs_4core3ops4drop4Drop4dropBK_, symObjAddr: 0xA064, symBinAddr: 0x37828, symSize: 0x38 }
  - { offset: 0xB1934, size: 0x8, addend: 0x0, symName: __RNvXsp_NtCse1nGBsou5OW_5alloc3vecINtB5_3VecNtNtCs6IAuOt8vWmF_3syn5error12ErrorMessageENtNtCsfvfooZQ3Axs_4core3fmt5Debug3fmtBJ_, symObjAddr: 0xA3C8, symBinAddr: 0x37860, symSize: 0x74 }
  - { offset: 0xB1A44, size: 0x8, addend: 0x0, symName: __RNvXsp_NtCse1nGBsou5OW_5alloc3vecINtB5_3VechENtNtCsfvfooZQ3Axs_4core3fmt5Debug3fmtCs6IAuOt8vWmF_3syn, symObjAddr: 0xA43C, symBinAddr: 0x378D4, symSize: 0x70 }
  - { offset: 0xB3F72, size: 0x8, addend: 0x0, symName: __RNvXsV_NtCse1nGBsou5OW_5alloc6stringINtNtB7_3vec3VechEINtNtCsfvfooZQ3Axs_4core7convert4FromNtB5_6StringE4fromCs6IAuOt8vWmF_3syn, symObjAddr: 0x7DD8, symBinAddr: 0x36588, symSize: 0x18 }
  - { offset: 0xB41C7, size: 0x8, addend: 0x0, symName: __RNvXNvMs_NtNtCse1nGBsou5OW_5alloc3ffi5c_strNtB7_7CString3newINtNtBb_3vec3VechENtB2_11SpecNewImpl13spec_new_implCs6IAuOt8vWmF_3syn, symObjAddr: 0x6940, symBinAddr: 0x35288, symSize: 0x178 }
  - { offset: 0xB9DC9, size: 0x8, addend: 0x0, symName: __RINvMs_NtCse1nGBsou5OW_5alloc3vecINtB5_3VecReE10retain_mutNCNvMNtCs6IAuOt8vWmF_3syn9lookaheadNtBZ_10Lookahead15error0EB11_, symObjAddr: 0x0, symBinAddr: 0x30CF4, symSize: 0xE4 }
  - { offset: 0xBA0A5, size: 0x8, addend: 0x0, symName: __RINvMsi_NtCse1nGBsou5OW_5alloc3vecINtB6_3VecNtCs3cP53eQoTwO_11proc_macro29TokenTreeE16extend_desugaredINtNtNtNtCsfvfooZQ3Axs_4core4iter8adapters7flatten7FlattenINtNtB1H_3map3MapIB2z_IB2z_INtNtNtB1L_5slice4iter4IterNtNtCs6IAuOt8vWmF_3syn5error12ErrorMessageENvMs_B3s_B3q_16to_compile_errorENCINvXs7_BI_NtBI_11TokenStreamINtNtNtB1J_6traits7collect12FromIteratorB4P_E9from_iterB2U_E0ENCINvXs6_NtBI_3impNtB6g_11TokenStreamIB58_B6p_E9from_iterB2P_Es_0EEEB3u_, symObjAddr: 0xE4, symBinAddr: 0x30DD8, symSize: 0x1D4 }
  - { offset: 0xBAA47, size: 0x8, addend: 0x0, symName: __RINvMsi_NtCse1nGBsou5OW_5alloc3vecINtB6_3VecNtNtCs6IAuOt8vWmF_3syn8generics14TypeParamBoundE14extend_trustedINtNtCsfvfooZQ3Axs_4core6option8IntoIterBG_EEBK_, symObjAddr: 0x93C, symBinAddr: 0x30FAC, symSize: 0x1A0 }
  - { offset: 0xBACF3, size: 0x8, addend: 0x0, symName: __RINvMsi_NtCse1nGBsou5OW_5alloc3vecINtB6_3VecNtNtCs6IAuOt8vWmF_3syn8generics14TypeParamBoundE14extend_trustedINtNtNtNtCsfvfooZQ3Axs_4core4iter8adapters3map3MapINtNtB6_9into_iter8IntoIterTBG_NtNtBK_5token4PlusEENCNvXs8_NtBK_10punctuatedINtB3t_10PunctuatedBG_B31_ENtNtNtB1P_6traits7collect12IntoIterator9into_iter0EEBK_, symObjAddr: 0xADC, symBinAddr: 0x3114C, symSize: 0x188 }
  - { offset: 0xBB031, size: 0x8, addend: 0x0, symName: __RNvMNtCse1nGBsou5OW_5alloc3vecINtB2_3VecNtNtCs6IAuOt8vWmF_3syn4attr9AttributeE3newBG_, symObjAddr: 0x12C0, symBinAddr: 0x316D0, symSize: 0x14 }
  - { offset: 0xBB04E, size: 0x8, addend: 0x0, symName: __RNvMNtCse1nGBsou5OW_5alloc3vecINtB2_3VecNtNtCs6IAuOt8vWmF_3syn4expr3ArmE3newBG_, symObjAddr: 0x131C, symBinAddr: 0x316E4, symSize: 0x14 }
  - { offset: 0xBB06B, size: 0x8, addend: 0x0, symName: __RNvMNtCse1nGBsou5OW_5alloc3vecINtB2_3VecNtNtCs6IAuOt8vWmF_3syn4expr6ExprIfE3newBG_, symObjAddr: 0x1330, symBinAddr: 0x316F8, symSize: 0x14 }
  - { offset: 0xBB088, size: 0x8, addend: 0x0, symName: __RNvMNtCse1nGBsou5OW_5alloc3vecINtB2_3VecNtNtCs6IAuOt8vWmF_3syn4item11ForeignItemE3newBG_, symObjAddr: 0x1344, symBinAddr: 0x3170C, symSize: 0x14 }
  - { offset: 0xBB0A5, size: 0x8, addend: 0x0, symName: __RNvMNtCse1nGBsou5OW_5alloc3vecINtB2_3VecNtNtCs6IAuOt8vWmF_3syn4item4ItemE3newBG_, symObjAddr: 0x1358, symBinAddr: 0x31720, symSize: 0x14 }
  - { offset: 0xBB0C2, size: 0x8, addend: 0x0, symName: __RNvMNtCse1nGBsou5OW_5alloc3vecINtB2_3VecNtNtCs6IAuOt8vWmF_3syn4item8ImplItemE3newBG_, symObjAddr: 0x136C, symBinAddr: 0x31734, symSize: 0x14 }
  - { offset: 0xBB0DF, size: 0x8, addend: 0x0, symName: __RNvMNtCse1nGBsou5OW_5alloc3vecINtB2_3VecNtNtCs6IAuOt8vWmF_3syn4item9TraitItemE3newBG_, symObjAddr: 0x1380, symBinAddr: 0x31748, symSize: 0x14 }
  - { offset: 0xBB0FC, size: 0x8, addend: 0x0, symName: __RNvMNtCse1nGBsou5OW_5alloc3vecINtB2_3VecNtNtCs6IAuOt8vWmF_3syn4stmt4StmtE3newBG_, symObjAddr: 0x1394, symBinAddr: 0x3175C, symSize: 0x14 }
  - { offset: 0xBB119, size: 0x8, addend: 0x0, symName: __RNvMNtCse1nGBsou5OW_5alloc3vecINtB2_3VecNtNtCs6IAuOt8vWmF_3syn6buffer5EntryE3newBG_, symObjAddr: 0x13A8, symBinAddr: 0x31770, symSize: 0x14 }
  - { offset: 0xBB198, size: 0x8, addend: 0x0, symName: __RNvMNtCse1nGBsou5OW_5alloc3vecINtB2_3VecNtNtCs6IAuOt8vWmF_3syn8generics14TypeParamBoundE13with_capacityBG_, symObjAddr: 0x13BC, symBinAddr: 0x31784, symSize: 0x48 }
  - { offset: 0xBB210, size: 0x8, addend: 0x0, symName: __RNvMNtCse1nGBsou5OW_5alloc3vecINtB2_3VecReE3newCs6IAuOt8vWmF_3syn, symObjAddr: 0x1404, symBinAddr: 0x317CC, symSize: 0x14 }
  - { offset: 0xBB22D, size: 0x8, addend: 0x0, symName: __RNvMNtCse1nGBsou5OW_5alloc3vecINtB2_3VecTNtNtCs6IAuOt8vWmF_3syn2ty4TypeNtNtBH_5token5CommaEE3newBH_, symObjAddr: 0x1418, symBinAddr: 0x317E0, symSize: 0x14 }
  - { offset: 0xBB24A, size: 0x8, addend: 0x0, symName: __RNvMNtCse1nGBsou5OW_5alloc3vecINtB2_3VecTNtNtCs6IAuOt8vWmF_3syn2ty9BareFnArgNtNtBH_5token5CommaEE3newBH_, symObjAddr: 0x142C, symBinAddr: 0x317F4, symSize: 0x14 }
  - { offset: 0xBB267, size: 0x8, addend: 0x0, symName: __RNvMNtCse1nGBsou5OW_5alloc3vecINtB2_3VecTNtNtCs6IAuOt8vWmF_3syn3pat3PatNtNtBH_5token2OrEE3newBH_, symObjAddr: 0x1440, symBinAddr: 0x31808, symSize: 0x14 }
  - { offset: 0xBB284, size: 0x8, addend: 0x0, symName: __RNvMNtCse1nGBsou5OW_5alloc3vecINtB2_3VecTNtNtCs6IAuOt8vWmF_3syn3pat3PatNtNtBH_5token5CommaEE3newBH_, symObjAddr: 0x1454, symBinAddr: 0x3181C, symSize: 0x14 }
  - { offset: 0xBB2A1, size: 0x8, addend: 0x0, symName: __RNvMNtCse1nGBsou5OW_5alloc3vecINtB2_3VecTNtNtCs6IAuOt8vWmF_3syn3pat8FieldPatNtNtBH_5token5CommaEE3newBH_, symObjAddr: 0x1468, symBinAddr: 0x31830, symSize: 0x14 }
  - { offset: 0xBB2BE, size: 0x8, addend: 0x0, symName: __RNvMNtCse1nGBsou5OW_5alloc3vecINtB2_3VecTNtNtCs6IAuOt8vWmF_3syn4data5FieldNtNtBH_5token5CommaEE3newBH_, symObjAddr: 0x147C, symBinAddr: 0x31844, symSize: 0x14 }
  - { offset: 0xBB2DB, size: 0x8, addend: 0x0, symName: __RNvMNtCse1nGBsou5OW_5alloc3vecINtB2_3VecTNtNtCs6IAuOt8vWmF_3syn4data7VariantNtNtBH_5token5CommaEE3newBH_, symObjAddr: 0x14A4, symBinAddr: 0x31858, symSize: 0x14 }
  - { offset: 0xBB2F8, size: 0x8, addend: 0x0, symName: __RNvMNtCse1nGBsou5OW_5alloc3vecINtB2_3VecTNtNtCs6IAuOt8vWmF_3syn4expr10FieldValueNtNtBH_5token5CommaEE3newBH_, symObjAddr: 0x14B8, symBinAddr: 0x3186C, symSize: 0x14 }
  - { offset: 0xBB315, size: 0x8, addend: 0x0, symName: __RNvMNtCse1nGBsou5OW_5alloc3vecINtB2_3VecTNtNtCs6IAuOt8vWmF_3syn4expr4ExprNtNtBH_5token5CommaEE3newBH_, symObjAddr: 0x14CC, symBinAddr: 0x31880, symSize: 0x14 }
  - { offset: 0xBB332, size: 0x8, addend: 0x0, symName: __RNvMNtCse1nGBsou5OW_5alloc3vecINtB2_3VecTNtNtCs6IAuOt8vWmF_3syn4item5FnArgNtNtBH_5token5CommaEE3newBH_, symObjAddr: 0x14E0, symBinAddr: 0x31894, symSize: 0x14 }
  - { offset: 0xBB34F, size: 0x8, addend: 0x0, symName: __RNvMNtCse1nGBsou5OW_5alloc3vecINtB2_3VecTNtNtCs6IAuOt8vWmF_3syn4item7UseTreeNtNtBH_5token5CommaEE3newBH_, symObjAddr: 0x14F4, symBinAddr: 0x318A8, symSize: 0x14 }
  - { offset: 0xBB36C, size: 0x8, addend: 0x0, symName: __RNvMNtCse1nGBsou5OW_5alloc3vecINtB2_3VecTNtNtCs6IAuOt8vWmF_3syn4path11PathSegmentNtNtBH_5token7PathSepEE3newBH_, symObjAddr: 0x1508, symBinAddr: 0x318BC, symSize: 0x14 }
  - { offset: 0xBB389, size: 0x8, addend: 0x0, symName: __RNvMNtCse1nGBsou5OW_5alloc3vecINtB2_3VecTNtNtCs6IAuOt8vWmF_3syn4path15GenericArgumentNtNtBH_5token5CommaEE3newBH_, symObjAddr: 0x151C, symBinAddr: 0x318D0, symSize: 0x14 }
  - { offset: 0xBB3A6, size: 0x8, addend: 0x0, symName: __RNvMNtCse1nGBsou5OW_5alloc3vecINtB2_3VecTNtNtCs6IAuOt8vWmF_3syn8generics12GenericParamNtNtBH_5token5CommaEE3newBH_, symObjAddr: 0x1530, symBinAddr: 0x318E4, symSize: 0x14 }
  - { offset: 0xBB3C3, size: 0x8, addend: 0x0, symName: __RNvMNtCse1nGBsou5OW_5alloc3vecINtB2_3VecTNtNtCs6IAuOt8vWmF_3syn8generics13CapturedParamNtNtBH_5token5CommaEE3newBH_, symObjAddr: 0x1544, symBinAddr: 0x318F8, symSize: 0x14 }
  - { offset: 0xBB3E0, size: 0x8, addend: 0x0, symName: __RNvMNtCse1nGBsou5OW_5alloc3vecINtB2_3VecTNtNtCs6IAuOt8vWmF_3syn8generics14TypeParamBoundNtNtBH_5token4PlusEE3newBH_, symObjAddr: 0x1558, symBinAddr: 0x3190C, symSize: 0x14 }
  - { offset: 0xBB3FD, size: 0x8, addend: 0x0, symName: __RNvMNtCse1nGBsou5OW_5alloc3vecINtB2_3VecTNtNtCs6IAuOt8vWmF_3syn8generics14WherePredicateNtNtBH_5token5CommaEE3newBH_, symObjAddr: 0x156C, symBinAddr: 0x31920, symSize: 0x14 }
  - { offset: 0xBB41A, size: 0x8, addend: 0x0, symName: __RNvMNtCse1nGBsou5OW_5alloc3vecINtB2_3VecTNtNtCs6IAuOt8vWmF_3syn8lifetime8LifetimeNtNtBH_5token4PlusEE3newBH_, symObjAddr: 0x1580, symBinAddr: 0x31934, symSize: 0x14 }
  - { offset: 0xBB437, size: 0x8, addend: 0x0, symName: __RNvMNtCse1nGBsou5OW_5alloc3vecINtB2_3VechE3newCs6IAuOt8vWmF_3syn, symObjAddr: 0x1594, symBinAddr: 0x31948, symSize: 0x14 }
  - { offset: 0xBB559, size: 0x8, addend: 0x0, symName: __RNvMs0_NtCse1nGBsou5OW_5alloc3vecINtB5_3VechE17extend_from_sliceCs6IAuOt8vWmF_3syn, symObjAddr: 0x15A8, symBinAddr: 0x3195C, symSize: 0x74 }
  - { offset: 0xBB7E1, size: 0x8, addend: 0x0, symName: __RNvMs0_NtCse1nGBsou5OW_5alloc3vecINtB5_3VechE6resizeCs6IAuOt8vWmF_3syn, symObjAddr: 0x161C, symBinAddr: 0x319D0, symSize: 0x100 }
  - { offset: 0xBBA82, size: 0x8, addend: 0x0, symName: __RNvMs2_NtCse1nGBsou5OW_5alloc3vecINtB5_3VechE11extend_withCs6IAuOt8vWmF_3syn, symObjAddr: 0x171C, symBinAddr: 0x31AD0, symSize: 0x230 }
  - { offset: 0xBBE33, size: 0x8, addend: 0x0, symName: __RNvMs_NtCse1nGBsou5OW_5alloc3vecINtB4_3VecNtNtCs6IAuOt8vWmF_3syn4attr9AttributeE15append_elementsBI_, symObjAddr: 0x194C, symBinAddr: 0x31D00, symSize: 0xD8 }
  - { offset: 0xBC068, size: 0x8, addend: 0x0, symName: __RNvMs_NtCse1nGBsou5OW_5alloc3vecINtB4_3VecNtNtCs6IAuOt8vWmF_3syn4attr9AttributeE4pushBI_, symObjAddr: 0x1A24, symBinAddr: 0x31DD8, symSize: 0x118 }
  - { offset: 0xBC304, size: 0x8, addend: 0x0, symName: __RNvMs_NtCse1nGBsou5OW_5alloc3vecINtB4_3VecNtNtCs6IAuOt8vWmF_3syn4attr9AttributeE6appendBI_, symObjAddr: 0x1B3C, symBinAddr: 0x31EF0, symSize: 0x8C }
  - { offset: 0xBC539, size: 0x8, addend: 0x0, symName: __RNvMs_NtCse1nGBsou5OW_5alloc3vecINtB4_3VecNtNtCs6IAuOt8vWmF_3syn4attr9AttributeE7reserveBI_, symObjAddr: 0x1BC8, symBinAddr: 0x31F7C, symSize: 0xC8 }
  - { offset: 0xBC710, size: 0x8, addend: 0x0, symName: __RNvMs_NtCse1nGBsou5OW_5alloc3vecINtB4_3VecNtNtCs6IAuOt8vWmF_3syn4attr9AttributeE8as_sliceBI_, symObjAddr: 0x1C90, symBinAddr: 0x32044, symSize: 0x64 }
  - { offset: 0xBC7EF, size: 0x8, addend: 0x0, symName: __RNvMs_NtCse1nGBsou5OW_5alloc3vecINtB4_3VecNtNtCs6IAuOt8vWmF_3syn4attr9AttributeE8is_emptyBI_, symObjAddr: 0x1CF4, symBinAddr: 0x320A8, symSize: 0x20 }
  - { offset: 0xBC84F, size: 0x8, addend: 0x0, symName: __RNvMs_NtCse1nGBsou5OW_5alloc3vecINtB4_3VecNtNtCs6IAuOt8vWmF_3syn4expr3ArmE3lenBI_, symObjAddr: 0x1DDC, symBinAddr: 0x320C8, symSize: 0x18 }
  - { offset: 0xBC997, size: 0x8, addend: 0x0, symName: __RNvMs_NtCse1nGBsou5OW_5alloc3vecINtB4_3VecNtNtCs6IAuOt8vWmF_3syn4expr3ArmE4pushBI_, symObjAddr: 0x1DF4, symBinAddr: 0x320E0, symSize: 0x120 }
  - { offset: 0xBCBE5, size: 0x8, addend: 0x0, symName: __RNvMs_NtCse1nGBsou5OW_5alloc3vecINtB4_3VecNtNtCs6IAuOt8vWmF_3syn4expr3ArmE8as_sliceBI_, symObjAddr: 0x1F14, symBinAddr: 0x32200, symSize: 0x64 }
  - { offset: 0xBCDF9, size: 0x8, addend: 0x0, symName: __RNvMs_NtCse1nGBsou5OW_5alloc3vecINtB4_3VecNtNtCs6IAuOt8vWmF_3syn4expr6ExprIfE3popBI_, symObjAddr: 0x1F78, symBinAddr: 0x32264, symSize: 0x100 }
  - { offset: 0xBD06D, size: 0x8, addend: 0x0, symName: __RNvMs_NtCse1nGBsou5OW_5alloc3vecINtB4_3VecNtNtCs6IAuOt8vWmF_3syn4expr6ExprIfE4pushBI_, symObjAddr: 0x2078, symBinAddr: 0x32364, symSize: 0x120 }
  - { offset: 0xBD337, size: 0x8, addend: 0x0, symName: __RNvMs_NtCse1nGBsou5OW_5alloc3vecINtB4_3VecNtNtCs6IAuOt8vWmF_3syn4item11ForeignItemE4pushBI_, symObjAddr: 0x2198, symBinAddr: 0x32484, symSize: 0x120 }
  - { offset: 0xBD601, size: 0x8, addend: 0x0, symName: __RNvMs_NtCse1nGBsou5OW_5alloc3vecINtB4_3VecNtNtCs6IAuOt8vWmF_3syn4item4ItemE4pushBI_, symObjAddr: 0x22B8, symBinAddr: 0x325A4, symSize: 0x120 }
  - { offset: 0xBD8CB, size: 0x8, addend: 0x0, symName: __RNvMs_NtCse1nGBsou5OW_5alloc3vecINtB4_3VecNtNtCs6IAuOt8vWmF_3syn4item8ImplItemE4pushBI_, symObjAddr: 0x23D8, symBinAddr: 0x326C4, symSize: 0x120 }
  - { offset: 0xBDB95, size: 0x8, addend: 0x0, symName: __RNvMs_NtCse1nGBsou5OW_5alloc3vecINtB4_3VecNtNtCs6IAuOt8vWmF_3syn4item9TraitItemE4pushBI_, symObjAddr: 0x24F8, symBinAddr: 0x327E4, symSize: 0x120 }
  - { offset: 0xBDE5F, size: 0x8, addend: 0x0, symName: __RNvMs_NtCse1nGBsou5OW_5alloc3vecINtB4_3VecNtNtCs6IAuOt8vWmF_3syn4stmt4StmtE4pushBI_, symObjAddr: 0x2618, symBinAddr: 0x32904, symSize: 0x120 }
  - { offset: 0xBE071, size: 0x8, addend: 0x0, symName: __RNvMs_NtCse1nGBsou5OW_5alloc3vecINtB4_3VecNtNtCs6IAuOt8vWmF_3syn5error12ErrorMessageE3lenBI_, symObjAddr: 0x2818, symBinAddr: 0x32A24, symSize: 0x18 }
  - { offset: 0xBE141, size: 0x8, addend: 0x0, symName: __RNvMs_NtCse1nGBsou5OW_5alloc3vecINtB4_3VecNtNtCs6IAuOt8vWmF_3syn5error12ErrorMessageE8as_sliceBI_, symObjAddr: 0x28F8, symBinAddr: 0x32A3C, symSize: 0x64 }
  - { offset: 0xBE328, size: 0x8, addend: 0x0, symName: __RNvMs_NtCse1nGBsou5OW_5alloc3vecINtB4_3VecNtNtCs6IAuOt8vWmF_3syn6buffer5EntryE13shrink_to_fitBI_, symObjAddr: 0x295C, symBinAddr: 0x32AA0, symSize: 0xEC }
  - { offset: 0xBE59B, size: 0x8, addend: 0x0, symName: __RNvMs_NtCse1nGBsou5OW_5alloc3vecINtB4_3VecNtNtCs6IAuOt8vWmF_3syn6buffer5EntryE16into_boxed_sliceBI_, symObjAddr: 0x2A48, symBinAddr: 0x32B8C, symSize: 0x110 }
  - { offset: 0xBE764, size: 0x8, addend: 0x0, symName: __RNvMs_NtCse1nGBsou5OW_5alloc3vecINtB4_3VecNtNtCs6IAuOt8vWmF_3syn6buffer5EntryE3lenBI_, symObjAddr: 0x2B58, symBinAddr: 0x32C9C, symSize: 0x18 }
  - { offset: 0xBE885, size: 0x8, addend: 0x0, symName: __RNvMs_NtCse1nGBsou5OW_5alloc3vecINtB4_3VecNtNtCs6IAuOt8vWmF_3syn6buffer5EntryE4pushBI_, symObjAddr: 0x2B70, symBinAddr: 0x32CB4, symSize: 0x100 }
  - { offset: 0xBEB4F, size: 0x8, addend: 0x0, symName: __RNvMs_NtCse1nGBsou5OW_5alloc3vecINtB4_3VecNtNtCs6IAuOt8vWmF_3syn8generics14TypeParamBoundE7reserveBI_, symObjAddr: 0x2C70, symBinAddr: 0x32DB4, symSize: 0xC8 }
  - { offset: 0xBECB6, size: 0x8, addend: 0x0, symName: __RNvMs_NtCse1nGBsou5OW_5alloc3vecINtB4_3VecReE3lenCs6IAuOt8vWmF_3syn, symObjAddr: 0x2D38, symBinAddr: 0x32E7C, symSize: 0x18 }
  - { offset: 0xBEDCA, size: 0x8, addend: 0x0, symName: __RNvMs_NtCse1nGBsou5OW_5alloc3vecINtB4_3VecReE4pushCs6IAuOt8vWmF_3syn, symObjAddr: 0x2D50, symBinAddr: 0x32E94, symSize: 0xF4 }
  - { offset: 0xBEFED, size: 0x8, addend: 0x0, symName: __RNvMs_NtCse1nGBsou5OW_5alloc3vecINtB4_3VecReE8as_sliceCs6IAuOt8vWmF_3syn, symObjAddr: 0x2E44, symBinAddr: 0x32F88, symSize: 0x64 }
  - { offset: 0xBF0B4, size: 0x8, addend: 0x0, symName: __RNvMs_NtCse1nGBsou5OW_5alloc3vecINtB4_3VecTNtNtCs6IAuOt8vWmF_3syn2ty4TypeNtNtBJ_5token5CommaEE3lenBJ_, symObjAddr: 0x2EA8, symBinAddr: 0x32FEC, symSize: 0x18 }
  - { offset: 0xBF1FC, size: 0x8, addend: 0x0, symName: __RNvMs_NtCse1nGBsou5OW_5alloc3vecINtB4_3VecTNtNtCs6IAuOt8vWmF_3syn2ty4TypeNtNtBJ_5token5CommaEE4pushBJ_, symObjAddr: 0x2EC0, symBinAddr: 0x33004, symSize: 0x120 }
  - { offset: 0xBF44A, size: 0x8, addend: 0x0, symName: __RNvMs_NtCse1nGBsou5OW_5alloc3vecINtB4_3VecTNtNtCs6IAuOt8vWmF_3syn2ty4TypeNtNtBJ_5token5CommaEE8as_sliceBJ_, symObjAddr: 0x2FE0, symBinAddr: 0x33124, symSize: 0x64 }
  - { offset: 0xBF511, size: 0x8, addend: 0x0, symName: __RNvMs_NtCse1nGBsou5OW_5alloc3vecINtB4_3VecTNtNtCs6IAuOt8vWmF_3syn2ty9BareFnArgNtNtBJ_5token5CommaEE3lenBJ_, symObjAddr: 0x3044, symBinAddr: 0x33188, symSize: 0x18 }
  - { offset: 0xBF659, size: 0x8, addend: 0x0, symName: __RNvMs_NtCse1nGBsou5OW_5alloc3vecINtB4_3VecTNtNtCs6IAuOt8vWmF_3syn2ty9BareFnArgNtNtBJ_5token5CommaEE4pushBJ_, symObjAddr: 0x305C, symBinAddr: 0x331A0, symSize: 0x120 }
  - { offset: 0xBF8A7, size: 0x8, addend: 0x0, symName: __RNvMs_NtCse1nGBsou5OW_5alloc3vecINtB4_3VecTNtNtCs6IAuOt8vWmF_3syn2ty9BareFnArgNtNtBJ_5token5CommaEE8as_sliceBJ_, symObjAddr: 0x317C, symBinAddr: 0x332C0, symSize: 0x64 }
  - { offset: 0xBFA74, size: 0x8, addend: 0x0, symName: __RNvMs_NtCse1nGBsou5OW_5alloc3vecINtB4_3VecTNtNtCs6IAuOt8vWmF_3syn3pat3PatNtNtBJ_5token2OrEE4pushBJ_, symObjAddr: 0x31E0, symBinAddr: 0x33324, symSize: 0x120 }
  - { offset: 0xBFCCF, size: 0x8, addend: 0x0, symName: __RNvMs_NtCse1nGBsou5OW_5alloc3vecINtB4_3VecTNtNtCs6IAuOt8vWmF_3syn3pat3PatNtNtBJ_5token2OrEE8as_sliceBJ_, symObjAddr: 0x3300, symBinAddr: 0x33444, symSize: 0x64 }
  - { offset: 0xBFD96, size: 0x8, addend: 0x0, symName: __RNvMs_NtCse1nGBsou5OW_5alloc3vecINtB4_3VecTNtNtCs6IAuOt8vWmF_3syn3pat3PatNtNtBJ_5token5CommaEE3lenBJ_, symObjAddr: 0x3364, symBinAddr: 0x334A8, symSize: 0x18 }
  - { offset: 0xBFEDE, size: 0x8, addend: 0x0, symName: __RNvMs_NtCse1nGBsou5OW_5alloc3vecINtB4_3VecTNtNtCs6IAuOt8vWmF_3syn3pat3PatNtNtBJ_5token5CommaEE4pushBJ_, symObjAddr: 0x337C, symBinAddr: 0x334C0, symSize: 0x120 }
  - { offset: 0xC012C, size: 0x8, addend: 0x0, symName: __RNvMs_NtCse1nGBsou5OW_5alloc3vecINtB4_3VecTNtNtCs6IAuOt8vWmF_3syn3pat3PatNtNtBJ_5token5CommaEE8as_sliceBJ_, symObjAddr: 0x349C, symBinAddr: 0x335E0, symSize: 0x64 }
  - { offset: 0xC02F9, size: 0x8, addend: 0x0, symName: __RNvMs_NtCse1nGBsou5OW_5alloc3vecINtB4_3VecTNtNtCs6IAuOt8vWmF_3syn3pat8FieldPatNtNtBJ_5token5CommaEE4pushBJ_, symObjAddr: 0x3500, symBinAddr: 0x33644, symSize: 0x118 }
  - { offset: 0xC0552, size: 0x8, addend: 0x0, symName: __RNvMs_NtCse1nGBsou5OW_5alloc3vecINtB4_3VecTNtNtCs6IAuOt8vWmF_3syn3pat8FieldPatNtNtBJ_5token5CommaEE8as_sliceBJ_, symObjAddr: 0x3618, symBinAddr: 0x3375C, symSize: 0x64 }
  - { offset: 0xC0667, size: 0x8, addend: 0x0, symName: __RNvMs_NtCse1nGBsou5OW_5alloc3vecINtB4_3VecTNtNtCs6IAuOt8vWmF_3syn4data5FieldNtNtBJ_5token5CommaEE3lenBJ_, symObjAddr: 0x36E0, symBinAddr: 0x337C0, symSize: 0x18 }
  - { offset: 0xC077B, size: 0x8, addend: 0x0, symName: __RNvMs_NtCse1nGBsou5OW_5alloc3vecINtB4_3VecTNtNtCs6IAuOt8vWmF_3syn4data5FieldNtNtBJ_5token5CommaEE4pushBJ_, symObjAddr: 0x36F8, symBinAddr: 0x337D8, symSize: 0x120 }
  - { offset: 0xC09C0, size: 0x8, addend: 0x0, symName: __RNvMs_NtCse1nGBsou5OW_5alloc3vecINtB4_3VecTNtNtCs6IAuOt8vWmF_3syn4data5FieldNtNtBJ_5token5CommaEE8as_sliceBJ_, symObjAddr: 0x3818, symBinAddr: 0x338F8, symSize: 0x64 }
  - { offset: 0xC0B8D, size: 0x8, addend: 0x0, symName: __RNvMs_NtCse1nGBsou5OW_5alloc3vecINtB4_3VecTNtNtCs6IAuOt8vWmF_3syn4data7VariantNtNtBJ_5token5CommaEE4pushBJ_, symObjAddr: 0x3894, symBinAddr: 0x3395C, symSize: 0x120 }
  - { offset: 0xC0DE8, size: 0x8, addend: 0x0, symName: __RNvMs_NtCse1nGBsou5OW_5alloc3vecINtB4_3VecTNtNtCs6IAuOt8vWmF_3syn4data7VariantNtNtBJ_5token5CommaEE8as_sliceBJ_, symObjAddr: 0x39B4, symBinAddr: 0x33A7C, symSize: 0x64 }
  - { offset: 0xC0FB5, size: 0x8, addend: 0x0, symName: __RNvMs_NtCse1nGBsou5OW_5alloc3vecINtB4_3VecTNtNtCs6IAuOt8vWmF_3syn4expr10FieldValueNtNtBJ_5token5CommaEE4pushBJ_, symObjAddr: 0x3A18, symBinAddr: 0x33AE0, symSize: 0x120 }
  - { offset: 0xC1210, size: 0x8, addend: 0x0, symName: __RNvMs_NtCse1nGBsou5OW_5alloc3vecINtB4_3VecTNtNtCs6IAuOt8vWmF_3syn4expr10FieldValueNtNtBJ_5token5CommaEE8as_sliceBJ_, symObjAddr: 0x3B38, symBinAddr: 0x33C00, symSize: 0x64 }
  - { offset: 0xC12D7, size: 0x8, addend: 0x0, symName: __RNvMs_NtCse1nGBsou5OW_5alloc3vecINtB4_3VecTNtNtCs6IAuOt8vWmF_3syn4expr4ExprNtNtBJ_5token5CommaEE3lenBJ_, symObjAddr: 0x3B9C, symBinAddr: 0x33C64, symSize: 0x18 }
  - { offset: 0xC141F, size: 0x8, addend: 0x0, symName: __RNvMs_NtCse1nGBsou5OW_5alloc3vecINtB4_3VecTNtNtCs6IAuOt8vWmF_3syn4expr4ExprNtNtBJ_5token5CommaEE4pushBJ_, symObjAddr: 0x3BB4, symBinAddr: 0x33C7C, symSize: 0x120 }
  - { offset: 0xC166D, size: 0x8, addend: 0x0, symName: __RNvMs_NtCse1nGBsou5OW_5alloc3vecINtB4_3VecTNtNtCs6IAuOt8vWmF_3syn4expr4ExprNtNtBJ_5token5CommaEE8as_sliceBJ_, symObjAddr: 0x3CD4, symBinAddr: 0x33D9C, symSize: 0x64 }
  - { offset: 0xC1734, size: 0x8, addend: 0x0, symName: __RNvMs_NtCse1nGBsou5OW_5alloc3vecINtB4_3VecTNtNtCs6IAuOt8vWmF_3syn4item5FnArgNtNtBJ_5token5CommaEE3lenBJ_, symObjAddr: 0x3D38, symBinAddr: 0x33E00, symSize: 0x18 }
  - { offset: 0xC187C, size: 0x8, addend: 0x0, symName: __RNvMs_NtCse1nGBsou5OW_5alloc3vecINtB4_3VecTNtNtCs6IAuOt8vWmF_3syn4item5FnArgNtNtBJ_5token5CommaEE4pushBJ_, symObjAddr: 0x3D50, symBinAddr: 0x33E18, symSize: 0x120 }
  - { offset: 0xC1ACA, size: 0x8, addend: 0x0, symName: __RNvMs_NtCse1nGBsou5OW_5alloc3vecINtB4_3VecTNtNtCs6IAuOt8vWmF_3syn4item5FnArgNtNtBJ_5token5CommaEE8as_sliceBJ_, symObjAddr: 0x3E70, symBinAddr: 0x33F38, symSize: 0x64 }
  - { offset: 0xC1C97, size: 0x8, addend: 0x0, symName: __RNvMs_NtCse1nGBsou5OW_5alloc3vecINtB4_3VecTNtNtCs6IAuOt8vWmF_3syn4item7UseTreeNtNtBJ_5token5CommaEE4pushBJ_, symObjAddr: 0x3ED4, symBinAddr: 0x33F9C, symSize: 0x118 }
  - { offset: 0xC1EF0, size: 0x8, addend: 0x0, symName: __RNvMs_NtCse1nGBsou5OW_5alloc3vecINtB4_3VecTNtNtCs6IAuOt8vWmF_3syn4item7UseTreeNtNtBJ_5token5CommaEE8as_sliceBJ_, symObjAddr: 0x3FEC, symBinAddr: 0x340B4, symSize: 0x64 }
  - { offset: 0xC2085, size: 0x8, addend: 0x0, symName: __RNvMs_NtCse1nGBsou5OW_5alloc3vecINtB4_3VecTNtNtCs6IAuOt8vWmF_3syn4path11PathSegmentNtNtBJ_5token7PathSepEE12as_mut_sliceBJ_, symObjAddr: 0x4050, symBinAddr: 0x34118, symSize: 0x64 }
  - { offset: 0xC2161, size: 0x8, addend: 0x0, symName: __RNvMs_NtCse1nGBsou5OW_5alloc3vecINtB4_3VecTNtNtCs6IAuOt8vWmF_3syn4path11PathSegmentNtNtBJ_5token7PathSepEE3lenBJ_, symObjAddr: 0x40B4, symBinAddr: 0x3417C, symSize: 0x18 }
  - { offset: 0xC22AF, size: 0x8, addend: 0x0, symName: __RNvMs_NtCse1nGBsou5OW_5alloc3vecINtB4_3VecTNtNtCs6IAuOt8vWmF_3syn4path11PathSegmentNtNtBJ_5token7PathSepEE3popBJ_, symObjAddr: 0x40CC, symBinAddr: 0x34194, symSize: 0x104 }
  - { offset: 0xC2523, size: 0x8, addend: 0x0, symName: __RNvMs_NtCse1nGBsou5OW_5alloc3vecINtB4_3VecTNtNtCs6IAuOt8vWmF_3syn4path11PathSegmentNtNtBJ_5token7PathSepEE4pushBJ_, symObjAddr: 0x41D0, symBinAddr: 0x34298, symSize: 0x120 }
  - { offset: 0xC2768, size: 0x8, addend: 0x0, symName: __RNvMs_NtCse1nGBsou5OW_5alloc3vecINtB4_3VecTNtNtCs6IAuOt8vWmF_3syn4path11PathSegmentNtNtBJ_5token7PathSepEE8as_sliceBJ_, symObjAddr: 0x42F0, symBinAddr: 0x343B8, symSize: 0x64 }
  - { offset: 0xC282F, size: 0x8, addend: 0x0, symName: __RNvMs_NtCse1nGBsou5OW_5alloc3vecINtB4_3VecTNtNtCs6IAuOt8vWmF_3syn4path15GenericArgumentNtNtBJ_5token5CommaEE3lenBJ_, symObjAddr: 0x4354, symBinAddr: 0x3441C, symSize: 0x18 }
  - { offset: 0xC2977, size: 0x8, addend: 0x0, symName: __RNvMs_NtCse1nGBsou5OW_5alloc3vecINtB4_3VecTNtNtCs6IAuOt8vWmF_3syn4path15GenericArgumentNtNtBJ_5token5CommaEE4pushBJ_, symObjAddr: 0x436C, symBinAddr: 0x34434, symSize: 0x120 }
  - { offset: 0xC2BC5, size: 0x8, addend: 0x0, symName: __RNvMs_NtCse1nGBsou5OW_5alloc3vecINtB4_3VecTNtNtCs6IAuOt8vWmF_3syn4path15GenericArgumentNtNtBJ_5token5CommaEE8as_sliceBJ_, symObjAddr: 0x448C, symBinAddr: 0x34554, symSize: 0x64 }
  - { offset: 0xC2CE7, size: 0x8, addend: 0x0, symName: __RNvMs_NtCse1nGBsou5OW_5alloc3vecINtB4_3VecTNtNtCs6IAuOt8vWmF_3syn8generics12GenericParamNtNtBJ_5token5CommaEE3lenBJ_, symObjAddr: 0x4554, symBinAddr: 0x345B8, symSize: 0x18 }
  - { offset: 0xC2DFB, size: 0x8, addend: 0x0, symName: __RNvMs_NtCse1nGBsou5OW_5alloc3vecINtB4_3VecTNtNtCs6IAuOt8vWmF_3syn8generics12GenericParamNtNtBJ_5token5CommaEE4pushBJ_, symObjAddr: 0x456C, symBinAddr: 0x345D0, symSize: 0x120 }
  - { offset: 0xC3040, size: 0x8, addend: 0x0, symName: __RNvMs_NtCse1nGBsou5OW_5alloc3vecINtB4_3VecTNtNtCs6IAuOt8vWmF_3syn8generics12GenericParamNtNtBJ_5token5CommaEE8as_sliceBJ_, symObjAddr: 0x468C, symBinAddr: 0x346F0, symSize: 0x64 }
  - { offset: 0xC320D, size: 0x8, addend: 0x0, symName: __RNvMs_NtCse1nGBsou5OW_5alloc3vecINtB4_3VecTNtNtCs6IAuOt8vWmF_3syn8generics13CapturedParamNtNtBJ_5token5CommaEE4pushBJ_, symObjAddr: 0x46F0, symBinAddr: 0x34754, symSize: 0x118 }
  - { offset: 0xC3466, size: 0x8, addend: 0x0, symName: __RNvMs_NtCse1nGBsou5OW_5alloc3vecINtB4_3VecTNtNtCs6IAuOt8vWmF_3syn8generics13CapturedParamNtNtBJ_5token5CommaEE8as_sliceBJ_, symObjAddr: 0x4808, symBinAddr: 0x3486C, symSize: 0x64 }
  - { offset: 0xC352D, size: 0x8, addend: 0x0, symName: __RNvMs_NtCse1nGBsou5OW_5alloc3vecINtB4_3VecTNtNtCs6IAuOt8vWmF_3syn8generics14TypeParamBoundNtNtBJ_5token4PlusEE3lenBJ_, symObjAddr: 0x486C, symBinAddr: 0x348D0, symSize: 0x18 }
  - { offset: 0xC3668, size: 0x8, addend: 0x0, symName: __RNvMs_NtCse1nGBsou5OW_5alloc3vecINtB4_3VecTNtNtCs6IAuOt8vWmF_3syn8generics14TypeParamBoundNtNtBJ_5token4PlusEE4pushBJ_, symObjAddr: 0x4884, symBinAddr: 0x348E8, symSize: 0x118 }
  - { offset: 0xC38B6, size: 0x8, addend: 0x0, symName: __RNvMs_NtCse1nGBsou5OW_5alloc3vecINtB4_3VecTNtNtCs6IAuOt8vWmF_3syn8generics14TypeParamBoundNtNtBJ_5token4PlusEE8as_sliceBJ_, symObjAddr: 0x499C, symBinAddr: 0x34A00, symSize: 0x64 }
  - { offset: 0xC397D, size: 0x8, addend: 0x0, symName: __RNvMs_NtCse1nGBsou5OW_5alloc3vecINtB4_3VecTNtNtCs6IAuOt8vWmF_3syn8generics14WherePredicateNtNtBJ_5token5CommaEE3lenBJ_, symObjAddr: 0x4A00, symBinAddr: 0x34A64, symSize: 0x18 }
  - { offset: 0xC3AC5, size: 0x8, addend: 0x0, symName: __RNvMs_NtCse1nGBsou5OW_5alloc3vecINtB4_3VecTNtNtCs6IAuOt8vWmF_3syn8generics14WherePredicateNtNtBJ_5token5CommaEE4pushBJ_, symObjAddr: 0x4A18, symBinAddr: 0x34A7C, symSize: 0x120 }
  - { offset: 0xC3D13, size: 0x8, addend: 0x0, symName: __RNvMs_NtCse1nGBsou5OW_5alloc3vecINtB4_3VecTNtNtCs6IAuOt8vWmF_3syn8generics14WherePredicateNtNtBJ_5token5CommaEE8as_sliceBJ_, symObjAddr: 0x4B38, symBinAddr: 0x34B9C, symSize: 0x64 }
  - { offset: 0xC3DDA, size: 0x8, addend: 0x0, symName: __RNvMs_NtCse1nGBsou5OW_5alloc3vecINtB4_3VecTNtNtCs6IAuOt8vWmF_3syn8lifetime8LifetimeNtNtBJ_5token4PlusEE3lenBJ_, symObjAddr: 0x4B9C, symBinAddr: 0x34C00, symSize: 0x18 }
  - { offset: 0xC3F22, size: 0x8, addend: 0x0, symName: __RNvMs_NtCse1nGBsou5OW_5alloc3vecINtB4_3VecTNtNtCs6IAuOt8vWmF_3syn8lifetime8LifetimeNtNtBJ_5token4PlusEE4pushBJ_, symObjAddr: 0x4BB4, symBinAddr: 0x34C18, symSize: 0x118 }
  - { offset: 0xC416E, size: 0x8, addend: 0x0, symName: __RNvMs_NtCse1nGBsou5OW_5alloc3vecINtB4_3VecTNtNtCs6IAuOt8vWmF_3syn8lifetime8LifetimeNtNtBJ_5token4PlusEE8as_sliceBJ_, symObjAddr: 0x4CCC, symBinAddr: 0x34D30, symSize: 0x64 }
  - { offset: 0xC432E, size: 0x8, addend: 0x0, symName: __RNvMs_NtCse1nGBsou5OW_5alloc3vecINtB4_3VechE13shrink_to_fitCs6IAuOt8vWmF_3syn, symObjAddr: 0x4D30, symBinAddr: 0x34D94, symSize: 0xE4 }
  - { offset: 0xC455C, size: 0x8, addend: 0x0, symName: __RNvMs_NtCse1nGBsou5OW_5alloc3vecINtB4_3VechE16into_boxed_sliceCs6IAuOt8vWmF_3syn, symObjAddr: 0x4E14, symBinAddr: 0x34E78, symSize: 0x110 }
  - { offset: 0xC4725, size: 0x8, addend: 0x0, symName: __RNvMs_NtCse1nGBsou5OW_5alloc3vecINtB4_3VechE3lenCs6IAuOt8vWmF_3syn, symObjAddr: 0x4F24, symBinAddr: 0x34F88, symSize: 0x18 }
  - { offset: 0xC47CA, size: 0x8, addend: 0x0, symName: __RNvMs_NtCse1nGBsou5OW_5alloc3vecINtB4_3VechE8as_sliceCs6IAuOt8vWmF_3syn, symObjAddr: 0x4F3C, symBinAddr: 0x34FA0, symSize: 0x60 }
  - { offset: 0xC4A3A, size: 0x8, addend: 0x0, symName: __RNvMs_NtCse1nGBsou5OW_5alloc3vecINtB4_3VechE9split_offCs6IAuOt8vWmF_3syn, symObjAddr: 0x4F9C, symBinAddr: 0x35000, symSize: 0x140 }
  - { offset: 0xC8C4F, size: 0x8, addend: 0x0, symName: __RINvXNtNtCse1nGBsou5OW_5alloc5slice4hackNtNtCs6IAuOt8vWmF_3syn4expr3ArmNtB3_10ConvertVec6to_vecNtNtB7_5alloc6GlobalEBG_, symObjAddr: 0x0, symBinAddr: 0x37944, symSize: 0x36C }
  - { offset: 0xC9F40, size: 0x8, addend: 0x0, symName: __RINvXNtNtCse1nGBsou5OW_5alloc5slice4hackNtNtCs6IAuOt8vWmF_3syn4expr3ArmNtB3_10ConvertVec6to_vecNtNtB7_5alloc6GlobalEBG_, symObjAddr: 0x0, symBinAddr: 0x37944, symSize: 0x36C }
  - { offset: 0xCA403, size: 0x8, addend: 0x0, symName: __RINvXNtNtCse1nGBsou5OW_5alloc5slice4hackTNtNtCs6IAuOt8vWmF_3syn4expr10FieldValueNtNtBH_5token5CommaENtB3_10ConvertVec6to_vecNtNtB7_5alloc6GlobalEBH_, symObjAddr: 0x36C, symBinAddr: 0x37CB0, symSize: 0x36C }
  - { offset: 0xCA8C6, size: 0x8, addend: 0x0, symName: __RINvXNtNtCse1nGBsou5OW_5alloc5slice4hackTNtNtCs6IAuOt8vWmF_3syn4expr4ExprNtNtBH_5token5CommaENtB3_10ConvertVec6to_vecNtNtB7_5alloc6GlobalEBH_, symObjAddr: 0x6D8, symBinAddr: 0x3801C, symSize: 0x36C }
  - { offset: 0xCD909, size: 0x8, addend: 0x0, symName: __RNvXNtNtCs6IAuOt8vWmF_3syn4expr7parsingNtB4_4ExprNtNtB6_5parse5Parse5parse, symObjAddr: 0x2BA8, symBinAddr: 0x39074, symSize: 0x3C }
  - { offset: 0xCD93D, size: 0x8, addend: 0x0, symName: __RNvXs4_NtNtCs6IAuOt8vWmF_3syn4expr7parsingNtB7_7ExprLitNtNtB9_5parse5Parse5parse, symObjAddr: 0x3648, symBinAddr: 0x390B0, symSize: 0x14C }
  - { offset: 0xCD990, size: 0x8, addend: 0x0, symName: __RNvXs7_NtNtCs6IAuOt8vWmF_3syn4expr7parsingNtB7_6ExprIfNtNtB9_5parse5Parse5parse, symObjAddr: 0x3A7C, symBinAddr: 0x391FC, symSize: 0x103C }
  - { offset: 0xCDC06, size: 0x8, addend: 0x0, symName: __RNvXs8_NtNtCs6IAuOt8vWmF_3syn4expr7parsingNtB7_9ExprInferNtNtB9_5parse5Parse5parse, symObjAddr: 0x4AB8, symBinAddr: 0x3A238, symSize: 0x1D0 }
  - { offset: 0xCDC97, size: 0x8, addend: 0x0, symName: __RNvXs9_NtNtCs6IAuOt8vWmF_3syn4expr7parsingNtB7_11ExprForLoopNtNtB9_5parse5Parse5parse, symObjAddr: 0x4C88, symBinAddr: 0x3A408, symSize: 0x9A4 }
  - { offset: 0xCDF66, size: 0x8, addend: 0x0, symName: __RNvXsa_NtNtCs6IAuOt8vWmF_3syn4expr7parsingNtB7_8ExprLoopNtNtB9_5parse5Parse5parse, symObjAddr: 0x562C, symBinAddr: 0x3ADAC, symSize: 0x590 }
  - { offset: 0xCE119, size: 0x8, addend: 0x0, symName: __RNvXsb_NtNtCs6IAuOt8vWmF_3syn4expr7parsingNtB7_9ExprMatchNtNtB9_5parse5Parse5parse, symObjAddr: 0x5BBC, symBinAddr: 0x3B33C, symSize: 0x60C }
  - { offset: 0xCE302, size: 0x8, addend: 0x0, symName: __RNvXsh_NtNtCs6IAuOt8vWmF_3syn4expr7parsingNtB7_10ExprReturnNtNtB9_5parse5Parse5parse, symObjAddr: 0x6A04, symBinAddr: 0x3B948, symSize: 0x210 }
  - { offset: 0xCE364, size: 0x8, addend: 0x0, symName: __RNvXsi_NtNtCs6IAuOt8vWmF_3syn4expr7parsingNtB7_12ExprTryBlockNtNtB9_5parse5Parse5parse, symObjAddr: 0x6C14, symBinAddr: 0x3BB58, symSize: 0x220 }
  - { offset: 0xCE3D6, size: 0x8, addend: 0x0, symName: __RNvXsj_NtNtCs6IAuOt8vWmF_3syn4expr7parsingNtB7_9ExprYieldNtNtB9_5parse5Parse5parse, symObjAddr: 0x6E34, symBinAddr: 0x3BD78, symSize: 0x210 }
  - { offset: 0xCE438, size: 0x8, addend: 0x0, symName: __RNvXsk_NtNtCs6IAuOt8vWmF_3syn4expr7parsingNtB7_9ExprAsyncNtNtB9_5parse5Parse5parse, symObjAddr: 0x7044, symBinAddr: 0x3BF88, symSize: 0x2E8 }
  - { offset: 0xCE4C9, size: 0x8, addend: 0x0, symName: __RNvXsl_NtNtCs6IAuOt8vWmF_3syn4expr7parsingNtB7_9ExprWhileNtNtB9_5parse5Parse5parse, symObjAddr: 0x732C, symBinAddr: 0x3C270, symSize: 0x760 }
  - { offset: 0xCE6FF, size: 0x8, addend: 0x0, symName: __RNvXsm_NtNtCs6IAuOt8vWmF_3syn4expr7parsingNtB7_9ExprConstNtNtB9_5parse5Parse5parse, symObjAddr: 0x7A8C, symBinAddr: 0x3C9D0, symSize: 0x3BC }
  - { offset: 0xCE855, size: 0x8, addend: 0x0, symName: __RNvXsn_NtNtCs6IAuOt8vWmF_3syn4expr7parsingNtB7_5LabelNtNtB9_5parse5Parse5parse, symObjAddr: 0x7E48, symBinAddr: 0x3CD8C, symSize: 0x1D4 }
  - { offset: 0xCE8E6, size: 0x8, addend: 0x0, symName: __RNvXsp_NtNtCs6IAuOt8vWmF_3syn4expr7parsingNtB7_12ExprContinueNtNtB9_5parse5Parse5parse, symObjAddr: 0x801C, symBinAddr: 0x3CF60, symSize: 0x200 }
  - { offset: 0xCE958, size: 0x8, addend: 0x0, symName: __RNvXsq_NtNtCs6IAuOt8vWmF_3syn4expr7parsingNtB7_10FieldValueNtNtB9_5parse5Parse5parse, symObjAddr: 0x821C, symBinAddr: 0x3D160, symSize: 0x560 }
  - { offset: 0xCEAF7, size: 0x8, addend: 0x0, symName: __RNvXss_NtNtCs6IAuOt8vWmF_3syn4expr7parsingNtB7_10ExprUnsafeNtNtB9_5parse5Parse5parse, symObjAddr: 0x893C, symBinAddr: 0x3D6C0, symSize: 0x3BC }
  - { offset: 0xCEC4D, size: 0x8, addend: 0x0, symName: __RNvXst_NtNtCs6IAuOt8vWmF_3syn4expr7parsingNtB7_9ExprBlockNtNtB9_5parse5Parse5parse, symObjAddr: 0x8CF8, symBinAddr: 0x3DA7C, symSize: 0x4FC }
  - { offset: 0xCEDD3, size: 0x8, addend: 0x0, symName: __RNvXsu_NtNtCs6IAuOt8vWmF_3syn4expr7parsingNtB7_11RangeLimitsNtNtB9_5parse5Parse5parse, symObjAddr: 0x91F4, symBinAddr: 0x3DF78, symSize: 0x234 }
  - { offset: 0xCEE61, size: 0x8, addend: 0x0, symName: __RNvXsw_NtNtCs6IAuOt8vWmF_3syn4expr7parsingNtB7_8ExprPathNtNtB9_5parse5Parse5parse, symObjAddr: 0x975C, symBinAddr: 0x3E4E0, symSize: 0x238 }
  - { offset: 0xCEF4F, size: 0x8, addend: 0x0, symName: __RNvXsx_NtNtCs6IAuOt8vWmF_3syn4expr7parsingNtB7_6MemberNtNtB9_5parse5Parse5parse, symObjAddr: 0x9994, symBinAddr: 0x3E718, symSize: 0xFC }
  - { offset: 0xCEF83, size: 0x8, addend: 0x0, symName: __RNvXsz_NtNtCs6IAuOt8vWmF_3syn4expr7parsingNtB7_3ArmNtNtB9_5parse5Parse5parse, symObjAddr: 0x9C54, symBinAddr: 0x3E9D8, symSize: 0x8EC }
  - { offset: 0xCF1BB, size: 0x8, addend: 0x0, symName: __RNvXsA_NtNtCs6IAuOt8vWmF_3syn4expr7parsingNtB7_5IndexNtNtB9_5parse5Parse5parse, symObjAddr: 0xA540, symBinAddr: 0x3F2C4, symSize: 0x28C }
  - { offset: 0xCF269, size: 0x8, addend: 0x0, symName: __RNvXNtNtCs6IAuOt8vWmF_3syn4expr8printingNtB4_9ExprArrayNtNtCs2cqEZUIJimJ_5quote9to_tokens8ToTokens9to_tokens, symObjAddr: 0xAA84, symBinAddr: 0x3F550, symSize: 0x58 }
  - { offset: 0xCF2A8, size: 0x8, addend: 0x0, symName: __RNvXs_NtNtCs6IAuOt8vWmF_3syn4expr8printingNtB6_10ExprAssignNtNtCs2cqEZUIJimJ_5quote9to_tokens8ToTokens9to_tokens, symObjAddr: 0xAADC, symBinAddr: 0x3F5A8, symSize: 0x58 }
  - { offset: 0xCF2E7, size: 0x8, addend: 0x0, symName: __RNvXs0_NtNtCs6IAuOt8vWmF_3syn4expr8printingNtB7_9ExprAsyncNtNtCs2cqEZUIJimJ_5quote9to_tokens8ToTokens9to_tokens, symObjAddr: 0xAB34, symBinAddr: 0x3F600, symSize: 0x74 }
  - { offset: 0xCF326, size: 0x8, addend: 0x0, symName: __RNvXs1_NtNtCs6IAuOt8vWmF_3syn4expr8printingNtB7_9ExprAwaitNtNtCs2cqEZUIJimJ_5quote9to_tokens8ToTokens9to_tokens, symObjAddr: 0xABA8, symBinAddr: 0x3F674, symSize: 0x58 }
  - { offset: 0xCF365, size: 0x8, addend: 0x0, symName: __RNvXs2_NtNtCs6IAuOt8vWmF_3syn4expr8printingNtB7_10ExprBinaryNtNtCs2cqEZUIJimJ_5quote9to_tokens8ToTokens9to_tokens, symObjAddr: 0xAC00, symBinAddr: 0x3F6CC, symSize: 0x58 }
  - { offset: 0xCF3A4, size: 0x8, addend: 0x0, symName: __RNvXs3_NtNtCs6IAuOt8vWmF_3syn4expr8printingNtB7_9ExprBlockNtNtCs2cqEZUIJimJ_5quote9to_tokens8ToTokens9to_tokens, symObjAddr: 0xAC58, symBinAddr: 0x3F724, symSize: 0x68 }
  - { offset: 0xCF3E3, size: 0x8, addend: 0x0, symName: __RNvXs4_NtNtCs6IAuOt8vWmF_3syn4expr8printingNtB7_9ExprBreakNtNtCs2cqEZUIJimJ_5quote9to_tokens8ToTokens9to_tokens, symObjAddr: 0xACC0, symBinAddr: 0x3F78C, symSize: 0x58 }
  - { offset: 0xCF422, size: 0x8, addend: 0x0, symName: __RNvXs5_NtNtCs6IAuOt8vWmF_3syn4expr8printingNtB7_8ExprCallNtNtCs2cqEZUIJimJ_5quote9to_tokens8ToTokens9to_tokens, symObjAddr: 0xAD18, symBinAddr: 0x3F7E4, symSize: 0x58 }
  - { offset: 0xCF461, size: 0x8, addend: 0x0, symName: __RNvXs6_NtNtCs6IAuOt8vWmF_3syn4expr8printingNtB7_8ExprCastNtNtCs2cqEZUIJimJ_5quote9to_tokens8ToTokens9to_tokens, symObjAddr: 0xAD70, symBinAddr: 0x3F83C, symSize: 0x58 }
  - { offset: 0xCF4A0, size: 0x8, addend: 0x0, symName: __RNvXs7_NtNtCs6IAuOt8vWmF_3syn4expr8printingNtB7_11ExprClosureNtNtCs2cqEZUIJimJ_5quote9to_tokens8ToTokens9to_tokens, symObjAddr: 0xADC8, symBinAddr: 0x3F894, symSize: 0x58 }
  - { offset: 0xCF4DF, size: 0x8, addend: 0x0, symName: __RNvXs8_NtNtCs6IAuOt8vWmF_3syn4expr8printingNtB7_9ExprConstNtNtCs2cqEZUIJimJ_5quote9to_tokens8ToTokens9to_tokens, symObjAddr: 0xAE20, symBinAddr: 0x3F8EC, symSize: 0x68 }
  - { offset: 0xCF51E, size: 0x8, addend: 0x0, symName: __RNvXs9_NtNtCs6IAuOt8vWmF_3syn4expr8printingNtB7_12ExprContinueNtNtCs2cqEZUIJimJ_5quote9to_tokens8ToTokens9to_tokens, symObjAddr: 0xAE88, symBinAddr: 0x3F954, symSize: 0x64 }
  - { offset: 0xCF55D, size: 0x8, addend: 0x0, symName: __RNvXsa_NtNtCs6IAuOt8vWmF_3syn4expr8printingNtB7_9ExprFieldNtNtCs2cqEZUIJimJ_5quote9to_tokens8ToTokens9to_tokens, symObjAddr: 0xAEEC, symBinAddr: 0x3F9B8, symSize: 0x58 }
  - { offset: 0xCF59C, size: 0x8, addend: 0x0, symName: __RNvXsb_NtNtCs6IAuOt8vWmF_3syn4expr8printingNtB7_11ExprForLoopNtNtCs2cqEZUIJimJ_5quote9to_tokens8ToTokens9to_tokens, symObjAddr: 0xAF44, symBinAddr: 0x3FA10, symSize: 0xDC }
  - { offset: 0xCF5DB, size: 0x8, addend: 0x0, symName: __RNvXsc_NtNtCs6IAuOt8vWmF_3syn4expr8printingNtB7_9ExprGroupNtNtCs2cqEZUIJimJ_5quote9to_tokens8ToTokens9to_tokens, symObjAddr: 0xB020, symBinAddr: 0x3FAEC, symSize: 0x58 }
  - { offset: 0xCF61A, size: 0x8, addend: 0x0, symName: __RNvXsd_NtNtCs6IAuOt8vWmF_3syn4expr8printingNtB7_6ExprIfNtNtCs2cqEZUIJimJ_5quote9to_tokens8ToTokens9to_tokens, symObjAddr: 0xB078, symBinAddr: 0x3FB44, symSize: 0x208 }
  - { offset: 0xCF6F0, size: 0x8, addend: 0x0, symName: __RNvXse_NtNtCs6IAuOt8vWmF_3syn4expr8printingNtB7_9ExprIndexNtNtCs2cqEZUIJimJ_5quote9to_tokens8ToTokens9to_tokens, symObjAddr: 0xB280, symBinAddr: 0x3FD4C, symSize: 0x58 }
  - { offset: 0xCF72F, size: 0x8, addend: 0x0, symName: __RNvXsf_NtNtCs6IAuOt8vWmF_3syn4expr8printingNtB7_9ExprInferNtNtCs2cqEZUIJimJ_5quote9to_tokens8ToTokens9to_tokens, symObjAddr: 0xB2D8, symBinAddr: 0x3FDA4, symSize: 0x54 }
  - { offset: 0xCF76E, size: 0x8, addend: 0x0, symName: __RNvXsg_NtNtCs6IAuOt8vWmF_3syn4expr8printingNtB7_7ExprLetNtNtCs2cqEZUIJimJ_5quote9to_tokens8ToTokens9to_tokens, symObjAddr: 0xB32C, symBinAddr: 0x3FDF8, symSize: 0x58 }
  - { offset: 0xCF7AD, size: 0x8, addend: 0x0, symName: __RNvXsh_NtNtCs6IAuOt8vWmF_3syn4expr8printingNtB7_7ExprLitNtNtCs2cqEZUIJimJ_5quote9to_tokens8ToTokens9to_tokens, symObjAddr: 0xB384, symBinAddr: 0x3FE50, symSize: 0x54 }
  - { offset: 0xCF7EC, size: 0x8, addend: 0x0, symName: __RNvXsi_NtNtCs6IAuOt8vWmF_3syn4expr8printingNtB7_8ExprLoopNtNtCs2cqEZUIJimJ_5quote9to_tokens8ToTokens9to_tokens, symObjAddr: 0xB3D8, symBinAddr: 0x3FEA4, symSize: 0x78 }
  - { offset: 0xCF82B, size: 0x8, addend: 0x0, symName: __RNvXsj_NtNtCs6IAuOt8vWmF_3syn4expr8printingNtB7_9ExprMacroNtNtCs2cqEZUIJimJ_5quote9to_tokens8ToTokens9to_tokens, symObjAddr: 0xB450, symBinAddr: 0x3FF1C, symSize: 0x54 }
  - { offset: 0xCF86A, size: 0x8, addend: 0x0, symName: __RNvXsk_NtNtCs6IAuOt8vWmF_3syn4expr8printingNtB7_9ExprMatchNtNtCs2cqEZUIJimJ_5quote9to_tokens8ToTokens9to_tokens, symObjAddr: 0xB4A4, symBinAddr: 0x3FF70, symSize: 0xAC }
  - { offset: 0xCF8A9, size: 0x8, addend: 0x0, symName: __RNvXsl_NtNtCs6IAuOt8vWmF_3syn4expr8printingNtB7_14ExprMethodCallNtNtCs2cqEZUIJimJ_5quote9to_tokens8ToTokens9to_tokens, symObjAddr: 0xB550, symBinAddr: 0x4001C, symSize: 0x58 }
  - { offset: 0xCF8E8, size: 0x8, addend: 0x0, symName: __RNvXsm_NtNtCs6IAuOt8vWmF_3syn4expr8printingNtB7_9ExprParenNtNtCs2cqEZUIJimJ_5quote9to_tokens8ToTokens9to_tokens, symObjAddr: 0xB5A8, symBinAddr: 0x40074, symSize: 0x58 }
  - { offset: 0xCF927, size: 0x8, addend: 0x0, symName: __RNvXsn_NtNtCs6IAuOt8vWmF_3syn4expr8printingNtB7_8ExprPathNtNtCs2cqEZUIJimJ_5quote9to_tokens8ToTokens9to_tokens, symObjAddr: 0xB600, symBinAddr: 0x400CC, symSize: 0x64 }
  - { offset: 0xCF966, size: 0x8, addend: 0x0, symName: __RNvXso_NtNtCs6IAuOt8vWmF_3syn4expr8printingNtB7_9ExprRangeNtNtCs2cqEZUIJimJ_5quote9to_tokens8ToTokens9to_tokens, symObjAddr: 0xB664, symBinAddr: 0x40130, symSize: 0x58 }
  - { offset: 0xCF9A5, size: 0x8, addend: 0x0, symName: __RNvXsp_NtNtCs6IAuOt8vWmF_3syn4expr8printingNtB7_11ExprRawAddrNtNtCs2cqEZUIJimJ_5quote9to_tokens8ToTokens9to_tokens, symObjAddr: 0xB6BC, symBinAddr: 0x40188, symSize: 0x58 }
  - { offset: 0xCF9E4, size: 0x8, addend: 0x0, symName: __RNvXsq_NtNtCs6IAuOt8vWmF_3syn4expr8printingNtB7_13ExprReferenceNtNtCs2cqEZUIJimJ_5quote9to_tokens8ToTokens9to_tokens, symObjAddr: 0xB714, symBinAddr: 0x401E0, symSize: 0x58 }
  - { offset: 0xCFA23, size: 0x8, addend: 0x0, symName: __RNvXsr_NtNtCs6IAuOt8vWmF_3syn4expr8printingNtB7_10ExprRepeatNtNtCs2cqEZUIJimJ_5quote9to_tokens8ToTokens9to_tokens, symObjAddr: 0xB76C, symBinAddr: 0x40238, symSize: 0x58 }
  - { offset: 0xCFA62, size: 0x8, addend: 0x0, symName: __RNvXss_NtNtCs6IAuOt8vWmF_3syn4expr8printingNtB7_10ExprReturnNtNtCs2cqEZUIJimJ_5quote9to_tokens8ToTokens9to_tokens, symObjAddr: 0xB7C4, symBinAddr: 0x40290, symSize: 0x58 }
  - { offset: 0xCFAA1, size: 0x8, addend: 0x0, symName: __RNvXst_NtNtCs6IAuOt8vWmF_3syn4expr8printingNtB7_10ExprStructNtNtCs2cqEZUIJimJ_5quote9to_tokens8ToTokens9to_tokens, symObjAddr: 0xB81C, symBinAddr: 0x402E8, symSize: 0x78 }
  - { offset: 0xCFAE0, size: 0x8, addend: 0x0, symName: __RNvXsu_NtNtCs6IAuOt8vWmF_3syn4expr8printingNtB7_7ExprTryNtNtCs2cqEZUIJimJ_5quote9to_tokens8ToTokens9to_tokens, symObjAddr: 0xB894, symBinAddr: 0x40360, symSize: 0x58 }
  - { offset: 0xCFB1F, size: 0x8, addend: 0x0, symName: __RNvXsv_NtNtCs6IAuOt8vWmF_3syn4expr8printingNtB7_12ExprTryBlockNtNtCs2cqEZUIJimJ_5quote9to_tokens8ToTokens9to_tokens, symObjAddr: 0xB8EC, symBinAddr: 0x403B8, symSize: 0x64 }
  - { offset: 0xCFB5E, size: 0x8, addend: 0x0, symName: __RNvXsw_NtNtCs6IAuOt8vWmF_3syn4expr8printingNtB7_9ExprTupleNtNtCs2cqEZUIJimJ_5quote9to_tokens8ToTokens9to_tokens, symObjAddr: 0xB950, symBinAddr: 0x4041C, symSize: 0x58 }
  - { offset: 0xCFB9D, size: 0x8, addend: 0x0, symName: __RNvXsx_NtNtCs6IAuOt8vWmF_3syn4expr8printingNtB7_9ExprUnaryNtNtCs2cqEZUIJimJ_5quote9to_tokens8ToTokens9to_tokens, symObjAddr: 0xB9A8, symBinAddr: 0x40474, symSize: 0x58 }
  - { offset: 0xCFBDC, size: 0x8, addend: 0x0, symName: __RNvXsy_NtNtCs6IAuOt8vWmF_3syn4expr8printingNtB7_10ExprUnsafeNtNtCs2cqEZUIJimJ_5quote9to_tokens8ToTokens9to_tokens, symObjAddr: 0xBA00, symBinAddr: 0x404CC, symSize: 0x68 }
  - { offset: 0xCFC1B, size: 0x8, addend: 0x0, symName: __RNvXsz_NtNtCs6IAuOt8vWmF_3syn4expr8printingNtB7_9ExprWhileNtNtCs2cqEZUIJimJ_5quote9to_tokens8ToTokens9to_tokens, symObjAddr: 0xBA68, symBinAddr: 0x40534, symSize: 0xBC }
  - { offset: 0xCFC5A, size: 0x8, addend: 0x0, symName: __RNvXsA_NtNtCs6IAuOt8vWmF_3syn4expr8printingNtB7_9ExprYieldNtNtCs2cqEZUIJimJ_5quote9to_tokens8ToTokens9to_tokens, symObjAddr: 0xBB24, symBinAddr: 0x405F0, symSize: 0x58 }
  - { offset: 0xCFC99, size: 0x8, addend: 0x0, symName: __RNvXsB_NtNtCs6IAuOt8vWmF_3syn4expr8printingNtB7_3ArmNtNtCs2cqEZUIJimJ_5quote9to_tokens8ToTokens9to_tokens, symObjAddr: 0xBB7C, symBinAddr: 0x40648, symSize: 0x128 }
  - { offset: 0xCFD06, size: 0x8, addend: 0x0, symName: __RNvXsC_NtNtCs6IAuOt8vWmF_3syn4expr8printingNtB7_10FieldValueNtNtCs2cqEZUIJimJ_5quote9to_tokens8ToTokens9to_tokens, symObjAddr: 0xBCA4, symBinAddr: 0x40770, symSize: 0xB0 }
  - { offset: 0xCFD63, size: 0x8, addend: 0x0, symName: __RNvXsD_NtNtCs6IAuOt8vWmF_3syn4expr8printingNtB7_5IndexNtNtCs2cqEZUIJimJ_5quote9to_tokens8ToTokens9to_tokens, symObjAddr: 0xBD54, symBinAddr: 0x40820, symSize: 0xD4 }
  - { offset: 0xCFDB8, size: 0x8, addend: 0x0, symName: __RNvXsE_NtNtCs6IAuOt8vWmF_3syn4expr8printingNtB7_5LabelNtNtCs2cqEZUIJimJ_5quote9to_tokens8ToTokens9to_tokens, symObjAddr: 0xBE28, symBinAddr: 0x408F4, symSize: 0x50 }
  - { offset: 0xCFDF7, size: 0x8, addend: 0x0, symName: __RNvXsF_NtNtCs6IAuOt8vWmF_3syn4expr8printingNtB7_6MemberNtNtCs2cqEZUIJimJ_5quote9to_tokens8ToTokens9to_tokens, symObjAddr: 0xBE78, symBinAddr: 0x40944, symSize: 0x98 }
  - { offset: 0xCFE6A, size: 0x8, addend: 0x0, symName: __RNvXsG_NtNtCs6IAuOt8vWmF_3syn4expr8printingNtB7_11RangeLimitsNtNtCs2cqEZUIJimJ_5quote9to_tokens8ToTokens9to_tokens, symObjAddr: 0xBF10, symBinAddr: 0x409DC, symSize: 0x94 }
  - { offset: 0xCFEDD, size: 0x8, addend: 0x0, symName: __RNvXsH_NtNtCs6IAuOt8vWmF_3syn4expr8printingNtB7_17PointerMutabilityNtNtCs2cqEZUIJimJ_5quote9to_tokens8ToTokens9to_tokens, symObjAddr: 0xBFA4, symBinAddr: 0x40A70, symSize: 0x94 }
  - { offset: 0xCFF56, size: 0x8, addend: 0x0, symName: __RNcNtNtNtCs6IAuOt8vWmF_3syn4expr4Expr5Async0B7_, symObjAddr: 0xC038, symBinAddr: 0x40B04, symSize: 0x3C }
  - { offset: 0xCFF85, size: 0x8, addend: 0x0, symName: __RNcNtNtNtCs6IAuOt8vWmF_3syn4expr4Expr5Block0B7_, symObjAddr: 0xC074, symBinAddr: 0x40B40, symSize: 0x3C }
  - { offset: 0xCFFB4, size: 0x8, addend: 0x0, symName: __RNcNtNtNtCs6IAuOt8vWmF_3syn4expr4Expr5Break0B7_, symObjAddr: 0xC0B0, symBinAddr: 0x40B7C, symSize: 0x3C }
  - { offset: 0xCFFE3, size: 0x8, addend: 0x0, symName: __RNcNtNtNtCs6IAuOt8vWmF_3syn4expr4Expr7Closure0B7_, symObjAddr: 0xC0EC, symBinAddr: 0x40BB8, symSize: 0x3C }
  - { offset: 0xD0012, size: 0x8, addend: 0x0, symName: __RNcNtNtNtCs6IAuOt8vWmF_3syn4expr4Expr5Const0B7_, symObjAddr: 0xC128, symBinAddr: 0x40BF4, symSize: 0x3C }
  - { offset: 0xD0041, size: 0x8, addend: 0x0, symName: __RNcNtNtNtCs6IAuOt8vWmF_3syn4expr4Expr8Continue0B7_, symObjAddr: 0xC164, symBinAddr: 0x40C30, symSize: 0x3C }
  - { offset: 0xD0070, size: 0x8, addend: 0x0, symName: __RNcNtNtNtCs6IAuOt8vWmF_3syn4expr4Expr7ForLoop0B7_, symObjAddr: 0xC1A0, symBinAddr: 0x40C6C, symSize: 0x3C }
  - { offset: 0xD009F, size: 0x8, addend: 0x0, symName: __RNcNtNtNtCs6IAuOt8vWmF_3syn4expr4Expr2If0B7_, symObjAddr: 0xC1DC, symBinAddr: 0x40CA8, symSize: 0x3C }
  - { offset: 0xD00CE, size: 0x8, addend: 0x0, symName: __RNcNtNtNtCs6IAuOt8vWmF_3syn4expr4Expr5Infer0B7_, symObjAddr: 0xC218, symBinAddr: 0x40CE4, symSize: 0x20 }
  - { offset: 0xD00FC, size: 0x8, addend: 0x0, symName: __RNcNtNtNtCs6IAuOt8vWmF_3syn4expr4Expr3Let0B7_, symObjAddr: 0xC238, symBinAddr: 0x40D04, symSize: 0x3C }
  - { offset: 0xD012B, size: 0x8, addend: 0x0, symName: __RNcNtNtNtCs6IAuOt8vWmF_3syn4expr4Expr3Lit0B7_, symObjAddr: 0xC274, symBinAddr: 0x40D40, symSize: 0x3C }
  - { offset: 0xD015A, size: 0x8, addend: 0x0, symName: __RNcNtNtNtCs6IAuOt8vWmF_3syn4expr4Expr4Loop0B7_, symObjAddr: 0xC2B0, symBinAddr: 0x40D7C, symSize: 0x3C }
  - { offset: 0xD0189, size: 0x8, addend: 0x0, symName: __RNcNtNtNtCs6IAuOt8vWmF_3syn4expr4Expr5Match0B7_, symObjAddr: 0xC2EC, symBinAddr: 0x40DB8, symSize: 0x3C }
  - { offset: 0xD01B8, size: 0x8, addend: 0x0, symName: __RNcNtNtNtCs6IAuOt8vWmF_3syn4expr4Expr5Range0B7_, symObjAddr: 0xC328, symBinAddr: 0x40DF4, symSize: 0x3C }
  - { offset: 0xD01E7, size: 0x8, addend: 0x0, symName: __RNcNtNtNtCs6IAuOt8vWmF_3syn4expr4Expr6Return0B7_, symObjAddr: 0xC364, symBinAddr: 0x40E30, symSize: 0x3C }
  - { offset: 0xD0216, size: 0x8, addend: 0x0, symName: __RNcNtNtNtCs6IAuOt8vWmF_3syn4expr4Expr6Struct0B7_, symObjAddr: 0xC3A0, symBinAddr: 0x40E6C, symSize: 0x3C }
  - { offset: 0xD0245, size: 0x8, addend: 0x0, symName: __RNcNtNtNtCs6IAuOt8vWmF_3syn4expr4Expr8TryBlock0B7_, symObjAddr: 0xC3DC, symBinAddr: 0x40EA8, symSize: 0x3C }
  - { offset: 0xD0274, size: 0x8, addend: 0x0, symName: __RNcNtNtNtCs6IAuOt8vWmF_3syn4expr4Expr5Unary0B7_, symObjAddr: 0xC418, symBinAddr: 0x40EE4, symSize: 0x3C }
  - { offset: 0xD02A3, size: 0x8, addend: 0x0, symName: __RNcNtNtNtCs6IAuOt8vWmF_3syn4expr4Expr6Unsafe0B7_, symObjAddr: 0xC454, symBinAddr: 0x40F20, symSize: 0x3C }
  - { offset: 0xD02D2, size: 0x8, addend: 0x0, symName: __RNcNtNtNtCs6IAuOt8vWmF_3syn4expr4Expr5While0B7_, symObjAddr: 0xC490, symBinAddr: 0x40F5C, symSize: 0x3C }
  - { offset: 0xD0301, size: 0x8, addend: 0x0, symName: __RNcNtNtNtCs6IAuOt8vWmF_3syn4expr4Expr5Yield0B7_, symObjAddr: 0xC4CC, symBinAddr: 0x40F98, symSize: 0x3C }
  - { offset: 0xD0331, size: 0x8, addend: 0x0, symName: __RNvXsP_NtCs6IAuOt8vWmF_3syn4exprNtB5_4ExprNtNtCs2cqEZUIJimJ_5quote9to_tokens8ToTokens9to_tokens, symObjAddr: 0xD080, symBinAddr: 0x40FD4, symSize: 0x4CC }
  - { offset: 0xD081A, size: 0x8, addend: 0x0, symName: __RNcNtNtNtCs6IAuOt8vWmF_3syn4expr6Member5Named0B7_, symObjAddr: 0xD54C, symBinAddr: 0x414A0, symSize: 0x18 }
  - { offset: 0xD084A, size: 0x8, addend: 0x0, symName: __RNcNtNtNtCs6IAuOt8vWmF_3syn4expr6Member7Unnamed0B7_, symObjAddr: 0xD564, symBinAddr: 0x414B8, symSize: 0x28 }
  - { offset: 0xD0880, size: 0x8, addend: 0x0, symName: __RNcNtNtNtCs6IAuOt8vWmF_3syn4expr11RangeLimits8HalfOpen0B7_, symObjAddr: 0xD58C, symBinAddr: 0x414E0, symSize: 0x24 }
  - { offset: 0xD08B0, size: 0x8, addend: 0x0, symName: __RNcNtNtNtCs6IAuOt8vWmF_3syn4expr11RangeLimits6Closed0B7_, symObjAddr: 0xD5B0, symBinAddr: 0x41504, symSize: 0x20 }
  - { offset: 0xD3268, size: 0x8, addend: 0x0, symName: __RNvXs0_NtNtCs6IAuOt8vWmF_3syn3gen5cloneNtNtB9_4expr3ArmNtNtCsfvfooZQ3Axs_4core5clone5Clone5clone, symObjAddr: 0x105A0, symBinAddr: 0x41524, symSize: 0x1BC }
  - { offset: 0xD329A, size: 0x8, addend: 0x0, symName: __RNvXsk_NtNtCs6IAuOt8vWmF_3syn3gen5cloneNtNtB9_4expr4ExprNtNtCsfvfooZQ3Axs_4core5clone5Clone5clone, symObjAddr: 0x1075C, symBinAddr: 0x416E0, symSize: 0xE1C }
  - { offset: 0xD378F, size: 0x8, addend: 0x0, symName: __RNvXsl_NtNtCs6IAuOt8vWmF_3syn3gen5cloneNtNtB9_4expr9ExprArrayNtNtCsfvfooZQ3Axs_4core5clone5Clone5clone, symObjAddr: 0x11578, symBinAddr: 0x424FC, symSize: 0xC8 }
  - { offset: 0xD37C3, size: 0x8, addend: 0x0, symName: __RNvXsm_NtNtCs6IAuOt8vWmF_3syn3gen5cloneNtNtB9_4expr10ExprAssignNtNtCsfvfooZQ3Axs_4core5clone5Clone5clone, symObjAddr: 0x11640, symBinAddr: 0x425C4, symSize: 0x108 }
  - { offset: 0xD37F7, size: 0x8, addend: 0x0, symName: __RNvXsn_NtNtCs6IAuOt8vWmF_3syn3gen5cloneNtNtB9_4expr9ExprAsyncNtNtCsfvfooZQ3Axs_4core5clone5Clone5clone, symObjAddr: 0x11748, symBinAddr: 0x426CC, symSize: 0xEC }
  - { offset: 0xD382B, size: 0x8, addend: 0x0, symName: __RNvXso_NtNtCs6IAuOt8vWmF_3syn3gen5cloneNtNtB9_4expr9ExprAwaitNtNtCsfvfooZQ3Axs_4core5clone5Clone5clone, symObjAddr: 0x11834, symBinAddr: 0x427B8, symSize: 0x108 }
  - { offset: 0xD385F, size: 0x8, addend: 0x0, symName: __RNvXsp_NtNtCs6IAuOt8vWmF_3syn3gen5cloneNtNtB9_4expr10ExprBinaryNtNtCsfvfooZQ3Axs_4core5clone5Clone5clone, symObjAddr: 0x1193C, symBinAddr: 0x428C0, symSize: 0xF8 }
  - { offset: 0xD3893, size: 0x8, addend: 0x0, symName: __RNvXsq_NtNtCs6IAuOt8vWmF_3syn3gen5cloneNtNtB9_4expr9ExprBlockNtNtCsfvfooZQ3Axs_4core5clone5Clone5clone, symObjAddr: 0x11A34, symBinAddr: 0x429B8, symSize: 0xF0 }
  - { offset: 0xD38C7, size: 0x8, addend: 0x0, symName: __RNvXsr_NtNtCs6IAuOt8vWmF_3syn3gen5cloneNtNtB9_4expr9ExprBreakNtNtCsfvfooZQ3Axs_4core5clone5Clone5clone, symObjAddr: 0x11B24, symBinAddr: 0x42AA8, symSize: 0xF8 }
  - { offset: 0xD38FB, size: 0x8, addend: 0x0, symName: __RNvXss_NtNtCs6IAuOt8vWmF_3syn3gen5cloneNtNtB9_4expr8ExprCallNtNtCsfvfooZQ3Axs_4core5clone5Clone5clone, symObjAddr: 0x11C1C, symBinAddr: 0x42BA0, symSize: 0x108 }
  - { offset: 0xD392F, size: 0x8, addend: 0x0, symName: __RNvXst_NtNtCs6IAuOt8vWmF_3syn3gen5cloneNtNtB9_4expr8ExprCastNtNtCsfvfooZQ3Axs_4core5clone5Clone5clone, symObjAddr: 0x11D24, symBinAddr: 0x42CA8, symSize: 0xF8 }
  - { offset: 0xD3963, size: 0x8, addend: 0x0, symName: __RNvXsu_NtNtCs6IAuOt8vWmF_3syn3gen5cloneNtNtB9_4expr11ExprClosureNtNtCsfvfooZQ3Axs_4core5clone5Clone5clone, symObjAddr: 0x11E1C, symBinAddr: 0x42DA0, symSize: 0x25C }
  - { offset: 0xD3997, size: 0x8, addend: 0x0, symName: __RNvXsv_NtNtCs6IAuOt8vWmF_3syn3gen5cloneNtNtB9_4expr9ExprConstNtNtCsfvfooZQ3Axs_4core5clone5Clone5clone, symObjAddr: 0x12078, symBinAddr: 0x42FFC, symSize: 0xC4 }
  - { offset: 0xD39CB, size: 0x8, addend: 0x0, symName: __RNvXsw_NtNtCs6IAuOt8vWmF_3syn3gen5cloneNtNtB9_4expr12ExprContinueNtNtCsfvfooZQ3Axs_4core5clone5Clone5clone, symObjAddr: 0x1213C, symBinAddr: 0x430C0, symSize: 0xC0 }
  - { offset: 0xD39FF, size: 0x8, addend: 0x0, symName: __RNvXsx_NtNtCs6IAuOt8vWmF_3syn3gen5cloneNtNtB9_4expr9ExprFieldNtNtCsfvfooZQ3Axs_4core5clone5Clone5clone, symObjAddr: 0x121FC, symBinAddr: 0x43180, symSize: 0x110 }
  - { offset: 0xD3A33, size: 0x8, addend: 0x0, symName: __RNvXsy_NtNtCs6IAuOt8vWmF_3syn3gen5cloneNtNtB9_4expr11ExprForLoopNtNtCsfvfooZQ3Axs_4core5clone5Clone5clone, symObjAddr: 0x1230C, symBinAddr: 0x43290, symSize: 0x1A8 }
  - { offset: 0xD3A67, size: 0x8, addend: 0x0, symName: __RNvXsz_NtNtCs6IAuOt8vWmF_3syn3gen5cloneNtNtB9_4expr9ExprGroupNtNtCsfvfooZQ3Axs_4core5clone5Clone5clone, symObjAddr: 0x124B4, symBinAddr: 0x43438, symSize: 0xB8 }
  - { offset: 0xD3A9B, size: 0x8, addend: 0x0, symName: __RNvXsA_NtNtCs6IAuOt8vWmF_3syn3gen5cloneNtNtB9_4expr6ExprIfNtNtCsfvfooZQ3Axs_4core5clone5Clone5clone, symObjAddr: 0x1256C, symBinAddr: 0x434F0, symSize: 0x14C }
  - { offset: 0xD3ACF, size: 0x8, addend: 0x0, symName: __RNvXsB_NtNtCs6IAuOt8vWmF_3syn3gen5cloneNtNtB9_4expr9ExprIndexNtNtCsfvfooZQ3Axs_4core5clone5Clone5clone, symObjAddr: 0x126B8, symBinAddr: 0x4363C, symSize: 0x100 }
  - { offset: 0xD3B03, size: 0x8, addend: 0x0, symName: __RNvXsC_NtNtCs6IAuOt8vWmF_3syn3gen5cloneNtNtB9_4expr9ExprInferNtNtCsfvfooZQ3Axs_4core5clone5Clone5clone, symObjAddr: 0x127B8, symBinAddr: 0x4373C, symSize: 0xAC }
  - { offset: 0xD3B37, size: 0x8, addend: 0x0, symName: __RNvXsD_NtNtCs6IAuOt8vWmF_3syn3gen5cloneNtNtB9_4expr7ExprLetNtNtCsfvfooZQ3Axs_4core5clone5Clone5clone, symObjAddr: 0x12864, symBinAddr: 0x437E8, symSize: 0x124 }
  - { offset: 0xD3B6B, size: 0x8, addend: 0x0, symName: __RNvXsE_NtNtCs6IAuOt8vWmF_3syn3gen5cloneNtNtB9_4expr7ExprLitNtNtCsfvfooZQ3Axs_4core5clone5Clone5clone, symObjAddr: 0x12988, symBinAddr: 0x4390C, symSize: 0xA4 }
  - { offset: 0xD3B9F, size: 0x8, addend: 0x0, symName: __RNvXsF_NtNtCs6IAuOt8vWmF_3syn3gen5cloneNtNtB9_4expr8ExprLoopNtNtCsfvfooZQ3Axs_4core5clone5Clone5clone, symObjAddr: 0x12A2C, symBinAddr: 0x439B0, symSize: 0x10C }
  - { offset: 0xD3BD3, size: 0x8, addend: 0x0, symName: __RNvXsG_NtNtCs6IAuOt8vWmF_3syn3gen5cloneNtNtB9_4expr9ExprMacroNtNtCsfvfooZQ3Axs_4core5clone5Clone5clone, symObjAddr: 0x12B38, symBinAddr: 0x43ABC, symSize: 0xA8 }
  - { offset: 0xD3C07, size: 0x8, addend: 0x0, symName: __RNvXsH_NtNtCs6IAuOt8vWmF_3syn3gen5cloneNtNtB9_4expr9ExprMatchNtNtCsfvfooZQ3Axs_4core5clone5Clone5clone, symObjAddr: 0x12BE0, symBinAddr: 0x43B64, symSize: 0x12C }
  - { offset: 0xD3C3B, size: 0x8, addend: 0x0, symName: __RNvXsI_NtNtCs6IAuOt8vWmF_3syn3gen5cloneNtNtB9_4expr14ExprMethodCallNtNtCsfvfooZQ3Axs_4core5clone5Clone5clone, symObjAddr: 0x12D0C, symBinAddr: 0x43C90, symSize: 0x1D0 }
  - { offset: 0xD3C6F, size: 0x8, addend: 0x0, symName: __RNvXsJ_NtNtCs6IAuOt8vWmF_3syn3gen5cloneNtNtB9_4expr9ExprParenNtNtCsfvfooZQ3Axs_4core5clone5Clone5clone, symObjAddr: 0x12EDC, symBinAddr: 0x43E60, symSize: 0xC0 }
  - { offset: 0xD3CA3, size: 0x8, addend: 0x0, symName: __RNvXsK_NtNtCs6IAuOt8vWmF_3syn3gen5cloneNtNtB9_4expr8ExprPathNtNtCsfvfooZQ3Axs_4core5clone5Clone5clone, symObjAddr: 0x12F9C, symBinAddr: 0x43F20, symSize: 0xE8 }
  - { offset: 0xD3CD7, size: 0x8, addend: 0x0, symName: __RNvXsL_NtNtCs6IAuOt8vWmF_3syn3gen5cloneNtNtB9_4expr9ExprRangeNtNtCsfvfooZQ3Axs_4core5clone5Clone5clone, symObjAddr: 0x13084, symBinAddr: 0x44008, symSize: 0xF8 }
  - { offset: 0xD3D0B, size: 0x8, addend: 0x0, symName: __RNvXsM_NtNtCs6IAuOt8vWmF_3syn3gen5cloneNtNtB9_4expr11ExprRawAddrNtNtCsfvfooZQ3Axs_4core5clone5Clone5clone, symObjAddr: 0x1317C, symBinAddr: 0x44100, symSize: 0x10C }
  - { offset: 0xD3D3F, size: 0x8, addend: 0x0, symName: __RNvXsN_NtNtCs6IAuOt8vWmF_3syn3gen5cloneNtNtB9_4expr13ExprReferenceNtNtCsfvfooZQ3Axs_4core5clone5Clone5clone, symObjAddr: 0x13288, symBinAddr: 0x4420C, symSize: 0xF0 }
  - { offset: 0xD3D73, size: 0x8, addend: 0x0, symName: __RNvXsO_NtNtCs6IAuOt8vWmF_3syn3gen5cloneNtNtB9_4expr10ExprRepeatNtNtCsfvfooZQ3Axs_4core5clone5Clone5clone, symObjAddr: 0x13378, symBinAddr: 0x442FC, symSize: 0x12C }
  - { offset: 0xD3DA7, size: 0x8, addend: 0x0, symName: __RNvXsP_NtNtCs6IAuOt8vWmF_3syn3gen5cloneNtNtB9_4expr10ExprReturnNtNtCsfvfooZQ3Axs_4core5clone5Clone5clone, symObjAddr: 0x134A4, symBinAddr: 0x44428, symSize: 0xB8 }
  - { offset: 0xD3DDB, size: 0x8, addend: 0x0, symName: __RNvXsQ_NtNtCs6IAuOt8vWmF_3syn3gen5cloneNtNtB9_4expr10ExprStructNtNtCsfvfooZQ3Axs_4core5clone5Clone5clone, symObjAddr: 0x1355C, symBinAddr: 0x444E0, symSize: 0x1B8 }
  - { offset: 0xD3E0F, size: 0x8, addend: 0x0, symName: __RNvXsR_NtNtCs6IAuOt8vWmF_3syn3gen5cloneNtNtB9_4expr7ExprTryNtNtCsfvfooZQ3Axs_4core5clone5Clone5clone, symObjAddr: 0x13714, symBinAddr: 0x44698, symSize: 0xEC }
  - { offset: 0xD3E43, size: 0x8, addend: 0x0, symName: __RNvXsS_NtNtCs6IAuOt8vWmF_3syn3gen5cloneNtNtB9_4expr12ExprTryBlockNtNtCsfvfooZQ3Axs_4core5clone5Clone5clone, symObjAddr: 0x13800, symBinAddr: 0x44784, symSize: 0xC4 }
  - { offset: 0xD3E77, size: 0x8, addend: 0x0, symName: __RNvXsT_NtNtCs6IAuOt8vWmF_3syn3gen5cloneNtNtB9_4expr9ExprTupleNtNtCsfvfooZQ3Axs_4core5clone5Clone5clone, symObjAddr: 0x138C4, symBinAddr: 0x44848, symSize: 0xC8 }
  - { offset: 0xD3EAB, size: 0x8, addend: 0x0, symName: __RNvXsU_NtNtCs6IAuOt8vWmF_3syn3gen5cloneNtNtB9_4expr9ExprUnaryNtNtCsfvfooZQ3Axs_4core5clone5Clone5clone, symObjAddr: 0x1398C, symBinAddr: 0x44910, symSize: 0xC8 }
  - { offset: 0xD3EDF, size: 0x8, addend: 0x0, symName: __RNvXsV_NtNtCs6IAuOt8vWmF_3syn3gen5cloneNtNtB9_4expr10ExprUnsafeNtNtCsfvfooZQ3Axs_4core5clone5Clone5clone, symObjAddr: 0x13A54, symBinAddr: 0x449D8, symSize: 0xC4 }
  - { offset: 0xD3F13, size: 0x8, addend: 0x0, symName: __RNvXsW_NtNtCs6IAuOt8vWmF_3syn3gen5cloneNtNtB9_4expr9ExprWhileNtNtCsfvfooZQ3Axs_4core5clone5Clone5clone, symObjAddr: 0x13B18, symBinAddr: 0x44A9C, symSize: 0x14C }
  - { offset: 0xD3F47, size: 0x8, addend: 0x0, symName: __RNvXsX_NtNtCs6IAuOt8vWmF_3syn3gen5cloneNtNtB9_4expr9ExprYieldNtNtCsfvfooZQ3Axs_4core5clone5Clone5clone, symObjAddr: 0x13C64, symBinAddr: 0x44BE8, symSize: 0xB8 }
  - { offset: 0xD3F7B, size: 0x8, addend: 0x0, symName: __RNvXs11_NtNtCs6IAuOt8vWmF_3syn3gen5cloneNtNtBa_4expr10FieldValueNtNtCsfvfooZQ3Axs_4core5clone5Clone5clone, symObjAddr: 0x13D1C, symBinAddr: 0x44CA0, symSize: 0x118 }
  - { offset: 0xD3FAF, size: 0x8, addend: 0x0, symName: __RNvXs1l_NtNtCs6IAuOt8vWmF_3syn3gen5cloneNtNtBa_4expr5IndexNtNtCsfvfooZQ3Axs_4core5clone5Clone5clone, symObjAddr: 0x13E34, symBinAddr: 0x44DB8, symSize: 0x48 }
  - { offset: 0xD3FE3, size: 0x8, addend: 0x0, symName: __RNvXs1C_NtNtCs6IAuOt8vWmF_3syn3gen5cloneNtNtBa_4expr5LabelNtNtCsfvfooZQ3Axs_4core5clone5Clone5clone, symObjAddr: 0x13E7C, symBinAddr: 0x44E00, symSize: 0xA4 }
  - { offset: 0xD4017, size: 0x8, addend: 0x0, symName: __RNvXs1K_NtNtCs6IAuOt8vWmF_3syn3gen5cloneNtNtBa_4expr6MemberNtNtCsfvfooZQ3Axs_4core5clone5Clone5clone, symObjAddr: 0x13F20, symBinAddr: 0x44EA4, symSize: 0xB8 }
  - { offset: 0xD407F, size: 0x8, addend: 0x0, symName: __RNvXs24_NtNtCs6IAuOt8vWmF_3syn3gen5cloneNtNtBa_4expr17PointerMutabilityNtNtCsfvfooZQ3Axs_4core5clone5Clone5clone, symObjAddr: 0x13FD8, symBinAddr: 0x44F5C, symSize: 0xA0 }
  - { offset: 0xD40E7, size: 0x8, addend: 0x0, symName: __RNvXs2a_NtNtCs6IAuOt8vWmF_3syn3gen5cloneNtNtBa_4expr11RangeLimitsNtNtCsfvfooZQ3Axs_4core5clone5Clone5clone, symObjAddr: 0x14078, symBinAddr: 0x44FFC, symSize: 0x2C }
  - { offset: 0xD77BE, size: 0x8, addend: 0x0, symName: __RNvMNtCsfvfooZQ3Axs_4core5sliceSNtNtCs6IAuOt8vWmF_3syn4expr3Arm4iterBy_, symObjAddr: 0xA44, symBinAddr: 0x38388, symSize: 0x28 }
  - { offset: 0xD77F5, size: 0x8, addend: 0x0, symName: __RNvMNtCsfvfooZQ3Axs_4core5sliceSTNtNtCs6IAuOt8vWmF_3syn4expr10FieldValueNtNtBz_5token5CommaE4iterBz_, symObjAddr: 0xA6C, symBinAddr: 0x383B0, symSize: 0x28 }
  - { offset: 0xD782C, size: 0x8, addend: 0x0, symName: __RNvMNtCsfvfooZQ3Axs_4core5sliceSTNtNtCs6IAuOt8vWmF_3syn4expr4ExprNtNtBz_5token5CommaE4iterBz_, symObjAddr: 0xA94, symBinAddr: 0x383D8, symSize: 0x28 }
  - { offset: 0xD7BE0, size: 0x8, addend: 0x0, symName: __RNvXNtNtCsfvfooZQ3Axs_4core5clone6uninitNtNtCs6IAuOt8vWmF_3syn4expr10FieldValueNtB2_8CopySpec9clone_oneBG_, symObjAddr: 0xB3C, symBinAddr: 0x38480, symSize: 0x50 }
  - { offset: 0xD7C44, size: 0x8, addend: 0x0, symName: __RNvXNtNtCsfvfooZQ3Axs_4core5clone6uninitNtNtCs6IAuOt8vWmF_3syn4expr4ExprNtB2_8CopySpec9clone_oneBG_, symObjAddr: 0xB8C, symBinAddr: 0x384D0, symSize: 0x48 }
  - { offset: 0xD9AC7, size: 0x8, addend: 0x0, symName: __RNvXNtCs2cqEZUIJimJ_5quote9to_tokensRNtNtCs6IAuOt8vWmF_3syn4expr10FieldValueNtB2_8ToTokens9to_tokensBD_, symObjAddr: 0xABC, symBinAddr: 0x38400, symSize: 0x40 }
  - { offset: 0xD9B06, size: 0x8, addend: 0x0, symName: __RNvXNtCs2cqEZUIJimJ_5quote9to_tokensRNtNtCs6IAuOt8vWmF_3syn4expr4ExprNtB2_8ToTokens9to_tokensBD_, symObjAddr: 0xAFC, symBinAddr: 0x38440, symSize: 0x40 }
  - { offset: 0xD9BBE, size: 0x8, addend: 0x0, symName: __RNvMNtCs6IAuOt8vWmF_3syn4exprNtB2_4Expr25parse_without_eager_brace, symObjAddr: 0x1C04, symBinAddr: 0x38518, symSize: 0x3C }
  - { offset: 0xD9BE1, size: 0x8, addend: 0x0, symName: __RNvMNtCs6IAuOt8vWmF_3syn4exprNtB2_4Expr32parse_with_earlier_boundary_rule, symObjAddr: 0x1C40, symBinAddr: 0x38554, symSize: 0x34 }
  - { offset: 0xD9C04, size: 0x8, addend: 0x0, symName: __RNvMNtCs6IAuOt8vWmF_3syn4exprNtB2_4Expr4peek, symObjAddr: 0x1C74, symBinAddr: 0x38588, symSize: 0x408 }
  - { offset: 0xD9C34, size: 0x8, addend: 0x0, symName: __RNvMNtCs6IAuOt8vWmF_3syn4exprNtB2_4Expr13replace_attrs, symObjAddr: 0x207C, symBinAddr: 0x38990, symSize: 0x678 }
  - { offset: 0xD9C8A, size: 0x8, addend: 0x0, symName: __RNvMs6_NtCs6IAuOt8vWmF_3syn4exprNtB5_6Member8is_named, symObjAddr: 0x2A04, symBinAddr: 0x39008, symSize: 0x6C }
  - { offset: 0xD9CE5, size: 0x8, addend: 0x0, symName: __RNvMsv_NtNtCs6IAuOt8vWmF_3syn4expr7parsingNtB7_11RangeLimits14parse_obsolete, symObjAddr: 0x9428, symBinAddr: 0x3E1AC, symSize: 0x334 }
  - { offset: 0xD9D98, size: 0x8, addend: 0x0, symName: __RNvMsy_NtNtCs6IAuOt8vWmF_3syn4expr7parsingNtB7_3Arm14parse_multiple, symObjAddr: 0x9A90, symBinAddr: 0x3E814, symSize: 0x1C4 }
  - { offset: 0xDA162, size: 0x8, addend: 0x0, symName: __RINvXNtNtCse1nGBsou5OW_5alloc5slice4hackTNtNtCs6IAuOt8vWmF_3syn8lifetime8LifetimeNtNtBH_5token4PlusENtB3_10ConvertVec6to_vecNtNtB7_5alloc6GlobalEBH_, symObjAddr: 0x0, symBinAddr: 0x45028, symSize: 0x368 }
  - { offset: 0xDBF05, size: 0x8, addend: 0x0, symName: __RNCNvMNtCs6IAuOt8vWmF_3syn10punctuatedINtB4_10PunctuatedNtNtB6_4path11PathSegmentNtNtB6_5token7PathSepE10into_pairs0B6_, symObjAddr: 0x5AA4, symBinAddr: 0x48ED4, symSize: 0x98 }
  - { offset: 0xDBF5A, size: 0x8, addend: 0x0, symName: __RNCNvMNtCs6IAuOt8vWmF_3syn10punctuatedINtB4_10PunctuatedNtNtB6_4path11PathSegmentNtNtB6_5token7PathSepE3pop0B6_, symObjAddr: 0x9E58, symBinAddr: 0x4D288, symSize: 0xC4 }
  - { offset: 0xDBFA2, size: 0x8, addend: 0x0, symName: __RNCNvMNtCs6IAuOt8vWmF_3syn10punctuatedINtB4_10PunctuatedNtNtB6_4path11PathSegmentNtNtB6_5token7PathSepE3pops_0B6_, symObjAddr: 0x9F1C, symBinAddr: 0x4D34C, symSize: 0x74 }
  - { offset: 0xDC0DA, size: 0x8, addend: 0x0, symName: __RNvXs_NtCs6IAuOt8vWmF_3syn10punctuatedINtB4_10PunctuatedNtNtB6_2ty4TypeNtNtB6_5token5CommaENtNtCsfvfooZQ3Axs_4core5clone5Clone5cloneB6_, symObjAddr: 0xB460, symBinAddr: 0x4E890, symSize: 0x9C }
  - { offset: 0xDC11A, size: 0x8, addend: 0x0, symName: __RNvXs_NtCs6IAuOt8vWmF_3syn10punctuatedINtB4_10PunctuatedNtNtB6_2ty9BareFnArgNtNtB6_5token5CommaENtNtCsfvfooZQ3Axs_4core5clone5Clone5cloneB6_, symObjAddr: 0xB4FC, symBinAddr: 0x4E92C, symSize: 0x9C }
  - { offset: 0xDC15A, size: 0x8, addend: 0x0, symName: __RNvXs_NtCs6IAuOt8vWmF_3syn10punctuatedINtB4_10PunctuatedNtNtB6_3pat3PatNtNtB6_5token2OrENtNtCsfvfooZQ3Axs_4core5clone5Clone5cloneB6_, symObjAddr: 0xB598, symBinAddr: 0x4E9C8, symSize: 0x9C }
  - { offset: 0xDC19A, size: 0x8, addend: 0x0, symName: __RNvXs_NtCs6IAuOt8vWmF_3syn10punctuatedINtB4_10PunctuatedNtNtB6_3pat3PatNtNtB6_5token5CommaENtNtCsfvfooZQ3Axs_4core5clone5Clone5cloneB6_, symObjAddr: 0xB634, symBinAddr: 0x4EA64, symSize: 0x9C }
  - { offset: 0xDC1DA, size: 0x8, addend: 0x0, symName: __RNvXs_NtCs6IAuOt8vWmF_3syn10punctuatedINtB4_10PunctuatedNtNtB6_3pat8FieldPatNtNtB6_5token5CommaENtNtCsfvfooZQ3Axs_4core5clone5Clone5cloneB6_, symObjAddr: 0xB6D0, symBinAddr: 0x4EB00, symSize: 0x9C }
  - { offset: 0xDC21A, size: 0x8, addend: 0x0, symName: __RNvXs_NtCs6IAuOt8vWmF_3syn10punctuatedINtB4_10PunctuatedNtNtB6_4data5FieldNtNtB6_5token5CommaENtNtCsfvfooZQ3Axs_4core5clone5Clone5cloneB6_, symObjAddr: 0xB76C, symBinAddr: 0x4EB9C, symSize: 0x9C }
  - { offset: 0xDC25A, size: 0x8, addend: 0x0, symName: __RNvXs_NtCs6IAuOt8vWmF_3syn10punctuatedINtB4_10PunctuatedNtNtB6_4data7VariantNtNtB6_5token5CommaENtNtCsfvfooZQ3Axs_4core5clone5Clone5cloneB6_, symObjAddr: 0xB808, symBinAddr: 0x4EC38, symSize: 0x9C }
  - { offset: 0xDC29A, size: 0x8, addend: 0x0, symName: __RNvXs_NtCs6IAuOt8vWmF_3syn10punctuatedINtB4_10PunctuatedNtNtB6_4expr10FieldValueNtNtB6_5token5CommaENtNtCsfvfooZQ3Axs_4core5clone5Clone5cloneB6_, symObjAddr: 0xB8A4, symBinAddr: 0x4ECD4, symSize: 0x9C }
  - { offset: 0xDC2DA, size: 0x8, addend: 0x0, symName: __RNvXs_NtCs6IAuOt8vWmF_3syn10punctuatedINtB4_10PunctuatedNtNtB6_4expr4ExprNtNtB6_5token5CommaENtNtCsfvfooZQ3Axs_4core5clone5Clone5cloneB6_, symObjAddr: 0xB940, symBinAddr: 0x4ED70, symSize: 0x9C }
  - { offset: 0xDC31A, size: 0x8, addend: 0x0, symName: __RNvXs_NtCs6IAuOt8vWmF_3syn10punctuatedINtB4_10PunctuatedNtNtB6_4item5FnArgNtNtB6_5token5CommaENtNtCsfvfooZQ3Axs_4core5clone5Clone5cloneB6_, symObjAddr: 0xB9DC, symBinAddr: 0x4EE0C, symSize: 0x9C }
  - { offset: 0xDC35A, size: 0x8, addend: 0x0, symName: __RNvXs_NtCs6IAuOt8vWmF_3syn10punctuatedINtB4_10PunctuatedNtNtB6_4item7UseTreeNtNtB6_5token5CommaENtNtCsfvfooZQ3Axs_4core5clone5Clone5cloneB6_, symObjAddr: 0xBA78, symBinAddr: 0x4EEA8, symSize: 0x9C }
  - { offset: 0xDC39A, size: 0x8, addend: 0x0, symName: __RNvXs_NtCs6IAuOt8vWmF_3syn10punctuatedINtB4_10PunctuatedNtNtB6_4path11PathSegmentNtNtB6_5token7PathSepENtNtCsfvfooZQ3Axs_4core5clone5Clone5cloneB6_, symObjAddr: 0xBB14, symBinAddr: 0x4EF44, symSize: 0x9C }
  - { offset: 0xDC3DA, size: 0x8, addend: 0x0, symName: __RNvXs_NtCs6IAuOt8vWmF_3syn10punctuatedINtB4_10PunctuatedNtNtB6_4path15GenericArgumentNtNtB6_5token5CommaENtNtCsfvfooZQ3Axs_4core5clone5Clone5cloneB6_, symObjAddr: 0xBBB0, symBinAddr: 0x4EFE0, symSize: 0x9C }
  - { offset: 0xDC41A, size: 0x8, addend: 0x0, symName: __RNvXs_NtCs6IAuOt8vWmF_3syn10punctuatedINtB4_10PunctuatedNtNtB6_8generics12GenericParamNtNtB6_5token5CommaENtNtCsfvfooZQ3Axs_4core5clone5Clone5cloneB6_, symObjAddr: 0xBC4C, symBinAddr: 0x4F07C, symSize: 0x9C }
  - { offset: 0xDC45A, size: 0x8, addend: 0x0, symName: __RNvXs_NtCs6IAuOt8vWmF_3syn10punctuatedINtB4_10PunctuatedNtNtB6_8generics13CapturedParamNtNtB6_5token5CommaENtNtCsfvfooZQ3Axs_4core5clone5Clone5cloneB6_, symObjAddr: 0xBCE8, symBinAddr: 0x4F118, symSize: 0x9C }
  - { offset: 0xDC49A, size: 0x8, addend: 0x0, symName: __RNvXs_NtCs6IAuOt8vWmF_3syn10punctuatedINtB4_10PunctuatedNtNtB6_8generics14TypeParamBoundNtNtB6_5token4PlusENtNtCsfvfooZQ3Axs_4core5clone5Clone5cloneB6_, symObjAddr: 0xBD84, symBinAddr: 0x4F1B4, symSize: 0x9C }
  - { offset: 0xDC4DA, size: 0x8, addend: 0x0, symName: __RNvXs_NtCs6IAuOt8vWmF_3syn10punctuatedINtB4_10PunctuatedNtNtB6_8generics14WherePredicateNtNtB6_5token5CommaENtNtCsfvfooZQ3Axs_4core5clone5Clone5cloneB6_, symObjAddr: 0xBE20, symBinAddr: 0x4F250, symSize: 0x9C }
  - { offset: 0xDC51A, size: 0x8, addend: 0x0, symName: __RNvXs_NtCs6IAuOt8vWmF_3syn10punctuatedINtB4_10PunctuatedNtNtB6_8lifetime8LifetimeNtNtB6_5token4PlusENtNtCsfvfooZQ3Axs_4core5clone5Clone5cloneB6_, symObjAddr: 0xBEBC, symBinAddr: 0x4F2EC, symSize: 0x9C }
  - { offset: 0xDC560, size: 0x8, addend: 0x0, symName: __RINvXs7_NtCs6IAuOt8vWmF_3syn10punctuatedINtB6_10PunctuatedNtNtB8_4path11PathSegmentNtNtB8_5token7PathSepEINtNtNtNtCsfvfooZQ3Axs_4core4iter6traits7collect6ExtendINtB6_4PairBU_B1j_EE6extendINtB6_9IntoPairsBU_B1j_EEB8_, symObjAddr: 0xDFB0, symBinAddr: 0x4F388, symSize: 0x124 }
  - { offset: 0xDC5B6, size: 0x8, addend: 0x0, symName: __RINvNtCs6IAuOt8vWmF_3syn10punctuated9do_extendNtNtB4_4path11PathSegmentNtNtB4_5token7PathSepINtB2_9IntoPairsBI_B17_EEB4_, symObjAddr: 0xE0D4, symBinAddr: 0x4F4AC, symSize: 0x3B4 }
  - { offset: 0xDC6B3, size: 0x8, addend: 0x0, symName: __RNvXs8_NtCs6IAuOt8vWmF_3syn10punctuatedINtB5_10PunctuatedNtNtB7_8generics14TypeParamBoundNtNtB7_5token4PlusENtNtNtNtCsfvfooZQ3Axs_4core4iter6traits7collect12IntoIterator9into_iterB7_, symObjAddr: 0xE808, symBinAddr: 0x4F860, symSize: 0x1C0 }
  - { offset: 0xDC70F, size: 0x8, addend: 0x0, symName: __RNCNvXs8_NtCs6IAuOt8vWmF_3syn10punctuatedINtB7_10PunctuatedNtNtB9_8generics14TypeParamBoundNtNtB9_5token4PlusENtNtNtNtCsfvfooZQ3Axs_4core4iter6traits7collect12IntoIterator9into_iter0B9_, symObjAddr: 0xEA50, symBinAddr: 0x4FA20, symSize: 0x44 }
  - { offset: 0xDC75B, size: 0x8, addend: 0x0, symName: __RNCNvXs8_NtCs6IAuOt8vWmF_3syn10punctuatedINtB7_10PunctuatedNtNtB9_8generics14TypeParamBoundNtNtB9_5token4PlusENtNtNtNtCsfvfooZQ3Axs_4core4iter6traits7collect12IntoIterator9into_iters_0B9_, symObjAddr: 0xEBC4, symBinAddr: 0x4FA64, symSize: 0x98 }
  - { offset: 0xDC7BB, size: 0x8, addend: 0x0, symName: __RNvXs9_NtCs6IAuOt8vWmF_3syn10punctuatedRINtB5_10PunctuatedNtNtB7_8generics14TypeParamBoundNtNtB7_5token4PlusENtNtNtNtCsfvfooZQ3Axs_4core4iter6traits7collect12IntoIterator9into_iterB7_, symObjAddr: 0xEC5C, symBinAddr: 0x4FAFC, symSize: 0x34 }
  - { offset: 0xDC801, size: 0x8, addend: 0x0, symName: __RNvXsc_NtCs6IAuOt8vWmF_3syn10punctuatedINtB5_5PairsNtNtB7_2ty4TypeNtNtB7_5token5CommaENtNtNtNtCsfvfooZQ3Axs_4core4iter6traits8iterator8Iterator4nextB7_, symObjAddr: 0xEC90, symBinAddr: 0x4FB30, symSize: 0x58 }
  - { offset: 0xDC841, size: 0x8, addend: 0x0, symName: __RNvXsc_NtCs6IAuOt8vWmF_3syn10punctuatedINtB5_5PairsNtNtB7_2ty9BareFnArgNtNtB7_5token5CommaENtNtNtNtCsfvfooZQ3Axs_4core4iter6traits8iterator8Iterator4nextB7_, symObjAddr: 0xECE8, symBinAddr: 0x4FB88, symSize: 0x58 }
  - { offset: 0xDC881, size: 0x8, addend: 0x0, symName: __RNvXsc_NtCs6IAuOt8vWmF_3syn10punctuatedINtB5_5PairsNtNtB7_3pat3PatNtNtB7_5token2OrENtNtNtNtCsfvfooZQ3Axs_4core4iter6traits8iterator8Iterator4nextB7_, symObjAddr: 0xED40, symBinAddr: 0x4FBE0, symSize: 0x58 }
  - { offset: 0xDC8C1, size: 0x8, addend: 0x0, symName: __RNvXsc_NtCs6IAuOt8vWmF_3syn10punctuatedINtB5_5PairsNtNtB7_3pat3PatNtNtB7_5token5CommaENtNtNtNtCsfvfooZQ3Axs_4core4iter6traits8iterator8Iterator4nextB7_, symObjAddr: 0xED98, symBinAddr: 0x4FC38, symSize: 0x58 }
  - { offset: 0xDC901, size: 0x8, addend: 0x0, symName: __RNvXsc_NtCs6IAuOt8vWmF_3syn10punctuatedINtB5_5PairsNtNtB7_3pat8FieldPatNtNtB7_5token5CommaENtNtNtNtCsfvfooZQ3Axs_4core4iter6traits8iterator8Iterator4nextB7_, symObjAddr: 0xEDF0, symBinAddr: 0x4FC90, symSize: 0x58 }
  - { offset: 0xDC941, size: 0x8, addend: 0x0, symName: __RNvXsc_NtCs6IAuOt8vWmF_3syn10punctuatedINtB5_5PairsNtNtB7_4data5FieldNtNtB7_5token5CommaENtNtNtNtCsfvfooZQ3Axs_4core4iter6traits8iterator8Iterator4nextB7_, symObjAddr: 0xEE48, symBinAddr: 0x4FCE8, symSize: 0x58 }
  - { offset: 0xDC981, size: 0x8, addend: 0x0, symName: __RNvXsc_NtCs6IAuOt8vWmF_3syn10punctuatedINtB5_5PairsNtNtB7_4data7VariantNtNtB7_5token5CommaENtNtNtNtCsfvfooZQ3Axs_4core4iter6traits8iterator8Iterator4nextB7_, symObjAddr: 0xEEA0, symBinAddr: 0x4FD40, symSize: 0x58 }
  - { offset: 0xDC9C1, size: 0x8, addend: 0x0, symName: __RNvXsc_NtCs6IAuOt8vWmF_3syn10punctuatedINtB5_5PairsNtNtB7_4expr10FieldValueNtNtB7_5token5CommaENtNtNtNtCsfvfooZQ3Axs_4core4iter6traits8iterator8Iterator4nextB7_, symObjAddr: 0xEEF8, symBinAddr: 0x4FD98, symSize: 0x58 }
  - { offset: 0xDCA01, size: 0x8, addend: 0x0, symName: __RNvXsc_NtCs6IAuOt8vWmF_3syn10punctuatedINtB5_5PairsNtNtB7_4expr4ExprNtNtB7_5token5CommaENtNtNtNtCsfvfooZQ3Axs_4core4iter6traits8iterator8Iterator4nextB7_, symObjAddr: 0xEF50, symBinAddr: 0x4FDF0, symSize: 0x58 }
  - { offset: 0xDCA41, size: 0x8, addend: 0x0, symName: __RNvXsc_NtCs6IAuOt8vWmF_3syn10punctuatedINtB5_5PairsNtNtB7_4item5FnArgNtNtB7_5token5CommaENtNtNtNtCsfvfooZQ3Axs_4core4iter6traits8iterator8Iterator4nextB7_, symObjAddr: 0xEFA8, symBinAddr: 0x4FE48, symSize: 0x58 }
  - { offset: 0xDCA81, size: 0x8, addend: 0x0, symName: __RNvXsc_NtCs6IAuOt8vWmF_3syn10punctuatedINtB5_5PairsNtNtB7_4item7UseTreeNtNtB7_5token5CommaENtNtNtNtCsfvfooZQ3Axs_4core4iter6traits8iterator8Iterator4nextB7_, symObjAddr: 0xF000, symBinAddr: 0x4FEA0, symSize: 0x58 }
  - { offset: 0xDCAC1, size: 0x8, addend: 0x0, symName: __RNvXsc_NtCs6IAuOt8vWmF_3syn10punctuatedINtB5_5PairsNtNtB7_4path11PathSegmentNtNtB7_5token7PathSepENtNtNtNtCsfvfooZQ3Axs_4core4iter6traits8iterator8Iterator4nextB7_, symObjAddr: 0xF058, symBinAddr: 0x4FEF8, symSize: 0x58 }
  - { offset: 0xDCB01, size: 0x8, addend: 0x0, symName: __RNvXsc_NtCs6IAuOt8vWmF_3syn10punctuatedINtB5_5PairsNtNtB7_4path15GenericArgumentNtNtB7_5token5CommaENtNtNtNtCsfvfooZQ3Axs_4core4iter6traits8iterator8Iterator4nextB7_, symObjAddr: 0xF0B0, symBinAddr: 0x4FF50, symSize: 0x58 }
  - { offset: 0xDCB41, size: 0x8, addend: 0x0, symName: __RNvXsc_NtCs6IAuOt8vWmF_3syn10punctuatedINtB5_5PairsNtNtB7_8generics12GenericParamNtNtB7_5token5CommaENtNtNtNtCsfvfooZQ3Axs_4core4iter6traits8iterator8Iterator4nextB7_, symObjAddr: 0xF108, symBinAddr: 0x4FFA8, symSize: 0x58 }
  - { offset: 0xDCB81, size: 0x8, addend: 0x0, symName: __RNvXsc_NtCs6IAuOt8vWmF_3syn10punctuatedINtB5_5PairsNtNtB7_8generics13CapturedParamNtNtB7_5token5CommaENtNtNtNtCsfvfooZQ3Axs_4core4iter6traits8iterator8Iterator4nextB7_, symObjAddr: 0xF160, symBinAddr: 0x50000, symSize: 0x58 }
  - { offset: 0xDCBC1, size: 0x8, addend: 0x0, symName: __RNvXsc_NtCs6IAuOt8vWmF_3syn10punctuatedINtB5_5PairsNtNtB7_8generics14TypeParamBoundNtNtB7_5token4PlusENtNtNtNtCsfvfooZQ3Axs_4core4iter6traits8iterator8Iterator4nextB7_, symObjAddr: 0xF1B8, symBinAddr: 0x50058, symSize: 0x58 }
  - { offset: 0xDCC01, size: 0x8, addend: 0x0, symName: __RNvXsc_NtCs6IAuOt8vWmF_3syn10punctuatedINtB5_5PairsNtNtB7_8generics14WherePredicateNtNtB7_5token5CommaENtNtNtNtCsfvfooZQ3Axs_4core4iter6traits8iterator8Iterator4nextB7_, symObjAddr: 0xF210, symBinAddr: 0x500B0, symSize: 0x58 }
  - { offset: 0xDCC41, size: 0x8, addend: 0x0, symName: __RNvXsc_NtCs6IAuOt8vWmF_3syn10punctuatedINtB5_5PairsNtNtB7_8lifetime8LifetimeNtNtB7_5token4PlusENtNtNtNtCsfvfooZQ3Axs_4core4iter6traits8iterator8Iterator4nextB7_, symObjAddr: 0xF268, symBinAddr: 0x50108, symSize: 0x58 }
  - { offset: 0xDCC86, size: 0x8, addend: 0x0, symName: __RNCNvXsc_NtCs6IAuOt8vWmF_3syn10punctuatedINtB7_5PairsNtNtB9_2ty4TypeNtNtB9_5token5CommaENtNtNtNtCsfvfooZQ3Axs_4core4iter6traits8iterator8Iterator4next0B9_, symObjAddr: 0xF2C0, symBinAddr: 0x50160, symSize: 0x40 }
  - { offset: 0xDCCFB, size: 0x8, addend: 0x0, symName: __RNCNvXsc_NtCs6IAuOt8vWmF_3syn10punctuatedINtB7_5PairsNtNtB9_2ty9BareFnArgNtNtB9_5token5CommaENtNtNtNtCsfvfooZQ3Axs_4core4iter6traits8iterator8Iterator4next0B9_, symObjAddr: 0xF300, symBinAddr: 0x501A0, symSize: 0x40 }
  - { offset: 0xDCD70, size: 0x8, addend: 0x0, symName: __RNCNvXsc_NtCs6IAuOt8vWmF_3syn10punctuatedINtB7_5PairsNtNtB9_3pat3PatNtNtB9_5token2OrENtNtNtNtCsfvfooZQ3Axs_4core4iter6traits8iterator8Iterator4next0B9_, symObjAddr: 0xF340, symBinAddr: 0x501E0, symSize: 0x40 }
  - { offset: 0xDCDE5, size: 0x8, addend: 0x0, symName: __RNCNvXsc_NtCs6IAuOt8vWmF_3syn10punctuatedINtB7_5PairsNtNtB9_3pat3PatNtNtB9_5token5CommaENtNtNtNtCsfvfooZQ3Axs_4core4iter6traits8iterator8Iterator4next0B9_, symObjAddr: 0xF380, symBinAddr: 0x50220, symSize: 0x40 }
  - { offset: 0xDCE5A, size: 0x8, addend: 0x0, symName: __RNCNvXsc_NtCs6IAuOt8vWmF_3syn10punctuatedINtB7_5PairsNtNtB9_3pat8FieldPatNtNtB9_5token5CommaENtNtNtNtCsfvfooZQ3Axs_4core4iter6traits8iterator8Iterator4next0B9_, symObjAddr: 0xF3C0, symBinAddr: 0x50260, symSize: 0x40 }
  - { offset: 0xDCECF, size: 0x8, addend: 0x0, symName: __RNCNvXsc_NtCs6IAuOt8vWmF_3syn10punctuatedINtB7_5PairsNtNtB9_4data5FieldNtNtB9_5token5CommaENtNtNtNtCsfvfooZQ3Axs_4core4iter6traits8iterator8Iterator4next0B9_, symObjAddr: 0xF400, symBinAddr: 0x502A0, symSize: 0x40 }
  - { offset: 0xDCF44, size: 0x8, addend: 0x0, symName: __RNCNvXsc_NtCs6IAuOt8vWmF_3syn10punctuatedINtB7_5PairsNtNtB9_4data7VariantNtNtB9_5token5CommaENtNtNtNtCsfvfooZQ3Axs_4core4iter6traits8iterator8Iterator4next0B9_, symObjAddr: 0xF440, symBinAddr: 0x502E0, symSize: 0x40 }
  - { offset: 0xDCFB9, size: 0x8, addend: 0x0, symName: __RNCNvXsc_NtCs6IAuOt8vWmF_3syn10punctuatedINtB7_5PairsNtNtB9_4expr10FieldValueNtNtB9_5token5CommaENtNtNtNtCsfvfooZQ3Axs_4core4iter6traits8iterator8Iterator4next0B9_, symObjAddr: 0xF480, symBinAddr: 0x50320, symSize: 0x40 }
  - { offset: 0xDD02E, size: 0x8, addend: 0x0, symName: __RNCNvXsc_NtCs6IAuOt8vWmF_3syn10punctuatedINtB7_5PairsNtNtB9_4expr4ExprNtNtB9_5token5CommaENtNtNtNtCsfvfooZQ3Axs_4core4iter6traits8iterator8Iterator4next0B9_, symObjAddr: 0xF4C0, symBinAddr: 0x50360, symSize: 0x40 }
  - { offset: 0xDD0A3, size: 0x8, addend: 0x0, symName: __RNCNvXsc_NtCs6IAuOt8vWmF_3syn10punctuatedINtB7_5PairsNtNtB9_4item5FnArgNtNtB9_5token5CommaENtNtNtNtCsfvfooZQ3Axs_4core4iter6traits8iterator8Iterator4next0B9_, symObjAddr: 0xF500, symBinAddr: 0x503A0, symSize: 0x40 }
  - { offset: 0xDD118, size: 0x8, addend: 0x0, symName: __RNCNvXsc_NtCs6IAuOt8vWmF_3syn10punctuatedINtB7_5PairsNtNtB9_4item7UseTreeNtNtB9_5token5CommaENtNtNtNtCsfvfooZQ3Axs_4core4iter6traits8iterator8Iterator4next0B9_, symObjAddr: 0xF540, symBinAddr: 0x503E0, symSize: 0x40 }
  - { offset: 0xDD18D, size: 0x8, addend: 0x0, symName: __RNCNvXsc_NtCs6IAuOt8vWmF_3syn10punctuatedINtB7_5PairsNtNtB9_4path11PathSegmentNtNtB9_5token7PathSepENtNtNtNtCsfvfooZQ3Axs_4core4iter6traits8iterator8Iterator4next0B9_, symObjAddr: 0xF580, symBinAddr: 0x50420, symSize: 0x40 }
  - { offset: 0xDD202, size: 0x8, addend: 0x0, symName: __RNCNvXsc_NtCs6IAuOt8vWmF_3syn10punctuatedINtB7_5PairsNtNtB9_4path15GenericArgumentNtNtB9_5token5CommaENtNtNtNtCsfvfooZQ3Axs_4core4iter6traits8iterator8Iterator4next0B9_, symObjAddr: 0xF5C0, symBinAddr: 0x50460, symSize: 0x40 }
  - { offset: 0xDD277, size: 0x8, addend: 0x0, symName: __RNCNvXsc_NtCs6IAuOt8vWmF_3syn10punctuatedINtB7_5PairsNtNtB9_8generics12GenericParamNtNtB9_5token5CommaENtNtNtNtCsfvfooZQ3Axs_4core4iter6traits8iterator8Iterator4next0B9_, symObjAddr: 0xF600, symBinAddr: 0x504A0, symSize: 0x40 }
  - { offset: 0xDD2EC, size: 0x8, addend: 0x0, symName: __RNCNvXsc_NtCs6IAuOt8vWmF_3syn10punctuatedINtB7_5PairsNtNtB9_8generics13CapturedParamNtNtB9_5token5CommaENtNtNtNtCsfvfooZQ3Axs_4core4iter6traits8iterator8Iterator4next0B9_, symObjAddr: 0xF640, symBinAddr: 0x504E0, symSize: 0x40 }
  - { offset: 0xDD361, size: 0x8, addend: 0x0, symName: __RNCNvXsc_NtCs6IAuOt8vWmF_3syn10punctuatedINtB7_5PairsNtNtB9_8generics14TypeParamBoundNtNtB9_5token4PlusENtNtNtNtCsfvfooZQ3Axs_4core4iter6traits8iterator8Iterator4next0B9_, symObjAddr: 0xF680, symBinAddr: 0x50520, symSize: 0x40 }
  - { offset: 0xDD3D6, size: 0x8, addend: 0x0, symName: __RNCNvXsc_NtCs6IAuOt8vWmF_3syn10punctuatedINtB7_5PairsNtNtB9_8generics14WherePredicateNtNtB9_5token5CommaENtNtNtNtCsfvfooZQ3Axs_4core4iter6traits8iterator8Iterator4next0B9_, symObjAddr: 0xF6C0, symBinAddr: 0x50560, symSize: 0x40 }
  - { offset: 0xDD44B, size: 0x8, addend: 0x0, symName: __RNCNvXsc_NtCs6IAuOt8vWmF_3syn10punctuatedINtB7_5PairsNtNtB9_8lifetime8LifetimeNtNtB9_5token4PlusENtNtNtNtCsfvfooZQ3Axs_4core4iter6traits8iterator8Iterator4next0B9_, symObjAddr: 0xF700, symBinAddr: 0x505A0, symSize: 0x40 }
  - { offset: 0xDD4C0, size: 0x8, addend: 0x0, symName: __RNCNvXsc_NtCs6IAuOt8vWmF_3syn10punctuatedINtB7_5PairsNtNtB9_2ty4TypeNtNtB9_5token5CommaENtNtNtNtCsfvfooZQ3Axs_4core4iter6traits8iterator8Iterator4nexts_0B9_, symObjAddr: 0xF740, symBinAddr: 0x505E0, symSize: 0x40 }
  - { offset: 0xDD502, size: 0x8, addend: 0x0, symName: __RNCNvXsc_NtCs6IAuOt8vWmF_3syn10punctuatedINtB7_5PairsNtNtB9_2ty9BareFnArgNtNtB9_5token5CommaENtNtNtNtCsfvfooZQ3Axs_4core4iter6traits8iterator8Iterator4nexts_0B9_, symObjAddr: 0xF780, symBinAddr: 0x50620, symSize: 0x40 }
  - { offset: 0xDD544, size: 0x8, addend: 0x0, symName: __RNCNvXsc_NtCs6IAuOt8vWmF_3syn10punctuatedINtB7_5PairsNtNtB9_3pat3PatNtNtB9_5token2OrENtNtNtNtCsfvfooZQ3Axs_4core4iter6traits8iterator8Iterator4nexts_0B9_, symObjAddr: 0xF7C0, symBinAddr: 0x50660, symSize: 0x40 }
  - { offset: 0xDD586, size: 0x8, addend: 0x0, symName: __RNCNvXsc_NtCs6IAuOt8vWmF_3syn10punctuatedINtB7_5PairsNtNtB9_3pat3PatNtNtB9_5token5CommaENtNtNtNtCsfvfooZQ3Axs_4core4iter6traits8iterator8Iterator4nexts_0B9_, symObjAddr: 0xF800, symBinAddr: 0x506A0, symSize: 0x40 }
  - { offset: 0xDD5C8, size: 0x8, addend: 0x0, symName: __RNCNvXsc_NtCs6IAuOt8vWmF_3syn10punctuatedINtB7_5PairsNtNtB9_3pat8FieldPatNtNtB9_5token5CommaENtNtNtNtCsfvfooZQ3Axs_4core4iter6traits8iterator8Iterator4nexts_0B9_, symObjAddr: 0xF840, symBinAddr: 0x506E0, symSize: 0x40 }
  - { offset: 0xDD60A, size: 0x8, addend: 0x0, symName: __RNCNvXsc_NtCs6IAuOt8vWmF_3syn10punctuatedINtB7_5PairsNtNtB9_4data5FieldNtNtB9_5token5CommaENtNtNtNtCsfvfooZQ3Axs_4core4iter6traits8iterator8Iterator4nexts_0B9_, symObjAddr: 0xF880, symBinAddr: 0x50720, symSize: 0x40 }
  - { offset: 0xDD64C, size: 0x8, addend: 0x0, symName: __RNCNvXsc_NtCs6IAuOt8vWmF_3syn10punctuatedINtB7_5PairsNtNtB9_4data7VariantNtNtB9_5token5CommaENtNtNtNtCsfvfooZQ3Axs_4core4iter6traits8iterator8Iterator4nexts_0B9_, symObjAddr: 0xF8C0, symBinAddr: 0x50760, symSize: 0x40 }
  - { offset: 0xDD68E, size: 0x8, addend: 0x0, symName: __RNCNvXsc_NtCs6IAuOt8vWmF_3syn10punctuatedINtB7_5PairsNtNtB9_4expr10FieldValueNtNtB9_5token5CommaENtNtNtNtCsfvfooZQ3Axs_4core4iter6traits8iterator8Iterator4nexts_0B9_, symObjAddr: 0xF900, symBinAddr: 0x507A0, symSize: 0x40 }
  - { offset: 0xDD6D0, size: 0x8, addend: 0x0, symName: __RNCNvXsc_NtCs6IAuOt8vWmF_3syn10punctuatedINtB7_5PairsNtNtB9_4expr4ExprNtNtB9_5token5CommaENtNtNtNtCsfvfooZQ3Axs_4core4iter6traits8iterator8Iterator4nexts_0B9_, symObjAddr: 0xF940, symBinAddr: 0x507E0, symSize: 0x40 }
  - { offset: 0xDD712, size: 0x8, addend: 0x0, symName: __RNCNvXsc_NtCs6IAuOt8vWmF_3syn10punctuatedINtB7_5PairsNtNtB9_4item5FnArgNtNtB9_5token5CommaENtNtNtNtCsfvfooZQ3Axs_4core4iter6traits8iterator8Iterator4nexts_0B9_, symObjAddr: 0xF980, symBinAddr: 0x50820, symSize: 0x40 }
  - { offset: 0xDD754, size: 0x8, addend: 0x0, symName: __RNCNvXsc_NtCs6IAuOt8vWmF_3syn10punctuatedINtB7_5PairsNtNtB9_4item7UseTreeNtNtB9_5token5CommaENtNtNtNtCsfvfooZQ3Axs_4core4iter6traits8iterator8Iterator4nexts_0B9_, symObjAddr: 0xF9C0, symBinAddr: 0x50860, symSize: 0x40 }
  - { offset: 0xDD796, size: 0x8, addend: 0x0, symName: __RNCNvXsc_NtCs6IAuOt8vWmF_3syn10punctuatedINtB7_5PairsNtNtB9_4path11PathSegmentNtNtB9_5token7PathSepENtNtNtNtCsfvfooZQ3Axs_4core4iter6traits8iterator8Iterator4nexts_0B9_, symObjAddr: 0xFA00, symBinAddr: 0x508A0, symSize: 0x40 }
  - { offset: 0xDD7D8, size: 0x8, addend: 0x0, symName: __RNCNvXsc_NtCs6IAuOt8vWmF_3syn10punctuatedINtB7_5PairsNtNtB9_4path15GenericArgumentNtNtB9_5token5CommaENtNtNtNtCsfvfooZQ3Axs_4core4iter6traits8iterator8Iterator4nexts_0B9_, symObjAddr: 0xFA40, symBinAddr: 0x508E0, symSize: 0x40 }
  - { offset: 0xDD81A, size: 0x8, addend: 0x0, symName: __RNCNvXsc_NtCs6IAuOt8vWmF_3syn10punctuatedINtB7_5PairsNtNtB9_8generics12GenericParamNtNtB9_5token5CommaENtNtNtNtCsfvfooZQ3Axs_4core4iter6traits8iterator8Iterator4nexts_0B9_, symObjAddr: 0xFA80, symBinAddr: 0x50920, symSize: 0x40 }
  - { offset: 0xDD85C, size: 0x8, addend: 0x0, symName: __RNCNvXsc_NtCs6IAuOt8vWmF_3syn10punctuatedINtB7_5PairsNtNtB9_8generics13CapturedParamNtNtB9_5token5CommaENtNtNtNtCsfvfooZQ3Axs_4core4iter6traits8iterator8Iterator4nexts_0B9_, symObjAddr: 0xFAC0, symBinAddr: 0x50960, symSize: 0x40 }
  - { offset: 0xDD89E, size: 0x8, addend: 0x0, symName: __RNCNvXsc_NtCs6IAuOt8vWmF_3syn10punctuatedINtB7_5PairsNtNtB9_8generics14TypeParamBoundNtNtB9_5token4PlusENtNtNtNtCsfvfooZQ3Axs_4core4iter6traits8iterator8Iterator4nexts_0B9_, symObjAddr: 0xFB00, symBinAddr: 0x509A0, symSize: 0x40 }
  - { offset: 0xDD8E0, size: 0x8, addend: 0x0, symName: __RNCNvXsc_NtCs6IAuOt8vWmF_3syn10punctuatedINtB7_5PairsNtNtB9_8generics14WherePredicateNtNtB9_5token5CommaENtNtNtNtCsfvfooZQ3Axs_4core4iter6traits8iterator8Iterator4nexts_0B9_, symObjAddr: 0xFB40, symBinAddr: 0x509E0, symSize: 0x40 }
  - { offset: 0xDD922, size: 0x8, addend: 0x0, symName: __RNCNvXsc_NtCs6IAuOt8vWmF_3syn10punctuatedINtB7_5PairsNtNtB9_8lifetime8LifetimeNtNtB9_5token4PlusENtNtNtNtCsfvfooZQ3Axs_4core4iter6traits8iterator8Iterator4nexts_0B9_, symObjAddr: 0xFB80, symBinAddr: 0x50A20, symSize: 0x40 }
  - { offset: 0xDD9E9, size: 0x8, addend: 0x0, symName: __RNvXsj_NtCs6IAuOt8vWmF_3syn10punctuatedINtB5_9IntoPairsNtNtB7_4path11PathSegmentNtNtB7_5token7PathSepENtNtNtNtCsfvfooZQ3Axs_4core4iter6traits8iterator8Iterator4nextB7_, symObjAddr: 0xFBC0, symBinAddr: 0x50A60, symSize: 0x6C }
  - { offset: 0xDDA2E, size: 0x8, addend: 0x0, symName: __RNCNvXsj_NtCs6IAuOt8vWmF_3syn10punctuatedINtB7_9IntoPairsNtNtB9_4path11PathSegmentNtNtB9_5token7PathSepENtNtNtNtCsfvfooZQ3Axs_4core4iter6traits8iterator8Iterator4next0B9_, symObjAddr: 0xFC2C, symBinAddr: 0x50ACC, symSize: 0x74 }
  - { offset: 0xDDA9C, size: 0x8, addend: 0x0, symName: __RNCNvXsj_NtCs6IAuOt8vWmF_3syn10punctuatedINtB7_9IntoPairsNtNtB9_4path11PathSegmentNtNtB9_5token7PathSepENtNtNtNtCsfvfooZQ3Axs_4core4iter6traits8iterator8Iterator4nexts_0B9_, symObjAddr: 0xFCA0, symBinAddr: 0x50B40, symSize: 0x4C }
  - { offset: 0xDDAEC, size: 0x8, addend: 0x0, symName: __RNvXsn_NtCs6IAuOt8vWmF_3syn10punctuatedINtB5_8IntoIterNtNtB7_8generics14TypeParamBoundENtNtNtNtCsfvfooZQ3Axs_4core4iter6traits8iterator8Iterator4nextB7_, symObjAddr: 0xFCEC, symBinAddr: 0x50B8C, symSize: 0x34 }
  - { offset: 0xDDB29, size: 0x8, addend: 0x0, symName: __RNvXst_NtCs6IAuOt8vWmF_3syn10punctuatedINtB5_4IterNtNtB7_4data5FieldENtNtNtNtCsfvfooZQ3Axs_4core4iter6traits8iterator8Iterator4nextB7_, symObjAddr: 0xFDD0, symBinAddr: 0x50BC0, symSize: 0x48 }
  - { offset: 0xDDB60, size: 0x8, addend: 0x0, symName: __RNvXst_NtCs6IAuOt8vWmF_3syn10punctuatedINtB5_4IterNtNtB7_4path11PathSegmentENtNtNtNtCsfvfooZQ3Axs_4core4iter6traits8iterator8Iterator4nextB7_, symObjAddr: 0xFE60, symBinAddr: 0x50C08, symSize: 0x48 }
  - { offset: 0xDDB97, size: 0x8, addend: 0x0, symName: __RNvXst_NtCs6IAuOt8vWmF_3syn10punctuatedINtB5_4IterNtNtB7_8generics12GenericParamENtNtNtNtCsfvfooZQ3Axs_4core4iter6traits8iterator8Iterator4nextB7_, symObjAddr: 0xFEA8, symBinAddr: 0x50C50, symSize: 0x48 }
  - { offset: 0xDDBCE, size: 0x8, addend: 0x0, symName: __RNvXst_NtCs6IAuOt8vWmF_3syn10punctuatedINtB5_4IterNtNtB7_8generics14TypeParamBoundENtNtNtNtCsfvfooZQ3Axs_4core4iter6traits8iterator8Iterator4nextB7_, symObjAddr: 0xFEF0, symBinAddr: 0x50C98, symSize: 0x48 }
  - { offset: 0xDDC0B, size: 0x8, addend: 0x0, symName: __RNvXsu_NtCs6IAuOt8vWmF_3syn10punctuatedINtB5_4IterNtNtB7_4path11PathSegmentENtNtNtNtCsfvfooZQ3Axs_4core4iter6traits12double_ended19DoubleEndedIterator9next_backB7_, symObjAddr: 0xFF38, symBinAddr: 0x50CE0, symSize: 0x48 }
  - { offset: 0xDDC42, size: 0x8, addend: 0x0, symName: __RNvXsu_NtCs6IAuOt8vWmF_3syn10punctuatedINtB5_4IterNtNtB7_8generics14TypeParamBoundENtNtNtNtCsfvfooZQ3Axs_4core4iter6traits12double_ended19DoubleEndedIterator9next_backB7_, symObjAddr: 0xFF80, symBinAddr: 0x50D28, symSize: 0x48 }
  - { offset: 0xDDC7F, size: 0x8, addend: 0x0, symName: __RNvXsw_NtCs6IAuOt8vWmF_3syn10punctuatedINtB5_11PrivateIterNtNtB7_4data5FieldNtNtB7_5token5CommaENtNtNtNtCsfvfooZQ3Axs_4core4iter6traits8iterator8Iterator4nextB7_, symObjAddr: 0xFFC8, symBinAddr: 0x50D70, symSize: 0x44 }
  - { offset: 0xDDCBF, size: 0x8, addend: 0x0, symName: __RNvXsw_NtCs6IAuOt8vWmF_3syn10punctuatedINtB5_11PrivateIterNtNtB7_4path11PathSegmentNtNtB7_5token7PathSepENtNtNtNtCsfvfooZQ3Axs_4core4iter6traits8iterator8Iterator4nextB7_, symObjAddr: 0x10050, symBinAddr: 0x50DB4, symSize: 0x44 }
  - { offset: 0xDDCFF, size: 0x8, addend: 0x0, symName: __RNvXsw_NtCs6IAuOt8vWmF_3syn10punctuatedINtB5_11PrivateIterNtNtB7_8generics12GenericParamNtNtB7_5token5CommaENtNtNtNtCsfvfooZQ3Axs_4core4iter6traits8iterator8Iterator4nextB7_, symObjAddr: 0x10094, symBinAddr: 0x50DF8, symSize: 0x44 }
  - { offset: 0xDDD3F, size: 0x8, addend: 0x0, symName: __RNvXsw_NtCs6IAuOt8vWmF_3syn10punctuatedINtB5_11PrivateIterNtNtB7_8generics14TypeParamBoundNtNtB7_5token4PlusENtNtNtNtCsfvfooZQ3Axs_4core4iter6traits8iterator8Iterator4nextB7_, symObjAddr: 0x100D8, symBinAddr: 0x50E3C, symSize: 0x44 }
  - { offset: 0xDDD84, size: 0x8, addend: 0x0, symName: __RNCNvXsw_NtCs6IAuOt8vWmF_3syn10punctuatedINtB7_11PrivateIterNtNtB9_4data5FieldNtNtB9_5token5CommaENtNtNtNtCsfvfooZQ3Axs_4core4iter6traits8iterator8Iterator4next0B9_, symObjAddr: 0x1011C, symBinAddr: 0x50E80, symSize: 0x24 }
  - { offset: 0xDDDCF, size: 0x8, addend: 0x0, symName: __RNCNvXsw_NtCs6IAuOt8vWmF_3syn10punctuatedINtB7_11PrivateIterNtNtB9_4path11PathSegmentNtNtB9_5token7PathSepENtNtNtNtCsfvfooZQ3Axs_4core4iter6traits8iterator8Iterator4next0B9_, symObjAddr: 0x10164, symBinAddr: 0x50EA4, symSize: 0x24 }
  - { offset: 0xDDE1A, size: 0x8, addend: 0x0, symName: __RNCNvXsw_NtCs6IAuOt8vWmF_3syn10punctuatedINtB7_11PrivateIterNtNtB9_8generics12GenericParamNtNtB9_5token5CommaENtNtNtNtCsfvfooZQ3Axs_4core4iter6traits8iterator8Iterator4next0B9_, symObjAddr: 0x10188, symBinAddr: 0x50EC8, symSize: 0x24 }
  - { offset: 0xDDE65, size: 0x8, addend: 0x0, symName: __RNCNvXsw_NtCs6IAuOt8vWmF_3syn10punctuatedINtB7_11PrivateIterNtNtB9_8generics14TypeParamBoundNtNtB9_5token4PlusENtNtNtNtCsfvfooZQ3Axs_4core4iter6traits8iterator8Iterator4next0B9_, symObjAddr: 0x101AC, symBinAddr: 0x50EEC, symSize: 0x24 }
  - { offset: 0xDDEB0, size: 0x8, addend: 0x0, symName: __RNCNvXsw_NtCs6IAuOt8vWmF_3syn10punctuatedINtB7_11PrivateIterNtNtB9_4data5FieldNtNtB9_5token5CommaENtNtNtNtCsfvfooZQ3Axs_4core4iter6traits8iterator8Iterator4nexts_0B9_, symObjAddr: 0x101D0, symBinAddr: 0x50F10, symSize: 0x34 }
  - { offset: 0xDDEF2, size: 0x8, addend: 0x0, symName: __RNCNvXsw_NtCs6IAuOt8vWmF_3syn10punctuatedINtB7_11PrivateIterNtNtB9_4path11PathSegmentNtNtB9_5token7PathSepENtNtNtNtCsfvfooZQ3Axs_4core4iter6traits8iterator8Iterator4nexts_0B9_, symObjAddr: 0x10238, symBinAddr: 0x50F44, symSize: 0x34 }
  - { offset: 0xDDF34, size: 0x8, addend: 0x0, symName: __RNCNvXsw_NtCs6IAuOt8vWmF_3syn10punctuatedINtB7_11PrivateIterNtNtB9_8generics12GenericParamNtNtB9_5token5CommaENtNtNtNtCsfvfooZQ3Axs_4core4iter6traits8iterator8Iterator4nexts_0B9_, symObjAddr: 0x1026C, symBinAddr: 0x50F78, symSize: 0x34 }
  - { offset: 0xDDF76, size: 0x8, addend: 0x0, symName: __RNCNvXsw_NtCs6IAuOt8vWmF_3syn10punctuatedINtB7_11PrivateIterNtNtB9_8generics14TypeParamBoundNtNtB9_5token4PlusENtNtNtNtCsfvfooZQ3Axs_4core4iter6traits8iterator8Iterator4nexts_0B9_, symObjAddr: 0x102A0, symBinAddr: 0x50FAC, symSize: 0x34 }
  - { offset: 0xDDFDB, size: 0x8, addend: 0x0, symName: __RNvXsx_NtCs6IAuOt8vWmF_3syn10punctuatedINtB5_11PrivateIterNtNtB7_4data5FieldNtNtB7_5token5CommaENtNtNtNtCsfvfooZQ3Axs_4core4iter6traits12double_ended19DoubleEndedIterator9next_backB7_, symObjAddr: 0x102D4, symBinAddr: 0x50FE0, symSize: 0x40 }
  - { offset: 0xDE01B, size: 0x8, addend: 0x0, symName: __RNvXsx_NtCs6IAuOt8vWmF_3syn10punctuatedINtB5_11PrivateIterNtNtB7_4path11PathSegmentNtNtB7_5token7PathSepENtNtNtNtCsfvfooZQ3Axs_4core4iter6traits12double_ended19DoubleEndedIterator9next_backB7_, symObjAddr: 0x10354, symBinAddr: 0x51020, symSize: 0x40 }
  - { offset: 0xDE05B, size: 0x8, addend: 0x0, symName: __RNvXsx_NtCs6IAuOt8vWmF_3syn10punctuatedINtB5_11PrivateIterNtNtB7_8generics12GenericParamNtNtB7_5token5CommaENtNtNtNtCsfvfooZQ3Axs_4core4iter6traits12double_ended19DoubleEndedIterator9next_backB7_, symObjAddr: 0x10394, symBinAddr: 0x51060, symSize: 0x40 }
  - { offset: 0xDE09B, size: 0x8, addend: 0x0, symName: __RNvXsx_NtCs6IAuOt8vWmF_3syn10punctuatedINtB5_11PrivateIterNtNtB7_8generics14TypeParamBoundNtNtB7_5token4PlusENtNtNtNtCsfvfooZQ3Axs_4core4iter6traits12double_ended19DoubleEndedIterator9next_backB7_, symObjAddr: 0x103D4, symBinAddr: 0x510A0, symSize: 0x40 }
  - { offset: 0xDE0E0, size: 0x8, addend: 0x0, symName: __RNCNvXsx_NtCs6IAuOt8vWmF_3syn10punctuatedINtB7_11PrivateIterNtNtB9_4data5FieldNtNtB9_5token5CommaENtNtNtNtCsfvfooZQ3Axs_4core4iter6traits12double_ended19DoubleEndedIterator9next_back0B9_, symObjAddr: 0x10414, symBinAddr: 0x510E0, symSize: 0x38 }
  - { offset: 0xDE122, size: 0x8, addend: 0x0, symName: __RNCNvXsx_NtCs6IAuOt8vWmF_3syn10punctuatedINtB7_11PrivateIterNtNtB9_4path11PathSegmentNtNtB9_5token7PathSepENtNtNtNtCsfvfooZQ3Axs_4core4iter6traits12double_ended19DoubleEndedIterator9next_back0B9_, symObjAddr: 0x10484, symBinAddr: 0x51118, symSize: 0x38 }
  - { offset: 0xDE164, size: 0x8, addend: 0x0, symName: __RNCNvXsx_NtCs6IAuOt8vWmF_3syn10punctuatedINtB7_11PrivateIterNtNtB9_8generics12GenericParamNtNtB9_5token5CommaENtNtNtNtCsfvfooZQ3Axs_4core4iter6traits12double_ended19DoubleEndedIterator9next_back0B9_, symObjAddr: 0x104BC, symBinAddr: 0x51150, symSize: 0x38 }
  - { offset: 0xDE1A6, size: 0x8, addend: 0x0, symName: __RNCNvXsx_NtCs6IAuOt8vWmF_3syn10punctuatedINtB7_11PrivateIterNtNtB9_8generics14TypeParamBoundNtNtB9_5token4PlusENtNtNtNtCsfvfooZQ3Axs_4core4iter6traits12double_ended19DoubleEndedIterator9next_back0B9_, symObjAddr: 0x104F4, symBinAddr: 0x51188, symSize: 0x38 }
  - { offset: 0xDE1ED, size: 0x8, addend: 0x0, symName: __RNCNCNvXsx_NtCs6IAuOt8vWmF_3syn10punctuatedINtB9_11PrivateIterNtNtBb_4data5FieldNtNtBb_5token5CommaENtNtNtNtCsfvfooZQ3Axs_4core4iter6traits12double_ended19DoubleEndedIterator9next_back00Bb_, symObjAddr: 0x1052C, symBinAddr: 0x511C0, symSize: 0x24 }
  - { offset: 0xDE238, size: 0x8, addend: 0x0, symName: __RNCNCNvXsx_NtCs6IAuOt8vWmF_3syn10punctuatedINtB9_11PrivateIterNtNtBb_4path11PathSegmentNtNtBb_5token7PathSepENtNtNtNtCsfvfooZQ3Axs_4core4iter6traits12double_ended19DoubleEndedIterator9next_back00Bb_, symObjAddr: 0x10574, symBinAddr: 0x511E4, symSize: 0x24 }
  - { offset: 0xDE283, size: 0x8, addend: 0x0, symName: __RNCNCNvXsx_NtCs6IAuOt8vWmF_3syn10punctuatedINtB9_11PrivateIterNtNtBb_8generics12GenericParamNtNtBb_5token5CommaENtNtNtNtCsfvfooZQ3Axs_4core4iter6traits12double_ended19DoubleEndedIterator9next_back00Bb_, symObjAddr: 0x10598, symBinAddr: 0x51208, symSize: 0x24 }
  - { offset: 0xDE2CE, size: 0x8, addend: 0x0, symName: __RNCNCNvXsx_NtCs6IAuOt8vWmF_3syn10punctuatedINtB9_11PrivateIterNtNtBb_8generics14TypeParamBoundNtNtBb_5token4PlusENtNtNtNtCsfvfooZQ3Axs_4core4iter6traits12double_ended19DoubleEndedIterator9next_back00Bb_, symObjAddr: 0x105BC, symBinAddr: 0x5122C, symSize: 0x24 }
  - { offset: 0xDE33D, size: 0x8, addend: 0x0, symName: __RNvXsy_NtCs6IAuOt8vWmF_3syn10punctuatedINtB5_11PrivateIterNtNtB7_4data5FieldNtNtB7_5token5CommaENtNtNtNtCsfvfooZQ3Axs_4core4iter6traits10exact_size17ExactSizeIterator3lenB7_, symObjAddr: 0x105E0, symBinAddr: 0x51250, symSize: 0x94 }
  - { offset: 0xDE3B1, size: 0x8, addend: 0x0, symName: __RNvXsy_NtCs6IAuOt8vWmF_3syn10punctuatedINtB5_11PrivateIterNtNtB7_4path11PathSegmentNtNtB7_5token7PathSepENtNtNtNtCsfvfooZQ3Axs_4core4iter6traits10exact_size17ExactSizeIterator3lenB7_, symObjAddr: 0x10708, symBinAddr: 0x512E4, symSize: 0x94 }
  - { offset: 0xDE425, size: 0x8, addend: 0x0, symName: __RNvXsy_NtCs6IAuOt8vWmF_3syn10punctuatedINtB5_11PrivateIterNtNtB7_8generics12GenericParamNtNtB7_5token5CommaENtNtNtNtCsfvfooZQ3Axs_4core4iter6traits10exact_size17ExactSizeIterator3lenB7_, symObjAddr: 0x1079C, symBinAddr: 0x51378, symSize: 0x94 }
  - { offset: 0xDE499, size: 0x8, addend: 0x0, symName: __RNvXsy_NtCs6IAuOt8vWmF_3syn10punctuatedINtB5_11PrivateIterNtNtB7_8generics14TypeParamBoundNtNtB7_5token4PlusENtNtNtNtCsfvfooZQ3Axs_4core4iter6traits10exact_size17ExactSizeIterator3lenB7_, symObjAddr: 0x10830, symBinAddr: 0x5140C, symSize: 0x94 }
  - { offset: 0xDE513, size: 0x8, addend: 0x0, symName: __RNvXsz_NtCs6IAuOt8vWmF_3syn10punctuatedINtB5_11PrivateIterNtNtB7_4data5FieldNtNtB7_5token5CommaENtNtCsfvfooZQ3Axs_4core5clone5Clone5cloneB7_, symObjAddr: 0x108C4, symBinAddr: 0x514A0, symSize: 0x68 }
  - { offset: 0xDE553, size: 0x8, addend: 0x0, symName: __RNvXsz_NtCs6IAuOt8vWmF_3syn10punctuatedINtB5_11PrivateIterNtNtB7_4path11PathSegmentNtNtB7_5token7PathSepENtNtCsfvfooZQ3Axs_4core5clone5Clone5cloneB7_, symObjAddr: 0x10994, symBinAddr: 0x51508, symSize: 0x68 }
  - { offset: 0xDE593, size: 0x8, addend: 0x0, symName: __RNvXsz_NtCs6IAuOt8vWmF_3syn10punctuatedINtB5_11PrivateIterNtNtB7_8generics12GenericParamNtNtB7_5token5CommaENtNtCsfvfooZQ3Axs_4core5clone5Clone5cloneB7_, symObjAddr: 0x109FC, symBinAddr: 0x51570, symSize: 0x68 }
  - { offset: 0xDE5D3, size: 0x8, addend: 0x0, symName: __RNvXsz_NtCs6IAuOt8vWmF_3syn10punctuatedINtB5_11PrivateIterNtNtB7_8generics14TypeParamBoundNtNtB7_5token4PlusENtNtCsfvfooZQ3Axs_4core5clone5Clone5cloneB7_, symObjAddr: 0x10A64, symBinAddr: 0x515D8, symSize: 0x68 }
  - { offset: 0xDE619, size: 0x8, addend: 0x0, symName: __RNvXsA_NtCs6IAuOt8vWmF_3syn10punctuatedINtB5_11PrivateIterNtNtB7_4data5FieldNtNtB7_5token5CommaEINtB5_9IterTraitBU_E9clone_boxB7_, symObjAddr: 0x10ACC, symBinAddr: 0x51640, symSize: 0x94 }
  - { offset: 0xDE677, size: 0x8, addend: 0x0, symName: __RNvXsA_NtCs6IAuOt8vWmF_3syn10punctuatedINtB5_11PrivateIterNtNtB7_4path11PathSegmentNtNtB7_5token7PathSepEINtB5_9IterTraitBU_E9clone_boxB7_, symObjAddr: 0x10BF4, symBinAddr: 0x516D4, symSize: 0x94 }
  - { offset: 0xDE6D5, size: 0x8, addend: 0x0, symName: __RNvXsA_NtCs6IAuOt8vWmF_3syn10punctuatedINtB5_11PrivateIterNtNtB7_8generics12GenericParamNtNtB7_5token5CommaEINtB5_9IterTraitBU_E9clone_boxB7_, symObjAddr: 0x10C88, symBinAddr: 0x51768, symSize: 0x94 }
  - { offset: 0xDE733, size: 0x8, addend: 0x0, symName: __RNvXsA_NtCs6IAuOt8vWmF_3syn10punctuatedINtB5_11PrivateIterNtNtB7_8generics14TypeParamBoundNtNtB7_5token4PlusEINtB5_9IterTraitBU_E9clone_boxB7_, symObjAddr: 0x10D1C, symBinAddr: 0x517FC, symSize: 0x94 }
  - { offset: 0xDE797, size: 0x8, addend: 0x0, symName: __RNvXsD_NtCs6IAuOt8vWmF_3syn10punctuatedINtB5_7IterMutNtNtB7_4path11PathSegmentENtNtNtNtCsfvfooZQ3Axs_4core4iter6traits12double_ended19DoubleEndedIterator9next_backB7_, symObjAddr: 0x10E60, symBinAddr: 0x51890, symSize: 0x48 }
  - { offset: 0xDE7D4, size: 0x8, addend: 0x0, symName: __RNvXsF_NtCs6IAuOt8vWmF_3syn10punctuatedINtB5_14PrivateIterMutNtNtB7_4path11PathSegmentNtNtB7_5token7PathSepENtNtNtNtCsfvfooZQ3Axs_4core4iter6traits8iterator8Iterator4nextB7_, symObjAddr: 0x10EEC, symBinAddr: 0x518D8, symSize: 0x44 }
  - { offset: 0xDE819, size: 0x8, addend: 0x0, symName: __RNCNvXsF_NtCs6IAuOt8vWmF_3syn10punctuatedINtB7_14PrivateIterMutNtNtB9_4path11PathSegmentNtNtB9_5token7PathSepENtNtNtNtCsfvfooZQ3Axs_4core4iter6traits8iterator8Iterator4next0B9_, symObjAddr: 0x10F98, symBinAddr: 0x5191C, symSize: 0x24 }
  - { offset: 0xDE864, size: 0x8, addend: 0x0, symName: __RNCNvXsF_NtCs6IAuOt8vWmF_3syn10punctuatedINtB7_14PrivateIterMutNtNtB9_4path11PathSegmentNtNtB9_5token7PathSepENtNtNtNtCsfvfooZQ3Axs_4core4iter6traits8iterator8Iterator4nexts_0B9_, symObjAddr: 0x11014, symBinAddr: 0x51940, symSize: 0x34 }
  - { offset: 0xDE8B4, size: 0x8, addend: 0x0, symName: __RNvXsG_NtCs6IAuOt8vWmF_3syn10punctuatedINtB5_14PrivateIterMutNtNtB7_4path11PathSegmentNtNtB7_5token7PathSepENtNtNtNtCsfvfooZQ3Axs_4core4iter6traits12double_ended19DoubleEndedIterator9next_backB7_, symObjAddr: 0x110BC, symBinAddr: 0x51974, symSize: 0x40 }
  - { offset: 0xDE8F9, size: 0x8, addend: 0x0, symName: __RNCNvXsG_NtCs6IAuOt8vWmF_3syn10punctuatedINtB7_14PrivateIterMutNtNtB9_4path11PathSegmentNtNtB9_5token7PathSepENtNtNtNtCsfvfooZQ3Axs_4core4iter6traits12double_ended19DoubleEndedIterator9next_back0B9_, symObjAddr: 0x11174, symBinAddr: 0x519B4, symSize: 0x38 }
  - { offset: 0xDE940, size: 0x8, addend: 0x0, symName: __RNCNCNvXsG_NtCs6IAuOt8vWmF_3syn10punctuatedINtB9_14PrivateIterMutNtNtBb_4path11PathSegmentNtNtBb_5token7PathSepENtNtNtNtCsfvfooZQ3Axs_4core4iter6traits12double_ended19DoubleEndedIterator9next_back00Bb_, symObjAddr: 0x11208, symBinAddr: 0x519EC, symSize: 0x24 }
  - { offset: 0xDE99A, size: 0x8, addend: 0x0, symName: __RNvXsH_NtCs6IAuOt8vWmF_3syn10punctuatedINtB5_14PrivateIterMutNtNtB7_4path11PathSegmentNtNtB7_5token7PathSepENtNtNtNtCsfvfooZQ3Axs_4core4iter6traits10exact_size17ExactSizeIterator3lenB7_, symObjAddr: 0x112E4, symBinAddr: 0x51A10, symSize: 0x94 }
  - { offset: 0xDEA19, size: 0x8, addend: 0x0, symName: __RNcNtINtNtCs6IAuOt8vWmF_3syn10punctuated4PairNtNtB8_4path11PathSegmentNtNtB8_5token7PathSepE3End0B8_, symObjAddr: 0x1140C, symBinAddr: 0x51AA4, symSize: 0x40 }
  - { offset: 0xDEA56, size: 0x8, addend: 0x0, symName: __RNcNtINtNtCs6IAuOt8vWmF_3syn10punctuated4PairRNtNtB8_2ty4TypeRNtNtB8_5token5CommaE3End0B8_, symObjAddr: 0x1144C, symBinAddr: 0x51AE4, symSize: 0x1C }
  - { offset: 0xDEA92, size: 0x8, addend: 0x0, symName: __RNcNtINtNtCs6IAuOt8vWmF_3syn10punctuated4PairRNtNtB8_2ty9BareFnArgRNtNtB8_5token5CommaE3End0B8_, symObjAddr: 0x11468, symBinAddr: 0x51B00, symSize: 0x1C }
  - { offset: 0xDEACE, size: 0x8, addend: 0x0, symName: __RNcNtINtNtCs6IAuOt8vWmF_3syn10punctuated4PairRNtNtB8_3pat3PatRNtNtB8_5token2OrE3End0B8_, symObjAddr: 0x11484, symBinAddr: 0x51B1C, symSize: 0x1C }
  - { offset: 0xDEB0A, size: 0x8, addend: 0x0, symName: __RNcNtINtNtCs6IAuOt8vWmF_3syn10punctuated4PairRNtNtB8_3pat3PatRNtNtB8_5token5CommaE3End0B8_, symObjAddr: 0x114A0, symBinAddr: 0x51B38, symSize: 0x1C }
  - { offset: 0xDEB46, size: 0x8, addend: 0x0, symName: __RNcNtINtNtCs6IAuOt8vWmF_3syn10punctuated4PairRNtNtB8_3pat8FieldPatRNtNtB8_5token5CommaE3End0B8_, symObjAddr: 0x114BC, symBinAddr: 0x51B54, symSize: 0x1C }
  - { offset: 0xDEB82, size: 0x8, addend: 0x0, symName: __RNcNtINtNtCs6IAuOt8vWmF_3syn10punctuated4PairRNtNtB8_4data5FieldRNtNtB8_5token5CommaE3End0B8_, symObjAddr: 0x114D8, symBinAddr: 0x51B70, symSize: 0x1C }
  - { offset: 0xDEBBE, size: 0x8, addend: 0x0, symName: __RNcNtINtNtCs6IAuOt8vWmF_3syn10punctuated4PairRNtNtB8_4data7VariantRNtNtB8_5token5CommaE3End0B8_, symObjAddr: 0x114F4, symBinAddr: 0x51B8C, symSize: 0x1C }
  - { offset: 0xDEBFA, size: 0x8, addend: 0x0, symName: __RNcNtINtNtCs6IAuOt8vWmF_3syn10punctuated4PairRNtNtB8_4expr10FieldValueRNtNtB8_5token5CommaE3End0B8_, symObjAddr: 0x11510, symBinAddr: 0x51BA8, symSize: 0x1C }
  - { offset: 0xDEC36, size: 0x8, addend: 0x0, symName: __RNcNtINtNtCs6IAuOt8vWmF_3syn10punctuated4PairRNtNtB8_4expr4ExprRNtNtB8_5token5CommaE3End0B8_, symObjAddr: 0x1152C, symBinAddr: 0x51BC4, symSize: 0x1C }
  - { offset: 0xDEC72, size: 0x8, addend: 0x0, symName: __RNcNtINtNtCs6IAuOt8vWmF_3syn10punctuated4PairRNtNtB8_4item5FnArgRNtNtB8_5token5CommaE3End0B8_, symObjAddr: 0x11548, symBinAddr: 0x51BE0, symSize: 0x1C }
  - { offset: 0xDECAE, size: 0x8, addend: 0x0, symName: __RNcNtINtNtCs6IAuOt8vWmF_3syn10punctuated4PairRNtNtB8_4item7UseTreeRNtNtB8_5token5CommaE3End0B8_, symObjAddr: 0x11564, symBinAddr: 0x51BFC, symSize: 0x1C }
  - { offset: 0xDECEA, size: 0x8, addend: 0x0, symName: __RNcNtINtNtCs6IAuOt8vWmF_3syn10punctuated4PairRNtNtB8_4path11PathSegmentRNtNtB8_5token7PathSepE3End0B8_, symObjAddr: 0x11580, symBinAddr: 0x51C18, symSize: 0x1C }
  - { offset: 0xDED26, size: 0x8, addend: 0x0, symName: __RNcNtINtNtCs6IAuOt8vWmF_3syn10punctuated4PairRNtNtB8_4path15GenericArgumentRNtNtB8_5token5CommaE3End0B8_, symObjAddr: 0x1159C, symBinAddr: 0x51C34, symSize: 0x1C }
  - { offset: 0xDED62, size: 0x8, addend: 0x0, symName: __RNcNtINtNtCs6IAuOt8vWmF_3syn10punctuated4PairRNtNtB8_8generics12GenericParamRNtNtB8_5token5CommaE3End0B8_, symObjAddr: 0x115B8, symBinAddr: 0x51C50, symSize: 0x1C }
  - { offset: 0xDED9E, size: 0x8, addend: 0x0, symName: __RNcNtINtNtCs6IAuOt8vWmF_3syn10punctuated4PairRNtNtB8_8generics13CapturedParamRNtNtB8_5token5CommaE3End0B8_, symObjAddr: 0x115D4, symBinAddr: 0x51C6C, symSize: 0x1C }
  - { offset: 0xDEDDA, size: 0x8, addend: 0x0, symName: __RNcNtINtNtCs6IAuOt8vWmF_3syn10punctuated4PairRNtNtB8_8generics14TypeParamBoundRNtNtB8_5token4PlusE3End0B8_, symObjAddr: 0x115F0, symBinAddr: 0x51C88, symSize: 0x1C }
  - { offset: 0xDEE16, size: 0x8, addend: 0x0, symName: __RNcNtINtNtCs6IAuOt8vWmF_3syn10punctuated4PairRNtNtB8_8generics14WherePredicateRNtNtB8_5token5CommaE3End0B8_, symObjAddr: 0x1160C, symBinAddr: 0x51CA4, symSize: 0x1C }
  - { offset: 0xDEE52, size: 0x8, addend: 0x0, symName: __RNcNtINtNtCs6IAuOt8vWmF_3syn10punctuated4PairRNtNtB8_8lifetime8LifetimeRNtNtB8_5token4PlusE3End0B8_, symObjAddr: 0x11628, symBinAddr: 0x51CC0, symSize: 0x1C }
  - { offset: 0xDF201, size: 0x8, addend: 0x0, symName: __RNvXsN_NtCs6IAuOt8vWmF_3syn10punctuatedINtB5_10PunctuatedNtNtB7_3pat3PatNtNtB7_5token5CommaEINtNtNtCsfvfooZQ3Axs_4core3ops5index5IndexjE5indexB7_, symObjAddr: 0x11AC8, symBinAddr: 0x52160, symSize: 0x134 }
  - { offset: 0xDF266, size: 0x8, addend: 0x0, symName: __RNvXsN_NtCs6IAuOt8vWmF_3syn10punctuatedINtB5_10PunctuatedNtNtB7_4path11PathSegmentNtNtB7_5token7PathSepEINtNtNtCsfvfooZQ3Axs_4core3ops5index5IndexjE5indexB7_, symObjAddr: 0x11BFC, symBinAddr: 0x52294, symSize: 0x134 }
  - { offset: 0xDF2D6, size: 0x8, addend: 0x0, symName: __RNvXNtNtCs6IAuOt8vWmF_3syn10punctuated8printingINtB4_10PunctuatedNtNtB6_2ty4TypeNtNtB6_5token5CommaENtNtCs2cqEZUIJimJ_5quote9to_tokens8ToTokens9to_tokensB6_, symObjAddr: 0x11D30, symBinAddr: 0x523C8, symSize: 0x50 }
  - { offset: 0xDF321, size: 0x8, addend: 0x0, symName: __RNvXNtNtCs6IAuOt8vWmF_3syn10punctuated8printingINtB4_10PunctuatedNtNtB6_2ty9BareFnArgNtNtB6_5token5CommaENtNtCs2cqEZUIJimJ_5quote9to_tokens8ToTokens9to_tokensB6_, symObjAddr: 0x11D80, symBinAddr: 0x52418, symSize: 0x50 }
  - { offset: 0xDF36C, size: 0x8, addend: 0x0, symName: __RNvXNtNtCs6IAuOt8vWmF_3syn10punctuated8printingINtB4_10PunctuatedNtNtB6_3pat3PatNtNtB6_5token2OrENtNtCs2cqEZUIJimJ_5quote9to_tokens8ToTokens9to_tokensB6_, symObjAddr: 0x11DD0, symBinAddr: 0x52468, symSize: 0x50 }
  - { offset: 0xDF3B7, size: 0x8, addend: 0x0, symName: __RNvXNtNtCs6IAuOt8vWmF_3syn10punctuated8printingINtB4_10PunctuatedNtNtB6_3pat3PatNtNtB6_5token5CommaENtNtCs2cqEZUIJimJ_5quote9to_tokens8ToTokens9to_tokensB6_, symObjAddr: 0x11E20, symBinAddr: 0x524B8, symSize: 0x50 }
  - { offset: 0xDF402, size: 0x8, addend: 0x0, symName: __RNvXNtNtCs6IAuOt8vWmF_3syn10punctuated8printingINtB4_10PunctuatedNtNtB6_3pat8FieldPatNtNtB6_5token5CommaENtNtCs2cqEZUIJimJ_5quote9to_tokens8ToTokens9to_tokensB6_, symObjAddr: 0x11E70, symBinAddr: 0x52508, symSize: 0x50 }
  - { offset: 0xDF44D, size: 0x8, addend: 0x0, symName: __RNvXNtNtCs6IAuOt8vWmF_3syn10punctuated8printingINtB4_10PunctuatedNtNtB6_4data5FieldNtNtB6_5token5CommaENtNtCs2cqEZUIJimJ_5quote9to_tokens8ToTokens9to_tokensB6_, symObjAddr: 0x11EC0, symBinAddr: 0x52558, symSize: 0x50 }
  - { offset: 0xDF498, size: 0x8, addend: 0x0, symName: __RNvXNtNtCs6IAuOt8vWmF_3syn10punctuated8printingINtB4_10PunctuatedNtNtB6_4data7VariantNtNtB6_5token5CommaENtNtCs2cqEZUIJimJ_5quote9to_tokens8ToTokens9to_tokensB6_, symObjAddr: 0x11F10, symBinAddr: 0x525A8, symSize: 0x50 }
  - { offset: 0xDF4E3, size: 0x8, addend: 0x0, symName: __RNvXNtNtCs6IAuOt8vWmF_3syn10punctuated8printingINtB4_10PunctuatedNtNtB6_4expr10FieldValueNtNtB6_5token5CommaENtNtCs2cqEZUIJimJ_5quote9to_tokens8ToTokens9to_tokensB6_, symObjAddr: 0x11F60, symBinAddr: 0x525F8, symSize: 0x50 }
  - { offset: 0xDF52E, size: 0x8, addend: 0x0, symName: __RNvXNtNtCs6IAuOt8vWmF_3syn10punctuated8printingINtB4_10PunctuatedNtNtB6_4expr4ExprNtNtB6_5token5CommaENtNtCs2cqEZUIJimJ_5quote9to_tokens8ToTokens9to_tokensB6_, symObjAddr: 0x11FB0, symBinAddr: 0x52648, symSize: 0x50 }
  - { offset: 0xDF579, size: 0x8, addend: 0x0, symName: __RNvXNtNtCs6IAuOt8vWmF_3syn10punctuated8printingINtB4_10PunctuatedNtNtB6_4item5FnArgNtNtB6_5token5CommaENtNtCs2cqEZUIJimJ_5quote9to_tokens8ToTokens9to_tokensB6_, symObjAddr: 0x12000, symBinAddr: 0x52698, symSize: 0x50 }
  - { offset: 0xDF5C4, size: 0x8, addend: 0x0, symName: __RNvXNtNtCs6IAuOt8vWmF_3syn10punctuated8printingINtB4_10PunctuatedNtNtB6_4item7UseTreeNtNtB6_5token5CommaENtNtCs2cqEZUIJimJ_5quote9to_tokens8ToTokens9to_tokensB6_, symObjAddr: 0x12050, symBinAddr: 0x526E8, symSize: 0x50 }
  - { offset: 0xDF60F, size: 0x8, addend: 0x0, symName: __RNvXNtNtCs6IAuOt8vWmF_3syn10punctuated8printingINtB4_10PunctuatedNtNtB6_8generics12GenericParamNtNtB6_5token5CommaENtNtCs2cqEZUIJimJ_5quote9to_tokens8ToTokens9to_tokensB6_, symObjAddr: 0x120A0, symBinAddr: 0x52738, symSize: 0x50 }
  - { offset: 0xDF65A, size: 0x8, addend: 0x0, symName: __RNvXNtNtCs6IAuOt8vWmF_3syn10punctuated8printingINtB4_10PunctuatedNtNtB6_8generics14TypeParamBoundNtNtB6_5token4PlusENtNtCs2cqEZUIJimJ_5quote9to_tokens8ToTokens9to_tokensB6_, symObjAddr: 0x120F0, symBinAddr: 0x52788, symSize: 0x50 }
  - { offset: 0xDF6A5, size: 0x8, addend: 0x0, symName: __RNvXNtNtCs6IAuOt8vWmF_3syn10punctuated8printingINtB4_10PunctuatedNtNtB6_8generics14WherePredicateNtNtB6_5token5CommaENtNtCs2cqEZUIJimJ_5quote9to_tokens8ToTokens9to_tokensB6_, symObjAddr: 0x12140, symBinAddr: 0x527D8, symSize: 0x50 }
  - { offset: 0xDF6F0, size: 0x8, addend: 0x0, symName: __RNvXNtNtCs6IAuOt8vWmF_3syn10punctuated8printingINtB4_10PunctuatedNtNtB6_8lifetime8LifetimeNtNtB6_5token4PlusENtNtCs2cqEZUIJimJ_5quote9to_tokens8ToTokens9to_tokensB6_, symObjAddr: 0x12190, symBinAddr: 0x52828, symSize: 0x50 }
  - { offset: 0xDF741, size: 0x8, addend: 0x0, symName: __RNvXs_NtNtCs6IAuOt8vWmF_3syn10punctuated8printingINtB6_4PairRNtNtB8_2ty4TypeRNtNtB8_5token5CommaENtNtCs2cqEZUIJimJ_5quote9to_tokens8ToTokens9to_tokensB8_, symObjAddr: 0x121E0, symBinAddr: 0x52878, symSize: 0xB4 }
  - { offset: 0xDF7D0, size: 0x8, addend: 0x0, symName: __RNvXs_NtNtCs6IAuOt8vWmF_3syn10punctuated8printingINtB6_4PairRNtNtB8_2ty9BareFnArgRNtNtB8_5token5CommaENtNtCs2cqEZUIJimJ_5quote9to_tokens8ToTokens9to_tokensB8_, symObjAddr: 0x12294, symBinAddr: 0x5292C, symSize: 0xB4 }
  - { offset: 0xDF85F, size: 0x8, addend: 0x0, symName: __RNvXs_NtNtCs6IAuOt8vWmF_3syn10punctuated8printingINtB6_4PairRNtNtB8_3pat3PatRNtNtB8_5token2OrENtNtCs2cqEZUIJimJ_5quote9to_tokens8ToTokens9to_tokensB8_, symObjAddr: 0x12348, symBinAddr: 0x529E0, symSize: 0xB4 }
  - { offset: 0xDF8EE, size: 0x8, addend: 0x0, symName: __RNvXs_NtNtCs6IAuOt8vWmF_3syn10punctuated8printingINtB6_4PairRNtNtB8_3pat3PatRNtNtB8_5token5CommaENtNtCs2cqEZUIJimJ_5quote9to_tokens8ToTokens9to_tokensB8_, symObjAddr: 0x123FC, symBinAddr: 0x52A94, symSize: 0xB4 }
  - { offset: 0xDF97D, size: 0x8, addend: 0x0, symName: __RNvXs_NtNtCs6IAuOt8vWmF_3syn10punctuated8printingINtB6_4PairRNtNtB8_3pat8FieldPatRNtNtB8_5token5CommaENtNtCs2cqEZUIJimJ_5quote9to_tokens8ToTokens9to_tokensB8_, symObjAddr: 0x124B0, symBinAddr: 0x52B48, symSize: 0xB4 }
  - { offset: 0xDFA0C, size: 0x8, addend: 0x0, symName: __RNvXs_NtNtCs6IAuOt8vWmF_3syn10punctuated8printingINtB6_4PairRNtNtB8_4data5FieldRNtNtB8_5token5CommaENtNtCs2cqEZUIJimJ_5quote9to_tokens8ToTokens9to_tokensB8_, symObjAddr: 0x12564, symBinAddr: 0x52BFC, symSize: 0xB4 }
  - { offset: 0xDFA9B, size: 0x8, addend: 0x0, symName: __RNvXs_NtNtCs6IAuOt8vWmF_3syn10punctuated8printingINtB6_4PairRNtNtB8_4data7VariantRNtNtB8_5token5CommaENtNtCs2cqEZUIJimJ_5quote9to_tokens8ToTokens9to_tokensB8_, symObjAddr: 0x12618, symBinAddr: 0x52CB0, symSize: 0xB4 }
  - { offset: 0xDFB2A, size: 0x8, addend: 0x0, symName: __RNvXs_NtNtCs6IAuOt8vWmF_3syn10punctuated8printingINtB6_4PairRNtNtB8_4expr10FieldValueRNtNtB8_5token5CommaENtNtCs2cqEZUIJimJ_5quote9to_tokens8ToTokens9to_tokensB8_, symObjAddr: 0x126CC, symBinAddr: 0x52D64, symSize: 0xB4 }
  - { offset: 0xDFBB9, size: 0x8, addend: 0x0, symName: __RNvXs_NtNtCs6IAuOt8vWmF_3syn10punctuated8printingINtB6_4PairRNtNtB8_4expr4ExprRNtNtB8_5token5CommaENtNtCs2cqEZUIJimJ_5quote9to_tokens8ToTokens9to_tokensB8_, symObjAddr: 0x12780, symBinAddr: 0x52E18, symSize: 0xB4 }
  - { offset: 0xDFC48, size: 0x8, addend: 0x0, symName: __RNvXs_NtNtCs6IAuOt8vWmF_3syn10punctuated8printingINtB6_4PairRNtNtB8_4item5FnArgRNtNtB8_5token5CommaENtNtCs2cqEZUIJimJ_5quote9to_tokens8ToTokens9to_tokensB8_, symObjAddr: 0x12834, symBinAddr: 0x52ECC, symSize: 0xB4 }
  - { offset: 0xDFCD7, size: 0x8, addend: 0x0, symName: __RNvXs_NtNtCs6IAuOt8vWmF_3syn10punctuated8printingINtB6_4PairRNtNtB8_4item7UseTreeRNtNtB8_5token5CommaENtNtCs2cqEZUIJimJ_5quote9to_tokens8ToTokens9to_tokensB8_, symObjAddr: 0x128E8, symBinAddr: 0x52F80, symSize: 0xB4 }
  - { offset: 0xDFD66, size: 0x8, addend: 0x0, symName: __RNvXs_NtNtCs6IAuOt8vWmF_3syn10punctuated8printingINtB6_4PairRNtNtB8_4path15GenericArgumentRNtNtB8_5token5CommaENtNtCs2cqEZUIJimJ_5quote9to_tokens8ToTokens9to_tokensB8_, symObjAddr: 0x1299C, symBinAddr: 0x53034, symSize: 0xB4 }
  - { offset: 0xDFDF5, size: 0x8, addend: 0x0, symName: __RNvXs_NtNtCs6IAuOt8vWmF_3syn10punctuated8printingINtB6_4PairRNtNtB8_8generics12GenericParamRNtNtB8_5token5CommaENtNtCs2cqEZUIJimJ_5quote9to_tokens8ToTokens9to_tokensB8_, symObjAddr: 0x12A50, symBinAddr: 0x530E8, symSize: 0xB4 }
  - { offset: 0xDFE84, size: 0x8, addend: 0x0, symName: __RNvXs_NtNtCs6IAuOt8vWmF_3syn10punctuated8printingINtB6_4PairRNtNtB8_8generics13CapturedParamRNtNtB8_5token5CommaENtNtCs2cqEZUIJimJ_5quote9to_tokens8ToTokens9to_tokensB8_, symObjAddr: 0x12B04, symBinAddr: 0x5319C, symSize: 0xB4 }
  - { offset: 0xDFF13, size: 0x8, addend: 0x0, symName: __RNvXs_NtNtCs6IAuOt8vWmF_3syn10punctuated8printingINtB6_4PairRNtNtB8_8generics14TypeParamBoundRNtNtB8_5token4PlusENtNtCs2cqEZUIJimJ_5quote9to_tokens8ToTokens9to_tokensB8_, symObjAddr: 0x12BB8, symBinAddr: 0x53250, symSize: 0xB4 }
  - { offset: 0xDFFA2, size: 0x8, addend: 0x0, symName: __RNvXs_NtNtCs6IAuOt8vWmF_3syn10punctuated8printingINtB6_4PairRNtNtB8_8generics14WherePredicateRNtNtB8_5token5CommaENtNtCs2cqEZUIJimJ_5quote9to_tokens8ToTokens9to_tokensB8_, symObjAddr: 0x12C6C, symBinAddr: 0x53304, symSize: 0xB4 }
  - { offset: 0xE0031, size: 0x8, addend: 0x0, symName: __RNvXs_NtNtCs6IAuOt8vWmF_3syn10punctuated8printingINtB6_4PairRNtNtB8_8lifetime8LifetimeRNtNtB8_5token4PlusENtNtCs2cqEZUIJimJ_5quote9to_tokens8ToTokens9to_tokensB8_, symObjAddr: 0x12D20, symBinAddr: 0x533B8, symSize: 0xB4 }
  - { offset: 0xE126E, size: 0x8, addend: 0x0, symName: __RNvXsq_NtCs6IAuOt8vWmF_3syn5tokenNtNtB7_8lifetime8LifetimeNtB5_5Token4peek, symObjAddr: 0x13338, symBinAddr: 0x534A4, symSize: 0x88 }
  - { offset: 0xE129A, size: 0x8, addend: 0x0, symName: __RNvXsq_NtCs6IAuOt8vWmF_3syn5tokenNtNtB7_8lifetime8LifetimeNtB5_5Token7display, symObjAddr: 0x133C0, symBinAddr: 0x5352C, symSize: 0x24 }
  - { offset: 0xE1672, size: 0x8, addend: 0x0, symName: __RNvXs0_NtCs6IAuOt8vWmF_3syn8lifetimeNtB5_8LifetimeNtNtCsfvfooZQ3Axs_4core5clone5Clone5clone, symObjAddr: 0x3030, symBinAddr: 0x46FE4, symSize: 0x60 }
  - { offset: 0xE16A9, size: 0x8, addend: 0x0, symName: __RNvXNtNtCs6IAuOt8vWmF_3syn8lifetime7parsingNtB4_8LifetimeNtNtB6_5parse5Parse5parse, symObjAddr: 0x314C, symBinAddr: 0x47044, symSize: 0x34 }
  - { offset: 0xE16E1, size: 0x8, addend: 0x0, symName: __RNvXNtNtCs6IAuOt8vWmF_3syn8lifetime8printingNtB4_8LifetimeNtNtCs2cqEZUIJimJ_5quote9to_tokens8ToTokens9to_tokens, symObjAddr: 0x3180, symBinAddr: 0x47078, symSize: 0x90 }
  - { offset: 0xE5673, size: 0x8, addend: 0x0, symName: __RINvCs6IAuOt8vWmF_3syn9parse_strNtNtB2_4expr5IndexEB2_, symObjAddr: 0x12DD4, symBinAddr: 0x5346C, symSize: 0x38 }
  - { offset: 0xE615C, size: 0x8, addend: 0x0, symName: __RNvYINtNtCse1nGBsou5OW_5alloc2rc7RcInnerINtNtCsfvfooZQ3Axs_4core4cell4CellNtNtCs6IAuOt8vWmF_3syn5parse10UnexpectedEENtB5_10RcInnerPtr10inc_strongB1e_, symObjAddr: 0x2C3C, symBinAddr: 0x46F10, symSize: 0x94 }
  - { offset: 0xE6294, size: 0x8, addend: 0x0, symName: __RNvYINtNtCse1nGBsou5OW_5alloc2rc7RcInnerINtNtCsfvfooZQ3Axs_4core4cell4CellNtNtCs6IAuOt8vWmF_3syn5parse10UnexpectedEENtB5_10RcInnerPtr6strongB1e_, symObjAddr: 0x2CD0, symBinAddr: 0x46FA4, symSize: 0x28 }
  - { offset: 0xE62EF, size: 0x8, addend: 0x0, symName: __RNvXs17_NtCse1nGBsou5OW_5alloc2rcINtB6_4WeakINtNtCsfvfooZQ3Axs_4core4cell4CellNtNtCs6IAuOt8vWmF_3syn5parse10UnexpectedERNtNtB8_5alloc6GlobalENtNtNtBL_3ops4drop4Drop4dropB1i_, symObjAddr: 0x924, symBinAddr: 0x4594C, symSize: 0x148 }
  - { offset: 0xE6564, size: 0x8, addend: 0x0, symName: __RNvXsu_NtCse1nGBsou5OW_5alloc2rcINtB5_2RcINtNtCsfvfooZQ3Axs_4core4cell4CellNtNtCs6IAuOt8vWmF_3syn5parse10UnexpectedEENtNtNtBI_3ops4drop4Drop4dropB1f_, symObjAddr: 0xDB0, symBinAddr: 0x45B94, symSize: 0x88 }
  - { offset: 0xE6747, size: 0x8, addend: 0x0, symName: __RNvXsv_NtCse1nGBsou5OW_5alloc2rcINtB5_2RcINtNtCsfvfooZQ3Axs_4core4cell4CellNtNtCs6IAuOt8vWmF_3syn5parse10UnexpectedEENtNtBI_5clone5Clone5cloneB1f_, symObjAddr: 0xE38, symBinAddr: 0x45C1C, symSize: 0x48 }
  - { offset: 0xE6F1F, size: 0x8, addend: 0x0, symName: __RINvXNtNtCse1nGBsou5OW_5alloc5slice4hackTNtNtCs6IAuOt8vWmF_3syn8lifetime8LifetimeNtNtBH_5token4PlusENtB3_10ConvertVec6to_vecNtNtB7_5alloc6GlobalEBH_, symObjAddr: 0x0, symBinAddr: 0x45028, symSize: 0x368 }
  - { offset: 0xECFD4, size: 0x8, addend: 0x0, symName: __RNvMNtCsfvfooZQ3Axs_4core5sliceSTNtNtCs6IAuOt8vWmF_3syn8lifetime8LifetimeNtNtBz_5token4PlusE4iterBz_, symObjAddr: 0x4D8, symBinAddr: 0x45500, symSize: 0x28 }
  - { offset: 0xED1FE, size: 0x8, addend: 0x0, symName: __RNvXs9_NtNtNtCsfvfooZQ3Axs_4core4iter8adapters4fuseINtB5_4FuseINtNtB7_3map3MapIBZ_IBZ_INtNtNtBb_5slice4iter4IterNtNtCs6IAuOt8vWmF_3syn5error12ErrorMessageENvMs_B1O_B1M_16to_compile_errorENCINvXs7_Cs3cP53eQoTwO_11proc_macro2NtB38_11TokenStreamINtNtNtB9_6traits7collect12FromIteratorB3z_E9from_iterB1i_E0ENCINvXs6_NtB38_3impNtB50_11TokenStreamIB3T_B5a_E9from_iterB1e_Es_0EEINtB5_8FuseImplBY_E4nextB1Q_, symObjAddr: 0xCF4, symBinAddr: 0x45AD8, symSize: 0x80 }
  - { offset: 0xED353, size: 0x8, addend: 0x0, symName: __RINvYINtNtCs6IAuOt8vWmF_3syn10punctuated4IterNtNtB8_4path11PathSegmentENtNtNtNtCsfvfooZQ3Axs_4core4iter6traits8iterator8Iterator3allNCNvMs5_NtBJ_7parsingNtBJ_4Path12is_mod_style0EB8_, symObjAddr: 0x368, symBinAddr: 0x45390, symSize: 0x3C }
  - { offset: 0xED3A2, size: 0x8, addend: 0x0, symName: __RINvYINtNtCs6IAuOt8vWmF_3syn10punctuated4IterNtNtB8_4path11PathSegmentENtNtNtNtCsfvfooZQ3Axs_4core4iter6traits8iterator8Iterator8try_folduNCINvNvB17_3all5checkRBH_NCNvMs5_NtBJ_7parsingNtBJ_4Path12is_mod_style0E0INtNtNtB1f_3ops12control_flow11ControlFlowuEEB8_, symObjAddr: 0x3A4, symBinAddr: 0x453CC, symSize: 0x134 }
  - { offset: 0xED45C, size: 0x8, addend: 0x0, symName: __RNvYINtNtCs6IAuOt8vWmF_3syn10punctuated11PrivateIterNtNtB7_4data5FieldNtNtB7_5token5CommaENtNtNtNtCsfvfooZQ3Axs_4core4iter6traits8iterator8Iterator10advance_byB7_, symObjAddr: 0x1048, symBinAddr: 0x45E2C, symSize: 0x134 }
  - { offset: 0xED5B2, size: 0x8, addend: 0x0, symName: __RNvYINtNtCs6IAuOt8vWmF_3syn10punctuated11PrivateIterNtNtB7_4data5FieldNtNtB7_5token5CommaENtNtNtNtCsfvfooZQ3Axs_4core4iter6traits8iterator8Iterator3nthB7_, symObjAddr: 0x117C, symBinAddr: 0x45F60, symSize: 0x80 }
  - { offset: 0xED67E, size: 0x8, addend: 0x0, symName: __RNvYINtNtCs6IAuOt8vWmF_3syn10punctuated11PrivateIterNtNtB7_4data5FieldNtNtB7_5token5CommaENtNtNtNtCsfvfooZQ3Axs_4core4iter6traits8iterator8Iterator9size_hintB7_, symObjAddr: 0x11FC, symBinAddr: 0x45FE0, symSize: 0x34 }
  - { offset: 0xED6B3, size: 0x8, addend: 0x0, symName: __RNvYINtNtCs6IAuOt8vWmF_3syn10punctuated11PrivateIterNtNtB7_4path11PathSegmentNtNtB7_5token7PathSepENtNtNtNtCsfvfooZQ3Axs_4core4iter6traits8iterator8Iterator10advance_byB7_, symObjAddr: 0x17A8, symBinAddr: 0x461DC, symSize: 0x134 }
  - { offset: 0xED809, size: 0x8, addend: 0x0, symName: __RNvYINtNtCs6IAuOt8vWmF_3syn10punctuated11PrivateIterNtNtB7_4path11PathSegmentNtNtB7_5token7PathSepENtNtNtNtCsfvfooZQ3Axs_4core4iter6traits8iterator8Iterator3nthB7_, symObjAddr: 0x18DC, symBinAddr: 0x46310, symSize: 0x80 }
  - { offset: 0xED8D5, size: 0x8, addend: 0x0, symName: __RNvYINtNtCs6IAuOt8vWmF_3syn10punctuated11PrivateIterNtNtB7_4path11PathSegmentNtNtB7_5token7PathSepENtNtNtNtCsfvfooZQ3Axs_4core4iter6traits8iterator8Iterator9size_hintB7_, symObjAddr: 0x195C, symBinAddr: 0x46390, symSize: 0x34 }
  - { offset: 0xED90A, size: 0x8, addend: 0x0, symName: __RNvYINtNtCs6IAuOt8vWmF_3syn10punctuated11PrivateIterNtNtB7_8generics12GenericParamNtNtB7_5token5CommaENtNtNtNtCsfvfooZQ3Axs_4core4iter6traits8iterator8Iterator10advance_byB7_, symObjAddr: 0x1B58, symBinAddr: 0x4658C, symSize: 0x134 }
  - { offset: 0xEDA60, size: 0x8, addend: 0x0, symName: __RNvYINtNtCs6IAuOt8vWmF_3syn10punctuated11PrivateIterNtNtB7_8generics12GenericParamNtNtB7_5token5CommaENtNtNtNtCsfvfooZQ3Axs_4core4iter6traits8iterator8Iterator3nthB7_, symObjAddr: 0x1C8C, symBinAddr: 0x466C0, symSize: 0x80 }
  - { offset: 0xEDB2C, size: 0x8, addend: 0x0, symName: __RNvYINtNtCs6IAuOt8vWmF_3syn10punctuated11PrivateIterNtNtB7_8generics12GenericParamNtNtB7_5token5CommaENtNtNtNtCsfvfooZQ3Axs_4core4iter6traits8iterator8Iterator9size_hintB7_, symObjAddr: 0x1D0C, symBinAddr: 0x46740, symSize: 0x34 }
  - { offset: 0xEDB61, size: 0x8, addend: 0x0, symName: __RNvYINtNtCs6IAuOt8vWmF_3syn10punctuated11PrivateIterNtNtB7_8generics14TypeParamBoundNtNtB7_5token4PlusENtNtNtNtCsfvfooZQ3Axs_4core4iter6traits8iterator8Iterator10advance_byB7_, symObjAddr: 0x1F08, symBinAddr: 0x4693C, symSize: 0x134 }
  - { offset: 0xEDCB7, size: 0x8, addend: 0x0, symName: __RNvYINtNtCs6IAuOt8vWmF_3syn10punctuated11PrivateIterNtNtB7_8generics14TypeParamBoundNtNtB7_5token4PlusENtNtNtNtCsfvfooZQ3Axs_4core4iter6traits8iterator8Iterator3nthB7_, symObjAddr: 0x203C, symBinAddr: 0x46A70, symSize: 0x80 }
  - { offset: 0xEDD83, size: 0x8, addend: 0x0, symName: __RNvYINtNtCs6IAuOt8vWmF_3syn10punctuated11PrivateIterNtNtB7_8generics14TypeParamBoundNtNtB7_5token4PlusENtNtNtNtCsfvfooZQ3Axs_4core4iter6traits8iterator8Iterator9size_hintB7_, symObjAddr: 0x20BC, symBinAddr: 0x46AF0, symSize: 0x34 }
  - { offset: 0xEDDB8, size: 0x8, addend: 0x0, symName: __RNvYINtNtCs6IAuOt8vWmF_3syn10punctuated14PrivateIterMutNtNtB7_4path11PathSegmentNtNtB7_5token7PathSepENtNtNtNtCsfvfooZQ3Axs_4core4iter6traits8iterator8Iterator10advance_byB7_, symObjAddr: 0x2668, symBinAddr: 0x46CEC, symSize: 0x134 }
  - { offset: 0xEDF0E, size: 0x8, addend: 0x0, symName: __RNvYINtNtCs6IAuOt8vWmF_3syn10punctuated14PrivateIterMutNtNtB7_4path11PathSegmentNtNtB7_5token7PathSepENtNtNtNtCsfvfooZQ3Axs_4core4iter6traits8iterator8Iterator3nthB7_, symObjAddr: 0x279C, symBinAddr: 0x46E20, symSize: 0x80 }
  - { offset: 0xEDFDA, size: 0x8, addend: 0x0, symName: __RNvYINtNtCs6IAuOt8vWmF_3syn10punctuated14PrivateIterMutNtNtB7_4path11PathSegmentNtNtB7_5token7PathSepENtNtNtNtCsfvfooZQ3Axs_4core4iter6traits8iterator8Iterator9size_hintB7_, symObjAddr: 0x281C, symBinAddr: 0x46EA0, symSize: 0x34 }
  - { offset: 0xEE00F, size: 0x8, addend: 0x0, symName: __RNvYINtNtCs6IAuOt8vWmF_3syn10punctuated4IterNtNtB7_4path11PathSegmentENtNtNtNtCsfvfooZQ3Axs_4core4iter6traits8iterator8Iterator9enumerateB7_, symObjAddr: 0x2C00, symBinAddr: 0x46ED4, symSize: 0x28 }
  - { offset: 0xEE05B, size: 0x8, addend: 0x0, symName: __RNvYINtNtCs6IAuOt8vWmF_3syn10punctuated5PairsNtNtB7_4path11PathSegmentNtNtB7_5token7PathSepENtNtNtNtCsfvfooZQ3Axs_4core4iter6traits8iterator8Iterator6by_refB7_, symObjAddr: 0x2C28, symBinAddr: 0x46EFC, symSize: 0x14 }
  - { offset: 0xEE092, size: 0x8, addend: 0x0, symName: __RNvYQINtNtCs6IAuOt8vWmF_3syn10punctuated5PairsNtNtB8_4path11PathSegmentNtNtB8_5token7PathSepENtNtNtNtCsfvfooZQ3Axs_4core4iter6traits8iterator8Iterator4takeB8_, symObjAddr: 0x2D28, symBinAddr: 0x46FCC, symSize: 0x18 }
  - { offset: 0xEE0FD, size: 0x8, addend: 0x0, symName: __RNvXNtNtNtCsfvfooZQ3Axs_4core4iter6traits8iteratorQINtNtCs6IAuOt8vWmF_3syn10punctuated5PairsNtNtBS_4path11PathSegmentNtNtBS_5token7PathSepENtB2_8Iterator4nextBS_, symObjAddr: 0x8FC, symBinAddr: 0x45924, symSize: 0x28 }
  - { offset: 0xEE140, size: 0x8, addend: 0x0, symName: __RNvXNtNtNtCsfvfooZQ3Axs_4core4iter6traits7collectINtNtCs6IAuOt8vWmF_3syn10punctuated5PairsNtNtBQ_2ty4TypeNtNtBQ_5token5CommaENtB2_12IntoIterator9into_iterBQ_, symObjAddr: 0x71C, symBinAddr: 0x45744, symSize: 0x18 }
  - { offset: 0xEE177, size: 0x8, addend: 0x0, symName: __RNvXNtNtNtCsfvfooZQ3Axs_4core4iter6traits7collectINtNtCs6IAuOt8vWmF_3syn10punctuated5PairsNtNtBQ_2ty9BareFnArgNtNtBQ_5token5CommaENtB2_12IntoIterator9into_iterBQ_, symObjAddr: 0x734, symBinAddr: 0x4575C, symSize: 0x18 }
  - { offset: 0xEE1AE, size: 0x8, addend: 0x0, symName: __RNvXNtNtNtCsfvfooZQ3Axs_4core4iter6traits7collectINtNtCs6IAuOt8vWmF_3syn10punctuated5PairsNtNtBQ_3pat3PatNtNtBQ_5token2OrENtB2_12IntoIterator9into_iterBQ_, symObjAddr: 0x74C, symBinAddr: 0x45774, symSize: 0x18 }
  - { offset: 0xEE1E5, size: 0x8, addend: 0x0, symName: __RNvXNtNtNtCsfvfooZQ3Axs_4core4iter6traits7collectINtNtCs6IAuOt8vWmF_3syn10punctuated5PairsNtNtBQ_3pat3PatNtNtBQ_5token5CommaENtB2_12IntoIterator9into_iterBQ_, symObjAddr: 0x764, symBinAddr: 0x4578C, symSize: 0x18 }
  - { offset: 0xEE21C, size: 0x8, addend: 0x0, symName: __RNvXNtNtNtCsfvfooZQ3Axs_4core4iter6traits7collectINtNtCs6IAuOt8vWmF_3syn10punctuated5PairsNtNtBQ_3pat8FieldPatNtNtBQ_5token5CommaENtB2_12IntoIterator9into_iterBQ_, symObjAddr: 0x77C, symBinAddr: 0x457A4, symSize: 0x18 }
  - { offset: 0xEE253, size: 0x8, addend: 0x0, symName: __RNvXNtNtNtCsfvfooZQ3Axs_4core4iter6traits7collectINtNtCs6IAuOt8vWmF_3syn10punctuated5PairsNtNtBQ_4data5FieldNtNtBQ_5token5CommaENtB2_12IntoIterator9into_iterBQ_, symObjAddr: 0x794, symBinAddr: 0x457BC, symSize: 0x18 }
  - { offset: 0xEE28A, size: 0x8, addend: 0x0, symName: __RNvXNtNtNtCsfvfooZQ3Axs_4core4iter6traits7collectINtNtCs6IAuOt8vWmF_3syn10punctuated5PairsNtNtBQ_4data7VariantNtNtBQ_5token5CommaENtB2_12IntoIterator9into_iterBQ_, symObjAddr: 0x7AC, symBinAddr: 0x457D4, symSize: 0x18 }
  - { offset: 0xEE2C1, size: 0x8, addend: 0x0, symName: __RNvXNtNtNtCsfvfooZQ3Axs_4core4iter6traits7collectINtNtCs6IAuOt8vWmF_3syn10punctuated5PairsNtNtBQ_4expr10FieldValueNtNtBQ_5token5CommaENtB2_12IntoIterator9into_iterBQ_, symObjAddr: 0x7C4, symBinAddr: 0x457EC, symSize: 0x18 }
  - { offset: 0xEE2F8, size: 0x8, addend: 0x0, symName: __RNvXNtNtNtCsfvfooZQ3Axs_4core4iter6traits7collectINtNtCs6IAuOt8vWmF_3syn10punctuated5PairsNtNtBQ_4expr4ExprNtNtBQ_5token5CommaENtB2_12IntoIterator9into_iterBQ_, symObjAddr: 0x7DC, symBinAddr: 0x45804, symSize: 0x18 }
  - { offset: 0xEE32F, size: 0x8, addend: 0x0, symName: __RNvXNtNtNtCsfvfooZQ3Axs_4core4iter6traits7collectINtNtCs6IAuOt8vWmF_3syn10punctuated5PairsNtNtBQ_4item5FnArgNtNtBQ_5token5CommaENtB2_12IntoIterator9into_iterBQ_, symObjAddr: 0x7F4, symBinAddr: 0x4581C, symSize: 0x18 }
  - { offset: 0xEE366, size: 0x8, addend: 0x0, symName: __RNvXNtNtNtCsfvfooZQ3Axs_4core4iter6traits7collectINtNtCs6IAuOt8vWmF_3syn10punctuated5PairsNtNtBQ_4item7UseTreeNtNtBQ_5token5CommaENtB2_12IntoIterator9into_iterBQ_, symObjAddr: 0x80C, symBinAddr: 0x45834, symSize: 0x18 }
  - { offset: 0xEE39D, size: 0x8, addend: 0x0, symName: __RNvXNtNtNtCsfvfooZQ3Axs_4core4iter6traits7collectINtNtCs6IAuOt8vWmF_3syn10punctuated5PairsNtNtBQ_4path11PathSegmentNtNtBQ_5token7PathSepENtB2_12IntoIterator9into_iterBQ_, symObjAddr: 0x824, symBinAddr: 0x4584C, symSize: 0x18 }
  - { offset: 0xEE3D4, size: 0x8, addend: 0x0, symName: __RNvXNtNtNtCsfvfooZQ3Axs_4core4iter6traits7collectINtNtCs6IAuOt8vWmF_3syn10punctuated5PairsNtNtBQ_4path15GenericArgumentNtNtBQ_5token5CommaENtB2_12IntoIterator9into_iterBQ_, symObjAddr: 0x83C, symBinAddr: 0x45864, symSize: 0x18 }
  - { offset: 0xEE40B, size: 0x8, addend: 0x0, symName: __RNvXNtNtNtCsfvfooZQ3Axs_4core4iter6traits7collectINtNtCs6IAuOt8vWmF_3syn10punctuated5PairsNtNtBQ_8generics12GenericParamNtNtBQ_5token5CommaENtB2_12IntoIterator9into_iterBQ_, symObjAddr: 0x854, symBinAddr: 0x4587C, symSize: 0x18 }
  - { offset: 0xEE442, size: 0x8, addend: 0x0, symName: __RNvXNtNtNtCsfvfooZQ3Axs_4core4iter6traits7collectINtNtCs6IAuOt8vWmF_3syn10punctuated5PairsNtNtBQ_8generics13CapturedParamNtNtBQ_5token5CommaENtB2_12IntoIterator9into_iterBQ_, symObjAddr: 0x86C, symBinAddr: 0x45894, symSize: 0x18 }
  - { offset: 0xEE479, size: 0x8, addend: 0x0, symName: __RNvXNtNtNtCsfvfooZQ3Axs_4core4iter6traits7collectINtNtCs6IAuOt8vWmF_3syn10punctuated5PairsNtNtBQ_8generics14TypeParamBoundNtNtBQ_5token4PlusENtB2_12IntoIterator9into_iterBQ_, symObjAddr: 0x884, symBinAddr: 0x458AC, symSize: 0x18 }
  - { offset: 0xEE4B0, size: 0x8, addend: 0x0, symName: __RNvXNtNtNtCsfvfooZQ3Axs_4core4iter6traits7collectINtNtCs6IAuOt8vWmF_3syn10punctuated5PairsNtNtBQ_8generics14WherePredicateNtNtBQ_5token5CommaENtB2_12IntoIterator9into_iterBQ_, symObjAddr: 0x89C, symBinAddr: 0x458C4, symSize: 0x18 }
  - { offset: 0xEE4E7, size: 0x8, addend: 0x0, symName: __RNvXNtNtNtCsfvfooZQ3Axs_4core4iter6traits7collectINtNtCs6IAuOt8vWmF_3syn10punctuated5PairsNtNtBQ_8lifetime8LifetimeNtNtBQ_5token4PlusENtB2_12IntoIterator9into_iterBQ_, symObjAddr: 0x8B4, symBinAddr: 0x458DC, symSize: 0x18 }
  - { offset: 0xEE51E, size: 0x8, addend: 0x0, symName: __RNvXNtNtNtCsfvfooZQ3Axs_4core4iter6traits7collectINtNtCs6IAuOt8vWmF_3syn10punctuated9IntoPairsNtNtBQ_4path11PathSegmentNtNtBQ_5token7PathSepENtB2_12IntoIterator9into_iterBQ_, symObjAddr: 0x8CC, symBinAddr: 0x458F4, symSize: 0x30 }
  - { offset: 0xEE562, size: 0x8, addend: 0x0, symName: __RNvYINtNtCs6IAuOt8vWmF_3syn10punctuated11PrivateIterNtNtB7_4data5FieldNtNtB7_5token5CommaENtNtNtNtCsfvfooZQ3Axs_4core4iter6traits10exact_size17ExactSizeIterator8is_emptyB7_, symObjAddr: 0xE80, symBinAddr: 0x45C64, symSize: 0x2C }
  - { offset: 0xEE597, size: 0x8, addend: 0x0, symName: __RNvYINtNtCs6IAuOt8vWmF_3syn10punctuated11PrivateIterNtNtB7_4path11PathSegmentNtNtB7_5token7PathSepENtNtNtNtCsfvfooZQ3Axs_4core4iter6traits10exact_size17ExactSizeIterator8is_emptyB7_, symObjAddr: 0x15E0, symBinAddr: 0x46014, symSize: 0x2C }
  - { offset: 0xEE5CC, size: 0x8, addend: 0x0, symName: __RNvYINtNtCs6IAuOt8vWmF_3syn10punctuated11PrivateIterNtNtB7_8generics12GenericParamNtNtB7_5token5CommaENtNtNtNtCsfvfooZQ3Axs_4core4iter6traits10exact_size17ExactSizeIterator8is_emptyB7_, symObjAddr: 0x1990, symBinAddr: 0x463C4, symSize: 0x2C }
  - { offset: 0xEE601, size: 0x8, addend: 0x0, symName: __RNvYINtNtCs6IAuOt8vWmF_3syn10punctuated11PrivateIterNtNtB7_8generics14TypeParamBoundNtNtB7_5token4PlusENtNtNtNtCsfvfooZQ3Axs_4core4iter6traits10exact_size17ExactSizeIterator8is_emptyB7_, symObjAddr: 0x1D40, symBinAddr: 0x46774, symSize: 0x2C }
  - { offset: 0xEE636, size: 0x8, addend: 0x0, symName: __RNvYINtNtCs6IAuOt8vWmF_3syn10punctuated14PrivateIterMutNtNtB7_4path11PathSegmentNtNtB7_5token7PathSepENtNtNtNtCsfvfooZQ3Axs_4core4iter6traits10exact_size17ExactSizeIterator8is_emptyB7_, symObjAddr: 0x24A0, symBinAddr: 0x46B24, symSize: 0x2C }
  - { offset: 0xEE677, size: 0x8, addend: 0x0, symName: __RNvYINtNtCs6IAuOt8vWmF_3syn10punctuated11PrivateIterNtNtB7_4data5FieldNtNtB7_5token5CommaENtNtNtNtCsfvfooZQ3Axs_4core4iter6traits12double_ended19DoubleEndedIterator15advance_back_byB7_, symObjAddr: 0xEAC, symBinAddr: 0x45C90, symSize: 0x134 }
  - { offset: 0xEE7C5, size: 0x8, addend: 0x0, symName: __RNvYINtNtCs6IAuOt8vWmF_3syn10punctuated11PrivateIterNtNtB7_4data5FieldNtNtB7_5token5CommaENtNtNtNtCsfvfooZQ3Axs_4core4iter6traits12double_ended19DoubleEndedIterator8nth_backB7_, symObjAddr: 0xFE0, symBinAddr: 0x45DC4, symSize: 0x68 }
  - { offset: 0xEE843, size: 0x8, addend: 0x0, symName: __RNvYINtNtCs6IAuOt8vWmF_3syn10punctuated11PrivateIterNtNtB7_4path11PathSegmentNtNtB7_5token7PathSepENtNtNtNtCsfvfooZQ3Axs_4core4iter6traits12double_ended19DoubleEndedIterator15advance_back_byB7_, symObjAddr: 0x160C, symBinAddr: 0x46040, symSize: 0x134 }
  - { offset: 0xEE991, size: 0x8, addend: 0x0, symName: __RNvYINtNtCs6IAuOt8vWmF_3syn10punctuated11PrivateIterNtNtB7_4path11PathSegmentNtNtB7_5token7PathSepENtNtNtNtCsfvfooZQ3Axs_4core4iter6traits12double_ended19DoubleEndedIterator8nth_backB7_, symObjAddr: 0x1740, symBinAddr: 0x46174, symSize: 0x68 }
  - { offset: 0xEEA0F, size: 0x8, addend: 0x0, symName: __RNvYINtNtCs6IAuOt8vWmF_3syn10punctuated11PrivateIterNtNtB7_8generics12GenericParamNtNtB7_5token5CommaENtNtNtNtCsfvfooZQ3Axs_4core4iter6traits12double_ended19DoubleEndedIterator15advance_back_byB7_, symObjAddr: 0x19BC, symBinAddr: 0x463F0, symSize: 0x134 }
  - { offset: 0xEEB5D, size: 0x8, addend: 0x0, symName: __RNvYINtNtCs6IAuOt8vWmF_3syn10punctuated11PrivateIterNtNtB7_8generics12GenericParamNtNtB7_5token5CommaENtNtNtNtCsfvfooZQ3Axs_4core4iter6traits12double_ended19DoubleEndedIterator8nth_backB7_, symObjAddr: 0x1AF0, symBinAddr: 0x46524, symSize: 0x68 }
  - { offset: 0xEEBDB, size: 0x8, addend: 0x0, symName: __RNvYINtNtCs6IAuOt8vWmF_3syn10punctuated11PrivateIterNtNtB7_8generics14TypeParamBoundNtNtB7_5token4PlusENtNtNtNtCsfvfooZQ3Axs_4core4iter6traits12double_ended19DoubleEndedIterator15advance_back_byB7_, symObjAddr: 0x1D6C, symBinAddr: 0x467A0, symSize: 0x134 }
  - { offset: 0xEED29, size: 0x8, addend: 0x0, symName: __RNvYINtNtCs6IAuOt8vWmF_3syn10punctuated11PrivateIterNtNtB7_8generics14TypeParamBoundNtNtB7_5token4PlusENtNtNtNtCsfvfooZQ3Axs_4core4iter6traits12double_ended19DoubleEndedIterator8nth_backB7_, symObjAddr: 0x1EA0, symBinAddr: 0x468D4, symSize: 0x68 }
  - { offset: 0xEEDA7, size: 0x8, addend: 0x0, symName: __RNvYINtNtCs6IAuOt8vWmF_3syn10punctuated14PrivateIterMutNtNtB7_4path11PathSegmentNtNtB7_5token7PathSepENtNtNtNtCsfvfooZQ3Axs_4core4iter6traits12double_ended19DoubleEndedIterator15advance_back_byB7_, symObjAddr: 0x24CC, symBinAddr: 0x46B50, symSize: 0x134 }
  - { offset: 0xEEEF5, size: 0x8, addend: 0x0, symName: __RNvYINtNtCs6IAuOt8vWmF_3syn10punctuated14PrivateIterMutNtNtB7_4path11PathSegmentNtNtB7_5token7PathSepENtNtNtNtCsfvfooZQ3Axs_4core4iter6traits12double_ended19DoubleEndedIterator8nth_backB7_, symObjAddr: 0x2600, symBinAddr: 0x46C84, symSize: 0x68 }
  - { offset: 0xEF594, size: 0x8, addend: 0x0, symName: __RNvXs7_NtNtCsfvfooZQ3Axs_4core3cmp5implsReNtB7_9PartialEq2eqCs6IAuOt8vWmF_3syn, symObjAddr: 0xC4C, symBinAddr: 0x45A94, symSize: 0x44 }
  - { offset: 0xEF5E9, size: 0x8, addend: 0x0, symName: __RNvXsX_NtNtCsfvfooZQ3Axs_4core3cmp5implshNtB7_3Ord3cmpCs6IAuOt8vWmF_3syn, symObjAddr: 0xD74, symBinAddr: 0x45B58, symSize: 0x3C }
  - { offset: 0xEF9D2, size: 0x8, addend: 0x0, symName: __RNvNvMNtNtCsfvfooZQ3Axs_4core5alloc6layoutNtB4_6Layout25from_size_align_unchecked18precondition_checkCs6IAuOt8vWmF_3syn, symObjAddr: 0x648, symBinAddr: 0x45670, symSize: 0x50 }
  - { offset: 0xEFA74, size: 0x8, addend: 0x0, symName: __RNvXNtNtCsfvfooZQ3Axs_4core5clone6uninitNtNtCs6IAuOt8vWmF_3syn8lifetime8LifetimeNtB2_8CopySpec9clone_oneBG_, symObjAddr: 0x6D8, symBinAddr: 0x45700, symSize: 0x44 }
  - { offset: 0xF0E8A, size: 0x8, addend: 0x0, symName: __RNvMs5_NtCse1nGBsou5OW_5alloc2rcINtB5_2RcINtNtCsfvfooZQ3Axs_4core4cell4CellNtNtCs6IAuOt8vWmF_3syn5parse10UnexpectedEE9drop_slowB1f_, symObjAddr: 0x500, symBinAddr: 0x45528, symSize: 0x74 }
  - { offset: 0xF0F5B, size: 0x8, addend: 0x0, symName: __RNvMs6_NtCse1nGBsou5OW_5alloc2rcINtB5_2RcINtNtCsfvfooZQ3Axs_4core4cell4CellNtNtCs6IAuOt8vWmF_3syn5parse10UnexpectedEE3newB1f_, symObjAddr: 0x574, symBinAddr: 0x4559C, symSize: 0xA8 }
  - { offset: 0xF10A3, size: 0x8, addend: 0x0, symName: __RNvMsd_NtCse1nGBsou5OW_5alloc2rcINtB5_2RcINtNtCsfvfooZQ3Axs_4core4cell4CellNtNtCs6IAuOt8vWmF_3syn5parse10UnexpectedEE6ptr_eqB1f_, symObjAddr: 0x61C, symBinAddr: 0x45644, symSize: 0x2C }
  - { offset: 0xF110B, size: 0x8, addend: 0x0, symName: __RNvXNtCs2cqEZUIJimJ_5quote9to_tokensRNtNtCs6IAuOt8vWmF_3syn8lifetime8LifetimeNtB2_8ToTokens9to_tokensBD_, symObjAddr: 0x698, symBinAddr: 0x456C0, symSize: 0x40 }
  - { offset: 0xF1D1E, size: 0x8, addend: 0x0, symName: __RNvMNtCs6IAuOt8vWmF_3syn10punctuatedINtB2_10PunctuatedNtNtB4_2ty4TypeNtNtB4_5token5CommaE3newB4_, symObjAddr: 0x3894, symBinAddr: 0x47108, symSize: 0x54 }
  - { offset: 0xF1D44, size: 0x8, addend: 0x0, symName: __RNvMNtCs6IAuOt8vWmF_3syn10punctuatedINtB2_10PunctuatedNtNtB4_2ty9BareFnArgNtNtB4_5token5CommaE3newB4_, symObjAddr: 0x38E8, symBinAddr: 0x4715C, symSize: 0x54 }
  - { offset: 0xF1D6A, size: 0x8, addend: 0x0, symName: __RNvMNtCs6IAuOt8vWmF_3syn10punctuatedINtB2_10PunctuatedNtNtB4_3pat3PatNtNtB4_5token2OrE3newB4_, symObjAddr: 0x393C, symBinAddr: 0x471B0, symSize: 0x54 }
  - { offset: 0xF1D90, size: 0x8, addend: 0x0, symName: __RNvMNtCs6IAuOt8vWmF_3syn10punctuatedINtB2_10PunctuatedNtNtB4_3pat3PatNtNtB4_5token5CommaE3newB4_, symObjAddr: 0x3990, symBinAddr: 0x47204, symSize: 0x54 }
  - { offset: 0xF1DB6, size: 0x8, addend: 0x0, symName: __RNvMNtCs6IAuOt8vWmF_3syn10punctuatedINtB2_10PunctuatedNtNtB4_3pat8FieldPatNtNtB4_5token5CommaE3newB4_, symObjAddr: 0x39E4, symBinAddr: 0x47258, symSize: 0x54 }
  - { offset: 0xF1DDC, size: 0x8, addend: 0x0, symName: __RNvMNtCs6IAuOt8vWmF_3syn10punctuatedINtB2_10PunctuatedNtNtB4_4data5FieldNtNtB4_5token5CommaE3newB4_, symObjAddr: 0x3A38, symBinAddr: 0x472AC, symSize: 0x54 }
  - { offset: 0xF1E02, size: 0x8, addend: 0x0, symName: __RNvMNtCs6IAuOt8vWmF_3syn10punctuatedINtB2_10PunctuatedNtNtB4_4data7VariantNtNtB4_5token5CommaE3newB4_, symObjAddr: 0x3AE0, symBinAddr: 0x47300, symSize: 0x54 }
  - { offset: 0xF1E28, size: 0x8, addend: 0x0, symName: __RNvMNtCs6IAuOt8vWmF_3syn10punctuatedINtB2_10PunctuatedNtNtB4_4expr10FieldValueNtNtB4_5token5CommaE3newB4_, symObjAddr: 0x3B34, symBinAddr: 0x47354, symSize: 0x54 }
  - { offset: 0xF1E4E, size: 0x8, addend: 0x0, symName: __RNvMNtCs6IAuOt8vWmF_3syn10punctuatedINtB2_10PunctuatedNtNtB4_4expr4ExprNtNtB4_5token5CommaE3newB4_, symObjAddr: 0x3B88, symBinAddr: 0x473A8, symSize: 0x54 }
  - { offset: 0xF1E74, size: 0x8, addend: 0x0, symName: __RNvMNtCs6IAuOt8vWmF_3syn10punctuatedINtB2_10PunctuatedNtNtB4_4item5FnArgNtNtB4_5token5CommaE3newB4_, symObjAddr: 0x3BDC, symBinAddr: 0x473FC, symSize: 0x54 }
  - { offset: 0xF1E9A, size: 0x8, addend: 0x0, symName: __RNvMNtCs6IAuOt8vWmF_3syn10punctuatedINtB2_10PunctuatedNtNtB4_4item7UseTreeNtNtB4_5token5CommaE3newB4_, symObjAddr: 0x3C30, symBinAddr: 0x47450, symSize: 0x54 }
  - { offset: 0xF1EC0, size: 0x8, addend: 0x0, symName: __RNvMNtCs6IAuOt8vWmF_3syn10punctuatedINtB2_10PunctuatedNtNtB4_4path11PathSegmentNtNtB4_5token7PathSepE3newB4_, symObjAddr: 0x3C84, symBinAddr: 0x474A4, symSize: 0x54 }
  - { offset: 0xF1EE6, size: 0x8, addend: 0x0, symName: __RNvMNtCs6IAuOt8vWmF_3syn10punctuatedINtB2_10PunctuatedNtNtB4_4path15GenericArgumentNtNtB4_5token5CommaE3newB4_, symObjAddr: 0x3CD8, symBinAddr: 0x474F8, symSize: 0x54 }
  - { offset: 0xF1F0C, size: 0x8, addend: 0x0, symName: __RNvMNtCs6IAuOt8vWmF_3syn10punctuatedINtB2_10PunctuatedNtNtB4_8generics12GenericParamNtNtB4_5token5CommaE3newB4_, symObjAddr: 0x3D2C, symBinAddr: 0x4754C, symSize: 0x54 }
  - { offset: 0xF1F32, size: 0x8, addend: 0x0, symName: __RNvMNtCs6IAuOt8vWmF_3syn10punctuatedINtB2_10PunctuatedNtNtB4_8generics13CapturedParamNtNtB4_5token5CommaE3newB4_, symObjAddr: 0x3D80, symBinAddr: 0x475A0, symSize: 0x54 }
  - { offset: 0xF1F58, size: 0x8, addend: 0x0, symName: __RNvMNtCs6IAuOt8vWmF_3syn10punctuatedINtB2_10PunctuatedNtNtB4_8generics14TypeParamBoundNtNtB4_5token4PlusE3newB4_, symObjAddr: 0x3DD4, symBinAddr: 0x475F4, symSize: 0x54 }
  - { offset: 0xF1F7E, size: 0x8, addend: 0x0, symName: __RNvMNtCs6IAuOt8vWmF_3syn10punctuatedINtB2_10PunctuatedNtNtB4_8generics14WherePredicateNtNtB4_5token5CommaE3newB4_, symObjAddr: 0x3E28, symBinAddr: 0x47648, symSize: 0x54 }
  - { offset: 0xF1FA4, size: 0x8, addend: 0x0, symName: __RNvMNtCs6IAuOt8vWmF_3syn10punctuatedINtB2_10PunctuatedNtNtB4_8lifetime8LifetimeNtNtB4_5token4PlusE3newB4_, symObjAddr: 0x3E7C, symBinAddr: 0x4769C, symSize: 0x54 }
  - { offset: 0xF1FD7, size: 0x8, addend: 0x0, symName: __RNvMNtCs6IAuOt8vWmF_3syn10punctuatedINtB2_10PunctuatedNtNtB4_2ty4TypeNtNtB4_5token5CommaE8is_emptyB4_, symObjAddr: 0x3ED0, symBinAddr: 0x476F0, symSize: 0x74 }
  - { offset: 0xF2018, size: 0x8, addend: 0x0, symName: __RNvMNtCs6IAuOt8vWmF_3syn10punctuatedINtB2_10PunctuatedNtNtB4_2ty9BareFnArgNtNtB4_5token5CommaE8is_emptyB4_, symObjAddr: 0x3F44, symBinAddr: 0x47764, symSize: 0x74 }
  - { offset: 0xF2059, size: 0x8, addend: 0x0, symName: __RNvMNtCs6IAuOt8vWmF_3syn10punctuatedINtB2_10PunctuatedNtNtB4_3pat3PatNtNtB4_5token5CommaE8is_emptyB4_, symObjAddr: 0x3FB8, symBinAddr: 0x477D8, symSize: 0x74 }
  - { offset: 0xF20A7, size: 0x8, addend: 0x0, symName: __RNvMNtCs6IAuOt8vWmF_3syn10punctuatedINtB2_10PunctuatedNtNtB4_4expr4ExprNtNtB4_5token5CommaE8is_emptyB4_, symObjAddr: 0x40A0, symBinAddr: 0x4784C, symSize: 0x74 }
  - { offset: 0xF20E8, size: 0x8, addend: 0x0, symName: __RNvMNtCs6IAuOt8vWmF_3syn10punctuatedINtB2_10PunctuatedNtNtB4_4item5FnArgNtNtB4_5token5CommaE8is_emptyB4_, symObjAddr: 0x4114, symBinAddr: 0x478C0, symSize: 0x74 }
  - { offset: 0xF2129, size: 0x8, addend: 0x0, symName: __RNvMNtCs6IAuOt8vWmF_3syn10punctuatedINtB2_10PunctuatedNtNtB4_4path11PathSegmentNtNtB4_5token7PathSepE8is_emptyB4_, symObjAddr: 0x4188, symBinAddr: 0x47934, symSize: 0x74 }
  - { offset: 0xF216A, size: 0x8, addend: 0x0, symName: __RNvMNtCs6IAuOt8vWmF_3syn10punctuatedINtB2_10PunctuatedNtNtB4_4path15GenericArgumentNtNtB4_5token5CommaE8is_emptyB4_, symObjAddr: 0x41FC, symBinAddr: 0x479A8, symSize: 0x74 }
  - { offset: 0xF21AB, size: 0x8, addend: 0x0, symName: __RNvMNtCs6IAuOt8vWmF_3syn10punctuatedINtB2_10PunctuatedNtNtB4_8generics12GenericParamNtNtB4_5token5CommaE8is_emptyB4_, symObjAddr: 0x4270, symBinAddr: 0x47A1C, symSize: 0x74 }
  - { offset: 0xF21EC, size: 0x8, addend: 0x0, symName: __RNvMNtCs6IAuOt8vWmF_3syn10punctuatedINtB2_10PunctuatedNtNtB4_8generics14TypeParamBoundNtNtB4_5token4PlusE8is_emptyB4_, symObjAddr: 0x42E4, symBinAddr: 0x47A90, symSize: 0x74 }
  - { offset: 0xF222D, size: 0x8, addend: 0x0, symName: __RNvMNtCs6IAuOt8vWmF_3syn10punctuatedINtB2_10PunctuatedNtNtB4_8generics14WherePredicateNtNtB4_5token5CommaE8is_emptyB4_, symObjAddr: 0x4358, symBinAddr: 0x47B04, symSize: 0x74 }
  - { offset: 0xF226E, size: 0x8, addend: 0x0, symName: __RNvMNtCs6IAuOt8vWmF_3syn10punctuatedINtB2_10PunctuatedNtNtB4_8lifetime8LifetimeNtNtB4_5token4PlusE8is_emptyB4_, symObjAddr: 0x43CC, symBinAddr: 0x47B78, symSize: 0x74 }
  - { offset: 0xF22A2, size: 0x8, addend: 0x0, symName: __RNvMNtCs6IAuOt8vWmF_3syn10punctuatedINtB2_10PunctuatedNtNtB4_2ty4TypeNtNtB4_5token5CommaE3lenB4_, symObjAddr: 0x4440, symBinAddr: 0x47BEC, symSize: 0xA0 }
  - { offset: 0xF22D6, size: 0x8, addend: 0x0, symName: __RNvMNtCs6IAuOt8vWmF_3syn10punctuatedINtB2_10PunctuatedNtNtB4_3pat3PatNtNtB4_5token5CommaE3lenB4_, symObjAddr: 0x44E0, symBinAddr: 0x47C8C, symSize: 0xA0 }
  - { offset: 0xF230A, size: 0x8, addend: 0x0, symName: __RNvMNtCs6IAuOt8vWmF_3syn10punctuatedINtB2_10PunctuatedNtNtB4_4data5FieldNtNtB4_5token5CommaE3lenB4_, symObjAddr: 0x4580, symBinAddr: 0x47D2C, symSize: 0xA0 }
  - { offset: 0xF233E, size: 0x8, addend: 0x0, symName: __RNvMNtCs6IAuOt8vWmF_3syn10punctuatedINtB2_10PunctuatedNtNtB4_4expr4ExprNtNtB4_5token5CommaE3lenB4_, symObjAddr: 0x46C0, symBinAddr: 0x47DCC, symSize: 0xA0 }
  - { offset: 0xF2372, size: 0x8, addend: 0x0, symName: __RNvMNtCs6IAuOt8vWmF_3syn10punctuatedINtB2_10PunctuatedNtNtB4_4path11PathSegmentNtNtB4_5token7PathSepE3lenB4_, symObjAddr: 0x4760, symBinAddr: 0x47E6C, symSize: 0xA0 }
  - { offset: 0xF23A6, size: 0x8, addend: 0x0, symName: __RNvMNtCs6IAuOt8vWmF_3syn10punctuatedINtB2_10PunctuatedNtNtB4_8generics14TypeParamBoundNtNtB4_5token4PlusE3lenB4_, symObjAddr: 0x4800, symBinAddr: 0x47F0C, symSize: 0xA0 }
  - { offset: 0xF23DA, size: 0x8, addend: 0x0, symName: __RNvMNtCs6IAuOt8vWmF_3syn10punctuatedINtB2_10PunctuatedNtNtB4_4path11PathSegmentNtNtB4_5token7PathSepE5firstB4_, symObjAddr: 0x4924, symBinAddr: 0x47FAC, symSize: 0x84 }
  - { offset: 0xF240E, size: 0x8, addend: 0x0, symName: __RNvMNtCs6IAuOt8vWmF_3syn10punctuatedINtB2_10PunctuatedNtNtB4_4path11PathSegmentNtNtB4_5token7PathSepE4lastB4_, symObjAddr: 0x49A8, symBinAddr: 0x48030, symSize: 0x84 }
  - { offset: 0xF2442, size: 0x8, addend: 0x0, symName: __RNvMNtCs6IAuOt8vWmF_3syn10punctuatedINtB2_10PunctuatedNtNtB4_8generics14TypeParamBoundNtNtB4_5token4PlusE4lastB4_, symObjAddr: 0x4A2C, symBinAddr: 0x480B4, symSize: 0x84 }
  - { offset: 0xF2483, size: 0x8, addend: 0x0, symName: __RNvMNtCs6IAuOt8vWmF_3syn10punctuatedINtB2_10PunctuatedNtNtB4_4path11PathSegmentNtNtB4_5token7PathSepE8last_mutB4_, symObjAddr: 0x4AB0, symBinAddr: 0x48138, symSize: 0x84 }
  - { offset: 0xF24F2, size: 0x8, addend: 0x0, symName: __RNvMNtCs6IAuOt8vWmF_3syn10punctuatedINtB2_10PunctuatedNtNtB4_4data5FieldNtNtB4_5token5CommaE4iterB4_, symObjAddr: 0x4B34, symBinAddr: 0x481BC, symSize: 0xC8 }
  - { offset: 0xF257E, size: 0x8, addend: 0x0, symName: __RNvMNtCs6IAuOt8vWmF_3syn10punctuatedINtB2_10PunctuatedNtNtB4_4path11PathSegmentNtNtB4_5token7PathSepE4iterB4_, symObjAddr: 0x4CC4, symBinAddr: 0x48284, symSize: 0xC8 }
  - { offset: 0xF260A, size: 0x8, addend: 0x0, symName: __RNvMNtCs6IAuOt8vWmF_3syn10punctuatedINtB2_10PunctuatedNtNtB4_8generics12GenericParamNtNtB4_5token5CommaE4iterB4_, symObjAddr: 0x4D8C, symBinAddr: 0x4834C, symSize: 0xC8 }
  - { offset: 0xF2696, size: 0x8, addend: 0x0, symName: __RNvMNtCs6IAuOt8vWmF_3syn10punctuatedINtB2_10PunctuatedNtNtB4_8generics14TypeParamBoundNtNtB4_5token4PlusE4iterB4_, symObjAddr: 0x4E54, symBinAddr: 0x48414, symSize: 0xC8 }
  - { offset: 0xF2777, size: 0x8, addend: 0x0, symName: __RNvMNtCs6IAuOt8vWmF_3syn10punctuatedINtB2_10PunctuatedNtNtB4_4path11PathSegmentNtNtB4_5token7PathSepE8iter_mutB4_, symObjAddr: 0x4FE4, symBinAddr: 0x484DC, symSize: 0xC8 }
  - { offset: 0xF282A, size: 0x8, addend: 0x0, symName: __RNvMNtCs6IAuOt8vWmF_3syn10punctuatedINtB2_10PunctuatedNtNtB4_2ty4TypeNtNtB4_5token5CommaE5pairsB4_, symObjAddr: 0x5174, symBinAddr: 0x485A4, symSize: 0x74 }
  - { offset: 0xF2885, size: 0x8, addend: 0x0, symName: __RNvMNtCs6IAuOt8vWmF_3syn10punctuatedINtB2_10PunctuatedNtNtB4_2ty9BareFnArgNtNtB4_5token5CommaE5pairsB4_, symObjAddr: 0x51E8, symBinAddr: 0x48618, symSize: 0x74 }
  - { offset: 0xF28ED, size: 0x8, addend: 0x0, symName: __RNvMNtCs6IAuOt8vWmF_3syn10punctuatedINtB2_10PunctuatedNtNtB4_3pat3PatNtNtB4_5token2OrE5pairsB4_, symObjAddr: 0x525C, symBinAddr: 0x4868C, symSize: 0x74 }
  - { offset: 0xF293B, size: 0x8, addend: 0x0, symName: __RNvMNtCs6IAuOt8vWmF_3syn10punctuatedINtB2_10PunctuatedNtNtB4_3pat3PatNtNtB4_5token5CommaE5pairsB4_, symObjAddr: 0x52D0, symBinAddr: 0x48700, symSize: 0x74 }
  - { offset: 0xF29A3, size: 0x8, addend: 0x0, symName: __RNvMNtCs6IAuOt8vWmF_3syn10punctuatedINtB2_10PunctuatedNtNtB4_3pat8FieldPatNtNtB4_5token5CommaE5pairsB4_, symObjAddr: 0x5344, symBinAddr: 0x48774, symSize: 0x74 }
  - { offset: 0xF29D7, size: 0x8, addend: 0x0, symName: __RNvMNtCs6IAuOt8vWmF_3syn10punctuatedINtB2_10PunctuatedNtNtB4_4data5FieldNtNtB4_5token5CommaE5pairsB4_, symObjAddr: 0x53B8, symBinAddr: 0x487E8, symSize: 0x74 }
  - { offset: 0xF2A3F, size: 0x8, addend: 0x0, symName: __RNvMNtCs6IAuOt8vWmF_3syn10punctuatedINtB2_10PunctuatedNtNtB4_4data7VariantNtNtB4_5token5CommaE5pairsB4_, symObjAddr: 0x542C, symBinAddr: 0x4885C, symSize: 0x74 }
  - { offset: 0xF2AA7, size: 0x8, addend: 0x0, symName: __RNvMNtCs6IAuOt8vWmF_3syn10punctuatedINtB2_10PunctuatedNtNtB4_4expr10FieldValueNtNtB4_5token5CommaE5pairsB4_, symObjAddr: 0x54A0, symBinAddr: 0x488D0, symSize: 0x74 }
  - { offset: 0xF2B02, size: 0x8, addend: 0x0, symName: __RNvMNtCs6IAuOt8vWmF_3syn10punctuatedINtB2_10PunctuatedNtNtB4_4expr4ExprNtNtB4_5token5CommaE5pairsB4_, symObjAddr: 0x5514, symBinAddr: 0x48944, symSize: 0x74 }
  - { offset: 0xF2B36, size: 0x8, addend: 0x0, symName: __RNvMNtCs6IAuOt8vWmF_3syn10punctuatedINtB2_10PunctuatedNtNtB4_4item5FnArgNtNtB4_5token5CommaE5pairsB4_, symObjAddr: 0x5588, symBinAddr: 0x489B8, symSize: 0x74 }
  - { offset: 0xF2B9E, size: 0x8, addend: 0x0, symName: __RNvMNtCs6IAuOt8vWmF_3syn10punctuatedINtB2_10PunctuatedNtNtB4_4item7UseTreeNtNtB4_5token5CommaE5pairsB4_, symObjAddr: 0x55FC, symBinAddr: 0x48A2C, symSize: 0x74 }
  - { offset: 0xF2BD2, size: 0x8, addend: 0x0, symName: __RNvMNtCs6IAuOt8vWmF_3syn10punctuatedINtB2_10PunctuatedNtNtB4_4path11PathSegmentNtNtB4_5token7PathSepE5pairsB4_, symObjAddr: 0x5670, symBinAddr: 0x48AA0, symSize: 0x74 }
  - { offset: 0xF2C2D, size: 0x8, addend: 0x0, symName: __RNvMNtCs6IAuOt8vWmF_3syn10punctuatedINtB2_10PunctuatedNtNtB4_4path15GenericArgumentNtNtB4_5token5CommaE5pairsB4_, symObjAddr: 0x56E4, symBinAddr: 0x48B14, symSize: 0x74 }
  - { offset: 0xF2C61, size: 0x8, addend: 0x0, symName: __RNvMNtCs6IAuOt8vWmF_3syn10punctuatedINtB2_10PunctuatedNtNtB4_8generics12GenericParamNtNtB4_5token5CommaE5pairsB4_, symObjAddr: 0x5758, symBinAddr: 0x48B88, symSize: 0x74 }
  - { offset: 0xF2CC9, size: 0x8, addend: 0x0, symName: __RNvMNtCs6IAuOt8vWmF_3syn10punctuatedINtB2_10PunctuatedNtNtB4_8generics13CapturedParamNtNtB4_5token5CommaE5pairsB4_, symObjAddr: 0x57CC, symBinAddr: 0x48BFC, symSize: 0x74 }
  - { offset: 0xF2CFD, size: 0x8, addend: 0x0, symName: __RNvMNtCs6IAuOt8vWmF_3syn10punctuatedINtB2_10PunctuatedNtNtB4_8generics14TypeParamBoundNtNtB4_5token4PlusE5pairsB4_, symObjAddr: 0x5840, symBinAddr: 0x48C70, symSize: 0x74 }
  - { offset: 0xF2D58, size: 0x8, addend: 0x0, symName: __RNvMNtCs6IAuOt8vWmF_3syn10punctuatedINtB2_10PunctuatedNtNtB4_8generics14WherePredicateNtNtB4_5token5CommaE5pairsB4_, symObjAddr: 0x58B4, symBinAddr: 0x48CE4, symSize: 0x74 }
  - { offset: 0xF2D8C, size: 0x8, addend: 0x0, symName: __RNvMNtCs6IAuOt8vWmF_3syn10punctuatedINtB2_10PunctuatedNtNtB4_8lifetime8LifetimeNtNtB4_5token4PlusE5pairsB4_, symObjAddr: 0x5928, symBinAddr: 0x48D58, symSize: 0x74 }
  - { offset: 0xF2DC0, size: 0x8, addend: 0x0, symName: __RNvMNtCs6IAuOt8vWmF_3syn10punctuatedINtB2_10PunctuatedNtNtB4_4path11PathSegmentNtNtB4_5token7PathSepE10into_pairsB4_, symObjAddr: 0x599C, symBinAddr: 0x48DCC, symSize: 0x108 }
  - { offset: 0xF2E02, size: 0x8, addend: 0x0, symName: __RNvMNtCs6IAuOt8vWmF_3syn10punctuatedINtB2_10PunctuatedNtNtB4_2ty4TypeNtNtB4_5token5CommaE10push_valueB4_, symObjAddr: 0x5B3C, symBinAddr: 0x48F6C, symSize: 0x1B4 }
  - { offset: 0xF2E70, size: 0x8, addend: 0x0, symName: __RNvMNtCs6IAuOt8vWmF_3syn10punctuatedINtB2_10PunctuatedNtNtB4_2ty9BareFnArgNtNtB4_5token5CommaE10push_valueB4_, symObjAddr: 0x5CF0, symBinAddr: 0x49120, symSize: 0x1B4 }
  - { offset: 0xF2EDE, size: 0x8, addend: 0x0, symName: __RNvMNtCs6IAuOt8vWmF_3syn10punctuatedINtB2_10PunctuatedNtNtB4_3pat3PatNtNtB4_5token2OrE10push_valueB4_, symObjAddr: 0x5EA4, symBinAddr: 0x492D4, symSize: 0x1B4 }
  - { offset: 0xF2F4C, size: 0x8, addend: 0x0, symName: __RNvMNtCs6IAuOt8vWmF_3syn10punctuatedINtB2_10PunctuatedNtNtB4_3pat3PatNtNtB4_5token5CommaE10push_valueB4_, symObjAddr: 0x6058, symBinAddr: 0x49488, symSize: 0x1B4 }
  - { offset: 0xF2FBA, size: 0x8, addend: 0x0, symName: __RNvMNtCs6IAuOt8vWmF_3syn10punctuatedINtB2_10PunctuatedNtNtB4_3pat8FieldPatNtNtB4_5token5CommaE10push_valueB4_, symObjAddr: 0x620C, symBinAddr: 0x4963C, symSize: 0x1B4 }
  - { offset: 0xF301B, size: 0x8, addend: 0x0, symName: __RNvMNtCs6IAuOt8vWmF_3syn10punctuatedINtB2_10PunctuatedNtNtB4_4data5FieldNtNtB4_5token5CommaE10push_valueB4_, symObjAddr: 0x63C0, symBinAddr: 0x497F0, symSize: 0x1B4 }
  - { offset: 0xF3089, size: 0x8, addend: 0x0, symName: __RNvMNtCs6IAuOt8vWmF_3syn10punctuatedINtB2_10PunctuatedNtNtB4_4data7VariantNtNtB4_5token5CommaE10push_valueB4_, symObjAddr: 0x6574, symBinAddr: 0x499A4, symSize: 0x1B4 }
  - { offset: 0xF30F7, size: 0x8, addend: 0x0, symName: __RNvMNtCs6IAuOt8vWmF_3syn10punctuatedINtB2_10PunctuatedNtNtB4_4expr10FieldValueNtNtB4_5token5CommaE10push_valueB4_, symObjAddr: 0x6728, symBinAddr: 0x49B58, symSize: 0x1B4 }
  - { offset: 0xF3165, size: 0x8, addend: 0x0, symName: __RNvMNtCs6IAuOt8vWmF_3syn10punctuatedINtB2_10PunctuatedNtNtB4_4expr4ExprNtNtB4_5token5CommaE10push_valueB4_, symObjAddr: 0x68DC, symBinAddr: 0x49D0C, symSize: 0x1B4 }
  - { offset: 0xF31D3, size: 0x8, addend: 0x0, symName: __RNvMNtCs6IAuOt8vWmF_3syn10punctuatedINtB2_10PunctuatedNtNtB4_4item5FnArgNtNtB4_5token5CommaE10push_valueB4_, symObjAddr: 0x6A90, symBinAddr: 0x49EC0, symSize: 0x1B4 }
  - { offset: 0xF3241, size: 0x8, addend: 0x0, symName: __RNvMNtCs6IAuOt8vWmF_3syn10punctuatedINtB2_10PunctuatedNtNtB4_4item7UseTreeNtNtB4_5token5CommaE10push_valueB4_, symObjAddr: 0x6C44, symBinAddr: 0x4A074, symSize: 0x1B4 }
  - { offset: 0xF32A2, size: 0x8, addend: 0x0, symName: __RNvMNtCs6IAuOt8vWmF_3syn10punctuatedINtB2_10PunctuatedNtNtB4_4path11PathSegmentNtNtB4_5token7PathSepE10push_valueB4_, symObjAddr: 0x6DF8, symBinAddr: 0x4A228, symSize: 0x1B4 }
  - { offset: 0xF3310, size: 0x8, addend: 0x0, symName: __RNvMNtCs6IAuOt8vWmF_3syn10punctuatedINtB2_10PunctuatedNtNtB4_4path15GenericArgumentNtNtB4_5token5CommaE10push_valueB4_, symObjAddr: 0x6FAC, symBinAddr: 0x4A3DC, symSize: 0x1B4 }
  - { offset: 0xF3371, size: 0x8, addend: 0x0, symName: __RNvMNtCs6IAuOt8vWmF_3syn10punctuatedINtB2_10PunctuatedNtNtB4_8generics12GenericParamNtNtB4_5token5CommaE10push_valueB4_, symObjAddr: 0x7160, symBinAddr: 0x4A590, symSize: 0x1B4 }
  - { offset: 0xF33DF, size: 0x8, addend: 0x0, symName: __RNvMNtCs6IAuOt8vWmF_3syn10punctuatedINtB2_10PunctuatedNtNtB4_8generics13CapturedParamNtNtB4_5token5CommaE10push_valueB4_, symObjAddr: 0x7314, symBinAddr: 0x4A744, symSize: 0x1AC }
  - { offset: 0xF344D, size: 0x8, addend: 0x0, symName: __RNvMNtCs6IAuOt8vWmF_3syn10punctuatedINtB2_10PunctuatedNtNtB4_8generics14TypeParamBoundNtNtB4_5token4PlusE10push_valueB4_, symObjAddr: 0x74C0, symBinAddr: 0x4A8F0, symSize: 0x1B4 }
  - { offset: 0xF34BB, size: 0x8, addend: 0x0, symName: __RNvMNtCs6IAuOt8vWmF_3syn10punctuatedINtB2_10PunctuatedNtNtB4_8generics14WherePredicateNtNtB4_5token5CommaE10push_valueB4_, symObjAddr: 0x7674, symBinAddr: 0x4AAA4, symSize: 0x1B4 }
  - { offset: 0xF3529, size: 0x8, addend: 0x0, symName: __RNvMNtCs6IAuOt8vWmF_3syn10punctuatedINtB2_10PunctuatedNtNtB4_8lifetime8LifetimeNtNtB4_5token4PlusE10push_valueB4_, symObjAddr: 0x7828, symBinAddr: 0x4AC58, symSize: 0x1A4 }
  - { offset: 0xF35B5, size: 0x8, addend: 0x0, symName: __RNvMNtCs6IAuOt8vWmF_3syn10punctuatedINtB2_10PunctuatedNtNtB4_2ty4TypeNtNtB4_5token5CommaE10push_punctB4_, symObjAddr: 0x79CC, symBinAddr: 0x4ADFC, symSize: 0x200 }
  - { offset: 0xF365E, size: 0x8, addend: 0x0, symName: __RNvMNtCs6IAuOt8vWmF_3syn10punctuatedINtB2_10PunctuatedNtNtB4_2ty9BareFnArgNtNtB4_5token5CommaE10push_punctB4_, symObjAddr: 0x7BCC, symBinAddr: 0x4AFFC, symSize: 0x200 }
  - { offset: 0xF3707, size: 0x8, addend: 0x0, symName: __RNvMNtCs6IAuOt8vWmF_3syn10punctuatedINtB2_10PunctuatedNtNtB4_3pat3PatNtNtB4_5token2OrE10push_punctB4_, symObjAddr: 0x7DCC, symBinAddr: 0x4B1FC, symSize: 0x200 }
  - { offset: 0xF3785, size: 0x8, addend: 0x0, symName: __RNvMNtCs6IAuOt8vWmF_3syn10punctuatedINtB2_10PunctuatedNtNtB4_3pat3PatNtNtB4_5token5CommaE10push_punctB4_, symObjAddr: 0x7FCC, symBinAddr: 0x4B3FC, symSize: 0x200 }
  - { offset: 0xF382E, size: 0x8, addend: 0x0, symName: __RNvMNtCs6IAuOt8vWmF_3syn10punctuatedINtB2_10PunctuatedNtNtB4_3pat8FieldPatNtNtB4_5token5CommaE10push_punctB4_, symObjAddr: 0x81CC, symBinAddr: 0x4B5FC, symSize: 0x200 }
  - { offset: 0xF38D7, size: 0x8, addend: 0x0, symName: __RNvMNtCs6IAuOt8vWmF_3syn10punctuatedINtB2_10PunctuatedNtNtB4_4data5FieldNtNtB4_5token5CommaE10push_punctB4_, symObjAddr: 0x83CC, symBinAddr: 0x4B7FC, symSize: 0x200 }
  - { offset: 0xF3980, size: 0x8, addend: 0x0, symName: __RNvMNtCs6IAuOt8vWmF_3syn10punctuatedINtB2_10PunctuatedNtNtB4_4data7VariantNtNtB4_5token5CommaE10push_punctB4_, symObjAddr: 0x85CC, symBinAddr: 0x4B9FC, symSize: 0x200 }
  - { offset: 0xF3A29, size: 0x8, addend: 0x0, symName: __RNvMNtCs6IAuOt8vWmF_3syn10punctuatedINtB2_10PunctuatedNtNtB4_4expr10FieldValueNtNtB4_5token5CommaE10push_punctB4_, symObjAddr: 0x87CC, symBinAddr: 0x4BBFC, symSize: 0x200 }
  - { offset: 0xF3AD2, size: 0x8, addend: 0x0, symName: __RNvMNtCs6IAuOt8vWmF_3syn10punctuatedINtB2_10PunctuatedNtNtB4_4expr4ExprNtNtB4_5token5CommaE10push_punctB4_, symObjAddr: 0x89CC, symBinAddr: 0x4BDFC, symSize: 0x200 }
  - { offset: 0xF3B7B, size: 0x8, addend: 0x0, symName: __RNvMNtCs6IAuOt8vWmF_3syn10punctuatedINtB2_10PunctuatedNtNtB4_4item5FnArgNtNtB4_5token5CommaE10push_punctB4_, symObjAddr: 0x8BCC, symBinAddr: 0x4BFFC, symSize: 0x200 }
  - { offset: 0xF3C24, size: 0x8, addend: 0x0, symName: __RNvMNtCs6IAuOt8vWmF_3syn10punctuatedINtB2_10PunctuatedNtNtB4_4item7UseTreeNtNtB4_5token5CommaE10push_punctB4_, symObjAddr: 0x8DCC, symBinAddr: 0x4C1FC, symSize: 0x200 }
  - { offset: 0xF3CCD, size: 0x8, addend: 0x0, symName: __RNvMNtCs6IAuOt8vWmF_3syn10punctuatedINtB2_10PunctuatedNtNtB4_4path11PathSegmentNtNtB4_5token7PathSepE10push_punctB4_, symObjAddr: 0x8FCC, symBinAddr: 0x4C3FC, symSize: 0x200 }
  - { offset: 0xF3D76, size: 0x8, addend: 0x0, symName: __RNvMNtCs6IAuOt8vWmF_3syn10punctuatedINtB2_10PunctuatedNtNtB4_4path15GenericArgumentNtNtB4_5token5CommaE10push_punctB4_, symObjAddr: 0x91CC, symBinAddr: 0x4C5FC, symSize: 0x200 }
  - { offset: 0xF3E1F, size: 0x8, addend: 0x0, symName: __RNvMNtCs6IAuOt8vWmF_3syn10punctuatedINtB2_10PunctuatedNtNtB4_8generics12GenericParamNtNtB4_5token5CommaE10push_punctB4_, symObjAddr: 0x93CC, symBinAddr: 0x4C7FC, symSize: 0x204 }
  - { offset: 0xF3EC8, size: 0x8, addend: 0x0, symName: __RNvMNtCs6IAuOt8vWmF_3syn10punctuatedINtB2_10PunctuatedNtNtB4_8generics13CapturedParamNtNtB4_5token5CommaE10push_punctB4_, symObjAddr: 0x95D0, symBinAddr: 0x4CA00, symSize: 0x200 }
  - { offset: 0xF3F71, size: 0x8, addend: 0x0, symName: __RNvMNtCs6IAuOt8vWmF_3syn10punctuatedINtB2_10PunctuatedNtNtB4_8generics14TypeParamBoundNtNtB4_5token4PlusE10push_punctB4_, symObjAddr: 0x97D0, symBinAddr: 0x4CC00, symSize: 0x200 }
  - { offset: 0xF401A, size: 0x8, addend: 0x0, symName: __RNvMNtCs6IAuOt8vWmF_3syn10punctuatedINtB2_10PunctuatedNtNtB4_8generics14WherePredicateNtNtB4_5token5CommaE10push_punctB4_, symObjAddr: 0x99D0, symBinAddr: 0x4CE00, symSize: 0x200 }
  - { offset: 0xF40C3, size: 0x8, addend: 0x0, symName: __RNvMNtCs6IAuOt8vWmF_3syn10punctuatedINtB2_10PunctuatedNtNtB4_8lifetime8LifetimeNtNtB4_5token4PlusE10push_punctB4_, symObjAddr: 0x9BD0, symBinAddr: 0x4D000, symSize: 0x1F8 }
  - { offset: 0xF4140, size: 0x8, addend: 0x0, symName: __RNvMNtCs6IAuOt8vWmF_3syn10punctuatedINtB2_10PunctuatedNtNtB4_4path11PathSegmentNtNtB4_5token7PathSepE3popB4_, symObjAddr: 0x9DC8, symBinAddr: 0x4D1F8, symSize: 0x90 }
  - { offset: 0xF4174, size: 0x8, addend: 0x0, symName: __RNvMNtCs6IAuOt8vWmF_3syn10punctuatedINtB2_10PunctuatedNtNtB4_2ty4TypeNtNtB4_5token5CommaE14trailing_punctB4_, symObjAddr: 0x9F90, symBinAddr: 0x4D3C0, symSize: 0x80 }
  - { offset: 0xF41A8, size: 0x8, addend: 0x0, symName: __RNvMNtCs6IAuOt8vWmF_3syn10punctuatedINtB2_10PunctuatedNtNtB4_3pat3PatNtNtB4_5token5CommaE14trailing_punctB4_, symObjAddr: 0xA010, symBinAddr: 0x4D440, symSize: 0x80 }
  - { offset: 0xF41DC, size: 0x8, addend: 0x0, symName: __RNvMNtCs6IAuOt8vWmF_3syn10punctuatedINtB2_10PunctuatedNtNtB4_4expr4ExprNtNtB4_5token5CommaE14trailing_punctB4_, symObjAddr: 0xA090, symBinAddr: 0x4D4C0, symSize: 0x80 }
  - { offset: 0xF4210, size: 0x8, addend: 0x0, symName: __RNvMNtCs6IAuOt8vWmF_3syn10punctuatedINtB2_10PunctuatedNtNtB4_4path11PathSegmentNtNtB4_5token7PathSepE14trailing_punctB4_, symObjAddr: 0xA110, symBinAddr: 0x4D540, symSize: 0x80 }
  - { offset: 0xF4244, size: 0x8, addend: 0x0, symName: __RNvMNtCs6IAuOt8vWmF_3syn10punctuatedINtB2_10PunctuatedNtNtB4_8generics14TypeParamBoundNtNtB4_5token4PlusE14trailing_punctB4_, symObjAddr: 0xA190, symBinAddr: 0x4D5C0, symSize: 0x80 }
  - { offset: 0xF4278, size: 0x8, addend: 0x0, symName: __RNvMNtCs6IAuOt8vWmF_3syn10punctuatedINtB2_10PunctuatedNtNtB4_2ty4TypeNtNtB4_5token5CommaE17empty_or_trailingB4_, symObjAddr: 0xA210, symBinAddr: 0x4D640, symSize: 0x34 }
  - { offset: 0xF42AC, size: 0x8, addend: 0x0, symName: __RNvMNtCs6IAuOt8vWmF_3syn10punctuatedINtB2_10PunctuatedNtNtB4_2ty9BareFnArgNtNtB4_5token5CommaE17empty_or_trailingB4_, symObjAddr: 0xA244, symBinAddr: 0x4D674, symSize: 0x34 }
  - { offset: 0xF42E0, size: 0x8, addend: 0x0, symName: __RNvMNtCs6IAuOt8vWmF_3syn10punctuatedINtB2_10PunctuatedNtNtB4_3pat3PatNtNtB4_5token2OrE17empty_or_trailingB4_, symObjAddr: 0xA278, symBinAddr: 0x4D6A8, symSize: 0x34 }
  - { offset: 0xF4314, size: 0x8, addend: 0x0, symName: __RNvMNtCs6IAuOt8vWmF_3syn10punctuatedINtB2_10PunctuatedNtNtB4_3pat3PatNtNtB4_5token5CommaE17empty_or_trailingB4_, symObjAddr: 0xA2AC, symBinAddr: 0x4D6DC, symSize: 0x34 }
  - { offset: 0xF4348, size: 0x8, addend: 0x0, symName: __RNvMNtCs6IAuOt8vWmF_3syn10punctuatedINtB2_10PunctuatedNtNtB4_3pat8FieldPatNtNtB4_5token5CommaE17empty_or_trailingB4_, symObjAddr: 0xA2E0, symBinAddr: 0x4D710, symSize: 0x34 }
  - { offset: 0xF437C, size: 0x8, addend: 0x0, symName: __RNvMNtCs6IAuOt8vWmF_3syn10punctuatedINtB2_10PunctuatedNtNtB4_4data5FieldNtNtB4_5token5CommaE17empty_or_trailingB4_, symObjAddr: 0xA314, symBinAddr: 0x4D744, symSize: 0x34 }
  - { offset: 0xF43B0, size: 0x8, addend: 0x0, symName: __RNvMNtCs6IAuOt8vWmF_3syn10punctuatedINtB2_10PunctuatedNtNtB4_4data7VariantNtNtB4_5token5CommaE17empty_or_trailingB4_, symObjAddr: 0xA348, symBinAddr: 0x4D778, symSize: 0x34 }
  - { offset: 0xF43E4, size: 0x8, addend: 0x0, symName: __RNvMNtCs6IAuOt8vWmF_3syn10punctuatedINtB2_10PunctuatedNtNtB4_4expr10FieldValueNtNtB4_5token5CommaE17empty_or_trailingB4_, symObjAddr: 0xA37C, symBinAddr: 0x4D7AC, symSize: 0x34 }
  - { offset: 0xF4418, size: 0x8, addend: 0x0, symName: __RNvMNtCs6IAuOt8vWmF_3syn10punctuatedINtB2_10PunctuatedNtNtB4_4expr4ExprNtNtB4_5token5CommaE17empty_or_trailingB4_, symObjAddr: 0xA3B0, symBinAddr: 0x4D7E0, symSize: 0x34 }
  - { offset: 0xF444C, size: 0x8, addend: 0x0, symName: __RNvMNtCs6IAuOt8vWmF_3syn10punctuatedINtB2_10PunctuatedNtNtB4_4item5FnArgNtNtB4_5token5CommaE17empty_or_trailingB4_, symObjAddr: 0xA3E4, symBinAddr: 0x4D814, symSize: 0x34 }
  - { offset: 0xF4480, size: 0x8, addend: 0x0, symName: __RNvMNtCs6IAuOt8vWmF_3syn10punctuatedINtB2_10PunctuatedNtNtB4_4item7UseTreeNtNtB4_5token5CommaE17empty_or_trailingB4_, symObjAddr: 0xA418, symBinAddr: 0x4D848, symSize: 0x34 }
  - { offset: 0xF44B4, size: 0x8, addend: 0x0, symName: __RNvMNtCs6IAuOt8vWmF_3syn10punctuatedINtB2_10PunctuatedNtNtB4_4path11PathSegmentNtNtB4_5token7PathSepE17empty_or_trailingB4_, symObjAddr: 0xA44C, symBinAddr: 0x4D87C, symSize: 0x34 }
  - { offset: 0xF44E8, size: 0x8, addend: 0x0, symName: __RNvMNtCs6IAuOt8vWmF_3syn10punctuatedINtB2_10PunctuatedNtNtB4_4path15GenericArgumentNtNtB4_5token5CommaE17empty_or_trailingB4_, symObjAddr: 0xA480, symBinAddr: 0x4D8B0, symSize: 0x34 }
  - { offset: 0xF451C, size: 0x8, addend: 0x0, symName: __RNvMNtCs6IAuOt8vWmF_3syn10punctuatedINtB2_10PunctuatedNtNtB4_8generics12GenericParamNtNtB4_5token5CommaE17empty_or_trailingB4_, symObjAddr: 0xA4B4, symBinAddr: 0x4D8E4, symSize: 0x34 }
  - { offset: 0xF4550, size: 0x8, addend: 0x0, symName: __RNvMNtCs6IAuOt8vWmF_3syn10punctuatedINtB2_10PunctuatedNtNtB4_8generics13CapturedParamNtNtB4_5token5CommaE17empty_or_trailingB4_, symObjAddr: 0xA4E8, symBinAddr: 0x4D918, symSize: 0x34 }
  - { offset: 0xF4584, size: 0x8, addend: 0x0, symName: __RNvMNtCs6IAuOt8vWmF_3syn10punctuatedINtB2_10PunctuatedNtNtB4_8generics14TypeParamBoundNtNtB4_5token4PlusE17empty_or_trailingB4_, symObjAddr: 0xA51C, symBinAddr: 0x4D94C, symSize: 0x34 }
  - { offset: 0xF45B8, size: 0x8, addend: 0x0, symName: __RNvMNtCs6IAuOt8vWmF_3syn10punctuatedINtB2_10PunctuatedNtNtB4_8generics14WherePredicateNtNtB4_5token5CommaE17empty_or_trailingB4_, symObjAddr: 0xA550, symBinAddr: 0x4D980, symSize: 0x34 }
  - { offset: 0xF45EC, size: 0x8, addend: 0x0, symName: __RNvMNtCs6IAuOt8vWmF_3syn10punctuatedINtB2_10PunctuatedNtNtB4_8lifetime8LifetimeNtNtB4_5token4PlusE17empty_or_trailingB4_, symObjAddr: 0xA584, symBinAddr: 0x4D9B4, symSize: 0x34 }
  - { offset: 0xF4620, size: 0x8, addend: 0x0, symName: __RNvMNtCs6IAuOt8vWmF_3syn10punctuatedINtB2_10PunctuatedNtNtB4_4expr10FieldValueNtNtB4_5token5CommaE4pushB4_, symObjAddr: 0xA5B8, symBinAddr: 0x4D9E8, symSize: 0x124 }
  - { offset: 0xF467B, size: 0x8, addend: 0x0, symName: __RNvMNtCs6IAuOt8vWmF_3syn10punctuatedINtB2_10PunctuatedNtNtB4_2ty4TypeNtNtB4_5token5CommaE21parse_terminated_withB4_, symObjAddr: 0xA6DC, symBinAddr: 0x4DB0C, symSize: 0x35C }
  - { offset: 0xF4798, size: 0x8, addend: 0x0, symName: __RNvMNtCs6IAuOt8vWmF_3syn10punctuatedINtB2_10PunctuatedNtNtB4_4data5FieldNtNtB4_5token5CommaE21parse_terminated_withB4_, symObjAddr: 0xAA38, symBinAddr: 0x4DE68, symSize: 0x370 }
  - { offset: 0xF48B5, size: 0x8, addend: 0x0, symName: __RNvMNtCs6IAuOt8vWmF_3syn10punctuatedINtB2_10PunctuatedNtNtB4_4data7VariantNtNtB4_5token5CommaE21parse_terminated_withB4_, symObjAddr: 0xADA8, symBinAddr: 0x4E1D8, symSize: 0x35C }
  - { offset: 0xF49D2, size: 0x8, addend: 0x0, symName: __RNvMNtCs6IAuOt8vWmF_3syn10punctuatedINtB2_10PunctuatedNtNtB4_4expr4ExprNtNtB4_5token5CommaE21parse_terminated_withB4_, symObjAddr: 0xB104, symBinAddr: 0x4E534, symSize: 0x35C }
  - { offset: 0xF4B18, size: 0x8, addend: 0x0, symName: __RNvMsJ_NtCs6IAuOt8vWmF_3syn10punctuatedINtB5_4PairNtNtB7_4path11PathSegmentNtNtB7_5token7PathSepE10into_valueB7_, symObjAddr: 0x11644, symBinAddr: 0x51CDC, symSize: 0xD4 }
  - { offset: 0xF4B93, size: 0x8, addend: 0x0, symName: __RNvMsJ_NtCs6IAuOt8vWmF_3syn10punctuatedINtB5_4PairRNtNtB7_4path11PathSegmentRNtNtB7_5token7PathSepE5valueB7_, symObjAddr: 0x11718, symBinAddr: 0x51DB0, symSize: 0x74 }
  - { offset: 0xF4C0D, size: 0x8, addend: 0x0, symName: __RNvMsJ_NtCs6IAuOt8vWmF_3syn10punctuatedINtB5_4PairRNtNtB7_4path15GenericArgumentRNtNtB7_5token5CommaE5valueB7_, symObjAddr: 0x1178C, symBinAddr: 0x51E24, symSize: 0x74 }
  - { offset: 0xF4C7A, size: 0x8, addend: 0x0, symName: __RNvMsJ_NtCs6IAuOt8vWmF_3syn10punctuatedINtB5_4PairRNtNtB7_8generics12GenericParamRNtNtB7_5token5CommaE5valueB7_, symObjAddr: 0x11800, symBinAddr: 0x51E98, symSize: 0x74 }
  - { offset: 0xF4CE7, size: 0x8, addend: 0x0, symName: __RNvMsJ_NtCs6IAuOt8vWmF_3syn10punctuatedINtB5_4PairRNtNtB7_8generics13CapturedParamRNtNtB7_5token5CommaE5valueB7_, symObjAddr: 0x11874, symBinAddr: 0x51F0C, symSize: 0x74 }
  - { offset: 0xF4D47, size: 0x8, addend: 0x0, symName: __RNvMsJ_NtCs6IAuOt8vWmF_3syn10punctuatedINtB5_4PairRNtNtB7_4path11PathSegmentRNtNtB7_5token7PathSepE5punctB7_, symObjAddr: 0x118E8, symBinAddr: 0x51F80, symSize: 0x78 }
  - { offset: 0xF4DA7, size: 0x8, addend: 0x0, symName: __RNvMsJ_NtCs6IAuOt8vWmF_3syn10punctuatedINtB5_4PairRNtNtB7_4path15GenericArgumentRNtNtB7_5token5CommaE5punctB7_, symObjAddr: 0x11960, symBinAddr: 0x51FF8, symSize: 0x78 }
  - { offset: 0xF4DFA, size: 0x8, addend: 0x0, symName: __RNvMsJ_NtCs6IAuOt8vWmF_3syn10punctuatedINtB5_4PairRNtNtB7_8generics12GenericParamRNtNtB7_5token5CommaE5punctB7_, symObjAddr: 0x119D8, symBinAddr: 0x52070, symSize: 0x78 }
  - { offset: 0xF4E4D, size: 0x8, addend: 0x0, symName: __RNvMsJ_NtCs6IAuOt8vWmF_3syn10punctuatedINtB5_4PairRNtNtB7_8generics13CapturedParamRNtNtB7_5token5CommaE5punctB7_, symObjAddr: 0x11A50, symBinAddr: 0x520E8, symSize: 0x78 }
  - { offset: 0xF5300, size: 0x8, addend: 0x0, symName: __RINvMNtCsfvfooZQ3Axs_4core6optionINtB3_6OptionINtNtCs6IAuOt8vWmF_3syn10punctuated4PairNtNtBN_4path11PathSegmentNtNtBN_5token7PathSepEE7or_elseNCNvXsj_BL_INtBL_9IntoPairsB1m_B1L_ENtNtNtNtB5_4iter6traits8iterator8Iterator4nexts_0EBN_, symObjAddr: 0x0, symBinAddr: 0x53550, symSize: 0xD8 }
  - { offset: 0xFC2D7, size: 0x8, addend: 0x0, symName: __RNcNtINtNtCsfvfooZQ3Axs_4core6option6OptionNtCs3cP53eQoTwO_11proc_macro25IdentE4Some0Cs6IAuOt8vWmF_3syn, symObjAddr: 0x44F4, symBinAddr: 0x56FB8, symSize: 0x18 }
  - { offset: 0xFC30A, size: 0x8, addend: 0x0, symName: __RNcNtINtNtCsfvfooZQ3Axs_4core6option6OptionNtNtCs6IAuOt8vWmF_3syn2ty3AbiE4Some0BJ_, symObjAddr: 0x450C, symBinAddr: 0x56FD0, symSize: 0x2C }
  - { offset: 0xFC33D, size: 0x8, addend: 0x0, symName: __RNcNtINtNtCsfvfooZQ3Axs_4core6option6OptionNtNtCs6IAuOt8vWmF_3syn4expr5LabelE4Some0BJ_, symObjAddr: 0x4538, symBinAddr: 0x56FFC, symSize: 0x30 }
  - { offset: 0xFC371, size: 0x8, addend: 0x0, symName: __RNcNtINtNtCsfvfooZQ3Axs_4core6option6OptionNtNtCs6IAuOt8vWmF_3syn8generics11WhereClauseE4Some0BJ_, symObjAddr: 0x4568, symBinAddr: 0x5702C, symSize: 0x30 }
  - { offset: 0xFC3A5, size: 0x8, addend: 0x0, symName: __RNcNtINtNtCsfvfooZQ3Axs_4core6option6OptionNtNtCs6IAuOt8vWmF_3syn8generics14BoundLifetimesE4Some0BJ_, symObjAddr: 0x4598, symBinAddr: 0x5705C, symSize: 0x30 }
  - { offset: 0xFCB39, size: 0x8, addend: 0x0, symName: __RNvXs3_NtCsfvfooZQ3Axs_4core6optionINtB5_6OptionINtNtCse1nGBsou5OW_5alloc2rc2RcINtNtB7_4cell4CellNtNtCs6IAuOt8vWmF_3syn5parse10UnexpectedEEENtNtB7_5clone5Clone5cloneB1B_, symObjAddr: 0x6F90, symBinAddr: 0x5975C, symSize: 0x5C }
  - { offset: 0xFCB8E, size: 0x8, addend: 0x0, symName: __RNvXs3_NtCsfvfooZQ3Axs_4core6optionINtB5_6OptionINtNtCse1nGBsou5OW_5alloc5boxed3BoxNtNtCs6IAuOt8vWmF_3syn2ty4TypeEENtNtB7_5clone5Clone5cloneB1n_, symObjAddr: 0x6FEC, symBinAddr: 0x597B8, symSize: 0x5C }
  - { offset: 0xFCBE3, size: 0x8, addend: 0x0, symName: __RNvXs3_NtCsfvfooZQ3Axs_4core6optionINtB5_6OptionINtNtCse1nGBsou5OW_5alloc5boxed3BoxNtNtCs6IAuOt8vWmF_3syn2ty9BareFnArgEENtNtB7_5clone5Clone5cloneB1n_, symObjAddr: 0x7048, symBinAddr: 0x59814, symSize: 0x5C }
  - { offset: 0xFCC38, size: 0x8, addend: 0x0, symName: __RNvXs3_NtCsfvfooZQ3Axs_4core6optionINtB5_6OptionINtNtCse1nGBsou5OW_5alloc5boxed3BoxNtNtCs6IAuOt8vWmF_3syn3pat3PatEENtNtB7_5clone5Clone5cloneB1n_, symObjAddr: 0x70A4, symBinAddr: 0x59870, symSize: 0x5C }
  - { offset: 0xFCC8D, size: 0x8, addend: 0x0, symName: __RNvXs3_NtCsfvfooZQ3Axs_4core6optionINtB5_6OptionINtNtCse1nGBsou5OW_5alloc5boxed3BoxNtNtCs6IAuOt8vWmF_3syn3pat8FieldPatEENtNtB7_5clone5Clone5cloneB1n_, symObjAddr: 0x7100, symBinAddr: 0x598CC, symSize: 0x5C }
  - { offset: 0xFCCE2, size: 0x8, addend: 0x0, symName: __RNvXs3_NtCsfvfooZQ3Axs_4core6optionINtB5_6OptionINtNtCse1nGBsou5OW_5alloc5boxed3BoxNtNtCs6IAuOt8vWmF_3syn4data5FieldEENtNtB7_5clone5Clone5cloneB1n_, symObjAddr: 0x715C, symBinAddr: 0x59928, symSize: 0x5C }
  - { offset: 0xFCD37, size: 0x8, addend: 0x0, symName: __RNvXs3_NtCsfvfooZQ3Axs_4core6optionINtB5_6OptionINtNtCse1nGBsou5OW_5alloc5boxed3BoxNtNtCs6IAuOt8vWmF_3syn4data7VariantEENtNtB7_5clone5Clone5cloneB1n_, symObjAddr: 0x71B8, symBinAddr: 0x59984, symSize: 0x5C }
  - { offset: 0xFCD8C, size: 0x8, addend: 0x0, symName: __RNvXs3_NtCsfvfooZQ3Axs_4core6optionINtB5_6OptionINtNtCse1nGBsou5OW_5alloc5boxed3BoxNtNtCs6IAuOt8vWmF_3syn4expr10FieldValueEENtNtB7_5clone5Clone5cloneB1n_, symObjAddr: 0x7214, symBinAddr: 0x599E0, symSize: 0x5C }
  - { offset: 0xFCDE1, size: 0x8, addend: 0x0, symName: __RNvXs3_NtCsfvfooZQ3Axs_4core6optionINtB5_6OptionINtNtCse1nGBsou5OW_5alloc5boxed3BoxNtNtCs6IAuOt8vWmF_3syn4expr4ExprEENtNtB7_5clone5Clone5cloneB1n_, symObjAddr: 0x7270, symBinAddr: 0x59A3C, symSize: 0x5C }
  - { offset: 0xFCE36, size: 0x8, addend: 0x0, symName: __RNvXs3_NtCsfvfooZQ3Axs_4core6optionINtB5_6OptionINtNtCse1nGBsou5OW_5alloc5boxed3BoxNtNtCs6IAuOt8vWmF_3syn4item5FnArgEENtNtB7_5clone5Clone5cloneB1n_, symObjAddr: 0x72CC, symBinAddr: 0x59A98, symSize: 0x5C }
  - { offset: 0xFCE8B, size: 0x8, addend: 0x0, symName: __RNvXs3_NtCsfvfooZQ3Axs_4core6optionINtB5_6OptionINtNtCse1nGBsou5OW_5alloc5boxed3BoxNtNtCs6IAuOt8vWmF_3syn4item7UseTreeEENtNtB7_5clone5Clone5cloneB1n_, symObjAddr: 0x7328, symBinAddr: 0x59AF4, symSize: 0x5C }
  - { offset: 0xFCEE0, size: 0x8, addend: 0x0, symName: __RNvXs3_NtCsfvfooZQ3Axs_4core6optionINtB5_6OptionINtNtCse1nGBsou5OW_5alloc5boxed3BoxNtNtCs6IAuOt8vWmF_3syn4path11PathSegmentEENtNtB7_5clone5Clone5cloneB1n_, symObjAddr: 0x7384, symBinAddr: 0x59B50, symSize: 0x5C }
  - { offset: 0xFCF35, size: 0x8, addend: 0x0, symName: __RNvXs3_NtCsfvfooZQ3Axs_4core6optionINtB5_6OptionINtNtCse1nGBsou5OW_5alloc5boxed3BoxNtNtCs6IAuOt8vWmF_3syn4path15GenericArgumentEENtNtB7_5clone5Clone5cloneB1n_, symObjAddr: 0x73E0, symBinAddr: 0x59BAC, symSize: 0x5C }
  - { offset: 0xFCF8A, size: 0x8, addend: 0x0, symName: __RNvXs3_NtCsfvfooZQ3Axs_4core6optionINtB5_6OptionINtNtCse1nGBsou5OW_5alloc5boxed3BoxNtNtCs6IAuOt8vWmF_3syn8generics12GenericParamEENtNtB7_5clone5Clone5cloneB1n_, symObjAddr: 0x743C, symBinAddr: 0x59C08, symSize: 0x5C }
  - { offset: 0xFCFDF, size: 0x8, addend: 0x0, symName: __RNvXs3_NtCsfvfooZQ3Axs_4core6optionINtB5_6OptionINtNtCse1nGBsou5OW_5alloc5boxed3BoxNtNtCs6IAuOt8vWmF_3syn8generics13CapturedParamEENtNtB7_5clone5Clone5cloneB1n_, symObjAddr: 0x7498, symBinAddr: 0x59C64, symSize: 0x5C }
  - { offset: 0xFD034, size: 0x8, addend: 0x0, symName: __RNvXs3_NtCsfvfooZQ3Axs_4core6optionINtB5_6OptionINtNtCse1nGBsou5OW_5alloc5boxed3BoxNtNtCs6IAuOt8vWmF_3syn8generics14TypeParamBoundEENtNtB7_5clone5Clone5cloneB1n_, symObjAddr: 0x74F4, symBinAddr: 0x59CC0, symSize: 0x5C }
  - { offset: 0xFD089, size: 0x8, addend: 0x0, symName: __RNvXs3_NtCsfvfooZQ3Axs_4core6optionINtB5_6OptionINtNtCse1nGBsou5OW_5alloc5boxed3BoxNtNtCs6IAuOt8vWmF_3syn8generics14WherePredicateEENtNtB7_5clone5Clone5cloneB1n_, symObjAddr: 0x7550, symBinAddr: 0x59D1C, symSize: 0x5C }
  - { offset: 0xFD0DE, size: 0x8, addend: 0x0, symName: __RNvXs3_NtCsfvfooZQ3Axs_4core6optionINtB5_6OptionINtNtCse1nGBsou5OW_5alloc5boxed3BoxNtNtCs6IAuOt8vWmF_3syn8lifetime8LifetimeEENtNtB7_5clone5Clone5cloneB1n_, symObjAddr: 0x75AC, symBinAddr: 0x59D78, symSize: 0x5C }
  - { offset: 0xFD133, size: 0x8, addend: 0x0, symName: __RNvXs3_NtCsfvfooZQ3Axs_4core6optionINtB5_6OptionNtCs3cP53eQoTwO_11proc_macro25IdentENtNtB7_5clone5Clone5cloneCs6IAuOt8vWmF_3syn, symObjAddr: 0x7608, symBinAddr: 0x59DD4, symSize: 0x78 }
  - { offset: 0xFD188, size: 0x8, addend: 0x0, symName: __RNvXs3_NtCsfvfooZQ3Axs_4core6optionINtB5_6OptionNtNtCs6IAuOt8vWmF_3syn2ty12BareVariadicENtNtB7_5clone5Clone5cloneBO_, symObjAddr: 0x7680, symBinAddr: 0x59E4C, symSize: 0x80 }
  - { offset: 0xFD1DD, size: 0x8, addend: 0x0, symName: __RNvXs3_NtCsfvfooZQ3Axs_4core6optionINtB5_6OptionNtNtCs6IAuOt8vWmF_3syn2ty3AbiENtNtB7_5clone5Clone5cloneBO_, symObjAddr: 0x7700, symBinAddr: 0x59ECC, symSize: 0x6C }
  - { offset: 0xFD232, size: 0x8, addend: 0x0, symName: __RNvXs3_NtCsfvfooZQ3Axs_4core6optionINtB5_6OptionNtNtCs6IAuOt8vWmF_3syn2ty4TypeENtNtB7_5clone5Clone5cloneBO_, symObjAddr: 0x776C, symBinAddr: 0x59F38, symSize: 0x84 }
  - { offset: 0xFD287, size: 0x8, addend: 0x0, symName: __RNvXs3_NtCsfvfooZQ3Axs_4core6optionINtB5_6OptionNtNtCs6IAuOt8vWmF_3syn3lit6LitStrENtNtB7_5clone5Clone5cloneBO_, symObjAddr: 0x77F0, symBinAddr: 0x59FBC, symSize: 0x5C }
  - { offset: 0xFD2DC, size: 0x8, addend: 0x0, symName: __RNvXs3_NtCsfvfooZQ3Axs_4core6optionINtB5_6OptionNtNtCs6IAuOt8vWmF_3syn3pat7PatRestENtNtB7_5clone5Clone5cloneBO_, symObjAddr: 0x784C, symBinAddr: 0x5A018, symSize: 0x7C }
  - { offset: 0xFD331, size: 0x8, addend: 0x0, symName: __RNvXs3_NtCsfvfooZQ3Axs_4core6optionINtB5_6OptionNtNtCs6IAuOt8vWmF_3syn4expr4ExprENtNtB7_5clone5Clone5cloneBO_, symObjAddr: 0x78C8, symBinAddr: 0x5A094, symSize: 0x7C }
  - { offset: 0xFD386, size: 0x8, addend: 0x0, symName: __RNvXs3_NtCsfvfooZQ3Axs_4core6optionINtB5_6OptionNtNtCs6IAuOt8vWmF_3syn4expr5LabelENtNtB7_5clone5Clone5cloneBO_, symObjAddr: 0x7944, symBinAddr: 0x5A110, symSize: 0x7C }
  - { offset: 0xFD3DB, size: 0x8, addend: 0x0, symName: __RNvXs3_NtCsfvfooZQ3Axs_4core6optionINtB5_6OptionNtNtCs6IAuOt8vWmF_3syn4item15ImplRestrictionENtNtB7_5clone5Clone5cloneBO_, symObjAddr: 0x79C0, symBinAddr: 0x5A18C, symSize: 0x18 }
  - { offset: 0xFD40E, size: 0x8, addend: 0x0, symName: __RNvXs3_NtCsfvfooZQ3Axs_4core6optionINtB5_6OptionNtNtCs6IAuOt8vWmF_3syn4item8VariadicENtNtB7_5clone5Clone5cloneBO_, symObjAddr: 0x79D8, symBinAddr: 0x5A1A4, symSize: 0x80 }
  - { offset: 0xFD463, size: 0x8, addend: 0x0, symName: __RNvXs3_NtCsfvfooZQ3Axs_4core6optionINtB5_6OptionNtNtCs6IAuOt8vWmF_3syn4path30AngleBracketedGenericArgumentsENtNtB7_5clone5Clone5cloneBO_, symObjAddr: 0x7A58, symBinAddr: 0x5A224, symSize: 0x80 }
  - { offset: 0xFD4B8, size: 0x8, addend: 0x0, symName: __RNvXs3_NtCsfvfooZQ3Axs_4core6optionINtB5_6OptionNtNtCs6IAuOt8vWmF_3syn4path5QSelfENtNtB7_5clone5Clone5cloneBO_, symObjAddr: 0x7AD8, symBinAddr: 0x5A2A4, symSize: 0x78 }
  - { offset: 0xFD50D, size: 0x8, addend: 0x0, symName: __RNvXs3_NtCsfvfooZQ3Axs_4core6optionINtB5_6OptionNtNtCs6IAuOt8vWmF_3syn4stmt5BlockENtNtB7_5clone5Clone5cloneBO_, symObjAddr: 0x7B50, symBinAddr: 0x5A31C, symSize: 0x80 }
  - { offset: 0xFD562, size: 0x8, addend: 0x0, symName: __RNvXs3_NtCsfvfooZQ3Axs_4core6optionINtB5_6OptionNtNtCs6IAuOt8vWmF_3syn4stmt9LocalInitENtNtB7_5clone5Clone5cloneBO_, symObjAddr: 0x7BD0, symBinAddr: 0x5A39C, symSize: 0x74 }
  - { offset: 0xFD5B7, size: 0x8, addend: 0x0, symName: __RNvXs3_NtCsfvfooZQ3Axs_4core6optionINtB5_6OptionNtNtCs6IAuOt8vWmF_3syn5token2AsENtNtB7_5clone5Clone5cloneBO_, symObjAddr: 0x7C44, symBinAddr: 0x5A410, symSize: 0x64 }
  - { offset: 0xFD60C, size: 0x8, addend: 0x0, symName: __RNvXs3_NtCsfvfooZQ3Axs_4core6optionINtB5_6OptionNtNtCs6IAuOt8vWmF_3syn5token2EqENtNtB7_5clone5Clone5cloneBO_, symObjAddr: 0x7CA8, symBinAddr: 0x5A474, symSize: 0x70 }
  - { offset: 0xFD661, size: 0x8, addend: 0x0, symName: __RNvXs3_NtCsfvfooZQ3Axs_4core6optionINtB5_6OptionNtNtCs6IAuOt8vWmF_3syn5token2GtENtNtB7_5clone5Clone5cloneBO_, symObjAddr: 0x7D18, symBinAddr: 0x5A4E4, symSize: 0x70 }
  - { offset: 0xFD6B6, size: 0x8, addend: 0x0, symName: __RNvXs3_NtCsfvfooZQ3Axs_4core6optionINtB5_6OptionNtNtCs6IAuOt8vWmF_3syn5token2InENtNtB7_5clone5Clone5cloneBO_, symObjAddr: 0x7D88, symBinAddr: 0x5A554, symSize: 0x64 }
  - { offset: 0xFD70B, size: 0x8, addend: 0x0, symName: __RNvXs3_NtCsfvfooZQ3Axs_4core6optionINtB5_6OptionNtNtCs6IAuOt8vWmF_3syn5token2LtENtNtB7_5clone5Clone5cloneBO_, symObjAddr: 0x7DEC, symBinAddr: 0x5A5B8, symSize: 0x70 }
  - { offset: 0xFD760, size: 0x8, addend: 0x0, symName: __RNvXs3_NtCsfvfooZQ3Axs_4core6optionINtB5_6OptionNtNtCs6IAuOt8vWmF_3syn5token2OrENtNtB7_5clone5Clone5cloneBO_, symObjAddr: 0x7E5C, symBinAddr: 0x5A628, symSize: 0x70 }
  - { offset: 0xFD7B5, size: 0x8, addend: 0x0, symName: __RNvXs3_NtCsfvfooZQ3Axs_4core6optionINtB5_6OptionNtNtCs6IAuOt8vWmF_3syn5token3DynENtNtB7_5clone5Clone5cloneBO_, symObjAddr: 0x7ECC, symBinAddr: 0x5A698, symSize: 0x64 }
  - { offset: 0xFD80A, size: 0x8, addend: 0x0, symName: __RNvXs3_NtCsfvfooZQ3Axs_4core6optionINtB5_6OptionNtNtCs6IAuOt8vWmF_3syn5token3MutENtNtB7_5clone5Clone5cloneBO_, symObjAddr: 0x7F30, symBinAddr: 0x5A6FC, symSize: 0x64 }
  - { offset: 0xFD85F, size: 0x8, addend: 0x0, symName: __RNvXs3_NtCsfvfooZQ3Axs_4core6optionINtB5_6OptionNtNtCs6IAuOt8vWmF_3syn5token3NotENtNtB7_5clone5Clone5cloneBO_, symObjAddr: 0x7F94, symBinAddr: 0x5A760, symSize: 0x70 }
  - { offset: 0xFD8B4, size: 0x8, addend: 0x0, symName: __RNvXs3_NtCsfvfooZQ3Axs_4core6optionINtB5_6OptionNtNtCs6IAuOt8vWmF_3syn5token3RefENtNtB7_5clone5Clone5cloneBO_, symObjAddr: 0x8004, symBinAddr: 0x5A7D0, symSize: 0x64 }
  - { offset: 0xFD909, size: 0x8, addend: 0x0, symName: __RNvXs3_NtCsfvfooZQ3Axs_4core6optionINtB5_6OptionNtNtCs6IAuOt8vWmF_3syn5token4AutoENtNtB7_5clone5Clone5cloneBO_, symObjAddr: 0x8068, symBinAddr: 0x5A834, symSize: 0x64 }
  - { offset: 0xFD95E, size: 0x8, addend: 0x0, symName: __RNvXs3_NtCsfvfooZQ3Axs_4core6optionINtB5_6OptionNtNtCs6IAuOt8vWmF_3syn5token4MoveENtNtB7_5clone5Clone5cloneBO_, symObjAddr: 0x80CC, symBinAddr: 0x5A898, symSize: 0x64 }
  - { offset: 0xFD9B3, size: 0x8, addend: 0x0, symName: __RNvXs3_NtCsfvfooZQ3Axs_4core6optionINtB5_6OptionNtNtCs6IAuOt8vWmF_3syn5token4SemiENtNtB7_5clone5Clone5cloneBO_, symObjAddr: 0x8130, symBinAddr: 0x5A8FC, symSize: 0x70 }
  - { offset: 0xFDA08, size: 0x8, addend: 0x0, symName: __RNvXs3_NtCsfvfooZQ3Axs_4core6optionINtB5_6OptionNtNtCs6IAuOt8vWmF_3syn5token5AsyncENtNtB7_5clone5Clone5cloneBO_, symObjAddr: 0x81A0, symBinAddr: 0x5A96C, symSize: 0x64 }
  - { offset: 0xFDA5D, size: 0x8, addend: 0x0, symName: __RNvXs3_NtCsfvfooZQ3Axs_4core6optionINtB5_6OptionNtNtCs6IAuOt8vWmF_3syn5token5ColonENtNtB7_5clone5Clone5cloneBO_, symObjAddr: 0x8204, symBinAddr: 0x5A9D0, symSize: 0x70 }
  - { offset: 0xFDAB2, size: 0x8, addend: 0x0, symName: __RNvXs3_NtCsfvfooZQ3Axs_4core6optionINtB5_6OptionNtNtCs6IAuOt8vWmF_3syn5token5CommaENtNtB7_5clone5Clone5cloneBO_, symObjAddr: 0x8274, symBinAddr: 0x5AA40, symSize: 0x70 }
  - { offset: 0xFDB07, size: 0x8, addend: 0x0, symName: __RNvXs3_NtCsfvfooZQ3Axs_4core6optionINtB5_6OptionNtNtCs6IAuOt8vWmF_3syn5token5ConstENtNtB7_5clone5Clone5cloneBO_, symObjAddr: 0x82E4, symBinAddr: 0x5AAB0, symSize: 0x64 }
  - { offset: 0xFDB5C, size: 0x8, addend: 0x0, symName: __RNvXs3_NtCsfvfooZQ3Axs_4core6optionINtB5_6OptionNtNtCs6IAuOt8vWmF_3syn5token5ParenENtNtB7_5clone5Clone5cloneBO_, symObjAddr: 0x8348, symBinAddr: 0x5AB14, symSize: 0x78 }
  - { offset: 0xFDBB1, size: 0x8, addend: 0x0, symName: __RNvXs3_NtCsfvfooZQ3Axs_4core6optionINtB5_6OptionNtNtCs6IAuOt8vWmF_3syn5token6DotDotENtNtB7_5clone5Clone5cloneBO_, symObjAddr: 0x83C0, symBinAddr: 0x5AB8C, symSize: 0x78 }
  - { offset: 0xFDC06, size: 0x8, addend: 0x0, symName: __RNvXs3_NtCsfvfooZQ3Axs_4core6optionINtB5_6OptionNtNtCs6IAuOt8vWmF_3syn5token6StaticENtNtB7_5clone5Clone5cloneBO_, symObjAddr: 0x8438, symBinAddr: 0x5AC04, symSize: 0x64 }
  - { offset: 0xFDC5B, size: 0x8, addend: 0x0, symName: __RNvXs3_NtCsfvfooZQ3Axs_4core6optionINtB5_6OptionNtNtCs6IAuOt8vWmF_3syn5token6UnsafeENtNtB7_5clone5Clone5cloneBO_, symObjAddr: 0x849C, symBinAddr: 0x5AC68, symSize: 0x64 }
  - { offset: 0xFDCB0, size: 0x8, addend: 0x0, symName: __RNvXs3_NtCsfvfooZQ3Axs_4core6optionINtB5_6OptionNtNtCs6IAuOt8vWmF_3syn5token7DefaultENtNtB7_5clone5Clone5cloneBO_, symObjAddr: 0x8500, symBinAddr: 0x5ACCC, symSize: 0x64 }
  - { offset: 0xFDD05, size: 0x8, addend: 0x0, symName: __RNvXs3_NtCsfvfooZQ3Axs_4core6optionINtB5_6OptionNtNtCs6IAuOt8vWmF_3syn5token7PathSepENtNtB7_5clone5Clone5cloneBO_, symObjAddr: 0x8564, symBinAddr: 0x5AD30, symSize: 0x78 }
  - { offset: 0xFDD5A, size: 0x8, addend: 0x0, symName: __RNvXs3_NtCsfvfooZQ3Axs_4core6optionINtB5_6OptionNtNtCs6IAuOt8vWmF_3syn8generics11WhereClauseENtNtB7_5clone5Clone5cloneBO_, symObjAddr: 0x85DC, symBinAddr: 0x5ADA8, symSize: 0x80 }
  - { offset: 0xFDDAF, size: 0x8, addend: 0x0, symName: __RNvXs3_NtCsfvfooZQ3Axs_4core6optionINtB5_6OptionNtNtCs6IAuOt8vWmF_3syn8generics14BoundLifetimesENtNtB7_5clone5Clone5cloneBO_, symObjAddr: 0x865C, symBinAddr: 0x5AE28, symSize: 0x80 }
  - { offset: 0xFDE04, size: 0x8, addend: 0x0, symName: __RNvXs3_NtCsfvfooZQ3Axs_4core6optionINtB5_6OptionNtNtCs6IAuOt8vWmF_3syn8lifetime8LifetimeENtNtB7_5clone5Clone5cloneBO_, symObjAddr: 0x86DC, symBinAddr: 0x5AEA8, symSize: 0x78 }
  - { offset: 0xFDE59, size: 0x8, addend: 0x0, symName: __RNvXs3_NtCsfvfooZQ3Axs_4core6optionINtB5_6OptionTIBy_NtNtCs6IAuOt8vWmF_3syn5token3NotENtNtBT_4path4PathNtBR_3ForEENtNtB7_5clone5Clone5cloneBT_, symObjAddr: 0x87D0, symBinAddr: 0x5AF20, symSize: 0x80 }
  - { offset: 0xFDEAE, size: 0x8, addend: 0x0, symName: __RNvXs3_NtCsfvfooZQ3Axs_4core6optionINtB5_6OptionTINtNtCse1nGBsou5OW_5alloc5boxed3BoxNtNtCs6IAuOt8vWmF_3syn3pat3PatENtNtB1o_5token5ColonEENtNtB7_5clone5Clone5cloneB1o_, symObjAddr: 0x8850, symBinAddr: 0x5AFA0, symSize: 0x6C }
  - { offset: 0xFDF03, size: 0x8, addend: 0x0, symName: __RNvXs3_NtCsfvfooZQ3Axs_4core6optionINtB5_6OptionTNtCs3cP53eQoTwO_11proc_macro25IdentNtNtCs6IAuOt8vWmF_3syn5token5ColonEENtNtB7_5clone5Clone5cloneB1o_, symObjAddr: 0x88BC, symBinAddr: 0x5B00C, symSize: 0x78 }
  - { offset: 0xFDF58, size: 0x8, addend: 0x0, symName: __RNvXs3_NtCsfvfooZQ3Axs_4core6optionINtB5_6OptionTNtNtCs6IAuOt8vWmF_3syn5token2AsNtCs3cP53eQoTwO_11proc_macro25IdentEENtNtB7_5clone5Clone5cloneBP_, symObjAddr: 0x8934, symBinAddr: 0x5B084, symSize: 0x78 }
  - { offset: 0xFDFAD, size: 0x8, addend: 0x0, symName: __RNvXs3_NtCsfvfooZQ3Axs_4core6optionINtB5_6OptionTNtNtCs6IAuOt8vWmF_3syn5token2AtINtNtCse1nGBsou5OW_5alloc5boxed3BoxNtNtBP_3pat3PatEEENtNtB7_5clone5Clone5cloneBP_, symObjAddr: 0x89AC, symBinAddr: 0x5B0FC, symSize: 0x6C }
  - { offset: 0xFE002, size: 0x8, addend: 0x0, symName: __RNvXs3_NtCsfvfooZQ3Axs_4core6optionINtB5_6OptionTNtNtCs6IAuOt8vWmF_3syn5token2EqNtNtBP_2ty4TypeEENtNtB7_5clone5Clone5cloneBP_, symObjAddr: 0x8A18, symBinAddr: 0x5B168, symSize: 0x84 }
  - { offset: 0xFE057, size: 0x8, addend: 0x0, symName: __RNvXs3_NtCsfvfooZQ3Axs_4core6optionINtB5_6OptionTNtNtCs6IAuOt8vWmF_3syn5token2EqNtNtBP_4expr4ExprEENtNtB7_5clone5Clone5cloneBP_, symObjAddr: 0x8A9C, symBinAddr: 0x5B1EC, symSize: 0x7C }
  - { offset: 0xFE0AC, size: 0x8, addend: 0x0, symName: __RNvXs3_NtCsfvfooZQ3Axs_4core6optionINtB5_6OptionTNtNtCs6IAuOt8vWmF_3syn5token2IfINtNtCse1nGBsou5OW_5alloc5boxed3BoxNtNtBP_4expr4ExprEEENtNtB7_5clone5Clone5cloneBP_, symObjAddr: 0x8B18, symBinAddr: 0x5B268, symSize: 0x64 }
  - { offset: 0xFE101, size: 0x8, addend: 0x0, symName: __RNvXs3_NtCsfvfooZQ3Axs_4core6optionINtB5_6OptionTNtNtCs6IAuOt8vWmF_3syn5token3AndIBy_NtNtBP_8lifetime8LifetimeEEENtNtB7_5clone5Clone5cloneBP_, symObjAddr: 0x8B7C, symBinAddr: 0x5B2CC, symSize: 0x7C }
  - { offset: 0xFE156, size: 0x8, addend: 0x0, symName: __RNvXs3_NtCsfvfooZQ3Axs_4core6optionINtB5_6OptionTNtNtCs6IAuOt8vWmF_3syn5token4ElseINtNtCse1nGBsou5OW_5alloc5boxed3BoxNtNtBP_4expr4ExprEEENtNtB7_5clone5Clone5cloneBP_, symObjAddr: 0x8BF8, symBinAddr: 0x5B348, symSize: 0x64 }
  - { offset: 0xFE1AB, size: 0x8, addend: 0x0, symName: __RNvXs3_NtCsfvfooZQ3Axs_4core6optionINtB5_6OptionTNtNtCs6IAuOt8vWmF_3syn5token5BraceINtNtCse1nGBsou5OW_5alloc3vec3VecNtNtBP_4item4ItemEEENtNtB7_5clone5Clone5cloneBP_, symObjAddr: 0x8C5C, symBinAddr: 0x5B3AC, symSize: 0x80 }
  - { offset: 0xFE2DE, size: 0x8, addend: 0x0, symName: __RNvXs4_NtCsfvfooZQ3Axs_4core6optionINtB5_6OptionINtNtCse1nGBsou5OW_5alloc2rc2RcINtNtB7_4cell4CellNtNtCs6IAuOt8vWmF_3syn5parse10UnexpectedEEENtNtB7_7default7Default7defaultB1B_, symObjAddr: 0x8CDC, symBinAddr: 0x5B42C, symSize: 0x14 }
  - { offset: 0xFE30C, size: 0x8, addend: 0x0, symName: __RNvXs5_NtCsfvfooZQ3Axs_4core6optionINtB5_6OptionNtNtCs6IAuOt8vWmF_3syn4path11PathSegmentENtNtNtNtB7_4iter6traits7collect12IntoIterator9into_iterBO_, symObjAddr: 0x8D40, symBinAddr: 0x5B440, symSize: 0x48 }
  - { offset: 0xFE344, size: 0x8, addend: 0x0, symName: __RNvXs5_NtCsfvfooZQ3Axs_4core6optionINtB5_6OptionNtNtCs6IAuOt8vWmF_3syn8generics14TypeParamBoundENtNtNtNtB7_4iter6traits7collect12IntoIterator9into_iterBO_, symObjAddr: 0x8D88, symBinAddr: 0x5B488, symSize: 0x48 }
  - { offset: 0xFE37C, size: 0x8, addend: 0x0, symName: __RNvXs5_NtCsfvfooZQ3Axs_4core6optionINtB5_6OptionQNtNtCs6IAuOt8vWmF_3syn4path11PathSegmentENtNtNtNtB7_4iter6traits7collect12IntoIterator9into_iterBP_, symObjAddr: 0x8DE4, symBinAddr: 0x5B4D0, symSize: 0x14 }
  - { offset: 0xFE3B3, size: 0x8, addend: 0x0, symName: __RNvXs5_NtCsfvfooZQ3Axs_4core6optionINtB5_6OptionRNtNtCs6IAuOt8vWmF_3syn2ty4TypeENtNtNtNtB7_4iter6traits7collect12IntoIterator9into_iterBP_, symObjAddr: 0x8E0C, symBinAddr: 0x5B4E4, symSize: 0x14 }
  - { offset: 0xFE3EA, size: 0x8, addend: 0x0, symName: __RNvXs5_NtCsfvfooZQ3Axs_4core6optionINtB5_6OptionRNtNtCs6IAuOt8vWmF_3syn2ty9BareFnArgENtNtNtNtB7_4iter6traits7collect12IntoIterator9into_iterBP_, symObjAddr: 0x8E20, symBinAddr: 0x5B4F8, symSize: 0x14 }
  - { offset: 0xFE421, size: 0x8, addend: 0x0, symName: __RNvXs5_NtCsfvfooZQ3Axs_4core6optionINtB5_6OptionRNtNtCs6IAuOt8vWmF_3syn3pat3PatENtNtNtNtB7_4iter6traits7collect12IntoIterator9into_iterBP_, symObjAddr: 0x8E34, symBinAddr: 0x5B50C, symSize: 0x14 }
  - { offset: 0xFE458, size: 0x8, addend: 0x0, symName: __RNvXs5_NtCsfvfooZQ3Axs_4core6optionINtB5_6OptionRNtNtCs6IAuOt8vWmF_3syn3pat8FieldPatENtNtNtNtB7_4iter6traits7collect12IntoIterator9into_iterBP_, symObjAddr: 0x8E48, symBinAddr: 0x5B520, symSize: 0x14 }
  - { offset: 0xFE48F, size: 0x8, addend: 0x0, symName: __RNvXs5_NtCsfvfooZQ3Axs_4core6optionINtB5_6OptionRNtNtCs6IAuOt8vWmF_3syn4data5FieldENtNtNtNtB7_4iter6traits7collect12IntoIterator9into_iterBP_, symObjAddr: 0x8E5C, symBinAddr: 0x5B534, symSize: 0x14 }
  - { offset: 0xFE4C6, size: 0x8, addend: 0x0, symName: __RNvXs5_NtCsfvfooZQ3Axs_4core6optionINtB5_6OptionRNtNtCs6IAuOt8vWmF_3syn4data7VariantENtNtNtNtB7_4iter6traits7collect12IntoIterator9into_iterBP_, symObjAddr: 0x8E70, symBinAddr: 0x5B548, symSize: 0x14 }
  - { offset: 0xFE4FD, size: 0x8, addend: 0x0, symName: __RNvXs5_NtCsfvfooZQ3Axs_4core6optionINtB5_6OptionRNtNtCs6IAuOt8vWmF_3syn4expr10FieldValueENtNtNtNtB7_4iter6traits7collect12IntoIterator9into_iterBP_, symObjAddr: 0x8E84, symBinAddr: 0x5B55C, symSize: 0x14 }
  - { offset: 0xFE534, size: 0x8, addend: 0x0, symName: __RNvXs5_NtCsfvfooZQ3Axs_4core6optionINtB5_6OptionRNtNtCs6IAuOt8vWmF_3syn4expr4ExprENtNtNtNtB7_4iter6traits7collect12IntoIterator9into_iterBP_, symObjAddr: 0x8E98, symBinAddr: 0x5B570, symSize: 0x14 }
  - { offset: 0xFE56B, size: 0x8, addend: 0x0, symName: __RNvXs5_NtCsfvfooZQ3Axs_4core6optionINtB5_6OptionRNtNtCs6IAuOt8vWmF_3syn4item5FnArgENtNtNtNtB7_4iter6traits7collect12IntoIterator9into_iterBP_, symObjAddr: 0x8EAC, symBinAddr: 0x5B584, symSize: 0x14 }
  - { offset: 0xFE5A2, size: 0x8, addend: 0x0, symName: __RNvXs5_NtCsfvfooZQ3Axs_4core6optionINtB5_6OptionRNtNtCs6IAuOt8vWmF_3syn4item7UseTreeENtNtNtNtB7_4iter6traits7collect12IntoIterator9into_iterBP_, symObjAddr: 0x8EC0, symBinAddr: 0x5B598, symSize: 0x14 }
  - { offset: 0xFE5D9, size: 0x8, addend: 0x0, symName: __RNvXs5_NtCsfvfooZQ3Axs_4core6optionINtB5_6OptionRNtNtCs6IAuOt8vWmF_3syn4path11PathSegmentENtNtNtNtB7_4iter6traits7collect12IntoIterator9into_iterBP_, symObjAddr: 0x8ED4, symBinAddr: 0x5B5AC, symSize: 0x14 }
  - { offset: 0xFE610, size: 0x8, addend: 0x0, symName: __RNvXs5_NtCsfvfooZQ3Axs_4core6optionINtB5_6OptionRNtNtCs6IAuOt8vWmF_3syn4path15GenericArgumentENtNtNtNtB7_4iter6traits7collect12IntoIterator9into_iterBP_, symObjAddr: 0x8EE8, symBinAddr: 0x5B5C0, symSize: 0x14 }
  - { offset: 0xFE647, size: 0x8, addend: 0x0, symName: __RNvXs5_NtCsfvfooZQ3Axs_4core6optionINtB5_6OptionRNtNtCs6IAuOt8vWmF_3syn8generics12GenericParamENtNtNtNtB7_4iter6traits7collect12IntoIterator9into_iterBP_, symObjAddr: 0x8EFC, symBinAddr: 0x5B5D4, symSize: 0x14 }
  - { offset: 0xFE67E, size: 0x8, addend: 0x0, symName: __RNvXs5_NtCsfvfooZQ3Axs_4core6optionINtB5_6OptionRNtNtCs6IAuOt8vWmF_3syn8generics13CapturedParamENtNtNtNtB7_4iter6traits7collect12IntoIterator9into_iterBP_, symObjAddr: 0x8F10, symBinAddr: 0x5B5E8, symSize: 0x14 }
  - { offset: 0xFE6B5, size: 0x8, addend: 0x0, symName: __RNvXs5_NtCsfvfooZQ3Axs_4core6optionINtB5_6OptionRNtNtCs6IAuOt8vWmF_3syn8generics14TypeParamBoundENtNtNtNtB7_4iter6traits7collect12IntoIterator9into_iterBP_, symObjAddr: 0x8F24, symBinAddr: 0x5B5FC, symSize: 0x14 }
  - { offset: 0xFE6EC, size: 0x8, addend: 0x0, symName: __RNvXs5_NtCsfvfooZQ3Axs_4core6optionINtB5_6OptionRNtNtCs6IAuOt8vWmF_3syn8generics14WherePredicateENtNtNtNtB7_4iter6traits7collect12IntoIterator9into_iterBP_, symObjAddr: 0x8F38, symBinAddr: 0x5B610, symSize: 0x14 }
  - { offset: 0xFE723, size: 0x8, addend: 0x0, symName: __RNvXs5_NtCsfvfooZQ3Axs_4core6optionINtB5_6OptionRNtNtCs6IAuOt8vWmF_3syn8lifetime8LifetimeENtNtNtNtB7_4iter6traits7collect12IntoIterator9into_iterBP_, symObjAddr: 0x8F4C, symBinAddr: 0x5B624, symSize: 0x14 }
  - { offset: 0xFE760, size: 0x8, addend: 0x0, symName: __RNvXsB_NtCsfvfooZQ3Axs_4core6optionINtB5_6OptionRNtNtCs6IAuOt8vWmF_3syn8generics12GenericParamENtNtNtB7_3ops9try_trait3Try6branchBP_, symObjAddr: 0x910C, symBinAddr: 0x5B638, symSize: 0x40 }
  - { offset: 0xFE7B5, size: 0x8, addend: 0x0, symName: __RNvXsB_NtCsfvfooZQ3Axs_4core6optionINtB5_6OptionRhENtNtNtB7_3ops9try_trait3Try6branchCs6IAuOt8vWmF_3syn, symObjAddr: 0x918C, symBinAddr: 0x5B678, symSize: 0x40 }
  - { offset: 0xFE80A, size: 0x8, addend: 0x0, symName: __RNvXsB_NtCsfvfooZQ3Axs_4core6optionINtB5_6OptionTINtNtCse1nGBsou5OW_5alloc5boxed3BoxeEBL_EENtNtNtB7_3ops9try_trait3Try6branchCs6IAuOt8vWmF_3syn, symObjAddr: 0x91CC, symBinAddr: 0x5B6B8, symSize: 0x60 }
  - { offset: 0xFE860, size: 0x8, addend: 0x0, symName: __RNvXsB_NtCsfvfooZQ3Axs_4core6optionINtB5_6OptionTNtCs3cP53eQoTwO_11proc_macro25IdentNtNtCs6IAuOt8vWmF_3syn6buffer6CursorEENtNtNtB7_3ops9try_trait3Try6branchB1o_, symObjAddr: 0x922C, symBinAddr: 0x5B718, symSize: 0x74 }
  - { offset: 0xFE8B6, size: 0x8, addend: 0x0, symName: __RNvXsB_NtCsfvfooZQ3Axs_4core6optionINtB5_6OptionTNtCs3cP53eQoTwO_11proc_macro27LiteralNtNtCs6IAuOt8vWmF_3syn6buffer6CursorEENtNtNtB7_3ops9try_trait3Try6branchB1q_, symObjAddr: 0x92A0, symBinAddr: 0x5B78C, symSize: 0x78 }
  - { offset: 0xFE90C, size: 0x8, addend: 0x0, symName: __RNvXsB_NtCsfvfooZQ3Axs_4core6optionINtB5_6OptionjENtNtNtB7_3ops9try_trait3Try11from_outputCs6IAuOt8vWmF_3syn, symObjAddr: 0x9318, symBinAddr: 0x5B804, symSize: 0x24 }
  - { offset: 0xFE943, size: 0x8, addend: 0x0, symName: __RNvXsB_NtCsfvfooZQ3Axs_4core6optionINtB5_6OptionjENtNtNtB7_3ops9try_trait3Try6branchCs6IAuOt8vWmF_3syn, symObjAddr: 0x933C, symBinAddr: 0x5B828, symSize: 0x48 }
  - { offset: 0xFE99E, size: 0x8, addend: 0x0, symName: __RNvXsC_NtCsfvfooZQ3Axs_4core6optionINtB5_6OptionRNtNtCs6IAuOt8vWmF_3syn8generics9TypeParamEINtNtNtB7_3ops9try_trait12FromResidualIBy_NtNtB7_7convert10InfallibleEE13from_residualBP_, symObjAddr: 0x942C, symBinAddr: 0x5B870, symSize: 0x14 }
  - { offset: 0xFE9D1, size: 0x8, addend: 0x0, symName: __RNvXsC_NtCsfvfooZQ3Axs_4core6optionINtB5_6OptionTINtNtCse1nGBsou5OW_5alloc5boxed3BoxeEBL_EEINtNtNtB7_3ops9try_trait12FromResidualIBy_NtNtB7_7convert10InfallibleEE13from_residualCs6IAuOt8vWmF_3syn, symObjAddr: 0x9454, symBinAddr: 0x5B884, symSize: 0x10 }
  - { offset: 0xFEA04, size: 0x8, addend: 0x0, symName: __RNvXsC_NtCsfvfooZQ3Axs_4core6optionINtB5_6OptionTNtNtCs6IAuOt8vWmF_3syn3lit3LitNtNtBP_6buffer6CursorEEINtNtNtB7_3ops9try_trait12FromResidualIBy_NtNtB7_7convert10InfallibleEE13from_residualBP_, symObjAddr: 0x9464, symBinAddr: 0x5B894, symSize: 0x1C }
  - { offset: 0xFEA37, size: 0x8, addend: 0x0, symName: __RNvXsC_NtCsfvfooZQ3Axs_4core6optionINtB5_6OptionTNtNtCs6IAuOt8vWmF_3syn8lifetime8LifetimeNtNtBP_6buffer6CursorEEINtNtNtB7_3ops9try_trait12FromResidualIBy_NtNtB7_7convert10InfallibleEE13from_residualBP_, symObjAddr: 0x9480, symBinAddr: 0x5B8B0, symSize: 0x18 }
  - { offset: 0xFEA6A, size: 0x8, addend: 0x0, symName: __RNvXsC_NtCsfvfooZQ3Axs_4core6optionINtB5_6OptionjEINtNtNtB7_3ops9try_trait12FromResidualIBy_NtNtB7_7convert10InfallibleEE13from_residualCs6IAuOt8vWmF_3syn, symObjAddr: 0x9498, symBinAddr: 0x5B8C8, symSize: 0x18 }
  - { offset: 0xFEB45, size: 0x8, addend: 0x0, symName: __RNvXsO_NtCsfvfooZQ3Axs_4core6optionINtB5_8IntoIterRNtNtCs6IAuOt8vWmF_3syn4data5FieldENtNtB7_5clone5Clone5cloneBR_, symObjAddr: 0xB4C0, symBinAddr: 0x5B928, symSize: 0x68 }
  - { offset: 0xFEBEC, size: 0x8, addend: 0x0, symName: __RNvXsO_NtCsfvfooZQ3Axs_4core6optionINtB5_8IntoIterRNtNtCs6IAuOt8vWmF_3syn4path11PathSegmentENtNtB7_5clone5Clone5cloneBR_, symObjAddr: 0xB590, symBinAddr: 0x5B990, symSize: 0x68 }
  - { offset: 0xFEC93, size: 0x8, addend: 0x0, symName: __RNvXsO_NtCsfvfooZQ3Axs_4core6optionINtB5_8IntoIterRNtNtCs6IAuOt8vWmF_3syn8generics12GenericParamENtNtB7_5clone5Clone5cloneBR_, symObjAddr: 0xB5F8, symBinAddr: 0x5B9F8, symSize: 0x68 }
  - { offset: 0xFED3A, size: 0x8, addend: 0x0, symName: __RNvXsO_NtCsfvfooZQ3Axs_4core6optionINtB5_8IntoIterRNtNtCs6IAuOt8vWmF_3syn8generics14TypeParamBoundENtNtB7_5clone5Clone5cloneBR_, symObjAddr: 0xB660, symBinAddr: 0x5BA60, symSize: 0x68 }
  - { offset: 0xFF23C, size: 0x8, addend: 0x0, symName: __RNvXsv_NtCsfvfooZQ3Axs_4core6optionINtB5_8IntoIterNtNtCs6IAuOt8vWmF_3syn4path11PathSegmentENtNtNtNtB7_4iter6traits8iterator8Iterator4nextBQ_, symObjAddr: 0xE660, symBinAddr: 0x5BC30, symSize: 0x64 }
  - { offset: 0xFF2DF, size: 0x8, addend: 0x0, symName: __RNvXsv_NtCsfvfooZQ3Axs_4core6optionINtB5_8IntoIterNtNtCs6IAuOt8vWmF_3syn8generics14TypeParamBoundENtNtNtNtB7_4iter6traits8iterator8Iterator4nextBQ_, symObjAddr: 0xE6C4, symBinAddr: 0x5BC94, symSize: 0x60 }
  - { offset: 0xFF382, size: 0x8, addend: 0x0, symName: __RNvXsv_NtCsfvfooZQ3Axs_4core6optionINtB5_8IntoIterNtNtCs6IAuOt8vWmF_3syn8generics14TypeParamBoundENtNtNtNtB7_4iter6traits8iterator8Iterator9size_hintBQ_, symObjAddr: 0xE724, symBinAddr: 0x5BCF4, symSize: 0x48 }
  - { offset: 0xFF3FA, size: 0x8, addend: 0x0, symName: __RNvXsv_NtCsfvfooZQ3Axs_4core6optionINtB5_8IntoIterQNtNtCs6IAuOt8vWmF_3syn4path11PathSegmentENtNtNtNtB7_4iter6traits8iterator8Iterator4nextBR_, symObjAddr: 0xE7D8, symBinAddr: 0x5BD3C, symSize: 0x28 }
  - { offset: 0xFF49D, size: 0x8, addend: 0x0, symName: __RNvXsv_NtCsfvfooZQ3Axs_4core6optionINtB5_8IntoIterQNtNtCs6IAuOt8vWmF_3syn4path11PathSegmentENtNtNtNtB7_4iter6traits8iterator8Iterator9size_hintBR_, symObjAddr: 0xE800, symBinAddr: 0x5BD64, symSize: 0x44 }
  - { offset: 0xFF515, size: 0x8, addend: 0x0, symName: __RNvXsv_NtCsfvfooZQ3Axs_4core6optionINtB5_8IntoIterRNtNtCs6IAuOt8vWmF_3syn2ty4TypeENtNtNtNtB7_4iter6traits8iterator8Iterator4nextBR_, symObjAddr: 0xE8B0, symBinAddr: 0x5BDA8, symSize: 0x28 }
  - { offset: 0xFF5B8, size: 0x8, addend: 0x0, symName: __RNvXsv_NtCsfvfooZQ3Axs_4core6optionINtB5_8IntoIterRNtNtCs6IAuOt8vWmF_3syn2ty9BareFnArgENtNtNtNtB7_4iter6traits8iterator8Iterator4nextBR_, symObjAddr: 0xE8D8, symBinAddr: 0x5BDD0, symSize: 0x28 }
  - { offset: 0xFF65B, size: 0x8, addend: 0x0, symName: __RNvXsv_NtCsfvfooZQ3Axs_4core6optionINtB5_8IntoIterRNtNtCs6IAuOt8vWmF_3syn3pat3PatENtNtNtNtB7_4iter6traits8iterator8Iterator4nextBR_, symObjAddr: 0xE900, symBinAddr: 0x5BDF8, symSize: 0x28 }
  - { offset: 0xFF6FE, size: 0x8, addend: 0x0, symName: __RNvXsv_NtCsfvfooZQ3Axs_4core6optionINtB5_8IntoIterRNtNtCs6IAuOt8vWmF_3syn3pat8FieldPatENtNtNtNtB7_4iter6traits8iterator8Iterator4nextBR_, symObjAddr: 0xE928, symBinAddr: 0x5BE20, symSize: 0x28 }
  - { offset: 0xFF7A1, size: 0x8, addend: 0x0, symName: __RNvXsv_NtCsfvfooZQ3Axs_4core6optionINtB5_8IntoIterRNtNtCs6IAuOt8vWmF_3syn4data5FieldENtNtNtNtB7_4iter6traits8iterator8Iterator4nextBR_, symObjAddr: 0xE950, symBinAddr: 0x5BE48, symSize: 0x28 }
  - { offset: 0xFF844, size: 0x8, addend: 0x0, symName: __RNvXsv_NtCsfvfooZQ3Axs_4core6optionINtB5_8IntoIterRNtNtCs6IAuOt8vWmF_3syn4data5FieldENtNtNtNtB7_4iter6traits8iterator8Iterator9size_hintBR_, symObjAddr: 0xE978, symBinAddr: 0x5BE70, symSize: 0x44 }
  - { offset: 0xFF8BC, size: 0x8, addend: 0x0, symName: __RNvXsv_NtCsfvfooZQ3Axs_4core6optionINtB5_8IntoIterRNtNtCs6IAuOt8vWmF_3syn4data7VariantENtNtNtNtB7_4iter6traits8iterator8Iterator4nextBR_, symObjAddr: 0xE9BC, symBinAddr: 0x5BEB4, symSize: 0x28 }
  - { offset: 0xFF95F, size: 0x8, addend: 0x0, symName: __RNvXsv_NtCsfvfooZQ3Axs_4core6optionINtB5_8IntoIterRNtNtCs6IAuOt8vWmF_3syn4expr10FieldValueENtNtNtNtB7_4iter6traits8iterator8Iterator4nextBR_, symObjAddr: 0xE9E4, symBinAddr: 0x5BEDC, symSize: 0x28 }
  - { offset: 0xFFA02, size: 0x8, addend: 0x0, symName: __RNvXsv_NtCsfvfooZQ3Axs_4core6optionINtB5_8IntoIterRNtNtCs6IAuOt8vWmF_3syn4expr4ExprENtNtNtNtB7_4iter6traits8iterator8Iterator4nextBR_, symObjAddr: 0xEA0C, symBinAddr: 0x5BF04, symSize: 0x28 }
  - { offset: 0xFFAA5, size: 0x8, addend: 0x0, symName: __RNvXsv_NtCsfvfooZQ3Axs_4core6optionINtB5_8IntoIterRNtNtCs6IAuOt8vWmF_3syn4item5FnArgENtNtNtNtB7_4iter6traits8iterator8Iterator4nextBR_, symObjAddr: 0xEA34, symBinAddr: 0x5BF2C, symSize: 0x28 }
  - { offset: 0xFFB48, size: 0x8, addend: 0x0, symName: __RNvXsv_NtCsfvfooZQ3Axs_4core6optionINtB5_8IntoIterRNtNtCs6IAuOt8vWmF_3syn4item7UseTreeENtNtNtNtB7_4iter6traits8iterator8Iterator4nextBR_, symObjAddr: 0xEAA0, symBinAddr: 0x5BF54, symSize: 0x28 }
  - { offset: 0xFFBEB, size: 0x8, addend: 0x0, symName: __RNvXsv_NtCsfvfooZQ3Axs_4core6optionINtB5_8IntoIterRNtNtCs6IAuOt8vWmF_3syn4path11PathSegmentENtNtNtNtB7_4iter6traits8iterator8Iterator4nextBR_, symObjAddr: 0xEAC8, symBinAddr: 0x5BF7C, symSize: 0x28 }
  - { offset: 0xFFC8E, size: 0x8, addend: 0x0, symName: __RNvXsv_NtCsfvfooZQ3Axs_4core6optionINtB5_8IntoIterRNtNtCs6IAuOt8vWmF_3syn4path11PathSegmentENtNtNtNtB7_4iter6traits8iterator8Iterator9size_hintBR_, symObjAddr: 0xEAF0, symBinAddr: 0x5BFA4, symSize: 0x44 }
  - { offset: 0xFFD06, size: 0x8, addend: 0x0, symName: __RNvXsv_NtCsfvfooZQ3Axs_4core6optionINtB5_8IntoIterRNtNtCs6IAuOt8vWmF_3syn4path15GenericArgumentENtNtNtNtB7_4iter6traits8iterator8Iterator4nextBR_, symObjAddr: 0xEB34, symBinAddr: 0x5BFE8, symSize: 0x28 }
  - { offset: 0xFFDA9, size: 0x8, addend: 0x0, symName: __RNvXsv_NtCsfvfooZQ3Axs_4core6optionINtB5_8IntoIterRNtNtCs6IAuOt8vWmF_3syn8generics12GenericParamENtNtNtNtB7_4iter6traits8iterator8Iterator4nextBR_, symObjAddr: 0xEB5C, symBinAddr: 0x5C010, symSize: 0x28 }
  - { offset: 0xFFE4C, size: 0x8, addend: 0x0, symName: __RNvXsv_NtCsfvfooZQ3Axs_4core6optionINtB5_8IntoIterRNtNtCs6IAuOt8vWmF_3syn8generics12GenericParamENtNtNtNtB7_4iter6traits8iterator8Iterator9size_hintBR_, symObjAddr: 0xEB84, symBinAddr: 0x5C038, symSize: 0x44 }
  - { offset: 0xFFEC4, size: 0x8, addend: 0x0, symName: __RNvXsv_NtCsfvfooZQ3Axs_4core6optionINtB5_8IntoIterRNtNtCs6IAuOt8vWmF_3syn8generics13CapturedParamENtNtNtNtB7_4iter6traits8iterator8Iterator4nextBR_, symObjAddr: 0xEBC8, symBinAddr: 0x5C07C, symSize: 0x28 }
  - { offset: 0xFFF67, size: 0x8, addend: 0x0, symName: __RNvXsv_NtCsfvfooZQ3Axs_4core6optionINtB5_8IntoIterRNtNtCs6IAuOt8vWmF_3syn8generics14TypeParamBoundENtNtNtNtB7_4iter6traits8iterator8Iterator4nextBR_, symObjAddr: 0xEBF0, symBinAddr: 0x5C0A4, symSize: 0x28 }
  - { offset: 0x10000A, size: 0x8, addend: 0x0, symName: __RNvXsv_NtCsfvfooZQ3Axs_4core6optionINtB5_8IntoIterRNtNtCs6IAuOt8vWmF_3syn8generics14TypeParamBoundENtNtNtNtB7_4iter6traits8iterator8Iterator9size_hintBR_, symObjAddr: 0xEC18, symBinAddr: 0x5C0CC, symSize: 0x44 }
  - { offset: 0x100082, size: 0x8, addend: 0x0, symName: __RNvXsv_NtCsfvfooZQ3Axs_4core6optionINtB5_8IntoIterRNtNtCs6IAuOt8vWmF_3syn8generics14WherePredicateENtNtNtNtB7_4iter6traits8iterator8Iterator4nextBR_, symObjAddr: 0xEC5C, symBinAddr: 0x5C110, symSize: 0x28 }
  - { offset: 0x100125, size: 0x8, addend: 0x0, symName: __RNvXsv_NtCsfvfooZQ3Axs_4core6optionINtB5_8IntoIterRNtNtCs6IAuOt8vWmF_3syn8lifetime8LifetimeENtNtNtNtB7_4iter6traits8iterator8Iterator4nextBR_, symObjAddr: 0xEC84, symBinAddr: 0x5C138, symSize: 0x28 }
  - { offset: 0x101417, size: 0x8, addend: 0x0, symName: __RNvNvMNtNtCsfvfooZQ3Axs_4core3ptr9const_ptrPp6offset18precondition_checkCs6IAuOt8vWmF_3syn, symObjAddr: 0x5F10, symBinAddr: 0x58824, symSize: 0xA0 }
  - { offset: 0x1015D9, size: 0x8, addend: 0x0, symName: __RNvNvMNtNtCsfvfooZQ3Axs_4core3ptr9const_ptrPp7sub_ptr18precondition_checkCs6IAuOt8vWmF_3syn, symObjAddr: 0x5FB0, symBinAddr: 0x588C4, symSize: 0x40 }
  - { offset: 0x101DCA, size: 0x8, addend: 0x0, symName: __RNvXsr_NtCsfvfooZQ3Axs_4core3fmtShNtB5_5Debug3fmtCs6IAuOt8vWmF_3syn, symObjAddr: 0xE52C, symBinAddr: 0x5BBA8, symSize: 0x88 }
  - { offset: 0x10348D, size: 0x8, addend: 0x0, symName: __RINvYINtNtCsfvfooZQ3Axs_4core6option8IntoIterNtNtCs6IAuOt8vWmF_3syn8generics14TypeParamBoundENtNtNtNtB8_4iter6traits8iterator8Iterator4folduNCINvNvB1t_8for_each4callBH_NCINvMsi_NtCse1nGBsou5OW_5alloc3vecINtB2P_3VecBH_E14extend_trustedB3_E0E0EBL_, symObjAddr: 0x3F98, symBinAddr: 0x56A5C, symSize: 0x148 }
  - { offset: 0x10351F, size: 0x8, addend: 0x0, symName: __RINvYINtNtCsfvfooZQ3Axs_4core6option8IntoIterNtNtCs6IAuOt8vWmF_3syn8generics14TypeParamBoundENtNtNtNtB8_4iter6traits8iterator8Iterator8for_eachNCINvMsi_NtCse1nGBsou5OW_5alloc3vecINtB2q_3VecBH_E14extend_trustedB3_E0EBL_, symObjAddr: 0x40E0, symBinAddr: 0x56BA4, symSize: 0x34 }
  - { offset: 0x10358B, size: 0x8, addend: 0x0, symName: __RINvYNtNtNtCsfvfooZQ3Axs_4core3ops11index_range10IndexRangeNtNtNtNtB9_4iter6traits8iterator8Iterator8try_folduNCINvMNtB7_9try_traitINtB1Q_17NeverShortCircuituE10wrap_mut_2ujNCINvXs0_NtNtB9_5array4iterINtB2U_8IntoIterNtCs3cP53eQoTwO_11proc_macro29TokenTreeKj1_EBV_4folduNCINvNtNtB11_8adapters3map8map_foldB3s_NtCs9i5KxIbZ5ph_10proc_macro9TokenTreeuNvNtB3u_3imp19into_compiler_tokenNCINvNvBV_8for_each4callB4W_NCINvXsg_B4Y_NtB4Y_11TokenStreamINtNtBZ_7collect12FromIteratorB4W_E9from_iterINtB4o_3MapB3c_B5z_EE0E0E0E0E0B25_ECs6IAuOt8vWmF_3syn, symObjAddr: 0x4114, symBinAddr: 0x56BD8, symSize: 0xF8 }
  - { offset: 0x103623, size: 0x8, addend: 0x0, symName: __RINvYNtNtNtCsfvfooZQ3Axs_4core3ops11index_range10IndexRangeNtNtNtNtB9_4iter6traits8iterator8Iterator8try_folduNCINvMNtB7_9try_traitINtB1Q_17NeverShortCircuituE10wrap_mut_2ujNCINvXs0_NtNtB9_5array4iterINtB2U_8IntoIterNtCs3cP53eQoTwO_11proc_macro29TokenTreeKj1_EBV_4folduNCINvNvBV_8for_each4callB3s_NCINvXsa_NtB3u_8fallbackNtB4U_11TokenStreamINtNtBZ_7collect6ExtendB3s_E6extendB3c_E0E0E0E0B25_ECs6IAuOt8vWmF_3syn, symObjAddr: 0x420C, symBinAddr: 0x56CD0, symSize: 0xF8 }
  - { offset: 0x1036BB, size: 0x8, addend: 0x0, symName: __RINvYNtNtNtCsfvfooZQ3Axs_4core3ops11index_range10IndexRangeNtNtNtNtB9_4iter6traits8iterator8Iterator8try_folduNCINvMNtB7_9try_traitINtB1Q_17NeverShortCircuituE10wrap_mut_2ujNCINvXs0_NtNtB9_5array4iterINtB2U_8IntoIterNtCs3cP53eQoTwO_11proc_macro29TokenTreeKj8_EBV_4folduNCINvNtNtB11_8adapters3map8map_foldB3s_NtCs9i5KxIbZ5ph_10proc_macro9TokenTreeuNvNtB3u_3imp19into_compiler_tokenNCINvNvBV_8for_each4callB4W_NCINvXsg_B4Y_NtB4Y_11TokenStreamINtNtBZ_7collect12FromIteratorB4W_E9from_iterINtB4o_3MapB3c_B5z_EE0E0E0E0E0B25_ECs6IAuOt8vWmF_3syn, symObjAddr: 0x4304, symBinAddr: 0x56DC8, symSize: 0xF8 }
  - { offset: 0x103753, size: 0x8, addend: 0x0, symName: __RINvYNtNtNtCsfvfooZQ3Axs_4core3ops11index_range10IndexRangeNtNtNtNtB9_4iter6traits8iterator8Iterator8try_folduNCINvMNtB7_9try_traitINtB1Q_17NeverShortCircuituE10wrap_mut_2ujNCINvXs0_NtNtB9_5array4iterINtB2U_8IntoIterNtCs3cP53eQoTwO_11proc_macro29TokenTreeKj8_EBV_4folduNCINvNvBV_8for_each4callB3s_NCINvXsa_NtB3u_8fallbackNtB4U_11TokenStreamINtNtBZ_7collect6ExtendB3s_E6extendB3c_E0E0E0E0B25_ECs6IAuOt8vWmF_3syn, symObjAddr: 0x43FC, symBinAddr: 0x56EC0, symSize: 0xF8 }
  - { offset: 0x1037F7, size: 0x8, addend: 0x0, symName: __RNvXNtNtNtCsfvfooZQ3Axs_4core4iter6traits7collectINtNtNtB6_8adapters3rev3RevINtNtNtB8_5slice4iter4IterhEENtB2_12IntoIterator9into_iterCs6IAuOt8vWmF_3syn, symObjAddr: 0x5FF0, symBinAddr: 0x58904, symSize: 0x1C }
  - { offset: 0x103865, size: 0x8, addend: 0x0, symName: __RNvYINtNtCsfvfooZQ3Axs_4core6option8IntoIterQNtNtCs6IAuOt8vWmF_3syn4path11PathSegmentENtNtNtNtB7_4iter6traits10exact_size17ExactSizeIterator3lenBL_, symObjAddr: 0xEDC4, symBinAddr: 0x5C184, symSize: 0xF4 }
  - { offset: 0x103958, size: 0x8, addend: 0x0, symName: __RNvYINtNtCsfvfooZQ3Axs_4core6option8IntoIterRNtNtCs6IAuOt8vWmF_3syn4data5FieldENtNtNtNtB7_4iter6traits10exact_size17ExactSizeIterator3lenBL_, symObjAddr: 0xEFAC, symBinAddr: 0x5C278, symSize: 0xF4 }
  - { offset: 0x103A4B, size: 0x8, addend: 0x0, symName: __RNvYINtNtCsfvfooZQ3Axs_4core6option8IntoIterRNtNtCs6IAuOt8vWmF_3syn4path11PathSegmentENtNtNtNtB7_4iter6traits10exact_size17ExactSizeIterator3lenBL_, symObjAddr: 0xF194, symBinAddr: 0x5C36C, symSize: 0xF4 }
  - { offset: 0x103B3E, size: 0x8, addend: 0x0, symName: __RNvYINtNtCsfvfooZQ3Axs_4core6option8IntoIterRNtNtCs6IAuOt8vWmF_3syn8generics12GenericParamENtNtNtNtB7_4iter6traits10exact_size17ExactSizeIterator3lenBL_, symObjAddr: 0xF288, symBinAddr: 0x5C460, symSize: 0xF4 }
  - { offset: 0x103C31, size: 0x8, addend: 0x0, symName: __RNvYINtNtCsfvfooZQ3Axs_4core6option8IntoIterRNtNtCs6IAuOt8vWmF_3syn8generics14TypeParamBoundENtNtNtNtB7_4iter6traits10exact_size17ExactSizeIterator3lenBL_, symObjAddr: 0xF37C, symBinAddr: 0x5C554, symSize: 0xF4 }
  - { offset: 0x103D36, size: 0x8, addend: 0x0, symName: __RNvXs_NtNtNtCsfvfooZQ3Axs_4core4iter8adapters3revINtB4_3RevINtNtNtBa_5slice4iter4IterhEENtNtNtB8_6traits8iterator8Iterator4nextCs6IAuOt8vWmF_3syn, symObjAddr: 0xB784, symBinAddr: 0x5BB84, symSize: 0x24 }
  - { offset: 0x104511, size: 0x8, addend: 0x0, symName: __RNvXs_NtNtCsfvfooZQ3Axs_4core3ops11index_rangeNtB4_10IndexRangeNtNtNtNtB8_4iter6traits8iterator8Iterator4nextCs6IAuOt8vWmF_3syn, symObjAddr: 0xB6C8, symBinAddr: 0x5BAC8, symSize: 0xBC }
  - { offset: 0x106C2B, size: 0x8, addend: 0x0, symName: __RNvXsl_NtNtCs6IAuOt8vWmF_3syn2ty7parsingINtNtCsfvfooZQ3Axs_4core6option6OptionNtB7_3AbiENtNtB9_5parse5Parse5parse, symObjAddr: 0x115DC, symBinAddr: 0x5E7B4, symSize: 0x98 }
  - { offset: 0x107C9F, size: 0x8, addend: 0x0, symName: __RNvXso_NtNtCs6IAuOt8vWmF_3syn4expr7parsingINtNtCsfvfooZQ3Axs_4core6option6OptionNtB7_5LabelENtNtB9_5parse5Parse5parse, symObjAddr: 0xF4AC, symBinAddr: 0x5C684, symSize: 0xA4 }
  - { offset: 0x107E45, size: 0x8, addend: 0x0, symName: __RNCNvXNtNtCs6IAuOt8vWmF_3syn4attr8printingNtB6_9AttributeNtNtCs2cqEZUIJimJ_5quote9to_tokens8ToTokens9to_tokens0B8_, symObjAddr: 0xF470, symBinAddr: 0x5C648, symSize: 0x3C }
  - { offset: 0x109C20, size: 0x8, addend: 0x0, symName: __RNCNvXs_NtNtCs6IAuOt8vWmF_3syn11restriction8printingNtB8_13VisRestrictedNtNtCs2cqEZUIJimJ_5quote9to_tokens8ToTokens9to_tokens0Ba_, symObjAddr: 0x1155C, symBinAddr: 0x5E734, symSize: 0x80 }
  - { offset: 0x10A11E, size: 0x8, addend: 0x0, symName: __RNvXs2_NtNtCs6IAuOt8vWmF_3syn8generics7parsingINtNtCsfvfooZQ3Axs_4core6option6OptionNtB7_14BoundLifetimesENtNtB9_5parse5Parse5parse, symObjAddr: 0xF550, symBinAddr: 0x5C728, symSize: 0x98 }
  - { offset: 0x10A152, size: 0x8, addend: 0x0, symName: __RNvXsb_NtNtCs6IAuOt8vWmF_3syn8generics7parsingINtNtCsfvfooZQ3Axs_4core6option6OptionNtB7_11WhereClauseENtNtB9_5parse5Parse5parse, symObjAddr: 0xF5E8, symBinAddr: 0x5C7C0, symSize: 0x98 }
  - { offset: 0x10A92F, size: 0x8, addend: 0x0, symName: __RNvXsb_NtCs6IAuOt8vWmF_3syn5parseINtNtCsfvfooZQ3Axs_4core6option6OptionNtCs3cP53eQoTwO_11proc_macro25IdentENtB5_5Parse5parseB7_, symObjAddr: 0xF680, symBinAddr: 0x5C858, symSize: 0x12C }
  - { offset: 0x10A985, size: 0x8, addend: 0x0, symName: __RNvXsb_NtCs6IAuOt8vWmF_3syn5parseINtNtCsfvfooZQ3Axs_4core6option6OptionNtNtB7_3lit3LitENtB5_5Parse5parseB7_, symObjAddr: 0xF7AC, symBinAddr: 0x5C984, symSize: 0x130 }
  - { offset: 0x10A9DB, size: 0x8, addend: 0x0, symName: __RNvXsb_NtCs6IAuOt8vWmF_3syn5parseINtNtCsfvfooZQ3Axs_4core6option6OptionNtNtB7_3lit6LitStrENtB5_5Parse5parseB7_, symObjAddr: 0xF8DC, symBinAddr: 0x5CAB4, symSize: 0x110 }
  - { offset: 0x10AA30, size: 0x8, addend: 0x0, symName: __RNvXsb_NtCs6IAuOt8vWmF_3syn5parseINtNtCsfvfooZQ3Axs_4core6option6OptionNtNtB7_3lit8LitFloatENtB5_5Parse5parseB7_, symObjAddr: 0xF9EC, symBinAddr: 0x5CBC4, symSize: 0x110 }
  - { offset: 0x10AA85, size: 0x8, addend: 0x0, symName: __RNvXsb_NtCs6IAuOt8vWmF_3syn5parseINtNtCsfvfooZQ3Axs_4core6option6OptionNtNtB7_5token2EqENtB5_5Parse5parseB7_, symObjAddr: 0xFAFC, symBinAddr: 0x5CCD4, symSize: 0x11C }
  - { offset: 0x10AADA, size: 0x8, addend: 0x0, symName: __RNvXsb_NtCs6IAuOt8vWmF_3syn5parseINtNtCsfvfooZQ3Axs_4core6option6OptionNtNtB7_5token2OrENtB5_5Parse5parseB7_, symObjAddr: 0xFC18, symBinAddr: 0x5CDF0, symSize: 0x11C }
  - { offset: 0x10AB2F, size: 0x8, addend: 0x0, symName: __RNvXsb_NtCs6IAuOt8vWmF_3syn5parseINtNtCsfvfooZQ3Axs_4core6option6OptionNtNtB7_5token3BoxENtB5_5Parse5parseB7_, symObjAddr: 0xFD34, symBinAddr: 0x5CF0C, symSize: 0x128 }
  - { offset: 0x10AB84, size: 0x8, addend: 0x0, symName: __RNvXsb_NtCs6IAuOt8vWmF_3syn5parseINtNtCsfvfooZQ3Axs_4core6option6OptionNtNtB7_5token3DynENtB5_5Parse5parseB7_, symObjAddr: 0xFE5C, symBinAddr: 0x5D034, symSize: 0x128 }
  - { offset: 0x10ABD9, size: 0x8, addend: 0x0, symName: __RNvXsb_NtCs6IAuOt8vWmF_3syn5parseINtNtCsfvfooZQ3Axs_4core6option6OptionNtNtB7_5token3MutENtB5_5Parse5parseB7_, symObjAddr: 0xFF84, symBinAddr: 0x5D15C, symSize: 0x128 }
  - { offset: 0x10AC2E, size: 0x8, addend: 0x0, symName: __RNvXsb_NtCs6IAuOt8vWmF_3syn5parseINtNtCsfvfooZQ3Axs_4core6option6OptionNtNtB7_5token3RefENtB5_5Parse5parseB7_, symObjAddr: 0x100AC, symBinAddr: 0x5D284, symSize: 0x128 }
  - { offset: 0x10AC83, size: 0x8, addend: 0x0, symName: __RNvXsb_NtCs6IAuOt8vWmF_3syn5parseINtNtCsfvfooZQ3Axs_4core6option6OptionNtNtB7_5token4AutoENtB5_5Parse5parseB7_, symObjAddr: 0x101D4, symBinAddr: 0x5D3AC, symSize: 0x128 }
  - { offset: 0x10ACD8, size: 0x8, addend: 0x0, symName: __RNvXsb_NtCs6IAuOt8vWmF_3syn5parseINtNtCsfvfooZQ3Axs_4core6option6OptionNtNtB7_5token4MoveENtB5_5Parse5parseB7_, symObjAddr: 0x102FC, symBinAddr: 0x5D4D4, symSize: 0x128 }
  - { offset: 0x10AD2D, size: 0x8, addend: 0x0, symName: __RNvXsb_NtCs6IAuOt8vWmF_3syn5parseINtNtCsfvfooZQ3Axs_4core6option6OptionNtNtB7_5token4PlusENtB5_5Parse5parseB7_, symObjAddr: 0x10424, symBinAddr: 0x5D5FC, symSize: 0x11C }
  - { offset: 0x10AD82, size: 0x8, addend: 0x0, symName: __RNvXsb_NtCs6IAuOt8vWmF_3syn5parseINtNtCsfvfooZQ3Axs_4core6option6OptionNtNtB7_5token4SemiENtB5_5Parse5parseB7_, symObjAddr: 0x10540, symBinAddr: 0x5D718, symSize: 0x11C }
  - { offset: 0x10ADD7, size: 0x8, addend: 0x0, symName: __RNvXsb_NtCs6IAuOt8vWmF_3syn5parseINtNtCsfvfooZQ3Axs_4core6option6OptionNtNtB7_5token4StarENtB5_5Parse5parseB7_, symObjAddr: 0x1065C, symBinAddr: 0x5D834, symSize: 0x11C }
  - { offset: 0x10AE2C, size: 0x8, addend: 0x0, symName: __RNvXsb_NtCs6IAuOt8vWmF_3syn5parseINtNtCsfvfooZQ3Axs_4core6option6OptionNtNtB7_5token5AsyncENtB5_5Parse5parseB7_, symObjAddr: 0x10778, symBinAddr: 0x5D950, symSize: 0x128 }
  - { offset: 0x10AE81, size: 0x8, addend: 0x0, symName: __RNvXsb_NtCs6IAuOt8vWmF_3syn5parseINtNtCsfvfooZQ3Axs_4core6option6OptionNtNtB7_5token5AwaitENtB5_5Parse5parseB7_, symObjAddr: 0x108A0, symBinAddr: 0x5DA78, symSize: 0x128 }
  - { offset: 0x10AED6, size: 0x8, addend: 0x0, symName: __RNvXsb_NtCs6IAuOt8vWmF_3syn5parseINtNtCsfvfooZQ3Axs_4core6option6OptionNtNtB7_5token5ColonENtB5_5Parse5parseB7_, symObjAddr: 0x109C8, symBinAddr: 0x5DBA0, symSize: 0x11C }
  - { offset: 0x10AF2B, size: 0x8, addend: 0x0, symName: __RNvXsb_NtCs6IAuOt8vWmF_3syn5parseINtNtCsfvfooZQ3Axs_4core6option6OptionNtNtB7_5token5CommaENtB5_5Parse5parseB7_, symObjAddr: 0x10AE4, symBinAddr: 0x5DCBC, symSize: 0x11C }
  - { offset: 0x10AF80, size: 0x8, addend: 0x0, symName: __RNvXsb_NtCs6IAuOt8vWmF_3syn5parseINtNtCsfvfooZQ3Axs_4core6option6OptionNtNtB7_5token5ConstENtB5_5Parse5parseB7_, symObjAddr: 0x10C00, symBinAddr: 0x5DDD8, symSize: 0x128 }
  - { offset: 0x10AFD5, size: 0x8, addend: 0x0, symName: __RNvXsb_NtCs6IAuOt8vWmF_3syn5parseINtNtCsfvfooZQ3Axs_4core6option6OptionNtNtB7_5token6StaticENtB5_5Parse5parseB7_, symObjAddr: 0x10D28, symBinAddr: 0x5DF00, symSize: 0x128 }
