---
triple:          'arm64-apple-darwin'
binary-path:     '/Users/cedric/orange/ran-llm-claude-flow/src/rust-pipeline/target/debug/build/html5ever-7db7a1d077ce8b01/build_script_build-7db7a1d077ce8b01'
relocations:
  - { offset: 0x1E, size: 0x8, addend: 0x0, symName: __RINvNtNtCse1nGBsou5OW_5alloc3vec16in_place_collect18from_iter_in_placeINtNtNtNtCsfvfooZQ3Axs_4core4iter8adapters3map3MapINtNtB4_9into_iter8IntoIterNtNtCs5AlOhPCr03V_3syn4attr9AttributeENCINvNtNtB2p_3gen4fold10fold_fieldNtNtCsdjy9FUDAuhT_18build_script_build11match_token16MatchTokenParserE0EB2l_EB3z_, symObjAddr: 0x0, symBinAddr: 0x100000BF0, symSize: 0x260 }
  - { offset: 0x8F48, size: 0x8, addend: 0x0, symName: __RINvNtNtCse1nGBsou5OW_5alloc3vec16in_place_collect18from_iter_in_placeINtNtNtNtCsfvfooZQ3Axs_4core4iter8adapters3map3MapINtNtB4_9into_iter8IntoIterNtNtCs5AlOhPCr03V_3syn4attr9AttributeENCINvNtNtB2p_3gen4fold10fold_fieldNtNtCsdjy9FUDAuhT_18build_script_build11match_token16MatchTokenParserE0EB2l_EB3z_, symObjAddr: 0x0, symBinAddr: 0x100000BF0, symSize: 0x260 }
  - { offset: 0x93D6, size: 0x8, addend: 0x0, symName: __RINvNtNtCse1nGBsou5OW_5alloc3vec16in_place_collect18from_iter_in_placeINtNtNtNtCsfvfooZQ3Axs_4core4iter8adapters3map3MapINtNtB4_9into_iter8IntoIterNtNtCs5AlOhPCr03V_3syn4attr9AttributeENCINvNtNtB2p_3gen4fold10fold_localNtNtCsdjy9FUDAuhT_18build_script_build11match_token16MatchTokenParserE0EB2l_EB3z_, symObjAddr: 0x260, symBinAddr: 0x100000E50, symSize: 0x260 }
  - { offset: 0x9864, size: 0x8, addend: 0x0, symName: __RINvNtNtCse1nGBsou5OW_5alloc3vec16in_place_collect18from_iter_in_placeINtNtNtNtCsfvfooZQ3Axs_4core4iter8adapters3map3MapINtNtB4_9into_iter8IntoIterNtNtCs5AlOhPCr03V_3syn4attr9AttributeENCINvNtNtB2p_3gen4fold11fold_pat_orNtNtCsdjy9FUDAuhT_18build_script_build11match_token16MatchTokenParserE0EB2l_EB3A_, symObjAddr: 0x4C0, symBinAddr: 0x1000010B0, symSize: 0x260 }
  - { offset: 0x9CF2, size: 0x8, addend: 0x0, symName: __RINvNtNtCse1nGBsou5OW_5alloc3vec16in_place_collect18from_iter_in_placeINtNtNtNtCsfvfooZQ3Axs_4core4iter8adapters3map3MapINtNtB4_9into_iter8IntoIterNtNtCs5AlOhPCr03V_3syn4attr9AttributeENCINvNtNtB2p_3gen4fold12fold_expr_ifNtNtCsdjy9FUDAuhT_18build_script_build11match_token16MatchTokenParserE0EB2l_EB3B_, symObjAddr: 0x720, symBinAddr: 0x100001310, symSize: 0x260 }
  - { offset: 0xA180, size: 0x8, addend: 0x0, symName: __RINvNtNtCse1nGBsou5OW_5alloc3vec16in_place_collect18from_iter_in_placeINtNtNtNtCsfvfooZQ3Axs_4core4iter8adapters3map3MapINtNtB4_9into_iter8IntoIterNtNtCs5AlOhPCr03V_3syn4attr9AttributeENCINvNtNtB2p_3gen4fold12fold_item_fnNtNtCsdjy9FUDAuhT_18build_script_build11match_token16MatchTokenParserE0EB2l_EB3B_, symObjAddr: 0x980, symBinAddr: 0x100001570, symSize: 0x260 }
  - { offset: 0xA60E, size: 0x8, addend: 0x0, symName: __RINvNtNtCse1nGBsou5OW_5alloc3vec16in_place_collect18from_iter_in_placeINtNtNtNtCsfvfooZQ3Axs_4core4iter8adapters3map3MapINtNtB4_9into_iter8IntoIterNtNtCs5AlOhPCr03V_3syn4attr9AttributeENCINvNtNtB2p_3gen4fold12fold_pat_boxNtNtCsdjy9FUDAuhT_18build_script_build11match_token16MatchTokenParserE0EB2l_EB3B_, symObjAddr: 0xBE0, symBinAddr: 0x1000017D0, symSize: 0x260 }
  - { offset: 0xAA9C, size: 0x8, addend: 0x0, symName: __RINvNtNtCse1nGBsou5OW_5alloc3vec16in_place_collect18from_iter_in_placeINtNtNtNtCsfvfooZQ3Axs_4core4iter8adapters3map3MapINtNtB4_9into_iter8IntoIterNtNtCs5AlOhPCr03V_3syn4attr9AttributeENCINvNtNtB2p_3gen4fold12fold_pat_litNtNtCsdjy9FUDAuhT_18build_script_build11match_token16MatchTokenParserE0EB2l_EB3B_, symObjAddr: 0xE40, symBinAddr: 0x100001A30, symSize: 0x260 }
  - { offset: 0xAF2A, size: 0x8, addend: 0x0, symName: __RINvNtNtCse1nGBsou5OW_5alloc3vec16in_place_collect18from_iter_in_placeINtNtNtNtCsfvfooZQ3Axs_4core4iter8adapters3map3MapINtNtB4_9into_iter8IntoIterNtNtCs5AlOhPCr03V_3syn4attr9AttributeENCINvNtNtB2p_3gen4fold12fold_variantNtNtCsdjy9FUDAuhT_18build_script_build11match_token16MatchTokenParserE0EB2l_EB3B_, symObjAddr: 0x10A0, symBinAddr: 0x100001C90, symSize: 0x260 }
  - { offset: 0xB3B8, size: 0x8, addend: 0x0, symName: __RINvNtNtCse1nGBsou5OW_5alloc3vec16in_place_collect18from_iter_in_placeINtNtNtNtCsfvfooZQ3Axs_4core4iter8adapters3map3MapINtNtB4_9into_iter8IntoIterNtNtCs5AlOhPCr03V_3syn4attr9AttributeENCINvNtNtB2p_3gen4fold13fold_expr_boxNtNtCsdjy9FUDAuhT_18build_script_build11match_token16MatchTokenParserE0EB2l_EB3C_, symObjAddr: 0x1300, symBinAddr: 0x100001EF0, symSize: 0x260 }
  - { offset: 0xB846, size: 0x8, addend: 0x0, symName: __RINvNtNtCse1nGBsou5OW_5alloc3vec16in_place_collect18from_iter_in_placeINtNtNtNtCsfvfooZQ3Axs_4core4iter8adapters3map3MapINtNtB4_9into_iter8IntoIterNtNtCs5AlOhPCr03V_3syn4attr9AttributeENCINvNtNtB2p_3gen4fold13fold_expr_letNtNtCsdjy9FUDAuhT_18build_script_build11match_token16MatchTokenParserE0EB2l_EB3C_, symObjAddr: 0x1560, symBinAddr: 0x100002150, symSize: 0x260 }
  - { offset: 0xBCD4, size: 0x8, addend: 0x0, symName: __RINvNtNtCse1nGBsou5OW_5alloc3vec16in_place_collect18from_iter_in_placeINtNtNtNtCsfvfooZQ3Axs_4core4iter8adapters3map3MapINtNtB4_9into_iter8IntoIterNtNtCs5AlOhPCr03V_3syn4attr9AttributeENCINvNtNtB2p_3gen4fold13fold_expr_litNtNtCsdjy9FUDAuhT_18build_script_build11match_token16MatchTokenParserE0EB2l_EB3C_, symObjAddr: 0x17C0, symBinAddr: 0x1000023B0, symSize: 0x260 }
  - { offset: 0xC162, size: 0x8, addend: 0x0, symName: __RINvNtNtCse1nGBsou5OW_5alloc3vec16in_place_collect18from_iter_in_placeINtNtNtNtCsfvfooZQ3Axs_4core4iter8adapters3map3MapINtNtB4_9into_iter8IntoIterNtNtCs5AlOhPCr03V_3syn4attr9AttributeENCINvNtNtB2p_3gen4fold13fold_expr_tryNtNtCsdjy9FUDAuhT_18build_script_build11match_token16MatchTokenParserE0EB2l_EB3C_, symObjAddr: 0x1A20, symBinAddr: 0x100002610, symSize: 0x260 }
  - { offset: 0xC5F0, size: 0x8, addend: 0x0, symName: __RINvNtNtCse1nGBsou5OW_5alloc3vec16in_place_collect18from_iter_in_placeINtNtNtNtCsfvfooZQ3Axs_4core4iter8adapters3map3MapINtNtB4_9into_iter8IntoIterNtNtCs5AlOhPCr03V_3syn4attr9AttributeENCINvNtNtB2p_3gen4fold13fold_item_modNtNtCsdjy9FUDAuhT_18build_script_build11match_token16MatchTokenParserE0EB2l_EB3C_, symObjAddr: 0x1C80, symBinAddr: 0x100002870, symSize: 0x260 }
  - { offset: 0xCA7E, size: 0x8, addend: 0x0, symName: __RINvNtNtCse1nGBsou5OW_5alloc3vec16in_place_collect18from_iter_in_placeINtNtNtNtCsfvfooZQ3Axs_4core4iter8adapters3map3MapINtNtB4_9into_iter8IntoIterNtNtCs5AlOhPCr03V_3syn4attr9AttributeENCINvNtNtB2p_3gen4fold13fold_item_useNtNtCsdjy9FUDAuhT_18build_script_build11match_token16MatchTokenParserE0EB2l_EB3C_, symObjAddr: 0x1EE0, symBinAddr: 0x100002AD0, symSize: 0x260 }
  - { offset: 0xCF0C, size: 0x8, addend: 0x0, symName: __RINvNtNtCse1nGBsou5OW_5alloc3vec16in_place_collect18from_iter_in_placeINtNtNtNtCsfvfooZQ3Axs_4core4iter8adapters3map3MapINtNtB4_9into_iter8IntoIterNtNtCs5AlOhPCr03V_3syn4attr9AttributeENCINvNtNtB2p_3gen4fold13fold_pat_pathNtNtCsdjy9FUDAuhT_18build_script_build11match_token16MatchTokenParserE0EB2l_EB3C_, symObjAddr: 0x2140, symBinAddr: 0x100002D30, symSize: 0x260 }
  - { offset: 0xD39A, size: 0x8, addend: 0x0, symName: __RINvNtNtCse1nGBsou5OW_5alloc3vec16in_place_collect18from_iter_in_placeINtNtNtNtCsfvfooZQ3Axs_4core4iter8adapters3map3MapINtNtB4_9into_iter8IntoIterNtNtCs5AlOhPCr03V_3syn4attr9AttributeENCINvNtNtB2p_3gen4fold13fold_pat_restNtNtCsdjy9FUDAuhT_18build_script_build11match_token16MatchTokenParserE0EB2l_EB3C_, symObjAddr: 0x23A0, symBinAddr: 0x100002F90, symSize: 0x260 }
  - { offset: 0xD828, size: 0x8, addend: 0x0, symName: __RINvNtNtCse1nGBsou5OW_5alloc3vec16in_place_collect18from_iter_in_placeINtNtNtNtCsfvfooZQ3Axs_4core4iter8adapters3map3MapINtNtB4_9into_iter8IntoIterNtNtCs5AlOhPCr03V_3syn4attr9AttributeENCINvNtNtB2p_3gen4fold13fold_pat_typeNtNtCsdjy9FUDAuhT_18build_script_build11match_token16MatchTokenParserE0EB2l_EB3C_, symObjAddr: 0x2600, symBinAddr: 0x1000031F0, symSize: 0x260 }
  - { offset: 0xDCB6, size: 0x8, addend: 0x0, symName: __RINvNtNtCse1nGBsou5OW_5alloc3vec16in_place_collect18from_iter_in_placeINtNtNtNtCsfvfooZQ3Axs_4core4iter8adapters3map3MapINtNtB4_9into_iter8IntoIterNtNtCs5AlOhPCr03V_3syn4attr9AttributeENCINvNtNtB2p_3gen4fold13fold_pat_wildNtNtCsdjy9FUDAuhT_18build_script_build11match_token16MatchTokenParserE0EB2l_EB3C_, symObjAddr: 0x2860, symBinAddr: 0x100003450, symSize: 0x260 }
  - { offset: 0xE144, size: 0x8, addend: 0x0, symName: __RINvNtNtCse1nGBsou5OW_5alloc3vec16in_place_collect18from_iter_in_placeINtNtNtNtCsfvfooZQ3Axs_4core4iter8adapters3map3MapINtNtB4_9into_iter8IntoIterNtNtCs5AlOhPCr03V_3syn4attr9AttributeENCINvNtNtB2p_3gen4fold13fold_receiverNtNtCsdjy9FUDAuhT_18build_script_build11match_token16MatchTokenParserE0EB2l_EB3C_, symObjAddr: 0x2AC0, symBinAddr: 0x1000036B0, symSize: 0x260 }
  - { offset: 0xE5D2, size: 0x8, addend: 0x0, symName: __RINvNtNtCse1nGBsou5OW_5alloc3vec16in_place_collect18from_iter_in_placeINtNtNtNtCsfvfooZQ3Axs_4core4iter8adapters3map3MapINtNtB4_9into_iter8IntoIterNtNtCs5AlOhPCr03V_3syn4attr9AttributeENCINvNtNtB2p_3gen4fold13fold_variadicNtNtCsdjy9FUDAuhT_18build_script_build11match_token16MatchTokenParserE0EB2l_EB3C_, symObjAddr: 0x2D20, symBinAddr: 0x100003910, symSize: 0x260 }
  - { offset: 0xEA60, size: 0x8, addend: 0x0, symName: __RINvNtNtCse1nGBsou5OW_5alloc3vec16in_place_collect18from_iter_in_placeINtNtNtNtCsfvfooZQ3Axs_4core4iter8adapters3map3MapINtNtB4_9into_iter8IntoIterNtNtCs5AlOhPCr03V_3syn4attr9AttributeENCINvNtNtB2p_3gen4fold14fold_expr_callNtNtCsdjy9FUDAuhT_18build_script_build11match_token16MatchTokenParserE0EB2l_EB3D_, symObjAddr: 0x2F80, symBinAddr: 0x100003B70, symSize: 0x260 }
  - { offset: 0xEEEE, size: 0x8, addend: 0x0, symName: __RINvNtNtCse1nGBsou5OW_5alloc3vec16in_place_collect18from_iter_in_placeINtNtNtNtCsfvfooZQ3Axs_4core4iter8adapters3map3MapINtNtB4_9into_iter8IntoIterNtNtCs5AlOhPCr03V_3syn4attr9AttributeENCINvNtNtB2p_3gen4fold14fold_expr_castNtNtCsdjy9FUDAuhT_18build_script_build11match_token16MatchTokenParserE0EB2l_EB3D_, symObjAddr: 0x31E0, symBinAddr: 0x100003DD0, symSize: 0x260 }
  - { offset: 0xF37C, size: 0x8, addend: 0x0, symName: __RINvNtNtCse1nGBsou5OW_5alloc3vec16in_place_collect18from_iter_in_placeINtNtNtNtCsfvfooZQ3Axs_4core4iter8adapters3map3MapINtNtB4_9into_iter8IntoIterNtNtCs5AlOhPCr03V_3syn4attr9AttributeENCINvNtNtB2p_3gen4fold14fold_expr_loopNtNtCsdjy9FUDAuhT_18build_script_build11match_token16MatchTokenParserE0EB2l_EB3D_, symObjAddr: 0x3440, symBinAddr: 0x100004030, symSize: 0x260 }
  - { offset: 0xF80A, size: 0x8, addend: 0x0, symName: __RINvNtNtCse1nGBsou5OW_5alloc3vec16in_place_collect18from_iter_in_placeINtNtNtNtCsfvfooZQ3Axs_4core4iter8adapters3map3MapINtNtB4_9into_iter8IntoIterNtNtCs5AlOhPCr03V_3syn4attr9AttributeENCINvNtNtB2p_3gen4fold14fold_expr_pathNtNtCsdjy9FUDAuhT_18build_script_build11match_token16MatchTokenParserE0EB2l_EB3D_, symObjAddr: 0x36A0, symBinAddr: 0x100004290, symSize: 0x260 }
  - { offset: 0xFC98, size: 0x8, addend: 0x0, symName: __RINvNtNtCse1nGBsou5OW_5alloc3vec16in_place_collect18from_iter_in_placeINtNtNtNtCsfvfooZQ3Axs_4core4iter8adapters3map3MapINtNtB4_9into_iter8IntoIterNtNtCs5AlOhPCr03V_3syn4attr9AttributeENCINvNtNtB2p_3gen4fold14fold_expr_typeNtNtCsdjy9FUDAuhT_18build_script_build11match_token16MatchTokenParserE0EB2l_EB3D_, symObjAddr: 0x3900, symBinAddr: 0x1000044F0, symSize: 0x260 }
  - { offset: 0x10126, size: 0x8, addend: 0x0, symName: __RINvNtNtCse1nGBsou5OW_5alloc3vec16in_place_collect18from_iter_in_placeINtNtNtNtCsfvfooZQ3Axs_4core4iter8adapters3map3MapINtNtB4_9into_iter8IntoIterNtNtCs5AlOhPCr03V_3syn4attr9AttributeENCINvNtNtB2p_3gen4fold14fold_field_patNtNtCsdjy9FUDAuhT_18build_script_build11match_token16MatchTokenParserE0EB2l_EB3D_, symObjAddr: 0x3B60, symBinAddr: 0x100004750, symSize: 0x260 }
  - { offset: 0x105B4, size: 0x8, addend: 0x0, symName: __RINvNtNtCse1nGBsou5OW_5alloc3vec16in_place_collect18from_iter_in_placeINtNtNtNtCsfvfooZQ3Axs_4core4iter8adapters3map3MapINtNtB4_9into_iter8IntoIterNtNtCs5AlOhPCr03V_3syn4attr9AttributeENCINvNtNtB2p_3gen4fold14fold_item_enumNtNtCsdjy9FUDAuhT_18build_script_build11match_token16MatchTokenParserE0EB2l_EB3D_, symObjAddr: 0x3DC0, symBinAddr: 0x1000049B0, symSize: 0x260 }
  - { offset: 0x10A42, size: 0x8, addend: 0x0, symName: __RINvNtNtCse1nGBsou5OW_5alloc3vec16in_place_collect18from_iter_in_placeINtNtNtNtCsfvfooZQ3Axs_4core4iter8adapters3map3MapINtNtB4_9into_iter8IntoIterNtNtCs5AlOhPCr03V_3syn4attr9AttributeENCINvNtNtB2p_3gen4fold14fold_item_implNtNtCsdjy9FUDAuhT_18build_script_build11match_token16MatchTokenParserE0EB2l_EB3D_, symObjAddr: 0x4020, symBinAddr: 0x100004C10, symSize: 0x260 }
  - { offset: 0x10ED0, size: 0x8, addend: 0x0, symName: __RINvNtNtCse1nGBsou5OW_5alloc3vec16in_place_collect18from_iter_in_placeINtNtNtNtCsfvfooZQ3Axs_4core4iter8adapters3map3MapINtNtB4_9into_iter8IntoIterNtNtCs5AlOhPCr03V_3syn4attr9AttributeENCINvNtNtB2p_3gen4fold14fold_item_typeNtNtCsdjy9FUDAuhT_18build_script_build11match_token16MatchTokenParserE0EB2l_EB3D_, symObjAddr: 0x4280, symBinAddr: 0x100004E70, symSize: 0x260 }
  - { offset: 0x1135E, size: 0x8, addend: 0x0, symName: __RINvNtNtCse1nGBsou5OW_5alloc3vec16in_place_collect18from_iter_in_placeINtNtNtNtCsfvfooZQ3Axs_4core4iter8adapters3map3MapINtNtB4_9into_iter8IntoIterNtNtCs5AlOhPCr03V_3syn4attr9AttributeENCINvNtNtB2p_3gen4fold14fold_pat_identNtNtCsdjy9FUDAuhT_18build_script_build11match_token16MatchTokenParserE0EB2l_EB3D_, symObjAddr: 0x44E0, symBinAddr: 0x1000050D0, symSize: 0x260 }
  - { offset: 0x117EC, size: 0x8, addend: 0x0, symName: __RINvNtNtCse1nGBsou5OW_5alloc3vec16in_place_collect18from_iter_in_placeINtNtNtNtCsfvfooZQ3Axs_4core4iter8adapters3map3MapINtNtB4_9into_iter8IntoIterNtNtCs5AlOhPCr03V_3syn4attr9AttributeENCINvNtNtB2p_3gen4fold14fold_pat_macroNtNtCsdjy9FUDAuhT_18build_script_build11match_token16MatchTokenParserE0EB2l_EB3D_, symObjAddr: 0x4740, symBinAddr: 0x100005330, symSize: 0x260 }
  - { offset: 0x11C7A, size: 0x8, addend: 0x0, symName: __RINvNtNtCse1nGBsou5OW_5alloc3vec16in_place_collect18from_iter_in_placeINtNtNtNtCsfvfooZQ3Axs_4core4iter8adapters3map3MapINtNtB4_9into_iter8IntoIterNtNtCs5AlOhPCr03V_3syn4attr9AttributeENCINvNtNtB2p_3gen4fold14fold_pat_rangeNtNtCsdjy9FUDAuhT_18build_script_build11match_token16MatchTokenParserE0EB2l_EB3D_, symObjAddr: 0x49A0, symBinAddr: 0x100005590, symSize: 0x260 }
  - { offset: 0x12108, size: 0x8, addend: 0x0, symName: __RINvNtNtCse1nGBsou5OW_5alloc3vec16in_place_collect18from_iter_in_placeINtNtNtNtCsfvfooZQ3Axs_4core4iter8adapters3map3MapINtNtB4_9into_iter8IntoIterNtNtCs5AlOhPCr03V_3syn4attr9AttributeENCINvNtNtB2p_3gen4fold14fold_pat_sliceNtNtCsdjy9FUDAuhT_18build_script_build11match_token16MatchTokenParserE0EB2l_EB3D_, symObjAddr: 0x4C00, symBinAddr: 0x1000057F0, symSize: 0x260 }
  - { offset: 0x12596, size: 0x8, addend: 0x0, symName: __RINvNtNtCse1nGBsou5OW_5alloc3vec16in_place_collect18from_iter_in_placeINtNtNtNtCsfvfooZQ3Axs_4core4iter8adapters3map3MapINtNtB4_9into_iter8IntoIterNtNtCs5AlOhPCr03V_3syn4attr9AttributeENCINvNtNtB2p_3gen4fold14fold_pat_tupleNtNtCsdjy9FUDAuhT_18build_script_build11match_token16MatchTokenParserE0EB2l_EB3D_, symObjAddr: 0x4E60, symBinAddr: 0x100005A50, symSize: 0x260 }
  - { offset: 0x12A24, size: 0x8, addend: 0x0, symName: __RINvNtNtCse1nGBsou5OW_5alloc3vec16in_place_collect18from_iter_in_placeINtNtNtNtCsfvfooZQ3Axs_4core4iter8adapters3map3MapINtNtB4_9into_iter8IntoIterNtNtCs5AlOhPCr03V_3syn4attr9AttributeENCINvNtNtB2p_3gen4fold15fold_expr_arrayNtNtCsdjy9FUDAuhT_18build_script_build11match_token16MatchTokenParserE0EB2l_EB3E_, symObjAddr: 0x50C0, symBinAddr: 0x100005CB0, symSize: 0x260 }
  - { offset: 0x12EB2, size: 0x8, addend: 0x0, symName: __RINvNtNtCse1nGBsou5OW_5alloc3vec16in_place_collect18from_iter_in_placeINtNtNtNtCsfvfooZQ3Axs_4core4iter8adapters3map3MapINtNtB4_9into_iter8IntoIterNtNtCs5AlOhPCr03V_3syn4attr9AttributeENCINvNtNtB2p_3gen4fold15fold_expr_asyncNtNtCsdjy9FUDAuhT_18build_script_build11match_token16MatchTokenParserE0EB2l_EB3E_, symObjAddr: 0x5320, symBinAddr: 0x100005F10, symSize: 0x260 }
  - { offset: 0x13340, size: 0x8, addend: 0x0, symName: __RINvNtNtCse1nGBsou5OW_5alloc3vec16in_place_collect18from_iter_in_placeINtNtNtNtCsfvfooZQ3Axs_4core4iter8adapters3map3MapINtNtB4_9into_iter8IntoIterNtNtCs5AlOhPCr03V_3syn4attr9AttributeENCINvNtNtB2p_3gen4fold15fold_expr_awaitNtNtCsdjy9FUDAuhT_18build_script_build11match_token16MatchTokenParserE0EB2l_EB3E_, symObjAddr: 0x5580, symBinAddr: 0x100006170, symSize: 0x260 }
  - { offset: 0x137CE, size: 0x8, addend: 0x0, symName: __RINvNtNtCse1nGBsou5OW_5alloc3vec16in_place_collect18from_iter_in_placeINtNtNtNtCsfvfooZQ3Axs_4core4iter8adapters3map3MapINtNtB4_9into_iter8IntoIterNtNtCs5AlOhPCr03V_3syn4attr9AttributeENCINvNtNtB2p_3gen4fold15fold_expr_blockNtNtCsdjy9FUDAuhT_18build_script_build11match_token16MatchTokenParserE0EB2l_EB3E_, symObjAddr: 0x57E0, symBinAddr: 0x1000063D0, symSize: 0x260 }
  - { offset: 0x13C5C, size: 0x8, addend: 0x0, symName: __RINvNtNtCse1nGBsou5OW_5alloc3vec16in_place_collect18from_iter_in_placeINtNtNtNtCsfvfooZQ3Axs_4core4iter8adapters3map3MapINtNtB4_9into_iter8IntoIterNtNtCs5AlOhPCr03V_3syn4attr9AttributeENCINvNtNtB2p_3gen4fold15fold_expr_breakNtNtCsdjy9FUDAuhT_18build_script_build11match_token16MatchTokenParserE0EB2l_EB3E_, symObjAddr: 0x5A40, symBinAddr: 0x100006630, symSize: 0x260 }
  - { offset: 0x140EA, size: 0x8, addend: 0x0, symName: __RINvNtNtCse1nGBsou5OW_5alloc3vec16in_place_collect18from_iter_in_placeINtNtNtNtCsfvfooZQ3Axs_4core4iter8adapters3map3MapINtNtB4_9into_iter8IntoIterNtNtCs5AlOhPCr03V_3syn4attr9AttributeENCINvNtNtB2p_3gen4fold15fold_expr_fieldNtNtCsdjy9FUDAuhT_18build_script_build11match_token16MatchTokenParserE0EB2l_EB3E_, symObjAddr: 0x5CA0, symBinAddr: 0x100006890, symSize: 0x260 }
  - { offset: 0x14578, size: 0x8, addend: 0x0, symName: __RINvNtNtCse1nGBsou5OW_5alloc3vec16in_place_collect18from_iter_in_placeINtNtNtNtCsfvfooZQ3Axs_4core4iter8adapters3map3MapINtNtB4_9into_iter8IntoIterNtNtCs5AlOhPCr03V_3syn4attr9AttributeENCINvNtNtB2p_3gen4fold15fold_expr_groupNtNtCsdjy9FUDAuhT_18build_script_build11match_token16MatchTokenParserE0EB2l_EB3E_, symObjAddr: 0x5F00, symBinAddr: 0x100006AF0, symSize: 0x260 }
  - { offset: 0x14A06, size: 0x8, addend: 0x0, symName: __RINvNtNtCse1nGBsou5OW_5alloc3vec16in_place_collect18from_iter_in_placeINtNtNtNtCsfvfooZQ3Axs_4core4iter8adapters3map3MapINtNtB4_9into_iter8IntoIterNtNtCs5AlOhPCr03V_3syn4attr9AttributeENCINvNtNtB2p_3gen4fold15fold_expr_indexNtNtCsdjy9FUDAuhT_18build_script_build11match_token16MatchTokenParserE0EB2l_EB3E_, symObjAddr: 0x6160, symBinAddr: 0x100006D50, symSize: 0x260 }
  - { offset: 0x14E94, size: 0x8, addend: 0x0, symName: __RINvNtNtCse1nGBsou5OW_5alloc3vec16in_place_collect18from_iter_in_placeINtNtNtNtCsfvfooZQ3Axs_4core4iter8adapters3map3MapINtNtB4_9into_iter8IntoIterNtNtCs5AlOhPCr03V_3syn4attr9AttributeENCINvNtNtB2p_3gen4fold15fold_expr_macroNtNtCsdjy9FUDAuhT_18build_script_build11match_token16MatchTokenParserE0EB2l_EB3E_, symObjAddr: 0x63C0, symBinAddr: 0x100006FB0, symSize: 0x260 }
  - { offset: 0x15322, size: 0x8, addend: 0x0, symName: __RINvNtNtCse1nGBsou5OW_5alloc3vec16in_place_collect18from_iter_in_placeINtNtNtNtCsfvfooZQ3Axs_4core4iter8adapters3map3MapINtNtB4_9into_iter8IntoIterNtNtCs5AlOhPCr03V_3syn4attr9AttributeENCINvNtNtB2p_3gen4fold15fold_expr_matchNtNtCsdjy9FUDAuhT_18build_script_build11match_token16MatchTokenParserE0EB2l_EB3E_, symObjAddr: 0x6620, symBinAddr: 0x100007210, symSize: 0x260 }
  - { offset: 0x157B0, size: 0x8, addend: 0x0, symName: __RINvNtNtCse1nGBsou5OW_5alloc3vec16in_place_collect18from_iter_in_placeINtNtNtNtCsfvfooZQ3Axs_4core4iter8adapters3map3MapINtNtB4_9into_iter8IntoIterNtNtCs5AlOhPCr03V_3syn4attr9AttributeENCINvNtNtB2p_3gen4fold15fold_expr_parenNtNtCsdjy9FUDAuhT_18build_script_build11match_token16MatchTokenParserE0EB2l_EB3E_, symObjAddr: 0x6880, symBinAddr: 0x100007470, symSize: 0x260 }
  - { offset: 0x15C3E, size: 0x8, addend: 0x0, symName: __RINvNtNtCse1nGBsou5OW_5alloc3vec16in_place_collect18from_iter_in_placeINtNtNtNtCsfvfooZQ3Axs_4core4iter8adapters3map3MapINtNtB4_9into_iter8IntoIterNtNtCs5AlOhPCr03V_3syn4attr9AttributeENCINvNtNtB2p_3gen4fold15fold_expr_rangeNtNtCsdjy9FUDAuhT_18build_script_build11match_token16MatchTokenParserE0EB2l_EB3E_, symObjAddr: 0x6AE0, symBinAddr: 0x1000076D0, symSize: 0x260 }
  - { offset: 0x160CC, size: 0x8, addend: 0x0, symName: __RINvNtNtCse1nGBsou5OW_5alloc3vec16in_place_collect18from_iter_in_placeINtNtNtNtCsfvfooZQ3Axs_4core4iter8adapters3map3MapINtNtB4_9into_iter8IntoIterNtNtCs5AlOhPCr03V_3syn4attr9AttributeENCINvNtNtB2p_3gen4fold15fold_expr_tupleNtNtCsdjy9FUDAuhT_18build_script_build11match_token16MatchTokenParserE0EB2l_EB3E_, symObjAddr: 0x6D40, symBinAddr: 0x100007930, symSize: 0x260 }
  - { offset: 0x1655A, size: 0x8, addend: 0x0, symName: __RINvNtNtCse1nGBsou5OW_5alloc3vec16in_place_collect18from_iter_in_placeINtNtNtNtCsfvfooZQ3Axs_4core4iter8adapters3map3MapINtNtB4_9into_iter8IntoIterNtNtCs5AlOhPCr03V_3syn4attr9AttributeENCINvNtNtB2p_3gen4fold15fold_expr_unaryNtNtCsdjy9FUDAuhT_18build_script_build11match_token16MatchTokenParserE0EB2l_EB3E_, symObjAddr: 0x6FA0, symBinAddr: 0x100007B90, symSize: 0x260 }
  - { offset: 0x169E8, size: 0x8, addend: 0x0, symName: __RINvNtNtCse1nGBsou5OW_5alloc3vec16in_place_collect18from_iter_in_placeINtNtNtNtCsfvfooZQ3Axs_4core4iter8adapters3map3MapINtNtB4_9into_iter8IntoIterNtNtCs5AlOhPCr03V_3syn4attr9AttributeENCINvNtNtB2p_3gen4fold15fold_expr_whileNtNtCsdjy9FUDAuhT_18build_script_build11match_token16MatchTokenParserE0EB2l_EB3E_, symObjAddr: 0x7200, symBinAddr: 0x100007DF0, symSize: 0x260 }
  - { offset: 0x16E76, size: 0x8, addend: 0x0, symName: __RINvNtNtCse1nGBsou5OW_5alloc3vec16in_place_collect18from_iter_in_placeINtNtNtNtCsfvfooZQ3Axs_4core4iter8adapters3map3MapINtNtB4_9into_iter8IntoIterNtNtCs5AlOhPCr03V_3syn4attr9AttributeENCINvNtNtB2p_3gen4fold15fold_expr_yieldNtNtCsdjy9FUDAuhT_18build_script_build11match_token16MatchTokenParserE0EB2l_EB3E_, symObjAddr: 0x7460, symBinAddr: 0x100008050, symSize: 0x260 }
  - { offset: 0x17304, size: 0x8, addend: 0x0, symName: __RINvNtNtCse1nGBsou5OW_5alloc3vec16in_place_collect18from_iter_in_placeINtNtNtNtCsfvfooZQ3Axs_4core4iter8adapters3map3MapINtNtB4_9into_iter8IntoIterNtNtCs5AlOhPCr03V_3syn4attr9AttributeENCINvNtNtB2p_3gen4fold15fold_item_constNtNtCsdjy9FUDAuhT_18build_script_build11match_token16MatchTokenParserE0EB2l_EB3E_, symObjAddr: 0x76C0, symBinAddr: 0x1000082B0, symSize: 0x260 }
  - { offset: 0x17792, size: 0x8, addend: 0x0, symName: __RINvNtNtCse1nGBsou5OW_5alloc3vec16in_place_collect18from_iter_in_placeINtNtNtNtCsfvfooZQ3Axs_4core4iter8adapters3map3MapINtNtB4_9into_iter8IntoIterNtNtCs5AlOhPCr03V_3syn4attr9AttributeENCINvNtNtB2p_3gen4fold15fold_item_macroNtNtCsdjy9FUDAuhT_18build_script_build11match_token16MatchTokenParserE0EB2l_EB3E_, symObjAddr: 0x7920, symBinAddr: 0x100008510, symSize: 0x260 }
  - { offset: 0x17C20, size: 0x8, addend: 0x0, symName: __RINvNtNtCse1nGBsou5OW_5alloc3vec16in_place_collect18from_iter_in_placeINtNtNtNtCsfvfooZQ3Axs_4core4iter8adapters3map3MapINtNtB4_9into_iter8IntoIterNtNtCs5AlOhPCr03V_3syn4attr9AttributeENCINvNtNtB2p_3gen4fold15fold_item_traitNtNtCsdjy9FUDAuhT_18build_script_build11match_token16MatchTokenParserE0EB2l_EB3E_, symObjAddr: 0x7B80, symBinAddr: 0x100008770, symSize: 0x260 }
  - { offset: 0x180AE, size: 0x8, addend: 0x0, symName: __RINvNtNtCse1nGBsou5OW_5alloc3vec16in_place_collect18from_iter_in_placeINtNtNtNtCsfvfooZQ3Axs_4core4iter8adapters3map3MapINtNtB4_9into_iter8IntoIterNtNtCs5AlOhPCr03V_3syn4attr9AttributeENCINvNtNtB2p_3gen4fold15fold_item_unionNtNtCsdjy9FUDAuhT_18build_script_build11match_token16MatchTokenParserE0EB2l_EB3E_, symObjAddr: 0x7DE0, symBinAddr: 0x1000089D0, symSize: 0x260 }
  - { offset: 0x1853C, size: 0x8, addend: 0x0, symName: __RINvNtNtCse1nGBsou5OW_5alloc3vec16in_place_collect18from_iter_in_placeINtNtNtNtCsfvfooZQ3Axs_4core4iter8adapters3map3MapINtNtB4_9into_iter8IntoIterNtNtCs5AlOhPCr03V_3syn4attr9AttributeENCINvNtNtB2p_3gen4fold15fold_pat_structNtNtCsdjy9FUDAuhT_18build_script_build11match_token16MatchTokenParserE0EB2l_EB3E_, symObjAddr: 0x8040, symBinAddr: 0x100008C30, symSize: 0x260 }
  - { offset: 0x189CA, size: 0x8, addend: 0x0, symName: __RINvNtNtCse1nGBsou5OW_5alloc3vec16in_place_collect18from_iter_in_placeINtNtNtNtCsfvfooZQ3Axs_4core4iter8adapters3map3MapINtNtB4_9into_iter8IntoIterNtNtCs5AlOhPCr03V_3syn4attr9AttributeENCINvNtNtB2p_3gen4fold15fold_type_paramNtNtCsdjy9FUDAuhT_18build_script_build11match_token16MatchTokenParserE0EB2l_EB3E_, symObjAddr: 0x82A0, symBinAddr: 0x100008E90, symSize: 0x260 }
  - { offset: 0x18E58, size: 0x8, addend: 0x0, symName: __RINvNtNtCse1nGBsou5OW_5alloc3vec16in_place_collect18from_iter_in_placeINtNtNtNtCsfvfooZQ3Axs_4core4iter8adapters3map3MapINtNtB4_9into_iter8IntoIterNtNtCs5AlOhPCr03V_3syn4attr9AttributeENCINvNtNtB2p_3gen4fold16fold_bare_fn_argNtNtCsdjy9FUDAuhT_18build_script_build11match_token16MatchTokenParserE0EB2l_EB3F_, symObjAddr: 0x8500, symBinAddr: 0x1000090F0, symSize: 0x260 }
  - { offset: 0x192E6, size: 0x8, addend: 0x0, symName: __RINvNtNtCse1nGBsou5OW_5alloc3vec16in_place_collect18from_iter_in_placeINtNtNtNtCsfvfooZQ3Axs_4core4iter8adapters3map3MapINtNtB4_9into_iter8IntoIterNtNtCs5AlOhPCr03V_3syn4attr9AttributeENCINvNtNtB2p_3gen4fold16fold_const_paramNtNtCsdjy9FUDAuhT_18build_script_build11match_token16MatchTokenParserE0EB2l_EB3F_, symObjAddr: 0x8760, symBinAddr: 0x100009350, symSize: 0x260 }
  - { offset: 0x19774, size: 0x8, addend: 0x0, symName: __RINvNtNtCse1nGBsou5OW_5alloc3vec16in_place_collect18from_iter_in_placeINtNtNtNtCsfvfooZQ3Axs_4core4iter8adapters3map3MapINtNtB4_9into_iter8IntoIterNtNtCs5AlOhPCr03V_3syn4attr9AttributeENCINvNtNtB2p_3gen4fold16fold_expr_assignNtNtCsdjy9FUDAuhT_18build_script_build11match_token16MatchTokenParserE0EB2l_EB3F_, symObjAddr: 0x89C0, symBinAddr: 0x1000095B0, symSize: 0x260 }
  - { offset: 0x19C02, size: 0x8, addend: 0x0, symName: __RINvNtNtCse1nGBsou5OW_5alloc3vec16in_place_collect18from_iter_in_placeINtNtNtNtCsfvfooZQ3Axs_4core4iter8adapters3map3MapINtNtB4_9into_iter8IntoIterNtNtCs5AlOhPCr03V_3syn4attr9AttributeENCINvNtNtB2p_3gen4fold16fold_expr_binaryNtNtCsdjy9FUDAuhT_18build_script_build11match_token16MatchTokenParserE0EB2l_EB3F_, symObjAddr: 0x8C20, symBinAddr: 0x100009810, symSize: 0x260 }
  - { offset: 0x1A090, size: 0x8, addend: 0x0, symName: __RINvNtNtCse1nGBsou5OW_5alloc3vec16in_place_collect18from_iter_in_placeINtNtNtNtCsfvfooZQ3Axs_4core4iter8adapters3map3MapINtNtB4_9into_iter8IntoIterNtNtCs5AlOhPCr03V_3syn4attr9AttributeENCINvNtNtB2p_3gen4fold16fold_expr_repeatNtNtCsdjy9FUDAuhT_18build_script_build11match_token16MatchTokenParserE0EB2l_EB3F_, symObjAddr: 0x8E80, symBinAddr: 0x100009A70, symSize: 0x260 }
  - { offset: 0x1A51E, size: 0x8, addend: 0x0, symName: __RINvNtNtCse1nGBsou5OW_5alloc3vec16in_place_collect18from_iter_in_placeINtNtNtNtCsfvfooZQ3Axs_4core4iter8adapters3map3MapINtNtB4_9into_iter8IntoIterNtNtCs5AlOhPCr03V_3syn4attr9AttributeENCINvNtNtB2p_3gen4fold16fold_expr_returnNtNtCsdjy9FUDAuhT_18build_script_build11match_token16MatchTokenParserE0EB2l_EB3F_, symObjAddr: 0x90E0, symBinAddr: 0x100009CD0, symSize: 0x260 }
  - { offset: 0x1A9AC, size: 0x8, addend: 0x0, symName: __RINvNtNtCse1nGBsou5OW_5alloc3vec16in_place_collect18from_iter_in_placeINtNtNtNtCsfvfooZQ3Axs_4core4iter8adapters3map3MapINtNtB4_9into_iter8IntoIterNtNtCs5AlOhPCr03V_3syn4attr9AttributeENCINvNtNtB2p_3gen4fold16fold_expr_structNtNtCsdjy9FUDAuhT_18build_script_build11match_token16MatchTokenParserE0EB2l_EB3F_, symObjAddr: 0x9340, symBinAddr: 0x100009F30, symSize: 0x260 }
  - { offset: 0x1AE3A, size: 0x8, addend: 0x0, symName: __RINvNtNtCse1nGBsou5OW_5alloc3vec16in_place_collect18from_iter_in_placeINtNtNtNtCsfvfooZQ3Axs_4core4iter8adapters3map3MapINtNtB4_9into_iter8IntoIterNtNtCs5AlOhPCr03V_3syn4attr9AttributeENCINvNtNtB2p_3gen4fold16fold_expr_unsafeNtNtCsdjy9FUDAuhT_18build_script_build11match_token16MatchTokenParserE0EB2l_EB3F_, symObjAddr: 0x95A0, symBinAddr: 0x10000A190, symSize: 0x260 }
  - { offset: 0x1B2C8, size: 0x8, addend: 0x0, symName: __RINvNtNtCse1nGBsou5OW_5alloc3vec16in_place_collect18from_iter_in_placeINtNtNtNtCsfvfooZQ3Axs_4core4iter8adapters3map3MapINtNtB4_9into_iter8IntoIterNtNtCs5AlOhPCr03V_3syn4attr9AttributeENCINvNtNtB2p_3gen4fold16fold_field_valueNtNtCsdjy9FUDAuhT_18build_script_build11match_token16MatchTokenParserE0EB2l_EB3F_, symObjAddr: 0x9800, symBinAddr: 0x10000A3F0, symSize: 0x260 }
  - { offset: 0x1B756, size: 0x8, addend: 0x0, symName: __RINvNtNtCse1nGBsou5OW_5alloc3vec16in_place_collect18from_iter_in_placeINtNtNtNtCsfvfooZQ3Axs_4core4iter8adapters3map3MapINtNtB4_9into_iter8IntoIterNtNtCs5AlOhPCr03V_3syn4attr9AttributeENCINvNtNtB2p_3gen4fold16fold_item_macro2NtNtCsdjy9FUDAuhT_18build_script_build11match_token16MatchTokenParserE0EB2l_EB3F_, symObjAddr: 0x9A60, symBinAddr: 0x10000A650, symSize: 0x260 }
  - { offset: 0x1BBE4, size: 0x8, addend: 0x0, symName: __RINvNtNtCse1nGBsou5OW_5alloc3vec16in_place_collect18from_iter_in_placeINtNtNtNtCsfvfooZQ3Axs_4core4iter8adapters3map3MapINtNtB4_9into_iter8IntoIterNtNtCs5AlOhPCr03V_3syn4attr9AttributeENCINvNtNtB2p_3gen4fold16fold_item_staticNtNtCsdjy9FUDAuhT_18build_script_build11match_token16MatchTokenParserE0EB2l_EB3F_, symObjAddr: 0x9CC0, symBinAddr: 0x10000A8B0, symSize: 0x260 }
  - { offset: 0x1C072, size: 0x8, addend: 0x0, symName: __RINvNtNtCse1nGBsou5OW_5alloc3vec16in_place_collect18from_iter_in_placeINtNtNtNtCsfvfooZQ3Axs_4core4iter8adapters3map3MapINtNtB4_9into_iter8IntoIterNtNtCs5AlOhPCr03V_3syn4attr9AttributeENCINvNtNtB2p_3gen4fold16fold_item_structNtNtCsdjy9FUDAuhT_18build_script_build11match_token16MatchTokenParserE0EB2l_EB3F_, symObjAddr: 0x9F20, symBinAddr: 0x10000AB10, symSize: 0x260 }
  - { offset: 0x1C500, size: 0x8, addend: 0x0, symName: __RINvNtNtCse1nGBsou5OW_5alloc3vec16in_place_collect18from_iter_in_placeINtNtNtNtCsfvfooZQ3Axs_4core4iter8adapters3map3MapINtNtB4_9into_iter8IntoIterNtNtCs5AlOhPCr03V_3syn4attr9AttributeENCINvNtNtB2p_3gen4fold17fold_expr_closureNtNtCsdjy9FUDAuhT_18build_script_build11match_token16MatchTokenParserE0EB2l_EB3G_, symObjAddr: 0xA180, symBinAddr: 0x10000AD70, symSize: 0x260 }
  - { offset: 0x1C98E, size: 0x8, addend: 0x0, symName: __RINvNtNtCse1nGBsou5OW_5alloc3vec16in_place_collect18from_iter_in_placeINtNtNtNtCsfvfooZQ3Axs_4core4iter8adapters3map3MapINtNtB4_9into_iter8IntoIterNtNtCs5AlOhPCr03V_3syn4attr9AttributeENCINvNtNtB2p_3gen4fold17fold_lifetime_defNtNtCsdjy9FUDAuhT_18build_script_build11match_token16MatchTokenParserE0EB2l_EB3G_, symObjAddr: 0xA3E0, symBinAddr: 0x10000AFD0, symSize: 0x260 }
  - { offset: 0x1CE1C, size: 0x8, addend: 0x0, symName: __RINvNtNtCse1nGBsou5OW_5alloc3vec16in_place_collect18from_iter_in_placeINtNtNtNtCsfvfooZQ3Axs_4core4iter8adapters3map3MapINtNtB4_9into_iter8IntoIterNtNtCs5AlOhPCr03V_3syn4attr9AttributeENCINvNtNtB2p_3gen4fold18fold_expr_continueNtNtCsdjy9FUDAuhT_18build_script_build11match_token16MatchTokenParserE0EB2l_EB3H_, symObjAddr: 0xA640, symBinAddr: 0x10000B230, symSize: 0x260 }
  - { offset: 0x1D2AA, size: 0x8, addend: 0x0, symName: __RINvNtNtCse1nGBsou5OW_5alloc3vec16in_place_collect18from_iter_in_placeINtNtNtNtCsfvfooZQ3Axs_4core4iter8adapters3map3MapINtNtB4_9into_iter8IntoIterNtNtCs5AlOhPCr03V_3syn4attr9AttributeENCINvNtNtB2p_3gen4fold18fold_expr_for_loopNtNtCsdjy9FUDAuhT_18build_script_build11match_token16MatchTokenParserE0EB2l_EB3H_, symObjAddr: 0xA8A0, symBinAddr: 0x10000B490, symSize: 0x260 }
  - { offset: 0x1D738, size: 0x8, addend: 0x0, symName: __RINvNtNtCse1nGBsou5OW_5alloc3vec16in_place_collect18from_iter_in_placeINtNtNtNtCsfvfooZQ3Axs_4core4iter8adapters3map3MapINtNtB4_9into_iter8IntoIterNtNtCs5AlOhPCr03V_3syn4attr9AttributeENCINvNtNtB2p_3gen4fold18fold_pat_referenceNtNtCsdjy9FUDAuhT_18build_script_build11match_token16MatchTokenParserE0EB2l_EB3H_, symObjAddr: 0xAB00, symBinAddr: 0x10000B6F0, symSize: 0x260 }
  - { offset: 0x1DBC6, size: 0x8, addend: 0x0, symName: __RINvNtNtCse1nGBsou5OW_5alloc3vec16in_place_collect18from_iter_in_placeINtNtNtNtCsfvfooZQ3Axs_4core4iter8adapters3map3MapINtNtB4_9into_iter8IntoIterNtNtCs5AlOhPCr03V_3syn4attr9AttributeENCINvNtNtB2p_3gen4fold19fold_expr_assign_opNtNtCsdjy9FUDAuhT_18build_script_build11match_token16MatchTokenParserE0EB2l_EB3I_, symObjAddr: 0xAD60, symBinAddr: 0x10000B950, symSize: 0x260 }
  - { offset: 0x1E054, size: 0x8, addend: 0x0, symName: __RINvNtNtCse1nGBsou5OW_5alloc3vec16in_place_collect18from_iter_in_placeINtNtNtNtCsfvfooZQ3Axs_4core4iter8adapters3map3MapINtNtB4_9into_iter8IntoIterNtNtCs5AlOhPCr03V_3syn4attr9AttributeENCINvNtNtB2p_3gen4fold19fold_expr_referenceNtNtCsdjy9FUDAuhT_18build_script_build11match_token16MatchTokenParserE0EB2l_EB3I_, symObjAddr: 0xAFC0, symBinAddr: 0x10000BBB0, symSize: 0x260 }
  - { offset: 0x1E4E2, size: 0x8, addend: 0x0, symName: __RINvNtNtCse1nGBsou5OW_5alloc3vec16in_place_collect18from_iter_in_placeINtNtNtNtCsfvfooZQ3Axs_4core4iter8adapters3map3MapINtNtB4_9into_iter8IntoIterNtNtCs5AlOhPCr03V_3syn4attr9AttributeENCINvNtNtB2p_3gen4fold19fold_expr_try_blockNtNtCsdjy9FUDAuhT_18build_script_build11match_token16MatchTokenParserE0EB2l_EB3I_, symObjAddr: 0xB220, symBinAddr: 0x10000BE10, symSize: 0x260 }
  - { offset: 0x1E970, size: 0x8, addend: 0x0, symName: __RINvNtNtCse1nGBsou5OW_5alloc3vec16in_place_collect18from_iter_in_placeINtNtNtNtCsfvfooZQ3Axs_4core4iter8adapters3map3MapINtNtB4_9into_iter8IntoIterNtNtCs5AlOhPCr03V_3syn4attr9AttributeENCINvNtNtB2p_3gen4fold19fold_impl_item_typeNtNtCsdjy9FUDAuhT_18build_script_build11match_token16MatchTokenParserE0EB2l_EB3I_, symObjAddr: 0xB480, symBinAddr: 0x10000C070, symSize: 0x260 }
  - { offset: 0x1EDFE, size: 0x8, addend: 0x0, symName: __RINvNtNtCse1nGBsou5OW_5alloc3vec16in_place_collect18from_iter_in_placeINtNtNtNtCsfvfooZQ3Axs_4core4iter8adapters3map3MapINtNtB4_9into_iter8IntoIterNtNtCs5AlOhPCr03V_3syn4attr9AttributeENCINvNtNtB2p_3gen4fold20fold_foreign_item_fnNtNtCsdjy9FUDAuhT_18build_script_build11match_token16MatchTokenParserE0EB2l_EB3J_, symObjAddr: 0xB6E0, symBinAddr: 0x10000C2D0, symSize: 0x260 }
  - { offset: 0x1F28C, size: 0x8, addend: 0x0, symName: __RINvNtNtCse1nGBsou5OW_5alloc3vec16in_place_collect18from_iter_in_placeINtNtNtNtCsfvfooZQ3Axs_4core4iter8adapters3map3MapINtNtB4_9into_iter8IntoIterNtNtCs5AlOhPCr03V_3syn4attr9AttributeENCINvNtNtB2p_3gen4fold20fold_impl_item_constNtNtCsdjy9FUDAuhT_18build_script_build11match_token16MatchTokenParserE0EB2l_EB3J_, symObjAddr: 0xB940, symBinAddr: 0x10000C530, symSize: 0x260 }
  - { offset: 0x1F71A, size: 0x8, addend: 0x0, symName: __RINvNtNtCse1nGBsou5OW_5alloc3vec16in_place_collect18from_iter_in_placeINtNtNtNtCsfvfooZQ3Axs_4core4iter8adapters3map3MapINtNtB4_9into_iter8IntoIterNtNtCs5AlOhPCr03V_3syn4attr9AttributeENCINvNtNtB2p_3gen4fold20fold_impl_item_macroNtNtCsdjy9FUDAuhT_18build_script_build11match_token16MatchTokenParserE0EB2l_EB3J_, symObjAddr: 0xBBA0, symBinAddr: 0x10000C790, symSize: 0x260 }
  - { offset: 0x1FBA8, size: 0x8, addend: 0x0, symName: __RINvNtNtCse1nGBsou5OW_5alloc3vec16in_place_collect18from_iter_in_placeINtNtNtNtCsfvfooZQ3Axs_4core4iter8adapters3map3MapINtNtB4_9into_iter8IntoIterNtNtCs5AlOhPCr03V_3syn4attr9AttributeENCINvNtNtB2p_3gen4fold20fold_trait_item_typeNtNtCsdjy9FUDAuhT_18build_script_build11match_token16MatchTokenParserE0EB2l_EB3J_, symObjAddr: 0xBE00, symBinAddr: 0x10000C9F0, symSize: 0x260 }
  - { offset: 0x20036, size: 0x8, addend: 0x0, symName: __RINvNtNtCse1nGBsou5OW_5alloc3vec16in_place_collect18from_iter_in_placeINtNtNtNtCsfvfooZQ3Axs_4core4iter8adapters3map3MapINtNtB4_9into_iter8IntoIterNtNtCs5AlOhPCr03V_3syn4attr9AttributeENCINvNtNtB2p_3gen4fold21fold_expr_method_callNtNtCsdjy9FUDAuhT_18build_script_build11match_token16MatchTokenParserE0EB2l_EB3K_, symObjAddr: 0xC060, symBinAddr: 0x10000CC50, symSize: 0x260 }
  - { offset: 0x204C4, size: 0x8, addend: 0x0, symName: __RINvNtNtCse1nGBsou5OW_5alloc3vec16in_place_collect18from_iter_in_placeINtNtNtNtCsfvfooZQ3Axs_4core4iter8adapters3map3MapINtNtB4_9into_iter8IntoIterNtNtCs5AlOhPCr03V_3syn4attr9AttributeENCINvNtNtB2p_3gen4fold21fold_impl_item_methodNtNtCsdjy9FUDAuhT_18build_script_build11match_token16MatchTokenParserE0EB2l_EB3K_, symObjAddr: 0xC2C0, symBinAddr: 0x10000CEB0, symSize: 0x260 }
  - { offset: 0x20952, size: 0x8, addend: 0x0, symName: __RINvNtNtCse1nGBsou5OW_5alloc3vec16in_place_collect18from_iter_in_placeINtNtNtNtCsfvfooZQ3Axs_4core4iter8adapters3map3MapINtNtB4_9into_iter8IntoIterNtNtCs5AlOhPCr03V_3syn4attr9AttributeENCINvNtNtB2p_3gen4fold21fold_item_foreign_modNtNtCsdjy9FUDAuhT_18build_script_build11match_token16MatchTokenParserE0EB2l_EB3K_, symObjAddr: 0xC520, symBinAddr: 0x10000D110, symSize: 0x260 }
  - { offset: 0x20DE0, size: 0x8, addend: 0x0, symName: __RINvNtNtCse1nGBsou5OW_5alloc3vec16in_place_collect18from_iter_in_placeINtNtNtNtCsfvfooZQ3Axs_4core4iter8adapters3map3MapINtNtB4_9into_iter8IntoIterNtNtCs5AlOhPCr03V_3syn4attr9AttributeENCINvNtNtB2p_3gen4fold21fold_item_trait_aliasNtNtCsdjy9FUDAuhT_18build_script_build11match_token16MatchTokenParserE0EB2l_EB3K_, symObjAddr: 0xC780, symBinAddr: 0x10000D370, symSize: 0x260 }
  - { offset: 0x2126E, size: 0x8, addend: 0x0, symName: __RINvNtNtCse1nGBsou5OW_5alloc3vec16in_place_collect18from_iter_in_placeINtNtNtNtCsfvfooZQ3Axs_4core4iter8adapters3map3MapINtNtB4_9into_iter8IntoIterNtNtCs5AlOhPCr03V_3syn4attr9AttributeENCINvNtNtB2p_3gen4fold21fold_pat_tuple_structNtNtCsdjy9FUDAuhT_18build_script_build11match_token16MatchTokenParserE0EB2l_EB3K_, symObjAddr: 0xC9E0, symBinAddr: 0x10000D5D0, symSize: 0x260 }
  - { offset: 0x216FC, size: 0x8, addend: 0x0, symName: __RINvNtNtCse1nGBsou5OW_5alloc3vec16in_place_collect18from_iter_in_placeINtNtNtNtCsfvfooZQ3Axs_4core4iter8adapters3map3MapINtNtB4_9into_iter8IntoIterNtNtCs5AlOhPCr03V_3syn4attr9AttributeENCINvNtNtB2p_3gen4fold21fold_trait_item_constNtNtCsdjy9FUDAuhT_18build_script_build11match_token16MatchTokenParserE0EB2l_EB3K_, symObjAddr: 0xCC40, symBinAddr: 0x10000D830, symSize: 0x260 }
  - { offset: 0x21B8A, size: 0x8, addend: 0x0, symName: __RINvNtNtCse1nGBsou5OW_5alloc3vec16in_place_collect18from_iter_in_placeINtNtNtNtCsfvfooZQ3Axs_4core4iter8adapters3map3MapINtNtB4_9into_iter8IntoIterNtNtCs5AlOhPCr03V_3syn4attr9AttributeENCINvNtNtB2p_3gen4fold21fold_trait_item_macroNtNtCsdjy9FUDAuhT_18build_script_build11match_token16MatchTokenParserE0EB2l_EB3K_, symObjAddr: 0xCEA0, symBinAddr: 0x10000DA90, symSize: 0x260 }
  - { offset: 0x22018, size: 0x8, addend: 0x0, symName: __RINvNtNtCse1nGBsou5OW_5alloc3vec16in_place_collect18from_iter_in_placeINtNtNtNtCsfvfooZQ3Axs_4core4iter8adapters3map3MapINtNtB4_9into_iter8IntoIterNtNtCs5AlOhPCr03V_3syn4attr9AttributeENCINvNtNtB2p_3gen4fold22fold_foreign_item_typeNtNtCsdjy9FUDAuhT_18build_script_build11match_token16MatchTokenParserE0EB2l_EB3L_, symObjAddr: 0xD100, symBinAddr: 0x10000DCF0, symSize: 0x260 }
  - { offset: 0x224A6, size: 0x8, addend: 0x0, symName: __RINvNtNtCse1nGBsou5OW_5alloc3vec16in_place_collect18from_iter_in_placeINtNtNtNtCsfvfooZQ3Axs_4core4iter8adapters3map3MapINtNtB4_9into_iter8IntoIterNtNtCs5AlOhPCr03V_3syn4attr9AttributeENCINvNtNtB2p_3gen4fold22fold_item_extern_crateNtNtCsdjy9FUDAuhT_18build_script_build11match_token16MatchTokenParserE0EB2l_EB3L_, symObjAddr: 0xD360, symBinAddr: 0x10000DF50, symSize: 0x260 }
  - { offset: 0x22934, size: 0x8, addend: 0x0, symName: __RINvNtNtCse1nGBsou5OW_5alloc3vec16in_place_collect18from_iter_in_placeINtNtNtNtCsfvfooZQ3Axs_4core4iter8adapters3map3MapINtNtB4_9into_iter8IntoIterNtNtCs5AlOhPCr03V_3syn4attr9AttributeENCINvNtNtB2p_3gen4fold22fold_trait_item_methodNtNtCsdjy9FUDAuhT_18build_script_build11match_token16MatchTokenParserE0EB2l_EB3L_, symObjAddr: 0xD5C0, symBinAddr: 0x10000E1B0, symSize: 0x260 }
  - { offset: 0x22DC2, size: 0x8, addend: 0x0, symName: __RINvNtNtCse1nGBsou5OW_5alloc3vec16in_place_collect18from_iter_in_placeINtNtNtNtCsfvfooZQ3Axs_4core4iter8adapters3map3MapINtNtB4_9into_iter8IntoIterNtNtCs5AlOhPCr03V_3syn4attr9AttributeENCINvNtNtB2p_3gen4fold23fold_foreign_item_macroNtNtCsdjy9FUDAuhT_18build_script_build11match_token16MatchTokenParserE0EB2l_EB3M_, symObjAddr: 0xD820, symBinAddr: 0x10000E410, symSize: 0x260 }
  - { offset: 0x23250, size: 0x8, addend: 0x0, symName: __RINvNtNtCse1nGBsou5OW_5alloc3vec16in_place_collect18from_iter_in_placeINtNtNtNtCsfvfooZQ3Axs_4core4iter8adapters3map3MapINtNtB4_9into_iter8IntoIterNtNtCs5AlOhPCr03V_3syn4attr9AttributeENCINvNtNtB2p_3gen4fold24fold_foreign_item_staticNtNtCsdjy9FUDAuhT_18build_script_build11match_token16MatchTokenParserE0EB2l_EB3N_, symObjAddr: 0xDA80, symBinAddr: 0x10000E670, symSize: 0x260 }
  - { offset: 0x236DE, size: 0x8, addend: 0x0, symName: __RINvNtNtCse1nGBsou5OW_5alloc3vec16in_place_collect18from_iter_in_placeINtNtNtNtCsfvfooZQ3Axs_4core4iter8adapters3map3MapINtNtB4_9into_iter8IntoIterNtNtCs5AlOhPCr03V_3syn4attr9AttributeENCINvNtNtB2p_3gen4fold8fold_armNtNtCsdjy9FUDAuhT_18build_script_build11match_token16MatchTokenParserE0EB2l_EB3w_, symObjAddr: 0xDCE0, symBinAddr: 0x10000E8D0, symSize: 0x260 }
  - { offset: 0x23B6C, size: 0x8, addend: 0x0, symName: __RINvNtNtCse1nGBsou5OW_5alloc3vec16in_place_collect18from_iter_in_placeINtNtNtNtCsfvfooZQ3Axs_4core4iter8adapters3map3MapINtNtB4_9into_iter8IntoIterNtNtCs5AlOhPCr03V_3syn4attr9AttributeENCINvNtNtB2p_3gen4fold9fold_fileNtNtCsdjy9FUDAuhT_18build_script_build11match_token16MatchTokenParserE0EB2l_EB3x_, symObjAddr: 0xDF40, symBinAddr: 0x10000EB30, symSize: 0x260 }
  - { offset: 0x23FFA, size: 0x8, addend: 0x0, symName: __RINvNtNtCse1nGBsou5OW_5alloc3vec16in_place_collect18from_iter_in_placeINtNtNtNtCsfvfooZQ3Axs_4core4iter8adapters3map3MapINtNtB4_9into_iter8IntoIterNtNtCs5AlOhPCr03V_3syn4expr3ArmENCINvNtNtB2p_3gen4fold15fold_expr_matchNtNtCsdjy9FUDAuhT_18build_script_build11match_token16MatchTokenParserEs_0EB2l_EB3y_, symObjAddr: 0xE1A0, symBinAddr: 0x10000ED90, symSize: 0x260 }
  - { offset: 0x24488, size: 0x8, addend: 0x0, symName: __RINvNtNtCse1nGBsou5OW_5alloc3vec16in_place_collect18from_iter_in_placeINtNtNtNtCsfvfooZQ3Axs_4core4iter8adapters3map3MapINtNtB4_9into_iter8IntoIterNtNtCs5AlOhPCr03V_3syn4item11ForeignItemENCINvNtNtB2p_3gen4fold21fold_item_foreign_modNtNtCsdjy9FUDAuhT_18build_script_build11match_token16MatchTokenParserEs_0EB2l_EB3N_, symObjAddr: 0xE400, symBinAddr: 0x10000EFF0, symSize: 0x260 }
  - { offset: 0x24916, size: 0x8, addend: 0x0, symName: __RINvNtNtCse1nGBsou5OW_5alloc3vec16in_place_collect18from_iter_in_placeINtNtNtNtCsfvfooZQ3Axs_4core4iter8adapters3map3MapINtNtB4_9into_iter8IntoIterNtNtCs5AlOhPCr03V_3syn4item4ItemENCINvNtNtB2p_3gen4fold9fold_fileNtNtCsdjy9FUDAuhT_18build_script_build11match_token16MatchTokenParserEs_0EB2l_EB3s_, symObjAddr: 0xE660, symBinAddr: 0x10000F250, symSize: 0x260 }
  - { offset: 0x24DA4, size: 0x8, addend: 0x0, symName: __RINvNtNtCse1nGBsou5OW_5alloc3vec16in_place_collect18from_iter_in_placeINtNtNtNtCsfvfooZQ3Axs_4core4iter8adapters3map3MapINtNtB4_9into_iter8IntoIterNtNtCs5AlOhPCr03V_3syn4item4ItemENCNCINvNtNtB2p_3gen4fold13fold_item_modNtNtCsdjy9FUDAuhT_18build_script_build11match_token16MatchTokenParserEs_00EB2l_EB3z_, symObjAddr: 0xE8C0, symBinAddr: 0x10000F4B0, symSize: 0x260 }
  - { offset: 0x25232, size: 0x8, addend: 0x0, symName: __RINvNtNtCse1nGBsou5OW_5alloc3vec16in_place_collect18from_iter_in_placeINtNtNtNtCsfvfooZQ3Axs_4core4iter8adapters3map3MapINtNtB4_9into_iter8IntoIterNtNtCs5AlOhPCr03V_3syn4item8ImplItemENCINvNtNtB2p_3gen4fold14fold_item_implNtNtCsdjy9FUDAuhT_18build_script_build11match_token16MatchTokenParserEs2_0EB2l_EB3C_, symObjAddr: 0xEB20, symBinAddr: 0x10000F710, symSize: 0x260 }
  - { offset: 0x256C0, size: 0x8, addend: 0x0, symName: __RINvNtNtCse1nGBsou5OW_5alloc3vec16in_place_collect18from_iter_in_placeINtNtNtNtCsfvfooZQ3Axs_4core4iter8adapters3map3MapINtNtB4_9into_iter8IntoIterNtNtCs5AlOhPCr03V_3syn4item9TraitItemENCINvNtNtB2p_3gen4fold15fold_item_traitNtNtCsdjy9FUDAuhT_18build_script_build11match_token16MatchTokenParserEs3_0EB2l_EB3E_, symObjAddr: 0xED80, symBinAddr: 0x10000F970, symSize: 0x260 }
  - { offset: 0x25B4E, size: 0x8, addend: 0x0, symName: __RINvNtNtCse1nGBsou5OW_5alloc3vec16in_place_collect18from_iter_in_placeINtNtNtNtCsfvfooZQ3Axs_4core4iter8adapters3map3MapINtNtB4_9into_iter8IntoIterNtNtCs5AlOhPCr03V_3syn4stmt4StmtENCINvNtNtB2p_3gen4fold10fold_blockNtNtCsdjy9FUDAuhT_18build_script_build11match_token16MatchTokenParserE0EB2l_EB3u_, symObjAddr: 0xEFE0, symBinAddr: 0x10000FBD0, symSize: 0x260 }
  - { offset: 0x25FA8, size: 0x8, addend: 0x0, symName: __RNCINvNtNtCse1nGBsou5OW_5alloc3vec16in_place_collect24write_in_place_with_dropNtNtCs5AlOhPCr03V_3syn4attr9AttributeE0Csdjy9FUDAuhT_18build_script_build, symObjAddr: 0xF240, symBinAddr: 0x10000FE30, symSize: 0x60 }
  - { offset: 0x2602A, size: 0x8, addend: 0x0, symName: __RNCINvNtNtCse1nGBsou5OW_5alloc3vec16in_place_collect24write_in_place_with_dropNtNtCs5AlOhPCr03V_3syn4expr3ArmE0Csdjy9FUDAuhT_18build_script_build, symObjAddr: 0xF2A0, symBinAddr: 0x10000FE90, symSize: 0x60 }
  - { offset: 0x260AC, size: 0x8, addend: 0x0, symName: __RNCINvNtNtCse1nGBsou5OW_5alloc3vec16in_place_collect24write_in_place_with_dropNtNtCs5AlOhPCr03V_3syn4item11ForeignItemE0Csdjy9FUDAuhT_18build_script_build, symObjAddr: 0xF300, symBinAddr: 0x10000FEF0, symSize: 0x60 }
  - { offset: 0x2612E, size: 0x8, addend: 0x0, symName: __RNCINvNtNtCse1nGBsou5OW_5alloc3vec16in_place_collect24write_in_place_with_dropNtNtCs5AlOhPCr03V_3syn4item4ItemE0Csdjy9FUDAuhT_18build_script_build, symObjAddr: 0xF360, symBinAddr: 0x10000FF50, symSize: 0x60 }
  - { offset: 0x261B0, size: 0x8, addend: 0x0, symName: __RNCINvNtNtCse1nGBsou5OW_5alloc3vec16in_place_collect24write_in_place_with_dropNtNtCs5AlOhPCr03V_3syn4item8ImplItemE0Csdjy9FUDAuhT_18build_script_build, symObjAddr: 0xF3C0, symBinAddr: 0x10000FFB0, symSize: 0x60 }
  - { offset: 0x26232, size: 0x8, addend: 0x0, symName: __RNCINvNtNtCse1nGBsou5OW_5alloc3vec16in_place_collect24write_in_place_with_dropNtNtCs5AlOhPCr03V_3syn4item9TraitItemE0Csdjy9FUDAuhT_18build_script_build, symObjAddr: 0xF420, symBinAddr: 0x100010010, symSize: 0x60 }
  - { offset: 0x262B4, size: 0x8, addend: 0x0, symName: __RNCINvNtNtCse1nGBsou5OW_5alloc3vec16in_place_collect24write_in_place_with_dropNtNtCs5AlOhPCr03V_3syn4stmt4StmtE0Csdjy9FUDAuhT_18build_script_build, symObjAddr: 0xF480, symBinAddr: 0x100010070, symSize: 0x60 }
  - { offset: 0x35A66, size: 0x8, addend: 0x0, symName: __RINvXs3_NtNtCse1nGBsou5OW_5alloc3vec9into_iterINtB6_8IntoIterNtNtCs5AlOhPCr03V_3syn4attr9AttributeENtNtNtNtCsfvfooZQ3Axs_4core4iter6traits8iterator8Iterator8try_foldINtNtB8_13in_place_drop11InPlaceDropBX_ENCINvNtNtB1F_8adapters3map12map_try_foldBX_BX_B2D_INtNtB1H_6result6ResultB2D_zENCINvNtNtB11_3gen4fold10fold_fieldNtNtCsdjy9FUDAuhT_18build_script_build11match_token16MatchTokenParserE0NCINvNtB8_16in_place_collect24write_in_place_with_dropBX_E0E0B45_EB5a_, symObjAddr: 0x0, symBinAddr: 0x1000100D0, symSize: 0x1F0 }
  - { offset: 0x471F7, size: 0x8, addend: 0x0, symName: __RINvYINtNtNtCse1nGBsou5OW_5alloc3vec9into_iter8IntoIterNtNtCs5AlOhPCr03V_3syn4attr9AttributeENtNtNtNtCsfvfooZQ3Axs_4core4iter6traits8iterator8Iterator3mapBR_NCINvNtNtBV_3gen4fold10fold_fieldNtNtCsdjy9FUDAuhT_18build_script_build11match_token16MatchTokenParserE0EB36_, symObjAddr: 0xC5A8, symBinAddr: 0x10001C678, symSize: 0x28 }
  - { offset: 0x47264, size: 0x8, addend: 0x0, symName: __RINvYINtNtNtCse1nGBsou5OW_5alloc3vec9into_iter8IntoIterNtNtCs5AlOhPCr03V_3syn4attr9AttributeENtNtNtNtCsfvfooZQ3Axs_4core4iter6traits8iterator8Iterator3mapBR_NCINvNtNtBV_3gen4fold10fold_localNtNtCsdjy9FUDAuhT_18build_script_build11match_token16MatchTokenParserE0EB36_, symObjAddr: 0xC5D0, symBinAddr: 0x10001C6A0, symSize: 0x28 }
  - { offset: 0x472D1, size: 0x8, addend: 0x0, symName: __RINvYINtNtNtCse1nGBsou5OW_5alloc3vec9into_iter8IntoIterNtNtCs5AlOhPCr03V_3syn4attr9AttributeENtNtNtNtCsfvfooZQ3Axs_4core4iter6traits8iterator8Iterator3mapBR_NCINvNtNtBV_3gen4fold11fold_pat_orNtNtCsdjy9FUDAuhT_18build_script_build11match_token16MatchTokenParserE0EB37_, symObjAddr: 0xC5F8, symBinAddr: 0x10001C6C8, symSize: 0x28 }
  - { offset: 0x4733E, size: 0x8, addend: 0x0, symName: __RINvYINtNtNtCse1nGBsou5OW_5alloc3vec9into_iter8IntoIterNtNtCs5AlOhPCr03V_3syn4attr9AttributeENtNtNtNtCsfvfooZQ3Axs_4core4iter6traits8iterator8Iterator3mapBR_NCINvNtNtBV_3gen4fold12fold_expr_ifNtNtCsdjy9FUDAuhT_18build_script_build11match_token16MatchTokenParserE0EB38_, symObjAddr: 0xC620, symBinAddr: 0x10001C6F0, symSize: 0x28 }
  - { offset: 0x473AB, size: 0x8, addend: 0x0, symName: __RINvYINtNtNtCse1nGBsou5OW_5alloc3vec9into_iter8IntoIterNtNtCs5AlOhPCr03V_3syn4attr9AttributeENtNtNtNtCsfvfooZQ3Axs_4core4iter6traits8iterator8Iterator3mapBR_NCINvNtNtBV_3gen4fold12fold_item_fnNtNtCsdjy9FUDAuhT_18build_script_build11match_token16MatchTokenParserE0EB38_, symObjAddr: 0xC648, symBinAddr: 0x10001C718, symSize: 0x28 }
  - { offset: 0x47418, size: 0x8, addend: 0x0, symName: __RINvYINtNtNtCse1nGBsou5OW_5alloc3vec9into_iter8IntoIterNtNtCs5AlOhPCr03V_3syn4attr9AttributeENtNtNtNtCsfvfooZQ3Axs_4core4iter6traits8iterator8Iterator3mapBR_NCINvNtNtBV_3gen4fold12fold_pat_boxNtNtCsdjy9FUDAuhT_18build_script_build11match_token16MatchTokenParserE0EB38_, symObjAddr: 0xC670, symBinAddr: 0x10001C740, symSize: 0x28 }
  - { offset: 0x47485, size: 0x8, addend: 0x0, symName: __RINvYINtNtNtCse1nGBsou5OW_5alloc3vec9into_iter8IntoIterNtNtCs5AlOhPCr03V_3syn4attr9AttributeENtNtNtNtCsfvfooZQ3Axs_4core4iter6traits8iterator8Iterator3mapBR_NCINvNtNtBV_3gen4fold12fold_pat_litNtNtCsdjy9FUDAuhT_18build_script_build11match_token16MatchTokenParserE0EB38_, symObjAddr: 0xC698, symBinAddr: 0x10001C768, symSize: 0x28 }
  - { offset: 0x474F2, size: 0x8, addend: 0x0, symName: __RINvYINtNtNtCse1nGBsou5OW_5alloc3vec9into_iter8IntoIterNtNtCs5AlOhPCr03V_3syn4attr9AttributeENtNtNtNtCsfvfooZQ3Axs_4core4iter6traits8iterator8Iterator3mapBR_NCINvNtNtBV_3gen4fold12fold_variantNtNtCsdjy9FUDAuhT_18build_script_build11match_token16MatchTokenParserE0EB38_, symObjAddr: 0xC6C0, symBinAddr: 0x10001C790, symSize: 0x28 }
  - { offset: 0x4755F, size: 0x8, addend: 0x0, symName: __RINvYINtNtNtCse1nGBsou5OW_5alloc3vec9into_iter8IntoIterNtNtCs5AlOhPCr03V_3syn4attr9AttributeENtNtNtNtCsfvfooZQ3Axs_4core4iter6traits8iterator8Iterator3mapBR_NCINvNtNtBV_3gen4fold13fold_expr_boxNtNtCsdjy9FUDAuhT_18build_script_build11match_token16MatchTokenParserE0EB39_, symObjAddr: 0xC6E8, symBinAddr: 0x10001C7B8, symSize: 0x28 }
  - { offset: 0x475CC, size: 0x8, addend: 0x0, symName: __RINvYINtNtNtCse1nGBsou5OW_5alloc3vec9into_iter8IntoIterNtNtCs5AlOhPCr03V_3syn4attr9AttributeENtNtNtNtCsfvfooZQ3Axs_4core4iter6traits8iterator8Iterator3mapBR_NCINvNtNtBV_3gen4fold13fold_expr_letNtNtCsdjy9FUDAuhT_18build_script_build11match_token16MatchTokenParserE0EB39_, symObjAddr: 0xC710, symBinAddr: 0x10001C7E0, symSize: 0x28 }
  - { offset: 0x47639, size: 0x8, addend: 0x0, symName: __RINvYINtNtNtCse1nGBsou5OW_5alloc3vec9into_iter8IntoIterNtNtCs5AlOhPCr03V_3syn4attr9AttributeENtNtNtNtCsfvfooZQ3Axs_4core4iter6traits8iterator8Iterator3mapBR_NCINvNtNtBV_3gen4fold13fold_expr_litNtNtCsdjy9FUDAuhT_18build_script_build11match_token16MatchTokenParserE0EB39_, symObjAddr: 0xC738, symBinAddr: 0x10001C808, symSize: 0x28 }
  - { offset: 0x476A6, size: 0x8, addend: 0x0, symName: __RINvYINtNtNtCse1nGBsou5OW_5alloc3vec9into_iter8IntoIterNtNtCs5AlOhPCr03V_3syn4attr9AttributeENtNtNtNtCsfvfooZQ3Axs_4core4iter6traits8iterator8Iterator3mapBR_NCINvNtNtBV_3gen4fold13fold_expr_tryNtNtCsdjy9FUDAuhT_18build_script_build11match_token16MatchTokenParserE0EB39_, symObjAddr: 0xC760, symBinAddr: 0x10001C830, symSize: 0x28 }
  - { offset: 0x47713, size: 0x8, addend: 0x0, symName: __RINvYINtNtNtCse1nGBsou5OW_5alloc3vec9into_iter8IntoIterNtNtCs5AlOhPCr03V_3syn4attr9AttributeENtNtNtNtCsfvfooZQ3Axs_4core4iter6traits8iterator8Iterator3mapBR_NCINvNtNtBV_3gen4fold13fold_item_modNtNtCsdjy9FUDAuhT_18build_script_build11match_token16MatchTokenParserE0EB39_, symObjAddr: 0xC788, symBinAddr: 0x10001C858, symSize: 0x28 }
  - { offset: 0x47780, size: 0x8, addend: 0x0, symName: __RINvYINtNtNtCse1nGBsou5OW_5alloc3vec9into_iter8IntoIterNtNtCs5AlOhPCr03V_3syn4attr9AttributeENtNtNtNtCsfvfooZQ3Axs_4core4iter6traits8iterator8Iterator3mapBR_NCINvNtNtBV_3gen4fold13fold_item_useNtNtCsdjy9FUDAuhT_18build_script_build11match_token16MatchTokenParserE0EB39_, symObjAddr: 0xC7B0, symBinAddr: 0x10001C880, symSize: 0x28 }
  - { offset: 0x477ED, size: 0x8, addend: 0x0, symName: __RINvYINtNtNtCse1nGBsou5OW_5alloc3vec9into_iter8IntoIterNtNtCs5AlOhPCr03V_3syn4attr9AttributeENtNtNtNtCsfvfooZQ3Axs_4core4iter6traits8iterator8Iterator3mapBR_NCINvNtNtBV_3gen4fold13fold_pat_pathNtNtCsdjy9FUDAuhT_18build_script_build11match_token16MatchTokenParserE0EB39_, symObjAddr: 0xC7D8, symBinAddr: 0x10001C8A8, symSize: 0x28 }
  - { offset: 0x4785A, size: 0x8, addend: 0x0, symName: __RINvYINtNtNtCse1nGBsou5OW_5alloc3vec9into_iter8IntoIterNtNtCs5AlOhPCr03V_3syn4attr9AttributeENtNtNtNtCsfvfooZQ3Axs_4core4iter6traits8iterator8Iterator3mapBR_NCINvNtNtBV_3gen4fold13fold_pat_restNtNtCsdjy9FUDAuhT_18build_script_build11match_token16MatchTokenParserE0EB39_, symObjAddr: 0xC800, symBinAddr: 0x10001C8D0, symSize: 0x28 }
  - { offset: 0x478C7, size: 0x8, addend: 0x0, symName: __RINvYINtNtNtCse1nGBsou5OW_5alloc3vec9into_iter8IntoIterNtNtCs5AlOhPCr03V_3syn4attr9AttributeENtNtNtNtCsfvfooZQ3Axs_4core4iter6traits8iterator8Iterator3mapBR_NCINvNtNtBV_3gen4fold13fold_pat_typeNtNtCsdjy9FUDAuhT_18build_script_build11match_token16MatchTokenParserE0EB39_, symObjAddr: 0xC828, symBinAddr: 0x10001C8F8, symSize: 0x28 }
  - { offset: 0x47934, size: 0x8, addend: 0x0, symName: __RINvYINtNtNtCse1nGBsou5OW_5alloc3vec9into_iter8IntoIterNtNtCs5AlOhPCr03V_3syn4attr9AttributeENtNtNtNtCsfvfooZQ3Axs_4core4iter6traits8iterator8Iterator3mapBR_NCINvNtNtBV_3gen4fold13fold_pat_wildNtNtCsdjy9FUDAuhT_18build_script_build11match_token16MatchTokenParserE0EB39_, symObjAddr: 0xC850, symBinAddr: 0x10001C920, symSize: 0x28 }
  - { offset: 0x479A1, size: 0x8, addend: 0x0, symName: __RINvYINtNtNtCse1nGBsou5OW_5alloc3vec9into_iter8IntoIterNtNtCs5AlOhPCr03V_3syn4attr9AttributeENtNtNtNtCsfvfooZQ3Axs_4core4iter6traits8iterator8Iterator3mapBR_NCINvNtNtBV_3gen4fold13fold_receiverNtNtCsdjy9FUDAuhT_18build_script_build11match_token16MatchTokenParserE0EB39_, symObjAddr: 0xC878, symBinAddr: 0x10001C948, symSize: 0x28 }
  - { offset: 0x47A0E, size: 0x8, addend: 0x0, symName: __RINvYINtNtNtCse1nGBsou5OW_5alloc3vec9into_iter8IntoIterNtNtCs5AlOhPCr03V_3syn4attr9AttributeENtNtNtNtCsfvfooZQ3Axs_4core4iter6traits8iterator8Iterator3mapBR_NCINvNtNtBV_3gen4fold13fold_variadicNtNtCsdjy9FUDAuhT_18build_script_build11match_token16MatchTokenParserE0EB39_, symObjAddr: 0xC8A0, symBinAddr: 0x10001C970, symSize: 0x28 }
  - { offset: 0x47A7B, size: 0x8, addend: 0x0, symName: __RINvYINtNtNtCse1nGBsou5OW_5alloc3vec9into_iter8IntoIterNtNtCs5AlOhPCr03V_3syn4attr9AttributeENtNtNtNtCsfvfooZQ3Axs_4core4iter6traits8iterator8Iterator3mapBR_NCINvNtNtBV_3gen4fold14fold_expr_callNtNtCsdjy9FUDAuhT_18build_script_build11match_token16MatchTokenParserE0EB3a_, symObjAddr: 0xC8C8, symBinAddr: 0x10001C998, symSize: 0x28 }
  - { offset: 0x47AE8, size: 0x8, addend: 0x0, symName: __RINvYINtNtNtCse1nGBsou5OW_5alloc3vec9into_iter8IntoIterNtNtCs5AlOhPCr03V_3syn4attr9AttributeENtNtNtNtCsfvfooZQ3Axs_4core4iter6traits8iterator8Iterator3mapBR_NCINvNtNtBV_3gen4fold14fold_expr_castNtNtCsdjy9FUDAuhT_18build_script_build11match_token16MatchTokenParserE0EB3a_, symObjAddr: 0xC8F0, symBinAddr: 0x10001C9C0, symSize: 0x28 }
  - { offset: 0x47B55, size: 0x8, addend: 0x0, symName: __RINvYINtNtNtCse1nGBsou5OW_5alloc3vec9into_iter8IntoIterNtNtCs5AlOhPCr03V_3syn4attr9AttributeENtNtNtNtCsfvfooZQ3Axs_4core4iter6traits8iterator8Iterator3mapBR_NCINvNtNtBV_3gen4fold14fold_expr_loopNtNtCsdjy9FUDAuhT_18build_script_build11match_token16MatchTokenParserE0EB3a_, symObjAddr: 0xC918, symBinAddr: 0x10001C9E8, symSize: 0x28 }
  - { offset: 0x47BC2, size: 0x8, addend: 0x0, symName: __RINvYINtNtNtCse1nGBsou5OW_5alloc3vec9into_iter8IntoIterNtNtCs5AlOhPCr03V_3syn4attr9AttributeENtNtNtNtCsfvfooZQ3Axs_4core4iter6traits8iterator8Iterator3mapBR_NCINvNtNtBV_3gen4fold14fold_expr_pathNtNtCsdjy9FUDAuhT_18build_script_build11match_token16MatchTokenParserE0EB3a_, symObjAddr: 0xC940, symBinAddr: 0x10001CA10, symSize: 0x28 }
  - { offset: 0x47C2F, size: 0x8, addend: 0x0, symName: __RINvYINtNtNtCse1nGBsou5OW_5alloc3vec9into_iter8IntoIterNtNtCs5AlOhPCr03V_3syn4attr9AttributeENtNtNtNtCsfvfooZQ3Axs_4core4iter6traits8iterator8Iterator3mapBR_NCINvNtNtBV_3gen4fold14fold_expr_typeNtNtCsdjy9FUDAuhT_18build_script_build11match_token16MatchTokenParserE0EB3a_, symObjAddr: 0xC968, symBinAddr: 0x10001CA38, symSize: 0x28 }
  - { offset: 0x47C9C, size: 0x8, addend: 0x0, symName: __RINvYINtNtNtCse1nGBsou5OW_5alloc3vec9into_iter8IntoIterNtNtCs5AlOhPCr03V_3syn4attr9AttributeENtNtNtNtCsfvfooZQ3Axs_4core4iter6traits8iterator8Iterator3mapBR_NCINvNtNtBV_3gen4fold14fold_field_patNtNtCsdjy9FUDAuhT_18build_script_build11match_token16MatchTokenParserE0EB3a_, symObjAddr: 0xC990, symBinAddr: 0x10001CA60, symSize: 0x28 }
  - { offset: 0x47D09, size: 0x8, addend: 0x0, symName: __RINvYINtNtNtCse1nGBsou5OW_5alloc3vec9into_iter8IntoIterNtNtCs5AlOhPCr03V_3syn4attr9AttributeENtNtNtNtCsfvfooZQ3Axs_4core4iter6traits8iterator8Iterator3mapBR_NCINvNtNtBV_3gen4fold14fold_item_enumNtNtCsdjy9FUDAuhT_18build_script_build11match_token16MatchTokenParserE0EB3a_, symObjAddr: 0xC9B8, symBinAddr: 0x10001CA88, symSize: 0x28 }
  - { offset: 0x47D76, size: 0x8, addend: 0x0, symName: __RINvYINtNtNtCse1nGBsou5OW_5alloc3vec9into_iter8IntoIterNtNtCs5AlOhPCr03V_3syn4attr9AttributeENtNtNtNtCsfvfooZQ3Axs_4core4iter6traits8iterator8Iterator3mapBR_NCINvNtNtBV_3gen4fold14fold_item_implNtNtCsdjy9FUDAuhT_18build_script_build11match_token16MatchTokenParserE0EB3a_, symObjAddr: 0xC9E0, symBinAddr: 0x10001CAB0, symSize: 0x28 }
  - { offset: 0x47DE3, size: 0x8, addend: 0x0, symName: __RINvYINtNtNtCse1nGBsou5OW_5alloc3vec9into_iter8IntoIterNtNtCs5AlOhPCr03V_3syn4attr9AttributeENtNtNtNtCsfvfooZQ3Axs_4core4iter6traits8iterator8Iterator3mapBR_NCINvNtNtBV_3gen4fold14fold_item_typeNtNtCsdjy9FUDAuhT_18build_script_build11match_token16MatchTokenParserE0EB3a_, symObjAddr: 0xCA08, symBinAddr: 0x10001CAD8, symSize: 0x28 }
  - { offset: 0x47E50, size: 0x8, addend: 0x0, symName: __RINvYINtNtNtCse1nGBsou5OW_5alloc3vec9into_iter8IntoIterNtNtCs5AlOhPCr03V_3syn4attr9AttributeENtNtNtNtCsfvfooZQ3Axs_4core4iter6traits8iterator8Iterator3mapBR_NCINvNtNtBV_3gen4fold14fold_pat_identNtNtCsdjy9FUDAuhT_18build_script_build11match_token16MatchTokenParserE0EB3a_, symObjAddr: 0xCA30, symBinAddr: 0x10001CB00, symSize: 0x28 }
  - { offset: 0x47EBD, size: 0x8, addend: 0x0, symName: __RINvYINtNtNtCse1nGBsou5OW_5alloc3vec9into_iter8IntoIterNtNtCs5AlOhPCr03V_3syn4attr9AttributeENtNtNtNtCsfvfooZQ3Axs_4core4iter6traits8iterator8Iterator3mapBR_NCINvNtNtBV_3gen4fold14fold_pat_macroNtNtCsdjy9FUDAuhT_18build_script_build11match_token16MatchTokenParserE0EB3a_, symObjAddr: 0xCA58, symBinAddr: 0x10001CB28, symSize: 0x28 }
  - { offset: 0x47F2A, size: 0x8, addend: 0x0, symName: __RINvYINtNtNtCse1nGBsou5OW_5alloc3vec9into_iter8IntoIterNtNtCs5AlOhPCr03V_3syn4attr9AttributeENtNtNtNtCsfvfooZQ3Axs_4core4iter6traits8iterator8Iterator3mapBR_NCINvNtNtBV_3gen4fold14fold_pat_rangeNtNtCsdjy9FUDAuhT_18build_script_build11match_token16MatchTokenParserE0EB3a_, symObjAddr: 0xCA80, symBinAddr: 0x10001CB50, symSize: 0x28 }
  - { offset: 0x47F97, size: 0x8, addend: 0x0, symName: __RINvYINtNtNtCse1nGBsou5OW_5alloc3vec9into_iter8IntoIterNtNtCs5AlOhPCr03V_3syn4attr9AttributeENtNtNtNtCsfvfooZQ3Axs_4core4iter6traits8iterator8Iterator3mapBR_NCINvNtNtBV_3gen4fold14fold_pat_sliceNtNtCsdjy9FUDAuhT_18build_script_build11match_token16MatchTokenParserE0EB3a_, symObjAddr: 0xCAA8, symBinAddr: 0x10001CB78, symSize: 0x28 }
  - { offset: 0x48004, size: 0x8, addend: 0x0, symName: __RINvYINtNtNtCse1nGBsou5OW_5alloc3vec9into_iter8IntoIterNtNtCs5AlOhPCr03V_3syn4attr9AttributeENtNtNtNtCsfvfooZQ3Axs_4core4iter6traits8iterator8Iterator3mapBR_NCINvNtNtBV_3gen4fold14fold_pat_tupleNtNtCsdjy9FUDAuhT_18build_script_build11match_token16MatchTokenParserE0EB3a_, symObjAddr: 0xCAD0, symBinAddr: 0x10001CBA0, symSize: 0x28 }
  - { offset: 0x48071, size: 0x8, addend: 0x0, symName: __RINvYINtNtNtCse1nGBsou5OW_5alloc3vec9into_iter8IntoIterNtNtCs5AlOhPCr03V_3syn4attr9AttributeENtNtNtNtCsfvfooZQ3Axs_4core4iter6traits8iterator8Iterator3mapBR_NCINvNtNtBV_3gen4fold15fold_expr_arrayNtNtCsdjy9FUDAuhT_18build_script_build11match_token16MatchTokenParserE0EB3b_, symObjAddr: 0xCAF8, symBinAddr: 0x10001CBC8, symSize: 0x28 }
  - { offset: 0x480DE, size: 0x8, addend: 0x0, symName: __RINvYINtNtNtCse1nGBsou5OW_5alloc3vec9into_iter8IntoIterNtNtCs5AlOhPCr03V_3syn4attr9AttributeENtNtNtNtCsfvfooZQ3Axs_4core4iter6traits8iterator8Iterator3mapBR_NCINvNtNtBV_3gen4fold15fold_expr_asyncNtNtCsdjy9FUDAuhT_18build_script_build11match_token16MatchTokenParserE0EB3b_, symObjAddr: 0xCB20, symBinAddr: 0x10001CBF0, symSize: 0x28 }
  - { offset: 0x4814B, size: 0x8, addend: 0x0, symName: __RINvYINtNtNtCse1nGBsou5OW_5alloc3vec9into_iter8IntoIterNtNtCs5AlOhPCr03V_3syn4attr9AttributeENtNtNtNtCsfvfooZQ3Axs_4core4iter6traits8iterator8Iterator3mapBR_NCINvNtNtBV_3gen4fold15fold_expr_awaitNtNtCsdjy9FUDAuhT_18build_script_build11match_token16MatchTokenParserE0EB3b_, symObjAddr: 0xCB48, symBinAddr: 0x10001CC18, symSize: 0x28 }
  - { offset: 0x481B8, size: 0x8, addend: 0x0, symName: __RINvYINtNtNtCse1nGBsou5OW_5alloc3vec9into_iter8IntoIterNtNtCs5AlOhPCr03V_3syn4attr9AttributeENtNtNtNtCsfvfooZQ3Axs_4core4iter6traits8iterator8Iterator3mapBR_NCINvNtNtBV_3gen4fold15fold_expr_blockNtNtCsdjy9FUDAuhT_18build_script_build11match_token16MatchTokenParserE0EB3b_, symObjAddr: 0xCB70, symBinAddr: 0x10001CC40, symSize: 0x28 }
  - { offset: 0x48225, size: 0x8, addend: 0x0, symName: __RINvYINtNtNtCse1nGBsou5OW_5alloc3vec9into_iter8IntoIterNtNtCs5AlOhPCr03V_3syn4attr9AttributeENtNtNtNtCsfvfooZQ3Axs_4core4iter6traits8iterator8Iterator3mapBR_NCINvNtNtBV_3gen4fold15fold_expr_breakNtNtCsdjy9FUDAuhT_18build_script_build11match_token16MatchTokenParserE0EB3b_, symObjAddr: 0xCB98, symBinAddr: 0x10001CC68, symSize: 0x28 }
  - { offset: 0x48292, size: 0x8, addend: 0x0, symName: __RINvYINtNtNtCse1nGBsou5OW_5alloc3vec9into_iter8IntoIterNtNtCs5AlOhPCr03V_3syn4attr9AttributeENtNtNtNtCsfvfooZQ3Axs_4core4iter6traits8iterator8Iterator3mapBR_NCINvNtNtBV_3gen4fold15fold_expr_fieldNtNtCsdjy9FUDAuhT_18build_script_build11match_token16MatchTokenParserE0EB3b_, symObjAddr: 0xCBC0, symBinAddr: 0x10001CC90, symSize: 0x28 }
  - { offset: 0x482FF, size: 0x8, addend: 0x0, symName: __RINvYINtNtNtCse1nGBsou5OW_5alloc3vec9into_iter8IntoIterNtNtCs5AlOhPCr03V_3syn4attr9AttributeENtNtNtNtCsfvfooZQ3Axs_4core4iter6traits8iterator8Iterator3mapBR_NCINvNtNtBV_3gen4fold15fold_expr_groupNtNtCsdjy9FUDAuhT_18build_script_build11match_token16MatchTokenParserE0EB3b_, symObjAddr: 0xCBE8, symBinAddr: 0x10001CCB8, symSize: 0x28 }
  - { offset: 0x4836C, size: 0x8, addend: 0x0, symName: __RINvYINtNtNtCse1nGBsou5OW_5alloc3vec9into_iter8IntoIterNtNtCs5AlOhPCr03V_3syn4attr9AttributeENtNtNtNtCsfvfooZQ3Axs_4core4iter6traits8iterator8Iterator3mapBR_NCINvNtNtBV_3gen4fold15fold_expr_indexNtNtCsdjy9FUDAuhT_18build_script_build11match_token16MatchTokenParserE0EB3b_, symObjAddr: 0xCC10, symBinAddr: 0x10001CCE0, symSize: 0x28 }
  - { offset: 0x483D9, size: 0x8, addend: 0x0, symName: __RINvYINtNtNtCse1nGBsou5OW_5alloc3vec9into_iter8IntoIterNtNtCs5AlOhPCr03V_3syn4attr9AttributeENtNtNtNtCsfvfooZQ3Axs_4core4iter6traits8iterator8Iterator3mapBR_NCINvNtNtBV_3gen4fold15fold_expr_macroNtNtCsdjy9FUDAuhT_18build_script_build11match_token16MatchTokenParserE0EB3b_, symObjAddr: 0xCC38, symBinAddr: 0x10001CD08, symSize: 0x28 }
  - { offset: 0x48446, size: 0x8, addend: 0x0, symName: __RINvYINtNtNtCse1nGBsou5OW_5alloc3vec9into_iter8IntoIterNtNtCs5AlOhPCr03V_3syn4attr9AttributeENtNtNtNtCsfvfooZQ3Axs_4core4iter6traits8iterator8Iterator3mapBR_NCINvNtNtBV_3gen4fold15fold_expr_matchNtNtCsdjy9FUDAuhT_18build_script_build11match_token16MatchTokenParserE0EB3b_, symObjAddr: 0xCC60, symBinAddr: 0x10001CD30, symSize: 0x28 }
  - { offset: 0x484B3, size: 0x8, addend: 0x0, symName: __RINvYINtNtNtCse1nGBsou5OW_5alloc3vec9into_iter8IntoIterNtNtCs5AlOhPCr03V_3syn4attr9AttributeENtNtNtNtCsfvfooZQ3Axs_4core4iter6traits8iterator8Iterator3mapBR_NCINvNtNtBV_3gen4fold15fold_expr_parenNtNtCsdjy9FUDAuhT_18build_script_build11match_token16MatchTokenParserE0EB3b_, symObjAddr: 0xCC88, symBinAddr: 0x10001CD58, symSize: 0x28 }
  - { offset: 0x48520, size: 0x8, addend: 0x0, symName: __RINvYINtNtNtCse1nGBsou5OW_5alloc3vec9into_iter8IntoIterNtNtCs5AlOhPCr03V_3syn4attr9AttributeENtNtNtNtCsfvfooZQ3Axs_4core4iter6traits8iterator8Iterator3mapBR_NCINvNtNtBV_3gen4fold15fold_expr_rangeNtNtCsdjy9FUDAuhT_18build_script_build11match_token16MatchTokenParserE0EB3b_, symObjAddr: 0xCCB0, symBinAddr: 0x10001CD80, symSize: 0x28 }
  - { offset: 0x4858D, size: 0x8, addend: 0x0, symName: __RINvYINtNtNtCse1nGBsou5OW_5alloc3vec9into_iter8IntoIterNtNtCs5AlOhPCr03V_3syn4attr9AttributeENtNtNtNtCsfvfooZQ3Axs_4core4iter6traits8iterator8Iterator3mapBR_NCINvNtNtBV_3gen4fold15fold_expr_tupleNtNtCsdjy9FUDAuhT_18build_script_build11match_token16MatchTokenParserE0EB3b_, symObjAddr: 0xCCD8, symBinAddr: 0x10001CDA8, symSize: 0x28 }
  - { offset: 0x485FA, size: 0x8, addend: 0x0, symName: __RINvYINtNtNtCse1nGBsou5OW_5alloc3vec9into_iter8IntoIterNtNtCs5AlOhPCr03V_3syn4attr9AttributeENtNtNtNtCsfvfooZQ3Axs_4core4iter6traits8iterator8Iterator3mapBR_NCINvNtNtBV_3gen4fold15fold_expr_unaryNtNtCsdjy9FUDAuhT_18build_script_build11match_token16MatchTokenParserE0EB3b_, symObjAddr: 0xCD00, symBinAddr: 0x10001CDD0, symSize: 0x28 }
  - { offset: 0x48667, size: 0x8, addend: 0x0, symName: __RINvYINtNtNtCse1nGBsou5OW_5alloc3vec9into_iter8IntoIterNtNtCs5AlOhPCr03V_3syn4attr9AttributeENtNtNtNtCsfvfooZQ3Axs_4core4iter6traits8iterator8Iterator3mapBR_NCINvNtNtBV_3gen4fold15fold_expr_whileNtNtCsdjy9FUDAuhT_18build_script_build11match_token16MatchTokenParserE0EB3b_, symObjAddr: 0xCD28, symBinAddr: 0x10001CDF8, symSize: 0x28 }
  - { offset: 0x486D4, size: 0x8, addend: 0x0, symName: __RINvYINtNtNtCse1nGBsou5OW_5alloc3vec9into_iter8IntoIterNtNtCs5AlOhPCr03V_3syn4attr9AttributeENtNtNtNtCsfvfooZQ3Axs_4core4iter6traits8iterator8Iterator3mapBR_NCINvNtNtBV_3gen4fold15fold_expr_yieldNtNtCsdjy9FUDAuhT_18build_script_build11match_token16MatchTokenParserE0EB3b_, symObjAddr: 0xCD50, symBinAddr: 0x10001CE20, symSize: 0x28 }
  - { offset: 0x48741, size: 0x8, addend: 0x0, symName: __RINvYINtNtNtCse1nGBsou5OW_5alloc3vec9into_iter8IntoIterNtNtCs5AlOhPCr03V_3syn4attr9AttributeENtNtNtNtCsfvfooZQ3Axs_4core4iter6traits8iterator8Iterator3mapBR_NCINvNtNtBV_3gen4fold15fold_item_constNtNtCsdjy9FUDAuhT_18build_script_build11match_token16MatchTokenParserE0EB3b_, symObjAddr: 0xCD78, symBinAddr: 0x10001CE48, symSize: 0x28 }
  - { offset: 0x487AE, size: 0x8, addend: 0x0, symName: __RINvYINtNtNtCse1nGBsou5OW_5alloc3vec9into_iter8IntoIterNtNtCs5AlOhPCr03V_3syn4attr9AttributeENtNtNtNtCsfvfooZQ3Axs_4core4iter6traits8iterator8Iterator3mapBR_NCINvNtNtBV_3gen4fold15fold_item_macroNtNtCsdjy9FUDAuhT_18build_script_build11match_token16MatchTokenParserE0EB3b_, symObjAddr: 0xCDA0, symBinAddr: 0x10001CE70, symSize: 0x28 }
  - { offset: 0x4881B, size: 0x8, addend: 0x0, symName: __RINvYINtNtNtCse1nGBsou5OW_5alloc3vec9into_iter8IntoIterNtNtCs5AlOhPCr03V_3syn4attr9AttributeENtNtNtNtCsfvfooZQ3Axs_4core4iter6traits8iterator8Iterator3mapBR_NCINvNtNtBV_3gen4fold15fold_item_traitNtNtCsdjy9FUDAuhT_18build_script_build11match_token16MatchTokenParserE0EB3b_, symObjAddr: 0xCDC8, symBinAddr: 0x10001CE98, symSize: 0x28 }
  - { offset: 0x48888, size: 0x8, addend: 0x0, symName: __RINvYINtNtNtCse1nGBsou5OW_5alloc3vec9into_iter8IntoIterNtNtCs5AlOhPCr03V_3syn4attr9AttributeENtNtNtNtCsfvfooZQ3Axs_4core4iter6traits8iterator8Iterator3mapBR_NCINvNtNtBV_3gen4fold15fold_item_unionNtNtCsdjy9FUDAuhT_18build_script_build11match_token16MatchTokenParserE0EB3b_, symObjAddr: 0xCDF0, symBinAddr: 0x10001CEC0, symSize: 0x28 }
  - { offset: 0x488F5, size: 0x8, addend: 0x0, symName: __RINvYINtNtNtCse1nGBsou5OW_5alloc3vec9into_iter8IntoIterNtNtCs5AlOhPCr03V_3syn4attr9AttributeENtNtNtNtCsfvfooZQ3Axs_4core4iter6traits8iterator8Iterator3mapBR_NCINvNtNtBV_3gen4fold15fold_pat_structNtNtCsdjy9FUDAuhT_18build_script_build11match_token16MatchTokenParserE0EB3b_, symObjAddr: 0xCE18, symBinAddr: 0x10001CEE8, symSize: 0x28 }
  - { offset: 0x48962, size: 0x8, addend: 0x0, symName: __RINvYINtNtNtCse1nGBsou5OW_5alloc3vec9into_iter8IntoIterNtNtCs5AlOhPCr03V_3syn4attr9AttributeENtNtNtNtCsfvfooZQ3Axs_4core4iter6traits8iterator8Iterator3mapBR_NCINvNtNtBV_3gen4fold15fold_type_paramNtNtCsdjy9FUDAuhT_18build_script_build11match_token16MatchTokenParserE0EB3b_, symObjAddr: 0xCE40, symBinAddr: 0x10001CF10, symSize: 0x28 }
  - { offset: 0x489CF, size: 0x8, addend: 0x0, symName: __RINvYINtNtNtCse1nGBsou5OW_5alloc3vec9into_iter8IntoIterNtNtCs5AlOhPCr03V_3syn4attr9AttributeENtNtNtNtCsfvfooZQ3Axs_4core4iter6traits8iterator8Iterator3mapBR_NCINvNtNtBV_3gen4fold16fold_bare_fn_argNtNtCsdjy9FUDAuhT_18build_script_build11match_token16MatchTokenParserE0EB3c_, symObjAddr: 0xCE68, symBinAddr: 0x10001CF38, symSize: 0x28 }
  - { offset: 0x48A3C, size: 0x8, addend: 0x0, symName: __RINvYINtNtNtCse1nGBsou5OW_5alloc3vec9into_iter8IntoIterNtNtCs5AlOhPCr03V_3syn4attr9AttributeENtNtNtNtCsfvfooZQ3Axs_4core4iter6traits8iterator8Iterator3mapBR_NCINvNtNtBV_3gen4fold16fold_const_paramNtNtCsdjy9FUDAuhT_18build_script_build11match_token16MatchTokenParserE0EB3c_, symObjAddr: 0xCE90, symBinAddr: 0x10001CF60, symSize: 0x28 }
  - { offset: 0x48AA9, size: 0x8, addend: 0x0, symName: __RINvYINtNtNtCse1nGBsou5OW_5alloc3vec9into_iter8IntoIterNtNtCs5AlOhPCr03V_3syn4attr9AttributeENtNtNtNtCsfvfooZQ3Axs_4core4iter6traits8iterator8Iterator3mapBR_NCINvNtNtBV_3gen4fold16fold_expr_assignNtNtCsdjy9FUDAuhT_18build_script_build11match_token16MatchTokenParserE0EB3c_, symObjAddr: 0xCEB8, symBinAddr: 0x10001CF88, symSize: 0x28 }
  - { offset: 0x48B16, size: 0x8, addend: 0x0, symName: __RINvYINtNtNtCse1nGBsou5OW_5alloc3vec9into_iter8IntoIterNtNtCs5AlOhPCr03V_3syn4attr9AttributeENtNtNtNtCsfvfooZQ3Axs_4core4iter6traits8iterator8Iterator3mapBR_NCINvNtNtBV_3gen4fold16fold_expr_binaryNtNtCsdjy9FUDAuhT_18build_script_build11match_token16MatchTokenParserE0EB3c_, symObjAddr: 0xCEE0, symBinAddr: 0x10001CFB0, symSize: 0x28 }
  - { offset: 0x48B83, size: 0x8, addend: 0x0, symName: __RINvYINtNtNtCse1nGBsou5OW_5alloc3vec9into_iter8IntoIterNtNtCs5AlOhPCr03V_3syn4attr9AttributeENtNtNtNtCsfvfooZQ3Axs_4core4iter6traits8iterator8Iterator3mapBR_NCINvNtNtBV_3gen4fold16fold_expr_repeatNtNtCsdjy9FUDAuhT_18build_script_build11match_token16MatchTokenParserE0EB3c_, symObjAddr: 0xCF08, symBinAddr: 0x10001CFD8, symSize: 0x28 }
  - { offset: 0x48BF0, size: 0x8, addend: 0x0, symName: __RINvYINtNtNtCse1nGBsou5OW_5alloc3vec9into_iter8IntoIterNtNtCs5AlOhPCr03V_3syn4attr9AttributeENtNtNtNtCsfvfooZQ3Axs_4core4iter6traits8iterator8Iterator3mapBR_NCINvNtNtBV_3gen4fold16fold_expr_returnNtNtCsdjy9FUDAuhT_18build_script_build11match_token16MatchTokenParserE0EB3c_, symObjAddr: 0xCF30, symBinAddr: 0x10001D000, symSize: 0x28 }
  - { offset: 0x48C5D, size: 0x8, addend: 0x0, symName: __RINvYINtNtNtCse1nGBsou5OW_5alloc3vec9into_iter8IntoIterNtNtCs5AlOhPCr03V_3syn4attr9AttributeENtNtNtNtCsfvfooZQ3Axs_4core4iter6traits8iterator8Iterator3mapBR_NCINvNtNtBV_3gen4fold16fold_expr_structNtNtCsdjy9FUDAuhT_18build_script_build11match_token16MatchTokenParserE0EB3c_, symObjAddr: 0xCF58, symBinAddr: 0x10001D028, symSize: 0x28 }
  - { offset: 0x48CCA, size: 0x8, addend: 0x0, symName: __RINvYINtNtNtCse1nGBsou5OW_5alloc3vec9into_iter8IntoIterNtNtCs5AlOhPCr03V_3syn4attr9AttributeENtNtNtNtCsfvfooZQ3Axs_4core4iter6traits8iterator8Iterator3mapBR_NCINvNtNtBV_3gen4fold16fold_expr_unsafeNtNtCsdjy9FUDAuhT_18build_script_build11match_token16MatchTokenParserE0EB3c_, symObjAddr: 0xCF80, symBinAddr: 0x10001D050, symSize: 0x28 }
  - { offset: 0x48D37, size: 0x8, addend: 0x0, symName: __RINvYINtNtNtCse1nGBsou5OW_5alloc3vec9into_iter8IntoIterNtNtCs5AlOhPCr03V_3syn4attr9AttributeENtNtNtNtCsfvfooZQ3Axs_4core4iter6traits8iterator8Iterator3mapBR_NCINvNtNtBV_3gen4fold16fold_field_valueNtNtCsdjy9FUDAuhT_18build_script_build11match_token16MatchTokenParserE0EB3c_, symObjAddr: 0xCFA8, symBinAddr: 0x10001D078, symSize: 0x28 }
  - { offset: 0x48DA4, size: 0x8, addend: 0x0, symName: __RINvYINtNtNtCse1nGBsou5OW_5alloc3vec9into_iter8IntoIterNtNtCs5AlOhPCr03V_3syn4attr9AttributeENtNtNtNtCsfvfooZQ3Axs_4core4iter6traits8iterator8Iterator3mapBR_NCINvNtNtBV_3gen4fold16fold_item_macro2NtNtCsdjy9FUDAuhT_18build_script_build11match_token16MatchTokenParserE0EB3c_, symObjAddr: 0xCFD0, symBinAddr: 0x10001D0A0, symSize: 0x28 }
  - { offset: 0x48E11, size: 0x8, addend: 0x0, symName: __RINvYINtNtNtCse1nGBsou5OW_5alloc3vec9into_iter8IntoIterNtNtCs5AlOhPCr03V_3syn4attr9AttributeENtNtNtNtCsfvfooZQ3Axs_4core4iter6traits8iterator8Iterator3mapBR_NCINvNtNtBV_3gen4fold16fold_item_staticNtNtCsdjy9FUDAuhT_18build_script_build11match_token16MatchTokenParserE0EB3c_, symObjAddr: 0xCFF8, symBinAddr: 0x10001D0C8, symSize: 0x28 }
  - { offset: 0x48E7E, size: 0x8, addend: 0x0, symName: __RINvYINtNtNtCse1nGBsou5OW_5alloc3vec9into_iter8IntoIterNtNtCs5AlOhPCr03V_3syn4attr9AttributeENtNtNtNtCsfvfooZQ3Axs_4core4iter6traits8iterator8Iterator3mapBR_NCINvNtNtBV_3gen4fold16fold_item_structNtNtCsdjy9FUDAuhT_18build_script_build11match_token16MatchTokenParserE0EB3c_, symObjAddr: 0xD020, symBinAddr: 0x10001D0F0, symSize: 0x28 }
  - { offset: 0x48EEB, size: 0x8, addend: 0x0, symName: __RINvYINtNtNtCse1nGBsou5OW_5alloc3vec9into_iter8IntoIterNtNtCs5AlOhPCr03V_3syn4attr9AttributeENtNtNtNtCsfvfooZQ3Axs_4core4iter6traits8iterator8Iterator3mapBR_NCINvNtNtBV_3gen4fold17fold_expr_closureNtNtCsdjy9FUDAuhT_18build_script_build11match_token16MatchTokenParserE0EB3d_, symObjAddr: 0xD048, symBinAddr: 0x10001D118, symSize: 0x28 }
  - { offset: 0x48F58, size: 0x8, addend: 0x0, symName: __RINvYINtNtNtCse1nGBsou5OW_5alloc3vec9into_iter8IntoIterNtNtCs5AlOhPCr03V_3syn4attr9AttributeENtNtNtNtCsfvfooZQ3Axs_4core4iter6traits8iterator8Iterator3mapBR_NCINvNtNtBV_3gen4fold17fold_lifetime_defNtNtCsdjy9FUDAuhT_18build_script_build11match_token16MatchTokenParserE0EB3d_, symObjAddr: 0xD070, symBinAddr: 0x10001D140, symSize: 0x28 }
  - { offset: 0x48FC5, size: 0x8, addend: 0x0, symName: __RINvYINtNtNtCse1nGBsou5OW_5alloc3vec9into_iter8IntoIterNtNtCs5AlOhPCr03V_3syn4attr9AttributeENtNtNtNtCsfvfooZQ3Axs_4core4iter6traits8iterator8Iterator3mapBR_NCINvNtNtBV_3gen4fold18fold_expr_continueNtNtCsdjy9FUDAuhT_18build_script_build11match_token16MatchTokenParserE0EB3e_, symObjAddr: 0xD098, symBinAddr: 0x10001D168, symSize: 0x28 }
  - { offset: 0x49032, size: 0x8, addend: 0x0, symName: __RINvYINtNtNtCse1nGBsou5OW_5alloc3vec9into_iter8IntoIterNtNtCs5AlOhPCr03V_3syn4attr9AttributeENtNtNtNtCsfvfooZQ3Axs_4core4iter6traits8iterator8Iterator3mapBR_NCINvNtNtBV_3gen4fold18fold_expr_for_loopNtNtCsdjy9FUDAuhT_18build_script_build11match_token16MatchTokenParserE0EB3e_, symObjAddr: 0xD0C0, symBinAddr: 0x10001D190, symSize: 0x28 }
  - { offset: 0x4909F, size: 0x8, addend: 0x0, symName: __RINvYINtNtNtCse1nGBsou5OW_5alloc3vec9into_iter8IntoIterNtNtCs5AlOhPCr03V_3syn4attr9AttributeENtNtNtNtCsfvfooZQ3Axs_4core4iter6traits8iterator8Iterator3mapBR_NCINvNtNtBV_3gen4fold18fold_pat_referenceNtNtCsdjy9FUDAuhT_18build_script_build11match_token16MatchTokenParserE0EB3e_, symObjAddr: 0xD0E8, symBinAddr: 0x10001D1B8, symSize: 0x28 }
  - { offset: 0x4910C, size: 0x8, addend: 0x0, symName: __RINvYINtNtNtCse1nGBsou5OW_5alloc3vec9into_iter8IntoIterNtNtCs5AlOhPCr03V_3syn4attr9AttributeENtNtNtNtCsfvfooZQ3Axs_4core4iter6traits8iterator8Iterator3mapBR_NCINvNtNtBV_3gen4fold19fold_expr_assign_opNtNtCsdjy9FUDAuhT_18build_script_build11match_token16MatchTokenParserE0EB3f_, symObjAddr: 0xD110, symBinAddr: 0x10001D1E0, symSize: 0x28 }
  - { offset: 0x49179, size: 0x8, addend: 0x0, symName: __RINvYINtNtNtCse1nGBsou5OW_5alloc3vec9into_iter8IntoIterNtNtCs5AlOhPCr03V_3syn4attr9AttributeENtNtNtNtCsfvfooZQ3Axs_4core4iter6traits8iterator8Iterator3mapBR_NCINvNtNtBV_3gen4fold19fold_expr_referenceNtNtCsdjy9FUDAuhT_18build_script_build11match_token16MatchTokenParserE0EB3f_, symObjAddr: 0xD138, symBinAddr: 0x10001D208, symSize: 0x28 }
  - { offset: 0x491E6, size: 0x8, addend: 0x0, symName: __RINvYINtNtNtCse1nGBsou5OW_5alloc3vec9into_iter8IntoIterNtNtCs5AlOhPCr03V_3syn4attr9AttributeENtNtNtNtCsfvfooZQ3Axs_4core4iter6traits8iterator8Iterator3mapBR_NCINvNtNtBV_3gen4fold19fold_expr_try_blockNtNtCsdjy9FUDAuhT_18build_script_build11match_token16MatchTokenParserE0EB3f_, symObjAddr: 0xD160, symBinAddr: 0x10001D230, symSize: 0x28 }
  - { offset: 0x49253, size: 0x8, addend: 0x0, symName: __RINvYINtNtNtCse1nGBsou5OW_5alloc3vec9into_iter8IntoIterNtNtCs5AlOhPCr03V_3syn4attr9AttributeENtNtNtNtCsfvfooZQ3Axs_4core4iter6traits8iterator8Iterator3mapBR_NCINvNtNtBV_3gen4fold19fold_impl_item_typeNtNtCsdjy9FUDAuhT_18build_script_build11match_token16MatchTokenParserE0EB3f_, symObjAddr: 0xD188, symBinAddr: 0x10001D258, symSize: 0x28 }
  - { offset: 0x492C0, size: 0x8, addend: 0x0, symName: __RINvYINtNtNtCse1nGBsou5OW_5alloc3vec9into_iter8IntoIterNtNtCs5AlOhPCr03V_3syn4attr9AttributeENtNtNtNtCsfvfooZQ3Axs_4core4iter6traits8iterator8Iterator3mapBR_NCINvNtNtBV_3gen4fold20fold_foreign_item_fnNtNtCsdjy9FUDAuhT_18build_script_build11match_token16MatchTokenParserE0EB3g_, symObjAddr: 0xD1B0, symBinAddr: 0x10001D280, symSize: 0x28 }
  - { offset: 0x4932D, size: 0x8, addend: 0x0, symName: __RINvYINtNtNtCse1nGBsou5OW_5alloc3vec9into_iter8IntoIterNtNtCs5AlOhPCr03V_3syn4attr9AttributeENtNtNtNtCsfvfooZQ3Axs_4core4iter6traits8iterator8Iterator3mapBR_NCINvNtNtBV_3gen4fold20fold_impl_item_constNtNtCsdjy9FUDAuhT_18build_script_build11match_token16MatchTokenParserE0EB3g_, symObjAddr: 0xD1D8, symBinAddr: 0x10001D2A8, symSize: 0x28 }
  - { offset: 0x4939A, size: 0x8, addend: 0x0, symName: __RINvYINtNtNtCse1nGBsou5OW_5alloc3vec9into_iter8IntoIterNtNtCs5AlOhPCr03V_3syn4attr9AttributeENtNtNtNtCsfvfooZQ3Axs_4core4iter6traits8iterator8Iterator3mapBR_NCINvNtNtBV_3gen4fold20fold_impl_item_macroNtNtCsdjy9FUDAuhT_18build_script_build11match_token16MatchTokenParserE0EB3g_, symObjAddr: 0xD200, symBinAddr: 0x10001D2D0, symSize: 0x28 }
  - { offset: 0x49407, size: 0x8, addend: 0x0, symName: __RINvYINtNtNtCse1nGBsou5OW_5alloc3vec9into_iter8IntoIterNtNtCs5AlOhPCr03V_3syn4attr9AttributeENtNtNtNtCsfvfooZQ3Axs_4core4iter6traits8iterator8Iterator3mapBR_NCINvNtNtBV_3gen4fold20fold_trait_item_typeNtNtCsdjy9FUDAuhT_18build_script_build11match_token16MatchTokenParserE0EB3g_, symObjAddr: 0xD228, symBinAddr: 0x10001D2F8, symSize: 0x28 }
  - { offset: 0x49474, size: 0x8, addend: 0x0, symName: __RINvYINtNtNtCse1nGBsou5OW_5alloc3vec9into_iter8IntoIterNtNtCs5AlOhPCr03V_3syn4attr9AttributeENtNtNtNtCsfvfooZQ3Axs_4core4iter6traits8iterator8Iterator3mapBR_NCINvNtNtBV_3gen4fold21fold_expr_method_callNtNtCsdjy9FUDAuhT_18build_script_build11match_token16MatchTokenParserE0EB3h_, symObjAddr: 0xD250, symBinAddr: 0x10001D320, symSize: 0x28 }
  - { offset: 0x494E1, size: 0x8, addend: 0x0, symName: __RINvYINtNtNtCse1nGBsou5OW_5alloc3vec9into_iter8IntoIterNtNtCs5AlOhPCr03V_3syn4attr9AttributeENtNtNtNtCsfvfooZQ3Axs_4core4iter6traits8iterator8Iterator3mapBR_NCINvNtNtBV_3gen4fold21fold_impl_item_methodNtNtCsdjy9FUDAuhT_18build_script_build11match_token16MatchTokenParserE0EB3h_, symObjAddr: 0xD278, symBinAddr: 0x10001D348, symSize: 0x28 }
  - { offset: 0x4954E, size: 0x8, addend: 0x0, symName: __RINvYINtNtNtCse1nGBsou5OW_5alloc3vec9into_iter8IntoIterNtNtCs5AlOhPCr03V_3syn4attr9AttributeENtNtNtNtCsfvfooZQ3Axs_4core4iter6traits8iterator8Iterator3mapBR_NCINvNtNtBV_3gen4fold21fold_item_foreign_modNtNtCsdjy9FUDAuhT_18build_script_build11match_token16MatchTokenParserE0EB3h_, symObjAddr: 0xD2A0, symBinAddr: 0x10001D370, symSize: 0x28 }
  - { offset: 0x495BB, size: 0x8, addend: 0x0, symName: __RINvYINtNtNtCse1nGBsou5OW_5alloc3vec9into_iter8IntoIterNtNtCs5AlOhPCr03V_3syn4attr9AttributeENtNtNtNtCsfvfooZQ3Axs_4core4iter6traits8iterator8Iterator3mapBR_NCINvNtNtBV_3gen4fold21fold_item_trait_aliasNtNtCsdjy9FUDAuhT_18build_script_build11match_token16MatchTokenParserE0EB3h_, symObjAddr: 0xD2C8, symBinAddr: 0x10001D398, symSize: 0x28 }
  - { offset: 0x49628, size: 0x8, addend: 0x0, symName: __RINvYINtNtNtCse1nGBsou5OW_5alloc3vec9into_iter8IntoIterNtNtCs5AlOhPCr03V_3syn4attr9AttributeENtNtNtNtCsfvfooZQ3Axs_4core4iter6traits8iterator8Iterator3mapBR_NCINvNtNtBV_3gen4fold21fold_pat_tuple_structNtNtCsdjy9FUDAuhT_18build_script_build11match_token16MatchTokenParserE0EB3h_, symObjAddr: 0xD2F0, symBinAddr: 0x10001D3C0, symSize: 0x28 }
  - { offset: 0x49695, size: 0x8, addend: 0x0, symName: __RINvYINtNtNtCse1nGBsou5OW_5alloc3vec9into_iter8IntoIterNtNtCs5AlOhPCr03V_3syn4attr9AttributeENtNtNtNtCsfvfooZQ3Axs_4core4iter6traits8iterator8Iterator3mapBR_NCINvNtNtBV_3gen4fold21fold_trait_item_constNtNtCsdjy9FUDAuhT_18build_script_build11match_token16MatchTokenParserE0EB3h_, symObjAddr: 0xD318, symBinAddr: 0x10001D3E8, symSize: 0x28 }
  - { offset: 0x49702, size: 0x8, addend: 0x0, symName: __RINvYINtNtNtCse1nGBsou5OW_5alloc3vec9into_iter8IntoIterNtNtCs5AlOhPCr03V_3syn4attr9AttributeENtNtNtNtCsfvfooZQ3Axs_4core4iter6traits8iterator8Iterator3mapBR_NCINvNtNtBV_3gen4fold21fold_trait_item_macroNtNtCsdjy9FUDAuhT_18build_script_build11match_token16MatchTokenParserE0EB3h_, symObjAddr: 0xD340, symBinAddr: 0x10001D410, symSize: 0x28 }
  - { offset: 0x4976F, size: 0x8, addend: 0x0, symName: __RINvYINtNtNtCse1nGBsou5OW_5alloc3vec9into_iter8IntoIterNtNtCs5AlOhPCr03V_3syn4attr9AttributeENtNtNtNtCsfvfooZQ3Axs_4core4iter6traits8iterator8Iterator3mapBR_NCINvNtNtBV_3gen4fold22fold_foreign_item_typeNtNtCsdjy9FUDAuhT_18build_script_build11match_token16MatchTokenParserE0EB3i_, symObjAddr: 0xD368, symBinAddr: 0x10001D438, symSize: 0x28 }
  - { offset: 0x497DC, size: 0x8, addend: 0x0, symName: __RINvYINtNtNtCse1nGBsou5OW_5alloc3vec9into_iter8IntoIterNtNtCs5AlOhPCr03V_3syn4attr9AttributeENtNtNtNtCsfvfooZQ3Axs_4core4iter6traits8iterator8Iterator3mapBR_NCINvNtNtBV_3gen4fold22fold_item_extern_crateNtNtCsdjy9FUDAuhT_18build_script_build11match_token16MatchTokenParserE0EB3i_, symObjAddr: 0xD390, symBinAddr: 0x10001D460, symSize: 0x28 }
  - { offset: 0x49849, size: 0x8, addend: 0x0, symName: __RINvYINtNtNtCse1nGBsou5OW_5alloc3vec9into_iter8IntoIterNtNtCs5AlOhPCr03V_3syn4attr9AttributeENtNtNtNtCsfvfooZQ3Axs_4core4iter6traits8iterator8Iterator3mapBR_NCINvNtNtBV_3gen4fold22fold_trait_item_methodNtNtCsdjy9FUDAuhT_18build_script_build11match_token16MatchTokenParserE0EB3i_, symObjAddr: 0xD3B8, symBinAddr: 0x10001D488, symSize: 0x28 }
  - { offset: 0x498B6, size: 0x8, addend: 0x0, symName: __RINvYINtNtNtCse1nGBsou5OW_5alloc3vec9into_iter8IntoIterNtNtCs5AlOhPCr03V_3syn4attr9AttributeENtNtNtNtCsfvfooZQ3Axs_4core4iter6traits8iterator8Iterator3mapBR_NCINvNtNtBV_3gen4fold23fold_foreign_item_macroNtNtCsdjy9FUDAuhT_18build_script_build11match_token16MatchTokenParserE0EB3j_, symObjAddr: 0xD3E0, symBinAddr: 0x10001D4B0, symSize: 0x28 }
  - { offset: 0x49923, size: 0x8, addend: 0x0, symName: __RINvYINtNtNtCse1nGBsou5OW_5alloc3vec9into_iter8IntoIterNtNtCs5AlOhPCr03V_3syn4attr9AttributeENtNtNtNtCsfvfooZQ3Axs_4core4iter6traits8iterator8Iterator3mapBR_NCINvNtNtBV_3gen4fold24fold_foreign_item_staticNtNtCsdjy9FUDAuhT_18build_script_build11match_token16MatchTokenParserE0EB3k_, symObjAddr: 0xD408, symBinAddr: 0x10001D4D8, symSize: 0x28 }
  - { offset: 0x49990, size: 0x8, addend: 0x0, symName: __RINvYINtNtNtCse1nGBsou5OW_5alloc3vec9into_iter8IntoIterNtNtCs5AlOhPCr03V_3syn4attr9AttributeENtNtNtNtCsfvfooZQ3Axs_4core4iter6traits8iterator8Iterator3mapBR_NCINvNtNtBV_3gen4fold8fold_armNtNtCsdjy9FUDAuhT_18build_script_build11match_token16MatchTokenParserE0EB33_, symObjAddr: 0xD430, symBinAddr: 0x10001D500, symSize: 0x28 }
  - { offset: 0x499FD, size: 0x8, addend: 0x0, symName: __RINvYINtNtNtCse1nGBsou5OW_5alloc3vec9into_iter8IntoIterNtNtCs5AlOhPCr03V_3syn4attr9AttributeENtNtNtNtCsfvfooZQ3Axs_4core4iter6traits8iterator8Iterator3mapBR_NCINvNtNtBV_3gen4fold9fold_fileNtNtCsdjy9FUDAuhT_18build_script_build11match_token16MatchTokenParserE0EB34_, symObjAddr: 0xD458, symBinAddr: 0x10001D528, symSize: 0x28 }
  - { offset: 0x49A6A, size: 0x8, addend: 0x0, symName: __RINvYINtNtNtCse1nGBsou5OW_5alloc3vec9into_iter8IntoIterNtNtCs5AlOhPCr03V_3syn4expr3ArmENtNtNtNtCsfvfooZQ3Axs_4core4iter6traits8iterator8Iterator3mapBR_NCINvNtNtBV_3gen4fold15fold_expr_matchNtNtCsdjy9FUDAuhT_18build_script_build11match_token16MatchTokenParserEs_0EB35_, symObjAddr: 0xD480, symBinAddr: 0x10001D550, symSize: 0x28 }
  - { offset: 0x49AD7, size: 0x8, addend: 0x0, symName: __RINvYINtNtNtCse1nGBsou5OW_5alloc3vec9into_iter8IntoIterNtNtCs5AlOhPCr03V_3syn4item11ForeignItemENtNtNtNtCsfvfooZQ3Axs_4core4iter6traits8iterator8Iterator3mapBR_NCINvNtNtBV_3gen4fold21fold_item_foreign_modNtNtCsdjy9FUDAuhT_18build_script_build11match_token16MatchTokenParserEs_0EB3k_, symObjAddr: 0xD4A8, symBinAddr: 0x10001D578, symSize: 0x28 }
  - { offset: 0x49B44, size: 0x8, addend: 0x0, symName: __RINvYINtNtNtCse1nGBsou5OW_5alloc3vec9into_iter8IntoIterNtNtCs5AlOhPCr03V_3syn4item4ItemENtNtNtNtCsfvfooZQ3Axs_4core4iter6traits8iterator8Iterator3mapBR_NCINvNtNtBV_3gen4fold9fold_fileNtNtCsdjy9FUDAuhT_18build_script_build11match_token16MatchTokenParserEs_0EB2Z_, symObjAddr: 0xD4D0, symBinAddr: 0x10001D5A0, symSize: 0x28 }
  - { offset: 0x49BB1, size: 0x8, addend: 0x0, symName: __RINvYINtNtNtCse1nGBsou5OW_5alloc3vec9into_iter8IntoIterNtNtCs5AlOhPCr03V_3syn4item4ItemENtNtNtNtCsfvfooZQ3Axs_4core4iter6traits8iterator8Iterator3mapBR_NCNCINvNtNtBV_3gen4fold13fold_item_modNtNtCsdjy9FUDAuhT_18build_script_build11match_token16MatchTokenParserEs_00EB36_, symObjAddr: 0xD4F8, symBinAddr: 0x10001D5C8, symSize: 0x28 }
  - { offset: 0x49C1E, size: 0x8, addend: 0x0, symName: __RINvYINtNtNtCse1nGBsou5OW_5alloc3vec9into_iter8IntoIterNtNtCs5AlOhPCr03V_3syn4item8ImplItemENtNtNtNtCsfvfooZQ3Axs_4core4iter6traits8iterator8Iterator3mapBR_NCINvNtNtBV_3gen4fold14fold_item_implNtNtCsdjy9FUDAuhT_18build_script_build11match_token16MatchTokenParserEs2_0EB39_, symObjAddr: 0xD520, symBinAddr: 0x10001D5F0, symSize: 0x28 }
  - { offset: 0x49C8B, size: 0x8, addend: 0x0, symName: __RINvYINtNtNtCse1nGBsou5OW_5alloc3vec9into_iter8IntoIterNtNtCs5AlOhPCr03V_3syn4item9TraitItemENtNtNtNtCsfvfooZQ3Axs_4core4iter6traits8iterator8Iterator3mapBR_NCINvNtNtBV_3gen4fold15fold_item_traitNtNtCsdjy9FUDAuhT_18build_script_build11match_token16MatchTokenParserEs3_0EB3b_, symObjAddr: 0xD548, symBinAddr: 0x10001D618, symSize: 0x28 }
  - { offset: 0x49CF8, size: 0x8, addend: 0x0, symName: __RINvYINtNtNtCse1nGBsou5OW_5alloc3vec9into_iter8IntoIterNtNtCs5AlOhPCr03V_3syn4stmt4StmtENtNtNtNtCsfvfooZQ3Axs_4core4iter6traits8iterator8Iterator3mapBR_NCINvNtNtBV_3gen4fold10fold_blockNtNtCsdjy9FUDAuhT_18build_script_build11match_token16MatchTokenParserE0EB31_, symObjAddr: 0xD570, symBinAddr: 0x10001D640, symSize: 0x28 }
  - { offset: 0x4A1F2, size: 0x8, addend: 0x0, symName: __RNvYINtNtNtCse1nGBsou5OW_5alloc3vec9into_iter8IntoIterNtNtCs5AlOhPCr03V_3syn4expr3ArmENtNtNtNtCsfvfooZQ3Axs_4core4iter6traits10exact_size17ExactSizeIterator3lenCsdjy9FUDAuhT_18build_script_build, symObjAddr: 0x11124, symBinAddr: 0x1000211F4, symSize: 0xF4 }
  - { offset: 0x4A2E5, size: 0x8, addend: 0x0, symName: __RNvYINtNtNtCse1nGBsou5OW_5alloc3vec9into_iter8IntoIterNtNtCs5AlOhPCr03V_3syn4item11ForeignItemENtNtNtNtCsfvfooZQ3Axs_4core4iter6traits10exact_size17ExactSizeIterator3lenCsdjy9FUDAuhT_18build_script_build, symObjAddr: 0x11218, symBinAddr: 0x1000212E8, symSize: 0xF4 }
  - { offset: 0x4A3D8, size: 0x8, addend: 0x0, symName: __RNvYINtNtNtCse1nGBsou5OW_5alloc3vec9into_iter8IntoIterNtNtCs5AlOhPCr03V_3syn4item4ItemENtNtNtNtCsfvfooZQ3Axs_4core4iter6traits10exact_size17ExactSizeIterator3lenCsdjy9FUDAuhT_18build_script_build, symObjAddr: 0x1130C, symBinAddr: 0x1000213DC, symSize: 0xF4 }
  - { offset: 0x4A4CB, size: 0x8, addend: 0x0, symName: __RNvYINtNtNtCse1nGBsou5OW_5alloc3vec9into_iter8IntoIterNtNtCs5AlOhPCr03V_3syn4item8ImplItemENtNtNtNtCsfvfooZQ3Axs_4core4iter6traits10exact_size17ExactSizeIterator3lenCsdjy9FUDAuhT_18build_script_build, symObjAddr: 0x11400, symBinAddr: 0x1000214D0, symSize: 0xF4 }
  - { offset: 0x4A5BE, size: 0x8, addend: 0x0, symName: __RNvYINtNtNtCse1nGBsou5OW_5alloc3vec9into_iter8IntoIterNtNtCs5AlOhPCr03V_3syn4item9TraitItemENtNtNtNtCsfvfooZQ3Axs_4core4iter6traits10exact_size17ExactSizeIterator3lenCsdjy9FUDAuhT_18build_script_build, symObjAddr: 0x114F4, symBinAddr: 0x1000215C4, symSize: 0xF4 }
  - { offset: 0x4A6B1, size: 0x8, addend: 0x0, symName: __RNvYINtNtNtCse1nGBsou5OW_5alloc3vec9into_iter8IntoIterNtNtCs5AlOhPCr03V_3syn4stmt4StmtENtNtNtNtCsfvfooZQ3Axs_4core4iter6traits10exact_size17ExactSizeIterator3lenCsdjy9FUDAuhT_18build_script_build, symObjAddr: 0x115E8, symBinAddr: 0x1000216B8, symSize: 0xF4 }
  - { offset: 0x4A7A4, size: 0x8, addend: 0x0, symName: __RNvYINtNtNtCse1nGBsou5OW_5alloc3vec9into_iter8IntoIterNtNtCsdjy9FUDAuhT_18build_script_build11match_token13MatchTokenArmENtNtNtNtCsfvfooZQ3Axs_4core4iter6traits10exact_size17ExactSizeIterator3lenBU_, symObjAddr: 0x116DC, symBinAddr: 0x1000217AC, symSize: 0xF4 }
  - { offset: 0x4A897, size: 0x8, addend: 0x0, symName: __RNvYINtNtNtCse1nGBsou5OW_5alloc3vec9into_iter8IntoIterNtNtCsdjy9FUDAuhT_18build_script_build11match_token3TagENtNtNtNtCsfvfooZQ3Axs_4core4iter6traits10exact_size17ExactSizeIterator3lenBU_, symObjAddr: 0x117D0, symBinAddr: 0x1000218A0, symSize: 0xF4 }
  - { offset: 0x4A98A, size: 0x8, addend: 0x0, symName: __RNvYINtNtNtCse1nGBsou5OW_5alloc3vec9into_iter8IntoIterTNtNtCs5AlOhPCr03V_3syn2ty4TypeNtNtBV_5token5CommaEENtNtNtNtCsfvfooZQ3Axs_4core4iter6traits10exact_size17ExactSizeIterator3lenCsdjy9FUDAuhT_18build_script_build, symObjAddr: 0x118C4, symBinAddr: 0x100021994, symSize: 0xF4 }
  - { offset: 0x4AA7D, size: 0x8, addend: 0x0, symName: __RNvYINtNtNtCse1nGBsou5OW_5alloc3vec9into_iter8IntoIterTNtNtCs5AlOhPCr03V_3syn2ty9BareFnArgNtNtBV_5token5CommaEENtNtNtNtCsfvfooZQ3Axs_4core4iter6traits10exact_size17ExactSizeIterator3lenCsdjy9FUDAuhT_18build_script_build, symObjAddr: 0x119B8, symBinAddr: 0x100021A88, symSize: 0xF4 }
  - { offset: 0x4AB70, size: 0x8, addend: 0x0, symName: __RNvYINtNtNtCse1nGBsou5OW_5alloc3vec9into_iter8IntoIterTNtNtCs5AlOhPCr03V_3syn3pat3PatNtNtBV_5token2OrEENtNtNtNtCsfvfooZQ3Axs_4core4iter6traits10exact_size17ExactSizeIterator3lenCsdjy9FUDAuhT_18build_script_build, symObjAddr: 0x11AAC, symBinAddr: 0x100021B7C, symSize: 0xF4 }
  - { offset: 0x4AC63, size: 0x8, addend: 0x0, symName: __RNvYINtNtNtCse1nGBsou5OW_5alloc3vec9into_iter8IntoIterTNtNtCs5AlOhPCr03V_3syn3pat3PatNtNtBV_5token5CommaEENtNtNtNtCsfvfooZQ3Axs_4core4iter6traits10exact_size17ExactSizeIterator3lenCsdjy9FUDAuhT_18build_script_build, symObjAddr: 0x11BA0, symBinAddr: 0x100021C70, symSize: 0xF4 }
  - { offset: 0x4AD56, size: 0x8, addend: 0x0, symName: __RNvYINtNtNtCse1nGBsou5OW_5alloc3vec9into_iter8IntoIterTNtNtCs5AlOhPCr03V_3syn3pat8FieldPatNtNtBV_5token5CommaEENtNtNtNtCsfvfooZQ3Axs_4core4iter6traits10exact_size17ExactSizeIterator3lenCsdjy9FUDAuhT_18build_script_build, symObjAddr: 0x11C94, symBinAddr: 0x100021D64, symSize: 0xF4 }
  - { offset: 0x4AE49, size: 0x8, addend: 0x0, symName: __RNvYINtNtNtCse1nGBsou5OW_5alloc3vec9into_iter8IntoIterTNtNtCs5AlOhPCr03V_3syn4data7VariantNtNtBV_5token5CommaEENtNtNtNtCsfvfooZQ3Axs_4core4iter6traits10exact_size17ExactSizeIterator3lenCsdjy9FUDAuhT_18build_script_build, symObjAddr: 0x11D88, symBinAddr: 0x100021E58, symSize: 0xF4 }
  - { offset: 0x4AF3C, size: 0x8, addend: 0x0, symName: __RNvYINtNtNtCse1nGBsou5OW_5alloc3vec9into_iter8IntoIterTNtNtCs5AlOhPCr03V_3syn4expr10FieldValueNtNtBV_5token5CommaEENtNtNtNtCsfvfooZQ3Axs_4core4iter6traits10exact_size17ExactSizeIterator3lenCsdjy9FUDAuhT_18build_script_build, symObjAddr: 0x11E7C, symBinAddr: 0x100021F4C, symSize: 0xF4 }
  - { offset: 0x4B02F, size: 0x8, addend: 0x0, symName: __RNvYINtNtNtCse1nGBsou5OW_5alloc3vec9into_iter8IntoIterTNtNtCs5AlOhPCr03V_3syn4expr21GenericMethodArgumentNtNtBV_5token5CommaEENtNtNtNtCsfvfooZQ3Axs_4core4iter6traits10exact_size17ExactSizeIterator3lenCsdjy9FUDAuhT_18build_script_build, symObjAddr: 0x11F70, symBinAddr: 0x100022040, symSize: 0xF4 }
  - { offset: 0x4B122, size: 0x8, addend: 0x0, symName: __RNvYINtNtNtCse1nGBsou5OW_5alloc3vec9into_iter8IntoIterTNtNtCs5AlOhPCr03V_3syn4expr4ExprNtNtBV_5token5CommaEENtNtNtNtCsfvfooZQ3Axs_4core4iter6traits10exact_size17ExactSizeIterator3lenCsdjy9FUDAuhT_18build_script_build, symObjAddr: 0x12064, symBinAddr: 0x100022134, symSize: 0xF4 }
  - { offset: 0x4B215, size: 0x8, addend: 0x0, symName: __RNvYINtNtNtCse1nGBsou5OW_5alloc3vec9into_iter8IntoIterTNtNtCs5AlOhPCr03V_3syn4item5FnArgNtNtBV_5token5CommaEENtNtNtNtCsfvfooZQ3Axs_4core4iter6traits10exact_size17ExactSizeIterator3lenCsdjy9FUDAuhT_18build_script_build, symObjAddr: 0x12158, symBinAddr: 0x100022228, symSize: 0xF4 }
  - { offset: 0x4B308, size: 0x8, addend: 0x0, symName: __RNvYINtNtNtCse1nGBsou5OW_5alloc3vec9into_iter8IntoIterTNtNtCs5AlOhPCr03V_3syn4item7UseTreeNtNtBV_5token5CommaEENtNtNtNtCsfvfooZQ3Axs_4core4iter6traits10exact_size17ExactSizeIterator3lenCsdjy9FUDAuhT_18build_script_build, symObjAddr: 0x1224C, symBinAddr: 0x10002231C, symSize: 0xF4 }
  - { offset: 0x4B3FB, size: 0x8, addend: 0x0, symName: __RNvYINtNtNtCse1nGBsou5OW_5alloc3vec9into_iter8IntoIterTNtNtCs5AlOhPCr03V_3syn4path15GenericArgumentNtNtBV_5token5CommaEENtNtNtNtCsfvfooZQ3Axs_4core4iter6traits10exact_size17ExactSizeIterator3lenCsdjy9FUDAuhT_18build_script_build, symObjAddr: 0x12340, symBinAddr: 0x100022410, symSize: 0xF4 }
  - { offset: 0x4B4EE, size: 0x8, addend: 0x0, symName: __RNvYINtNtNtCse1nGBsou5OW_5alloc3vec9into_iter8IntoIterTNtNtCs5AlOhPCr03V_3syn8generics11LifetimeDefNtNtBV_5token5CommaEENtNtNtNtCsfvfooZQ3Axs_4core4iter6traits10exact_size17ExactSizeIterator3lenCsdjy9FUDAuhT_18build_script_build, symObjAddr: 0x12434, symBinAddr: 0x100022504, symSize: 0xF4 }
  - { offset: 0x4B5E1, size: 0x8, addend: 0x0, symName: __RNvYINtNtNtCse1nGBsou5OW_5alloc3vec9into_iter8IntoIterTNtNtCs5AlOhPCr03V_3syn8generics12GenericParamNtNtBV_5token5CommaEENtNtNtNtCsfvfooZQ3Axs_4core4iter6traits10exact_size17ExactSizeIterator3lenCsdjy9FUDAuhT_18build_script_build, symObjAddr: 0x12528, symBinAddr: 0x1000225F8, symSize: 0xF4 }
  - { offset: 0x4B6D4, size: 0x8, addend: 0x0, symName: __RNvYINtNtNtCse1nGBsou5OW_5alloc3vec9into_iter8IntoIterTNtNtCs5AlOhPCr03V_3syn8generics14WherePredicateNtNtBV_5token5CommaEENtNtNtNtCsfvfooZQ3Axs_4core4iter6traits10exact_size17ExactSizeIterator3lenCsdjy9FUDAuhT_18build_script_build, symObjAddr: 0x1261C, symBinAddr: 0x1000226EC, symSize: 0xF4 }
  - { offset: 0x4B7C7, size: 0x8, addend: 0x0, symName: __RNvYINtNtNtCse1nGBsou5OW_5alloc3vec9into_iter8IntoIterTNtNtCs5AlOhPCr03V_3syn8lifetime8LifetimeNtNtBV_5token3AddEENtNtNtNtCsfvfooZQ3Axs_4core4iter6traits10exact_size17ExactSizeIterator3lenCsdjy9FUDAuhT_18build_script_build, symObjAddr: 0x12710, symBinAddr: 0x1000227E0, symSize: 0xF4 }
  - { offset: 0x518E9, size: 0x8, addend: 0x0, symName: __RINvXs3_NtNtCse1nGBsou5OW_5alloc3vec9into_iterINtB6_8IntoIterNtNtCs5AlOhPCr03V_3syn4attr9AttributeENtNtNtNtCsfvfooZQ3Axs_4core4iter6traits8iterator8Iterator8try_foldINtNtB8_13in_place_drop11InPlaceDropBX_ENCINvNtNtB1F_8adapters3map12map_try_foldBX_BX_B2D_INtNtB1H_6result6ResultB2D_zENCINvNtNtB11_3gen4fold10fold_fieldNtNtCsdjy9FUDAuhT_18build_script_build11match_token16MatchTokenParserE0NCINvNtB8_16in_place_collect24write_in_place_with_dropBX_E0E0B45_EB5a_, symObjAddr: 0x0, symBinAddr: 0x1000100D0, symSize: 0x1F0 }
  - { offset: 0x51ACB, size: 0x8, addend: 0x0, symName: __RINvXs3_NtNtCse1nGBsou5OW_5alloc3vec9into_iterINtB6_8IntoIterNtNtCs5AlOhPCr03V_3syn4attr9AttributeENtNtNtNtCsfvfooZQ3Axs_4core4iter6traits8iterator8Iterator8try_foldINtNtB8_13in_place_drop11InPlaceDropBX_ENCINvNtNtB1F_8adapters3map12map_try_foldBX_BX_B2D_INtNtB1H_6result6ResultB2D_zENCINvNtNtB11_3gen4fold10fold_localNtNtCsdjy9FUDAuhT_18build_script_build11match_token16MatchTokenParserE0NCINvNtB8_16in_place_collect24write_in_place_with_dropBX_E0E0B45_EB5a_, symObjAddr: 0x1F0, symBinAddr: 0x1000102C0, symSize: 0x1F0 }
  - { offset: 0x51CAD, size: 0x8, addend: 0x0, symName: __RINvXs3_NtNtCse1nGBsou5OW_5alloc3vec9into_iterINtB6_8IntoIterNtNtCs5AlOhPCr03V_3syn4attr9AttributeENtNtNtNtCsfvfooZQ3Axs_4core4iter6traits8iterator8Iterator8try_foldINtNtB8_13in_place_drop11InPlaceDropBX_ENCINvNtNtB1F_8adapters3map12map_try_foldBX_BX_B2D_INtNtB1H_6result6ResultB2D_zENCINvNtNtB11_3gen4fold11fold_pat_orNtNtCsdjy9FUDAuhT_18build_script_build11match_token16MatchTokenParserE0NCINvNtB8_16in_place_collect24write_in_place_with_dropBX_E0E0B45_EB5b_, symObjAddr: 0x3E0, symBinAddr: 0x1000104B0, symSize: 0x1F0 }
  - { offset: 0x51E8F, size: 0x8, addend: 0x0, symName: __RINvXs3_NtNtCse1nGBsou5OW_5alloc3vec9into_iterINtB6_8IntoIterNtNtCs5AlOhPCr03V_3syn4attr9AttributeENtNtNtNtCsfvfooZQ3Axs_4core4iter6traits8iterator8Iterator8try_foldINtNtB8_13in_place_drop11InPlaceDropBX_ENCINvNtNtB1F_8adapters3map12map_try_foldBX_BX_B2D_INtNtB1H_6result6ResultB2D_zENCINvNtNtB11_3gen4fold12fold_expr_ifNtNtCsdjy9FUDAuhT_18build_script_build11match_token16MatchTokenParserE0NCINvNtB8_16in_place_collect24write_in_place_with_dropBX_E0E0B45_EB5c_, symObjAddr: 0x5D0, symBinAddr: 0x1000106A0, symSize: 0x1F0 }
  - { offset: 0x52071, size: 0x8, addend: 0x0, symName: __RINvXs3_NtNtCse1nGBsou5OW_5alloc3vec9into_iterINtB6_8IntoIterNtNtCs5AlOhPCr03V_3syn4attr9AttributeENtNtNtNtCsfvfooZQ3Axs_4core4iter6traits8iterator8Iterator8try_foldINtNtB8_13in_place_drop11InPlaceDropBX_ENCINvNtNtB1F_8adapters3map12map_try_foldBX_BX_B2D_INtNtB1H_6result6ResultB2D_zENCINvNtNtB11_3gen4fold12fold_item_fnNtNtCsdjy9FUDAuhT_18build_script_build11match_token16MatchTokenParserE0NCINvNtB8_16in_place_collect24write_in_place_with_dropBX_E0E0B45_EB5c_, symObjAddr: 0x7C0, symBinAddr: 0x100010890, symSize: 0x1F0 }
  - { offset: 0x52253, size: 0x8, addend: 0x0, symName: __RINvXs3_NtNtCse1nGBsou5OW_5alloc3vec9into_iterINtB6_8IntoIterNtNtCs5AlOhPCr03V_3syn4attr9AttributeENtNtNtNtCsfvfooZQ3Axs_4core4iter6traits8iterator8Iterator8try_foldINtNtB8_13in_place_drop11InPlaceDropBX_ENCINvNtNtB1F_8adapters3map12map_try_foldBX_BX_B2D_INtNtB1H_6result6ResultB2D_zENCINvNtNtB11_3gen4fold12fold_pat_boxNtNtCsdjy9FUDAuhT_18build_script_build11match_token16MatchTokenParserE0NCINvNtB8_16in_place_collect24write_in_place_with_dropBX_E0E0B45_EB5c_, symObjAddr: 0x9B0, symBinAddr: 0x100010A80, symSize: 0x1F0 }
  - { offset: 0x52435, size: 0x8, addend: 0x0, symName: __RINvXs3_NtNtCse1nGBsou5OW_5alloc3vec9into_iterINtB6_8IntoIterNtNtCs5AlOhPCr03V_3syn4attr9AttributeENtNtNtNtCsfvfooZQ3Axs_4core4iter6traits8iterator8Iterator8try_foldINtNtB8_13in_place_drop11InPlaceDropBX_ENCINvNtNtB1F_8adapters3map12map_try_foldBX_BX_B2D_INtNtB1H_6result6ResultB2D_zENCINvNtNtB11_3gen4fold12fold_pat_litNtNtCsdjy9FUDAuhT_18build_script_build11match_token16MatchTokenParserE0NCINvNtB8_16in_place_collect24write_in_place_with_dropBX_E0E0B45_EB5c_, symObjAddr: 0xBA0, symBinAddr: 0x100010C70, symSize: 0x1F0 }
  - { offset: 0x52617, size: 0x8, addend: 0x0, symName: __RINvXs3_NtNtCse1nGBsou5OW_5alloc3vec9into_iterINtB6_8IntoIterNtNtCs5AlOhPCr03V_3syn4attr9AttributeENtNtNtNtCsfvfooZQ3Axs_4core4iter6traits8iterator8Iterator8try_foldINtNtB8_13in_place_drop11InPlaceDropBX_ENCINvNtNtB1F_8adapters3map12map_try_foldBX_BX_B2D_INtNtB1H_6result6ResultB2D_zENCINvNtNtB11_3gen4fold12fold_variantNtNtCsdjy9FUDAuhT_18build_script_build11match_token16MatchTokenParserE0NCINvNtB8_16in_place_collect24write_in_place_with_dropBX_E0E0B45_EB5c_, symObjAddr: 0xD90, symBinAddr: 0x100010E60, symSize: 0x1F0 }
  - { offset: 0x527F9, size: 0x8, addend: 0x0, symName: __RINvXs3_NtNtCse1nGBsou5OW_5alloc3vec9into_iterINtB6_8IntoIterNtNtCs5AlOhPCr03V_3syn4attr9AttributeENtNtNtNtCsfvfooZQ3Axs_4core4iter6traits8iterator8Iterator8try_foldINtNtB8_13in_place_drop11InPlaceDropBX_ENCINvNtNtB1F_8adapters3map12map_try_foldBX_BX_B2D_INtNtB1H_6result6ResultB2D_zENCINvNtNtB11_3gen4fold13fold_expr_boxNtNtCsdjy9FUDAuhT_18build_script_build11match_token16MatchTokenParserE0NCINvNtB8_16in_place_collect24write_in_place_with_dropBX_E0E0B45_EB5d_, symObjAddr: 0xF80, symBinAddr: 0x100011050, symSize: 0x1F0 }
  - { offset: 0x529DB, size: 0x8, addend: 0x0, symName: __RINvXs3_NtNtCse1nGBsou5OW_5alloc3vec9into_iterINtB6_8IntoIterNtNtCs5AlOhPCr03V_3syn4attr9AttributeENtNtNtNtCsfvfooZQ3Axs_4core4iter6traits8iterator8Iterator8try_foldINtNtB8_13in_place_drop11InPlaceDropBX_ENCINvNtNtB1F_8adapters3map12map_try_foldBX_BX_B2D_INtNtB1H_6result6ResultB2D_zENCINvNtNtB11_3gen4fold13fold_expr_letNtNtCsdjy9FUDAuhT_18build_script_build11match_token16MatchTokenParserE0NCINvNtB8_16in_place_collect24write_in_place_with_dropBX_E0E0B45_EB5d_, symObjAddr: 0x1170, symBinAddr: 0x100011240, symSize: 0x1F0 }
  - { offset: 0x52BBD, size: 0x8, addend: 0x0, symName: __RINvXs3_NtNtCse1nGBsou5OW_5alloc3vec9into_iterINtB6_8IntoIterNtNtCs5AlOhPCr03V_3syn4attr9AttributeENtNtNtNtCsfvfooZQ3Axs_4core4iter6traits8iterator8Iterator8try_foldINtNtB8_13in_place_drop11InPlaceDropBX_ENCINvNtNtB1F_8adapters3map12map_try_foldBX_BX_B2D_INtNtB1H_6result6ResultB2D_zENCINvNtNtB11_3gen4fold13fold_expr_litNtNtCsdjy9FUDAuhT_18build_script_build11match_token16MatchTokenParserE0NCINvNtB8_16in_place_collect24write_in_place_with_dropBX_E0E0B45_EB5d_, symObjAddr: 0x1360, symBinAddr: 0x100011430, symSize: 0x1F0 }
  - { offset: 0x52D9F, size: 0x8, addend: 0x0, symName: __RINvXs3_NtNtCse1nGBsou5OW_5alloc3vec9into_iterINtB6_8IntoIterNtNtCs5AlOhPCr03V_3syn4attr9AttributeENtNtNtNtCsfvfooZQ3Axs_4core4iter6traits8iterator8Iterator8try_foldINtNtB8_13in_place_drop11InPlaceDropBX_ENCINvNtNtB1F_8adapters3map12map_try_foldBX_BX_B2D_INtNtB1H_6result6ResultB2D_zENCINvNtNtB11_3gen4fold13fold_expr_tryNtNtCsdjy9FUDAuhT_18build_script_build11match_token16MatchTokenParserE0NCINvNtB8_16in_place_collect24write_in_place_with_dropBX_E0E0B45_EB5d_, symObjAddr: 0x1550, symBinAddr: 0x100011620, symSize: 0x1F0 }
  - { offset: 0x52F81, size: 0x8, addend: 0x0, symName: __RINvXs3_NtNtCse1nGBsou5OW_5alloc3vec9into_iterINtB6_8IntoIterNtNtCs5AlOhPCr03V_3syn4attr9AttributeENtNtNtNtCsfvfooZQ3Axs_4core4iter6traits8iterator8Iterator8try_foldINtNtB8_13in_place_drop11InPlaceDropBX_ENCINvNtNtB1F_8adapters3map12map_try_foldBX_BX_B2D_INtNtB1H_6result6ResultB2D_zENCINvNtNtB11_3gen4fold13fold_item_modNtNtCsdjy9FUDAuhT_18build_script_build11match_token16MatchTokenParserE0NCINvNtB8_16in_place_collect24write_in_place_with_dropBX_E0E0B45_EB5d_, symObjAddr: 0x1740, symBinAddr: 0x100011810, symSize: 0x1F0 }
  - { offset: 0x53163, size: 0x8, addend: 0x0, symName: __RINvXs3_NtNtCse1nGBsou5OW_5alloc3vec9into_iterINtB6_8IntoIterNtNtCs5AlOhPCr03V_3syn4attr9AttributeENtNtNtNtCsfvfooZQ3Axs_4core4iter6traits8iterator8Iterator8try_foldINtNtB8_13in_place_drop11InPlaceDropBX_ENCINvNtNtB1F_8adapters3map12map_try_foldBX_BX_B2D_INtNtB1H_6result6ResultB2D_zENCINvNtNtB11_3gen4fold13fold_item_useNtNtCsdjy9FUDAuhT_18build_script_build11match_token16MatchTokenParserE0NCINvNtB8_16in_place_collect24write_in_place_with_dropBX_E0E0B45_EB5d_, symObjAddr: 0x1930, symBinAddr: 0x100011A00, symSize: 0x1F0 }
  - { offset: 0x53345, size: 0x8, addend: 0x0, symName: __RINvXs3_NtNtCse1nGBsou5OW_5alloc3vec9into_iterINtB6_8IntoIterNtNtCs5AlOhPCr03V_3syn4attr9AttributeENtNtNtNtCsfvfooZQ3Axs_4core4iter6traits8iterator8Iterator8try_foldINtNtB8_13in_place_drop11InPlaceDropBX_ENCINvNtNtB1F_8adapters3map12map_try_foldBX_BX_B2D_INtNtB1H_6result6ResultB2D_zENCINvNtNtB11_3gen4fold13fold_pat_pathNtNtCsdjy9FUDAuhT_18build_script_build11match_token16MatchTokenParserE0NCINvNtB8_16in_place_collect24write_in_place_with_dropBX_E0E0B45_EB5d_, symObjAddr: 0x1B20, symBinAddr: 0x100011BF0, symSize: 0x1F0 }
  - { offset: 0x53527, size: 0x8, addend: 0x0, symName: __RINvXs3_NtNtCse1nGBsou5OW_5alloc3vec9into_iterINtB6_8IntoIterNtNtCs5AlOhPCr03V_3syn4attr9AttributeENtNtNtNtCsfvfooZQ3Axs_4core4iter6traits8iterator8Iterator8try_foldINtNtB8_13in_place_drop11InPlaceDropBX_ENCINvNtNtB1F_8adapters3map12map_try_foldBX_BX_B2D_INtNtB1H_6result6ResultB2D_zENCINvNtNtB11_3gen4fold13fold_pat_restNtNtCsdjy9FUDAuhT_18build_script_build11match_token16MatchTokenParserE0NCINvNtB8_16in_place_collect24write_in_place_with_dropBX_E0E0B45_EB5d_, symObjAddr: 0x1D10, symBinAddr: 0x100011DE0, symSize: 0x1F0 }
  - { offset: 0x53709, size: 0x8, addend: 0x0, symName: __RINvXs3_NtNtCse1nGBsou5OW_5alloc3vec9into_iterINtB6_8IntoIterNtNtCs5AlOhPCr03V_3syn4attr9AttributeENtNtNtNtCsfvfooZQ3Axs_4core4iter6traits8iterator8Iterator8try_foldINtNtB8_13in_place_drop11InPlaceDropBX_ENCINvNtNtB1F_8adapters3map12map_try_foldBX_BX_B2D_INtNtB1H_6result6ResultB2D_zENCINvNtNtB11_3gen4fold13fold_pat_typeNtNtCsdjy9FUDAuhT_18build_script_build11match_token16MatchTokenParserE0NCINvNtB8_16in_place_collect24write_in_place_with_dropBX_E0E0B45_EB5d_, symObjAddr: 0x1F00, symBinAddr: 0x100011FD0, symSize: 0x1F0 }
  - { offset: 0x538EB, size: 0x8, addend: 0x0, symName: __RINvXs3_NtNtCse1nGBsou5OW_5alloc3vec9into_iterINtB6_8IntoIterNtNtCs5AlOhPCr03V_3syn4attr9AttributeENtNtNtNtCsfvfooZQ3Axs_4core4iter6traits8iterator8Iterator8try_foldINtNtB8_13in_place_drop11InPlaceDropBX_ENCINvNtNtB1F_8adapters3map12map_try_foldBX_BX_B2D_INtNtB1H_6result6ResultB2D_zENCINvNtNtB11_3gen4fold13fold_pat_wildNtNtCsdjy9FUDAuhT_18build_script_build11match_token16MatchTokenParserE0NCINvNtB8_16in_place_collect24write_in_place_with_dropBX_E0E0B45_EB5d_, symObjAddr: 0x20F0, symBinAddr: 0x1000121C0, symSize: 0x1F0 }
  - { offset: 0x53ACD, size: 0x8, addend: 0x0, symName: __RINvXs3_NtNtCse1nGBsou5OW_5alloc3vec9into_iterINtB6_8IntoIterNtNtCs5AlOhPCr03V_3syn4attr9AttributeENtNtNtNtCsfvfooZQ3Axs_4core4iter6traits8iterator8Iterator8try_foldINtNtB8_13in_place_drop11InPlaceDropBX_ENCINvNtNtB1F_8adapters3map12map_try_foldBX_BX_B2D_INtNtB1H_6result6ResultB2D_zENCINvNtNtB11_3gen4fold13fold_receiverNtNtCsdjy9FUDAuhT_18build_script_build11match_token16MatchTokenParserE0NCINvNtB8_16in_place_collect24write_in_place_with_dropBX_E0E0B45_EB5d_, symObjAddr: 0x22E0, symBinAddr: 0x1000123B0, symSize: 0x1F0 }
  - { offset: 0x53CAF, size: 0x8, addend: 0x0, symName: __RINvXs3_NtNtCse1nGBsou5OW_5alloc3vec9into_iterINtB6_8IntoIterNtNtCs5AlOhPCr03V_3syn4attr9AttributeENtNtNtNtCsfvfooZQ3Axs_4core4iter6traits8iterator8Iterator8try_foldINtNtB8_13in_place_drop11InPlaceDropBX_ENCINvNtNtB1F_8adapters3map12map_try_foldBX_BX_B2D_INtNtB1H_6result6ResultB2D_zENCINvNtNtB11_3gen4fold13fold_variadicNtNtCsdjy9FUDAuhT_18build_script_build11match_token16MatchTokenParserE0NCINvNtB8_16in_place_collect24write_in_place_with_dropBX_E0E0B45_EB5d_, symObjAddr: 0x24D0, symBinAddr: 0x1000125A0, symSize: 0x1F0 }
  - { offset: 0x53E91, size: 0x8, addend: 0x0, symName: __RINvXs3_NtNtCse1nGBsou5OW_5alloc3vec9into_iterINtB6_8IntoIterNtNtCs5AlOhPCr03V_3syn4attr9AttributeENtNtNtNtCsfvfooZQ3Axs_4core4iter6traits8iterator8Iterator8try_foldINtNtB8_13in_place_drop11InPlaceDropBX_ENCINvNtNtB1F_8adapters3map12map_try_foldBX_BX_B2D_INtNtB1H_6result6ResultB2D_zENCINvNtNtB11_3gen4fold14fold_expr_callNtNtCsdjy9FUDAuhT_18build_script_build11match_token16MatchTokenParserE0NCINvNtB8_16in_place_collect24write_in_place_with_dropBX_E0E0B45_EB5e_, symObjAddr: 0x26C0, symBinAddr: 0x100012790, symSize: 0x1F0 }
  - { offset: 0x54073, size: 0x8, addend: 0x0, symName: __RINvXs3_NtNtCse1nGBsou5OW_5alloc3vec9into_iterINtB6_8IntoIterNtNtCs5AlOhPCr03V_3syn4attr9AttributeENtNtNtNtCsfvfooZQ3Axs_4core4iter6traits8iterator8Iterator8try_foldINtNtB8_13in_place_drop11InPlaceDropBX_ENCINvNtNtB1F_8adapters3map12map_try_foldBX_BX_B2D_INtNtB1H_6result6ResultB2D_zENCINvNtNtB11_3gen4fold14fold_expr_castNtNtCsdjy9FUDAuhT_18build_script_build11match_token16MatchTokenParserE0NCINvNtB8_16in_place_collect24write_in_place_with_dropBX_E0E0B45_EB5e_, symObjAddr: 0x28B0, symBinAddr: 0x100012980, symSize: 0x1F0 }
  - { offset: 0x54255, size: 0x8, addend: 0x0, symName: __RINvXs3_NtNtCse1nGBsou5OW_5alloc3vec9into_iterINtB6_8IntoIterNtNtCs5AlOhPCr03V_3syn4attr9AttributeENtNtNtNtCsfvfooZQ3Axs_4core4iter6traits8iterator8Iterator8try_foldINtNtB8_13in_place_drop11InPlaceDropBX_ENCINvNtNtB1F_8adapters3map12map_try_foldBX_BX_B2D_INtNtB1H_6result6ResultB2D_zENCINvNtNtB11_3gen4fold14fold_expr_loopNtNtCsdjy9FUDAuhT_18build_script_build11match_token16MatchTokenParserE0NCINvNtB8_16in_place_collect24write_in_place_with_dropBX_E0E0B45_EB5e_, symObjAddr: 0x2AA0, symBinAddr: 0x100012B70, symSize: 0x1F0 }
  - { offset: 0x54437, size: 0x8, addend: 0x0, symName: __RINvXs3_NtNtCse1nGBsou5OW_5alloc3vec9into_iterINtB6_8IntoIterNtNtCs5AlOhPCr03V_3syn4attr9AttributeENtNtNtNtCsfvfooZQ3Axs_4core4iter6traits8iterator8Iterator8try_foldINtNtB8_13in_place_drop11InPlaceDropBX_ENCINvNtNtB1F_8adapters3map12map_try_foldBX_BX_B2D_INtNtB1H_6result6ResultB2D_zENCINvNtNtB11_3gen4fold14fold_expr_pathNtNtCsdjy9FUDAuhT_18build_script_build11match_token16MatchTokenParserE0NCINvNtB8_16in_place_collect24write_in_place_with_dropBX_E0E0B45_EB5e_, symObjAddr: 0x2C90, symBinAddr: 0x100012D60, symSize: 0x1F0 }
  - { offset: 0x54619, size: 0x8, addend: 0x0, symName: __RINvXs3_NtNtCse1nGBsou5OW_5alloc3vec9into_iterINtB6_8IntoIterNtNtCs5AlOhPCr03V_3syn4attr9AttributeENtNtNtNtCsfvfooZQ3Axs_4core4iter6traits8iterator8Iterator8try_foldINtNtB8_13in_place_drop11InPlaceDropBX_ENCINvNtNtB1F_8adapters3map12map_try_foldBX_BX_B2D_INtNtB1H_6result6ResultB2D_zENCINvNtNtB11_3gen4fold14fold_expr_typeNtNtCsdjy9FUDAuhT_18build_script_build11match_token16MatchTokenParserE0NCINvNtB8_16in_place_collect24write_in_place_with_dropBX_E0E0B45_EB5e_, symObjAddr: 0x2E80, symBinAddr: 0x100012F50, symSize: 0x1F0 }
  - { offset: 0x547FB, size: 0x8, addend: 0x0, symName: __RINvXs3_NtNtCse1nGBsou5OW_5alloc3vec9into_iterINtB6_8IntoIterNtNtCs5AlOhPCr03V_3syn4attr9AttributeENtNtNtNtCsfvfooZQ3Axs_4core4iter6traits8iterator8Iterator8try_foldINtNtB8_13in_place_drop11InPlaceDropBX_ENCINvNtNtB1F_8adapters3map12map_try_foldBX_BX_B2D_INtNtB1H_6result6ResultB2D_zENCINvNtNtB11_3gen4fold14fold_field_patNtNtCsdjy9FUDAuhT_18build_script_build11match_token16MatchTokenParserE0NCINvNtB8_16in_place_collect24write_in_place_with_dropBX_E0E0B45_EB5e_, symObjAddr: 0x3070, symBinAddr: 0x100013140, symSize: 0x1F0 }
  - { offset: 0x549DD, size: 0x8, addend: 0x0, symName: __RINvXs3_NtNtCse1nGBsou5OW_5alloc3vec9into_iterINtB6_8IntoIterNtNtCs5AlOhPCr03V_3syn4attr9AttributeENtNtNtNtCsfvfooZQ3Axs_4core4iter6traits8iterator8Iterator8try_foldINtNtB8_13in_place_drop11InPlaceDropBX_ENCINvNtNtB1F_8adapters3map12map_try_foldBX_BX_B2D_INtNtB1H_6result6ResultB2D_zENCINvNtNtB11_3gen4fold14fold_item_enumNtNtCsdjy9FUDAuhT_18build_script_build11match_token16MatchTokenParserE0NCINvNtB8_16in_place_collect24write_in_place_with_dropBX_E0E0B45_EB5e_, symObjAddr: 0x3260, symBinAddr: 0x100013330, symSize: 0x1F0 }
  - { offset: 0x54BBF, size: 0x8, addend: 0x0, symName: __RINvXs3_NtNtCse1nGBsou5OW_5alloc3vec9into_iterINtB6_8IntoIterNtNtCs5AlOhPCr03V_3syn4attr9AttributeENtNtNtNtCsfvfooZQ3Axs_4core4iter6traits8iterator8Iterator8try_foldINtNtB8_13in_place_drop11InPlaceDropBX_ENCINvNtNtB1F_8adapters3map12map_try_foldBX_BX_B2D_INtNtB1H_6result6ResultB2D_zENCINvNtNtB11_3gen4fold14fold_item_implNtNtCsdjy9FUDAuhT_18build_script_build11match_token16MatchTokenParserE0NCINvNtB8_16in_place_collect24write_in_place_with_dropBX_E0E0B45_EB5e_, symObjAddr: 0x3450, symBinAddr: 0x100013520, symSize: 0x1F0 }
  - { offset: 0x54DA1, size: 0x8, addend: 0x0, symName: __RINvXs3_NtNtCse1nGBsou5OW_5alloc3vec9into_iterINtB6_8IntoIterNtNtCs5AlOhPCr03V_3syn4attr9AttributeENtNtNtNtCsfvfooZQ3Axs_4core4iter6traits8iterator8Iterator8try_foldINtNtB8_13in_place_drop11InPlaceDropBX_ENCINvNtNtB1F_8adapters3map12map_try_foldBX_BX_B2D_INtNtB1H_6result6ResultB2D_zENCINvNtNtB11_3gen4fold14fold_item_typeNtNtCsdjy9FUDAuhT_18build_script_build11match_token16MatchTokenParserE0NCINvNtB8_16in_place_collect24write_in_place_with_dropBX_E0E0B45_EB5e_, symObjAddr: 0x3640, symBinAddr: 0x100013710, symSize: 0x1F0 }
  - { offset: 0x54F83, size: 0x8, addend: 0x0, symName: __RINvXs3_NtNtCse1nGBsou5OW_5alloc3vec9into_iterINtB6_8IntoIterNtNtCs5AlOhPCr03V_3syn4attr9AttributeENtNtNtNtCsfvfooZQ3Axs_4core4iter6traits8iterator8Iterator8try_foldINtNtB8_13in_place_drop11InPlaceDropBX_ENCINvNtNtB1F_8adapters3map12map_try_foldBX_BX_B2D_INtNtB1H_6result6ResultB2D_zENCINvNtNtB11_3gen4fold14fold_pat_identNtNtCsdjy9FUDAuhT_18build_script_build11match_token16MatchTokenParserE0NCINvNtB8_16in_place_collect24write_in_place_with_dropBX_E0E0B45_EB5e_, symObjAddr: 0x3830, symBinAddr: 0x100013900, symSize: 0x1F0 }
  - { offset: 0x55165, size: 0x8, addend: 0x0, symName: __RINvXs3_NtNtCse1nGBsou5OW_5alloc3vec9into_iterINtB6_8IntoIterNtNtCs5AlOhPCr03V_3syn4attr9AttributeENtNtNtNtCsfvfooZQ3Axs_4core4iter6traits8iterator8Iterator8try_foldINtNtB8_13in_place_drop11InPlaceDropBX_ENCINvNtNtB1F_8adapters3map12map_try_foldBX_BX_B2D_INtNtB1H_6result6ResultB2D_zENCINvNtNtB11_3gen4fold14fold_pat_macroNtNtCsdjy9FUDAuhT_18build_script_build11match_token16MatchTokenParserE0NCINvNtB8_16in_place_collect24write_in_place_with_dropBX_E0E0B45_EB5e_, symObjAddr: 0x3A20, symBinAddr: 0x100013AF0, symSize: 0x1F0 }
  - { offset: 0x55347, size: 0x8, addend: 0x0, symName: __RINvXs3_NtNtCse1nGBsou5OW_5alloc3vec9into_iterINtB6_8IntoIterNtNtCs5AlOhPCr03V_3syn4attr9AttributeENtNtNtNtCsfvfooZQ3Axs_4core4iter6traits8iterator8Iterator8try_foldINtNtB8_13in_place_drop11InPlaceDropBX_ENCINvNtNtB1F_8adapters3map12map_try_foldBX_BX_B2D_INtNtB1H_6result6ResultB2D_zENCINvNtNtB11_3gen4fold14fold_pat_rangeNtNtCsdjy9FUDAuhT_18build_script_build11match_token16MatchTokenParserE0NCINvNtB8_16in_place_collect24write_in_place_with_dropBX_E0E0B45_EB5e_, symObjAddr: 0x3C10, symBinAddr: 0x100013CE0, symSize: 0x1F0 }
  - { offset: 0x55529, size: 0x8, addend: 0x0, symName: __RINvXs3_NtNtCse1nGBsou5OW_5alloc3vec9into_iterINtB6_8IntoIterNtNtCs5AlOhPCr03V_3syn4attr9AttributeENtNtNtNtCsfvfooZQ3Axs_4core4iter6traits8iterator8Iterator8try_foldINtNtB8_13in_place_drop11InPlaceDropBX_ENCINvNtNtB1F_8adapters3map12map_try_foldBX_BX_B2D_INtNtB1H_6result6ResultB2D_zENCINvNtNtB11_3gen4fold14fold_pat_sliceNtNtCsdjy9FUDAuhT_18build_script_build11match_token16MatchTokenParserE0NCINvNtB8_16in_place_collect24write_in_place_with_dropBX_E0E0B45_EB5e_, symObjAddr: 0x3E00, symBinAddr: 0x100013ED0, symSize: 0x1F0 }
  - { offset: 0x5570B, size: 0x8, addend: 0x0, symName: __RINvXs3_NtNtCse1nGBsou5OW_5alloc3vec9into_iterINtB6_8IntoIterNtNtCs5AlOhPCr03V_3syn4attr9AttributeENtNtNtNtCsfvfooZQ3Axs_4core4iter6traits8iterator8Iterator8try_foldINtNtB8_13in_place_drop11InPlaceDropBX_ENCINvNtNtB1F_8adapters3map12map_try_foldBX_BX_B2D_INtNtB1H_6result6ResultB2D_zENCINvNtNtB11_3gen4fold14fold_pat_tupleNtNtCsdjy9FUDAuhT_18build_script_build11match_token16MatchTokenParserE0NCINvNtB8_16in_place_collect24write_in_place_with_dropBX_E0E0B45_EB5e_, symObjAddr: 0x3FF0, symBinAddr: 0x1000140C0, symSize: 0x1F0 }
  - { offset: 0x558ED, size: 0x8, addend: 0x0, symName: __RINvXs3_NtNtCse1nGBsou5OW_5alloc3vec9into_iterINtB6_8IntoIterNtNtCs5AlOhPCr03V_3syn4attr9AttributeENtNtNtNtCsfvfooZQ3Axs_4core4iter6traits8iterator8Iterator8try_foldINtNtB8_13in_place_drop11InPlaceDropBX_ENCINvNtNtB1F_8adapters3map12map_try_foldBX_BX_B2D_INtNtB1H_6result6ResultB2D_zENCINvNtNtB11_3gen4fold15fold_expr_arrayNtNtCsdjy9FUDAuhT_18build_script_build11match_token16MatchTokenParserE0NCINvNtB8_16in_place_collect24write_in_place_with_dropBX_E0E0B45_EB5f_, symObjAddr: 0x41E0, symBinAddr: 0x1000142B0, symSize: 0x1F0 }
  - { offset: 0x55ACF, size: 0x8, addend: 0x0, symName: __RINvXs3_NtNtCse1nGBsou5OW_5alloc3vec9into_iterINtB6_8IntoIterNtNtCs5AlOhPCr03V_3syn4attr9AttributeENtNtNtNtCsfvfooZQ3Axs_4core4iter6traits8iterator8Iterator8try_foldINtNtB8_13in_place_drop11InPlaceDropBX_ENCINvNtNtB1F_8adapters3map12map_try_foldBX_BX_B2D_INtNtB1H_6result6ResultB2D_zENCINvNtNtB11_3gen4fold15fold_expr_asyncNtNtCsdjy9FUDAuhT_18build_script_build11match_token16MatchTokenParserE0NCINvNtB8_16in_place_collect24write_in_place_with_dropBX_E0E0B45_EB5f_, symObjAddr: 0x43D0, symBinAddr: 0x1000144A0, symSize: 0x1F0 }
  - { offset: 0x55CB1, size: 0x8, addend: 0x0, symName: __RINvXs3_NtNtCse1nGBsou5OW_5alloc3vec9into_iterINtB6_8IntoIterNtNtCs5AlOhPCr03V_3syn4attr9AttributeENtNtNtNtCsfvfooZQ3Axs_4core4iter6traits8iterator8Iterator8try_foldINtNtB8_13in_place_drop11InPlaceDropBX_ENCINvNtNtB1F_8adapters3map12map_try_foldBX_BX_B2D_INtNtB1H_6result6ResultB2D_zENCINvNtNtB11_3gen4fold15fold_expr_awaitNtNtCsdjy9FUDAuhT_18build_script_build11match_token16MatchTokenParserE0NCINvNtB8_16in_place_collect24write_in_place_with_dropBX_E0E0B45_EB5f_, symObjAddr: 0x45C0, symBinAddr: 0x100014690, symSize: 0x1F0 }
  - { offset: 0x55E93, size: 0x8, addend: 0x0, symName: __RINvXs3_NtNtCse1nGBsou5OW_5alloc3vec9into_iterINtB6_8IntoIterNtNtCs5AlOhPCr03V_3syn4attr9AttributeENtNtNtNtCsfvfooZQ3Axs_4core4iter6traits8iterator8Iterator8try_foldINtNtB8_13in_place_drop11InPlaceDropBX_ENCINvNtNtB1F_8adapters3map12map_try_foldBX_BX_B2D_INtNtB1H_6result6ResultB2D_zENCINvNtNtB11_3gen4fold15fold_expr_blockNtNtCsdjy9FUDAuhT_18build_script_build11match_token16MatchTokenParserE0NCINvNtB8_16in_place_collect24write_in_place_with_dropBX_E0E0B45_EB5f_, symObjAddr: 0x47B0, symBinAddr: 0x100014880, symSize: 0x1F0 }
  - { offset: 0x56075, size: 0x8, addend: 0x0, symName: __RINvXs3_NtNtCse1nGBsou5OW_5alloc3vec9into_iterINtB6_8IntoIterNtNtCs5AlOhPCr03V_3syn4attr9AttributeENtNtNtNtCsfvfooZQ3Axs_4core4iter6traits8iterator8Iterator8try_foldINtNtB8_13in_place_drop11InPlaceDropBX_ENCINvNtNtB1F_8adapters3map12map_try_foldBX_BX_B2D_INtNtB1H_6result6ResultB2D_zENCINvNtNtB11_3gen4fold15fold_expr_breakNtNtCsdjy9FUDAuhT_18build_script_build11match_token16MatchTokenParserE0NCINvNtB8_16in_place_collect24write_in_place_with_dropBX_E0E0B45_EB5f_, symObjAddr: 0x49A0, symBinAddr: 0x100014A70, symSize: 0x1F0 }
  - { offset: 0x56257, size: 0x8, addend: 0x0, symName: __RINvXs3_NtNtCse1nGBsou5OW_5alloc3vec9into_iterINtB6_8IntoIterNtNtCs5AlOhPCr03V_3syn4attr9AttributeENtNtNtNtCsfvfooZQ3Axs_4core4iter6traits8iterator8Iterator8try_foldINtNtB8_13in_place_drop11InPlaceDropBX_ENCINvNtNtB1F_8adapters3map12map_try_foldBX_BX_B2D_INtNtB1H_6result6ResultB2D_zENCINvNtNtB11_3gen4fold15fold_expr_fieldNtNtCsdjy9FUDAuhT_18build_script_build11match_token16MatchTokenParserE0NCINvNtB8_16in_place_collect24write_in_place_with_dropBX_E0E0B45_EB5f_, symObjAddr: 0x4B90, symBinAddr: 0x100014C60, symSize: 0x1F0 }
  - { offset: 0x56439, size: 0x8, addend: 0x0, symName: __RINvXs3_NtNtCse1nGBsou5OW_5alloc3vec9into_iterINtB6_8IntoIterNtNtCs5AlOhPCr03V_3syn4attr9AttributeENtNtNtNtCsfvfooZQ3Axs_4core4iter6traits8iterator8Iterator8try_foldINtNtB8_13in_place_drop11InPlaceDropBX_ENCINvNtNtB1F_8adapters3map12map_try_foldBX_BX_B2D_INtNtB1H_6result6ResultB2D_zENCINvNtNtB11_3gen4fold15fold_expr_groupNtNtCsdjy9FUDAuhT_18build_script_build11match_token16MatchTokenParserE0NCINvNtB8_16in_place_collect24write_in_place_with_dropBX_E0E0B45_EB5f_, symObjAddr: 0x4D80, symBinAddr: 0x100014E50, symSize: 0x1F0 }
  - { offset: 0x5661B, size: 0x8, addend: 0x0, symName: __RINvXs3_NtNtCse1nGBsou5OW_5alloc3vec9into_iterINtB6_8IntoIterNtNtCs5AlOhPCr03V_3syn4attr9AttributeENtNtNtNtCsfvfooZQ3Axs_4core4iter6traits8iterator8Iterator8try_foldINtNtB8_13in_place_drop11InPlaceDropBX_ENCINvNtNtB1F_8adapters3map12map_try_foldBX_BX_B2D_INtNtB1H_6result6ResultB2D_zENCINvNtNtB11_3gen4fold15fold_expr_indexNtNtCsdjy9FUDAuhT_18build_script_build11match_token16MatchTokenParserE0NCINvNtB8_16in_place_collect24write_in_place_with_dropBX_E0E0B45_EB5f_, symObjAddr: 0x4F70, symBinAddr: 0x100015040, symSize: 0x1F0 }
  - { offset: 0x567FD, size: 0x8, addend: 0x0, symName: __RINvXs3_NtNtCse1nGBsou5OW_5alloc3vec9into_iterINtB6_8IntoIterNtNtCs5AlOhPCr03V_3syn4attr9AttributeENtNtNtNtCsfvfooZQ3Axs_4core4iter6traits8iterator8Iterator8try_foldINtNtB8_13in_place_drop11InPlaceDropBX_ENCINvNtNtB1F_8adapters3map12map_try_foldBX_BX_B2D_INtNtB1H_6result6ResultB2D_zENCINvNtNtB11_3gen4fold15fold_expr_macroNtNtCsdjy9FUDAuhT_18build_script_build11match_token16MatchTokenParserE0NCINvNtB8_16in_place_collect24write_in_place_with_dropBX_E0E0B45_EB5f_, symObjAddr: 0x5160, symBinAddr: 0x100015230, symSize: 0x1F0 }
  - { offset: 0x569DF, size: 0x8, addend: 0x0, symName: __RINvXs3_NtNtCse1nGBsou5OW_5alloc3vec9into_iterINtB6_8IntoIterNtNtCs5AlOhPCr03V_3syn4attr9AttributeENtNtNtNtCsfvfooZQ3Axs_4core4iter6traits8iterator8Iterator8try_foldINtNtB8_13in_place_drop11InPlaceDropBX_ENCINvNtNtB1F_8adapters3map12map_try_foldBX_BX_B2D_INtNtB1H_6result6ResultB2D_zENCINvNtNtB11_3gen4fold15fold_expr_matchNtNtCsdjy9FUDAuhT_18build_script_build11match_token16MatchTokenParserE0NCINvNtB8_16in_place_collect24write_in_place_with_dropBX_E0E0B45_EB5f_, symObjAddr: 0x5350, symBinAddr: 0x100015420, symSize: 0x1F0 }
  - { offset: 0x56BC1, size: 0x8, addend: 0x0, symName: __RINvXs3_NtNtCse1nGBsou5OW_5alloc3vec9into_iterINtB6_8IntoIterNtNtCs5AlOhPCr03V_3syn4attr9AttributeENtNtNtNtCsfvfooZQ3Axs_4core4iter6traits8iterator8Iterator8try_foldINtNtB8_13in_place_drop11InPlaceDropBX_ENCINvNtNtB1F_8adapters3map12map_try_foldBX_BX_B2D_INtNtB1H_6result6ResultB2D_zENCINvNtNtB11_3gen4fold15fold_expr_parenNtNtCsdjy9FUDAuhT_18build_script_build11match_token16MatchTokenParserE0NCINvNtB8_16in_place_collect24write_in_place_with_dropBX_E0E0B45_EB5f_, symObjAddr: 0x5540, symBinAddr: 0x100015610, symSize: 0x1F0 }
  - { offset: 0x56DA3, size: 0x8, addend: 0x0, symName: __RINvXs3_NtNtCse1nGBsou5OW_5alloc3vec9into_iterINtB6_8IntoIterNtNtCs5AlOhPCr03V_3syn4attr9AttributeENtNtNtNtCsfvfooZQ3Axs_4core4iter6traits8iterator8Iterator8try_foldINtNtB8_13in_place_drop11InPlaceDropBX_ENCINvNtNtB1F_8adapters3map12map_try_foldBX_BX_B2D_INtNtB1H_6result6ResultB2D_zENCINvNtNtB11_3gen4fold15fold_expr_rangeNtNtCsdjy9FUDAuhT_18build_script_build11match_token16MatchTokenParserE0NCINvNtB8_16in_place_collect24write_in_place_with_dropBX_E0E0B45_EB5f_, symObjAddr: 0x5730, symBinAddr: 0x100015800, symSize: 0x1F0 }
  - { offset: 0x56F85, size: 0x8, addend: 0x0, symName: __RINvXs3_NtNtCse1nGBsou5OW_5alloc3vec9into_iterINtB6_8IntoIterNtNtCs5AlOhPCr03V_3syn4attr9AttributeENtNtNtNtCsfvfooZQ3Axs_4core4iter6traits8iterator8Iterator8try_foldINtNtB8_13in_place_drop11InPlaceDropBX_ENCINvNtNtB1F_8adapters3map12map_try_foldBX_BX_B2D_INtNtB1H_6result6ResultB2D_zENCINvNtNtB11_3gen4fold15fold_expr_tupleNtNtCsdjy9FUDAuhT_18build_script_build11match_token16MatchTokenParserE0NCINvNtB8_16in_place_collect24write_in_place_with_dropBX_E0E0B45_EB5f_, symObjAddr: 0x5920, symBinAddr: 0x1000159F0, symSize: 0x1F0 }
  - { offset: 0x57167, size: 0x8, addend: 0x0, symName: __RINvXs3_NtNtCse1nGBsou5OW_5alloc3vec9into_iterINtB6_8IntoIterNtNtCs5AlOhPCr03V_3syn4attr9AttributeENtNtNtNtCsfvfooZQ3Axs_4core4iter6traits8iterator8Iterator8try_foldINtNtB8_13in_place_drop11InPlaceDropBX_ENCINvNtNtB1F_8adapters3map12map_try_foldBX_BX_B2D_INtNtB1H_6result6ResultB2D_zENCINvNtNtB11_3gen4fold15fold_expr_unaryNtNtCsdjy9FUDAuhT_18build_script_build11match_token16MatchTokenParserE0NCINvNtB8_16in_place_collect24write_in_place_with_dropBX_E0E0B45_EB5f_, symObjAddr: 0x5B10, symBinAddr: 0x100015BE0, symSize: 0x1F0 }
  - { offset: 0x57349, size: 0x8, addend: 0x0, symName: __RINvXs3_NtNtCse1nGBsou5OW_5alloc3vec9into_iterINtB6_8IntoIterNtNtCs5AlOhPCr03V_3syn4attr9AttributeENtNtNtNtCsfvfooZQ3Axs_4core4iter6traits8iterator8Iterator8try_foldINtNtB8_13in_place_drop11InPlaceDropBX_ENCINvNtNtB1F_8adapters3map12map_try_foldBX_BX_B2D_INtNtB1H_6result6ResultB2D_zENCINvNtNtB11_3gen4fold15fold_expr_whileNtNtCsdjy9FUDAuhT_18build_script_build11match_token16MatchTokenParserE0NCINvNtB8_16in_place_collect24write_in_place_with_dropBX_E0E0B45_EB5f_, symObjAddr: 0x5D00, symBinAddr: 0x100015DD0, symSize: 0x1F0 }
  - { offset: 0x5752B, size: 0x8, addend: 0x0, symName: __RINvXs3_NtNtCse1nGBsou5OW_5alloc3vec9into_iterINtB6_8IntoIterNtNtCs5AlOhPCr03V_3syn4attr9AttributeENtNtNtNtCsfvfooZQ3Axs_4core4iter6traits8iterator8Iterator8try_foldINtNtB8_13in_place_drop11InPlaceDropBX_ENCINvNtNtB1F_8adapters3map12map_try_foldBX_BX_B2D_INtNtB1H_6result6ResultB2D_zENCINvNtNtB11_3gen4fold15fold_expr_yieldNtNtCsdjy9FUDAuhT_18build_script_build11match_token16MatchTokenParserE0NCINvNtB8_16in_place_collect24write_in_place_with_dropBX_E0E0B45_EB5f_, symObjAddr: 0x5EF0, symBinAddr: 0x100015FC0, symSize: 0x1F0 }
  - { offset: 0x5770D, size: 0x8, addend: 0x0, symName: __RINvXs3_NtNtCse1nGBsou5OW_5alloc3vec9into_iterINtB6_8IntoIterNtNtCs5AlOhPCr03V_3syn4attr9AttributeENtNtNtNtCsfvfooZQ3Axs_4core4iter6traits8iterator8Iterator8try_foldINtNtB8_13in_place_drop11InPlaceDropBX_ENCINvNtNtB1F_8adapters3map12map_try_foldBX_BX_B2D_INtNtB1H_6result6ResultB2D_zENCINvNtNtB11_3gen4fold15fold_item_constNtNtCsdjy9FUDAuhT_18build_script_build11match_token16MatchTokenParserE0NCINvNtB8_16in_place_collect24write_in_place_with_dropBX_E0E0B45_EB5f_, symObjAddr: 0x60E0, symBinAddr: 0x1000161B0, symSize: 0x1F0 }
  - { offset: 0x578EF, size: 0x8, addend: 0x0, symName: __RINvXs3_NtNtCse1nGBsou5OW_5alloc3vec9into_iterINtB6_8IntoIterNtNtCs5AlOhPCr03V_3syn4attr9AttributeENtNtNtNtCsfvfooZQ3Axs_4core4iter6traits8iterator8Iterator8try_foldINtNtB8_13in_place_drop11InPlaceDropBX_ENCINvNtNtB1F_8adapters3map12map_try_foldBX_BX_B2D_INtNtB1H_6result6ResultB2D_zENCINvNtNtB11_3gen4fold15fold_item_macroNtNtCsdjy9FUDAuhT_18build_script_build11match_token16MatchTokenParserE0NCINvNtB8_16in_place_collect24write_in_place_with_dropBX_E0E0B45_EB5f_, symObjAddr: 0x62D0, symBinAddr: 0x1000163A0, symSize: 0x1F0 }
  - { offset: 0x57AD1, size: 0x8, addend: 0x0, symName: __RINvXs3_NtNtCse1nGBsou5OW_5alloc3vec9into_iterINtB6_8IntoIterNtNtCs5AlOhPCr03V_3syn4attr9AttributeENtNtNtNtCsfvfooZQ3Axs_4core4iter6traits8iterator8Iterator8try_foldINtNtB8_13in_place_drop11InPlaceDropBX_ENCINvNtNtB1F_8adapters3map12map_try_foldBX_BX_B2D_INtNtB1H_6result6ResultB2D_zENCINvNtNtB11_3gen4fold15fold_item_traitNtNtCsdjy9FUDAuhT_18build_script_build11match_token16MatchTokenParserE0NCINvNtB8_16in_place_collect24write_in_place_with_dropBX_E0E0B45_EB5f_, symObjAddr: 0x64C0, symBinAddr: 0x100016590, symSize: 0x1F0 }
  - { offset: 0x57CB3, size: 0x8, addend: 0x0, symName: __RINvXs3_NtNtCse1nGBsou5OW_5alloc3vec9into_iterINtB6_8IntoIterNtNtCs5AlOhPCr03V_3syn4attr9AttributeENtNtNtNtCsfvfooZQ3Axs_4core4iter6traits8iterator8Iterator8try_foldINtNtB8_13in_place_drop11InPlaceDropBX_ENCINvNtNtB1F_8adapters3map12map_try_foldBX_BX_B2D_INtNtB1H_6result6ResultB2D_zENCINvNtNtB11_3gen4fold15fold_item_unionNtNtCsdjy9FUDAuhT_18build_script_build11match_token16MatchTokenParserE0NCINvNtB8_16in_place_collect24write_in_place_with_dropBX_E0E0B45_EB5f_, symObjAddr: 0x66B0, symBinAddr: 0x100016780, symSize: 0x1F0 }
  - { offset: 0x57E95, size: 0x8, addend: 0x0, symName: __RINvXs3_NtNtCse1nGBsou5OW_5alloc3vec9into_iterINtB6_8IntoIterNtNtCs5AlOhPCr03V_3syn4attr9AttributeENtNtNtNtCsfvfooZQ3Axs_4core4iter6traits8iterator8Iterator8try_foldINtNtB8_13in_place_drop11InPlaceDropBX_ENCINvNtNtB1F_8adapters3map12map_try_foldBX_BX_B2D_INtNtB1H_6result6ResultB2D_zENCINvNtNtB11_3gen4fold15fold_pat_structNtNtCsdjy9FUDAuhT_18build_script_build11match_token16MatchTokenParserE0NCINvNtB8_16in_place_collect24write_in_place_with_dropBX_E0E0B45_EB5f_, symObjAddr: 0x68A0, symBinAddr: 0x100016970, symSize: 0x1F0 }
  - { offset: 0x58077, size: 0x8, addend: 0x0, symName: __RINvXs3_NtNtCse1nGBsou5OW_5alloc3vec9into_iterINtB6_8IntoIterNtNtCs5AlOhPCr03V_3syn4attr9AttributeENtNtNtNtCsfvfooZQ3Axs_4core4iter6traits8iterator8Iterator8try_foldINtNtB8_13in_place_drop11InPlaceDropBX_ENCINvNtNtB1F_8adapters3map12map_try_foldBX_BX_B2D_INtNtB1H_6result6ResultB2D_zENCINvNtNtB11_3gen4fold15fold_type_paramNtNtCsdjy9FUDAuhT_18build_script_build11match_token16MatchTokenParserE0NCINvNtB8_16in_place_collect24write_in_place_with_dropBX_E0E0B45_EB5f_, symObjAddr: 0x6A90, symBinAddr: 0x100016B60, symSize: 0x1F0 }
  - { offset: 0x58259, size: 0x8, addend: 0x0, symName: __RINvXs3_NtNtCse1nGBsou5OW_5alloc3vec9into_iterINtB6_8IntoIterNtNtCs5AlOhPCr03V_3syn4attr9AttributeENtNtNtNtCsfvfooZQ3Axs_4core4iter6traits8iterator8Iterator8try_foldINtNtB8_13in_place_drop11InPlaceDropBX_ENCINvNtNtB1F_8adapters3map12map_try_foldBX_BX_B2D_INtNtB1H_6result6ResultB2D_zENCINvNtNtB11_3gen4fold16fold_bare_fn_argNtNtCsdjy9FUDAuhT_18build_script_build11match_token16MatchTokenParserE0NCINvNtB8_16in_place_collect24write_in_place_with_dropBX_E0E0B45_EB5g_, symObjAddr: 0x6C80, symBinAddr: 0x100016D50, symSize: 0x1F0 }
  - { offset: 0x5843B, size: 0x8, addend: 0x0, symName: __RINvXs3_NtNtCse1nGBsou5OW_5alloc3vec9into_iterINtB6_8IntoIterNtNtCs5AlOhPCr03V_3syn4attr9AttributeENtNtNtNtCsfvfooZQ3Axs_4core4iter6traits8iterator8Iterator8try_foldINtNtB8_13in_place_drop11InPlaceDropBX_ENCINvNtNtB1F_8adapters3map12map_try_foldBX_BX_B2D_INtNtB1H_6result6ResultB2D_zENCINvNtNtB11_3gen4fold16fold_const_paramNtNtCsdjy9FUDAuhT_18build_script_build11match_token16MatchTokenParserE0NCINvNtB8_16in_place_collect24write_in_place_with_dropBX_E0E0B45_EB5g_, symObjAddr: 0x6E70, symBinAddr: 0x100016F40, symSize: 0x1F0 }
  - { offset: 0x5861D, size: 0x8, addend: 0x0, symName: __RINvXs3_NtNtCse1nGBsou5OW_5alloc3vec9into_iterINtB6_8IntoIterNtNtCs5AlOhPCr03V_3syn4attr9AttributeENtNtNtNtCsfvfooZQ3Axs_4core4iter6traits8iterator8Iterator8try_foldINtNtB8_13in_place_drop11InPlaceDropBX_ENCINvNtNtB1F_8adapters3map12map_try_foldBX_BX_B2D_INtNtB1H_6result6ResultB2D_zENCINvNtNtB11_3gen4fold16fold_expr_assignNtNtCsdjy9FUDAuhT_18build_script_build11match_token16MatchTokenParserE0NCINvNtB8_16in_place_collect24write_in_place_with_dropBX_E0E0B45_EB5g_, symObjAddr: 0x7060, symBinAddr: 0x100017130, symSize: 0x1F0 }
  - { offset: 0x587FF, size: 0x8, addend: 0x0, symName: __RINvXs3_NtNtCse1nGBsou5OW_5alloc3vec9into_iterINtB6_8IntoIterNtNtCs5AlOhPCr03V_3syn4attr9AttributeENtNtNtNtCsfvfooZQ3Axs_4core4iter6traits8iterator8Iterator8try_foldINtNtB8_13in_place_drop11InPlaceDropBX_ENCINvNtNtB1F_8adapters3map12map_try_foldBX_BX_B2D_INtNtB1H_6result6ResultB2D_zENCINvNtNtB11_3gen4fold16fold_expr_binaryNtNtCsdjy9FUDAuhT_18build_script_build11match_token16MatchTokenParserE0NCINvNtB8_16in_place_collect24write_in_place_with_dropBX_E0E0B45_EB5g_, symObjAddr: 0x7250, symBinAddr: 0x100017320, symSize: 0x1F0 }
  - { offset: 0x589E1, size: 0x8, addend: 0x0, symName: __RINvXs3_NtNtCse1nGBsou5OW_5alloc3vec9into_iterINtB6_8IntoIterNtNtCs5AlOhPCr03V_3syn4attr9AttributeENtNtNtNtCsfvfooZQ3Axs_4core4iter6traits8iterator8Iterator8try_foldINtNtB8_13in_place_drop11InPlaceDropBX_ENCINvNtNtB1F_8adapters3map12map_try_foldBX_BX_B2D_INtNtB1H_6result6ResultB2D_zENCINvNtNtB11_3gen4fold16fold_expr_repeatNtNtCsdjy9FUDAuhT_18build_script_build11match_token16MatchTokenParserE0NCINvNtB8_16in_place_collect24write_in_place_with_dropBX_E0E0B45_EB5g_, symObjAddr: 0x7440, symBinAddr: 0x100017510, symSize: 0x1F0 }
  - { offset: 0x58BC3, size: 0x8, addend: 0x0, symName: __RINvXs3_NtNtCse1nGBsou5OW_5alloc3vec9into_iterINtB6_8IntoIterNtNtCs5AlOhPCr03V_3syn4attr9AttributeENtNtNtNtCsfvfooZQ3Axs_4core4iter6traits8iterator8Iterator8try_foldINtNtB8_13in_place_drop11InPlaceDropBX_ENCINvNtNtB1F_8adapters3map12map_try_foldBX_BX_B2D_INtNtB1H_6result6ResultB2D_zENCINvNtNtB11_3gen4fold16fold_expr_returnNtNtCsdjy9FUDAuhT_18build_script_build11match_token16MatchTokenParserE0NCINvNtB8_16in_place_collect24write_in_place_with_dropBX_E0E0B45_EB5g_, symObjAddr: 0x7630, symBinAddr: 0x100017700, symSize: 0x1F0 }
  - { offset: 0x58DA5, size: 0x8, addend: 0x0, symName: __RINvXs3_NtNtCse1nGBsou5OW_5alloc3vec9into_iterINtB6_8IntoIterNtNtCs5AlOhPCr03V_3syn4attr9AttributeENtNtNtNtCsfvfooZQ3Axs_4core4iter6traits8iterator8Iterator8try_foldINtNtB8_13in_place_drop11InPlaceDropBX_ENCINvNtNtB1F_8adapters3map12map_try_foldBX_BX_B2D_INtNtB1H_6result6ResultB2D_zENCINvNtNtB11_3gen4fold16fold_expr_structNtNtCsdjy9FUDAuhT_18build_script_build11match_token16MatchTokenParserE0NCINvNtB8_16in_place_collect24write_in_place_with_dropBX_E0E0B45_EB5g_, symObjAddr: 0x7820, symBinAddr: 0x1000178F0, symSize: 0x1F0 }
  - { offset: 0x58F87, size: 0x8, addend: 0x0, symName: __RINvXs3_NtNtCse1nGBsou5OW_5alloc3vec9into_iterINtB6_8IntoIterNtNtCs5AlOhPCr03V_3syn4attr9AttributeENtNtNtNtCsfvfooZQ3Axs_4core4iter6traits8iterator8Iterator8try_foldINtNtB8_13in_place_drop11InPlaceDropBX_ENCINvNtNtB1F_8adapters3map12map_try_foldBX_BX_B2D_INtNtB1H_6result6ResultB2D_zENCINvNtNtB11_3gen4fold16fold_expr_unsafeNtNtCsdjy9FUDAuhT_18build_script_build11match_token16MatchTokenParserE0NCINvNtB8_16in_place_collect24write_in_place_with_dropBX_E0E0B45_EB5g_, symObjAddr: 0x7A10, symBinAddr: 0x100017AE0, symSize: 0x1F0 }
  - { offset: 0x59169, size: 0x8, addend: 0x0, symName: __RINvXs3_NtNtCse1nGBsou5OW_5alloc3vec9into_iterINtB6_8IntoIterNtNtCs5AlOhPCr03V_3syn4attr9AttributeENtNtNtNtCsfvfooZQ3Axs_4core4iter6traits8iterator8Iterator8try_foldINtNtB8_13in_place_drop11InPlaceDropBX_ENCINvNtNtB1F_8adapters3map12map_try_foldBX_BX_B2D_INtNtB1H_6result6ResultB2D_zENCINvNtNtB11_3gen4fold16fold_field_valueNtNtCsdjy9FUDAuhT_18build_script_build11match_token16MatchTokenParserE0NCINvNtB8_16in_place_collect24write_in_place_with_dropBX_E0E0B45_EB5g_, symObjAddr: 0x7C00, symBinAddr: 0x100017CD0, symSize: 0x1F0 }
  - { offset: 0x5934B, size: 0x8, addend: 0x0, symName: __RINvXs3_NtNtCse1nGBsou5OW_5alloc3vec9into_iterINtB6_8IntoIterNtNtCs5AlOhPCr03V_3syn4attr9AttributeENtNtNtNtCsfvfooZQ3Axs_4core4iter6traits8iterator8Iterator8try_foldINtNtB8_13in_place_drop11InPlaceDropBX_ENCINvNtNtB1F_8adapters3map12map_try_foldBX_BX_B2D_INtNtB1H_6result6ResultB2D_zENCINvNtNtB11_3gen4fold16fold_item_macro2NtNtCsdjy9FUDAuhT_18build_script_build11match_token16MatchTokenParserE0NCINvNtB8_16in_place_collect24write_in_place_with_dropBX_E0E0B45_EB5g_, symObjAddr: 0x7DF0, symBinAddr: 0x100017EC0, symSize: 0x1F0 }
  - { offset: 0x5952D, size: 0x8, addend: 0x0, symName: __RINvXs3_NtNtCse1nGBsou5OW_5alloc3vec9into_iterINtB6_8IntoIterNtNtCs5AlOhPCr03V_3syn4attr9AttributeENtNtNtNtCsfvfooZQ3Axs_4core4iter6traits8iterator8Iterator8try_foldINtNtB8_13in_place_drop11InPlaceDropBX_ENCINvNtNtB1F_8adapters3map12map_try_foldBX_BX_B2D_INtNtB1H_6result6ResultB2D_zENCINvNtNtB11_3gen4fold16fold_item_staticNtNtCsdjy9FUDAuhT_18build_script_build11match_token16MatchTokenParserE0NCINvNtB8_16in_place_collect24write_in_place_with_dropBX_E0E0B45_EB5g_, symObjAddr: 0x7FE0, symBinAddr: 0x1000180B0, symSize: 0x1F0 }
  - { offset: 0x5970F, size: 0x8, addend: 0x0, symName: __RINvXs3_NtNtCse1nGBsou5OW_5alloc3vec9into_iterINtB6_8IntoIterNtNtCs5AlOhPCr03V_3syn4attr9AttributeENtNtNtNtCsfvfooZQ3Axs_4core4iter6traits8iterator8Iterator8try_foldINtNtB8_13in_place_drop11InPlaceDropBX_ENCINvNtNtB1F_8adapters3map12map_try_foldBX_BX_B2D_INtNtB1H_6result6ResultB2D_zENCINvNtNtB11_3gen4fold16fold_item_structNtNtCsdjy9FUDAuhT_18build_script_build11match_token16MatchTokenParserE0NCINvNtB8_16in_place_collect24write_in_place_with_dropBX_E0E0B45_EB5g_, symObjAddr: 0x81D0, symBinAddr: 0x1000182A0, symSize: 0x1F0 }
  - { offset: 0x598F1, size: 0x8, addend: 0x0, symName: __RINvXs3_NtNtCse1nGBsou5OW_5alloc3vec9into_iterINtB6_8IntoIterNtNtCs5AlOhPCr03V_3syn4attr9AttributeENtNtNtNtCsfvfooZQ3Axs_4core4iter6traits8iterator8Iterator8try_foldINtNtB8_13in_place_drop11InPlaceDropBX_ENCINvNtNtB1F_8adapters3map12map_try_foldBX_BX_B2D_INtNtB1H_6result6ResultB2D_zENCINvNtNtB11_3gen4fold17fold_expr_closureNtNtCsdjy9FUDAuhT_18build_script_build11match_token16MatchTokenParserE0NCINvNtB8_16in_place_collect24write_in_place_with_dropBX_E0E0B45_EB5h_, symObjAddr: 0x83C0, symBinAddr: 0x100018490, symSize: 0x1F0 }
  - { offset: 0x59AD3, size: 0x8, addend: 0x0, symName: __RINvXs3_NtNtCse1nGBsou5OW_5alloc3vec9into_iterINtB6_8IntoIterNtNtCs5AlOhPCr03V_3syn4attr9AttributeENtNtNtNtCsfvfooZQ3Axs_4core4iter6traits8iterator8Iterator8try_foldINtNtB8_13in_place_drop11InPlaceDropBX_ENCINvNtNtB1F_8adapters3map12map_try_foldBX_BX_B2D_INtNtB1H_6result6ResultB2D_zENCINvNtNtB11_3gen4fold17fold_lifetime_defNtNtCsdjy9FUDAuhT_18build_script_build11match_token16MatchTokenParserE0NCINvNtB8_16in_place_collect24write_in_place_with_dropBX_E0E0B45_EB5h_, symObjAddr: 0x85B0, symBinAddr: 0x100018680, symSize: 0x1F0 }
  - { offset: 0x59CB5, size: 0x8, addend: 0x0, symName: __RINvXs3_NtNtCse1nGBsou5OW_5alloc3vec9into_iterINtB6_8IntoIterNtNtCs5AlOhPCr03V_3syn4attr9AttributeENtNtNtNtCsfvfooZQ3Axs_4core4iter6traits8iterator8Iterator8try_foldINtNtB8_13in_place_drop11InPlaceDropBX_ENCINvNtNtB1F_8adapters3map12map_try_foldBX_BX_B2D_INtNtB1H_6result6ResultB2D_zENCINvNtNtB11_3gen4fold18fold_expr_continueNtNtCsdjy9FUDAuhT_18build_script_build11match_token16MatchTokenParserE0NCINvNtB8_16in_place_collect24write_in_place_with_dropBX_E0E0B45_EB5i_, symObjAddr: 0x87A0, symBinAddr: 0x100018870, symSize: 0x1F0 }
  - { offset: 0x59E97, size: 0x8, addend: 0x0, symName: __RINvXs3_NtNtCse1nGBsou5OW_5alloc3vec9into_iterINtB6_8IntoIterNtNtCs5AlOhPCr03V_3syn4attr9AttributeENtNtNtNtCsfvfooZQ3Axs_4core4iter6traits8iterator8Iterator8try_foldINtNtB8_13in_place_drop11InPlaceDropBX_ENCINvNtNtB1F_8adapters3map12map_try_foldBX_BX_B2D_INtNtB1H_6result6ResultB2D_zENCINvNtNtB11_3gen4fold18fold_expr_for_loopNtNtCsdjy9FUDAuhT_18build_script_build11match_token16MatchTokenParserE0NCINvNtB8_16in_place_collect24write_in_place_with_dropBX_E0E0B45_EB5i_, symObjAddr: 0x8990, symBinAddr: 0x100018A60, symSize: 0x1F0 }
  - { offset: 0x5A079, size: 0x8, addend: 0x0, symName: __RINvXs3_NtNtCse1nGBsou5OW_5alloc3vec9into_iterINtB6_8IntoIterNtNtCs5AlOhPCr03V_3syn4attr9AttributeENtNtNtNtCsfvfooZQ3Axs_4core4iter6traits8iterator8Iterator8try_foldINtNtB8_13in_place_drop11InPlaceDropBX_ENCINvNtNtB1F_8adapters3map12map_try_foldBX_BX_B2D_INtNtB1H_6result6ResultB2D_zENCINvNtNtB11_3gen4fold18fold_pat_referenceNtNtCsdjy9FUDAuhT_18build_script_build11match_token16MatchTokenParserE0NCINvNtB8_16in_place_collect24write_in_place_with_dropBX_E0E0B45_EB5i_, symObjAddr: 0x8B80, symBinAddr: 0x100018C50, symSize: 0x1F0 }
  - { offset: 0x5A25B, size: 0x8, addend: 0x0, symName: __RINvXs3_NtNtCse1nGBsou5OW_5alloc3vec9into_iterINtB6_8IntoIterNtNtCs5AlOhPCr03V_3syn4attr9AttributeENtNtNtNtCsfvfooZQ3Axs_4core4iter6traits8iterator8Iterator8try_foldINtNtB8_13in_place_drop11InPlaceDropBX_ENCINvNtNtB1F_8adapters3map12map_try_foldBX_BX_B2D_INtNtB1H_6result6ResultB2D_zENCINvNtNtB11_3gen4fold19fold_expr_assign_opNtNtCsdjy9FUDAuhT_18build_script_build11match_token16MatchTokenParserE0NCINvNtB8_16in_place_collect24write_in_place_with_dropBX_E0E0B45_EB5j_, symObjAddr: 0x8D70, symBinAddr: 0x100018E40, symSize: 0x1F0 }
  - { offset: 0x5A43D, size: 0x8, addend: 0x0, symName: __RINvXs3_NtNtCse1nGBsou5OW_5alloc3vec9into_iterINtB6_8IntoIterNtNtCs5AlOhPCr03V_3syn4attr9AttributeENtNtNtNtCsfvfooZQ3Axs_4core4iter6traits8iterator8Iterator8try_foldINtNtB8_13in_place_drop11InPlaceDropBX_ENCINvNtNtB1F_8adapters3map12map_try_foldBX_BX_B2D_INtNtB1H_6result6ResultB2D_zENCINvNtNtB11_3gen4fold19fold_expr_referenceNtNtCsdjy9FUDAuhT_18build_script_build11match_token16MatchTokenParserE0NCINvNtB8_16in_place_collect24write_in_place_with_dropBX_E0E0B45_EB5j_, symObjAddr: 0x8F60, symBinAddr: 0x100019030, symSize: 0x1F0 }
  - { offset: 0x5A61F, size: 0x8, addend: 0x0, symName: __RINvXs3_NtNtCse1nGBsou5OW_5alloc3vec9into_iterINtB6_8IntoIterNtNtCs5AlOhPCr03V_3syn4attr9AttributeENtNtNtNtCsfvfooZQ3Axs_4core4iter6traits8iterator8Iterator8try_foldINtNtB8_13in_place_drop11InPlaceDropBX_ENCINvNtNtB1F_8adapters3map12map_try_foldBX_BX_B2D_INtNtB1H_6result6ResultB2D_zENCINvNtNtB11_3gen4fold19fold_expr_try_blockNtNtCsdjy9FUDAuhT_18build_script_build11match_token16MatchTokenParserE0NCINvNtB8_16in_place_collect24write_in_place_with_dropBX_E0E0B45_EB5j_, symObjAddr: 0x9150, symBinAddr: 0x100019220, symSize: 0x1F0 }
  - { offset: 0x5A801, size: 0x8, addend: 0x0, symName: __RINvXs3_NtNtCse1nGBsou5OW_5alloc3vec9into_iterINtB6_8IntoIterNtNtCs5AlOhPCr03V_3syn4attr9AttributeENtNtNtNtCsfvfooZQ3Axs_4core4iter6traits8iterator8Iterator8try_foldINtNtB8_13in_place_drop11InPlaceDropBX_ENCINvNtNtB1F_8adapters3map12map_try_foldBX_BX_B2D_INtNtB1H_6result6ResultB2D_zENCINvNtNtB11_3gen4fold19fold_impl_item_typeNtNtCsdjy9FUDAuhT_18build_script_build11match_token16MatchTokenParserE0NCINvNtB8_16in_place_collect24write_in_place_with_dropBX_E0E0B45_EB5j_, symObjAddr: 0x9340, symBinAddr: 0x100019410, symSize: 0x1F0 }
  - { offset: 0x5A9E3, size: 0x8, addend: 0x0, symName: __RINvXs3_NtNtCse1nGBsou5OW_5alloc3vec9into_iterINtB6_8IntoIterNtNtCs5AlOhPCr03V_3syn4attr9AttributeENtNtNtNtCsfvfooZQ3Axs_4core4iter6traits8iterator8Iterator8try_foldINtNtB8_13in_place_drop11InPlaceDropBX_ENCINvNtNtB1F_8adapters3map12map_try_foldBX_BX_B2D_INtNtB1H_6result6ResultB2D_zENCINvNtNtB11_3gen4fold20fold_foreign_item_fnNtNtCsdjy9FUDAuhT_18build_script_build11match_token16MatchTokenParserE0NCINvNtB8_16in_place_collect24write_in_place_with_dropBX_E0E0B45_EB5k_, symObjAddr: 0x9530, symBinAddr: 0x100019600, symSize: 0x1F0 }
  - { offset: 0x5ABC5, size: 0x8, addend: 0x0, symName: __RINvXs3_NtNtCse1nGBsou5OW_5alloc3vec9into_iterINtB6_8IntoIterNtNtCs5AlOhPCr03V_3syn4attr9AttributeENtNtNtNtCsfvfooZQ3Axs_4core4iter6traits8iterator8Iterator8try_foldINtNtB8_13in_place_drop11InPlaceDropBX_ENCINvNtNtB1F_8adapters3map12map_try_foldBX_BX_B2D_INtNtB1H_6result6ResultB2D_zENCINvNtNtB11_3gen4fold20fold_impl_item_constNtNtCsdjy9FUDAuhT_18build_script_build11match_token16MatchTokenParserE0NCINvNtB8_16in_place_collect24write_in_place_with_dropBX_E0E0B45_EB5k_, symObjAddr: 0x9720, symBinAddr: 0x1000197F0, symSize: 0x1F0 }
  - { offset: 0x5ADA7, size: 0x8, addend: 0x0, symName: __RINvXs3_NtNtCse1nGBsou5OW_5alloc3vec9into_iterINtB6_8IntoIterNtNtCs5AlOhPCr03V_3syn4attr9AttributeENtNtNtNtCsfvfooZQ3Axs_4core4iter6traits8iterator8Iterator8try_foldINtNtB8_13in_place_drop11InPlaceDropBX_ENCINvNtNtB1F_8adapters3map12map_try_foldBX_BX_B2D_INtNtB1H_6result6ResultB2D_zENCINvNtNtB11_3gen4fold20fold_impl_item_macroNtNtCsdjy9FUDAuhT_18build_script_build11match_token16MatchTokenParserE0NCINvNtB8_16in_place_collect24write_in_place_with_dropBX_E0E0B45_EB5k_, symObjAddr: 0x9910, symBinAddr: 0x1000199E0, symSize: 0x1F0 }
  - { offset: 0x5AF89, size: 0x8, addend: 0x0, symName: __RINvXs3_NtNtCse1nGBsou5OW_5alloc3vec9into_iterINtB6_8IntoIterNtNtCs5AlOhPCr03V_3syn4attr9AttributeENtNtNtNtCsfvfooZQ3Axs_4core4iter6traits8iterator8Iterator8try_foldINtNtB8_13in_place_drop11InPlaceDropBX_ENCINvNtNtB1F_8adapters3map12map_try_foldBX_BX_B2D_INtNtB1H_6result6ResultB2D_zENCINvNtNtB11_3gen4fold20fold_trait_item_typeNtNtCsdjy9FUDAuhT_18build_script_build11match_token16MatchTokenParserE0NCINvNtB8_16in_place_collect24write_in_place_with_dropBX_E0E0B45_EB5k_, symObjAddr: 0x9B00, symBinAddr: 0x100019BD0, symSize: 0x1F0 }
  - { offset: 0x5B16B, size: 0x8, addend: 0x0, symName: __RINvXs3_NtNtCse1nGBsou5OW_5alloc3vec9into_iterINtB6_8IntoIterNtNtCs5AlOhPCr03V_3syn4attr9AttributeENtNtNtNtCsfvfooZQ3Axs_4core4iter6traits8iterator8Iterator8try_foldINtNtB8_13in_place_drop11InPlaceDropBX_ENCINvNtNtB1F_8adapters3map12map_try_foldBX_BX_B2D_INtNtB1H_6result6ResultB2D_zENCINvNtNtB11_3gen4fold21fold_expr_method_callNtNtCsdjy9FUDAuhT_18build_script_build11match_token16MatchTokenParserE0NCINvNtB8_16in_place_collect24write_in_place_with_dropBX_E0E0B45_EB5l_, symObjAddr: 0x9CF0, symBinAddr: 0x100019DC0, symSize: 0x1F0 }
  - { offset: 0x5B34D, size: 0x8, addend: 0x0, symName: __RINvXs3_NtNtCse1nGBsou5OW_5alloc3vec9into_iterINtB6_8IntoIterNtNtCs5AlOhPCr03V_3syn4attr9AttributeENtNtNtNtCsfvfooZQ3Axs_4core4iter6traits8iterator8Iterator8try_foldINtNtB8_13in_place_drop11InPlaceDropBX_ENCINvNtNtB1F_8adapters3map12map_try_foldBX_BX_B2D_INtNtB1H_6result6ResultB2D_zENCINvNtNtB11_3gen4fold21fold_impl_item_methodNtNtCsdjy9FUDAuhT_18build_script_build11match_token16MatchTokenParserE0NCINvNtB8_16in_place_collect24write_in_place_with_dropBX_E0E0B45_EB5l_, symObjAddr: 0x9EE0, symBinAddr: 0x100019FB0, symSize: 0x1F0 }
  - { offset: 0x5B52F, size: 0x8, addend: 0x0, symName: __RINvXs3_NtNtCse1nGBsou5OW_5alloc3vec9into_iterINtB6_8IntoIterNtNtCs5AlOhPCr03V_3syn4attr9AttributeENtNtNtNtCsfvfooZQ3Axs_4core4iter6traits8iterator8Iterator8try_foldINtNtB8_13in_place_drop11InPlaceDropBX_ENCINvNtNtB1F_8adapters3map12map_try_foldBX_BX_B2D_INtNtB1H_6result6ResultB2D_zENCINvNtNtB11_3gen4fold21fold_item_foreign_modNtNtCsdjy9FUDAuhT_18build_script_build11match_token16MatchTokenParserE0NCINvNtB8_16in_place_collect24write_in_place_with_dropBX_E0E0B45_EB5l_, symObjAddr: 0xA0D0, symBinAddr: 0x10001A1A0, symSize: 0x1F0 }
  - { offset: 0x5B711, size: 0x8, addend: 0x0, symName: __RINvXs3_NtNtCse1nGBsou5OW_5alloc3vec9into_iterINtB6_8IntoIterNtNtCs5AlOhPCr03V_3syn4attr9AttributeENtNtNtNtCsfvfooZQ3Axs_4core4iter6traits8iterator8Iterator8try_foldINtNtB8_13in_place_drop11InPlaceDropBX_ENCINvNtNtB1F_8adapters3map12map_try_foldBX_BX_B2D_INtNtB1H_6result6ResultB2D_zENCINvNtNtB11_3gen4fold21fold_item_trait_aliasNtNtCsdjy9FUDAuhT_18build_script_build11match_token16MatchTokenParserE0NCINvNtB8_16in_place_collect24write_in_place_with_dropBX_E0E0B45_EB5l_, symObjAddr: 0xA2C0, symBinAddr: 0x10001A390, symSize: 0x1F0 }
  - { offset: 0x5B8F3, size: 0x8, addend: 0x0, symName: __RINvXs3_NtNtCse1nGBsou5OW_5alloc3vec9into_iterINtB6_8IntoIterNtNtCs5AlOhPCr03V_3syn4attr9AttributeENtNtNtNtCsfvfooZQ3Axs_4core4iter6traits8iterator8Iterator8try_foldINtNtB8_13in_place_drop11InPlaceDropBX_ENCINvNtNtB1F_8adapters3map12map_try_foldBX_BX_B2D_INtNtB1H_6result6ResultB2D_zENCINvNtNtB11_3gen4fold21fold_pat_tuple_structNtNtCsdjy9FUDAuhT_18build_script_build11match_token16MatchTokenParserE0NCINvNtB8_16in_place_collect24write_in_place_with_dropBX_E0E0B45_EB5l_, symObjAddr: 0xA4B0, symBinAddr: 0x10001A580, symSize: 0x1F0 }
  - { offset: 0x5BAD5, size: 0x8, addend: 0x0, symName: __RINvXs3_NtNtCse1nGBsou5OW_5alloc3vec9into_iterINtB6_8IntoIterNtNtCs5AlOhPCr03V_3syn4attr9AttributeENtNtNtNtCsfvfooZQ3Axs_4core4iter6traits8iterator8Iterator8try_foldINtNtB8_13in_place_drop11InPlaceDropBX_ENCINvNtNtB1F_8adapters3map12map_try_foldBX_BX_B2D_INtNtB1H_6result6ResultB2D_zENCINvNtNtB11_3gen4fold21fold_trait_item_constNtNtCsdjy9FUDAuhT_18build_script_build11match_token16MatchTokenParserE0NCINvNtB8_16in_place_collect24write_in_place_with_dropBX_E0E0B45_EB5l_, symObjAddr: 0xA6A0, symBinAddr: 0x10001A770, symSize: 0x1F0 }
  - { offset: 0x5BCB7, size: 0x8, addend: 0x0, symName: __RINvXs3_NtNtCse1nGBsou5OW_5alloc3vec9into_iterINtB6_8IntoIterNtNtCs5AlOhPCr03V_3syn4attr9AttributeENtNtNtNtCsfvfooZQ3Axs_4core4iter6traits8iterator8Iterator8try_foldINtNtB8_13in_place_drop11InPlaceDropBX_ENCINvNtNtB1F_8adapters3map12map_try_foldBX_BX_B2D_INtNtB1H_6result6ResultB2D_zENCINvNtNtB11_3gen4fold21fold_trait_item_macroNtNtCsdjy9FUDAuhT_18build_script_build11match_token16MatchTokenParserE0NCINvNtB8_16in_place_collect24write_in_place_with_dropBX_E0E0B45_EB5l_, symObjAddr: 0xA890, symBinAddr: 0x10001A960, symSize: 0x1F0 }
  - { offset: 0x5BE99, size: 0x8, addend: 0x0, symName: __RINvXs3_NtNtCse1nGBsou5OW_5alloc3vec9into_iterINtB6_8IntoIterNtNtCs5AlOhPCr03V_3syn4attr9AttributeENtNtNtNtCsfvfooZQ3Axs_4core4iter6traits8iterator8Iterator8try_foldINtNtB8_13in_place_drop11InPlaceDropBX_ENCINvNtNtB1F_8adapters3map12map_try_foldBX_BX_B2D_INtNtB1H_6result6ResultB2D_zENCINvNtNtB11_3gen4fold22fold_foreign_item_typeNtNtCsdjy9FUDAuhT_18build_script_build11match_token16MatchTokenParserE0NCINvNtB8_16in_place_collect24write_in_place_with_dropBX_E0E0B45_EB5m_, symObjAddr: 0xAA80, symBinAddr: 0x10001AB50, symSize: 0x1F0 }
  - { offset: 0x5C07B, size: 0x8, addend: 0x0, symName: __RINvXs3_NtNtCse1nGBsou5OW_5alloc3vec9into_iterINtB6_8IntoIterNtNtCs5AlOhPCr03V_3syn4attr9AttributeENtNtNtNtCsfvfooZQ3Axs_4core4iter6traits8iterator8Iterator8try_foldINtNtB8_13in_place_drop11InPlaceDropBX_ENCINvNtNtB1F_8adapters3map12map_try_foldBX_BX_B2D_INtNtB1H_6result6ResultB2D_zENCINvNtNtB11_3gen4fold22fold_item_extern_crateNtNtCsdjy9FUDAuhT_18build_script_build11match_token16MatchTokenParserE0NCINvNtB8_16in_place_collect24write_in_place_with_dropBX_E0E0B45_EB5m_, symObjAddr: 0xAC70, symBinAddr: 0x10001AD40, symSize: 0x1F0 }
  - { offset: 0x5C25D, size: 0x8, addend: 0x0, symName: __RINvXs3_NtNtCse1nGBsou5OW_5alloc3vec9into_iterINtB6_8IntoIterNtNtCs5AlOhPCr03V_3syn4attr9AttributeENtNtNtNtCsfvfooZQ3Axs_4core4iter6traits8iterator8Iterator8try_foldINtNtB8_13in_place_drop11InPlaceDropBX_ENCINvNtNtB1F_8adapters3map12map_try_foldBX_BX_B2D_INtNtB1H_6result6ResultB2D_zENCINvNtNtB11_3gen4fold22fold_trait_item_methodNtNtCsdjy9FUDAuhT_18build_script_build11match_token16MatchTokenParserE0NCINvNtB8_16in_place_collect24write_in_place_with_dropBX_E0E0B45_EB5m_, symObjAddr: 0xAE60, symBinAddr: 0x10001AF30, symSize: 0x1F0 }
  - { offset: 0x5C43F, size: 0x8, addend: 0x0, symName: __RINvXs3_NtNtCse1nGBsou5OW_5alloc3vec9into_iterINtB6_8IntoIterNtNtCs5AlOhPCr03V_3syn4attr9AttributeENtNtNtNtCsfvfooZQ3Axs_4core4iter6traits8iterator8Iterator8try_foldINtNtB8_13in_place_drop11InPlaceDropBX_ENCINvNtNtB1F_8adapters3map12map_try_foldBX_BX_B2D_INtNtB1H_6result6ResultB2D_zENCINvNtNtB11_3gen4fold23fold_foreign_item_macroNtNtCsdjy9FUDAuhT_18build_script_build11match_token16MatchTokenParserE0NCINvNtB8_16in_place_collect24write_in_place_with_dropBX_E0E0B45_EB5n_, symObjAddr: 0xB050, symBinAddr: 0x10001B120, symSize: 0x1F0 }
  - { offset: 0x5C621, size: 0x8, addend: 0x0, symName: __RINvXs3_NtNtCse1nGBsou5OW_5alloc3vec9into_iterINtB6_8IntoIterNtNtCs5AlOhPCr03V_3syn4attr9AttributeENtNtNtNtCsfvfooZQ3Axs_4core4iter6traits8iterator8Iterator8try_foldINtNtB8_13in_place_drop11InPlaceDropBX_ENCINvNtNtB1F_8adapters3map12map_try_foldBX_BX_B2D_INtNtB1H_6result6ResultB2D_zENCINvNtNtB11_3gen4fold24fold_foreign_item_staticNtNtCsdjy9FUDAuhT_18build_script_build11match_token16MatchTokenParserE0NCINvNtB8_16in_place_collect24write_in_place_with_dropBX_E0E0B45_EB5o_, symObjAddr: 0xB240, symBinAddr: 0x10001B310, symSize: 0x1F0 }
  - { offset: 0x5C803, size: 0x8, addend: 0x0, symName: __RINvXs3_NtNtCse1nGBsou5OW_5alloc3vec9into_iterINtB6_8IntoIterNtNtCs5AlOhPCr03V_3syn4attr9AttributeENtNtNtNtCsfvfooZQ3Axs_4core4iter6traits8iterator8Iterator8try_foldINtNtB8_13in_place_drop11InPlaceDropBX_ENCINvNtNtB1F_8adapters3map12map_try_foldBX_BX_B2D_INtNtB1H_6result6ResultB2D_zENCINvNtNtB11_3gen4fold8fold_armNtNtCsdjy9FUDAuhT_18build_script_build11match_token16MatchTokenParserE0NCINvNtB8_16in_place_collect24write_in_place_with_dropBX_E0E0B45_EB57_, symObjAddr: 0xB430, symBinAddr: 0x10001B500, symSize: 0x1F0 }
  - { offset: 0x5C9E5, size: 0x8, addend: 0x0, symName: __RINvXs3_NtNtCse1nGBsou5OW_5alloc3vec9into_iterINtB6_8IntoIterNtNtCs5AlOhPCr03V_3syn4attr9AttributeENtNtNtNtCsfvfooZQ3Axs_4core4iter6traits8iterator8Iterator8try_foldINtNtB8_13in_place_drop11InPlaceDropBX_ENCINvNtNtB1F_8adapters3map12map_try_foldBX_BX_B2D_INtNtB1H_6result6ResultB2D_zENCINvNtNtB11_3gen4fold9fold_fileNtNtCsdjy9FUDAuhT_18build_script_build11match_token16MatchTokenParserE0NCINvNtB8_16in_place_collect24write_in_place_with_dropBX_E0E0B45_EB58_, symObjAddr: 0xB620, symBinAddr: 0x10001B6F0, symSize: 0x1F0 }
  - { offset: 0x5CBC7, size: 0x8, addend: 0x0, symName: __RINvXs3_NtNtCse1nGBsou5OW_5alloc3vec9into_iterINtB6_8IntoIterNtNtCs5AlOhPCr03V_3syn4expr3ArmENtNtNtNtCsfvfooZQ3Axs_4core4iter6traits8iterator8Iterator8try_foldINtNtB8_13in_place_drop11InPlaceDropBX_ENCINvNtNtB1z_8adapters3map12map_try_foldBX_BX_B2x_INtNtB1B_6result6ResultB2x_zENCINvNtNtB11_3gen4fold15fold_expr_matchNtNtCsdjy9FUDAuhT_18build_script_build11match_token16MatchTokenParserEs_0NCINvNtB8_16in_place_collect24write_in_place_with_dropBX_E0E0B3Z_EB59_, symObjAddr: 0xB810, symBinAddr: 0x10001B8E0, symSize: 0x1F0 }
  - { offset: 0x5CDA9, size: 0x8, addend: 0x0, symName: __RINvXs3_NtNtCse1nGBsou5OW_5alloc3vec9into_iterINtB6_8IntoIterNtNtCs5AlOhPCr03V_3syn4item11ForeignItemENtNtNtNtCsfvfooZQ3Axs_4core4iter6traits8iterator8Iterator8try_foldINtNtB8_13in_place_drop11InPlaceDropBX_ENCINvNtNtB1I_8adapters3map12map_try_foldBX_BX_B2G_INtNtB1K_6result6ResultB2G_zENCINvNtNtB11_3gen4fold21fold_item_foreign_modNtNtCsdjy9FUDAuhT_18build_script_build11match_token16MatchTokenParserEs_0NCINvNtB8_16in_place_collect24write_in_place_with_dropBX_E0E0B48_EB5o_, symObjAddr: 0xBA00, symBinAddr: 0x10001BAD0, symSize: 0x1F0 }
  - { offset: 0x5CF8B, size: 0x8, addend: 0x0, symName: __RINvXs3_NtNtCse1nGBsou5OW_5alloc3vec9into_iterINtB6_8IntoIterNtNtCs5AlOhPCr03V_3syn4item4ItemENtNtNtNtCsfvfooZQ3Axs_4core4iter6traits8iterator8Iterator8try_foldINtNtB8_13in_place_drop11InPlaceDropBX_ENCINvNtNtB1A_8adapters3map12map_try_foldBX_BX_B2y_INtNtB1C_6result6ResultB2y_zENCINvNtNtB11_3gen4fold9fold_fileNtNtCsdjy9FUDAuhT_18build_script_build11match_token16MatchTokenParserEs_0NCINvNtB8_16in_place_collect24write_in_place_with_dropBX_E0E0B40_EB53_, symObjAddr: 0xBBF0, symBinAddr: 0x10001BCC0, symSize: 0x1F0 }
  - { offset: 0x5D16D, size: 0x8, addend: 0x0, symName: __RINvXs3_NtNtCse1nGBsou5OW_5alloc3vec9into_iterINtB6_8IntoIterNtNtCs5AlOhPCr03V_3syn4item4ItemENtNtNtNtCsfvfooZQ3Axs_4core4iter6traits8iterator8Iterator8try_foldINtNtB8_13in_place_drop11InPlaceDropBX_ENCINvNtNtB1A_8adapters3map12map_try_foldBX_BX_B2y_INtNtB1C_6result6ResultB2y_zENCNCINvNtNtB11_3gen4fold13fold_item_modNtNtCsdjy9FUDAuhT_18build_script_build11match_token16MatchTokenParserEs_00NCINvNtB8_16in_place_collect24write_in_place_with_dropBX_E0E0B40_EB5a_, symObjAddr: 0xBDE0, symBinAddr: 0x10001BEB0, symSize: 0x1F0 }
  - { offset: 0x5D34F, size: 0x8, addend: 0x0, symName: __RINvXs3_NtNtCse1nGBsou5OW_5alloc3vec9into_iterINtB6_8IntoIterNtNtCs5AlOhPCr03V_3syn4item8ImplItemENtNtNtNtCsfvfooZQ3Axs_4core4iter6traits8iterator8Iterator8try_foldINtNtB8_13in_place_drop11InPlaceDropBX_ENCINvNtNtB1E_8adapters3map12map_try_foldBX_BX_B2C_INtNtB1G_6result6ResultB2C_zENCINvNtNtB11_3gen4fold14fold_item_implNtNtCsdjy9FUDAuhT_18build_script_build11match_token16MatchTokenParserEs2_0NCINvNtB8_16in_place_collect24write_in_place_with_dropBX_E0E0B44_EB5d_, symObjAddr: 0xBFD0, symBinAddr: 0x10001C0A0, symSize: 0x1F4 }
  - { offset: 0x5D531, size: 0x8, addend: 0x0, symName: __RINvXs3_NtNtCse1nGBsou5OW_5alloc3vec9into_iterINtB6_8IntoIterNtNtCs5AlOhPCr03V_3syn4item9TraitItemENtNtNtNtCsfvfooZQ3Axs_4core4iter6traits8iterator8Iterator8try_foldINtNtB8_13in_place_drop11InPlaceDropBX_ENCINvNtNtB1F_8adapters3map12map_try_foldBX_BX_B2D_INtNtB1H_6result6ResultB2D_zENCINvNtNtB11_3gen4fold15fold_item_traitNtNtCsdjy9FUDAuhT_18build_script_build11match_token16MatchTokenParserEs3_0NCINvNtB8_16in_place_collect24write_in_place_with_dropBX_E0E0B45_EB5f_, symObjAddr: 0xC1C4, symBinAddr: 0x10001C294, symSize: 0x1F4 }
  - { offset: 0x5D713, size: 0x8, addend: 0x0, symName: __RINvXs3_NtNtCse1nGBsou5OW_5alloc3vec9into_iterINtB6_8IntoIterNtNtCs5AlOhPCr03V_3syn4stmt4StmtENtNtNtNtCsfvfooZQ3Axs_4core4iter6traits8iterator8Iterator8try_foldINtNtB8_13in_place_drop11InPlaceDropBX_ENCINvNtNtB1A_8adapters3map12map_try_foldBX_BX_B2y_INtNtB1C_6result6ResultB2y_zENCINvNtNtB11_3gen4fold10fold_blockNtNtCsdjy9FUDAuhT_18build_script_build11match_token16MatchTokenParserE0NCINvNtB8_16in_place_collect24write_in_place_with_dropBX_E0E0B40_EB55_, symObjAddr: 0xC3B8, symBinAddr: 0x10001C488, symSize: 0x1F0 }
  - { offset: 0x5D8F5, size: 0x8, addend: 0x0, symName: __RNvXs3_NtNtCse1nGBsou5OW_5alloc3vec9into_iterINtB5_8IntoIterNtNtCs5AlOhPCr03V_3syn4expr3ArmENtNtNtNtCsfvfooZQ3Axs_4core4iter6traits8iterator8Iterator9size_hintCsdjy9FUDAuhT_18build_script_build, symObjAddr: 0xE5EC, symBinAddr: 0x10001E6BC, symSize: 0x6C }
  - { offset: 0x5D950, size: 0x8, addend: 0x0, symName: __RNvXs3_NtNtCse1nGBsou5OW_5alloc3vec9into_iterINtB5_8IntoIterNtNtCs5AlOhPCr03V_3syn4item11ForeignItemENtNtNtNtCsfvfooZQ3Axs_4core4iter6traits8iterator8Iterator9size_hintCsdjy9FUDAuhT_18build_script_build, symObjAddr: 0xE658, symBinAddr: 0x10001E728, symSize: 0x6C }
  - { offset: 0x5D9AB, size: 0x8, addend: 0x0, symName: __RNvXs3_NtNtCse1nGBsou5OW_5alloc3vec9into_iterINtB5_8IntoIterNtNtCs5AlOhPCr03V_3syn4item4ItemENtNtNtNtCsfvfooZQ3Axs_4core4iter6traits8iterator8Iterator9size_hintCsdjy9FUDAuhT_18build_script_build, symObjAddr: 0xE6C4, symBinAddr: 0x10001E794, symSize: 0x6C }
  - { offset: 0x5DA06, size: 0x8, addend: 0x0, symName: __RNvXs3_NtNtCse1nGBsou5OW_5alloc3vec9into_iterINtB5_8IntoIterNtNtCs5AlOhPCr03V_3syn4item8ImplItemENtNtNtNtCsfvfooZQ3Axs_4core4iter6traits8iterator8Iterator9size_hintCsdjy9FUDAuhT_18build_script_build, symObjAddr: 0xE730, symBinAddr: 0x10001E800, symSize: 0x6C }
  - { offset: 0x5DA61, size: 0x8, addend: 0x0, symName: __RNvXs3_NtNtCse1nGBsou5OW_5alloc3vec9into_iterINtB5_8IntoIterNtNtCs5AlOhPCr03V_3syn4item9TraitItemENtNtNtNtCsfvfooZQ3Axs_4core4iter6traits8iterator8Iterator9size_hintCsdjy9FUDAuhT_18build_script_build, symObjAddr: 0xE79C, symBinAddr: 0x10001E86C, symSize: 0x6C }
  - { offset: 0x5DABC, size: 0x8, addend: 0x0, symName: __RNvXs3_NtNtCse1nGBsou5OW_5alloc3vec9into_iterINtB5_8IntoIterNtNtCs5AlOhPCr03V_3syn4stmt4StmtENtNtNtNtCsfvfooZQ3Axs_4core4iter6traits8iterator8Iterator9size_hintCsdjy9FUDAuhT_18build_script_build, symObjAddr: 0xE808, symBinAddr: 0x10001E8D8, symSize: 0x6C }
  - { offset: 0x5DB17, size: 0x8, addend: 0x0, symName: __RNvXs3_NtNtCse1nGBsou5OW_5alloc3vec9into_iterINtB5_8IntoIterNtNtCsdjy9FUDAuhT_18build_script_build11match_token13MatchTokenArmENtNtNtNtCsfvfooZQ3Axs_4core4iter6traits8iterator8Iterator4nextB10_, symObjAddr: 0xE874, symBinAddr: 0x10001E944, symSize: 0xE8 }
  - { offset: 0x5DC8B, size: 0x8, addend: 0x0, symName: __RNvXs3_NtNtCse1nGBsou5OW_5alloc3vec9into_iterINtB5_8IntoIterNtNtCsdjy9FUDAuhT_18build_script_build11match_token13MatchTokenArmENtNtNtNtCsfvfooZQ3Axs_4core4iter6traits8iterator8Iterator9size_hintB10_, symObjAddr: 0xE95C, symBinAddr: 0x10001EA2C, symSize: 0x6C }
  - { offset: 0x5DCE6, size: 0x8, addend: 0x0, symName: __RNvXs3_NtNtCse1nGBsou5OW_5alloc3vec9into_iterINtB5_8IntoIterNtNtCsdjy9FUDAuhT_18build_script_build11match_token3TagENtNtNtNtCsfvfooZQ3Axs_4core4iter6traits8iterator8Iterator4nextB10_, symObjAddr: 0xE9C8, symBinAddr: 0x10001EA98, symSize: 0xD0 }
  - { offset: 0x5DE61, size: 0x8, addend: 0x0, symName: __RNvXs3_NtNtCse1nGBsou5OW_5alloc3vec9into_iterINtB5_8IntoIterNtNtCsdjy9FUDAuhT_18build_script_build11match_token3TagENtNtNtNtCsfvfooZQ3Axs_4core4iter6traits8iterator8Iterator9size_hintB10_, symObjAddr: 0xEA98, symBinAddr: 0x10001EB68, symSize: 0x6C }
  - { offset: 0x5DEBC, size: 0x8, addend: 0x0, symName: __RNvXs3_NtNtCse1nGBsou5OW_5alloc3vec9into_iterINtB5_8IntoIterTNtNtCs5AlOhPCr03V_3syn2ty4TypeNtNtB11_5token5CommaEENtNtNtNtCsfvfooZQ3Axs_4core4iter6traits8iterator8Iterator4nextCsdjy9FUDAuhT_18build_script_build, symObjAddr: 0xEB04, symBinAddr: 0x10001EBD4, symSize: 0xE8 }
  - { offset: 0x5E030, size: 0x8, addend: 0x0, symName: __RNvXs3_NtNtCse1nGBsou5OW_5alloc3vec9into_iterINtB5_8IntoIterTNtNtCs5AlOhPCr03V_3syn2ty4TypeNtNtB11_5token5CommaEENtNtNtNtCsfvfooZQ3Axs_4core4iter6traits8iterator8Iterator9size_hintCsdjy9FUDAuhT_18build_script_build, symObjAddr: 0xEBEC, symBinAddr: 0x10001ECBC, symSize: 0x6C }
  - { offset: 0x5E08B, size: 0x8, addend: 0x0, symName: __RNvXs3_NtNtCse1nGBsou5OW_5alloc3vec9into_iterINtB5_8IntoIterTNtNtCs5AlOhPCr03V_3syn2ty9BareFnArgNtNtB11_5token5CommaEENtNtNtNtCsfvfooZQ3Axs_4core4iter6traits8iterator8Iterator4nextCsdjy9FUDAuhT_18build_script_build, symObjAddr: 0xEC58, symBinAddr: 0x10001ED28, symSize: 0xE4 }
  - { offset: 0x5E1FF, size: 0x8, addend: 0x0, symName: __RNvXs3_NtNtCse1nGBsou5OW_5alloc3vec9into_iterINtB5_8IntoIterTNtNtCs5AlOhPCr03V_3syn2ty9BareFnArgNtNtB11_5token5CommaEENtNtNtNtCsfvfooZQ3Axs_4core4iter6traits8iterator8Iterator9size_hintCsdjy9FUDAuhT_18build_script_build, symObjAddr: 0xED3C, symBinAddr: 0x10001EE0C, symSize: 0x6C }
  - { offset: 0x5E25A, size: 0x8, addend: 0x0, symName: __RNvXs3_NtNtCse1nGBsou5OW_5alloc3vec9into_iterINtB5_8IntoIterTNtNtCs5AlOhPCr03V_3syn3pat3PatNtNtB11_5token2OrEENtNtNtNtCsfvfooZQ3Axs_4core4iter6traits8iterator8Iterator4nextCsdjy9FUDAuhT_18build_script_build, symObjAddr: 0xEDA8, symBinAddr: 0x10001EE78, symSize: 0xE8 }
  - { offset: 0x5E3CE, size: 0x8, addend: 0x0, symName: __RNvXs3_NtNtCse1nGBsou5OW_5alloc3vec9into_iterINtB5_8IntoIterTNtNtCs5AlOhPCr03V_3syn3pat3PatNtNtB11_5token2OrEENtNtNtNtCsfvfooZQ3Axs_4core4iter6traits8iterator8Iterator9size_hintCsdjy9FUDAuhT_18build_script_build, symObjAddr: 0xEE90, symBinAddr: 0x10001EF60, symSize: 0x6C }
  - { offset: 0x5E429, size: 0x8, addend: 0x0, symName: __RNvXs3_NtNtCse1nGBsou5OW_5alloc3vec9into_iterINtB5_8IntoIterTNtNtCs5AlOhPCr03V_3syn3pat3PatNtNtB11_5token5CommaEENtNtNtNtCsfvfooZQ3Axs_4core4iter6traits8iterator8Iterator4nextCsdjy9FUDAuhT_18build_script_build, symObjAddr: 0xEEFC, symBinAddr: 0x10001EFCC, symSize: 0xE8 }
  - { offset: 0x5E59D, size: 0x8, addend: 0x0, symName: __RNvXs3_NtNtCse1nGBsou5OW_5alloc3vec9into_iterINtB5_8IntoIterTNtNtCs5AlOhPCr03V_3syn3pat3PatNtNtB11_5token5CommaEENtNtNtNtCsfvfooZQ3Axs_4core4iter6traits8iterator8Iterator9size_hintCsdjy9FUDAuhT_18build_script_build, symObjAddr: 0xEFE4, symBinAddr: 0x10001F0B4, symSize: 0x6C }
  - { offset: 0x5E5F8, size: 0x8, addend: 0x0, symName: __RNvXs3_NtNtCse1nGBsou5OW_5alloc3vec9into_iterINtB5_8IntoIterTNtNtCs5AlOhPCr03V_3syn3pat8FieldPatNtNtB11_5token5CommaEENtNtNtNtCsfvfooZQ3Axs_4core4iter6traits8iterator8Iterator4nextCsdjy9FUDAuhT_18build_script_build, symObjAddr: 0xF050, symBinAddr: 0x10001F120, symSize: 0xDC }
  - { offset: 0x5E76A, size: 0x8, addend: 0x0, symName: __RNvXs3_NtNtCse1nGBsou5OW_5alloc3vec9into_iterINtB5_8IntoIterTNtNtCs5AlOhPCr03V_3syn3pat8FieldPatNtNtB11_5token5CommaEENtNtNtNtCsfvfooZQ3Axs_4core4iter6traits8iterator8Iterator9size_hintCsdjy9FUDAuhT_18build_script_build, symObjAddr: 0xF12C, symBinAddr: 0x10001F1FC, symSize: 0x6C }
  - { offset: 0x5E7C5, size: 0x8, addend: 0x0, symName: __RNvXs3_NtNtCse1nGBsou5OW_5alloc3vec9into_iterINtB5_8IntoIterTNtNtCs5AlOhPCr03V_3syn4data5FieldNtNtB11_5token5CommaEENtNtNtNtCsfvfooZQ3Axs_4core4iter6traits8iterator8Iterator4nextCsdjy9FUDAuhT_18build_script_build, symObjAddr: 0xF198, symBinAddr: 0x10001F268, symSize: 0xE4 }
  - { offset: 0x5E939, size: 0x8, addend: 0x0, symName: __RNvXs3_NtNtCse1nGBsou5OW_5alloc3vec9into_iterINtB5_8IntoIterTNtNtCs5AlOhPCr03V_3syn4data7VariantNtNtB11_5token5CommaEENtNtNtNtCsfvfooZQ3Axs_4core4iter6traits8iterator8Iterator4nextCsdjy9FUDAuhT_18build_script_build, symObjAddr: 0xF27C, symBinAddr: 0x10001F34C, symSize: 0xE4 }
  - { offset: 0x5EAAD, size: 0x8, addend: 0x0, symName: __RNvXs3_NtNtCse1nGBsou5OW_5alloc3vec9into_iterINtB5_8IntoIterTNtNtCs5AlOhPCr03V_3syn4data7VariantNtNtB11_5token5CommaEENtNtNtNtCsfvfooZQ3Axs_4core4iter6traits8iterator8Iterator9size_hintCsdjy9FUDAuhT_18build_script_build, symObjAddr: 0xF360, symBinAddr: 0x10001F430, symSize: 0x6C }
  - { offset: 0x5EB08, size: 0x8, addend: 0x0, symName: __RNvXs3_NtNtCse1nGBsou5OW_5alloc3vec9into_iterINtB5_8IntoIterTNtNtCs5AlOhPCr03V_3syn4expr10FieldValueNtNtB11_5token5CommaEENtNtNtNtCsfvfooZQ3Axs_4core4iter6traits8iterator8Iterator4nextCsdjy9FUDAuhT_18build_script_build, symObjAddr: 0xF3CC, symBinAddr: 0x10001F49C, symSize: 0xE4 }
  - { offset: 0x5EC7C, size: 0x8, addend: 0x0, symName: __RNvXs3_NtNtCse1nGBsou5OW_5alloc3vec9into_iterINtB5_8IntoIterTNtNtCs5AlOhPCr03V_3syn4expr10FieldValueNtNtB11_5token5CommaEENtNtNtNtCsfvfooZQ3Axs_4core4iter6traits8iterator8Iterator9size_hintCsdjy9FUDAuhT_18build_script_build, symObjAddr: 0xF4B0, symBinAddr: 0x10001F580, symSize: 0x6C }
  - { offset: 0x5ECD7, size: 0x8, addend: 0x0, symName: __RNvXs3_NtNtCse1nGBsou5OW_5alloc3vec9into_iterINtB5_8IntoIterTNtNtCs5AlOhPCr03V_3syn4expr21GenericMethodArgumentNtNtB11_5token5CommaEENtNtNtNtCsfvfooZQ3Axs_4core4iter6traits8iterator8Iterator4nextCsdjy9FUDAuhT_18build_script_build, symObjAddr: 0xF51C, symBinAddr: 0x10001F5EC, symSize: 0xE8 }
  - { offset: 0x5EE4B, size: 0x8, addend: 0x0, symName: __RNvXs3_NtNtCse1nGBsou5OW_5alloc3vec9into_iterINtB5_8IntoIterTNtNtCs5AlOhPCr03V_3syn4expr21GenericMethodArgumentNtNtB11_5token5CommaEENtNtNtNtCsfvfooZQ3Axs_4core4iter6traits8iterator8Iterator9size_hintCsdjy9FUDAuhT_18build_script_build, symObjAddr: 0xF604, symBinAddr: 0x10001F6D4, symSize: 0x6C }
  - { offset: 0x5EEA6, size: 0x8, addend: 0x0, symName: __RNvXs3_NtNtCse1nGBsou5OW_5alloc3vec9into_iterINtB5_8IntoIterTNtNtCs5AlOhPCr03V_3syn4expr4ExprNtNtB11_5token5CommaEENtNtNtNtCsfvfooZQ3Axs_4core4iter6traits8iterator8Iterator4nextCsdjy9FUDAuhT_18build_script_build, symObjAddr: 0xF670, symBinAddr: 0x10001F740, symSize: 0xE8 }
  - { offset: 0x5F01A, size: 0x8, addend: 0x0, symName: __RNvXs3_NtNtCse1nGBsou5OW_5alloc3vec9into_iterINtB5_8IntoIterTNtNtCs5AlOhPCr03V_3syn4expr4ExprNtNtB11_5token5CommaEENtNtNtNtCsfvfooZQ3Axs_4core4iter6traits8iterator8Iterator9size_hintCsdjy9FUDAuhT_18build_script_build, symObjAddr: 0xF758, symBinAddr: 0x10001F828, symSize: 0x6C }
  - { offset: 0x5F075, size: 0x8, addend: 0x0, symName: __RNvXs3_NtNtCse1nGBsou5OW_5alloc3vec9into_iterINtB5_8IntoIterTNtNtCs5AlOhPCr03V_3syn4item5FnArgNtNtB11_5token5CommaEENtNtNtNtCsfvfooZQ3Axs_4core4iter6traits8iterator8Iterator4nextCsdjy9FUDAuhT_18build_script_build, symObjAddr: 0xF7C4, symBinAddr: 0x10001F894, symSize: 0xDC }
  - { offset: 0x5F1E7, size: 0x8, addend: 0x0, symName: __RNvXs3_NtNtCse1nGBsou5OW_5alloc3vec9into_iterINtB5_8IntoIterTNtNtCs5AlOhPCr03V_3syn4item5FnArgNtNtB11_5token5CommaEENtNtNtNtCsfvfooZQ3Axs_4core4iter6traits8iterator8Iterator9size_hintCsdjy9FUDAuhT_18build_script_build, symObjAddr: 0xF8A0, symBinAddr: 0x10001F970, symSize: 0x6C }
  - { offset: 0x5F242, size: 0x8, addend: 0x0, symName: __RNvXs3_NtNtCse1nGBsou5OW_5alloc3vec9into_iterINtB5_8IntoIterTNtNtCs5AlOhPCr03V_3syn4item7UseTreeNtNtB11_5token5CommaEENtNtNtNtCsfvfooZQ3Axs_4core4iter6traits8iterator8Iterator4nextCsdjy9FUDAuhT_18build_script_build, symObjAddr: 0xF90C, symBinAddr: 0x10001F9DC, symSize: 0xDC }
  - { offset: 0x5F3B4, size: 0x8, addend: 0x0, symName: __RNvXs3_NtNtCse1nGBsou5OW_5alloc3vec9into_iterINtB5_8IntoIterTNtNtCs5AlOhPCr03V_3syn4item7UseTreeNtNtB11_5token5CommaEENtNtNtNtCsfvfooZQ3Axs_4core4iter6traits8iterator8Iterator9size_hintCsdjy9FUDAuhT_18build_script_build, symObjAddr: 0xF9E8, symBinAddr: 0x10001FAB8, symSize: 0x6C }
  - { offset: 0x5F40F, size: 0x8, addend: 0x0, symName: __RNvXs3_NtNtCse1nGBsou5OW_5alloc3vec9into_iterINtB5_8IntoIterTNtNtCs5AlOhPCr03V_3syn4path15GenericArgumentNtNtB11_5token5CommaEENtNtNtNtCsfvfooZQ3Axs_4core4iter6traits8iterator8Iterator4nextCsdjy9FUDAuhT_18build_script_build, symObjAddr: 0xFA54, symBinAddr: 0x10001FB24, symSize: 0xE8 }
  - { offset: 0x5F583, size: 0x8, addend: 0x0, symName: __RNvXs3_NtNtCse1nGBsou5OW_5alloc3vec9into_iterINtB5_8IntoIterTNtNtCs5AlOhPCr03V_3syn4path15GenericArgumentNtNtB11_5token5CommaEENtNtNtNtCsfvfooZQ3Axs_4core4iter6traits8iterator8Iterator9size_hintCsdjy9FUDAuhT_18build_script_build, symObjAddr: 0xFB3C, symBinAddr: 0x10001FC0C, symSize: 0x6C }
  - { offset: 0x5F5DE, size: 0x8, addend: 0x0, symName: __RNvXs3_NtNtCse1nGBsou5OW_5alloc3vec9into_iterINtB5_8IntoIterTNtNtCs5AlOhPCr03V_3syn8generics11LifetimeDefNtNtB11_5token5CommaEENtNtNtNtCsfvfooZQ3Axs_4core4iter6traits8iterator8Iterator4nextCsdjy9FUDAuhT_18build_script_build, symObjAddr: 0xFBA8, symBinAddr: 0x10001FC78, symSize: 0xE4 }
  - { offset: 0x5F752, size: 0x8, addend: 0x0, symName: __RNvXs3_NtNtCse1nGBsou5OW_5alloc3vec9into_iterINtB5_8IntoIterTNtNtCs5AlOhPCr03V_3syn8generics11LifetimeDefNtNtB11_5token5CommaEENtNtNtNtCsfvfooZQ3Axs_4core4iter6traits8iterator8Iterator9size_hintCsdjy9FUDAuhT_18build_script_build, symObjAddr: 0xFC8C, symBinAddr: 0x10001FD5C, symSize: 0x6C }
  - { offset: 0x5F7AD, size: 0x8, addend: 0x0, symName: __RNvXs3_NtNtCse1nGBsou5OW_5alloc3vec9into_iterINtB5_8IntoIterTNtNtCs5AlOhPCr03V_3syn8generics12GenericParamNtNtB11_5token5CommaEENtNtNtNtCsfvfooZQ3Axs_4core4iter6traits8iterator8Iterator4nextCsdjy9FUDAuhT_18build_script_build, symObjAddr: 0xFCF8, symBinAddr: 0x10001FDC8, symSize: 0xE8 }
  - { offset: 0x5F921, size: 0x8, addend: 0x0, symName: __RNvXs3_NtNtCse1nGBsou5OW_5alloc3vec9into_iterINtB5_8IntoIterTNtNtCs5AlOhPCr03V_3syn8generics12GenericParamNtNtB11_5token5CommaEENtNtNtNtCsfvfooZQ3Axs_4core4iter6traits8iterator8Iterator9size_hintCsdjy9FUDAuhT_18build_script_build, symObjAddr: 0xFDE0, symBinAddr: 0x10001FEB0, symSize: 0x6C }
  - { offset: 0x5F97C, size: 0x8, addend: 0x0, symName: __RNvXs3_NtNtCse1nGBsou5OW_5alloc3vec9into_iterINtB5_8IntoIterTNtNtCs5AlOhPCr03V_3syn8generics14TypeParamBoundNtNtB11_5token3AddEENtNtNtNtCsfvfooZQ3Axs_4core4iter6traits8iterator8Iterator4nextCsdjy9FUDAuhT_18build_script_build, symObjAddr: 0xFE4C, symBinAddr: 0x10001FF1C, symSize: 0xE4 }
  - { offset: 0x5FAF0, size: 0x8, addend: 0x0, symName: __RNvXs3_NtNtCse1nGBsou5OW_5alloc3vec9into_iterINtB5_8IntoIterTNtNtCs5AlOhPCr03V_3syn8generics14WherePredicateNtNtB11_5token5CommaEENtNtNtNtCsfvfooZQ3Axs_4core4iter6traits8iterator8Iterator4nextCsdjy9FUDAuhT_18build_script_build, symObjAddr: 0xFF30, symBinAddr: 0x100020000, symSize: 0xE8 }
  - { offset: 0x5FC64, size: 0x8, addend: 0x0, symName: __RNvXs3_NtNtCse1nGBsou5OW_5alloc3vec9into_iterINtB5_8IntoIterTNtNtCs5AlOhPCr03V_3syn8generics14WherePredicateNtNtB11_5token5CommaEENtNtNtNtCsfvfooZQ3Axs_4core4iter6traits8iterator8Iterator9size_hintCsdjy9FUDAuhT_18build_script_build, symObjAddr: 0x10018, symBinAddr: 0x1000200E8, symSize: 0x6C }
  - { offset: 0x5FCBF, size: 0x8, addend: 0x0, symName: __RNvXs3_NtNtCse1nGBsou5OW_5alloc3vec9into_iterINtB5_8IntoIterTNtNtCs5AlOhPCr03V_3syn8lifetime8LifetimeNtNtB11_5token3AddEENtNtNtNtCsfvfooZQ3Axs_4core4iter6traits8iterator8Iterator4nextCsdjy9FUDAuhT_18build_script_build, symObjAddr: 0x10084, symBinAddr: 0x100020154, symSize: 0xDC }
  - { offset: 0x5FE31, size: 0x8, addend: 0x0, symName: __RNvXs3_NtNtCse1nGBsou5OW_5alloc3vec9into_iterINtB5_8IntoIterTNtNtCs5AlOhPCr03V_3syn8lifetime8LifetimeNtNtB11_5token3AddEENtNtNtNtCsfvfooZQ3Axs_4core4iter6traits8iterator8Iterator9size_hintCsdjy9FUDAuhT_18build_script_build, symObjAddr: 0x10160, symBinAddr: 0x100020230, symSize: 0x6C }
  - { offset: 0x60357, size: 0x8, addend: 0x0, symName: __RNvXNvXsd_NtNtCse1nGBsou5OW_5alloc3vec9into_iterINtB8_8IntoIterppENtNtNtCsfvfooZQ3Axs_4core3ops4drop4Drop4dropINtB2_9DropGuardNtNtCs5AlOhPCr03V_3syn4expr3ArmNtNtBc_5alloc6GlobalEB12_4dropCsdjy9FUDAuhT_18build_script_build, symObjAddr: 0xDA4C, symBinAddr: 0x10001DB1C, symSize: 0x7C }
  - { offset: 0x60464, size: 0x8, addend: 0x0, symName: __RNvXNvXsd_NtNtCse1nGBsou5OW_5alloc3vec9into_iterINtB8_8IntoIterppENtNtNtCsfvfooZQ3Axs_4core3ops4drop4Drop4dropINtB2_9DropGuardNtNtCs5AlOhPCr03V_3syn4item11ForeignItemNtNtBc_5alloc6GlobalEB12_4dropCsdjy9FUDAuhT_18build_script_build, symObjAddr: 0xDAC8, symBinAddr: 0x10001DB98, symSize: 0x7C }
  - { offset: 0x60571, size: 0x8, addend: 0x0, symName: __RNvXNvXsd_NtNtCse1nGBsou5OW_5alloc3vec9into_iterINtB8_8IntoIterppENtNtNtCsfvfooZQ3Axs_4core3ops4drop4Drop4dropINtB2_9DropGuardNtNtCs5AlOhPCr03V_3syn4item4ItemNtNtBc_5alloc6GlobalEB12_4dropCsdjy9FUDAuhT_18build_script_build, symObjAddr: 0xDB44, symBinAddr: 0x10001DC14, symSize: 0x7C }
  - { offset: 0x6067E, size: 0x8, addend: 0x0, symName: __RNvXNvXsd_NtNtCse1nGBsou5OW_5alloc3vec9into_iterINtB8_8IntoIterppENtNtNtCsfvfooZQ3Axs_4core3ops4drop4Drop4dropINtB2_9DropGuardNtNtCs5AlOhPCr03V_3syn4item8ImplItemNtNtBc_5alloc6GlobalEB12_4dropCsdjy9FUDAuhT_18build_script_build, symObjAddr: 0xDBC0, symBinAddr: 0x10001DC90, symSize: 0x7C }
  - { offset: 0x6078B, size: 0x8, addend: 0x0, symName: __RNvXNvXsd_NtNtCse1nGBsou5OW_5alloc3vec9into_iterINtB8_8IntoIterppENtNtNtCsfvfooZQ3Axs_4core3ops4drop4Drop4dropINtB2_9DropGuardNtNtCs5AlOhPCr03V_3syn4item9TraitItemNtNtBc_5alloc6GlobalEB12_4dropCsdjy9FUDAuhT_18build_script_build, symObjAddr: 0xDC3C, symBinAddr: 0x10001DD0C, symSize: 0x7C }
  - { offset: 0x60898, size: 0x8, addend: 0x0, symName: __RNvXNvXsd_NtNtCse1nGBsou5OW_5alloc3vec9into_iterINtB8_8IntoIterppENtNtNtCsfvfooZQ3Axs_4core3ops4drop4Drop4dropINtB2_9DropGuardNtNtCs5AlOhPCr03V_3syn4stmt4StmtNtNtBc_5alloc6GlobalEB12_4dropCsdjy9FUDAuhT_18build_script_build, symObjAddr: 0xDCB8, symBinAddr: 0x10001DD88, symSize: 0x7C }
  - { offset: 0x609A5, size: 0x8, addend: 0x0, symName: __RNvXNvXsd_NtNtCse1nGBsou5OW_5alloc3vec9into_iterINtB8_8IntoIterppENtNtNtCsfvfooZQ3Axs_4core3ops4drop4Drop4dropINtB2_9DropGuardNtNtCsdjy9FUDAuhT_18build_script_build11match_token13MatchTokenArmNtNtBc_5alloc6GlobalEB12_4dropB24_, symObjAddr: 0xDD34, symBinAddr: 0x10001DE04, symSize: 0x7C }
  - { offset: 0x60AB2, size: 0x8, addend: 0x0, symName: __RNvXNvXsd_NtNtCse1nGBsou5OW_5alloc3vec9into_iterINtB8_8IntoIterppENtNtNtCsfvfooZQ3Axs_4core3ops4drop4Drop4dropINtB2_9DropGuardNtNtCsdjy9FUDAuhT_18build_script_build11match_token3TagNtNtBc_5alloc6GlobalEB12_4dropB24_, symObjAddr: 0xDDB0, symBinAddr: 0x10001DE80, symSize: 0x7C }
  - { offset: 0x60BBF, size: 0x8, addend: 0x0, symName: __RNvXNvXsd_NtNtCse1nGBsou5OW_5alloc3vec9into_iterINtB8_8IntoIterppENtNtNtCsfvfooZQ3Axs_4core3ops4drop4Drop4dropINtB2_9DropGuardTNtNtCs5AlOhPCr03V_3syn2ty4TypeNtNtB25_5token5CommaENtNtBc_5alloc6GlobalEB12_4dropCsdjy9FUDAuhT_18build_script_build, symObjAddr: 0xDE2C, symBinAddr: 0x10001DEFC, symSize: 0x7C }
  - { offset: 0x60CCC, size: 0x8, addend: 0x0, symName: __RNvXNvXsd_NtNtCse1nGBsou5OW_5alloc3vec9into_iterINtB8_8IntoIterppENtNtNtCsfvfooZQ3Axs_4core3ops4drop4Drop4dropINtB2_9DropGuardTNtNtCs5AlOhPCr03V_3syn2ty9BareFnArgNtNtB25_5token5CommaENtNtBc_5alloc6GlobalEB12_4dropCsdjy9FUDAuhT_18build_script_build, symObjAddr: 0xDEA8, symBinAddr: 0x10001DF78, symSize: 0x7C }
  - { offset: 0x60DD9, size: 0x8, addend: 0x0, symName: __RNvXNvXsd_NtNtCse1nGBsou5OW_5alloc3vec9into_iterINtB8_8IntoIterppENtNtNtCsfvfooZQ3Axs_4core3ops4drop4Drop4dropINtB2_9DropGuardTNtNtCs5AlOhPCr03V_3syn3pat3PatNtNtB25_5token2OrENtNtBc_5alloc6GlobalEB12_4dropCsdjy9FUDAuhT_18build_script_build, symObjAddr: 0xDF24, symBinAddr: 0x10001DFF4, symSize: 0x7C }
  - { offset: 0x60EE6, size: 0x8, addend: 0x0, symName: __RNvXNvXsd_NtNtCse1nGBsou5OW_5alloc3vec9into_iterINtB8_8IntoIterppENtNtNtCsfvfooZQ3Axs_4core3ops4drop4Drop4dropINtB2_9DropGuardTNtNtCs5AlOhPCr03V_3syn3pat3PatNtNtB25_5token5CommaENtNtBc_5alloc6GlobalEB12_4dropCsdjy9FUDAuhT_18build_script_build, symObjAddr: 0xDFA0, symBinAddr: 0x10001E070, symSize: 0x7C }
  - { offset: 0x60FF3, size: 0x8, addend: 0x0, symName: __RNvXNvXsd_NtNtCse1nGBsou5OW_5alloc3vec9into_iterINtB8_8IntoIterppENtNtNtCsfvfooZQ3Axs_4core3ops4drop4Drop4dropINtB2_9DropGuardTNtNtCs5AlOhPCr03V_3syn3pat8FieldPatNtNtB25_5token5CommaENtNtBc_5alloc6GlobalEB12_4dropCsdjy9FUDAuhT_18build_script_build, symObjAddr: 0xE01C, symBinAddr: 0x10001E0EC, symSize: 0x7C }
  - { offset: 0x61100, size: 0x8, addend: 0x0, symName: __RNvXNvXsd_NtNtCse1nGBsou5OW_5alloc3vec9into_iterINtB8_8IntoIterppENtNtNtCsfvfooZQ3Axs_4core3ops4drop4Drop4dropINtB2_9DropGuardTNtNtCs5AlOhPCr03V_3syn4data7VariantNtNtB25_5token5CommaENtNtBc_5alloc6GlobalEB12_4dropCsdjy9FUDAuhT_18build_script_build, symObjAddr: 0xE098, symBinAddr: 0x10001E168, symSize: 0x7C }
  - { offset: 0x6120D, size: 0x8, addend: 0x0, symName: __RNvXNvXsd_NtNtCse1nGBsou5OW_5alloc3vec9into_iterINtB8_8IntoIterppENtNtNtCsfvfooZQ3Axs_4core3ops4drop4Drop4dropINtB2_9DropGuardTNtNtCs5AlOhPCr03V_3syn4expr10FieldValueNtNtB25_5token5CommaENtNtBc_5alloc6GlobalEB12_4dropCsdjy9FUDAuhT_18build_script_build, symObjAddr: 0xE114, symBinAddr: 0x10001E1E4, symSize: 0x7C }
  - { offset: 0x6131A, size: 0x8, addend: 0x0, symName: __RNvXNvXsd_NtNtCse1nGBsou5OW_5alloc3vec9into_iterINtB8_8IntoIterppENtNtNtCsfvfooZQ3Axs_4core3ops4drop4Drop4dropINtB2_9DropGuardTNtNtCs5AlOhPCr03V_3syn4expr21GenericMethodArgumentNtNtB25_5token5CommaENtNtBc_5alloc6GlobalEB12_4dropCsdjy9FUDAuhT_18build_script_build, symObjAddr: 0xE190, symBinAddr: 0x10001E260, symSize: 0x7C }
  - { offset: 0x61427, size: 0x8, addend: 0x0, symName: __RNvXNvXsd_NtNtCse1nGBsou5OW_5alloc3vec9into_iterINtB8_8IntoIterppENtNtNtCsfvfooZQ3Axs_4core3ops4drop4Drop4dropINtB2_9DropGuardTNtNtCs5AlOhPCr03V_3syn4expr4ExprNtNtB25_5token5CommaENtNtBc_5alloc6GlobalEB12_4dropCsdjy9FUDAuhT_18build_script_build, symObjAddr: 0xE20C, symBinAddr: 0x10001E2DC, symSize: 0x7C }
  - { offset: 0x61534, size: 0x8, addend: 0x0, symName: __RNvXNvXsd_NtNtCse1nGBsou5OW_5alloc3vec9into_iterINtB8_8IntoIterppENtNtNtCsfvfooZQ3Axs_4core3ops4drop4Drop4dropINtB2_9DropGuardTNtNtCs5AlOhPCr03V_3syn4item5FnArgNtNtB25_5token5CommaENtNtBc_5alloc6GlobalEB12_4dropCsdjy9FUDAuhT_18build_script_build, symObjAddr: 0xE288, symBinAddr: 0x10001E358, symSize: 0x7C }
  - { offset: 0x61641, size: 0x8, addend: 0x0, symName: __RNvXNvXsd_NtNtCse1nGBsou5OW_5alloc3vec9into_iterINtB8_8IntoIterppENtNtNtCsfvfooZQ3Axs_4core3ops4drop4Drop4dropINtB2_9DropGuardTNtNtCs5AlOhPCr03V_3syn4item7UseTreeNtNtB25_5token5CommaENtNtBc_5alloc6GlobalEB12_4dropCsdjy9FUDAuhT_18build_script_build, symObjAddr: 0xE304, symBinAddr: 0x10001E3D4, symSize: 0x7C }
  - { offset: 0x6174E, size: 0x8, addend: 0x0, symName: __RNvXNvXsd_NtNtCse1nGBsou5OW_5alloc3vec9into_iterINtB8_8IntoIterppENtNtNtCsfvfooZQ3Axs_4core3ops4drop4Drop4dropINtB2_9DropGuardTNtNtCs5AlOhPCr03V_3syn4path15GenericArgumentNtNtB25_5token5CommaENtNtBc_5alloc6GlobalEB12_4dropCsdjy9FUDAuhT_18build_script_build, symObjAddr: 0xE380, symBinAddr: 0x10001E450, symSize: 0x7C }
  - { offset: 0x6185B, size: 0x8, addend: 0x0, symName: __RNvXNvXsd_NtNtCse1nGBsou5OW_5alloc3vec9into_iterINtB8_8IntoIterppENtNtNtCsfvfooZQ3Axs_4core3ops4drop4Drop4dropINtB2_9DropGuardTNtNtCs5AlOhPCr03V_3syn8generics11LifetimeDefNtNtB25_5token5CommaENtNtBc_5alloc6GlobalEB12_4dropCsdjy9FUDAuhT_18build_script_build, symObjAddr: 0xE3FC, symBinAddr: 0x10001E4CC, symSize: 0x7C }
  - { offset: 0x61968, size: 0x8, addend: 0x0, symName: __RNvXNvXsd_NtNtCse1nGBsou5OW_5alloc3vec9into_iterINtB8_8IntoIterppENtNtNtCsfvfooZQ3Axs_4core3ops4drop4Drop4dropINtB2_9DropGuardTNtNtCs5AlOhPCr03V_3syn8generics12GenericParamNtNtB25_5token5CommaENtNtBc_5alloc6GlobalEB12_4dropCsdjy9FUDAuhT_18build_script_build, symObjAddr: 0xE478, symBinAddr: 0x10001E548, symSize: 0x7C }
  - { offset: 0x61A75, size: 0x8, addend: 0x0, symName: __RNvXNvXsd_NtNtCse1nGBsou5OW_5alloc3vec9into_iterINtB8_8IntoIterppENtNtNtCsfvfooZQ3Axs_4core3ops4drop4Drop4dropINtB2_9DropGuardTNtNtCs5AlOhPCr03V_3syn8generics14WherePredicateNtNtB25_5token5CommaENtNtBc_5alloc6GlobalEB12_4dropCsdjy9FUDAuhT_18build_script_build, symObjAddr: 0xE4F4, symBinAddr: 0x10001E5C4, symSize: 0x7C }
  - { offset: 0x61B82, size: 0x8, addend: 0x0, symName: __RNvXNvXsd_NtNtCse1nGBsou5OW_5alloc3vec9into_iterINtB8_8IntoIterppENtNtNtCsfvfooZQ3Axs_4core3ops4drop4Drop4dropINtB2_9DropGuardTNtNtCs5AlOhPCr03V_3syn8lifetime8LifetimeNtNtB25_5token3AddENtNtBc_5alloc6GlobalEB12_4dropCsdjy9FUDAuhT_18build_script_build, symObjAddr: 0xE570, symBinAddr: 0x10001E640, symSize: 0x7C }
  - { offset: 0x62039, size: 0x8, addend: 0x0, symName: __RNvXsd_NtNtCse1nGBsou5OW_5alloc3vec9into_iterINtB5_8IntoIterNtNtCs5AlOhPCr03V_3syn4expr3ArmENtNtNtCsfvfooZQ3Axs_4core3ops4drop4Drop4dropCsdjy9FUDAuhT_18build_script_build, symObjAddr: 0x101CC, symBinAddr: 0x10002029C, symSize: 0x98 }
  - { offset: 0x620D3, size: 0x8, addend: 0x0, symName: __RNvXsd_NtNtCse1nGBsou5OW_5alloc3vec9into_iterINtB5_8IntoIterNtNtCs5AlOhPCr03V_3syn4item11ForeignItemENtNtNtCsfvfooZQ3Axs_4core3ops4drop4Drop4dropCsdjy9FUDAuhT_18build_script_build, symObjAddr: 0x10264, symBinAddr: 0x100020334, symSize: 0x98 }
  - { offset: 0x6216D, size: 0x8, addend: 0x0, symName: __RNvXsd_NtNtCse1nGBsou5OW_5alloc3vec9into_iterINtB5_8IntoIterNtNtCs5AlOhPCr03V_3syn4item4ItemENtNtNtCsfvfooZQ3Axs_4core3ops4drop4Drop4dropCsdjy9FUDAuhT_18build_script_build, symObjAddr: 0x102FC, symBinAddr: 0x1000203CC, symSize: 0x98 }
  - { offset: 0x62207, size: 0x8, addend: 0x0, symName: __RNvXsd_NtNtCse1nGBsou5OW_5alloc3vec9into_iterINtB5_8IntoIterNtNtCs5AlOhPCr03V_3syn4item8ImplItemENtNtNtCsfvfooZQ3Axs_4core3ops4drop4Drop4dropCsdjy9FUDAuhT_18build_script_build, symObjAddr: 0x10394, symBinAddr: 0x100020464, symSize: 0x98 }
  - { offset: 0x622A1, size: 0x8, addend: 0x0, symName: __RNvXsd_NtNtCse1nGBsou5OW_5alloc3vec9into_iterINtB5_8IntoIterNtNtCs5AlOhPCr03V_3syn4item9TraitItemENtNtNtCsfvfooZQ3Axs_4core3ops4drop4Drop4dropCsdjy9FUDAuhT_18build_script_build, symObjAddr: 0x1042C, symBinAddr: 0x1000204FC, symSize: 0x98 }
  - { offset: 0x6233B, size: 0x8, addend: 0x0, symName: __RNvXsd_NtNtCse1nGBsou5OW_5alloc3vec9into_iterINtB5_8IntoIterNtNtCs5AlOhPCr03V_3syn4stmt4StmtENtNtNtCsfvfooZQ3Axs_4core3ops4drop4Drop4dropCsdjy9FUDAuhT_18build_script_build, symObjAddr: 0x104C4, symBinAddr: 0x100020594, symSize: 0x98 }
  - { offset: 0x623D5, size: 0x8, addend: 0x0, symName: __RNvXsd_NtNtCse1nGBsou5OW_5alloc3vec9into_iterINtB5_8IntoIterNtNtCsdjy9FUDAuhT_18build_script_build11match_token13MatchTokenArmENtNtNtCsfvfooZQ3Axs_4core3ops4drop4Drop4dropB10_, symObjAddr: 0x1055C, symBinAddr: 0x10002062C, symSize: 0x98 }
  - { offset: 0x6246F, size: 0x8, addend: 0x0, symName: __RNvXsd_NtNtCse1nGBsou5OW_5alloc3vec9into_iterINtB5_8IntoIterNtNtCsdjy9FUDAuhT_18build_script_build11match_token3TagENtNtNtCsfvfooZQ3Axs_4core3ops4drop4Drop4dropB10_, symObjAddr: 0x105F4, symBinAddr: 0x1000206C4, symSize: 0x98 }
  - { offset: 0x62509, size: 0x8, addend: 0x0, symName: __RNvXsd_NtNtCse1nGBsou5OW_5alloc3vec9into_iterINtB5_8IntoIterTNtNtCs5AlOhPCr03V_3syn2ty4TypeNtNtB11_5token5CommaEENtNtNtCsfvfooZQ3Axs_4core3ops4drop4Drop4dropCsdjy9FUDAuhT_18build_script_build, symObjAddr: 0x1068C, symBinAddr: 0x10002075C, symSize: 0x98 }
  - { offset: 0x625A3, size: 0x8, addend: 0x0, symName: __RNvXsd_NtNtCse1nGBsou5OW_5alloc3vec9into_iterINtB5_8IntoIterTNtNtCs5AlOhPCr03V_3syn2ty9BareFnArgNtNtB11_5token5CommaEENtNtNtCsfvfooZQ3Axs_4core3ops4drop4Drop4dropCsdjy9FUDAuhT_18build_script_build, symObjAddr: 0x10724, symBinAddr: 0x1000207F4, symSize: 0x98 }
  - { offset: 0x6263D, size: 0x8, addend: 0x0, symName: __RNvXsd_NtNtCse1nGBsou5OW_5alloc3vec9into_iterINtB5_8IntoIterTNtNtCs5AlOhPCr03V_3syn3pat3PatNtNtB11_5token2OrEENtNtNtCsfvfooZQ3Axs_4core3ops4drop4Drop4dropCsdjy9FUDAuhT_18build_script_build, symObjAddr: 0x107BC, symBinAddr: 0x10002088C, symSize: 0x98 }
  - { offset: 0x626D7, size: 0x8, addend: 0x0, symName: __RNvXsd_NtNtCse1nGBsou5OW_5alloc3vec9into_iterINtB5_8IntoIterTNtNtCs5AlOhPCr03V_3syn3pat3PatNtNtB11_5token5CommaEENtNtNtCsfvfooZQ3Axs_4core3ops4drop4Drop4dropCsdjy9FUDAuhT_18build_script_build, symObjAddr: 0x10854, symBinAddr: 0x100020924, symSize: 0x98 }
  - { offset: 0x62771, size: 0x8, addend: 0x0, symName: __RNvXsd_NtNtCse1nGBsou5OW_5alloc3vec9into_iterINtB5_8IntoIterTNtNtCs5AlOhPCr03V_3syn3pat8FieldPatNtNtB11_5token5CommaEENtNtNtCsfvfooZQ3Axs_4core3ops4drop4Drop4dropCsdjy9FUDAuhT_18build_script_build, symObjAddr: 0x108EC, symBinAddr: 0x1000209BC, symSize: 0x98 }
  - { offset: 0x6280B, size: 0x8, addend: 0x0, symName: __RNvXsd_NtNtCse1nGBsou5OW_5alloc3vec9into_iterINtB5_8IntoIterTNtNtCs5AlOhPCr03V_3syn4data7VariantNtNtB11_5token5CommaEENtNtNtCsfvfooZQ3Axs_4core3ops4drop4Drop4dropCsdjy9FUDAuhT_18build_script_build, symObjAddr: 0x10984, symBinAddr: 0x100020A54, symSize: 0x98 }
  - { offset: 0x628A5, size: 0x8, addend: 0x0, symName: __RNvXsd_NtNtCse1nGBsou5OW_5alloc3vec9into_iterINtB5_8IntoIterTNtNtCs5AlOhPCr03V_3syn4expr10FieldValueNtNtB11_5token5CommaEENtNtNtCsfvfooZQ3Axs_4core3ops4drop4Drop4dropCsdjy9FUDAuhT_18build_script_build, symObjAddr: 0x10A1C, symBinAddr: 0x100020AEC, symSize: 0x98 }
  - { offset: 0x6293F, size: 0x8, addend: 0x0, symName: __RNvXsd_NtNtCse1nGBsou5OW_5alloc3vec9into_iterINtB5_8IntoIterTNtNtCs5AlOhPCr03V_3syn4expr21GenericMethodArgumentNtNtB11_5token5CommaEENtNtNtCsfvfooZQ3Axs_4core3ops4drop4Drop4dropCsdjy9FUDAuhT_18build_script_build, symObjAddr: 0x10AB4, symBinAddr: 0x100020B84, symSize: 0x98 }
  - { offset: 0x629D9, size: 0x8, addend: 0x0, symName: __RNvXsd_NtNtCse1nGBsou5OW_5alloc3vec9into_iterINtB5_8IntoIterTNtNtCs5AlOhPCr03V_3syn4expr4ExprNtNtB11_5token5CommaEENtNtNtCsfvfooZQ3Axs_4core3ops4drop4Drop4dropCsdjy9FUDAuhT_18build_script_build, symObjAddr: 0x10B4C, symBinAddr: 0x100020C1C, symSize: 0x98 }
  - { offset: 0x62A73, size: 0x8, addend: 0x0, symName: __RNvXsd_NtNtCse1nGBsou5OW_5alloc3vec9into_iterINtB5_8IntoIterTNtNtCs5AlOhPCr03V_3syn4item5FnArgNtNtB11_5token5CommaEENtNtNtCsfvfooZQ3Axs_4core3ops4drop4Drop4dropCsdjy9FUDAuhT_18build_script_build, symObjAddr: 0x10BE4, symBinAddr: 0x100020CB4, symSize: 0x98 }
  - { offset: 0x62B0D, size: 0x8, addend: 0x0, symName: __RNvXsd_NtNtCse1nGBsou5OW_5alloc3vec9into_iterINtB5_8IntoIterTNtNtCs5AlOhPCr03V_3syn4item7UseTreeNtNtB11_5token5CommaEENtNtNtCsfvfooZQ3Axs_4core3ops4drop4Drop4dropCsdjy9FUDAuhT_18build_script_build, symObjAddr: 0x10C7C, symBinAddr: 0x100020D4C, symSize: 0x98 }
  - { offset: 0x62BA7, size: 0x8, addend: 0x0, symName: __RNvXsd_NtNtCse1nGBsou5OW_5alloc3vec9into_iterINtB5_8IntoIterTNtNtCs5AlOhPCr03V_3syn4path15GenericArgumentNtNtB11_5token5CommaEENtNtNtCsfvfooZQ3Axs_4core3ops4drop4Drop4dropCsdjy9FUDAuhT_18build_script_build, symObjAddr: 0x10D14, symBinAddr: 0x100020DE4, symSize: 0x98 }
  - { offset: 0x62C41, size: 0x8, addend: 0x0, symName: __RNvXsd_NtNtCse1nGBsou5OW_5alloc3vec9into_iterINtB5_8IntoIterTNtNtCs5AlOhPCr03V_3syn8generics11LifetimeDefNtNtB11_5token5CommaEENtNtNtCsfvfooZQ3Axs_4core3ops4drop4Drop4dropCsdjy9FUDAuhT_18build_script_build, symObjAddr: 0x10DAC, symBinAddr: 0x100020E7C, symSize: 0x98 }
  - { offset: 0x62CDB, size: 0x8, addend: 0x0, symName: __RNvXsd_NtNtCse1nGBsou5OW_5alloc3vec9into_iterINtB5_8IntoIterTNtNtCs5AlOhPCr03V_3syn8generics12GenericParamNtNtB11_5token5CommaEENtNtNtCsfvfooZQ3Axs_4core3ops4drop4Drop4dropCsdjy9FUDAuhT_18build_script_build, symObjAddr: 0x10E44, symBinAddr: 0x100020F14, symSize: 0x98 }
  - { offset: 0x62D75, size: 0x8, addend: 0x0, symName: __RNvXsd_NtNtCse1nGBsou5OW_5alloc3vec9into_iterINtB5_8IntoIterTNtNtCs5AlOhPCr03V_3syn8generics14WherePredicateNtNtB11_5token5CommaEENtNtNtCsfvfooZQ3Axs_4core3ops4drop4Drop4dropCsdjy9FUDAuhT_18build_script_build, symObjAddr: 0x10EDC, symBinAddr: 0x100020FAC, symSize: 0x98 }
  - { offset: 0x62E0F, size: 0x8, addend: 0x0, symName: __RNvXsd_NtNtCse1nGBsou5OW_5alloc3vec9into_iterINtB5_8IntoIterTNtNtCs5AlOhPCr03V_3syn8lifetime8LifetimeNtNtB11_5token3AddEENtNtNtCsfvfooZQ3Axs_4core3ops4drop4Drop4dropCsdjy9FUDAuhT_18build_script_build, symObjAddr: 0x10F74, symBinAddr: 0x100021044, symSize: 0x98 }
  - { offset: 0x63863, size: 0x8, addend: 0x0, symName: __RNvXsf_NtNtCse1nGBsou5OW_5alloc3vec9into_iterINtB5_8IntoIterNtNtCs5AlOhPCr03V_3syn4attr9AttributeENtNtNtCsfvfooZQ3Axs_4core4iter8adapters10SourceIter8as_innerCsdjy9FUDAuhT_18build_script_build, symObjAddr: 0x1100C, symBinAddr: 0x1000210DC, symSize: 0x14 }
  - { offset: 0x638A3, size: 0x8, addend: 0x0, symName: __RNvXsf_NtNtCse1nGBsou5OW_5alloc3vec9into_iterINtB5_8IntoIterNtNtCs5AlOhPCr03V_3syn4expr3ArmENtNtNtCsfvfooZQ3Axs_4core4iter8adapters10SourceIter8as_innerCsdjy9FUDAuhT_18build_script_build, symObjAddr: 0x11020, symBinAddr: 0x1000210F0, symSize: 0x14 }
  - { offset: 0x638E3, size: 0x8, addend: 0x0, symName: __RNvXsf_NtNtCse1nGBsou5OW_5alloc3vec9into_iterINtB5_8IntoIterNtNtCs5AlOhPCr03V_3syn4item11ForeignItemENtNtNtCsfvfooZQ3Axs_4core4iter8adapters10SourceIter8as_innerCsdjy9FUDAuhT_18build_script_build, symObjAddr: 0x11034, symBinAddr: 0x100021104, symSize: 0x14 }
  - { offset: 0x63923, size: 0x8, addend: 0x0, symName: __RNvXsf_NtNtCse1nGBsou5OW_5alloc3vec9into_iterINtB5_8IntoIterNtNtCs5AlOhPCr03V_3syn4item4ItemENtNtNtCsfvfooZQ3Axs_4core4iter8adapters10SourceIter8as_innerCsdjy9FUDAuhT_18build_script_build, symObjAddr: 0x11048, symBinAddr: 0x100021118, symSize: 0x14 }
  - { offset: 0x63963, size: 0x8, addend: 0x0, symName: __RNvXsf_NtNtCse1nGBsou5OW_5alloc3vec9into_iterINtB5_8IntoIterNtNtCs5AlOhPCr03V_3syn4item8ImplItemENtNtNtCsfvfooZQ3Axs_4core4iter8adapters10SourceIter8as_innerCsdjy9FUDAuhT_18build_script_build, symObjAddr: 0x1105C, symBinAddr: 0x10002112C, symSize: 0x14 }
  - { offset: 0x639A3, size: 0x8, addend: 0x0, symName: __RNvXsf_NtNtCse1nGBsou5OW_5alloc3vec9into_iterINtB5_8IntoIterNtNtCs5AlOhPCr03V_3syn4item9TraitItemENtNtNtCsfvfooZQ3Axs_4core4iter8adapters10SourceIter8as_innerCsdjy9FUDAuhT_18build_script_build, symObjAddr: 0x11070, symBinAddr: 0x100021140, symSize: 0x14 }
  - { offset: 0x639E3, size: 0x8, addend: 0x0, symName: __RNvXsf_NtNtCse1nGBsou5OW_5alloc3vec9into_iterINtB5_8IntoIterNtNtCs5AlOhPCr03V_3syn4stmt4StmtENtNtNtCsfvfooZQ3Axs_4core4iter8adapters10SourceIter8as_innerCsdjy9FUDAuhT_18build_script_build, symObjAddr: 0x11084, symBinAddr: 0x100021154, symSize: 0x14 }
  - { offset: 0x63A29, size: 0x8, addend: 0x0, symName: __RNvXsg_NtNtCse1nGBsou5OW_5alloc3vec9into_iterINtB5_8IntoIterNtNtCs5AlOhPCr03V_3syn4attr9AttributeENtNtB7_16in_place_collect13AsVecIntoIter12as_into_iterCsdjy9FUDAuhT_18build_script_build, symObjAddr: 0x11098, symBinAddr: 0x100021168, symSize: 0x14 }
  - { offset: 0x63A60, size: 0x8, addend: 0x0, symName: __RNvXsg_NtNtCse1nGBsou5OW_5alloc3vec9into_iterINtB5_8IntoIterNtNtCs5AlOhPCr03V_3syn4expr3ArmENtNtB7_16in_place_collect13AsVecIntoIter12as_into_iterCsdjy9FUDAuhT_18build_script_build, symObjAddr: 0x110AC, symBinAddr: 0x10002117C, symSize: 0x14 }
  - { offset: 0x63A97, size: 0x8, addend: 0x0, symName: __RNvXsg_NtNtCse1nGBsou5OW_5alloc3vec9into_iterINtB5_8IntoIterNtNtCs5AlOhPCr03V_3syn4item11ForeignItemENtNtB7_16in_place_collect13AsVecIntoIter12as_into_iterCsdjy9FUDAuhT_18build_script_build, symObjAddr: 0x110C0, symBinAddr: 0x100021190, symSize: 0x14 }
  - { offset: 0x63ACE, size: 0x8, addend: 0x0, symName: __RNvXsg_NtNtCse1nGBsou5OW_5alloc3vec9into_iterINtB5_8IntoIterNtNtCs5AlOhPCr03V_3syn4item4ItemENtNtB7_16in_place_collect13AsVecIntoIter12as_into_iterCsdjy9FUDAuhT_18build_script_build, symObjAddr: 0x110D4, symBinAddr: 0x1000211A4, symSize: 0x14 }
  - { offset: 0x63B05, size: 0x8, addend: 0x0, symName: __RNvXsg_NtNtCse1nGBsou5OW_5alloc3vec9into_iterINtB5_8IntoIterNtNtCs5AlOhPCr03V_3syn4item8ImplItemENtNtB7_16in_place_collect13AsVecIntoIter12as_into_iterCsdjy9FUDAuhT_18build_script_build, symObjAddr: 0x110E8, symBinAddr: 0x1000211B8, symSize: 0x14 }
  - { offset: 0x63B3C, size: 0x8, addend: 0x0, symName: __RNvXsg_NtNtCse1nGBsou5OW_5alloc3vec9into_iterINtB5_8IntoIterNtNtCs5AlOhPCr03V_3syn4item9TraitItemENtNtB7_16in_place_collect13AsVecIntoIter12as_into_iterCsdjy9FUDAuhT_18build_script_build, symObjAddr: 0x110FC, symBinAddr: 0x1000211CC, symSize: 0x14 }
  - { offset: 0x63B73, size: 0x8, addend: 0x0, symName: __RNvXsg_NtNtCse1nGBsou5OW_5alloc3vec9into_iterINtB5_8IntoIterNtNtCs5AlOhPCr03V_3syn4stmt4StmtENtNtB7_16in_place_collect13AsVecIntoIter12as_into_iterCsdjy9FUDAuhT_18build_script_build, symObjAddr: 0x11110, symBinAddr: 0x1000211E0, symSize: 0x14 }
  - { offset: 0x6892A, size: 0x8, addend: 0x0, symName: __RNvMs_NtNtCse1nGBsou5OW_5alloc3vec9into_iterINtB4_8IntoIterNtNtCs5AlOhPCr03V_3syn4attr9AttributeE32forget_allocation_drop_remainingCsdjy9FUDAuhT_18build_script_build, symObjAddr: 0xD598, symBinAddr: 0x10001D668, symSize: 0xAC }
  - { offset: 0x68B5D, size: 0x8, addend: 0x0, symName: __RNvMs_NtNtCse1nGBsou5OW_5alloc3vec9into_iterINtB4_8IntoIterNtNtCs5AlOhPCr03V_3syn4expr3ArmE32forget_allocation_drop_remainingCsdjy9FUDAuhT_18build_script_build, symObjAddr: 0xD644, symBinAddr: 0x10001D714, symSize: 0xAC }
  - { offset: 0x68D90, size: 0x8, addend: 0x0, symName: __RNvMs_NtNtCse1nGBsou5OW_5alloc3vec9into_iterINtB4_8IntoIterNtNtCs5AlOhPCr03V_3syn4item11ForeignItemE32forget_allocation_drop_remainingCsdjy9FUDAuhT_18build_script_build, symObjAddr: 0xD6F0, symBinAddr: 0x10001D7C0, symSize: 0xAC }
  - { offset: 0x68FC3, size: 0x8, addend: 0x0, symName: __RNvMs_NtNtCse1nGBsou5OW_5alloc3vec9into_iterINtB4_8IntoIterNtNtCs5AlOhPCr03V_3syn4item4ItemE32forget_allocation_drop_remainingCsdjy9FUDAuhT_18build_script_build, symObjAddr: 0xD79C, symBinAddr: 0x10001D86C, symSize: 0xAC }
  - { offset: 0x691F6, size: 0x8, addend: 0x0, symName: __RNvMs_NtNtCse1nGBsou5OW_5alloc3vec9into_iterINtB4_8IntoIterNtNtCs5AlOhPCr03V_3syn4item8ImplItemE32forget_allocation_drop_remainingCsdjy9FUDAuhT_18build_script_build, symObjAddr: 0xD848, symBinAddr: 0x10001D918, symSize: 0xAC }
  - { offset: 0x69429, size: 0x8, addend: 0x0, symName: __RNvMs_NtNtCse1nGBsou5OW_5alloc3vec9into_iterINtB4_8IntoIterNtNtCs5AlOhPCr03V_3syn4item9TraitItemE32forget_allocation_drop_remainingCsdjy9FUDAuhT_18build_script_build, symObjAddr: 0xD8F4, symBinAddr: 0x10001D9C4, symSize: 0xAC }
  - { offset: 0x6965C, size: 0x8, addend: 0x0, symName: __RNvMs_NtNtCse1nGBsou5OW_5alloc3vec9into_iterINtB4_8IntoIterNtNtCs5AlOhPCr03V_3syn4stmt4StmtE32forget_allocation_drop_remainingCsdjy9FUDAuhT_18build_script_build, symObjAddr: 0xD9A0, symBinAddr: 0x10001DA70, symSize: 0xAC }
  - { offset: 0x6C291, size: 0x8, addend: 0x0, symName: __RINvXs0_NtNtNtCsfvfooZQ3Axs_4core4iter8adapters3mapINtB6_3MapINtNtNtBc_5slice4iter4IterhENCNvNtCse1nGBsou5OW_5alloc3str13replace_ascii0ENtNtNtBa_6traits8iterator8Iterator4folduNCINvNvB2a_8for_each4callhNCINvMsi_NtB1v_3vecINtB3n_3VechE14extend_trustedBN_E0E0ECsdjy9FUDAuhT_18build_script_build, symObjAddr: 0x0, symBinAddr: 0x1000228D4, symSize: 0x58 }
  - { offset: 0x6CBCA, size: 0x8, addend: 0x0, symName: __RNCINvNtNtNtCsfvfooZQ3Axs_4core4iter8adapters3map8map_foldRhhuNCNvNtCse1nGBsou5OW_5alloc3str13replace_ascii0NCINvNvNtNtNtB8_6traits8iterator8Iterator8for_each4callhNCINvMsi_NtB14_3vecINtB2L_3VechE14extend_trustedINtB4_3MapINtNtNtBa_5slice4iter4IterhEBY_EE0E0E0Csdjy9FUDAuhT_18build_script_build, symObjAddr: 0xA6E0, symBinAddr: 0x10002CFB4, symSize: 0x7C }
  - { offset: 0x6CC55, size: 0x8, addend: 0x0, symName: __RINvXs0_NtNtNtCsfvfooZQ3Axs_4core4iter8adapters3mapINtB6_3MapINtNtNtBc_5slice4iter4IterhENCNvNtCse1nGBsou5OW_5alloc3str13replace_ascii0ENtNtNtBa_6traits8iterator8Iterator4folduNCINvNvB2a_8for_each4callhNCINvMsi_NtB1v_3vecINtB3n_3VechE14extend_trustedBN_E0E0ECsdjy9FUDAuhT_18build_script_build, symObjAddr: 0x0, symBinAddr: 0x1000228D4, symSize: 0x58 }
  - { offset: 0x6CCEE, size: 0x8, addend: 0x0, symName: __RINvXs0_NtNtNtCsfvfooZQ3Axs_4core4iter8adapters3mapINtB6_3MapINtNtNtCse1nGBsou5OW_5alloc3vec9into_iter8IntoIterNtNtCs5AlOhPCr03V_3syn4attr9AttributeENCINvNtNtB1P_3gen4fold10fold_fieldNtNtCsdjy9FUDAuhT_18build_script_build11match_token16MatchTokenParserE0ENtNtNtBa_6traits8iterator8Iterator8try_foldINtNtB12_13in_place_drop11InPlaceDropB1L_ENCINvNtB12_16in_place_collect24write_in_place_with_dropB1L_E0INtNtBc_6result6ResultB4M_zEEB2Z_, symObjAddr: 0x58, symBinAddr: 0x10002292C, symSize: 0x4C }
  - { offset: 0x6CD6C, size: 0x8, addend: 0x0, symName: __RINvXs0_NtNtNtCsfvfooZQ3Axs_4core4iter8adapters3mapINtB6_3MapINtNtNtCse1nGBsou5OW_5alloc3vec9into_iter8IntoIterNtNtCs5AlOhPCr03V_3syn4attr9AttributeENCINvNtNtB1P_3gen4fold10fold_localNtNtCsdjy9FUDAuhT_18build_script_build11match_token16MatchTokenParserE0ENtNtNtBa_6traits8iterator8Iterator8try_foldINtNtB12_13in_place_drop11InPlaceDropB1L_ENCINvNtB12_16in_place_collect24write_in_place_with_dropB1L_E0INtNtBc_6result6ResultB4M_zEEB2Z_, symObjAddr: 0xA4, symBinAddr: 0x100022978, symSize: 0x4C }
  - { offset: 0x6CDEA, size: 0x8, addend: 0x0, symName: __RINvXs0_NtNtNtCsfvfooZQ3Axs_4core4iter8adapters3mapINtB6_3MapINtNtNtCse1nGBsou5OW_5alloc3vec9into_iter8IntoIterNtNtCs5AlOhPCr03V_3syn4attr9AttributeENCINvNtNtB1P_3gen4fold11fold_pat_orNtNtCsdjy9FUDAuhT_18build_script_build11match_token16MatchTokenParserE0ENtNtNtBa_6traits8iterator8Iterator8try_foldINtNtB12_13in_place_drop11InPlaceDropB1L_ENCINvNtB12_16in_place_collect24write_in_place_with_dropB1L_E0INtNtBc_6result6ResultB4N_zEEB30_, symObjAddr: 0xF0, symBinAddr: 0x1000229C4, symSize: 0x4C }
  - { offset: 0x6CE68, size: 0x8, addend: 0x0, symName: __RINvXs0_NtNtNtCsfvfooZQ3Axs_4core4iter8adapters3mapINtB6_3MapINtNtNtCse1nGBsou5OW_5alloc3vec9into_iter8IntoIterNtNtCs5AlOhPCr03V_3syn4attr9AttributeENCINvNtNtB1P_3gen4fold12fold_expr_ifNtNtCsdjy9FUDAuhT_18build_script_build11match_token16MatchTokenParserE0ENtNtNtBa_6traits8iterator8Iterator8try_foldINtNtB12_13in_place_drop11InPlaceDropB1L_ENCINvNtB12_16in_place_collect24write_in_place_with_dropB1L_E0INtNtBc_6result6ResultB4O_zEEB31_, symObjAddr: 0x13C, symBinAddr: 0x100022A10, symSize: 0x4C }
  - { offset: 0x6CEE6, size: 0x8, addend: 0x0, symName: __RINvXs0_NtNtNtCsfvfooZQ3Axs_4core4iter8adapters3mapINtB6_3MapINtNtNtCse1nGBsou5OW_5alloc3vec9into_iter8IntoIterNtNtCs5AlOhPCr03V_3syn4attr9AttributeENCINvNtNtB1P_3gen4fold12fold_item_fnNtNtCsdjy9FUDAuhT_18build_script_build11match_token16MatchTokenParserE0ENtNtNtBa_6traits8iterator8Iterator8try_foldINtNtB12_13in_place_drop11InPlaceDropB1L_ENCINvNtB12_16in_place_collect24write_in_place_with_dropB1L_E0INtNtBc_6result6ResultB4O_zEEB31_, symObjAddr: 0x188, symBinAddr: 0x100022A5C, symSize: 0x4C }
  - { offset: 0x6CF64, size: 0x8, addend: 0x0, symName: __RINvXs0_NtNtNtCsfvfooZQ3Axs_4core4iter8adapters3mapINtB6_3MapINtNtNtCse1nGBsou5OW_5alloc3vec9into_iter8IntoIterNtNtCs5AlOhPCr03V_3syn4attr9AttributeENCINvNtNtB1P_3gen4fold12fold_pat_boxNtNtCsdjy9FUDAuhT_18build_script_build11match_token16MatchTokenParserE0ENtNtNtBa_6traits8iterator8Iterator8try_foldINtNtB12_13in_place_drop11InPlaceDropB1L_ENCINvNtB12_16in_place_collect24write_in_place_with_dropB1L_E0INtNtBc_6result6ResultB4O_zEEB31_, symObjAddr: 0x1D4, symBinAddr: 0x100022AA8, symSize: 0x4C }
  - { offset: 0x6CFE2, size: 0x8, addend: 0x0, symName: __RINvXs0_NtNtNtCsfvfooZQ3Axs_4core4iter8adapters3mapINtB6_3MapINtNtNtCse1nGBsou5OW_5alloc3vec9into_iter8IntoIterNtNtCs5AlOhPCr03V_3syn4attr9AttributeENCINvNtNtB1P_3gen4fold12fold_pat_litNtNtCsdjy9FUDAuhT_18build_script_build11match_token16MatchTokenParserE0ENtNtNtBa_6traits8iterator8Iterator8try_foldINtNtB12_13in_place_drop11InPlaceDropB1L_ENCINvNtB12_16in_place_collect24write_in_place_with_dropB1L_E0INtNtBc_6result6ResultB4O_zEEB31_, symObjAddr: 0x220, symBinAddr: 0x100022AF4, symSize: 0x4C }
  - { offset: 0x6D060, size: 0x8, addend: 0x0, symName: __RINvXs0_NtNtNtCsfvfooZQ3Axs_4core4iter8adapters3mapINtB6_3MapINtNtNtCse1nGBsou5OW_5alloc3vec9into_iter8IntoIterNtNtCs5AlOhPCr03V_3syn4attr9AttributeENCINvNtNtB1P_3gen4fold12fold_variantNtNtCsdjy9FUDAuhT_18build_script_build11match_token16MatchTokenParserE0ENtNtNtBa_6traits8iterator8Iterator8try_foldINtNtB12_13in_place_drop11InPlaceDropB1L_ENCINvNtB12_16in_place_collect24write_in_place_with_dropB1L_E0INtNtBc_6result6ResultB4O_zEEB31_, symObjAddr: 0x26C, symBinAddr: 0x100022B40, symSize: 0x4C }
  - { offset: 0x6D0DE, size: 0x8, addend: 0x0, symName: __RINvXs0_NtNtNtCsfvfooZQ3Axs_4core4iter8adapters3mapINtB6_3MapINtNtNtCse1nGBsou5OW_5alloc3vec9into_iter8IntoIterNtNtCs5AlOhPCr03V_3syn4attr9AttributeENCINvNtNtB1P_3gen4fold13fold_expr_boxNtNtCsdjy9FUDAuhT_18build_script_build11match_token16MatchTokenParserE0ENtNtNtBa_6traits8iterator8Iterator8try_foldINtNtB12_13in_place_drop11InPlaceDropB1L_ENCINvNtB12_16in_place_collect24write_in_place_with_dropB1L_E0INtNtBc_6result6ResultB4P_zEEB32_, symObjAddr: 0x2B8, symBinAddr: 0x100022B8C, symSize: 0x4C }
  - { offset: 0x6D15C, size: 0x8, addend: 0x0, symName: __RINvXs0_NtNtNtCsfvfooZQ3Axs_4core4iter8adapters3mapINtB6_3MapINtNtNtCse1nGBsou5OW_5alloc3vec9into_iter8IntoIterNtNtCs5AlOhPCr03V_3syn4attr9AttributeENCINvNtNtB1P_3gen4fold13fold_expr_letNtNtCsdjy9FUDAuhT_18build_script_build11match_token16MatchTokenParserE0ENtNtNtBa_6traits8iterator8Iterator8try_foldINtNtB12_13in_place_drop11InPlaceDropB1L_ENCINvNtB12_16in_place_collect24write_in_place_with_dropB1L_E0INtNtBc_6result6ResultB4P_zEEB32_, symObjAddr: 0x304, symBinAddr: 0x100022BD8, symSize: 0x4C }
  - { offset: 0x6D1DA, size: 0x8, addend: 0x0, symName: __RINvXs0_NtNtNtCsfvfooZQ3Axs_4core4iter8adapters3mapINtB6_3MapINtNtNtCse1nGBsou5OW_5alloc3vec9into_iter8IntoIterNtNtCs5AlOhPCr03V_3syn4attr9AttributeENCINvNtNtB1P_3gen4fold13fold_expr_litNtNtCsdjy9FUDAuhT_18build_script_build11match_token16MatchTokenParserE0ENtNtNtBa_6traits8iterator8Iterator8try_foldINtNtB12_13in_place_drop11InPlaceDropB1L_ENCINvNtB12_16in_place_collect24write_in_place_with_dropB1L_E0INtNtBc_6result6ResultB4P_zEEB32_, symObjAddr: 0x350, symBinAddr: 0x100022C24, symSize: 0x4C }
  - { offset: 0x6D258, size: 0x8, addend: 0x0, symName: __RINvXs0_NtNtNtCsfvfooZQ3Axs_4core4iter8adapters3mapINtB6_3MapINtNtNtCse1nGBsou5OW_5alloc3vec9into_iter8IntoIterNtNtCs5AlOhPCr03V_3syn4attr9AttributeENCINvNtNtB1P_3gen4fold13fold_expr_tryNtNtCsdjy9FUDAuhT_18build_script_build11match_token16MatchTokenParserE0ENtNtNtBa_6traits8iterator8Iterator8try_foldINtNtB12_13in_place_drop11InPlaceDropB1L_ENCINvNtB12_16in_place_collect24write_in_place_with_dropB1L_E0INtNtBc_6result6ResultB4P_zEEB32_, symObjAddr: 0x39C, symBinAddr: 0x100022C70, symSize: 0x4C }
  - { offset: 0x6D2D6, size: 0x8, addend: 0x0, symName: __RINvXs0_NtNtNtCsfvfooZQ3Axs_4core4iter8adapters3mapINtB6_3MapINtNtNtCse1nGBsou5OW_5alloc3vec9into_iter8IntoIterNtNtCs5AlOhPCr03V_3syn4attr9AttributeENCINvNtNtB1P_3gen4fold13fold_item_modNtNtCsdjy9FUDAuhT_18build_script_build11match_token16MatchTokenParserE0ENtNtNtBa_6traits8iterator8Iterator8try_foldINtNtB12_13in_place_drop11InPlaceDropB1L_ENCINvNtB12_16in_place_collect24write_in_place_with_dropB1L_E0INtNtBc_6result6ResultB4P_zEEB32_, symObjAddr: 0x3E8, symBinAddr: 0x100022CBC, symSize: 0x4C }
  - { offset: 0x6D354, size: 0x8, addend: 0x0, symName: __RINvXs0_NtNtNtCsfvfooZQ3Axs_4core4iter8adapters3mapINtB6_3MapINtNtNtCse1nGBsou5OW_5alloc3vec9into_iter8IntoIterNtNtCs5AlOhPCr03V_3syn4attr9AttributeENCINvNtNtB1P_3gen4fold13fold_item_useNtNtCsdjy9FUDAuhT_18build_script_build11match_token16MatchTokenParserE0ENtNtNtBa_6traits8iterator8Iterator8try_foldINtNtB12_13in_place_drop11InPlaceDropB1L_ENCINvNtB12_16in_place_collect24write_in_place_with_dropB1L_E0INtNtBc_6result6ResultB4P_zEEB32_, symObjAddr: 0x434, symBinAddr: 0x100022D08, symSize: 0x4C }
  - { offset: 0x6D3D2, size: 0x8, addend: 0x0, symName: __RINvXs0_NtNtNtCsfvfooZQ3Axs_4core4iter8adapters3mapINtB6_3MapINtNtNtCse1nGBsou5OW_5alloc3vec9into_iter8IntoIterNtNtCs5AlOhPCr03V_3syn4attr9AttributeENCINvNtNtB1P_3gen4fold13fold_pat_pathNtNtCsdjy9FUDAuhT_18build_script_build11match_token16MatchTokenParserE0ENtNtNtBa_6traits8iterator8Iterator8try_foldINtNtB12_13in_place_drop11InPlaceDropB1L_ENCINvNtB12_16in_place_collect24write_in_place_with_dropB1L_E0INtNtBc_6result6ResultB4P_zEEB32_, symObjAddr: 0x480, symBinAddr: 0x100022D54, symSize: 0x4C }
  - { offset: 0x6D450, size: 0x8, addend: 0x0, symName: __RINvXs0_NtNtNtCsfvfooZQ3Axs_4core4iter8adapters3mapINtB6_3MapINtNtNtCse1nGBsou5OW_5alloc3vec9into_iter8IntoIterNtNtCs5AlOhPCr03V_3syn4attr9AttributeENCINvNtNtB1P_3gen4fold13fold_pat_restNtNtCsdjy9FUDAuhT_18build_script_build11match_token16MatchTokenParserE0ENtNtNtBa_6traits8iterator8Iterator8try_foldINtNtB12_13in_place_drop11InPlaceDropB1L_ENCINvNtB12_16in_place_collect24write_in_place_with_dropB1L_E0INtNtBc_6result6ResultB4P_zEEB32_, symObjAddr: 0x4CC, symBinAddr: 0x100022DA0, symSize: 0x4C }
  - { offset: 0x6D4CE, size: 0x8, addend: 0x0, symName: __RINvXs0_NtNtNtCsfvfooZQ3Axs_4core4iter8adapters3mapINtB6_3MapINtNtNtCse1nGBsou5OW_5alloc3vec9into_iter8IntoIterNtNtCs5AlOhPCr03V_3syn4attr9AttributeENCINvNtNtB1P_3gen4fold13fold_pat_typeNtNtCsdjy9FUDAuhT_18build_script_build11match_token16MatchTokenParserE0ENtNtNtBa_6traits8iterator8Iterator8try_foldINtNtB12_13in_place_drop11InPlaceDropB1L_ENCINvNtB12_16in_place_collect24write_in_place_with_dropB1L_E0INtNtBc_6result6ResultB4P_zEEB32_, symObjAddr: 0x518, symBinAddr: 0x100022DEC, symSize: 0x4C }
  - { offset: 0x6D54C, size: 0x8, addend: 0x0, symName: __RINvXs0_NtNtNtCsfvfooZQ3Axs_4core4iter8adapters3mapINtB6_3MapINtNtNtCse1nGBsou5OW_5alloc3vec9into_iter8IntoIterNtNtCs5AlOhPCr03V_3syn4attr9AttributeENCINvNtNtB1P_3gen4fold13fold_pat_wildNtNtCsdjy9FUDAuhT_18build_script_build11match_token16MatchTokenParserE0ENtNtNtBa_6traits8iterator8Iterator8try_foldINtNtB12_13in_place_drop11InPlaceDropB1L_ENCINvNtB12_16in_place_collect24write_in_place_with_dropB1L_E0INtNtBc_6result6ResultB4P_zEEB32_, symObjAddr: 0x564, symBinAddr: 0x100022E38, symSize: 0x4C }
  - { offset: 0x6D5CA, size: 0x8, addend: 0x0, symName: __RINvXs0_NtNtNtCsfvfooZQ3Axs_4core4iter8adapters3mapINtB6_3MapINtNtNtCse1nGBsou5OW_5alloc3vec9into_iter8IntoIterNtNtCs5AlOhPCr03V_3syn4attr9AttributeENCINvNtNtB1P_3gen4fold13fold_receiverNtNtCsdjy9FUDAuhT_18build_script_build11match_token16MatchTokenParserE0ENtNtNtBa_6traits8iterator8Iterator8try_foldINtNtB12_13in_place_drop11InPlaceDropB1L_ENCINvNtB12_16in_place_collect24write_in_place_with_dropB1L_E0INtNtBc_6result6ResultB4P_zEEB32_, symObjAddr: 0x5B0, symBinAddr: 0x100022E84, symSize: 0x4C }
  - { offset: 0x6D648, size: 0x8, addend: 0x0, symName: __RINvXs0_NtNtNtCsfvfooZQ3Axs_4core4iter8adapters3mapINtB6_3MapINtNtNtCse1nGBsou5OW_5alloc3vec9into_iter8IntoIterNtNtCs5AlOhPCr03V_3syn4attr9AttributeENCINvNtNtB1P_3gen4fold13fold_variadicNtNtCsdjy9FUDAuhT_18build_script_build11match_token16MatchTokenParserE0ENtNtNtBa_6traits8iterator8Iterator8try_foldINtNtB12_13in_place_drop11InPlaceDropB1L_ENCINvNtB12_16in_place_collect24write_in_place_with_dropB1L_E0INtNtBc_6result6ResultB4P_zEEB32_, symObjAddr: 0x5FC, symBinAddr: 0x100022ED0, symSize: 0x4C }
  - { offset: 0x6D6C6, size: 0x8, addend: 0x0, symName: __RINvXs0_NtNtNtCsfvfooZQ3Axs_4core4iter8adapters3mapINtB6_3MapINtNtNtCse1nGBsou5OW_5alloc3vec9into_iter8IntoIterNtNtCs5AlOhPCr03V_3syn4attr9AttributeENCINvNtNtB1P_3gen4fold14fold_expr_callNtNtCsdjy9FUDAuhT_18build_script_build11match_token16MatchTokenParserE0ENtNtNtBa_6traits8iterator8Iterator8try_foldINtNtB12_13in_place_drop11InPlaceDropB1L_ENCINvNtB12_16in_place_collect24write_in_place_with_dropB1L_E0INtNtBc_6result6ResultB4Q_zEEB33_, symObjAddr: 0x648, symBinAddr: 0x100022F1C, symSize: 0x4C }
  - { offset: 0x6D744, size: 0x8, addend: 0x0, symName: __RINvXs0_NtNtNtCsfvfooZQ3Axs_4core4iter8adapters3mapINtB6_3MapINtNtNtCse1nGBsou5OW_5alloc3vec9into_iter8IntoIterNtNtCs5AlOhPCr03V_3syn4attr9AttributeENCINvNtNtB1P_3gen4fold14fold_expr_castNtNtCsdjy9FUDAuhT_18build_script_build11match_token16MatchTokenParserE0ENtNtNtBa_6traits8iterator8Iterator8try_foldINtNtB12_13in_place_drop11InPlaceDropB1L_ENCINvNtB12_16in_place_collect24write_in_place_with_dropB1L_E0INtNtBc_6result6ResultB4Q_zEEB33_, symObjAddr: 0x694, symBinAddr: 0x100022F68, symSize: 0x4C }
  - { offset: 0x6D7C2, size: 0x8, addend: 0x0, symName: __RINvXs0_NtNtNtCsfvfooZQ3Axs_4core4iter8adapters3mapINtB6_3MapINtNtNtCse1nGBsou5OW_5alloc3vec9into_iter8IntoIterNtNtCs5AlOhPCr03V_3syn4attr9AttributeENCINvNtNtB1P_3gen4fold14fold_expr_loopNtNtCsdjy9FUDAuhT_18build_script_build11match_token16MatchTokenParserE0ENtNtNtBa_6traits8iterator8Iterator8try_foldINtNtB12_13in_place_drop11InPlaceDropB1L_ENCINvNtB12_16in_place_collect24write_in_place_with_dropB1L_E0INtNtBc_6result6ResultB4Q_zEEB33_, symObjAddr: 0x6E0, symBinAddr: 0x100022FB4, symSize: 0x4C }
  - { offset: 0x6D840, size: 0x8, addend: 0x0, symName: __RINvXs0_NtNtNtCsfvfooZQ3Axs_4core4iter8adapters3mapINtB6_3MapINtNtNtCse1nGBsou5OW_5alloc3vec9into_iter8IntoIterNtNtCs5AlOhPCr03V_3syn4attr9AttributeENCINvNtNtB1P_3gen4fold14fold_expr_pathNtNtCsdjy9FUDAuhT_18build_script_build11match_token16MatchTokenParserE0ENtNtNtBa_6traits8iterator8Iterator8try_foldINtNtB12_13in_place_drop11InPlaceDropB1L_ENCINvNtB12_16in_place_collect24write_in_place_with_dropB1L_E0INtNtBc_6result6ResultB4Q_zEEB33_, symObjAddr: 0x72C, symBinAddr: 0x100023000, symSize: 0x4C }
  - { offset: 0x6D8BE, size: 0x8, addend: 0x0, symName: __RINvXs0_NtNtNtCsfvfooZQ3Axs_4core4iter8adapters3mapINtB6_3MapINtNtNtCse1nGBsou5OW_5alloc3vec9into_iter8IntoIterNtNtCs5AlOhPCr03V_3syn4attr9AttributeENCINvNtNtB1P_3gen4fold14fold_expr_typeNtNtCsdjy9FUDAuhT_18build_script_build11match_token16MatchTokenParserE0ENtNtNtBa_6traits8iterator8Iterator8try_foldINtNtB12_13in_place_drop11InPlaceDropB1L_ENCINvNtB12_16in_place_collect24write_in_place_with_dropB1L_E0INtNtBc_6result6ResultB4Q_zEEB33_, symObjAddr: 0x778, symBinAddr: 0x10002304C, symSize: 0x4C }
  - { offset: 0x6D93C, size: 0x8, addend: 0x0, symName: __RINvXs0_NtNtNtCsfvfooZQ3Axs_4core4iter8adapters3mapINtB6_3MapINtNtNtCse1nGBsou5OW_5alloc3vec9into_iter8IntoIterNtNtCs5AlOhPCr03V_3syn4attr9AttributeENCINvNtNtB1P_3gen4fold14fold_field_patNtNtCsdjy9FUDAuhT_18build_script_build11match_token16MatchTokenParserE0ENtNtNtBa_6traits8iterator8Iterator8try_foldINtNtB12_13in_place_drop11InPlaceDropB1L_ENCINvNtB12_16in_place_collect24write_in_place_with_dropB1L_E0INtNtBc_6result6ResultB4Q_zEEB33_, symObjAddr: 0x7C4, symBinAddr: 0x100023098, symSize: 0x4C }
  - { offset: 0x6D9BA, size: 0x8, addend: 0x0, symName: __RINvXs0_NtNtNtCsfvfooZQ3Axs_4core4iter8adapters3mapINtB6_3MapINtNtNtCse1nGBsou5OW_5alloc3vec9into_iter8IntoIterNtNtCs5AlOhPCr03V_3syn4attr9AttributeENCINvNtNtB1P_3gen4fold14fold_item_enumNtNtCsdjy9FUDAuhT_18build_script_build11match_token16MatchTokenParserE0ENtNtNtBa_6traits8iterator8Iterator8try_foldINtNtB12_13in_place_drop11InPlaceDropB1L_ENCINvNtB12_16in_place_collect24write_in_place_with_dropB1L_E0INtNtBc_6result6ResultB4Q_zEEB33_, symObjAddr: 0x810, symBinAddr: 0x1000230E4, symSize: 0x4C }
  - { offset: 0x6DA38, size: 0x8, addend: 0x0, symName: __RINvXs0_NtNtNtCsfvfooZQ3Axs_4core4iter8adapters3mapINtB6_3MapINtNtNtCse1nGBsou5OW_5alloc3vec9into_iter8IntoIterNtNtCs5AlOhPCr03V_3syn4attr9AttributeENCINvNtNtB1P_3gen4fold14fold_item_implNtNtCsdjy9FUDAuhT_18build_script_build11match_token16MatchTokenParserE0ENtNtNtBa_6traits8iterator8Iterator8try_foldINtNtB12_13in_place_drop11InPlaceDropB1L_ENCINvNtB12_16in_place_collect24write_in_place_with_dropB1L_E0INtNtBc_6result6ResultB4Q_zEEB33_, symObjAddr: 0x85C, symBinAddr: 0x100023130, symSize: 0x4C }
  - { offset: 0x6DAB6, size: 0x8, addend: 0x0, symName: __RINvXs0_NtNtNtCsfvfooZQ3Axs_4core4iter8adapters3mapINtB6_3MapINtNtNtCse1nGBsou5OW_5alloc3vec9into_iter8IntoIterNtNtCs5AlOhPCr03V_3syn4attr9AttributeENCINvNtNtB1P_3gen4fold14fold_item_typeNtNtCsdjy9FUDAuhT_18build_script_build11match_token16MatchTokenParserE0ENtNtNtBa_6traits8iterator8Iterator8try_foldINtNtB12_13in_place_drop11InPlaceDropB1L_ENCINvNtB12_16in_place_collect24write_in_place_with_dropB1L_E0INtNtBc_6result6ResultB4Q_zEEB33_, symObjAddr: 0x8A8, symBinAddr: 0x10002317C, symSize: 0x4C }
  - { offset: 0x6DB34, size: 0x8, addend: 0x0, symName: __RINvXs0_NtNtNtCsfvfooZQ3Axs_4core4iter8adapters3mapINtB6_3MapINtNtNtCse1nGBsou5OW_5alloc3vec9into_iter8IntoIterNtNtCs5AlOhPCr03V_3syn4attr9AttributeENCINvNtNtB1P_3gen4fold14fold_pat_identNtNtCsdjy9FUDAuhT_18build_script_build11match_token16MatchTokenParserE0ENtNtNtBa_6traits8iterator8Iterator8try_foldINtNtB12_13in_place_drop11InPlaceDropB1L_ENCINvNtB12_16in_place_collect24write_in_place_with_dropB1L_E0INtNtBc_6result6ResultB4Q_zEEB33_, symObjAddr: 0x8F4, symBinAddr: 0x1000231C8, symSize: 0x4C }
  - { offset: 0x6DBB2, size: 0x8, addend: 0x0, symName: __RINvXs0_NtNtNtCsfvfooZQ3Axs_4core4iter8adapters3mapINtB6_3MapINtNtNtCse1nGBsou5OW_5alloc3vec9into_iter8IntoIterNtNtCs5AlOhPCr03V_3syn4attr9AttributeENCINvNtNtB1P_3gen4fold14fold_pat_macroNtNtCsdjy9FUDAuhT_18build_script_build11match_token16MatchTokenParserE0ENtNtNtBa_6traits8iterator8Iterator8try_foldINtNtB12_13in_place_drop11InPlaceDropB1L_ENCINvNtB12_16in_place_collect24write_in_place_with_dropB1L_E0INtNtBc_6result6ResultB4Q_zEEB33_, symObjAddr: 0x940, symBinAddr: 0x100023214, symSize: 0x4C }
  - { offset: 0x6DC30, size: 0x8, addend: 0x0, symName: __RINvXs0_NtNtNtCsfvfooZQ3Axs_4core4iter8adapters3mapINtB6_3MapINtNtNtCse1nGBsou5OW_5alloc3vec9into_iter8IntoIterNtNtCs5AlOhPCr03V_3syn4attr9AttributeENCINvNtNtB1P_3gen4fold14fold_pat_rangeNtNtCsdjy9FUDAuhT_18build_script_build11match_token16MatchTokenParserE0ENtNtNtBa_6traits8iterator8Iterator8try_foldINtNtB12_13in_place_drop11InPlaceDropB1L_ENCINvNtB12_16in_place_collect24write_in_place_with_dropB1L_E0INtNtBc_6result6ResultB4Q_zEEB33_, symObjAddr: 0x98C, symBinAddr: 0x100023260, symSize: 0x4C }
  - { offset: 0x6DCAE, size: 0x8, addend: 0x0, symName: __RINvXs0_NtNtNtCsfvfooZQ3Axs_4core4iter8adapters3mapINtB6_3MapINtNtNtCse1nGBsou5OW_5alloc3vec9into_iter8IntoIterNtNtCs5AlOhPCr03V_3syn4attr9AttributeENCINvNtNtB1P_3gen4fold14fold_pat_sliceNtNtCsdjy9FUDAuhT_18build_script_build11match_token16MatchTokenParserE0ENtNtNtBa_6traits8iterator8Iterator8try_foldINtNtB12_13in_place_drop11InPlaceDropB1L_ENCINvNtB12_16in_place_collect24write_in_place_with_dropB1L_E0INtNtBc_6result6ResultB4Q_zEEB33_, symObjAddr: 0x9D8, symBinAddr: 0x1000232AC, symSize: 0x4C }
  - { offset: 0x6DD2C, size: 0x8, addend: 0x0, symName: __RINvXs0_NtNtNtCsfvfooZQ3Axs_4core4iter8adapters3mapINtB6_3MapINtNtNtCse1nGBsou5OW_5alloc3vec9into_iter8IntoIterNtNtCs5AlOhPCr03V_3syn4attr9AttributeENCINvNtNtB1P_3gen4fold14fold_pat_tupleNtNtCsdjy9FUDAuhT_18build_script_build11match_token16MatchTokenParserE0ENtNtNtBa_6traits8iterator8Iterator8try_foldINtNtB12_13in_place_drop11InPlaceDropB1L_ENCINvNtB12_16in_place_collect24write_in_place_with_dropB1L_E0INtNtBc_6result6ResultB4Q_zEEB33_, symObjAddr: 0xA24, symBinAddr: 0x1000232F8, symSize: 0x4C }
  - { offset: 0x6DDAA, size: 0x8, addend: 0x0, symName: __RINvXs0_NtNtNtCsfvfooZQ3Axs_4core4iter8adapters3mapINtB6_3MapINtNtNtCse1nGBsou5OW_5alloc3vec9into_iter8IntoIterNtNtCs5AlOhPCr03V_3syn4attr9AttributeENCINvNtNtB1P_3gen4fold15fold_expr_arrayNtNtCsdjy9FUDAuhT_18build_script_build11match_token16MatchTokenParserE0ENtNtNtBa_6traits8iterator8Iterator8try_foldINtNtB12_13in_place_drop11InPlaceDropB1L_ENCINvNtB12_16in_place_collect24write_in_place_with_dropB1L_E0INtNtBc_6result6ResultB4R_zEEB34_, symObjAddr: 0xA70, symBinAddr: 0x100023344, symSize: 0x4C }
  - { offset: 0x6DE28, size: 0x8, addend: 0x0, symName: __RINvXs0_NtNtNtCsfvfooZQ3Axs_4core4iter8adapters3mapINtB6_3MapINtNtNtCse1nGBsou5OW_5alloc3vec9into_iter8IntoIterNtNtCs5AlOhPCr03V_3syn4attr9AttributeENCINvNtNtB1P_3gen4fold15fold_expr_asyncNtNtCsdjy9FUDAuhT_18build_script_build11match_token16MatchTokenParserE0ENtNtNtBa_6traits8iterator8Iterator8try_foldINtNtB12_13in_place_drop11InPlaceDropB1L_ENCINvNtB12_16in_place_collect24write_in_place_with_dropB1L_E0INtNtBc_6result6ResultB4R_zEEB34_, symObjAddr: 0xABC, symBinAddr: 0x100023390, symSize: 0x4C }
  - { offset: 0x6DEA6, size: 0x8, addend: 0x0, symName: __RINvXs0_NtNtNtCsfvfooZQ3Axs_4core4iter8adapters3mapINtB6_3MapINtNtNtCse1nGBsou5OW_5alloc3vec9into_iter8IntoIterNtNtCs5AlOhPCr03V_3syn4attr9AttributeENCINvNtNtB1P_3gen4fold15fold_expr_awaitNtNtCsdjy9FUDAuhT_18build_script_build11match_token16MatchTokenParserE0ENtNtNtBa_6traits8iterator8Iterator8try_foldINtNtB12_13in_place_drop11InPlaceDropB1L_ENCINvNtB12_16in_place_collect24write_in_place_with_dropB1L_E0INtNtBc_6result6ResultB4R_zEEB34_, symObjAddr: 0xB08, symBinAddr: 0x1000233DC, symSize: 0x4C }
  - { offset: 0x6DF24, size: 0x8, addend: 0x0, symName: __RINvXs0_NtNtNtCsfvfooZQ3Axs_4core4iter8adapters3mapINtB6_3MapINtNtNtCse1nGBsou5OW_5alloc3vec9into_iter8IntoIterNtNtCs5AlOhPCr03V_3syn4attr9AttributeENCINvNtNtB1P_3gen4fold15fold_expr_blockNtNtCsdjy9FUDAuhT_18build_script_build11match_token16MatchTokenParserE0ENtNtNtBa_6traits8iterator8Iterator8try_foldINtNtB12_13in_place_drop11InPlaceDropB1L_ENCINvNtB12_16in_place_collect24write_in_place_with_dropB1L_E0INtNtBc_6result6ResultB4R_zEEB34_, symObjAddr: 0xB54, symBinAddr: 0x100023428, symSize: 0x4C }
  - { offset: 0x6DFA2, size: 0x8, addend: 0x0, symName: __RINvXs0_NtNtNtCsfvfooZQ3Axs_4core4iter8adapters3mapINtB6_3MapINtNtNtCse1nGBsou5OW_5alloc3vec9into_iter8IntoIterNtNtCs5AlOhPCr03V_3syn4attr9AttributeENCINvNtNtB1P_3gen4fold15fold_expr_breakNtNtCsdjy9FUDAuhT_18build_script_build11match_token16MatchTokenParserE0ENtNtNtBa_6traits8iterator8Iterator8try_foldINtNtB12_13in_place_drop11InPlaceDropB1L_ENCINvNtB12_16in_place_collect24write_in_place_with_dropB1L_E0INtNtBc_6result6ResultB4R_zEEB34_, symObjAddr: 0xBA0, symBinAddr: 0x100023474, symSize: 0x4C }
  - { offset: 0x6E020, size: 0x8, addend: 0x0, symName: __RINvXs0_NtNtNtCsfvfooZQ3Axs_4core4iter8adapters3mapINtB6_3MapINtNtNtCse1nGBsou5OW_5alloc3vec9into_iter8IntoIterNtNtCs5AlOhPCr03V_3syn4attr9AttributeENCINvNtNtB1P_3gen4fold15fold_expr_fieldNtNtCsdjy9FUDAuhT_18build_script_build11match_token16MatchTokenParserE0ENtNtNtBa_6traits8iterator8Iterator8try_foldINtNtB12_13in_place_drop11InPlaceDropB1L_ENCINvNtB12_16in_place_collect24write_in_place_with_dropB1L_E0INtNtBc_6result6ResultB4R_zEEB34_, symObjAddr: 0xBEC, symBinAddr: 0x1000234C0, symSize: 0x4C }
  - { offset: 0x6E09E, size: 0x8, addend: 0x0, symName: __RINvXs0_NtNtNtCsfvfooZQ3Axs_4core4iter8adapters3mapINtB6_3MapINtNtNtCse1nGBsou5OW_5alloc3vec9into_iter8IntoIterNtNtCs5AlOhPCr03V_3syn4attr9AttributeENCINvNtNtB1P_3gen4fold15fold_expr_groupNtNtCsdjy9FUDAuhT_18build_script_build11match_token16MatchTokenParserE0ENtNtNtBa_6traits8iterator8Iterator8try_foldINtNtB12_13in_place_drop11InPlaceDropB1L_ENCINvNtB12_16in_place_collect24write_in_place_with_dropB1L_E0INtNtBc_6result6ResultB4R_zEEB34_, symObjAddr: 0xC38, symBinAddr: 0x10002350C, symSize: 0x4C }
  - { offset: 0x6E11C, size: 0x8, addend: 0x0, symName: __RINvXs0_NtNtNtCsfvfooZQ3Axs_4core4iter8adapters3mapINtB6_3MapINtNtNtCse1nGBsou5OW_5alloc3vec9into_iter8IntoIterNtNtCs5AlOhPCr03V_3syn4attr9AttributeENCINvNtNtB1P_3gen4fold15fold_expr_indexNtNtCsdjy9FUDAuhT_18build_script_build11match_token16MatchTokenParserE0ENtNtNtBa_6traits8iterator8Iterator8try_foldINtNtB12_13in_place_drop11InPlaceDropB1L_ENCINvNtB12_16in_place_collect24write_in_place_with_dropB1L_E0INtNtBc_6result6ResultB4R_zEEB34_, symObjAddr: 0xC84, symBinAddr: 0x100023558, symSize: 0x4C }
  - { offset: 0x6E19A, size: 0x8, addend: 0x0, symName: __RINvXs0_NtNtNtCsfvfooZQ3Axs_4core4iter8adapters3mapINtB6_3MapINtNtNtCse1nGBsou5OW_5alloc3vec9into_iter8IntoIterNtNtCs5AlOhPCr03V_3syn4attr9AttributeENCINvNtNtB1P_3gen4fold15fold_expr_macroNtNtCsdjy9FUDAuhT_18build_script_build11match_token16MatchTokenParserE0ENtNtNtBa_6traits8iterator8Iterator8try_foldINtNtB12_13in_place_drop11InPlaceDropB1L_ENCINvNtB12_16in_place_collect24write_in_place_with_dropB1L_E0INtNtBc_6result6ResultB4R_zEEB34_, symObjAddr: 0xCD0, symBinAddr: 0x1000235A4, symSize: 0x4C }
  - { offset: 0x6E218, size: 0x8, addend: 0x0, symName: __RINvXs0_NtNtNtCsfvfooZQ3Axs_4core4iter8adapters3mapINtB6_3MapINtNtNtCse1nGBsou5OW_5alloc3vec9into_iter8IntoIterNtNtCs5AlOhPCr03V_3syn4attr9AttributeENCINvNtNtB1P_3gen4fold15fold_expr_matchNtNtCsdjy9FUDAuhT_18build_script_build11match_token16MatchTokenParserE0ENtNtNtBa_6traits8iterator8Iterator8try_foldINtNtB12_13in_place_drop11InPlaceDropB1L_ENCINvNtB12_16in_place_collect24write_in_place_with_dropB1L_E0INtNtBc_6result6ResultB4R_zEEB34_, symObjAddr: 0xD1C, symBinAddr: 0x1000235F0, symSize: 0x4C }
  - { offset: 0x6E296, size: 0x8, addend: 0x0, symName: __RINvXs0_NtNtNtCsfvfooZQ3Axs_4core4iter8adapters3mapINtB6_3MapINtNtNtCse1nGBsou5OW_5alloc3vec9into_iter8IntoIterNtNtCs5AlOhPCr03V_3syn4attr9AttributeENCINvNtNtB1P_3gen4fold15fold_expr_parenNtNtCsdjy9FUDAuhT_18build_script_build11match_token16MatchTokenParserE0ENtNtNtBa_6traits8iterator8Iterator8try_foldINtNtB12_13in_place_drop11InPlaceDropB1L_ENCINvNtB12_16in_place_collect24write_in_place_with_dropB1L_E0INtNtBc_6result6ResultB4R_zEEB34_, symObjAddr: 0xD68, symBinAddr: 0x10002363C, symSize: 0x4C }
  - { offset: 0x6E314, size: 0x8, addend: 0x0, symName: __RINvXs0_NtNtNtCsfvfooZQ3Axs_4core4iter8adapters3mapINtB6_3MapINtNtNtCse1nGBsou5OW_5alloc3vec9into_iter8IntoIterNtNtCs5AlOhPCr03V_3syn4attr9AttributeENCINvNtNtB1P_3gen4fold15fold_expr_rangeNtNtCsdjy9FUDAuhT_18build_script_build11match_token16MatchTokenParserE0ENtNtNtBa_6traits8iterator8Iterator8try_foldINtNtB12_13in_place_drop11InPlaceDropB1L_ENCINvNtB12_16in_place_collect24write_in_place_with_dropB1L_E0INtNtBc_6result6ResultB4R_zEEB34_, symObjAddr: 0xDB4, symBinAddr: 0x100023688, symSize: 0x4C }
  - { offset: 0x6E392, size: 0x8, addend: 0x0, symName: __RINvXs0_NtNtNtCsfvfooZQ3Axs_4core4iter8adapters3mapINtB6_3MapINtNtNtCse1nGBsou5OW_5alloc3vec9into_iter8IntoIterNtNtCs5AlOhPCr03V_3syn4attr9AttributeENCINvNtNtB1P_3gen4fold15fold_expr_tupleNtNtCsdjy9FUDAuhT_18build_script_build11match_token16MatchTokenParserE0ENtNtNtBa_6traits8iterator8Iterator8try_foldINtNtB12_13in_place_drop11InPlaceDropB1L_ENCINvNtB12_16in_place_collect24write_in_place_with_dropB1L_E0INtNtBc_6result6ResultB4R_zEEB34_, symObjAddr: 0xE00, symBinAddr: 0x1000236D4, symSize: 0x4C }
  - { offset: 0x6E410, size: 0x8, addend: 0x0, symName: __RINvXs0_NtNtNtCsfvfooZQ3Axs_4core4iter8adapters3mapINtB6_3MapINtNtNtCse1nGBsou5OW_5alloc3vec9into_iter8IntoIterNtNtCs5AlOhPCr03V_3syn4attr9AttributeENCINvNtNtB1P_3gen4fold15fold_expr_unaryNtNtCsdjy9FUDAuhT_18build_script_build11match_token16MatchTokenParserE0ENtNtNtBa_6traits8iterator8Iterator8try_foldINtNtB12_13in_place_drop11InPlaceDropB1L_ENCINvNtB12_16in_place_collect24write_in_place_with_dropB1L_E0INtNtBc_6result6ResultB4R_zEEB34_, symObjAddr: 0xE4C, symBinAddr: 0x100023720, symSize: 0x4C }
  - { offset: 0x6E48E, size: 0x8, addend: 0x0, symName: __RINvXs0_NtNtNtCsfvfooZQ3Axs_4core4iter8adapters3mapINtB6_3MapINtNtNtCse1nGBsou5OW_5alloc3vec9into_iter8IntoIterNtNtCs5AlOhPCr03V_3syn4attr9AttributeENCINvNtNtB1P_3gen4fold15fold_expr_whileNtNtCsdjy9FUDAuhT_18build_script_build11match_token16MatchTokenParserE0ENtNtNtBa_6traits8iterator8Iterator8try_foldINtNtB12_13in_place_drop11InPlaceDropB1L_ENCINvNtB12_16in_place_collect24write_in_place_with_dropB1L_E0INtNtBc_6result6ResultB4R_zEEB34_, symObjAddr: 0xE98, symBinAddr: 0x10002376C, symSize: 0x4C }
  - { offset: 0x6E50C, size: 0x8, addend: 0x0, symName: __RINvXs0_NtNtNtCsfvfooZQ3Axs_4core4iter8adapters3mapINtB6_3MapINtNtNtCse1nGBsou5OW_5alloc3vec9into_iter8IntoIterNtNtCs5AlOhPCr03V_3syn4attr9AttributeENCINvNtNtB1P_3gen4fold15fold_expr_yieldNtNtCsdjy9FUDAuhT_18build_script_build11match_token16MatchTokenParserE0ENtNtNtBa_6traits8iterator8Iterator8try_foldINtNtB12_13in_place_drop11InPlaceDropB1L_ENCINvNtB12_16in_place_collect24write_in_place_with_dropB1L_E0INtNtBc_6result6ResultB4R_zEEB34_, symObjAddr: 0xEE4, symBinAddr: 0x1000237B8, symSize: 0x4C }
  - { offset: 0x6E58A, size: 0x8, addend: 0x0, symName: __RINvXs0_NtNtNtCsfvfooZQ3Axs_4core4iter8adapters3mapINtB6_3MapINtNtNtCse1nGBsou5OW_5alloc3vec9into_iter8IntoIterNtNtCs5AlOhPCr03V_3syn4attr9AttributeENCINvNtNtB1P_3gen4fold15fold_item_constNtNtCsdjy9FUDAuhT_18build_script_build11match_token16MatchTokenParserE0ENtNtNtBa_6traits8iterator8Iterator8try_foldINtNtB12_13in_place_drop11InPlaceDropB1L_ENCINvNtB12_16in_place_collect24write_in_place_with_dropB1L_E0INtNtBc_6result6ResultB4R_zEEB34_, symObjAddr: 0xF30, symBinAddr: 0x100023804, symSize: 0x4C }
  - { offset: 0x6E608, size: 0x8, addend: 0x0, symName: __RINvXs0_NtNtNtCsfvfooZQ3Axs_4core4iter8adapters3mapINtB6_3MapINtNtNtCse1nGBsou5OW_5alloc3vec9into_iter8IntoIterNtNtCs5AlOhPCr03V_3syn4attr9AttributeENCINvNtNtB1P_3gen4fold15fold_item_macroNtNtCsdjy9FUDAuhT_18build_script_build11match_token16MatchTokenParserE0ENtNtNtBa_6traits8iterator8Iterator8try_foldINtNtB12_13in_place_drop11InPlaceDropB1L_ENCINvNtB12_16in_place_collect24write_in_place_with_dropB1L_E0INtNtBc_6result6ResultB4R_zEEB34_, symObjAddr: 0xF7C, symBinAddr: 0x100023850, symSize: 0x4C }
  - { offset: 0x6E686, size: 0x8, addend: 0x0, symName: __RINvXs0_NtNtNtCsfvfooZQ3Axs_4core4iter8adapters3mapINtB6_3MapINtNtNtCse1nGBsou5OW_5alloc3vec9into_iter8IntoIterNtNtCs5AlOhPCr03V_3syn4attr9AttributeENCINvNtNtB1P_3gen4fold15fold_item_traitNtNtCsdjy9FUDAuhT_18build_script_build11match_token16MatchTokenParserE0ENtNtNtBa_6traits8iterator8Iterator8try_foldINtNtB12_13in_place_drop11InPlaceDropB1L_ENCINvNtB12_16in_place_collect24write_in_place_with_dropB1L_E0INtNtBc_6result6ResultB4R_zEEB34_, symObjAddr: 0xFC8, symBinAddr: 0x10002389C, symSize: 0x4C }
  - { offset: 0x6E704, size: 0x8, addend: 0x0, symName: __RINvXs0_NtNtNtCsfvfooZQ3Axs_4core4iter8adapters3mapINtB6_3MapINtNtNtCse1nGBsou5OW_5alloc3vec9into_iter8IntoIterNtNtCs5AlOhPCr03V_3syn4attr9AttributeENCINvNtNtB1P_3gen4fold15fold_item_unionNtNtCsdjy9FUDAuhT_18build_script_build11match_token16MatchTokenParserE0ENtNtNtBa_6traits8iterator8Iterator8try_foldINtNtB12_13in_place_drop11InPlaceDropB1L_ENCINvNtB12_16in_place_collect24write_in_place_with_dropB1L_E0INtNtBc_6result6ResultB4R_zEEB34_, symObjAddr: 0x1014, symBinAddr: 0x1000238E8, symSize: 0x4C }
  - { offset: 0x6E782, size: 0x8, addend: 0x0, symName: __RINvXs0_NtNtNtCsfvfooZQ3Axs_4core4iter8adapters3mapINtB6_3MapINtNtNtCse1nGBsou5OW_5alloc3vec9into_iter8IntoIterNtNtCs5AlOhPCr03V_3syn4attr9AttributeENCINvNtNtB1P_3gen4fold15fold_pat_structNtNtCsdjy9FUDAuhT_18build_script_build11match_token16MatchTokenParserE0ENtNtNtBa_6traits8iterator8Iterator8try_foldINtNtB12_13in_place_drop11InPlaceDropB1L_ENCINvNtB12_16in_place_collect24write_in_place_with_dropB1L_E0INtNtBc_6result6ResultB4R_zEEB34_, symObjAddr: 0x1060, symBinAddr: 0x100023934, symSize: 0x4C }
  - { offset: 0x6E800, size: 0x8, addend: 0x0, symName: __RINvXs0_NtNtNtCsfvfooZQ3Axs_4core4iter8adapters3mapINtB6_3MapINtNtNtCse1nGBsou5OW_5alloc3vec9into_iter8IntoIterNtNtCs5AlOhPCr03V_3syn4attr9AttributeENCINvNtNtB1P_3gen4fold15fold_type_paramNtNtCsdjy9FUDAuhT_18build_script_build11match_token16MatchTokenParserE0ENtNtNtBa_6traits8iterator8Iterator8try_foldINtNtB12_13in_place_drop11InPlaceDropB1L_ENCINvNtB12_16in_place_collect24write_in_place_with_dropB1L_E0INtNtBc_6result6ResultB4R_zEEB34_, symObjAddr: 0x10AC, symBinAddr: 0x100023980, symSize: 0x4C }
  - { offset: 0x6E87E, size: 0x8, addend: 0x0, symName: __RINvXs0_NtNtNtCsfvfooZQ3Axs_4core4iter8adapters3mapINtB6_3MapINtNtNtCse1nGBsou5OW_5alloc3vec9into_iter8IntoIterNtNtCs5AlOhPCr03V_3syn4attr9AttributeENCINvNtNtB1P_3gen4fold16fold_bare_fn_argNtNtCsdjy9FUDAuhT_18build_script_build11match_token16MatchTokenParserE0ENtNtNtBa_6traits8iterator8Iterator8try_foldINtNtB12_13in_place_drop11InPlaceDropB1L_ENCINvNtB12_16in_place_collect24write_in_place_with_dropB1L_E0INtNtBc_6result6ResultB4S_zEEB35_, symObjAddr: 0x10F8, symBinAddr: 0x1000239CC, symSize: 0x4C }
  - { offset: 0x6E8FC, size: 0x8, addend: 0x0, symName: __RINvXs0_NtNtNtCsfvfooZQ3Axs_4core4iter8adapters3mapINtB6_3MapINtNtNtCse1nGBsou5OW_5alloc3vec9into_iter8IntoIterNtNtCs5AlOhPCr03V_3syn4attr9AttributeENCINvNtNtB1P_3gen4fold16fold_const_paramNtNtCsdjy9FUDAuhT_18build_script_build11match_token16MatchTokenParserE0ENtNtNtBa_6traits8iterator8Iterator8try_foldINtNtB12_13in_place_drop11InPlaceDropB1L_ENCINvNtB12_16in_place_collect24write_in_place_with_dropB1L_E0INtNtBc_6result6ResultB4S_zEEB35_, symObjAddr: 0x1144, symBinAddr: 0x100023A18, symSize: 0x4C }
  - { offset: 0x6E97A, size: 0x8, addend: 0x0, symName: __RINvXs0_NtNtNtCsfvfooZQ3Axs_4core4iter8adapters3mapINtB6_3MapINtNtNtCse1nGBsou5OW_5alloc3vec9into_iter8IntoIterNtNtCs5AlOhPCr03V_3syn4attr9AttributeENCINvNtNtB1P_3gen4fold16fold_expr_assignNtNtCsdjy9FUDAuhT_18build_script_build11match_token16MatchTokenParserE0ENtNtNtBa_6traits8iterator8Iterator8try_foldINtNtB12_13in_place_drop11InPlaceDropB1L_ENCINvNtB12_16in_place_collect24write_in_place_with_dropB1L_E0INtNtBc_6result6ResultB4S_zEEB35_, symObjAddr: 0x1190, symBinAddr: 0x100023A64, symSize: 0x4C }
  - { offset: 0x6E9F8, size: 0x8, addend: 0x0, symName: __RINvXs0_NtNtNtCsfvfooZQ3Axs_4core4iter8adapters3mapINtB6_3MapINtNtNtCse1nGBsou5OW_5alloc3vec9into_iter8IntoIterNtNtCs5AlOhPCr03V_3syn4attr9AttributeENCINvNtNtB1P_3gen4fold16fold_expr_binaryNtNtCsdjy9FUDAuhT_18build_script_build11match_token16MatchTokenParserE0ENtNtNtBa_6traits8iterator8Iterator8try_foldINtNtB12_13in_place_drop11InPlaceDropB1L_ENCINvNtB12_16in_place_collect24write_in_place_with_dropB1L_E0INtNtBc_6result6ResultB4S_zEEB35_, symObjAddr: 0x11DC, symBinAddr: 0x100023AB0, symSize: 0x4C }
  - { offset: 0x6EA76, size: 0x8, addend: 0x0, symName: __RINvXs0_NtNtNtCsfvfooZQ3Axs_4core4iter8adapters3mapINtB6_3MapINtNtNtCse1nGBsou5OW_5alloc3vec9into_iter8IntoIterNtNtCs5AlOhPCr03V_3syn4attr9AttributeENCINvNtNtB1P_3gen4fold16fold_expr_repeatNtNtCsdjy9FUDAuhT_18build_script_build11match_token16MatchTokenParserE0ENtNtNtBa_6traits8iterator8Iterator8try_foldINtNtB12_13in_place_drop11InPlaceDropB1L_ENCINvNtB12_16in_place_collect24write_in_place_with_dropB1L_E0INtNtBc_6result6ResultB4S_zEEB35_, symObjAddr: 0x1228, symBinAddr: 0x100023AFC, symSize: 0x4C }
  - { offset: 0x6EAF4, size: 0x8, addend: 0x0, symName: __RINvXs0_NtNtNtCsfvfooZQ3Axs_4core4iter8adapters3mapINtB6_3MapINtNtNtCse1nGBsou5OW_5alloc3vec9into_iter8IntoIterNtNtCs5AlOhPCr03V_3syn4attr9AttributeENCINvNtNtB1P_3gen4fold16fold_expr_returnNtNtCsdjy9FUDAuhT_18build_script_build11match_token16MatchTokenParserE0ENtNtNtBa_6traits8iterator8Iterator8try_foldINtNtB12_13in_place_drop11InPlaceDropB1L_ENCINvNtB12_16in_place_collect24write_in_place_with_dropB1L_E0INtNtBc_6result6ResultB4S_zEEB35_, symObjAddr: 0x1274, symBinAddr: 0x100023B48, symSize: 0x4C }
  - { offset: 0x6EB72, size: 0x8, addend: 0x0, symName: __RINvXs0_NtNtNtCsfvfooZQ3Axs_4core4iter8adapters3mapINtB6_3MapINtNtNtCse1nGBsou5OW_5alloc3vec9into_iter8IntoIterNtNtCs5AlOhPCr03V_3syn4attr9AttributeENCINvNtNtB1P_3gen4fold16fold_expr_structNtNtCsdjy9FUDAuhT_18build_script_build11match_token16MatchTokenParserE0ENtNtNtBa_6traits8iterator8Iterator8try_foldINtNtB12_13in_place_drop11InPlaceDropB1L_ENCINvNtB12_16in_place_collect24write_in_place_with_dropB1L_E0INtNtBc_6result6ResultB4S_zEEB35_, symObjAddr: 0x12C0, symBinAddr: 0x100023B94, symSize: 0x4C }
  - { offset: 0x6EBF0, size: 0x8, addend: 0x0, symName: __RINvXs0_NtNtNtCsfvfooZQ3Axs_4core4iter8adapters3mapINtB6_3MapINtNtNtCse1nGBsou5OW_5alloc3vec9into_iter8IntoIterNtNtCs5AlOhPCr03V_3syn4attr9AttributeENCINvNtNtB1P_3gen4fold16fold_expr_unsafeNtNtCsdjy9FUDAuhT_18build_script_build11match_token16MatchTokenParserE0ENtNtNtBa_6traits8iterator8Iterator8try_foldINtNtB12_13in_place_drop11InPlaceDropB1L_ENCINvNtB12_16in_place_collect24write_in_place_with_dropB1L_E0INtNtBc_6result6ResultB4S_zEEB35_, symObjAddr: 0x130C, symBinAddr: 0x100023BE0, symSize: 0x4C }
  - { offset: 0x6EC6E, size: 0x8, addend: 0x0, symName: __RINvXs0_NtNtNtCsfvfooZQ3Axs_4core4iter8adapters3mapINtB6_3MapINtNtNtCse1nGBsou5OW_5alloc3vec9into_iter8IntoIterNtNtCs5AlOhPCr03V_3syn4attr9AttributeENCINvNtNtB1P_3gen4fold16fold_field_valueNtNtCsdjy9FUDAuhT_18build_script_build11match_token16MatchTokenParserE0ENtNtNtBa_6traits8iterator8Iterator8try_foldINtNtB12_13in_place_drop11InPlaceDropB1L_ENCINvNtB12_16in_place_collect24write_in_place_with_dropB1L_E0INtNtBc_6result6ResultB4S_zEEB35_, symObjAddr: 0x1358, symBinAddr: 0x100023C2C, symSize: 0x4C }
  - { offset: 0x6ECEC, size: 0x8, addend: 0x0, symName: __RINvXs0_NtNtNtCsfvfooZQ3Axs_4core4iter8adapters3mapINtB6_3MapINtNtNtCse1nGBsou5OW_5alloc3vec9into_iter8IntoIterNtNtCs5AlOhPCr03V_3syn4attr9AttributeENCINvNtNtB1P_3gen4fold16fold_item_macro2NtNtCsdjy9FUDAuhT_18build_script_build11match_token16MatchTokenParserE0ENtNtNtBa_6traits8iterator8Iterator8try_foldINtNtB12_13in_place_drop11InPlaceDropB1L_ENCINvNtB12_16in_place_collect24write_in_place_with_dropB1L_E0INtNtBc_6result6ResultB4S_zEEB35_, symObjAddr: 0x13A4, symBinAddr: 0x100023C78, symSize: 0x4C }
  - { offset: 0x6ED6A, size: 0x8, addend: 0x0, symName: __RINvXs0_NtNtNtCsfvfooZQ3Axs_4core4iter8adapters3mapINtB6_3MapINtNtNtCse1nGBsou5OW_5alloc3vec9into_iter8IntoIterNtNtCs5AlOhPCr03V_3syn4attr9AttributeENCINvNtNtB1P_3gen4fold16fold_item_staticNtNtCsdjy9FUDAuhT_18build_script_build11match_token16MatchTokenParserE0ENtNtNtBa_6traits8iterator8Iterator8try_foldINtNtB12_13in_place_drop11InPlaceDropB1L_ENCINvNtB12_16in_place_collect24write_in_place_with_dropB1L_E0INtNtBc_6result6ResultB4S_zEEB35_, symObjAddr: 0x13F0, symBinAddr: 0x100023CC4, symSize: 0x4C }
  - { offset: 0x6EDE8, size: 0x8, addend: 0x0, symName: __RINvXs0_NtNtNtCsfvfooZQ3Axs_4core4iter8adapters3mapINtB6_3MapINtNtNtCse1nGBsou5OW_5alloc3vec9into_iter8IntoIterNtNtCs5AlOhPCr03V_3syn4attr9AttributeENCINvNtNtB1P_3gen4fold16fold_item_structNtNtCsdjy9FUDAuhT_18build_script_build11match_token16MatchTokenParserE0ENtNtNtBa_6traits8iterator8Iterator8try_foldINtNtB12_13in_place_drop11InPlaceDropB1L_ENCINvNtB12_16in_place_collect24write_in_place_with_dropB1L_E0INtNtBc_6result6ResultB4S_zEEB35_, symObjAddr: 0x143C, symBinAddr: 0x100023D10, symSize: 0x4C }
  - { offset: 0x6EE66, size: 0x8, addend: 0x0, symName: __RINvXs0_NtNtNtCsfvfooZQ3Axs_4core4iter8adapters3mapINtB6_3MapINtNtNtCse1nGBsou5OW_5alloc3vec9into_iter8IntoIterNtNtCs5AlOhPCr03V_3syn4attr9AttributeENCINvNtNtB1P_3gen4fold17fold_expr_closureNtNtCsdjy9FUDAuhT_18build_script_build11match_token16MatchTokenParserE0ENtNtNtBa_6traits8iterator8Iterator8try_foldINtNtB12_13in_place_drop11InPlaceDropB1L_ENCINvNtB12_16in_place_collect24write_in_place_with_dropB1L_E0INtNtBc_6result6ResultB4T_zEEB36_, symObjAddr: 0x1488, symBinAddr: 0x100023D5C, symSize: 0x4C }
  - { offset: 0x6EEE4, size: 0x8, addend: 0x0, symName: __RINvXs0_NtNtNtCsfvfooZQ3Axs_4core4iter8adapters3mapINtB6_3MapINtNtNtCse1nGBsou5OW_5alloc3vec9into_iter8IntoIterNtNtCs5AlOhPCr03V_3syn4attr9AttributeENCINvNtNtB1P_3gen4fold17fold_lifetime_defNtNtCsdjy9FUDAuhT_18build_script_build11match_token16MatchTokenParserE0ENtNtNtBa_6traits8iterator8Iterator8try_foldINtNtB12_13in_place_drop11InPlaceDropB1L_ENCINvNtB12_16in_place_collect24write_in_place_with_dropB1L_E0INtNtBc_6result6ResultB4T_zEEB36_, symObjAddr: 0x14D4, symBinAddr: 0x100023DA8, symSize: 0x4C }
  - { offset: 0x6EF62, size: 0x8, addend: 0x0, symName: __RINvXs0_NtNtNtCsfvfooZQ3Axs_4core4iter8adapters3mapINtB6_3MapINtNtNtCse1nGBsou5OW_5alloc3vec9into_iter8IntoIterNtNtCs5AlOhPCr03V_3syn4attr9AttributeENCINvNtNtB1P_3gen4fold18fold_expr_continueNtNtCsdjy9FUDAuhT_18build_script_build11match_token16MatchTokenParserE0ENtNtNtBa_6traits8iterator8Iterator8try_foldINtNtB12_13in_place_drop11InPlaceDropB1L_ENCINvNtB12_16in_place_collect24write_in_place_with_dropB1L_E0INtNtBc_6result6ResultB4U_zEEB37_, symObjAddr: 0x1520, symBinAddr: 0x100023DF4, symSize: 0x4C }
  - { offset: 0x6EFE0, size: 0x8, addend: 0x0, symName: __RINvXs0_NtNtNtCsfvfooZQ3Axs_4core4iter8adapters3mapINtB6_3MapINtNtNtCse1nGBsou5OW_5alloc3vec9into_iter8IntoIterNtNtCs5AlOhPCr03V_3syn4attr9AttributeENCINvNtNtB1P_3gen4fold18fold_expr_for_loopNtNtCsdjy9FUDAuhT_18build_script_build11match_token16MatchTokenParserE0ENtNtNtBa_6traits8iterator8Iterator8try_foldINtNtB12_13in_place_drop11InPlaceDropB1L_ENCINvNtB12_16in_place_collect24write_in_place_with_dropB1L_E0INtNtBc_6result6ResultB4U_zEEB37_, symObjAddr: 0x156C, symBinAddr: 0x100023E40, symSize: 0x4C }
  - { offset: 0x6F05E, size: 0x8, addend: 0x0, symName: __RINvXs0_NtNtNtCsfvfooZQ3Axs_4core4iter8adapters3mapINtB6_3MapINtNtNtCse1nGBsou5OW_5alloc3vec9into_iter8IntoIterNtNtCs5AlOhPCr03V_3syn4attr9AttributeENCINvNtNtB1P_3gen4fold18fold_pat_referenceNtNtCsdjy9FUDAuhT_18build_script_build11match_token16MatchTokenParserE0ENtNtNtBa_6traits8iterator8Iterator8try_foldINtNtB12_13in_place_drop11InPlaceDropB1L_ENCINvNtB12_16in_place_collect24write_in_place_with_dropB1L_E0INtNtBc_6result6ResultB4U_zEEB37_, symObjAddr: 0x15B8, symBinAddr: 0x100023E8C, symSize: 0x4C }
  - { offset: 0x6F0DC, size: 0x8, addend: 0x0, symName: __RINvXs0_NtNtNtCsfvfooZQ3Axs_4core4iter8adapters3mapINtB6_3MapINtNtNtCse1nGBsou5OW_5alloc3vec9into_iter8IntoIterNtNtCs5AlOhPCr03V_3syn4attr9AttributeENCINvNtNtB1P_3gen4fold19fold_expr_assign_opNtNtCsdjy9FUDAuhT_18build_script_build11match_token16MatchTokenParserE0ENtNtNtBa_6traits8iterator8Iterator8try_foldINtNtB12_13in_place_drop11InPlaceDropB1L_ENCINvNtB12_16in_place_collect24write_in_place_with_dropB1L_E0INtNtBc_6result6ResultB4V_zEEB38_, symObjAddr: 0x1604, symBinAddr: 0x100023ED8, symSize: 0x4C }
  - { offset: 0x6F15A, size: 0x8, addend: 0x0, symName: __RINvXs0_NtNtNtCsfvfooZQ3Axs_4core4iter8adapters3mapINtB6_3MapINtNtNtCse1nGBsou5OW_5alloc3vec9into_iter8IntoIterNtNtCs5AlOhPCr03V_3syn4attr9AttributeENCINvNtNtB1P_3gen4fold19fold_expr_referenceNtNtCsdjy9FUDAuhT_18build_script_build11match_token16MatchTokenParserE0ENtNtNtBa_6traits8iterator8Iterator8try_foldINtNtB12_13in_place_drop11InPlaceDropB1L_ENCINvNtB12_16in_place_collect24write_in_place_with_dropB1L_E0INtNtBc_6result6ResultB4V_zEEB38_, symObjAddr: 0x1650, symBinAddr: 0x100023F24, symSize: 0x4C }
  - { offset: 0x6F1D8, size: 0x8, addend: 0x0, symName: __RINvXs0_NtNtNtCsfvfooZQ3Axs_4core4iter8adapters3mapINtB6_3MapINtNtNtCse1nGBsou5OW_5alloc3vec9into_iter8IntoIterNtNtCs5AlOhPCr03V_3syn4attr9AttributeENCINvNtNtB1P_3gen4fold19fold_expr_try_blockNtNtCsdjy9FUDAuhT_18build_script_build11match_token16MatchTokenParserE0ENtNtNtBa_6traits8iterator8Iterator8try_foldINtNtB12_13in_place_drop11InPlaceDropB1L_ENCINvNtB12_16in_place_collect24write_in_place_with_dropB1L_E0INtNtBc_6result6ResultB4V_zEEB38_, symObjAddr: 0x169C, symBinAddr: 0x100023F70, symSize: 0x4C }
  - { offset: 0x6F256, size: 0x8, addend: 0x0, symName: __RINvXs0_NtNtNtCsfvfooZQ3Axs_4core4iter8adapters3mapINtB6_3MapINtNtNtCse1nGBsou5OW_5alloc3vec9into_iter8IntoIterNtNtCs5AlOhPCr03V_3syn4attr9AttributeENCINvNtNtB1P_3gen4fold19fold_impl_item_typeNtNtCsdjy9FUDAuhT_18build_script_build11match_token16MatchTokenParserE0ENtNtNtBa_6traits8iterator8Iterator8try_foldINtNtB12_13in_place_drop11InPlaceDropB1L_ENCINvNtB12_16in_place_collect24write_in_place_with_dropB1L_E0INtNtBc_6result6ResultB4V_zEEB38_, symObjAddr: 0x16E8, symBinAddr: 0x100023FBC, symSize: 0x4C }
  - { offset: 0x6F2D4, size: 0x8, addend: 0x0, symName: __RINvXs0_NtNtNtCsfvfooZQ3Axs_4core4iter8adapters3mapINtB6_3MapINtNtNtCse1nGBsou5OW_5alloc3vec9into_iter8IntoIterNtNtCs5AlOhPCr03V_3syn4attr9AttributeENCINvNtNtB1P_3gen4fold20fold_foreign_item_fnNtNtCsdjy9FUDAuhT_18build_script_build11match_token16MatchTokenParserE0ENtNtNtBa_6traits8iterator8Iterator8try_foldINtNtB12_13in_place_drop11InPlaceDropB1L_ENCINvNtB12_16in_place_collect24write_in_place_with_dropB1L_E0INtNtBc_6result6ResultB4W_zEEB39_, symObjAddr: 0x1734, symBinAddr: 0x100024008, symSize: 0x4C }
  - { offset: 0x6F352, size: 0x8, addend: 0x0, symName: __RINvXs0_NtNtNtCsfvfooZQ3Axs_4core4iter8adapters3mapINtB6_3MapINtNtNtCse1nGBsou5OW_5alloc3vec9into_iter8IntoIterNtNtCs5AlOhPCr03V_3syn4attr9AttributeENCINvNtNtB1P_3gen4fold20fold_impl_item_constNtNtCsdjy9FUDAuhT_18build_script_build11match_token16MatchTokenParserE0ENtNtNtBa_6traits8iterator8Iterator8try_foldINtNtB12_13in_place_drop11InPlaceDropB1L_ENCINvNtB12_16in_place_collect24write_in_place_with_dropB1L_E0INtNtBc_6result6ResultB4W_zEEB39_, symObjAddr: 0x1780, symBinAddr: 0x100024054, symSize: 0x4C }
  - { offset: 0x6F3D0, size: 0x8, addend: 0x0, symName: __RINvXs0_NtNtNtCsfvfooZQ3Axs_4core4iter8adapters3mapINtB6_3MapINtNtNtCse1nGBsou5OW_5alloc3vec9into_iter8IntoIterNtNtCs5AlOhPCr03V_3syn4attr9AttributeENCINvNtNtB1P_3gen4fold20fold_impl_item_macroNtNtCsdjy9FUDAuhT_18build_script_build11match_token16MatchTokenParserE0ENtNtNtBa_6traits8iterator8Iterator8try_foldINtNtB12_13in_place_drop11InPlaceDropB1L_ENCINvNtB12_16in_place_collect24write_in_place_with_dropB1L_E0INtNtBc_6result6ResultB4W_zEEB39_, symObjAddr: 0x17CC, symBinAddr: 0x1000240A0, symSize: 0x4C }
  - { offset: 0x6F44E, size: 0x8, addend: 0x0, symName: __RINvXs0_NtNtNtCsfvfooZQ3Axs_4core4iter8adapters3mapINtB6_3MapINtNtNtCse1nGBsou5OW_5alloc3vec9into_iter8IntoIterNtNtCs5AlOhPCr03V_3syn4attr9AttributeENCINvNtNtB1P_3gen4fold20fold_trait_item_typeNtNtCsdjy9FUDAuhT_18build_script_build11match_token16MatchTokenParserE0ENtNtNtBa_6traits8iterator8Iterator8try_foldINtNtB12_13in_place_drop11InPlaceDropB1L_ENCINvNtB12_16in_place_collect24write_in_place_with_dropB1L_E0INtNtBc_6result6ResultB4W_zEEB39_, symObjAddr: 0x1818, symBinAddr: 0x1000240EC, symSize: 0x4C }
  - { offset: 0x6F4CC, size: 0x8, addend: 0x0, symName: __RINvXs0_NtNtNtCsfvfooZQ3Axs_4core4iter8adapters3mapINtB6_3MapINtNtNtCse1nGBsou5OW_5alloc3vec9into_iter8IntoIterNtNtCs5AlOhPCr03V_3syn4attr9AttributeENCINvNtNtB1P_3gen4fold21fold_expr_method_callNtNtCsdjy9FUDAuhT_18build_script_build11match_token16MatchTokenParserE0ENtNtNtBa_6traits8iterator8Iterator8try_foldINtNtB12_13in_place_drop11InPlaceDropB1L_ENCINvNtB12_16in_place_collect24write_in_place_with_dropB1L_E0INtNtBc_6result6ResultB4X_zEEB3a_, symObjAddr: 0x1864, symBinAddr: 0x100024138, symSize: 0x4C }
  - { offset: 0x6F54A, size: 0x8, addend: 0x0, symName: __RINvXs0_NtNtNtCsfvfooZQ3Axs_4core4iter8adapters3mapINtB6_3MapINtNtNtCse1nGBsou5OW_5alloc3vec9into_iter8IntoIterNtNtCs5AlOhPCr03V_3syn4attr9AttributeENCINvNtNtB1P_3gen4fold21fold_impl_item_methodNtNtCsdjy9FUDAuhT_18build_script_build11match_token16MatchTokenParserE0ENtNtNtBa_6traits8iterator8Iterator8try_foldINtNtB12_13in_place_drop11InPlaceDropB1L_ENCINvNtB12_16in_place_collect24write_in_place_with_dropB1L_E0INtNtBc_6result6ResultB4X_zEEB3a_, symObjAddr: 0x18B0, symBinAddr: 0x100024184, symSize: 0x4C }
  - { offset: 0x6F5C8, size: 0x8, addend: 0x0, symName: __RINvXs0_NtNtNtCsfvfooZQ3Axs_4core4iter8adapters3mapINtB6_3MapINtNtNtCse1nGBsou5OW_5alloc3vec9into_iter8IntoIterNtNtCs5AlOhPCr03V_3syn4attr9AttributeENCINvNtNtB1P_3gen4fold21fold_item_foreign_modNtNtCsdjy9FUDAuhT_18build_script_build11match_token16MatchTokenParserE0ENtNtNtBa_6traits8iterator8Iterator8try_foldINtNtB12_13in_place_drop11InPlaceDropB1L_ENCINvNtB12_16in_place_collect24write_in_place_with_dropB1L_E0INtNtBc_6result6ResultB4X_zEEB3a_, symObjAddr: 0x18FC, symBinAddr: 0x1000241D0, symSize: 0x4C }
  - { offset: 0x6F646, size: 0x8, addend: 0x0, symName: __RINvXs0_NtNtNtCsfvfooZQ3Axs_4core4iter8adapters3mapINtB6_3MapINtNtNtCse1nGBsou5OW_5alloc3vec9into_iter8IntoIterNtNtCs5AlOhPCr03V_3syn4attr9AttributeENCINvNtNtB1P_3gen4fold21fold_item_trait_aliasNtNtCsdjy9FUDAuhT_18build_script_build11match_token16MatchTokenParserE0ENtNtNtBa_6traits8iterator8Iterator8try_foldINtNtB12_13in_place_drop11InPlaceDropB1L_ENCINvNtB12_16in_place_collect24write_in_place_with_dropB1L_E0INtNtBc_6result6ResultB4X_zEEB3a_, symObjAddr: 0x1948, symBinAddr: 0x10002421C, symSize: 0x4C }
  - { offset: 0x6F6C4, size: 0x8, addend: 0x0, symName: __RINvXs0_NtNtNtCsfvfooZQ3Axs_4core4iter8adapters3mapINtB6_3MapINtNtNtCse1nGBsou5OW_5alloc3vec9into_iter8IntoIterNtNtCs5AlOhPCr03V_3syn4attr9AttributeENCINvNtNtB1P_3gen4fold21fold_pat_tuple_structNtNtCsdjy9FUDAuhT_18build_script_build11match_token16MatchTokenParserE0ENtNtNtBa_6traits8iterator8Iterator8try_foldINtNtB12_13in_place_drop11InPlaceDropB1L_ENCINvNtB12_16in_place_collect24write_in_place_with_dropB1L_E0INtNtBc_6result6ResultB4X_zEEB3a_, symObjAddr: 0x1994, symBinAddr: 0x100024268, symSize: 0x4C }
  - { offset: 0x6F742, size: 0x8, addend: 0x0, symName: __RINvXs0_NtNtNtCsfvfooZQ3Axs_4core4iter8adapters3mapINtB6_3MapINtNtNtCse1nGBsou5OW_5alloc3vec9into_iter8IntoIterNtNtCs5AlOhPCr03V_3syn4attr9AttributeENCINvNtNtB1P_3gen4fold21fold_trait_item_constNtNtCsdjy9FUDAuhT_18build_script_build11match_token16MatchTokenParserE0ENtNtNtBa_6traits8iterator8Iterator8try_foldINtNtB12_13in_place_drop11InPlaceDropB1L_ENCINvNtB12_16in_place_collect24write_in_place_with_dropB1L_E0INtNtBc_6result6ResultB4X_zEEB3a_, symObjAddr: 0x19E0, symBinAddr: 0x1000242B4, symSize: 0x4C }
  - { offset: 0x6F7C0, size: 0x8, addend: 0x0, symName: __RINvXs0_NtNtNtCsfvfooZQ3Axs_4core4iter8adapters3mapINtB6_3MapINtNtNtCse1nGBsou5OW_5alloc3vec9into_iter8IntoIterNtNtCs5AlOhPCr03V_3syn4attr9AttributeENCINvNtNtB1P_3gen4fold21fold_trait_item_macroNtNtCsdjy9FUDAuhT_18build_script_build11match_token16MatchTokenParserE0ENtNtNtBa_6traits8iterator8Iterator8try_foldINtNtB12_13in_place_drop11InPlaceDropB1L_ENCINvNtB12_16in_place_collect24write_in_place_with_dropB1L_E0INtNtBc_6result6ResultB4X_zEEB3a_, symObjAddr: 0x1A2C, symBinAddr: 0x100024300, symSize: 0x4C }
  - { offset: 0x6F83E, size: 0x8, addend: 0x0, symName: __RINvXs0_NtNtNtCsfvfooZQ3Axs_4core4iter8adapters3mapINtB6_3MapINtNtNtCse1nGBsou5OW_5alloc3vec9into_iter8IntoIterNtNtCs5AlOhPCr03V_3syn4attr9AttributeENCINvNtNtB1P_3gen4fold22fold_foreign_item_typeNtNtCsdjy9FUDAuhT_18build_script_build11match_token16MatchTokenParserE0ENtNtNtBa_6traits8iterator8Iterator8try_foldINtNtB12_13in_place_drop11InPlaceDropB1L_ENCINvNtB12_16in_place_collect24write_in_place_with_dropB1L_E0INtNtBc_6result6ResultB4Y_zEEB3b_, symObjAddr: 0x1A78, symBinAddr: 0x10002434C, symSize: 0x4C }
  - { offset: 0x6F8BC, size: 0x8, addend: 0x0, symName: __RINvXs0_NtNtNtCsfvfooZQ3Axs_4core4iter8adapters3mapINtB6_3MapINtNtNtCse1nGBsou5OW_5alloc3vec9into_iter8IntoIterNtNtCs5AlOhPCr03V_3syn4attr9AttributeENCINvNtNtB1P_3gen4fold22fold_item_extern_crateNtNtCsdjy9FUDAuhT_18build_script_build11match_token16MatchTokenParserE0ENtNtNtBa_6traits8iterator8Iterator8try_foldINtNtB12_13in_place_drop11InPlaceDropB1L_ENCINvNtB12_16in_place_collect24write_in_place_with_dropB1L_E0INtNtBc_6result6ResultB4Y_zEEB3b_, symObjAddr: 0x1AC4, symBinAddr: 0x100024398, symSize: 0x4C }
  - { offset: 0x6F93A, size: 0x8, addend: 0x0, symName: __RINvXs0_NtNtNtCsfvfooZQ3Axs_4core4iter8adapters3mapINtB6_3MapINtNtNtCse1nGBsou5OW_5alloc3vec9into_iter8IntoIterNtNtCs5AlOhPCr03V_3syn4attr9AttributeENCINvNtNtB1P_3gen4fold22fold_trait_item_methodNtNtCsdjy9FUDAuhT_18build_script_build11match_token16MatchTokenParserE0ENtNtNtBa_6traits8iterator8Iterator8try_foldINtNtB12_13in_place_drop11InPlaceDropB1L_ENCINvNtB12_16in_place_collect24write_in_place_with_dropB1L_E0INtNtBc_6result6ResultB4Y_zEEB3b_, symObjAddr: 0x1B10, symBinAddr: 0x1000243E4, symSize: 0x4C }
  - { offset: 0x6F9B8, size: 0x8, addend: 0x0, symName: __RINvXs0_NtNtNtCsfvfooZQ3Axs_4core4iter8adapters3mapINtB6_3MapINtNtNtCse1nGBsou5OW_5alloc3vec9into_iter8IntoIterNtNtCs5AlOhPCr03V_3syn4attr9AttributeENCINvNtNtB1P_3gen4fold23fold_foreign_item_macroNtNtCsdjy9FUDAuhT_18build_script_build11match_token16MatchTokenParserE0ENtNtNtBa_6traits8iterator8Iterator8try_foldINtNtB12_13in_place_drop11InPlaceDropB1L_ENCINvNtB12_16in_place_collect24write_in_place_with_dropB1L_E0INtNtBc_6result6ResultB4Z_zEEB3c_, symObjAddr: 0x1B5C, symBinAddr: 0x100024430, symSize: 0x4C }
  - { offset: 0x6FA36, size: 0x8, addend: 0x0, symName: __RINvXs0_NtNtNtCsfvfooZQ3Axs_4core4iter8adapters3mapINtB6_3MapINtNtNtCse1nGBsou5OW_5alloc3vec9into_iter8IntoIterNtNtCs5AlOhPCr03V_3syn4attr9AttributeENCINvNtNtB1P_3gen4fold24fold_foreign_item_staticNtNtCsdjy9FUDAuhT_18build_script_build11match_token16MatchTokenParserE0ENtNtNtBa_6traits8iterator8Iterator8try_foldINtNtB12_13in_place_drop11InPlaceDropB1L_ENCINvNtB12_16in_place_collect24write_in_place_with_dropB1L_E0INtNtBc_6result6ResultB50_zEEB3d_, symObjAddr: 0x1BA8, symBinAddr: 0x10002447C, symSize: 0x4C }
  - { offset: 0x6FAB4, size: 0x8, addend: 0x0, symName: __RINvXs0_NtNtNtCsfvfooZQ3Axs_4core4iter8adapters3mapINtB6_3MapINtNtNtCse1nGBsou5OW_5alloc3vec9into_iter8IntoIterNtNtCs5AlOhPCr03V_3syn4attr9AttributeENCINvNtNtB1P_3gen4fold8fold_armNtNtCsdjy9FUDAuhT_18build_script_build11match_token16MatchTokenParserE0ENtNtNtBa_6traits8iterator8Iterator8try_foldINtNtB12_13in_place_drop11InPlaceDropB1L_ENCINvNtB12_16in_place_collect24write_in_place_with_dropB1L_E0INtNtBc_6result6ResultB4J_zEEB2W_, symObjAddr: 0x1BF4, symBinAddr: 0x1000244C8, symSize: 0x4C }
  - { offset: 0x6FB32, size: 0x8, addend: 0x0, symName: __RINvXs0_NtNtNtCsfvfooZQ3Axs_4core4iter8adapters3mapINtB6_3MapINtNtNtCse1nGBsou5OW_5alloc3vec9into_iter8IntoIterNtNtCs5AlOhPCr03V_3syn4attr9AttributeENCINvNtNtB1P_3gen4fold9fold_fileNtNtCsdjy9FUDAuhT_18build_script_build11match_token16MatchTokenParserE0ENtNtNtBa_6traits8iterator8Iterator8try_foldINtNtB12_13in_place_drop11InPlaceDropB1L_ENCINvNtB12_16in_place_collect24write_in_place_with_dropB1L_E0INtNtBc_6result6ResultB4K_zEEB2X_, symObjAddr: 0x1C40, symBinAddr: 0x100024514, symSize: 0x4C }
  - { offset: 0x6FBB0, size: 0x8, addend: 0x0, symName: __RINvXs0_NtNtNtCsfvfooZQ3Axs_4core4iter8adapters3mapINtB6_3MapINtNtNtCse1nGBsou5OW_5alloc3vec9into_iter8IntoIterNtNtCs5AlOhPCr03V_3syn4expr3ArmENCINvNtNtB1P_3gen4fold15fold_expr_matchNtNtCsdjy9FUDAuhT_18build_script_build11match_token16MatchTokenParserEs_0ENtNtNtBa_6traits8iterator8Iterator8try_foldINtNtB12_13in_place_drop11InPlaceDropB1L_ENCINvNtB12_16in_place_collect24write_in_place_with_dropB1L_E0INtNtBc_6result6ResultB4N_zEEB2Y_, symObjAddr: 0x1C8C, symBinAddr: 0x100024560, symSize: 0x4C }
  - { offset: 0x6FC2E, size: 0x8, addend: 0x0, symName: __RINvXs0_NtNtNtCsfvfooZQ3Axs_4core4iter8adapters3mapINtB6_3MapINtNtNtCse1nGBsou5OW_5alloc3vec9into_iter8IntoIterNtNtCs5AlOhPCr03V_3syn4item11ForeignItemENCINvNtNtB1P_3gen4fold21fold_item_foreign_modNtNtCsdjy9FUDAuhT_18build_script_build11match_token16MatchTokenParserEs_0ENtNtNtBa_6traits8iterator8Iterator8try_foldINtNtB12_13in_place_drop11InPlaceDropB1L_ENCINvNtB12_16in_place_collect24write_in_place_with_dropB1L_E0INtNtBc_6result6ResultB52_zEEB3d_, symObjAddr: 0x1CD8, symBinAddr: 0x1000245AC, symSize: 0x4C }
  - { offset: 0x6FCAC, size: 0x8, addend: 0x0, symName: __RINvXs0_NtNtNtCsfvfooZQ3Axs_4core4iter8adapters3mapINtB6_3MapINtNtNtCse1nGBsou5OW_5alloc3vec9into_iter8IntoIterNtNtCs5AlOhPCr03V_3syn4item4ItemENCINvNtNtB1P_3gen4fold9fold_fileNtNtCsdjy9FUDAuhT_18build_script_build11match_token16MatchTokenParserEs_0ENtNtNtBa_6traits8iterator8Iterator8try_foldINtNtB12_13in_place_drop11InPlaceDropB1L_ENCINvNtB12_16in_place_collect24write_in_place_with_dropB1L_E0INtNtBc_6result6ResultB4H_zEEB2S_, symObjAddr: 0x1D24, symBinAddr: 0x1000245F8, symSize: 0x4C }
  - { offset: 0x6FD2A, size: 0x8, addend: 0x0, symName: __RINvXs0_NtNtNtCsfvfooZQ3Axs_4core4iter8adapters3mapINtB6_3MapINtNtNtCse1nGBsou5OW_5alloc3vec9into_iter8IntoIterNtNtCs5AlOhPCr03V_3syn4item4ItemENCNCINvNtNtB1P_3gen4fold13fold_item_modNtNtCsdjy9FUDAuhT_18build_script_build11match_token16MatchTokenParserEs_00ENtNtNtBa_6traits8iterator8Iterator8try_foldINtNtB12_13in_place_drop11InPlaceDropB1L_ENCINvNtB12_16in_place_collect24write_in_place_with_dropB1L_E0INtNtBc_6result6ResultB4P_zEEB2Z_, symObjAddr: 0x1D70, symBinAddr: 0x100024644, symSize: 0x4C }
  - { offset: 0x6FDA8, size: 0x8, addend: 0x0, symName: __RINvXs0_NtNtNtCsfvfooZQ3Axs_4core4iter8adapters3mapINtB6_3MapINtNtNtCse1nGBsou5OW_5alloc3vec9into_iter8IntoIterNtNtCs5AlOhPCr03V_3syn4item8ImplItemENCINvNtNtB1P_3gen4fold14fold_item_implNtNtCsdjy9FUDAuhT_18build_script_build11match_token16MatchTokenParserEs2_0ENtNtNtBa_6traits8iterator8Iterator8try_foldINtNtB12_13in_place_drop11InPlaceDropB1L_ENCINvNtB12_16in_place_collect24write_in_place_with_dropB1L_E0INtNtBc_6result6ResultB4S_zEEB32_, symObjAddr: 0x1DBC, symBinAddr: 0x100024690, symSize: 0x4C }
  - { offset: 0x6FE26, size: 0x8, addend: 0x0, symName: __RINvXs0_NtNtNtCsfvfooZQ3Axs_4core4iter8adapters3mapINtB6_3MapINtNtNtCse1nGBsou5OW_5alloc3vec9into_iter8IntoIterNtNtCs5AlOhPCr03V_3syn4item9TraitItemENCINvNtNtB1P_3gen4fold15fold_item_traitNtNtCsdjy9FUDAuhT_18build_script_build11match_token16MatchTokenParserEs3_0ENtNtNtBa_6traits8iterator8Iterator8try_foldINtNtB12_13in_place_drop11InPlaceDropB1L_ENCINvNtB12_16in_place_collect24write_in_place_with_dropB1L_E0INtNtBc_6result6ResultB4U_zEEB34_, symObjAddr: 0x1E08, symBinAddr: 0x1000246DC, symSize: 0x4C }
  - { offset: 0x6FEA4, size: 0x8, addend: 0x0, symName: __RINvXs0_NtNtNtCsfvfooZQ3Axs_4core4iter8adapters3mapINtB6_3MapINtNtNtCse1nGBsou5OW_5alloc3vec9into_iter8IntoIterNtNtCs5AlOhPCr03V_3syn4stmt4StmtENCINvNtNtB1P_3gen4fold10fold_blockNtNtCsdjy9FUDAuhT_18build_script_build11match_token16MatchTokenParserE0ENtNtNtBa_6traits8iterator8Iterator8try_foldINtNtB12_13in_place_drop11InPlaceDropB1L_ENCINvNtB12_16in_place_collect24write_in_place_with_dropB1L_E0INtNtBc_6result6ResultB4H_zEEB2U_, symObjAddr: 0x1E54, symBinAddr: 0x100024728, symSize: 0x4C }
  - { offset: 0x6FF22, size: 0x8, addend: 0x0, symName: __RNvXs0_NtNtNtCsfvfooZQ3Axs_4core4iter8adapters3mapINtB5_3MapIBN_INtNtCs5AlOhPCr03V_3syn10punctuated9IntoPairsNtNtB15_2ty4TypeNtNtB15_5token5CommaENvMsJ_B13_INtB13_4PairB1J_B1Z_E10into_tupleENCINvXs_NtNtNtB15_3gen6helper4foldINtB13_10PunctuatedB1J_B1Z_ENtB3a_10FoldHelper4liftNCINvNtB3e_4fold15fold_type_tupleNtNtCsdjy9FUDAuhT_18build_script_build11match_token16MatchTokenParserE0E0ENtNtNtB9_6traits8iterator8Iterator4nextB50_, symObjAddr: 0x1108C, symBinAddr: 0x100033960, symSize: 0xD0 }
  - { offset: 0x6FF95, size: 0x8, addend: 0x0, symName: __RNvXs0_NtNtNtCsfvfooZQ3Axs_4core4iter8adapters3mapINtB5_3MapIBN_INtNtCs5AlOhPCr03V_3syn10punctuated9IntoPairsNtNtB15_2ty4TypeNtNtB15_5token5CommaENvMsJ_B13_INtB13_4PairB1J_B1Z_E10into_tupleENCINvXs_NtNtNtB15_3gen6helper4foldINtB13_10PunctuatedB1J_B1Z_ENtB3a_10FoldHelper4liftNCINvNtB3e_4fold36fold_parenthesized_generic_argumentsNtNtCsdjy9FUDAuhT_18build_script_build11match_token16MatchTokenParserE0E0ENtNtNtB9_6traits8iterator8Iterator4nextB5l_, symObjAddr: 0x1115C, symBinAddr: 0x100033A30, symSize: 0xD0 }
  - { offset: 0x70008, size: 0x8, addend: 0x0, symName: __RNvXs0_NtNtNtCsfvfooZQ3Axs_4core4iter8adapters3mapINtB5_3MapIBN_INtNtCs5AlOhPCr03V_3syn10punctuated9IntoPairsNtNtB15_2ty9BareFnArgNtNtB15_5token5CommaENvMsJ_B13_INtB13_4PairB1J_B24_E10into_tupleENCINvXs_NtNtNtB15_3gen6helper4foldINtB13_10PunctuatedB1J_B24_ENtB3f_10FoldHelper4liftNCINvNtB3j_4fold17fold_type_bare_fnNtNtCsdjy9FUDAuhT_18build_script_build11match_token16MatchTokenParserEs1_0E0ENtNtNtB9_6traits8iterator8Iterator4nextB57_, symObjAddr: 0x1122C, symBinAddr: 0x100033B00, symSize: 0xC8 }
  - { offset: 0x7007B, size: 0x8, addend: 0x0, symName: __RNvXs0_NtNtNtCsfvfooZQ3Axs_4core4iter8adapters3mapINtB5_3MapIBN_INtNtCs5AlOhPCr03V_3syn10punctuated9IntoPairsNtNtB15_3pat3PatNtNtB15_5token2OrENvMsJ_B13_INtB13_4PairB1J_B1Z_E10into_tupleENCINvXs_NtNtNtB15_3gen6helper4foldINtB13_10PunctuatedB1J_B1Z_ENtB37_10FoldHelper4liftNCINvNtB3b_4fold11fold_pat_orNtNtCsdjy9FUDAuhT_18build_script_build11match_token16MatchTokenParserEs0_0E0ENtNtNtB9_6traits8iterator8Iterator4nextB4T_, symObjAddr: 0x112F4, symBinAddr: 0x100033BC8, symSize: 0xCC }
  - { offset: 0x700EE, size: 0x8, addend: 0x0, symName: __RNvXs0_NtNtNtCsfvfooZQ3Axs_4core4iter8adapters3mapINtB5_3MapIBN_INtNtCs5AlOhPCr03V_3syn10punctuated9IntoPairsNtNtB15_3pat3PatNtNtB15_5token5CommaENvMsJ_B13_INtB13_4PairB1J_B1Z_E10into_tupleENCINvXs_NtNtNtB15_3gen6helper4foldINtB13_10PunctuatedB1J_B1Z_ENtB3a_10FoldHelper4liftNCINvNtB3e_4fold14fold_pat_sliceNtNtCsdjy9FUDAuhT_18build_script_build11match_token16MatchTokenParserEs_0E0ENtNtNtB9_6traits8iterator8Iterator4nextB4Z_, symObjAddr: 0x113C0, symBinAddr: 0x100033C94, symSize: 0xCC }
  - { offset: 0x70161, size: 0x8, addend: 0x0, symName: __RNvXs0_NtNtNtCsfvfooZQ3Axs_4core4iter8adapters3mapINtB5_3MapIBN_INtNtCs5AlOhPCr03V_3syn10punctuated9IntoPairsNtNtB15_3pat3PatNtNtB15_5token5CommaENvMsJ_B13_INtB13_4PairB1J_B1Z_E10into_tupleENCINvXs_NtNtNtB15_3gen6helper4foldINtB13_10PunctuatedB1J_B1Z_ENtB3a_10FoldHelper4liftNCINvNtB3e_4fold14fold_pat_tupleNtNtCsdjy9FUDAuhT_18build_script_build11match_token16MatchTokenParserEs_0E0ENtNtNtB9_6traits8iterator8Iterator4nextB4Z_, symObjAddr: 0x1148C, symBinAddr: 0x100033D60, symSize: 0xCC }
  - { offset: 0x701D4, size: 0x8, addend: 0x0, symName: __RNvXs0_NtNtNtCsfvfooZQ3Axs_4core4iter8adapters3mapINtB5_3MapIBN_INtNtCs5AlOhPCr03V_3syn10punctuated9IntoPairsNtNtB15_3pat3PatNtNtB15_5token5CommaENvMsJ_B13_INtB13_4PairB1J_B1Z_E10into_tupleENCINvXs_NtNtNtB15_3gen6helper4foldINtB13_10PunctuatedB1J_B1Z_ENtB3a_10FoldHelper4liftNCINvNtB3e_4fold17fold_expr_closureNtNtCsdjy9FUDAuhT_18build_script_build11match_token16MatchTokenParserEs2_0E0ENtNtNtB9_6traits8iterator8Iterator4nextB52_, symObjAddr: 0x11558, symBinAddr: 0x100033E2C, symSize: 0xCC }
  - { offset: 0x70247, size: 0x8, addend: 0x0, symName: __RNvXs0_NtNtNtCsfvfooZQ3Axs_4core4iter8adapters3mapINtB5_3MapIBN_INtNtCs5AlOhPCr03V_3syn10punctuated9IntoPairsNtNtB15_3pat8FieldPatNtNtB15_5token5CommaENvMsJ_B13_INtB13_4PairB1J_B24_E10into_tupleENCINvXs_NtNtNtB15_3gen6helper4foldINtB13_10PunctuatedB1J_B24_ENtB3f_10FoldHelper4liftNCINvNtB3j_4fold15fold_pat_structNtNtCsdjy9FUDAuhT_18build_script_build11match_token16MatchTokenParserEs_0E0ENtNtNtB9_6traits8iterator8Iterator4nextB55_, symObjAddr: 0x11624, symBinAddr: 0x100033EF8, symSize: 0xC4 }
  - { offset: 0x702BA, size: 0x8, addend: 0x0, symName: __RNvXs0_NtNtNtCsfvfooZQ3Axs_4core4iter8adapters3mapINtB5_3MapIBN_INtNtCs5AlOhPCr03V_3syn10punctuated9IntoPairsNtNtB15_4data5FieldNtNtB15_5token5CommaENvMsJ_B13_INtB13_4PairB1J_B22_E10into_tupleENCINvXs_NtNtNtB15_3gen6helper4foldINtB13_10PunctuatedB1J_B22_ENtB3d_10FoldHelper4liftNCINvNtB3h_4fold17fold_fields_namedNtNtCsdjy9FUDAuhT_18build_script_build11match_token16MatchTokenParserE0E0ENtNtNtB9_6traits8iterator8Iterator4nextB55_, symObjAddr: 0x116E8, symBinAddr: 0x100033FBC, symSize: 0xC8 }
  - { offset: 0x7032D, size: 0x8, addend: 0x0, symName: __RNvXs0_NtNtNtCsfvfooZQ3Axs_4core4iter8adapters3mapINtB5_3MapIBN_INtNtCs5AlOhPCr03V_3syn10punctuated9IntoPairsNtNtB15_4data5FieldNtNtB15_5token5CommaENvMsJ_B13_INtB13_4PairB1J_B22_E10into_tupleENCINvXs_NtNtNtB15_3gen6helper4foldINtB13_10PunctuatedB1J_B22_ENtB3d_10FoldHelper4liftNCINvNtB3h_4fold19fold_fields_unnamedNtNtCsdjy9FUDAuhT_18build_script_build11match_token16MatchTokenParserE0E0ENtNtNtB9_6traits8iterator8Iterator4nextB57_, symObjAddr: 0x117B0, symBinAddr: 0x100034084, symSize: 0xC8 }
  - { offset: 0x703A0, size: 0x8, addend: 0x0, symName: __RNvXs0_NtNtNtCsfvfooZQ3Axs_4core4iter8adapters3mapINtB5_3MapIBN_INtNtCs5AlOhPCr03V_3syn10punctuated9IntoPairsNtNtB15_4data7VariantNtNtB15_5token5CommaENvMsJ_B13_INtB13_4PairB1J_B24_E10into_tupleENCINvXs_NtNtNtB15_3gen6helper4foldINtB13_10PunctuatedB1J_B24_ENtB3f_10FoldHelper4liftNCINvNtB3j_4fold14fold_item_enumNtNtCsdjy9FUDAuhT_18build_script_build11match_token16MatchTokenParserEs_0E0ENtNtNtB9_6traits8iterator8Iterator4nextB54_, symObjAddr: 0x11878, symBinAddr: 0x10003414C, symSize: 0xC4 }
  - { offset: 0x70413, size: 0x8, addend: 0x0, symName: __RNvXs0_NtNtNtCsfvfooZQ3Axs_4core4iter8adapters3mapINtB5_3MapIBN_INtNtCs5AlOhPCr03V_3syn10punctuated9IntoPairsNtNtB15_4expr10FieldValueNtNtB15_5token5CommaENvMsJ_B13_INtB13_4PairB1J_B28_E10into_tupleENCINvXs_NtNtNtB15_3gen6helper4foldINtB13_10PunctuatedB1J_B28_ENtB3j_10FoldHelper4liftNCINvNtB3n_4fold16fold_expr_structNtNtCsdjy9FUDAuhT_18build_script_build11match_token16MatchTokenParserEs_0E0ENtNtNtB9_6traits8iterator8Iterator4nextB5a_, symObjAddr: 0x1193C, symBinAddr: 0x100034210, symSize: 0xC8 }
  - { offset: 0x70486, size: 0x8, addend: 0x0, symName: __RNvXs0_NtNtNtCsfvfooZQ3Axs_4core4iter8adapters3mapINtB5_3MapIBN_INtNtCs5AlOhPCr03V_3syn10punctuated9IntoPairsNtNtB15_4expr21GenericMethodArgumentNtNtB15_5token5CommaENvMsJ_B13_INtB13_4PairB1J_B2j_E10into_tupleENCINvXs_NtNtNtB15_3gen6helper4foldINtB13_10PunctuatedB1J_B2j_ENtB3u_10FoldHelper4liftNCINvNtB3y_4fold21fold_method_turbofishNtNtCsdjy9FUDAuhT_18build_script_build11match_token16MatchTokenParserE0E0ENtNtNtB9_6traits8iterator8Iterator4nextB5q_, symObjAddr: 0x11A04, symBinAddr: 0x1000342D8, symSize: 0xD0 }
  - { offset: 0x704F9, size: 0x8, addend: 0x0, symName: __RNvXs0_NtNtNtCsfvfooZQ3Axs_4core4iter8adapters3mapINtB5_3MapIBN_INtNtCs5AlOhPCr03V_3syn10punctuated9IntoPairsNtNtB15_4expr4ExprNtNtB15_5token5CommaENvMsJ_B13_INtB13_4PairB1J_B21_E10into_tupleENCINvXs_NtNtNtB15_3gen6helper4foldINtB13_10PunctuatedB1J_B21_ENtB3c_10FoldHelper4liftNCINvNtB3g_4fold14fold_expr_callNtNtCsdjy9FUDAuhT_18build_script_build11match_token16MatchTokenParserEs_0E0ENtNtNtB9_6traits8iterator8Iterator4nextB51_, symObjAddr: 0x11AD4, symBinAddr: 0x1000343A8, symSize: 0xD0 }
  - { offset: 0x7056C, size: 0x8, addend: 0x0, symName: __RNvXs0_NtNtNtCsfvfooZQ3Axs_4core4iter8adapters3mapINtB5_3MapIBN_INtNtCs5AlOhPCr03V_3syn10punctuated9IntoPairsNtNtB15_4expr4ExprNtNtB15_5token5CommaENvMsJ_B13_INtB13_4PairB1J_B21_E10into_tupleENCINvXs_NtNtNtB15_3gen6helper4foldINtB13_10PunctuatedB1J_B21_ENtB3c_10FoldHelper4liftNCINvNtB3g_4fold15fold_expr_arrayNtNtCsdjy9FUDAuhT_18build_script_build11match_token16MatchTokenParserEs_0E0ENtNtNtB9_6traits8iterator8Iterator4nextB52_, symObjAddr: 0x11BA4, symBinAddr: 0x100034478, symSize: 0xD0 }
  - { offset: 0x705DF, size: 0x8, addend: 0x0, symName: __RNvXs0_NtNtNtCsfvfooZQ3Axs_4core4iter8adapters3mapINtB5_3MapIBN_INtNtCs5AlOhPCr03V_3syn10punctuated9IntoPairsNtNtB15_4expr4ExprNtNtB15_5token5CommaENvMsJ_B13_INtB13_4PairB1J_B21_E10into_tupleENCINvXs_NtNtNtB15_3gen6helper4foldINtB13_10PunctuatedB1J_B21_ENtB3c_10FoldHelper4liftNCINvNtB3g_4fold15fold_expr_tupleNtNtCsdjy9FUDAuhT_18build_script_build11match_token16MatchTokenParserEs_0E0ENtNtNtB9_6traits8iterator8Iterator4nextB52_, symObjAddr: 0x11C74, symBinAddr: 0x100034548, symSize: 0xD0 }
  - { offset: 0x70652, size: 0x8, addend: 0x0, symName: __RNvXs0_NtNtNtCsfvfooZQ3Axs_4core4iter8adapters3mapINtB5_3MapIBN_INtNtCs5AlOhPCr03V_3syn10punctuated9IntoPairsNtNtB15_4expr4ExprNtNtB15_5token5CommaENvMsJ_B13_INtB13_4PairB1J_B21_E10into_tupleENCINvXs_NtNtNtB15_3gen6helper4foldINtB13_10PunctuatedB1J_B21_ENtB3c_10FoldHelper4liftNCINvNtB3g_4fold21fold_expr_method_callNtNtCsdjy9FUDAuhT_18build_script_build11match_token16MatchTokenParserEs0_0E0ENtNtNtB9_6traits8iterator8Iterator4nextB58_, symObjAddr: 0x11D44, symBinAddr: 0x100034618, symSize: 0xD0 }
  - { offset: 0x706C5, size: 0x8, addend: 0x0, symName: __RNvXs0_NtNtNtCsfvfooZQ3Axs_4core4iter8adapters3mapINtB5_3MapIBN_INtNtCs5AlOhPCr03V_3syn10punctuated9IntoPairsNtNtB15_4item5FnArgNtNtB15_5token5CommaENvMsJ_B13_INtB13_4PairB1J_B22_E10into_tupleENCINvXs_NtNtNtB15_3gen6helper4foldINtB13_10PunctuatedB1J_B22_ENtB3d_10FoldHelper4liftNCINvNtB3h_4fold14fold_signatureNtNtCsdjy9FUDAuhT_18build_script_build11match_token16MatchTokenParserEs2_0E0ENtNtNtB9_6traits8iterator8Iterator4nextB52_, symObjAddr: 0x11E14, symBinAddr: 0x1000346E8, symSize: 0xC8 }
  - { offset: 0x70738, size: 0x8, addend: 0x0, symName: __RNvXs0_NtNtNtCsfvfooZQ3Axs_4core4iter8adapters3mapINtB5_3MapIBN_INtNtCs5AlOhPCr03V_3syn10punctuated9IntoPairsNtNtB15_4item7UseTreeNtNtB15_5token5CommaENvMsJ_B13_INtB13_4PairB1J_B24_E10into_tupleENCINvXs_NtNtNtB15_3gen6helper4foldINtB13_10PunctuatedB1J_B24_ENtB3f_10FoldHelper4liftNCINvNtB3j_4fold14fold_use_groupNtNtCsdjy9FUDAuhT_18build_script_build11match_token16MatchTokenParserE0E0ENtNtNtB9_6traits8iterator8Iterator4nextB54_, symObjAddr: 0x11EDC, symBinAddr: 0x1000347B0, symSize: 0xBC }
  - { offset: 0x707BB, size: 0x8, addend: 0x0, symName: __RNvXs0_NtNtNtCsfvfooZQ3Axs_4core4iter8adapters3mapINtB5_3MapIBN_INtNtCs5AlOhPCr03V_3syn10punctuated9IntoPairsNtNtB15_4path11PathSegmentNtNtB15_5token6Colon2ENvMsJ_B13_INtB13_4PairB1J_B29_E10into_tupleENCINvXs_NtNtNtB15_3gen6helper4foldINtB13_10PunctuatedB1J_B29_ENtB3l_10FoldHelper4liftNCINvNtB3p_4fold9fold_pathNtNtCsdjy9FUDAuhT_18build_script_build11match_token16MatchTokenParserEs_0E0ENtNtNtB9_6traits8iterator8Iterator4nextB54_, symObjAddr: 0x11F98, symBinAddr: 0x10003486C, symSize: 0xC4 }
  - { offset: 0x7082E, size: 0x8, addend: 0x0, symName: __RNvXs0_NtNtNtCsfvfooZQ3Axs_4core4iter8adapters3mapINtB5_3MapIBN_INtNtCs5AlOhPCr03V_3syn10punctuated9IntoPairsNtNtB15_4path15GenericArgumentNtNtB15_5token5CommaENvMsJ_B13_INtB13_4PairB1J_B2d_E10into_tupleENCINvXs_NtNtNtB15_3gen6helper4foldINtB13_10PunctuatedB1J_B2d_ENtB3o_10FoldHelper4liftNCINvNtB3s_4fold38fold_angle_bracketed_generic_argumentsNtNtCsdjy9FUDAuhT_18build_script_build11match_token16MatchTokenParserEs_0E0ENtNtNtB9_6traits8iterator8Iterator4nextB5B_, symObjAddr: 0x1205C, symBinAddr: 0x100034930, symSize: 0xD0 }
  - { offset: 0x708A1, size: 0x8, addend: 0x0, symName: __RNvXs0_NtNtNtCsfvfooZQ3Axs_4core4iter8adapters3mapINtB5_3MapIBN_INtNtCs5AlOhPCr03V_3syn10punctuated9IntoPairsNtNtB15_8generics11LifetimeDefNtNtB15_5token5CommaENvMsJ_B13_INtB13_4PairB1J_B2d_E10into_tupleENCINvXs_NtNtNtB15_3gen6helper4foldINtB13_10PunctuatedB1J_B2d_ENtB3o_10FoldHelper4liftNCINvNtB3s_4fold20fold_bound_lifetimesNtNtCsdjy9FUDAuhT_18build_script_build11match_token16MatchTokenParserE0E0ENtNtNtB9_6traits8iterator8Iterator4nextB5j_, symObjAddr: 0x1212C, symBinAddr: 0x100034A00, symSize: 0xC4 }
  - { offset: 0x70914, size: 0x8, addend: 0x0, symName: __RNvXs0_NtNtNtCsfvfooZQ3Axs_4core4iter8adapters3mapINtB5_3MapIBN_INtNtCs5AlOhPCr03V_3syn10punctuated9IntoPairsNtNtB15_8generics12GenericParamNtNtB15_5token5CommaENvMsJ_B13_INtB13_4PairB1J_B2e_E10into_tupleENCINvXs_NtNtNtB15_3gen6helper4foldINtB13_10PunctuatedB1J_B2e_ENtB3p_10FoldHelper4liftNCINvNtB3t_4fold13fold_genericsNtNtCsdjy9FUDAuhT_18build_script_build11match_token16MatchTokenParserEs_0E0ENtNtNtB9_6traits8iterator8Iterator4nextB5d_, symObjAddr: 0x121F0, symBinAddr: 0x100034AC4, symSize: 0xCC }
  - { offset: 0x70987, size: 0x8, addend: 0x0, symName: __RNvXs0_NtNtNtCsfvfooZQ3Axs_4core4iter8adapters3mapINtB5_3MapIBN_INtNtCs5AlOhPCr03V_3syn10punctuated9IntoPairsNtNtB15_8generics14TypeParamBoundNtNtB15_5token3AddENvMsJ_B13_INtB13_4PairB1J_B2g_E10into_tupleENCINvXs_NtNtNtB15_3gen6helper4foldINtB13_10PunctuatedB1J_B2g_ENtB3p_10FoldHelper4liftNCINvNtB3t_4fold15fold_constraintNtNtCsdjy9FUDAuhT_18build_script_build11match_token16MatchTokenParserE0E0ENtNtNtB9_6traits8iterator8Iterator4nextB5f_, symObjAddr: 0x122BC, symBinAddr: 0x100034B90, symSize: 0xC8 }
  - { offset: 0x709FA, size: 0x8, addend: 0x0, symName: __RNvXs0_NtNtNtCsfvfooZQ3Axs_4core4iter8adapters3mapINtB5_3MapIBN_INtNtCs5AlOhPCr03V_3syn10punctuated9IntoPairsNtNtB15_8generics14TypeParamBoundNtNtB15_5token3AddENvMsJ_B13_INtB13_4PairB1J_B2g_E10into_tupleENCINvXs_NtNtNtB15_3gen6helper4foldINtB13_10PunctuatedB1J_B2g_ENtB3p_10FoldHelper4liftNCINvNtB3t_4fold15fold_item_traitNtNtCsdjy9FUDAuhT_18build_script_build11match_token16MatchTokenParserEs2_0E0ENtNtNtB9_6traits8iterator8Iterator4nextB5f_, symObjAddr: 0x12384, symBinAddr: 0x100034C58, symSize: 0xC8 }
  - { offset: 0x70A6D, size: 0x8, addend: 0x0, symName: __RNvXs0_NtNtNtCsfvfooZQ3Axs_4core4iter8adapters3mapINtB5_3MapIBN_INtNtCs5AlOhPCr03V_3syn10punctuated9IntoPairsNtNtB15_8generics14TypeParamBoundNtNtB15_5token3AddENvMsJ_B13_INtB13_4PairB1J_B2g_E10into_tupleENCINvXs_NtNtNtB15_3gen6helper4foldINtB13_10PunctuatedB1J_B2g_ENtB3p_10FoldHelper4liftNCINvNtB3t_4fold15fold_type_paramNtNtCsdjy9FUDAuhT_18build_script_build11match_token16MatchTokenParserEs0_0E0ENtNtNtB9_6traits8iterator8Iterator4nextB5f_, symObjAddr: 0x1244C, symBinAddr: 0x100034D20, symSize: 0xC8 }
  - { offset: 0x70AE0, size: 0x8, addend: 0x0, symName: __RNvXs0_NtNtNtCsfvfooZQ3Axs_4core4iter8adapters3mapINtB5_3MapIBN_INtNtCs5AlOhPCr03V_3syn10punctuated9IntoPairsNtNtB15_8generics14TypeParamBoundNtNtB15_5token3AddENvMsJ_B13_INtB13_4PairB1J_B2g_E10into_tupleENCINvXs_NtNtNtB15_3gen6helper4foldINtB13_10PunctuatedB1J_B2g_ENtB3p_10FoldHelper4liftNCINvNtB3t_4fold19fold_predicate_typeNtNtCsdjy9FUDAuhT_18build_script_build11match_token16MatchTokenParserEs_0E0ENtNtNtB9_6traits8iterator8Iterator4nextB5j_, symObjAddr: 0x12514, symBinAddr: 0x100034DE8, symSize: 0xC8 }
  - { offset: 0x70B53, size: 0x8, addend: 0x0, symName: __RNvXs0_NtNtNtCsfvfooZQ3Axs_4core4iter8adapters3mapINtB5_3MapIBN_INtNtCs5AlOhPCr03V_3syn10punctuated9IntoPairsNtNtB15_8generics14TypeParamBoundNtNtB15_5token3AddENvMsJ_B13_INtB13_4PairB1J_B2g_E10into_tupleENCINvXs_NtNtNtB15_3gen6helper4foldINtB13_10PunctuatedB1J_B2g_ENtB3p_10FoldHelper4liftNCINvNtB3t_4fold20fold_trait_item_typeNtNtCsdjy9FUDAuhT_18build_script_build11match_token16MatchTokenParserEs0_0E0ENtNtNtB9_6traits8iterator8Iterator4nextB5k_, symObjAddr: 0x125DC, symBinAddr: 0x100034EB0, symSize: 0xC8 }
  - { offset: 0x70BC6, size: 0x8, addend: 0x0, symName: __RNvXs0_NtNtNtCsfvfooZQ3Axs_4core4iter8adapters3mapINtB5_3MapIBN_INtNtCs5AlOhPCr03V_3syn10punctuated9IntoPairsNtNtB15_8generics14TypeParamBoundNtNtB15_5token3AddENvMsJ_B13_INtB13_4PairB1J_B2g_E10into_tupleENCINvXs_NtNtNtB15_3gen6helper4foldINtB13_10PunctuatedB1J_B2g_ENtB3p_10FoldHelper4liftNCINvNtB3t_4fold20fold_type_impl_traitNtNtCsdjy9FUDAuhT_18build_script_build11match_token16MatchTokenParserE0E0ENtNtNtB9_6traits8iterator8Iterator4nextB5k_, symObjAddr: 0x126A4, symBinAddr: 0x100034F78, symSize: 0xC8 }
  - { offset: 0x70C39, size: 0x8, addend: 0x0, symName: __RNvXs0_NtNtNtCsfvfooZQ3Axs_4core4iter8adapters3mapINtB5_3MapIBN_INtNtCs5AlOhPCr03V_3syn10punctuated9IntoPairsNtNtB15_8generics14TypeParamBoundNtNtB15_5token3AddENvMsJ_B13_INtB13_4PairB1J_B2g_E10into_tupleENCINvXs_NtNtNtB15_3gen6helper4foldINtB13_10PunctuatedB1J_B2g_ENtB3p_10FoldHelper4liftNCINvNtB3t_4fold21fold_item_trait_aliasNtNtCsdjy9FUDAuhT_18build_script_build11match_token16MatchTokenParserEs_0E0ENtNtNtB9_6traits8iterator8Iterator4nextB5l_, symObjAddr: 0x1276C, symBinAddr: 0x100035040, symSize: 0xC8 }
  - { offset: 0x70CAC, size: 0x8, addend: 0x0, symName: __RNvXs0_NtNtNtCsfvfooZQ3Axs_4core4iter8adapters3mapINtB5_3MapIBN_INtNtCs5AlOhPCr03V_3syn10punctuated9IntoPairsNtNtB15_8generics14TypeParamBoundNtNtB15_5token3AddENvMsJ_B13_INtB13_4PairB1J_B2g_E10into_tupleENCINvXs_NtNtNtB15_3gen6helper4foldINtB13_10PunctuatedB1J_B2g_ENtB3p_10FoldHelper4liftNCINvNtB3t_4fold22fold_type_trait_objectNtNtCsdjy9FUDAuhT_18build_script_build11match_token16MatchTokenParserEs_0E0ENtNtNtB9_6traits8iterator8Iterator4nextB5m_, symObjAddr: 0x12834, symBinAddr: 0x100035108, symSize: 0xC8 }
  - { offset: 0x70D1F, size: 0x8, addend: 0x0, symName: __RNvXs0_NtNtNtCsfvfooZQ3Axs_4core4iter8adapters3mapINtB5_3MapIBN_INtNtCs5AlOhPCr03V_3syn10punctuated9IntoPairsNtNtB15_8generics14WherePredicateNtNtB15_5token5CommaENvMsJ_B13_INtB13_4PairB1J_B2g_E10into_tupleENCINvXs_NtNtNtB15_3gen6helper4foldINtB13_10PunctuatedB1J_B2g_ENtB3r_10FoldHelper4liftNCINvNtB3v_4fold17fold_where_clauseNtNtCsdjy9FUDAuhT_18build_script_build11match_token16MatchTokenParserE0E0ENtNtNtB9_6traits8iterator8Iterator4nextB5j_, symObjAddr: 0x128FC, symBinAddr: 0x1000351D0, symSize: 0xD0 }
  - { offset: 0x70D92, size: 0x8, addend: 0x0, symName: __RNvXs0_NtNtNtCsfvfooZQ3Axs_4core4iter8adapters3mapINtB5_3MapIBN_INtNtCs5AlOhPCr03V_3syn10punctuated9IntoPairsNtNtB15_8lifetime8LifetimeNtNtB15_5token3AddENvMsJ_B13_INtB13_4PairB1J_B29_E10into_tupleENCINvXs_NtNtNtB15_3gen6helper4foldINtB13_10PunctuatedB1J_B29_ENtB3i_10FoldHelper4liftNCINvNtB3m_4fold17fold_lifetime_defNtNtCsdjy9FUDAuhT_18build_script_build11match_token16MatchTokenParserEs0_0E0ENtNtNtB9_6traits8iterator8Iterator4nextB5a_, symObjAddr: 0x129CC, symBinAddr: 0x1000352A0, symSize: 0xB4 }
  - { offset: 0x70E15, size: 0x8, addend: 0x0, symName: __RNvXs0_NtNtNtCsfvfooZQ3Axs_4core4iter8adapters3mapINtB5_3MapIBN_INtNtCs5AlOhPCr03V_3syn10punctuated9IntoPairsNtNtB15_8lifetime8LifetimeNtNtB15_5token3AddENvMsJ_B13_INtB13_4PairB1J_B29_E10into_tupleENCINvXs_NtNtNtB15_3gen6helper4foldINtB13_10PunctuatedB1J_B29_ENtB3i_10FoldHelper4liftNCINvNtB3m_4fold23fold_predicate_lifetimeNtNtCsdjy9FUDAuhT_18build_script_build11match_token16MatchTokenParserE0E0ENtNtNtB9_6traits8iterator8Iterator4nextB5g_, symObjAddr: 0x12A80, symBinAddr: 0x100035354, symSize: 0xB4 }
  - { offset: 0x70E98, size: 0x8, addend: 0x0, symName: __RNvXs0_NtNtNtCsfvfooZQ3Axs_4core4iter8adapters3mapINtB5_3MapINtNtCs5AlOhPCr03V_3syn10punctuated9IntoPairsNtNtB11_2ty4TypeNtNtB11_5token5CommaENvMsJ_BZ_INtBZ_4PairB1F_B1V_E10into_tupleENtNtNtB9_6traits8iterator8Iterator4nextCsdjy9FUDAuhT_18build_script_build, symObjAddr: 0x12B34, symBinAddr: 0x100035408, symSize: 0xD0 }
  - { offset: 0x70F0B, size: 0x8, addend: 0x0, symName: __RNvXs0_NtNtNtCsfvfooZQ3Axs_4core4iter8adapters3mapINtB5_3MapINtNtCs5AlOhPCr03V_3syn10punctuated9IntoPairsNtNtB11_2ty9BareFnArgNtNtB11_5token5CommaENvMsJ_BZ_INtBZ_4PairB1F_B20_E10into_tupleENtNtNtB9_6traits8iterator8Iterator4nextCsdjy9FUDAuhT_18build_script_build, symObjAddr: 0x12C04, symBinAddr: 0x1000354D8, symSize: 0xC8 }
  - { offset: 0x70F7E, size: 0x8, addend: 0x0, symName: __RNvXs0_NtNtNtCsfvfooZQ3Axs_4core4iter8adapters3mapINtB5_3MapINtNtCs5AlOhPCr03V_3syn10punctuated9IntoPairsNtNtB11_3pat3PatNtNtB11_5token2OrENvMsJ_BZ_INtBZ_4PairB1F_B1V_E10into_tupleENtNtNtB9_6traits8iterator8Iterator4nextCsdjy9FUDAuhT_18build_script_build, symObjAddr: 0x12CCC, symBinAddr: 0x1000355A0, symSize: 0xCC }
  - { offset: 0x70FF1, size: 0x8, addend: 0x0, symName: __RNvXs0_NtNtNtCsfvfooZQ3Axs_4core4iter8adapters3mapINtB5_3MapINtNtCs5AlOhPCr03V_3syn10punctuated9IntoPairsNtNtB11_3pat3PatNtNtB11_5token5CommaENvMsJ_BZ_INtBZ_4PairB1F_B1V_E10into_tupleENtNtNtB9_6traits8iterator8Iterator4nextCsdjy9FUDAuhT_18build_script_build, symObjAddr: 0x12D98, symBinAddr: 0x10003566C, symSize: 0xCC }
  - { offset: 0x71064, size: 0x8, addend: 0x0, symName: __RNvXs0_NtNtNtCsfvfooZQ3Axs_4core4iter8adapters3mapINtB5_3MapINtNtCs5AlOhPCr03V_3syn10punctuated9IntoPairsNtNtB11_3pat8FieldPatNtNtB11_5token5CommaENvMsJ_BZ_INtBZ_4PairB1F_B20_E10into_tupleENtNtNtB9_6traits8iterator8Iterator4nextCsdjy9FUDAuhT_18build_script_build, symObjAddr: 0x12E64, symBinAddr: 0x100035738, symSize: 0xC4 }
  - { offset: 0x710D7, size: 0x8, addend: 0x0, symName: __RNvXs0_NtNtNtCsfvfooZQ3Axs_4core4iter8adapters3mapINtB5_3MapINtNtCs5AlOhPCr03V_3syn10punctuated9IntoPairsNtNtB11_4data5FieldNtNtB11_5token5CommaENvMsJ_BZ_INtBZ_4PairB1F_B1Y_E10into_tupleENtNtNtB9_6traits8iterator8Iterator4nextCsdjy9FUDAuhT_18build_script_build, symObjAddr: 0x12F28, symBinAddr: 0x1000357FC, symSize: 0xC8 }
  - { offset: 0x7114A, size: 0x8, addend: 0x0, symName: __RNvXs0_NtNtNtCsfvfooZQ3Axs_4core4iter8adapters3mapINtB5_3MapINtNtCs5AlOhPCr03V_3syn10punctuated9IntoPairsNtNtB11_4data7VariantNtNtB11_5token5CommaENvMsJ_BZ_INtBZ_4PairB1F_B20_E10into_tupleENtNtNtB9_6traits8iterator8Iterator4nextCsdjy9FUDAuhT_18build_script_build, symObjAddr: 0x12FF0, symBinAddr: 0x1000358C4, symSize: 0xC4 }
  - { offset: 0x711BD, size: 0x8, addend: 0x0, symName: __RNvXs0_NtNtNtCsfvfooZQ3Axs_4core4iter8adapters3mapINtB5_3MapINtNtCs5AlOhPCr03V_3syn10punctuated9IntoPairsNtNtB11_4expr10FieldValueNtNtB11_5token5CommaENvMsJ_BZ_INtBZ_4PairB1F_B24_E10into_tupleENtNtNtB9_6traits8iterator8Iterator4nextCsdjy9FUDAuhT_18build_script_build, symObjAddr: 0x130B4, symBinAddr: 0x100035988, symSize: 0xC8 }
  - { offset: 0x71230, size: 0x8, addend: 0x0, symName: __RNvXs0_NtNtNtCsfvfooZQ3Axs_4core4iter8adapters3mapINtB5_3MapINtNtCs5AlOhPCr03V_3syn10punctuated9IntoPairsNtNtB11_4expr21GenericMethodArgumentNtNtB11_5token5CommaENvMsJ_BZ_INtBZ_4PairB1F_B2f_E10into_tupleENtNtNtB9_6traits8iterator8Iterator4nextCsdjy9FUDAuhT_18build_script_build, symObjAddr: 0x1317C, symBinAddr: 0x100035A50, symSize: 0xD0 }
  - { offset: 0x712A3, size: 0x8, addend: 0x0, symName: __RNvXs0_NtNtNtCsfvfooZQ3Axs_4core4iter8adapters3mapINtB5_3MapINtNtCs5AlOhPCr03V_3syn10punctuated9IntoPairsNtNtB11_4expr4ExprNtNtB11_5token5CommaENvMsJ_BZ_INtBZ_4PairB1F_B1X_E10into_tupleENtNtNtB9_6traits8iterator8Iterator4nextCsdjy9FUDAuhT_18build_script_build, symObjAddr: 0x1324C, symBinAddr: 0x100035B20, symSize: 0xD0 }
  - { offset: 0x71316, size: 0x8, addend: 0x0, symName: __RNvXs0_NtNtNtCsfvfooZQ3Axs_4core4iter8adapters3mapINtB5_3MapINtNtCs5AlOhPCr03V_3syn10punctuated9IntoPairsNtNtB11_4item5FnArgNtNtB11_5token5CommaENvMsJ_BZ_INtBZ_4PairB1F_B1Y_E10into_tupleENtNtNtB9_6traits8iterator8Iterator4nextCsdjy9FUDAuhT_18build_script_build, symObjAddr: 0x1331C, symBinAddr: 0x100035BF0, symSize: 0xC8 }
  - { offset: 0x71389, size: 0x8, addend: 0x0, symName: __RNvXs0_NtNtNtCsfvfooZQ3Axs_4core4iter8adapters3mapINtB5_3MapINtNtCs5AlOhPCr03V_3syn10punctuated9IntoPairsNtNtB11_4item7UseTreeNtNtB11_5token5CommaENvMsJ_BZ_INtBZ_4PairB1F_B20_E10into_tupleENtNtNtB9_6traits8iterator8Iterator4nextCsdjy9FUDAuhT_18build_script_build, symObjAddr: 0x133E4, symBinAddr: 0x100035CB8, symSize: 0xC0 }
  - { offset: 0x713FC, size: 0x8, addend: 0x0, symName: __RNvXs0_NtNtNtCsfvfooZQ3Axs_4core4iter8adapters3mapINtB5_3MapINtNtCs5AlOhPCr03V_3syn10punctuated9IntoPairsNtNtB11_4path11PathSegmentNtNtB11_5token6Colon2ENvMsJ_BZ_INtBZ_4PairB1F_B25_E10into_tupleENtNtNtB9_6traits8iterator8Iterator4nextCsdjy9FUDAuhT_18build_script_build, symObjAddr: 0x134A4, symBinAddr: 0x100035D78, symSize: 0xC4 }
  - { offset: 0x7146F, size: 0x8, addend: 0x0, symName: __RNvXs0_NtNtNtCsfvfooZQ3Axs_4core4iter8adapters3mapINtB5_3MapINtNtCs5AlOhPCr03V_3syn10punctuated9IntoPairsNtNtB11_4path15GenericArgumentNtNtB11_5token5CommaENvMsJ_BZ_INtBZ_4PairB1F_B29_E10into_tupleENtNtNtB9_6traits8iterator8Iterator4nextCsdjy9FUDAuhT_18build_script_build, symObjAddr: 0x13568, symBinAddr: 0x100035E3C, symSize: 0xD0 }
  - { offset: 0x714E2, size: 0x8, addend: 0x0, symName: __RNvXs0_NtNtNtCsfvfooZQ3Axs_4core4iter8adapters3mapINtB5_3MapINtNtCs5AlOhPCr03V_3syn10punctuated9IntoPairsNtNtB11_8generics11LifetimeDefNtNtB11_5token5CommaENvMsJ_BZ_INtBZ_4PairB1F_B29_E10into_tupleENtNtNtB9_6traits8iterator8Iterator4nextCsdjy9FUDAuhT_18build_script_build, symObjAddr: 0x13638, symBinAddr: 0x100035F0C, symSize: 0xC4 }
  - { offset: 0x71555, size: 0x8, addend: 0x0, symName: __RNvXs0_NtNtNtCsfvfooZQ3Axs_4core4iter8adapters3mapINtB5_3MapINtNtCs5AlOhPCr03V_3syn10punctuated9IntoPairsNtNtB11_8generics12GenericParamNtNtB11_5token5CommaENvMsJ_BZ_INtBZ_4PairB1F_B2a_E10into_tupleENtNtNtB9_6traits8iterator8Iterator4nextCsdjy9FUDAuhT_18build_script_build, symObjAddr: 0x136FC, symBinAddr: 0x100035FD0, symSize: 0xCC }
  - { offset: 0x715C8, size: 0x8, addend: 0x0, symName: __RNvXs0_NtNtNtCsfvfooZQ3Axs_4core4iter8adapters3mapINtB5_3MapINtNtCs5AlOhPCr03V_3syn10punctuated9IntoPairsNtNtB11_8generics14TypeParamBoundNtNtB11_5token3AddENvMsJ_BZ_INtBZ_4PairB1F_B2c_E10into_tupleENtNtNtB9_6traits8iterator8Iterator4nextCsdjy9FUDAuhT_18build_script_build, symObjAddr: 0x137C8, symBinAddr: 0x10003609C, symSize: 0xC8 }
  - { offset: 0x7163B, size: 0x8, addend: 0x0, symName: __RNvXs0_NtNtNtCsfvfooZQ3Axs_4core4iter8adapters3mapINtB5_3MapINtNtCs5AlOhPCr03V_3syn10punctuated9IntoPairsNtNtB11_8generics14WherePredicateNtNtB11_5token5CommaENvMsJ_BZ_INtBZ_4PairB1F_B2c_E10into_tupleENtNtNtB9_6traits8iterator8Iterator4nextCsdjy9FUDAuhT_18build_script_build, symObjAddr: 0x13890, symBinAddr: 0x100036164, symSize: 0xD0 }
  - { offset: 0x716AE, size: 0x8, addend: 0x0, symName: __RNvXs0_NtNtNtCsfvfooZQ3Axs_4core4iter8adapters3mapINtB5_3MapINtNtCs5AlOhPCr03V_3syn10punctuated9IntoPairsNtNtB11_8lifetime8LifetimeNtNtB11_5token3AddENvMsJ_BZ_INtBZ_4PairB1F_B25_E10into_tupleENtNtNtB9_6traits8iterator8Iterator4nextCsdjy9FUDAuhT_18build_script_build, symObjAddr: 0x13960, symBinAddr: 0x100036234, symSize: 0xB8 }
  - { offset: 0x71721, size: 0x8, addend: 0x0, symName: __RNvXs0_NtNtNtCsfvfooZQ3Axs_4core4iter8adapters3mapINtB5_3MapINtNtNtBb_5slice4iter4IterhENCNvNtCse1nGBsou5OW_5alloc3str13replace_ascii0ENtNtNtB9_6traits8iterator8Iterator9size_hintCsdjy9FUDAuhT_18build_script_build, symObjAddr: 0x13A18, symBinAddr: 0x1000362EC, symSize: 0x24 }
  - { offset: 0x72807, size: 0x8, addend: 0x0, symName: __RNCINvNtNtNtCsfvfooZQ3Axs_4core4iter8adapters3map12map_try_foldNtNtCs5AlOhPCr03V_3syn4attr9AttributeBZ_INtNtNtCse1nGBsou5OW_5alloc3vec13in_place_drop11InPlaceDropBZ_EINtNtBa_6result6ResultB1D_zENCINvNtNtB13_3gen4fold10fold_fieldNtNtCsdjy9FUDAuhT_18build_script_build11match_token16MatchTokenParserE0NCINvNtB1I_16in_place_collect24write_in_place_with_dropBZ_E0E0B3I_, symObjAddr: 0x3738, symBinAddr: 0x10002600C, symSize: 0x118 }
  - { offset: 0x7289A, size: 0x8, addend: 0x0, symName: __RNCINvNtNtNtCsfvfooZQ3Axs_4core4iter8adapters3map12map_try_foldNtNtCs5AlOhPCr03V_3syn4attr9AttributeBZ_INtNtNtCse1nGBsou5OW_5alloc3vec13in_place_drop11InPlaceDropBZ_EINtNtBa_6result6ResultB1D_zENCINvNtNtB13_3gen4fold10fold_localNtNtCsdjy9FUDAuhT_18build_script_build11match_token16MatchTokenParserE0NCINvNtB1I_16in_place_collect24write_in_place_with_dropBZ_E0E0B3I_, symObjAddr: 0x3850, symBinAddr: 0x100026124, symSize: 0x118 }
  - { offset: 0x7292D, size: 0x8, addend: 0x0, symName: __RNCINvNtNtNtCsfvfooZQ3Axs_4core4iter8adapters3map12map_try_foldNtNtCs5AlOhPCr03V_3syn4attr9AttributeBZ_INtNtNtCse1nGBsou5OW_5alloc3vec13in_place_drop11InPlaceDropBZ_EINtNtBa_6result6ResultB1D_zENCINvNtNtB13_3gen4fold11fold_pat_orNtNtCsdjy9FUDAuhT_18build_script_build11match_token16MatchTokenParserE0NCINvNtB1I_16in_place_collect24write_in_place_with_dropBZ_E0E0B3J_, symObjAddr: 0x3968, symBinAddr: 0x10002623C, symSize: 0x118 }
  - { offset: 0x729C0, size: 0x8, addend: 0x0, symName: __RNCINvNtNtNtCsfvfooZQ3Axs_4core4iter8adapters3map12map_try_foldNtNtCs5AlOhPCr03V_3syn4attr9AttributeBZ_INtNtNtCse1nGBsou5OW_5alloc3vec13in_place_drop11InPlaceDropBZ_EINtNtBa_6result6ResultB1D_zENCINvNtNtB13_3gen4fold12fold_expr_ifNtNtCsdjy9FUDAuhT_18build_script_build11match_token16MatchTokenParserE0NCINvNtB1I_16in_place_collect24write_in_place_with_dropBZ_E0E0B3K_, symObjAddr: 0x3A80, symBinAddr: 0x100026354, symSize: 0x118 }
  - { offset: 0x72A53, size: 0x8, addend: 0x0, symName: __RNCINvNtNtNtCsfvfooZQ3Axs_4core4iter8adapters3map12map_try_foldNtNtCs5AlOhPCr03V_3syn4attr9AttributeBZ_INtNtNtCse1nGBsou5OW_5alloc3vec13in_place_drop11InPlaceDropBZ_EINtNtBa_6result6ResultB1D_zENCINvNtNtB13_3gen4fold12fold_item_fnNtNtCsdjy9FUDAuhT_18build_script_build11match_token16MatchTokenParserE0NCINvNtB1I_16in_place_collect24write_in_place_with_dropBZ_E0E0B3K_, symObjAddr: 0x3B98, symBinAddr: 0x10002646C, symSize: 0x118 }
  - { offset: 0x72AE6, size: 0x8, addend: 0x0, symName: __RNCINvNtNtNtCsfvfooZQ3Axs_4core4iter8adapters3map12map_try_foldNtNtCs5AlOhPCr03V_3syn4attr9AttributeBZ_INtNtNtCse1nGBsou5OW_5alloc3vec13in_place_drop11InPlaceDropBZ_EINtNtBa_6result6ResultB1D_zENCINvNtNtB13_3gen4fold12fold_pat_boxNtNtCsdjy9FUDAuhT_18build_script_build11match_token16MatchTokenParserE0NCINvNtB1I_16in_place_collect24write_in_place_with_dropBZ_E0E0B3K_, symObjAddr: 0x3CB0, symBinAddr: 0x100026584, symSize: 0x118 }
  - { offset: 0x72B79, size: 0x8, addend: 0x0, symName: __RNCINvNtNtNtCsfvfooZQ3Axs_4core4iter8adapters3map12map_try_foldNtNtCs5AlOhPCr03V_3syn4attr9AttributeBZ_INtNtNtCse1nGBsou5OW_5alloc3vec13in_place_drop11InPlaceDropBZ_EINtNtBa_6result6ResultB1D_zENCINvNtNtB13_3gen4fold12fold_pat_litNtNtCsdjy9FUDAuhT_18build_script_build11match_token16MatchTokenParserE0NCINvNtB1I_16in_place_collect24write_in_place_with_dropBZ_E0E0B3K_, symObjAddr: 0x3DC8, symBinAddr: 0x10002669C, symSize: 0x118 }
  - { offset: 0x72C0C, size: 0x8, addend: 0x0, symName: __RNCINvNtNtNtCsfvfooZQ3Axs_4core4iter8adapters3map12map_try_foldNtNtCs5AlOhPCr03V_3syn4attr9AttributeBZ_INtNtNtCse1nGBsou5OW_5alloc3vec13in_place_drop11InPlaceDropBZ_EINtNtBa_6result6ResultB1D_zENCINvNtNtB13_3gen4fold12fold_variantNtNtCsdjy9FUDAuhT_18build_script_build11match_token16MatchTokenParserE0NCINvNtB1I_16in_place_collect24write_in_place_with_dropBZ_E0E0B3K_, symObjAddr: 0x3EE0, symBinAddr: 0x1000267B4, symSize: 0x118 }
  - { offset: 0x72C9F, size: 0x8, addend: 0x0, symName: __RNCINvNtNtNtCsfvfooZQ3Axs_4core4iter8adapters3map12map_try_foldNtNtCs5AlOhPCr03V_3syn4attr9AttributeBZ_INtNtNtCse1nGBsou5OW_5alloc3vec13in_place_drop11InPlaceDropBZ_EINtNtBa_6result6ResultB1D_zENCINvNtNtB13_3gen4fold13fold_expr_boxNtNtCsdjy9FUDAuhT_18build_script_build11match_token16MatchTokenParserE0NCINvNtB1I_16in_place_collect24write_in_place_with_dropBZ_E0E0B3L_, symObjAddr: 0x3FF8, symBinAddr: 0x1000268CC, symSize: 0x118 }
  - { offset: 0x72D32, size: 0x8, addend: 0x0, symName: __RNCINvNtNtNtCsfvfooZQ3Axs_4core4iter8adapters3map12map_try_foldNtNtCs5AlOhPCr03V_3syn4attr9AttributeBZ_INtNtNtCse1nGBsou5OW_5alloc3vec13in_place_drop11InPlaceDropBZ_EINtNtBa_6result6ResultB1D_zENCINvNtNtB13_3gen4fold13fold_expr_letNtNtCsdjy9FUDAuhT_18build_script_build11match_token16MatchTokenParserE0NCINvNtB1I_16in_place_collect24write_in_place_with_dropBZ_E0E0B3L_, symObjAddr: 0x4110, symBinAddr: 0x1000269E4, symSize: 0x118 }
  - { offset: 0x72DC5, size: 0x8, addend: 0x0, symName: __RNCINvNtNtNtCsfvfooZQ3Axs_4core4iter8adapters3map12map_try_foldNtNtCs5AlOhPCr03V_3syn4attr9AttributeBZ_INtNtNtCse1nGBsou5OW_5alloc3vec13in_place_drop11InPlaceDropBZ_EINtNtBa_6result6ResultB1D_zENCINvNtNtB13_3gen4fold13fold_expr_litNtNtCsdjy9FUDAuhT_18build_script_build11match_token16MatchTokenParserE0NCINvNtB1I_16in_place_collect24write_in_place_with_dropBZ_E0E0B3L_, symObjAddr: 0x4228, symBinAddr: 0x100026AFC, symSize: 0x118 }
  - { offset: 0x72E58, size: 0x8, addend: 0x0, symName: __RNCINvNtNtNtCsfvfooZQ3Axs_4core4iter8adapters3map12map_try_foldNtNtCs5AlOhPCr03V_3syn4attr9AttributeBZ_INtNtNtCse1nGBsou5OW_5alloc3vec13in_place_drop11InPlaceDropBZ_EINtNtBa_6result6ResultB1D_zENCINvNtNtB13_3gen4fold13fold_expr_tryNtNtCsdjy9FUDAuhT_18build_script_build11match_token16MatchTokenParserE0NCINvNtB1I_16in_place_collect24write_in_place_with_dropBZ_E0E0B3L_, symObjAddr: 0x4340, symBinAddr: 0x100026C14, symSize: 0x118 }
  - { offset: 0x72EEB, size: 0x8, addend: 0x0, symName: __RNCINvNtNtNtCsfvfooZQ3Axs_4core4iter8adapters3map12map_try_foldNtNtCs5AlOhPCr03V_3syn4attr9AttributeBZ_INtNtNtCse1nGBsou5OW_5alloc3vec13in_place_drop11InPlaceDropBZ_EINtNtBa_6result6ResultB1D_zENCINvNtNtB13_3gen4fold13fold_item_modNtNtCsdjy9FUDAuhT_18build_script_build11match_token16MatchTokenParserE0NCINvNtB1I_16in_place_collect24write_in_place_with_dropBZ_E0E0B3L_, symObjAddr: 0x4458, symBinAddr: 0x100026D2C, symSize: 0x118 }
  - { offset: 0x72F7E, size: 0x8, addend: 0x0, symName: __RNCINvNtNtNtCsfvfooZQ3Axs_4core4iter8adapters3map12map_try_foldNtNtCs5AlOhPCr03V_3syn4attr9AttributeBZ_INtNtNtCse1nGBsou5OW_5alloc3vec13in_place_drop11InPlaceDropBZ_EINtNtBa_6result6ResultB1D_zENCINvNtNtB13_3gen4fold13fold_item_useNtNtCsdjy9FUDAuhT_18build_script_build11match_token16MatchTokenParserE0NCINvNtB1I_16in_place_collect24write_in_place_with_dropBZ_E0E0B3L_, symObjAddr: 0x4570, symBinAddr: 0x100026E44, symSize: 0x118 }
  - { offset: 0x73011, size: 0x8, addend: 0x0, symName: __RNCINvNtNtNtCsfvfooZQ3Axs_4core4iter8adapters3map12map_try_foldNtNtCs5AlOhPCr03V_3syn4attr9AttributeBZ_INtNtNtCse1nGBsou5OW_5alloc3vec13in_place_drop11InPlaceDropBZ_EINtNtBa_6result6ResultB1D_zENCINvNtNtB13_3gen4fold13fold_pat_pathNtNtCsdjy9FUDAuhT_18build_script_build11match_token16MatchTokenParserE0NCINvNtB1I_16in_place_collect24write_in_place_with_dropBZ_E0E0B3L_, symObjAddr: 0x4688, symBinAddr: 0x100026F5C, symSize: 0x118 }
  - { offset: 0x730A4, size: 0x8, addend: 0x0, symName: __RNCINvNtNtNtCsfvfooZQ3Axs_4core4iter8adapters3map12map_try_foldNtNtCs5AlOhPCr03V_3syn4attr9AttributeBZ_INtNtNtCse1nGBsou5OW_5alloc3vec13in_place_drop11InPlaceDropBZ_EINtNtBa_6result6ResultB1D_zENCINvNtNtB13_3gen4fold13fold_pat_restNtNtCsdjy9FUDAuhT_18build_script_build11match_token16MatchTokenParserE0NCINvNtB1I_16in_place_collect24write_in_place_with_dropBZ_E0E0B3L_, symObjAddr: 0x47A0, symBinAddr: 0x100027074, symSize: 0x118 }
  - { offset: 0x73137, size: 0x8, addend: 0x0, symName: __RNCINvNtNtNtCsfvfooZQ3Axs_4core4iter8adapters3map12map_try_foldNtNtCs5AlOhPCr03V_3syn4attr9AttributeBZ_INtNtNtCse1nGBsou5OW_5alloc3vec13in_place_drop11InPlaceDropBZ_EINtNtBa_6result6ResultB1D_zENCINvNtNtB13_3gen4fold13fold_pat_typeNtNtCsdjy9FUDAuhT_18build_script_build11match_token16MatchTokenParserE0NCINvNtB1I_16in_place_collect24write_in_place_with_dropBZ_E0E0B3L_, symObjAddr: 0x48B8, symBinAddr: 0x10002718C, symSize: 0x118 }
  - { offset: 0x731CA, size: 0x8, addend: 0x0, symName: __RNCINvNtNtNtCsfvfooZQ3Axs_4core4iter8adapters3map12map_try_foldNtNtCs5AlOhPCr03V_3syn4attr9AttributeBZ_INtNtNtCse1nGBsou5OW_5alloc3vec13in_place_drop11InPlaceDropBZ_EINtNtBa_6result6ResultB1D_zENCINvNtNtB13_3gen4fold13fold_pat_wildNtNtCsdjy9FUDAuhT_18build_script_build11match_token16MatchTokenParserE0NCINvNtB1I_16in_place_collect24write_in_place_with_dropBZ_E0E0B3L_, symObjAddr: 0x49D0, symBinAddr: 0x1000272A4, symSize: 0x118 }
  - { offset: 0x7325D, size: 0x8, addend: 0x0, symName: __RNCINvNtNtNtCsfvfooZQ3Axs_4core4iter8adapters3map12map_try_foldNtNtCs5AlOhPCr03V_3syn4attr9AttributeBZ_INtNtNtCse1nGBsou5OW_5alloc3vec13in_place_drop11InPlaceDropBZ_EINtNtBa_6result6ResultB1D_zENCINvNtNtB13_3gen4fold13fold_receiverNtNtCsdjy9FUDAuhT_18build_script_build11match_token16MatchTokenParserE0NCINvNtB1I_16in_place_collect24write_in_place_with_dropBZ_E0E0B3L_, symObjAddr: 0x4AE8, symBinAddr: 0x1000273BC, symSize: 0x118 }
  - { offset: 0x732F0, size: 0x8, addend: 0x0, symName: __RNCINvNtNtNtCsfvfooZQ3Axs_4core4iter8adapters3map12map_try_foldNtNtCs5AlOhPCr03V_3syn4attr9AttributeBZ_INtNtNtCse1nGBsou5OW_5alloc3vec13in_place_drop11InPlaceDropBZ_EINtNtBa_6result6ResultB1D_zENCINvNtNtB13_3gen4fold13fold_variadicNtNtCsdjy9FUDAuhT_18build_script_build11match_token16MatchTokenParserE0NCINvNtB1I_16in_place_collect24write_in_place_with_dropBZ_E0E0B3L_, symObjAddr: 0x4C00, symBinAddr: 0x1000274D4, symSize: 0x118 }
  - { offset: 0x73383, size: 0x8, addend: 0x0, symName: __RNCINvNtNtNtCsfvfooZQ3Axs_4core4iter8adapters3map12map_try_foldNtNtCs5AlOhPCr03V_3syn4attr9AttributeBZ_INtNtNtCse1nGBsou5OW_5alloc3vec13in_place_drop11InPlaceDropBZ_EINtNtBa_6result6ResultB1D_zENCINvNtNtB13_3gen4fold14fold_expr_callNtNtCsdjy9FUDAuhT_18build_script_build11match_token16MatchTokenParserE0NCINvNtB1I_16in_place_collect24write_in_place_with_dropBZ_E0E0B3M_, symObjAddr: 0x4D18, symBinAddr: 0x1000275EC, symSize: 0x118 }
  - { offset: 0x73416, size: 0x8, addend: 0x0, symName: __RNCINvNtNtNtCsfvfooZQ3Axs_4core4iter8adapters3map12map_try_foldNtNtCs5AlOhPCr03V_3syn4attr9AttributeBZ_INtNtNtCse1nGBsou5OW_5alloc3vec13in_place_drop11InPlaceDropBZ_EINtNtBa_6result6ResultB1D_zENCINvNtNtB13_3gen4fold14fold_expr_castNtNtCsdjy9FUDAuhT_18build_script_build11match_token16MatchTokenParserE0NCINvNtB1I_16in_place_collect24write_in_place_with_dropBZ_E0E0B3M_, symObjAddr: 0x4E30, symBinAddr: 0x100027704, symSize: 0x118 }
  - { offset: 0x734A9, size: 0x8, addend: 0x0, symName: __RNCINvNtNtNtCsfvfooZQ3Axs_4core4iter8adapters3map12map_try_foldNtNtCs5AlOhPCr03V_3syn4attr9AttributeBZ_INtNtNtCse1nGBsou5OW_5alloc3vec13in_place_drop11InPlaceDropBZ_EINtNtBa_6result6ResultB1D_zENCINvNtNtB13_3gen4fold14fold_expr_loopNtNtCsdjy9FUDAuhT_18build_script_build11match_token16MatchTokenParserE0NCINvNtB1I_16in_place_collect24write_in_place_with_dropBZ_E0E0B3M_, symObjAddr: 0x4F48, symBinAddr: 0x10002781C, symSize: 0x118 }
  - { offset: 0x7353C, size: 0x8, addend: 0x0, symName: __RNCINvNtNtNtCsfvfooZQ3Axs_4core4iter8adapters3map12map_try_foldNtNtCs5AlOhPCr03V_3syn4attr9AttributeBZ_INtNtNtCse1nGBsou5OW_5alloc3vec13in_place_drop11InPlaceDropBZ_EINtNtBa_6result6ResultB1D_zENCINvNtNtB13_3gen4fold14fold_expr_pathNtNtCsdjy9FUDAuhT_18build_script_build11match_token16MatchTokenParserE0NCINvNtB1I_16in_place_collect24write_in_place_with_dropBZ_E0E0B3M_, symObjAddr: 0x5060, symBinAddr: 0x100027934, symSize: 0x118 }
  - { offset: 0x735CF, size: 0x8, addend: 0x0, symName: __RNCINvNtNtNtCsfvfooZQ3Axs_4core4iter8adapters3map12map_try_foldNtNtCs5AlOhPCr03V_3syn4attr9AttributeBZ_INtNtNtCse1nGBsou5OW_5alloc3vec13in_place_drop11InPlaceDropBZ_EINtNtBa_6result6ResultB1D_zENCINvNtNtB13_3gen4fold14fold_expr_typeNtNtCsdjy9FUDAuhT_18build_script_build11match_token16MatchTokenParserE0NCINvNtB1I_16in_place_collect24write_in_place_with_dropBZ_E0E0B3M_, symObjAddr: 0x5178, symBinAddr: 0x100027A4C, symSize: 0x118 }
  - { offset: 0x73662, size: 0x8, addend: 0x0, symName: __RNCINvNtNtNtCsfvfooZQ3Axs_4core4iter8adapters3map12map_try_foldNtNtCs5AlOhPCr03V_3syn4attr9AttributeBZ_INtNtNtCse1nGBsou5OW_5alloc3vec13in_place_drop11InPlaceDropBZ_EINtNtBa_6result6ResultB1D_zENCINvNtNtB13_3gen4fold14fold_field_patNtNtCsdjy9FUDAuhT_18build_script_build11match_token16MatchTokenParserE0NCINvNtB1I_16in_place_collect24write_in_place_with_dropBZ_E0E0B3M_, symObjAddr: 0x5290, symBinAddr: 0x100027B64, symSize: 0x118 }
  - { offset: 0x736F5, size: 0x8, addend: 0x0, symName: __RNCINvNtNtNtCsfvfooZQ3Axs_4core4iter8adapters3map12map_try_foldNtNtCs5AlOhPCr03V_3syn4attr9AttributeBZ_INtNtNtCse1nGBsou5OW_5alloc3vec13in_place_drop11InPlaceDropBZ_EINtNtBa_6result6ResultB1D_zENCINvNtNtB13_3gen4fold14fold_item_enumNtNtCsdjy9FUDAuhT_18build_script_build11match_token16MatchTokenParserE0NCINvNtB1I_16in_place_collect24write_in_place_with_dropBZ_E0E0B3M_, symObjAddr: 0x53A8, symBinAddr: 0x100027C7C, symSize: 0x118 }
  - { offset: 0x73788, size: 0x8, addend: 0x0, symName: __RNCINvNtNtNtCsfvfooZQ3Axs_4core4iter8adapters3map12map_try_foldNtNtCs5AlOhPCr03V_3syn4attr9AttributeBZ_INtNtNtCse1nGBsou5OW_5alloc3vec13in_place_drop11InPlaceDropBZ_EINtNtBa_6result6ResultB1D_zENCINvNtNtB13_3gen4fold14fold_item_implNtNtCsdjy9FUDAuhT_18build_script_build11match_token16MatchTokenParserE0NCINvNtB1I_16in_place_collect24write_in_place_with_dropBZ_E0E0B3M_, symObjAddr: 0x54C0, symBinAddr: 0x100027D94, symSize: 0x118 }
  - { offset: 0x7381B, size: 0x8, addend: 0x0, symName: __RNCINvNtNtNtCsfvfooZQ3Axs_4core4iter8adapters3map12map_try_foldNtNtCs5AlOhPCr03V_3syn4attr9AttributeBZ_INtNtNtCse1nGBsou5OW_5alloc3vec13in_place_drop11InPlaceDropBZ_EINtNtBa_6result6ResultB1D_zENCINvNtNtB13_3gen4fold14fold_item_typeNtNtCsdjy9FUDAuhT_18build_script_build11match_token16MatchTokenParserE0NCINvNtB1I_16in_place_collect24write_in_place_with_dropBZ_E0E0B3M_, symObjAddr: 0x55D8, symBinAddr: 0x100027EAC, symSize: 0x118 }
  - { offset: 0x738AE, size: 0x8, addend: 0x0, symName: __RNCINvNtNtNtCsfvfooZQ3Axs_4core4iter8adapters3map12map_try_foldNtNtCs5AlOhPCr03V_3syn4attr9AttributeBZ_INtNtNtCse1nGBsou5OW_5alloc3vec13in_place_drop11InPlaceDropBZ_EINtNtBa_6result6ResultB1D_zENCINvNtNtB13_3gen4fold14fold_pat_identNtNtCsdjy9FUDAuhT_18build_script_build11match_token16MatchTokenParserE0NCINvNtB1I_16in_place_collect24write_in_place_with_dropBZ_E0E0B3M_, symObjAddr: 0x56F0, symBinAddr: 0x100027FC4, symSize: 0x118 }
  - { offset: 0x73941, size: 0x8, addend: 0x0, symName: __RNCINvNtNtNtCsfvfooZQ3Axs_4core4iter8adapters3map12map_try_foldNtNtCs5AlOhPCr03V_3syn4attr9AttributeBZ_INtNtNtCse1nGBsou5OW_5alloc3vec13in_place_drop11InPlaceDropBZ_EINtNtBa_6result6ResultB1D_zENCINvNtNtB13_3gen4fold14fold_pat_macroNtNtCsdjy9FUDAuhT_18build_script_build11match_token16MatchTokenParserE0NCINvNtB1I_16in_place_collect24write_in_place_with_dropBZ_E0E0B3M_, symObjAddr: 0x5808, symBinAddr: 0x1000280DC, symSize: 0x118 }
  - { offset: 0x739D4, size: 0x8, addend: 0x0, symName: __RNCINvNtNtNtCsfvfooZQ3Axs_4core4iter8adapters3map12map_try_foldNtNtCs5AlOhPCr03V_3syn4attr9AttributeBZ_INtNtNtCse1nGBsou5OW_5alloc3vec13in_place_drop11InPlaceDropBZ_EINtNtBa_6result6ResultB1D_zENCINvNtNtB13_3gen4fold14fold_pat_rangeNtNtCsdjy9FUDAuhT_18build_script_build11match_token16MatchTokenParserE0NCINvNtB1I_16in_place_collect24write_in_place_with_dropBZ_E0E0B3M_, symObjAddr: 0x5920, symBinAddr: 0x1000281F4, symSize: 0x118 }
  - { offset: 0x73A67, size: 0x8, addend: 0x0, symName: __RNCINvNtNtNtCsfvfooZQ3Axs_4core4iter8adapters3map12map_try_foldNtNtCs5AlOhPCr03V_3syn4attr9AttributeBZ_INtNtNtCse1nGBsou5OW_5alloc3vec13in_place_drop11InPlaceDropBZ_EINtNtBa_6result6ResultB1D_zENCINvNtNtB13_3gen4fold14fold_pat_sliceNtNtCsdjy9FUDAuhT_18build_script_build11match_token16MatchTokenParserE0NCINvNtB1I_16in_place_collect24write_in_place_with_dropBZ_E0E0B3M_, symObjAddr: 0x5A38, symBinAddr: 0x10002830C, symSize: 0x118 }
  - { offset: 0x73AFA, size: 0x8, addend: 0x0, symName: __RNCINvNtNtNtCsfvfooZQ3Axs_4core4iter8adapters3map12map_try_foldNtNtCs5AlOhPCr03V_3syn4attr9AttributeBZ_INtNtNtCse1nGBsou5OW_5alloc3vec13in_place_drop11InPlaceDropBZ_EINtNtBa_6result6ResultB1D_zENCINvNtNtB13_3gen4fold14fold_pat_tupleNtNtCsdjy9FUDAuhT_18build_script_build11match_token16MatchTokenParserE0NCINvNtB1I_16in_place_collect24write_in_place_with_dropBZ_E0E0B3M_, symObjAddr: 0x5B50, symBinAddr: 0x100028424, symSize: 0x118 }
  - { offset: 0x73B8D, size: 0x8, addend: 0x0, symName: __RNCINvNtNtNtCsfvfooZQ3Axs_4core4iter8adapters3map12map_try_foldNtNtCs5AlOhPCr03V_3syn4attr9AttributeBZ_INtNtNtCse1nGBsou5OW_5alloc3vec13in_place_drop11InPlaceDropBZ_EINtNtBa_6result6ResultB1D_zENCINvNtNtB13_3gen4fold15fold_expr_arrayNtNtCsdjy9FUDAuhT_18build_script_build11match_token16MatchTokenParserE0NCINvNtB1I_16in_place_collect24write_in_place_with_dropBZ_E0E0B3N_, symObjAddr: 0x5C68, symBinAddr: 0x10002853C, symSize: 0x118 }
  - { offset: 0x73C20, size: 0x8, addend: 0x0, symName: __RNCINvNtNtNtCsfvfooZQ3Axs_4core4iter8adapters3map12map_try_foldNtNtCs5AlOhPCr03V_3syn4attr9AttributeBZ_INtNtNtCse1nGBsou5OW_5alloc3vec13in_place_drop11InPlaceDropBZ_EINtNtBa_6result6ResultB1D_zENCINvNtNtB13_3gen4fold15fold_expr_asyncNtNtCsdjy9FUDAuhT_18build_script_build11match_token16MatchTokenParserE0NCINvNtB1I_16in_place_collect24write_in_place_with_dropBZ_E0E0B3N_, symObjAddr: 0x5D80, symBinAddr: 0x100028654, symSize: 0x118 }
  - { offset: 0x73CB3, size: 0x8, addend: 0x0, symName: __RNCINvNtNtNtCsfvfooZQ3Axs_4core4iter8adapters3map12map_try_foldNtNtCs5AlOhPCr03V_3syn4attr9AttributeBZ_INtNtNtCse1nGBsou5OW_5alloc3vec13in_place_drop11InPlaceDropBZ_EINtNtBa_6result6ResultB1D_zENCINvNtNtB13_3gen4fold15fold_expr_awaitNtNtCsdjy9FUDAuhT_18build_script_build11match_token16MatchTokenParserE0NCINvNtB1I_16in_place_collect24write_in_place_with_dropBZ_E0E0B3N_, symObjAddr: 0x5E98, symBinAddr: 0x10002876C, symSize: 0x118 }
  - { offset: 0x73D46, size: 0x8, addend: 0x0, symName: __RNCINvNtNtNtCsfvfooZQ3Axs_4core4iter8adapters3map12map_try_foldNtNtCs5AlOhPCr03V_3syn4attr9AttributeBZ_INtNtNtCse1nGBsou5OW_5alloc3vec13in_place_drop11InPlaceDropBZ_EINtNtBa_6result6ResultB1D_zENCINvNtNtB13_3gen4fold15fold_expr_blockNtNtCsdjy9FUDAuhT_18build_script_build11match_token16MatchTokenParserE0NCINvNtB1I_16in_place_collect24write_in_place_with_dropBZ_E0E0B3N_, symObjAddr: 0x5FB0, symBinAddr: 0x100028884, symSize: 0x118 }
  - { offset: 0x73DD9, size: 0x8, addend: 0x0, symName: __RNCINvNtNtNtCsfvfooZQ3Axs_4core4iter8adapters3map12map_try_foldNtNtCs5AlOhPCr03V_3syn4attr9AttributeBZ_INtNtNtCse1nGBsou5OW_5alloc3vec13in_place_drop11InPlaceDropBZ_EINtNtBa_6result6ResultB1D_zENCINvNtNtB13_3gen4fold15fold_expr_breakNtNtCsdjy9FUDAuhT_18build_script_build11match_token16MatchTokenParserE0NCINvNtB1I_16in_place_collect24write_in_place_with_dropBZ_E0E0B3N_, symObjAddr: 0x60C8, symBinAddr: 0x10002899C, symSize: 0x118 }
  - { offset: 0x73E6C, size: 0x8, addend: 0x0, symName: __RNCINvNtNtNtCsfvfooZQ3Axs_4core4iter8adapters3map12map_try_foldNtNtCs5AlOhPCr03V_3syn4attr9AttributeBZ_INtNtNtCse1nGBsou5OW_5alloc3vec13in_place_drop11InPlaceDropBZ_EINtNtBa_6result6ResultB1D_zENCINvNtNtB13_3gen4fold15fold_expr_fieldNtNtCsdjy9FUDAuhT_18build_script_build11match_token16MatchTokenParserE0NCINvNtB1I_16in_place_collect24write_in_place_with_dropBZ_E0E0B3N_, symObjAddr: 0x61E0, symBinAddr: 0x100028AB4, symSize: 0x118 }
  - { offset: 0x73EFF, size: 0x8, addend: 0x0, symName: __RNCINvNtNtNtCsfvfooZQ3Axs_4core4iter8adapters3map12map_try_foldNtNtCs5AlOhPCr03V_3syn4attr9AttributeBZ_INtNtNtCse1nGBsou5OW_5alloc3vec13in_place_drop11InPlaceDropBZ_EINtNtBa_6result6ResultB1D_zENCINvNtNtB13_3gen4fold15fold_expr_groupNtNtCsdjy9FUDAuhT_18build_script_build11match_token16MatchTokenParserE0NCINvNtB1I_16in_place_collect24write_in_place_with_dropBZ_E0E0B3N_, symObjAddr: 0x62F8, symBinAddr: 0x100028BCC, symSize: 0x118 }
  - { offset: 0x73F92, size: 0x8, addend: 0x0, symName: __RNCINvNtNtNtCsfvfooZQ3Axs_4core4iter8adapters3map12map_try_foldNtNtCs5AlOhPCr03V_3syn4attr9AttributeBZ_INtNtNtCse1nGBsou5OW_5alloc3vec13in_place_drop11InPlaceDropBZ_EINtNtBa_6result6ResultB1D_zENCINvNtNtB13_3gen4fold15fold_expr_indexNtNtCsdjy9FUDAuhT_18build_script_build11match_token16MatchTokenParserE0NCINvNtB1I_16in_place_collect24write_in_place_with_dropBZ_E0E0B3N_, symObjAddr: 0x6410, symBinAddr: 0x100028CE4, symSize: 0x118 }
  - { offset: 0x74025, size: 0x8, addend: 0x0, symName: __RNCINvNtNtNtCsfvfooZQ3Axs_4core4iter8adapters3map12map_try_foldNtNtCs5AlOhPCr03V_3syn4attr9AttributeBZ_INtNtNtCse1nGBsou5OW_5alloc3vec13in_place_drop11InPlaceDropBZ_EINtNtBa_6result6ResultB1D_zENCINvNtNtB13_3gen4fold15fold_expr_macroNtNtCsdjy9FUDAuhT_18build_script_build11match_token16MatchTokenParserE0NCINvNtB1I_16in_place_collect24write_in_place_with_dropBZ_E0E0B3N_, symObjAddr: 0x6528, symBinAddr: 0x100028DFC, symSize: 0x118 }
  - { offset: 0x740B8, size: 0x8, addend: 0x0, symName: __RNCINvNtNtNtCsfvfooZQ3Axs_4core4iter8adapters3map12map_try_foldNtNtCs5AlOhPCr03V_3syn4attr9AttributeBZ_INtNtNtCse1nGBsou5OW_5alloc3vec13in_place_drop11InPlaceDropBZ_EINtNtBa_6result6ResultB1D_zENCINvNtNtB13_3gen4fold15fold_expr_matchNtNtCsdjy9FUDAuhT_18build_script_build11match_token16MatchTokenParserE0NCINvNtB1I_16in_place_collect24write_in_place_with_dropBZ_E0E0B3N_, symObjAddr: 0x6640, symBinAddr: 0x100028F14, symSize: 0x118 }
  - { offset: 0x7414B, size: 0x8, addend: 0x0, symName: __RNCINvNtNtNtCsfvfooZQ3Axs_4core4iter8adapters3map12map_try_foldNtNtCs5AlOhPCr03V_3syn4attr9AttributeBZ_INtNtNtCse1nGBsou5OW_5alloc3vec13in_place_drop11InPlaceDropBZ_EINtNtBa_6result6ResultB1D_zENCINvNtNtB13_3gen4fold15fold_expr_parenNtNtCsdjy9FUDAuhT_18build_script_build11match_token16MatchTokenParserE0NCINvNtB1I_16in_place_collect24write_in_place_with_dropBZ_E0E0B3N_, symObjAddr: 0x6758, symBinAddr: 0x10002902C, symSize: 0x118 }
  - { offset: 0x741DE, size: 0x8, addend: 0x0, symName: __RNCINvNtNtNtCsfvfooZQ3Axs_4core4iter8adapters3map12map_try_foldNtNtCs5AlOhPCr03V_3syn4attr9AttributeBZ_INtNtNtCse1nGBsou5OW_5alloc3vec13in_place_drop11InPlaceDropBZ_EINtNtBa_6result6ResultB1D_zENCINvNtNtB13_3gen4fold15fold_expr_rangeNtNtCsdjy9FUDAuhT_18build_script_build11match_token16MatchTokenParserE0NCINvNtB1I_16in_place_collect24write_in_place_with_dropBZ_E0E0B3N_, symObjAddr: 0x6870, symBinAddr: 0x100029144, symSize: 0x118 }
  - { offset: 0x74271, size: 0x8, addend: 0x0, symName: __RNCINvNtNtNtCsfvfooZQ3Axs_4core4iter8adapters3map12map_try_foldNtNtCs5AlOhPCr03V_3syn4attr9AttributeBZ_INtNtNtCse1nGBsou5OW_5alloc3vec13in_place_drop11InPlaceDropBZ_EINtNtBa_6result6ResultB1D_zENCINvNtNtB13_3gen4fold15fold_expr_tupleNtNtCsdjy9FUDAuhT_18build_script_build11match_token16MatchTokenParserE0NCINvNtB1I_16in_place_collect24write_in_place_with_dropBZ_E0E0B3N_, symObjAddr: 0x6988, symBinAddr: 0x10002925C, symSize: 0x118 }
  - { offset: 0x74304, size: 0x8, addend: 0x0, symName: __RNCINvNtNtNtCsfvfooZQ3Axs_4core4iter8adapters3map12map_try_foldNtNtCs5AlOhPCr03V_3syn4attr9AttributeBZ_INtNtNtCse1nGBsou5OW_5alloc3vec13in_place_drop11InPlaceDropBZ_EINtNtBa_6result6ResultB1D_zENCINvNtNtB13_3gen4fold15fold_expr_unaryNtNtCsdjy9FUDAuhT_18build_script_build11match_token16MatchTokenParserE0NCINvNtB1I_16in_place_collect24write_in_place_with_dropBZ_E0E0B3N_, symObjAddr: 0x6AA0, symBinAddr: 0x100029374, symSize: 0x118 }
  - { offset: 0x74397, size: 0x8, addend: 0x0, symName: __RNCINvNtNtNtCsfvfooZQ3Axs_4core4iter8adapters3map12map_try_foldNtNtCs5AlOhPCr03V_3syn4attr9AttributeBZ_INtNtNtCse1nGBsou5OW_5alloc3vec13in_place_drop11InPlaceDropBZ_EINtNtBa_6result6ResultB1D_zENCINvNtNtB13_3gen4fold15fold_expr_whileNtNtCsdjy9FUDAuhT_18build_script_build11match_token16MatchTokenParserE0NCINvNtB1I_16in_place_collect24write_in_place_with_dropBZ_E0E0B3N_, symObjAddr: 0x6BB8, symBinAddr: 0x10002948C, symSize: 0x118 }
  - { offset: 0x7442A, size: 0x8, addend: 0x0, symName: __RNCINvNtNtNtCsfvfooZQ3Axs_4core4iter8adapters3map12map_try_foldNtNtCs5AlOhPCr03V_3syn4attr9AttributeBZ_INtNtNtCse1nGBsou5OW_5alloc3vec13in_place_drop11InPlaceDropBZ_EINtNtBa_6result6ResultB1D_zENCINvNtNtB13_3gen4fold15fold_expr_yieldNtNtCsdjy9FUDAuhT_18build_script_build11match_token16MatchTokenParserE0NCINvNtB1I_16in_place_collect24write_in_place_with_dropBZ_E0E0B3N_, symObjAddr: 0x6CD0, symBinAddr: 0x1000295A4, symSize: 0x118 }
  - { offset: 0x744BD, size: 0x8, addend: 0x0, symName: __RNCINvNtNtNtCsfvfooZQ3Axs_4core4iter8adapters3map12map_try_foldNtNtCs5AlOhPCr03V_3syn4attr9AttributeBZ_INtNtNtCse1nGBsou5OW_5alloc3vec13in_place_drop11InPlaceDropBZ_EINtNtBa_6result6ResultB1D_zENCINvNtNtB13_3gen4fold15fold_item_constNtNtCsdjy9FUDAuhT_18build_script_build11match_token16MatchTokenParserE0NCINvNtB1I_16in_place_collect24write_in_place_with_dropBZ_E0E0B3N_, symObjAddr: 0x6DE8, symBinAddr: 0x1000296BC, symSize: 0x118 }
  - { offset: 0x74550, size: 0x8, addend: 0x0, symName: __RNCINvNtNtNtCsfvfooZQ3Axs_4core4iter8adapters3map12map_try_foldNtNtCs5AlOhPCr03V_3syn4attr9AttributeBZ_INtNtNtCse1nGBsou5OW_5alloc3vec13in_place_drop11InPlaceDropBZ_EINtNtBa_6result6ResultB1D_zENCINvNtNtB13_3gen4fold15fold_item_macroNtNtCsdjy9FUDAuhT_18build_script_build11match_token16MatchTokenParserE0NCINvNtB1I_16in_place_collect24write_in_place_with_dropBZ_E0E0B3N_, symObjAddr: 0x6F00, symBinAddr: 0x1000297D4, symSize: 0x118 }
  - { offset: 0x745E3, size: 0x8, addend: 0x0, symName: __RNCINvNtNtNtCsfvfooZQ3Axs_4core4iter8adapters3map12map_try_foldNtNtCs5AlOhPCr03V_3syn4attr9AttributeBZ_INtNtNtCse1nGBsou5OW_5alloc3vec13in_place_drop11InPlaceDropBZ_EINtNtBa_6result6ResultB1D_zENCINvNtNtB13_3gen4fold15fold_item_traitNtNtCsdjy9FUDAuhT_18build_script_build11match_token16MatchTokenParserE0NCINvNtB1I_16in_place_collect24write_in_place_with_dropBZ_E0E0B3N_, symObjAddr: 0x7018, symBinAddr: 0x1000298EC, symSize: 0x118 }
  - { offset: 0x74676, size: 0x8, addend: 0x0, symName: __RNCINvNtNtNtCsfvfooZQ3Axs_4core4iter8adapters3map12map_try_foldNtNtCs5AlOhPCr03V_3syn4attr9AttributeBZ_INtNtNtCse1nGBsou5OW_5alloc3vec13in_place_drop11InPlaceDropBZ_EINtNtBa_6result6ResultB1D_zENCINvNtNtB13_3gen4fold15fold_item_unionNtNtCsdjy9FUDAuhT_18build_script_build11match_token16MatchTokenParserE0NCINvNtB1I_16in_place_collect24write_in_place_with_dropBZ_E0E0B3N_, symObjAddr: 0x7130, symBinAddr: 0x100029A04, symSize: 0x118 }
  - { offset: 0x74709, size: 0x8, addend: 0x0, symName: __RNCINvNtNtNtCsfvfooZQ3Axs_4core4iter8adapters3map12map_try_foldNtNtCs5AlOhPCr03V_3syn4attr9AttributeBZ_INtNtNtCse1nGBsou5OW_5alloc3vec13in_place_drop11InPlaceDropBZ_EINtNtBa_6result6ResultB1D_zENCINvNtNtB13_3gen4fold15fold_pat_structNtNtCsdjy9FUDAuhT_18build_script_build11match_token16MatchTokenParserE0NCINvNtB1I_16in_place_collect24write_in_place_with_dropBZ_E0E0B3N_, symObjAddr: 0x7248, symBinAddr: 0x100029B1C, symSize: 0x118 }
  - { offset: 0x7479C, size: 0x8, addend: 0x0, symName: __RNCINvNtNtNtCsfvfooZQ3Axs_4core4iter8adapters3map12map_try_foldNtNtCs5AlOhPCr03V_3syn4attr9AttributeBZ_INtNtNtCse1nGBsou5OW_5alloc3vec13in_place_drop11InPlaceDropBZ_EINtNtBa_6result6ResultB1D_zENCINvNtNtB13_3gen4fold15fold_type_paramNtNtCsdjy9FUDAuhT_18build_script_build11match_token16MatchTokenParserE0NCINvNtB1I_16in_place_collect24write_in_place_with_dropBZ_E0E0B3N_, symObjAddr: 0x7360, symBinAddr: 0x100029C34, symSize: 0x118 }
  - { offset: 0x7482F, size: 0x8, addend: 0x0, symName: __RNCINvNtNtNtCsfvfooZQ3Axs_4core4iter8adapters3map12map_try_foldNtNtCs5AlOhPCr03V_3syn4attr9AttributeBZ_INtNtNtCse1nGBsou5OW_5alloc3vec13in_place_drop11InPlaceDropBZ_EINtNtBa_6result6ResultB1D_zENCINvNtNtB13_3gen4fold16fold_bare_fn_argNtNtCsdjy9FUDAuhT_18build_script_build11match_token16MatchTokenParserE0NCINvNtB1I_16in_place_collect24write_in_place_with_dropBZ_E0E0B3O_, symObjAddr: 0x7478, symBinAddr: 0x100029D4C, symSize: 0x118 }
  - { offset: 0x748C2, size: 0x8, addend: 0x0, symName: __RNCINvNtNtNtCsfvfooZQ3Axs_4core4iter8adapters3map12map_try_foldNtNtCs5AlOhPCr03V_3syn4attr9AttributeBZ_INtNtNtCse1nGBsou5OW_5alloc3vec13in_place_drop11InPlaceDropBZ_EINtNtBa_6result6ResultB1D_zENCINvNtNtB13_3gen4fold16fold_const_paramNtNtCsdjy9FUDAuhT_18build_script_build11match_token16MatchTokenParserE0NCINvNtB1I_16in_place_collect24write_in_place_with_dropBZ_E0E0B3O_, symObjAddr: 0x7590, symBinAddr: 0x100029E64, symSize: 0x118 }
  - { offset: 0x74955, size: 0x8, addend: 0x0, symName: __RNCINvNtNtNtCsfvfooZQ3Axs_4core4iter8adapters3map12map_try_foldNtNtCs5AlOhPCr03V_3syn4attr9AttributeBZ_INtNtNtCse1nGBsou5OW_5alloc3vec13in_place_drop11InPlaceDropBZ_EINtNtBa_6result6ResultB1D_zENCINvNtNtB13_3gen4fold16fold_expr_assignNtNtCsdjy9FUDAuhT_18build_script_build11match_token16MatchTokenParserE0NCINvNtB1I_16in_place_collect24write_in_place_with_dropBZ_E0E0B3O_, symObjAddr: 0x76A8, symBinAddr: 0x100029F7C, symSize: 0x118 }
  - { offset: 0x749E8, size: 0x8, addend: 0x0, symName: __RNCINvNtNtNtCsfvfooZQ3Axs_4core4iter8adapters3map12map_try_foldNtNtCs5AlOhPCr03V_3syn4attr9AttributeBZ_INtNtNtCse1nGBsou5OW_5alloc3vec13in_place_drop11InPlaceDropBZ_EINtNtBa_6result6ResultB1D_zENCINvNtNtB13_3gen4fold16fold_expr_binaryNtNtCsdjy9FUDAuhT_18build_script_build11match_token16MatchTokenParserE0NCINvNtB1I_16in_place_collect24write_in_place_with_dropBZ_E0E0B3O_, symObjAddr: 0x77C0, symBinAddr: 0x10002A094, symSize: 0x118 }
  - { offset: 0x74A7B, size: 0x8, addend: 0x0, symName: __RNCINvNtNtNtCsfvfooZQ3Axs_4core4iter8adapters3map12map_try_foldNtNtCs5AlOhPCr03V_3syn4attr9AttributeBZ_INtNtNtCse1nGBsou5OW_5alloc3vec13in_place_drop11InPlaceDropBZ_EINtNtBa_6result6ResultB1D_zENCINvNtNtB13_3gen4fold16fold_expr_repeatNtNtCsdjy9FUDAuhT_18build_script_build11match_token16MatchTokenParserE0NCINvNtB1I_16in_place_collect24write_in_place_with_dropBZ_E0E0B3O_, symObjAddr: 0x78D8, symBinAddr: 0x10002A1AC, symSize: 0x118 }
  - { offset: 0x74B0E, size: 0x8, addend: 0x0, symName: __RNCINvNtNtNtCsfvfooZQ3Axs_4core4iter8adapters3map12map_try_foldNtNtCs5AlOhPCr03V_3syn4attr9AttributeBZ_INtNtNtCse1nGBsou5OW_5alloc3vec13in_place_drop11InPlaceDropBZ_EINtNtBa_6result6ResultB1D_zENCINvNtNtB13_3gen4fold16fold_expr_returnNtNtCsdjy9FUDAuhT_18build_script_build11match_token16MatchTokenParserE0NCINvNtB1I_16in_place_collect24write_in_place_with_dropBZ_E0E0B3O_, symObjAddr: 0x79F0, symBinAddr: 0x10002A2C4, symSize: 0x118 }
  - { offset: 0x74BA1, size: 0x8, addend: 0x0, symName: __RNCINvNtNtNtCsfvfooZQ3Axs_4core4iter8adapters3map12map_try_foldNtNtCs5AlOhPCr03V_3syn4attr9AttributeBZ_INtNtNtCse1nGBsou5OW_5alloc3vec13in_place_drop11InPlaceDropBZ_EINtNtBa_6result6ResultB1D_zENCINvNtNtB13_3gen4fold16fold_expr_structNtNtCsdjy9FUDAuhT_18build_script_build11match_token16MatchTokenParserE0NCINvNtB1I_16in_place_collect24write_in_place_with_dropBZ_E0E0B3O_, symObjAddr: 0x7B08, symBinAddr: 0x10002A3DC, symSize: 0x118 }
  - { offset: 0x74C34, size: 0x8, addend: 0x0, symName: __RNCINvNtNtNtCsfvfooZQ3Axs_4core4iter8adapters3map12map_try_foldNtNtCs5AlOhPCr03V_3syn4attr9AttributeBZ_INtNtNtCse1nGBsou5OW_5alloc3vec13in_place_drop11InPlaceDropBZ_EINtNtBa_6result6ResultB1D_zENCINvNtNtB13_3gen4fold16fold_expr_unsafeNtNtCsdjy9FUDAuhT_18build_script_build11match_token16MatchTokenParserE0NCINvNtB1I_16in_place_collect24write_in_place_with_dropBZ_E0E0B3O_, symObjAddr: 0x7C20, symBinAddr: 0x10002A4F4, symSize: 0x118 }
  - { offset: 0x74CC7, size: 0x8, addend: 0x0, symName: __RNCINvNtNtNtCsfvfooZQ3Axs_4core4iter8adapters3map12map_try_foldNtNtCs5AlOhPCr03V_3syn4attr9AttributeBZ_INtNtNtCse1nGBsou5OW_5alloc3vec13in_place_drop11InPlaceDropBZ_EINtNtBa_6result6ResultB1D_zENCINvNtNtB13_3gen4fold16fold_field_valueNtNtCsdjy9FUDAuhT_18build_script_build11match_token16MatchTokenParserE0NCINvNtB1I_16in_place_collect24write_in_place_with_dropBZ_E0E0B3O_, symObjAddr: 0x7D38, symBinAddr: 0x10002A60C, symSize: 0x118 }
  - { offset: 0x74D5A, size: 0x8, addend: 0x0, symName: __RNCINvNtNtNtCsfvfooZQ3Axs_4core4iter8adapters3map12map_try_foldNtNtCs5AlOhPCr03V_3syn4attr9AttributeBZ_INtNtNtCse1nGBsou5OW_5alloc3vec13in_place_drop11InPlaceDropBZ_EINtNtBa_6result6ResultB1D_zENCINvNtNtB13_3gen4fold16fold_item_macro2NtNtCsdjy9FUDAuhT_18build_script_build11match_token16MatchTokenParserE0NCINvNtB1I_16in_place_collect24write_in_place_with_dropBZ_E0E0B3O_, symObjAddr: 0x7E50, symBinAddr: 0x10002A724, symSize: 0x118 }
  - { offset: 0x74DED, size: 0x8, addend: 0x0, symName: __RNCINvNtNtNtCsfvfooZQ3Axs_4core4iter8adapters3map12map_try_foldNtNtCs5AlOhPCr03V_3syn4attr9AttributeBZ_INtNtNtCse1nGBsou5OW_5alloc3vec13in_place_drop11InPlaceDropBZ_EINtNtBa_6result6ResultB1D_zENCINvNtNtB13_3gen4fold16fold_item_staticNtNtCsdjy9FUDAuhT_18build_script_build11match_token16MatchTokenParserE0NCINvNtB1I_16in_place_collect24write_in_place_with_dropBZ_E0E0B3O_, symObjAddr: 0x7F68, symBinAddr: 0x10002A83C, symSize: 0x118 }
  - { offset: 0x74E80, size: 0x8, addend: 0x0, symName: __RNCINvNtNtNtCsfvfooZQ3Axs_4core4iter8adapters3map12map_try_foldNtNtCs5AlOhPCr03V_3syn4attr9AttributeBZ_INtNtNtCse1nGBsou5OW_5alloc3vec13in_place_drop11InPlaceDropBZ_EINtNtBa_6result6ResultB1D_zENCINvNtNtB13_3gen4fold16fold_item_structNtNtCsdjy9FUDAuhT_18build_script_build11match_token16MatchTokenParserE0NCINvNtB1I_16in_place_collect24write_in_place_with_dropBZ_E0E0B3O_, symObjAddr: 0x8080, symBinAddr: 0x10002A954, symSize: 0x118 }
  - { offset: 0x74F13, size: 0x8, addend: 0x0, symName: __RNCINvNtNtNtCsfvfooZQ3Axs_4core4iter8adapters3map12map_try_foldNtNtCs5AlOhPCr03V_3syn4attr9AttributeBZ_INtNtNtCse1nGBsou5OW_5alloc3vec13in_place_drop11InPlaceDropBZ_EINtNtBa_6result6ResultB1D_zENCINvNtNtB13_3gen4fold17fold_expr_closureNtNtCsdjy9FUDAuhT_18build_script_build11match_token16MatchTokenParserE0NCINvNtB1I_16in_place_collect24write_in_place_with_dropBZ_E0E0B3P_, symObjAddr: 0x8198, symBinAddr: 0x10002AA6C, symSize: 0x118 }
  - { offset: 0x74FA6, size: 0x8, addend: 0x0, symName: __RNCINvNtNtNtCsfvfooZQ3Axs_4core4iter8adapters3map12map_try_foldNtNtCs5AlOhPCr03V_3syn4attr9AttributeBZ_INtNtNtCse1nGBsou5OW_5alloc3vec13in_place_drop11InPlaceDropBZ_EINtNtBa_6result6ResultB1D_zENCINvNtNtB13_3gen4fold17fold_lifetime_defNtNtCsdjy9FUDAuhT_18build_script_build11match_token16MatchTokenParserE0NCINvNtB1I_16in_place_collect24write_in_place_with_dropBZ_E0E0B3P_, symObjAddr: 0x82B0, symBinAddr: 0x10002AB84, symSize: 0x118 }
  - { offset: 0x75039, size: 0x8, addend: 0x0, symName: __RNCINvNtNtNtCsfvfooZQ3Axs_4core4iter8adapters3map12map_try_foldNtNtCs5AlOhPCr03V_3syn4attr9AttributeBZ_INtNtNtCse1nGBsou5OW_5alloc3vec13in_place_drop11InPlaceDropBZ_EINtNtBa_6result6ResultB1D_zENCINvNtNtB13_3gen4fold18fold_expr_continueNtNtCsdjy9FUDAuhT_18build_script_build11match_token16MatchTokenParserE0NCINvNtB1I_16in_place_collect24write_in_place_with_dropBZ_E0E0B3Q_, symObjAddr: 0x83C8, symBinAddr: 0x10002AC9C, symSize: 0x118 }
  - { offset: 0x750CC, size: 0x8, addend: 0x0, symName: __RNCINvNtNtNtCsfvfooZQ3Axs_4core4iter8adapters3map12map_try_foldNtNtCs5AlOhPCr03V_3syn4attr9AttributeBZ_INtNtNtCse1nGBsou5OW_5alloc3vec13in_place_drop11InPlaceDropBZ_EINtNtBa_6result6ResultB1D_zENCINvNtNtB13_3gen4fold18fold_expr_for_loopNtNtCsdjy9FUDAuhT_18build_script_build11match_token16MatchTokenParserE0NCINvNtB1I_16in_place_collect24write_in_place_with_dropBZ_E0E0B3Q_, symObjAddr: 0x84E0, symBinAddr: 0x10002ADB4, symSize: 0x118 }
  - { offset: 0x7515F, size: 0x8, addend: 0x0, symName: __RNCINvNtNtNtCsfvfooZQ3Axs_4core4iter8adapters3map12map_try_foldNtNtCs5AlOhPCr03V_3syn4attr9AttributeBZ_INtNtNtCse1nGBsou5OW_5alloc3vec13in_place_drop11InPlaceDropBZ_EINtNtBa_6result6ResultB1D_zENCINvNtNtB13_3gen4fold18fold_pat_referenceNtNtCsdjy9FUDAuhT_18build_script_build11match_token16MatchTokenParserE0NCINvNtB1I_16in_place_collect24write_in_place_with_dropBZ_E0E0B3Q_, symObjAddr: 0x85F8, symBinAddr: 0x10002AECC, symSize: 0x118 }
  - { offset: 0x751F2, size: 0x8, addend: 0x0, symName: __RNCINvNtNtNtCsfvfooZQ3Axs_4core4iter8adapters3map12map_try_foldNtNtCs5AlOhPCr03V_3syn4attr9AttributeBZ_INtNtNtCse1nGBsou5OW_5alloc3vec13in_place_drop11InPlaceDropBZ_EINtNtBa_6result6ResultB1D_zENCINvNtNtB13_3gen4fold19fold_expr_assign_opNtNtCsdjy9FUDAuhT_18build_script_build11match_token16MatchTokenParserE0NCINvNtB1I_16in_place_collect24write_in_place_with_dropBZ_E0E0B3R_, symObjAddr: 0x8710, symBinAddr: 0x10002AFE4, symSize: 0x118 }
  - { offset: 0x75285, size: 0x8, addend: 0x0, symName: __RNCINvNtNtNtCsfvfooZQ3Axs_4core4iter8adapters3map12map_try_foldNtNtCs5AlOhPCr03V_3syn4attr9AttributeBZ_INtNtNtCse1nGBsou5OW_5alloc3vec13in_place_drop11InPlaceDropBZ_EINtNtBa_6result6ResultB1D_zENCINvNtNtB13_3gen4fold19fold_expr_referenceNtNtCsdjy9FUDAuhT_18build_script_build11match_token16MatchTokenParserE0NCINvNtB1I_16in_place_collect24write_in_place_with_dropBZ_E0E0B3R_, symObjAddr: 0x8828, symBinAddr: 0x10002B0FC, symSize: 0x118 }
  - { offset: 0x75318, size: 0x8, addend: 0x0, symName: __RNCINvNtNtNtCsfvfooZQ3Axs_4core4iter8adapters3map12map_try_foldNtNtCs5AlOhPCr03V_3syn4attr9AttributeBZ_INtNtNtCse1nGBsou5OW_5alloc3vec13in_place_drop11InPlaceDropBZ_EINtNtBa_6result6ResultB1D_zENCINvNtNtB13_3gen4fold19fold_expr_try_blockNtNtCsdjy9FUDAuhT_18build_script_build11match_token16MatchTokenParserE0NCINvNtB1I_16in_place_collect24write_in_place_with_dropBZ_E0E0B3R_, symObjAddr: 0x8940, symBinAddr: 0x10002B214, symSize: 0x118 }
  - { offset: 0x753AB, size: 0x8, addend: 0x0, symName: __RNCINvNtNtNtCsfvfooZQ3Axs_4core4iter8adapters3map12map_try_foldNtNtCs5AlOhPCr03V_3syn4attr9AttributeBZ_INtNtNtCse1nGBsou5OW_5alloc3vec13in_place_drop11InPlaceDropBZ_EINtNtBa_6result6ResultB1D_zENCINvNtNtB13_3gen4fold19fold_impl_item_typeNtNtCsdjy9FUDAuhT_18build_script_build11match_token16MatchTokenParserE0NCINvNtB1I_16in_place_collect24write_in_place_with_dropBZ_E0E0B3R_, symObjAddr: 0x8A58, symBinAddr: 0x10002B32C, symSize: 0x118 }
  - { offset: 0x7543E, size: 0x8, addend: 0x0, symName: __RNCINvNtNtNtCsfvfooZQ3Axs_4core4iter8adapters3map12map_try_foldNtNtCs5AlOhPCr03V_3syn4attr9AttributeBZ_INtNtNtCse1nGBsou5OW_5alloc3vec13in_place_drop11InPlaceDropBZ_EINtNtBa_6result6ResultB1D_zENCINvNtNtB13_3gen4fold20fold_foreign_item_fnNtNtCsdjy9FUDAuhT_18build_script_build11match_token16MatchTokenParserE0NCINvNtB1I_16in_place_collect24write_in_place_with_dropBZ_E0E0B3S_, symObjAddr: 0x8B70, symBinAddr: 0x10002B444, symSize: 0x118 }
  - { offset: 0x754D1, size: 0x8, addend: 0x0, symName: __RNCINvNtNtNtCsfvfooZQ3Axs_4core4iter8adapters3map12map_try_foldNtNtCs5AlOhPCr03V_3syn4attr9AttributeBZ_INtNtNtCse1nGBsou5OW_5alloc3vec13in_place_drop11InPlaceDropBZ_EINtNtBa_6result6ResultB1D_zENCINvNtNtB13_3gen4fold20fold_impl_item_constNtNtCsdjy9FUDAuhT_18build_script_build11match_token16MatchTokenParserE0NCINvNtB1I_16in_place_collect24write_in_place_with_dropBZ_E0E0B3S_, symObjAddr: 0x8C88, symBinAddr: 0x10002B55C, symSize: 0x118 }
  - { offset: 0x75564, size: 0x8, addend: 0x0, symName: __RNCINvNtNtNtCsfvfooZQ3Axs_4core4iter8adapters3map12map_try_foldNtNtCs5AlOhPCr03V_3syn4attr9AttributeBZ_INtNtNtCse1nGBsou5OW_5alloc3vec13in_place_drop11InPlaceDropBZ_EINtNtBa_6result6ResultB1D_zENCINvNtNtB13_3gen4fold20fold_impl_item_macroNtNtCsdjy9FUDAuhT_18build_script_build11match_token16MatchTokenParserE0NCINvNtB1I_16in_place_collect24write_in_place_with_dropBZ_E0E0B3S_, symObjAddr: 0x8DA0, symBinAddr: 0x10002B674, symSize: 0x118 }
  - { offset: 0x755F7, size: 0x8, addend: 0x0, symName: __RNCINvNtNtNtCsfvfooZQ3Axs_4core4iter8adapters3map12map_try_foldNtNtCs5AlOhPCr03V_3syn4attr9AttributeBZ_INtNtNtCse1nGBsou5OW_5alloc3vec13in_place_drop11InPlaceDropBZ_EINtNtBa_6result6ResultB1D_zENCINvNtNtB13_3gen4fold20fold_trait_item_typeNtNtCsdjy9FUDAuhT_18build_script_build11match_token16MatchTokenParserE0NCINvNtB1I_16in_place_collect24write_in_place_with_dropBZ_E0E0B3S_, symObjAddr: 0x8EB8, symBinAddr: 0x10002B78C, symSize: 0x118 }
  - { offset: 0x7568A, size: 0x8, addend: 0x0, symName: __RNCINvNtNtNtCsfvfooZQ3Axs_4core4iter8adapters3map12map_try_foldNtNtCs5AlOhPCr03V_3syn4attr9AttributeBZ_INtNtNtCse1nGBsou5OW_5alloc3vec13in_place_drop11InPlaceDropBZ_EINtNtBa_6result6ResultB1D_zENCINvNtNtB13_3gen4fold21fold_expr_method_callNtNtCsdjy9FUDAuhT_18build_script_build11match_token16MatchTokenParserE0NCINvNtB1I_16in_place_collect24write_in_place_with_dropBZ_E0E0B3T_, symObjAddr: 0x8FD0, symBinAddr: 0x10002B8A4, symSize: 0x118 }
  - { offset: 0x7571D, size: 0x8, addend: 0x0, symName: __RNCINvNtNtNtCsfvfooZQ3Axs_4core4iter8adapters3map12map_try_foldNtNtCs5AlOhPCr03V_3syn4attr9AttributeBZ_INtNtNtCse1nGBsou5OW_5alloc3vec13in_place_drop11InPlaceDropBZ_EINtNtBa_6result6ResultB1D_zENCINvNtNtB13_3gen4fold21fold_impl_item_methodNtNtCsdjy9FUDAuhT_18build_script_build11match_token16MatchTokenParserE0NCINvNtB1I_16in_place_collect24write_in_place_with_dropBZ_E0E0B3T_, symObjAddr: 0x90E8, symBinAddr: 0x10002B9BC, symSize: 0x118 }
  - { offset: 0x757B0, size: 0x8, addend: 0x0, symName: __RNCINvNtNtNtCsfvfooZQ3Axs_4core4iter8adapters3map12map_try_foldNtNtCs5AlOhPCr03V_3syn4attr9AttributeBZ_INtNtNtCse1nGBsou5OW_5alloc3vec13in_place_drop11InPlaceDropBZ_EINtNtBa_6result6ResultB1D_zENCINvNtNtB13_3gen4fold21fold_item_foreign_modNtNtCsdjy9FUDAuhT_18build_script_build11match_token16MatchTokenParserE0NCINvNtB1I_16in_place_collect24write_in_place_with_dropBZ_E0E0B3T_, symObjAddr: 0x9200, symBinAddr: 0x10002BAD4, symSize: 0x118 }
  - { offset: 0x75843, size: 0x8, addend: 0x0, symName: __RNCINvNtNtNtCsfvfooZQ3Axs_4core4iter8adapters3map12map_try_foldNtNtCs5AlOhPCr03V_3syn4attr9AttributeBZ_INtNtNtCse1nGBsou5OW_5alloc3vec13in_place_drop11InPlaceDropBZ_EINtNtBa_6result6ResultB1D_zENCINvNtNtB13_3gen4fold21fold_item_trait_aliasNtNtCsdjy9FUDAuhT_18build_script_build11match_token16MatchTokenParserE0NCINvNtB1I_16in_place_collect24write_in_place_with_dropBZ_E0E0B3T_, symObjAddr: 0x9318, symBinAddr: 0x10002BBEC, symSize: 0x118 }
  - { offset: 0x758D6, size: 0x8, addend: 0x0, symName: __RNCINvNtNtNtCsfvfooZQ3Axs_4core4iter8adapters3map12map_try_foldNtNtCs5AlOhPCr03V_3syn4attr9AttributeBZ_INtNtNtCse1nGBsou5OW_5alloc3vec13in_place_drop11InPlaceDropBZ_EINtNtBa_6result6ResultB1D_zENCINvNtNtB13_3gen4fold21fold_pat_tuple_structNtNtCsdjy9FUDAuhT_18build_script_build11match_token16MatchTokenParserE0NCINvNtB1I_16in_place_collect24write_in_place_with_dropBZ_E0E0B3T_, symObjAddr: 0x9430, symBinAddr: 0x10002BD04, symSize: 0x118 }
  - { offset: 0x75969, size: 0x8, addend: 0x0, symName: __RNCINvNtNtNtCsfvfooZQ3Axs_4core4iter8adapters3map12map_try_foldNtNtCs5AlOhPCr03V_3syn4attr9AttributeBZ_INtNtNtCse1nGBsou5OW_5alloc3vec13in_place_drop11InPlaceDropBZ_EINtNtBa_6result6ResultB1D_zENCINvNtNtB13_3gen4fold21fold_trait_item_constNtNtCsdjy9FUDAuhT_18build_script_build11match_token16MatchTokenParserE0NCINvNtB1I_16in_place_collect24write_in_place_with_dropBZ_E0E0B3T_, symObjAddr: 0x9548, symBinAddr: 0x10002BE1C, symSize: 0x118 }
  - { offset: 0x759FC, size: 0x8, addend: 0x0, symName: __RNCINvNtNtNtCsfvfooZQ3Axs_4core4iter8adapters3map12map_try_foldNtNtCs5AlOhPCr03V_3syn4attr9AttributeBZ_INtNtNtCse1nGBsou5OW_5alloc3vec13in_place_drop11InPlaceDropBZ_EINtNtBa_6result6ResultB1D_zENCINvNtNtB13_3gen4fold21fold_trait_item_macroNtNtCsdjy9FUDAuhT_18build_script_build11match_token16MatchTokenParserE0NCINvNtB1I_16in_place_collect24write_in_place_with_dropBZ_E0E0B3T_, symObjAddr: 0x9660, symBinAddr: 0x10002BF34, symSize: 0x118 }
  - { offset: 0x75A8F, size: 0x8, addend: 0x0, symName: __RNCINvNtNtNtCsfvfooZQ3Axs_4core4iter8adapters3map12map_try_foldNtNtCs5AlOhPCr03V_3syn4attr9AttributeBZ_INtNtNtCse1nGBsou5OW_5alloc3vec13in_place_drop11InPlaceDropBZ_EINtNtBa_6result6ResultB1D_zENCINvNtNtB13_3gen4fold22fold_foreign_item_typeNtNtCsdjy9FUDAuhT_18build_script_build11match_token16MatchTokenParserE0NCINvNtB1I_16in_place_collect24write_in_place_with_dropBZ_E0E0B3U_, symObjAddr: 0x9778, symBinAddr: 0x10002C04C, symSize: 0x118 }
  - { offset: 0x75B22, size: 0x8, addend: 0x0, symName: __RNCINvNtNtNtCsfvfooZQ3Axs_4core4iter8adapters3map12map_try_foldNtNtCs5AlOhPCr03V_3syn4attr9AttributeBZ_INtNtNtCse1nGBsou5OW_5alloc3vec13in_place_drop11InPlaceDropBZ_EINtNtBa_6result6ResultB1D_zENCINvNtNtB13_3gen4fold22fold_item_extern_crateNtNtCsdjy9FUDAuhT_18build_script_build11match_token16MatchTokenParserE0NCINvNtB1I_16in_place_collect24write_in_place_with_dropBZ_E0E0B3U_, symObjAddr: 0x9890, symBinAddr: 0x10002C164, symSize: 0x118 }
  - { offset: 0x75BB5, size: 0x8, addend: 0x0, symName: __RNCINvNtNtNtCsfvfooZQ3Axs_4core4iter8adapters3map12map_try_foldNtNtCs5AlOhPCr03V_3syn4attr9AttributeBZ_INtNtNtCse1nGBsou5OW_5alloc3vec13in_place_drop11InPlaceDropBZ_EINtNtBa_6result6ResultB1D_zENCINvNtNtB13_3gen4fold22fold_trait_item_methodNtNtCsdjy9FUDAuhT_18build_script_build11match_token16MatchTokenParserE0NCINvNtB1I_16in_place_collect24write_in_place_with_dropBZ_E0E0B3U_, symObjAddr: 0x99A8, symBinAddr: 0x10002C27C, symSize: 0x118 }
  - { offset: 0x75C48, size: 0x8, addend: 0x0, symName: __RNCINvNtNtNtCsfvfooZQ3Axs_4core4iter8adapters3map12map_try_foldNtNtCs5AlOhPCr03V_3syn4attr9AttributeBZ_INtNtNtCse1nGBsou5OW_5alloc3vec13in_place_drop11InPlaceDropBZ_EINtNtBa_6result6ResultB1D_zENCINvNtNtB13_3gen4fold23fold_foreign_item_macroNtNtCsdjy9FUDAuhT_18build_script_build11match_token16MatchTokenParserE0NCINvNtB1I_16in_place_collect24write_in_place_with_dropBZ_E0E0B3V_, symObjAddr: 0x9AC0, symBinAddr: 0x10002C394, symSize: 0x118 }
  - { offset: 0x75CDB, size: 0x8, addend: 0x0, symName: __RNCINvNtNtNtCsfvfooZQ3Axs_4core4iter8adapters3map12map_try_foldNtNtCs5AlOhPCr03V_3syn4attr9AttributeBZ_INtNtNtCse1nGBsou5OW_5alloc3vec13in_place_drop11InPlaceDropBZ_EINtNtBa_6result6ResultB1D_zENCINvNtNtB13_3gen4fold24fold_foreign_item_staticNtNtCsdjy9FUDAuhT_18build_script_build11match_token16MatchTokenParserE0NCINvNtB1I_16in_place_collect24write_in_place_with_dropBZ_E0E0B3W_, symObjAddr: 0x9BD8, symBinAddr: 0x10002C4AC, symSize: 0x118 }
  - { offset: 0x75D6E, size: 0x8, addend: 0x0, symName: __RNCINvNtNtNtCsfvfooZQ3Axs_4core4iter8adapters3map12map_try_foldNtNtCs5AlOhPCr03V_3syn4attr9AttributeBZ_INtNtNtCse1nGBsou5OW_5alloc3vec13in_place_drop11InPlaceDropBZ_EINtNtBa_6result6ResultB1D_zENCINvNtNtB13_3gen4fold8fold_armNtNtCsdjy9FUDAuhT_18build_script_build11match_token16MatchTokenParserE0NCINvNtB1I_16in_place_collect24write_in_place_with_dropBZ_E0E0B3F_, symObjAddr: 0x9CF0, symBinAddr: 0x10002C5C4, symSize: 0x118 }
  - { offset: 0x75E01, size: 0x8, addend: 0x0, symName: __RNCINvNtNtNtCsfvfooZQ3Axs_4core4iter8adapters3map12map_try_foldNtNtCs5AlOhPCr03V_3syn4attr9AttributeBZ_INtNtNtCse1nGBsou5OW_5alloc3vec13in_place_drop11InPlaceDropBZ_EINtNtBa_6result6ResultB1D_zENCINvNtNtB13_3gen4fold9fold_fileNtNtCsdjy9FUDAuhT_18build_script_build11match_token16MatchTokenParserE0NCINvNtB1I_16in_place_collect24write_in_place_with_dropBZ_E0E0B3G_, symObjAddr: 0x9E08, symBinAddr: 0x10002C6DC, symSize: 0x118 }
  - { offset: 0x75E94, size: 0x8, addend: 0x0, symName: __RNCINvNtNtNtCsfvfooZQ3Axs_4core4iter8adapters3map12map_try_foldNtNtCs5AlOhPCr03V_3syn4expr3ArmBZ_INtNtNtCse1nGBsou5OW_5alloc3vec13in_place_drop11InPlaceDropBZ_EINtNtBa_6result6ResultB1x_zENCINvNtNtB13_3gen4fold15fold_expr_matchNtNtCsdjy9FUDAuhT_18build_script_build11match_token16MatchTokenParserEs_0NCINvNtB1C_16in_place_collect24write_in_place_with_dropBZ_E0E0B3H_, symObjAddr: 0x9F20, symBinAddr: 0x10002C7F4, symSize: 0x118 }
  - { offset: 0x75F27, size: 0x8, addend: 0x0, symName: __RNCINvNtNtNtCsfvfooZQ3Axs_4core4iter8adapters3map12map_try_foldNtNtCs5AlOhPCr03V_3syn4item11ForeignItemBZ_INtNtNtCse1nGBsou5OW_5alloc3vec13in_place_drop11InPlaceDropBZ_EINtNtBa_6result6ResultB1G_zENCINvNtNtB13_3gen4fold21fold_item_foreign_modNtNtCsdjy9FUDAuhT_18build_script_build11match_token16MatchTokenParserEs_0NCINvNtB1L_16in_place_collect24write_in_place_with_dropBZ_E0E0B3W_, symObjAddr: 0xA038, symBinAddr: 0x10002C90C, symSize: 0x11C }
  - { offset: 0x75FBA, size: 0x8, addend: 0x0, symName: __RNCINvNtNtNtCsfvfooZQ3Axs_4core4iter8adapters3map12map_try_foldNtNtCs5AlOhPCr03V_3syn4item4ItemBZ_INtNtNtCse1nGBsou5OW_5alloc3vec13in_place_drop11InPlaceDropBZ_EINtNtBa_6result6ResultB1y_zENCINvNtNtB13_3gen4fold9fold_fileNtNtCsdjy9FUDAuhT_18build_script_build11match_token16MatchTokenParserEs_0NCINvNtB1D_16in_place_collect24write_in_place_with_dropBZ_E0E0B3B_, symObjAddr: 0xA154, symBinAddr: 0x10002CA28, symSize: 0x11C }
  - { offset: 0x7604D, size: 0x8, addend: 0x0, symName: __RNCINvNtNtNtCsfvfooZQ3Axs_4core4iter8adapters3map12map_try_foldNtNtCs5AlOhPCr03V_3syn4item4ItemBZ_INtNtNtCse1nGBsou5OW_5alloc3vec13in_place_drop11InPlaceDropBZ_EINtNtBa_6result6ResultB1y_zENCNCINvNtNtB13_3gen4fold13fold_item_modNtNtCsdjy9FUDAuhT_18build_script_build11match_token16MatchTokenParserEs_00NCINvNtB1D_16in_place_collect24write_in_place_with_dropBZ_E0E0B3I_, symObjAddr: 0xA270, symBinAddr: 0x10002CB44, symSize: 0x11C }
  - { offset: 0x760E0, size: 0x8, addend: 0x0, symName: __RNCINvNtNtNtCsfvfooZQ3Axs_4core4iter8adapters3map12map_try_foldNtNtCs5AlOhPCr03V_3syn4item8ImplItemBZ_INtNtNtCse1nGBsou5OW_5alloc3vec13in_place_drop11InPlaceDropBZ_EINtNtBa_6result6ResultB1C_zENCINvNtNtB13_3gen4fold14fold_item_implNtNtCsdjy9FUDAuhT_18build_script_build11match_token16MatchTokenParserEs2_0NCINvNtB1H_16in_place_collect24write_in_place_with_dropBZ_E0E0B3L_, symObjAddr: 0xA38C, symBinAddr: 0x10002CC60, symSize: 0x11C }
  - { offset: 0x76173, size: 0x8, addend: 0x0, symName: __RNCINvNtNtNtCsfvfooZQ3Axs_4core4iter8adapters3map12map_try_foldNtNtCs5AlOhPCr03V_3syn4item9TraitItemBZ_INtNtNtCse1nGBsou5OW_5alloc3vec13in_place_drop11InPlaceDropBZ_EINtNtBa_6result6ResultB1D_zENCINvNtNtB13_3gen4fold15fold_item_traitNtNtCsdjy9FUDAuhT_18build_script_build11match_token16MatchTokenParserEs3_0NCINvNtB1I_16in_place_collect24write_in_place_with_dropBZ_E0E0B3N_, symObjAddr: 0xA4A8, symBinAddr: 0x10002CD7C, symSize: 0x11C }
  - { offset: 0x76206, size: 0x8, addend: 0x0, symName: __RNCINvNtNtNtCsfvfooZQ3Axs_4core4iter8adapters3map12map_try_foldNtNtCs5AlOhPCr03V_3syn4stmt4StmtBZ_INtNtNtCse1nGBsou5OW_5alloc3vec13in_place_drop11InPlaceDropBZ_EINtNtBa_6result6ResultB1y_zENCINvNtNtB13_3gen4fold10fold_blockNtNtCsdjy9FUDAuhT_18build_script_build11match_token16MatchTokenParserE0NCINvNtB1D_16in_place_collect24write_in_place_with_dropBZ_E0E0B3D_, symObjAddr: 0xA5C4, symBinAddr: 0x10002CE98, symSize: 0x11C }
  - { offset: 0x7629F, size: 0x8, addend: 0x0, symName: __RNvXs9_NtNtNtCsfvfooZQ3Axs_4core4iter8adapters3mapINtB5_3MapINtNtNtCse1nGBsou5OW_5alloc3vec9into_iter8IntoIterNtNtCs5AlOhPCr03V_3syn4attr9AttributeENCINvNtNtB1O_3gen4fold10fold_fieldNtNtCsdjy9FUDAuhT_18build_script_build11match_token16MatchTokenParserE0ENtB7_10SourceIter8as_innerB2Y_, symObjAddr: 0x13A3C, symBinAddr: 0x100036310, symSize: 0x24 }
  - { offset: 0x762DD, size: 0x8, addend: 0x0, symName: __RNvXs9_NtNtNtCsfvfooZQ3Axs_4core4iter8adapters3mapINtB5_3MapINtNtNtCse1nGBsou5OW_5alloc3vec9into_iter8IntoIterNtNtCs5AlOhPCr03V_3syn4attr9AttributeENCINvNtNtB1O_3gen4fold10fold_localNtNtCsdjy9FUDAuhT_18build_script_build11match_token16MatchTokenParserE0ENtB7_10SourceIter8as_innerB2Y_, symObjAddr: 0x13A60, symBinAddr: 0x100036334, symSize: 0x24 }
  - { offset: 0x7631B, size: 0x8, addend: 0x0, symName: __RNvXs9_NtNtNtCsfvfooZQ3Axs_4core4iter8adapters3mapINtB5_3MapINtNtNtCse1nGBsou5OW_5alloc3vec9into_iter8IntoIterNtNtCs5AlOhPCr03V_3syn4attr9AttributeENCINvNtNtB1O_3gen4fold11fold_pat_orNtNtCsdjy9FUDAuhT_18build_script_build11match_token16MatchTokenParserE0ENtB7_10SourceIter8as_innerB2Z_, symObjAddr: 0x13A84, symBinAddr: 0x100036358, symSize: 0x24 }
  - { offset: 0x76359, size: 0x8, addend: 0x0, symName: __RNvXs9_NtNtNtCsfvfooZQ3Axs_4core4iter8adapters3mapINtB5_3MapINtNtNtCse1nGBsou5OW_5alloc3vec9into_iter8IntoIterNtNtCs5AlOhPCr03V_3syn4attr9AttributeENCINvNtNtB1O_3gen4fold12fold_expr_ifNtNtCsdjy9FUDAuhT_18build_script_build11match_token16MatchTokenParserE0ENtB7_10SourceIter8as_innerB30_, symObjAddr: 0x13AA8, symBinAddr: 0x10003637C, symSize: 0x24 }
  - { offset: 0x76397, size: 0x8, addend: 0x0, symName: __RNvXs9_NtNtNtCsfvfooZQ3Axs_4core4iter8adapters3mapINtB5_3MapINtNtNtCse1nGBsou5OW_5alloc3vec9into_iter8IntoIterNtNtCs5AlOhPCr03V_3syn4attr9AttributeENCINvNtNtB1O_3gen4fold12fold_item_fnNtNtCsdjy9FUDAuhT_18build_script_build11match_token16MatchTokenParserE0ENtB7_10SourceIter8as_innerB30_, symObjAddr: 0x13ACC, symBinAddr: 0x1000363A0, symSize: 0x24 }
  - { offset: 0x763D5, size: 0x8, addend: 0x0, symName: __RNvXs9_NtNtNtCsfvfooZQ3Axs_4core4iter8adapters3mapINtB5_3MapINtNtNtCse1nGBsou5OW_5alloc3vec9into_iter8IntoIterNtNtCs5AlOhPCr03V_3syn4attr9AttributeENCINvNtNtB1O_3gen4fold12fold_pat_boxNtNtCsdjy9FUDAuhT_18build_script_build11match_token16MatchTokenParserE0ENtB7_10SourceIter8as_innerB30_, symObjAddr: 0x13AF0, symBinAddr: 0x1000363C4, symSize: 0x24 }
  - { offset: 0x76413, size: 0x8, addend: 0x0, symName: __RNvXs9_NtNtNtCsfvfooZQ3Axs_4core4iter8adapters3mapINtB5_3MapINtNtNtCse1nGBsou5OW_5alloc3vec9into_iter8IntoIterNtNtCs5AlOhPCr03V_3syn4attr9AttributeENCINvNtNtB1O_3gen4fold12fold_pat_litNtNtCsdjy9FUDAuhT_18build_script_build11match_token16MatchTokenParserE0ENtB7_10SourceIter8as_innerB30_, symObjAddr: 0x13B14, symBinAddr: 0x1000363E8, symSize: 0x24 }
  - { offset: 0x76451, size: 0x8, addend: 0x0, symName: __RNvXs9_NtNtNtCsfvfooZQ3Axs_4core4iter8adapters3mapINtB5_3MapINtNtNtCse1nGBsou5OW_5alloc3vec9into_iter8IntoIterNtNtCs5AlOhPCr03V_3syn4attr9AttributeENCINvNtNtB1O_3gen4fold12fold_variantNtNtCsdjy9FUDAuhT_18build_script_build11match_token16MatchTokenParserE0ENtB7_10SourceIter8as_innerB30_, symObjAddr: 0x13B38, symBinAddr: 0x10003640C, symSize: 0x24 }
  - { offset: 0x7648F, size: 0x8, addend: 0x0, symName: __RNvXs9_NtNtNtCsfvfooZQ3Axs_4core4iter8adapters3mapINtB5_3MapINtNtNtCse1nGBsou5OW_5alloc3vec9into_iter8IntoIterNtNtCs5AlOhPCr03V_3syn4attr9AttributeENCINvNtNtB1O_3gen4fold13fold_expr_boxNtNtCsdjy9FUDAuhT_18build_script_build11match_token16MatchTokenParserE0ENtB7_10SourceIter8as_innerB31_, symObjAddr: 0x13B5C, symBinAddr: 0x100036430, symSize: 0x24 }
  - { offset: 0x764CD, size: 0x8, addend: 0x0, symName: __RNvXs9_NtNtNtCsfvfooZQ3Axs_4core4iter8adapters3mapINtB5_3MapINtNtNtCse1nGBsou5OW_5alloc3vec9into_iter8IntoIterNtNtCs5AlOhPCr03V_3syn4attr9AttributeENCINvNtNtB1O_3gen4fold13fold_expr_letNtNtCsdjy9FUDAuhT_18build_script_build11match_token16MatchTokenParserE0ENtB7_10SourceIter8as_innerB31_, symObjAddr: 0x13B80, symBinAddr: 0x100036454, symSize: 0x24 }
  - { offset: 0x7650B, size: 0x8, addend: 0x0, symName: __RNvXs9_NtNtNtCsfvfooZQ3Axs_4core4iter8adapters3mapINtB5_3MapINtNtNtCse1nGBsou5OW_5alloc3vec9into_iter8IntoIterNtNtCs5AlOhPCr03V_3syn4attr9AttributeENCINvNtNtB1O_3gen4fold13fold_expr_litNtNtCsdjy9FUDAuhT_18build_script_build11match_token16MatchTokenParserE0ENtB7_10SourceIter8as_innerB31_, symObjAddr: 0x13BA4, symBinAddr: 0x100036478, symSize: 0x24 }
  - { offset: 0x76549, size: 0x8, addend: 0x0, symName: __RNvXs9_NtNtNtCsfvfooZQ3Axs_4core4iter8adapters3mapINtB5_3MapINtNtNtCse1nGBsou5OW_5alloc3vec9into_iter8IntoIterNtNtCs5AlOhPCr03V_3syn4attr9AttributeENCINvNtNtB1O_3gen4fold13fold_expr_tryNtNtCsdjy9FUDAuhT_18build_script_build11match_token16MatchTokenParserE0ENtB7_10SourceIter8as_innerB31_, symObjAddr: 0x13BC8, symBinAddr: 0x10003649C, symSize: 0x24 }
  - { offset: 0x76587, size: 0x8, addend: 0x0, symName: __RNvXs9_NtNtNtCsfvfooZQ3Axs_4core4iter8adapters3mapINtB5_3MapINtNtNtCse1nGBsou5OW_5alloc3vec9into_iter8IntoIterNtNtCs5AlOhPCr03V_3syn4attr9AttributeENCINvNtNtB1O_3gen4fold13fold_item_modNtNtCsdjy9FUDAuhT_18build_script_build11match_token16MatchTokenParserE0ENtB7_10SourceIter8as_innerB31_, symObjAddr: 0x13BEC, symBinAddr: 0x1000364C0, symSize: 0x24 }
  - { offset: 0x765C5, size: 0x8, addend: 0x0, symName: __RNvXs9_NtNtNtCsfvfooZQ3Axs_4core4iter8adapters3mapINtB5_3MapINtNtNtCse1nGBsou5OW_5alloc3vec9into_iter8IntoIterNtNtCs5AlOhPCr03V_3syn4attr9AttributeENCINvNtNtB1O_3gen4fold13fold_item_useNtNtCsdjy9FUDAuhT_18build_script_build11match_token16MatchTokenParserE0ENtB7_10SourceIter8as_innerB31_, symObjAddr: 0x13C10, symBinAddr: 0x1000364E4, symSize: 0x24 }
  - { offset: 0x76603, size: 0x8, addend: 0x0, symName: __RNvXs9_NtNtNtCsfvfooZQ3Axs_4core4iter8adapters3mapINtB5_3MapINtNtNtCse1nGBsou5OW_5alloc3vec9into_iter8IntoIterNtNtCs5AlOhPCr03V_3syn4attr9AttributeENCINvNtNtB1O_3gen4fold13fold_pat_pathNtNtCsdjy9FUDAuhT_18build_script_build11match_token16MatchTokenParserE0ENtB7_10SourceIter8as_innerB31_, symObjAddr: 0x13C34, symBinAddr: 0x100036508, symSize: 0x24 }
  - { offset: 0x76641, size: 0x8, addend: 0x0, symName: __RNvXs9_NtNtNtCsfvfooZQ3Axs_4core4iter8adapters3mapINtB5_3MapINtNtNtCse1nGBsou5OW_5alloc3vec9into_iter8IntoIterNtNtCs5AlOhPCr03V_3syn4attr9AttributeENCINvNtNtB1O_3gen4fold13fold_pat_restNtNtCsdjy9FUDAuhT_18build_script_build11match_token16MatchTokenParserE0ENtB7_10SourceIter8as_innerB31_, symObjAddr: 0x13C58, symBinAddr: 0x10003652C, symSize: 0x24 }
  - { offset: 0x7667F, size: 0x8, addend: 0x0, symName: __RNvXs9_NtNtNtCsfvfooZQ3Axs_4core4iter8adapters3mapINtB5_3MapINtNtNtCse1nGBsou5OW_5alloc3vec9into_iter8IntoIterNtNtCs5AlOhPCr03V_3syn4attr9AttributeENCINvNtNtB1O_3gen4fold13fold_pat_typeNtNtCsdjy9FUDAuhT_18build_script_build11match_token16MatchTokenParserE0ENtB7_10SourceIter8as_innerB31_, symObjAddr: 0x13C7C, symBinAddr: 0x100036550, symSize: 0x24 }
  - { offset: 0x766BD, size: 0x8, addend: 0x0, symName: __RNvXs9_NtNtNtCsfvfooZQ3Axs_4core4iter8adapters3mapINtB5_3MapINtNtNtCse1nGBsou5OW_5alloc3vec9into_iter8IntoIterNtNtCs5AlOhPCr03V_3syn4attr9AttributeENCINvNtNtB1O_3gen4fold13fold_pat_wildNtNtCsdjy9FUDAuhT_18build_script_build11match_token16MatchTokenParserE0ENtB7_10SourceIter8as_innerB31_, symObjAddr: 0x13CA0, symBinAddr: 0x100036574, symSize: 0x24 }
  - { offset: 0x766FB, size: 0x8, addend: 0x0, symName: __RNvXs9_NtNtNtCsfvfooZQ3Axs_4core4iter8adapters3mapINtB5_3MapINtNtNtCse1nGBsou5OW_5alloc3vec9into_iter8IntoIterNtNtCs5AlOhPCr03V_3syn4attr9AttributeENCINvNtNtB1O_3gen4fold13fold_receiverNtNtCsdjy9FUDAuhT_18build_script_build11match_token16MatchTokenParserE0ENtB7_10SourceIter8as_innerB31_, symObjAddr: 0x13CC4, symBinAddr: 0x100036598, symSize: 0x24 }
  - { offset: 0x76739, size: 0x8, addend: 0x0, symName: __RNvXs9_NtNtNtCsfvfooZQ3Axs_4core4iter8adapters3mapINtB5_3MapINtNtNtCse1nGBsou5OW_5alloc3vec9into_iter8IntoIterNtNtCs5AlOhPCr03V_3syn4attr9AttributeENCINvNtNtB1O_3gen4fold13fold_variadicNtNtCsdjy9FUDAuhT_18build_script_build11match_token16MatchTokenParserE0ENtB7_10SourceIter8as_innerB31_, symObjAddr: 0x13CE8, symBinAddr: 0x1000365BC, symSize: 0x24 }
  - { offset: 0x76777, size: 0x8, addend: 0x0, symName: __RNvXs9_NtNtNtCsfvfooZQ3Axs_4core4iter8adapters3mapINtB5_3MapINtNtNtCse1nGBsou5OW_5alloc3vec9into_iter8IntoIterNtNtCs5AlOhPCr03V_3syn4attr9AttributeENCINvNtNtB1O_3gen4fold14fold_expr_callNtNtCsdjy9FUDAuhT_18build_script_build11match_token16MatchTokenParserE0ENtB7_10SourceIter8as_innerB32_, symObjAddr: 0x13D0C, symBinAddr: 0x1000365E0, symSize: 0x24 }
  - { offset: 0x767B5, size: 0x8, addend: 0x0, symName: __RNvXs9_NtNtNtCsfvfooZQ3Axs_4core4iter8adapters3mapINtB5_3MapINtNtNtCse1nGBsou5OW_5alloc3vec9into_iter8IntoIterNtNtCs5AlOhPCr03V_3syn4attr9AttributeENCINvNtNtB1O_3gen4fold14fold_expr_castNtNtCsdjy9FUDAuhT_18build_script_build11match_token16MatchTokenParserE0ENtB7_10SourceIter8as_innerB32_, symObjAddr: 0x13D30, symBinAddr: 0x100036604, symSize: 0x24 }
  - { offset: 0x767F3, size: 0x8, addend: 0x0, symName: __RNvXs9_NtNtNtCsfvfooZQ3Axs_4core4iter8adapters3mapINtB5_3MapINtNtNtCse1nGBsou5OW_5alloc3vec9into_iter8IntoIterNtNtCs5AlOhPCr03V_3syn4attr9AttributeENCINvNtNtB1O_3gen4fold14fold_expr_loopNtNtCsdjy9FUDAuhT_18build_script_build11match_token16MatchTokenParserE0ENtB7_10SourceIter8as_innerB32_, symObjAddr: 0x13D54, symBinAddr: 0x100036628, symSize: 0x24 }
  - { offset: 0x76831, size: 0x8, addend: 0x0, symName: __RNvXs9_NtNtNtCsfvfooZQ3Axs_4core4iter8adapters3mapINtB5_3MapINtNtNtCse1nGBsou5OW_5alloc3vec9into_iter8IntoIterNtNtCs5AlOhPCr03V_3syn4attr9AttributeENCINvNtNtB1O_3gen4fold14fold_expr_pathNtNtCsdjy9FUDAuhT_18build_script_build11match_token16MatchTokenParserE0ENtB7_10SourceIter8as_innerB32_, symObjAddr: 0x13D78, symBinAddr: 0x10003664C, symSize: 0x24 }
  - { offset: 0x7686F, size: 0x8, addend: 0x0, symName: __RNvXs9_NtNtNtCsfvfooZQ3Axs_4core4iter8adapters3mapINtB5_3MapINtNtNtCse1nGBsou5OW_5alloc3vec9into_iter8IntoIterNtNtCs5AlOhPCr03V_3syn4attr9AttributeENCINvNtNtB1O_3gen4fold14fold_expr_typeNtNtCsdjy9FUDAuhT_18build_script_build11match_token16MatchTokenParserE0ENtB7_10SourceIter8as_innerB32_, symObjAddr: 0x13D9C, symBinAddr: 0x100036670, symSize: 0x24 }
  - { offset: 0x768AD, size: 0x8, addend: 0x0, symName: __RNvXs9_NtNtNtCsfvfooZQ3Axs_4core4iter8adapters3mapINtB5_3MapINtNtNtCse1nGBsou5OW_5alloc3vec9into_iter8IntoIterNtNtCs5AlOhPCr03V_3syn4attr9AttributeENCINvNtNtB1O_3gen4fold14fold_field_patNtNtCsdjy9FUDAuhT_18build_script_build11match_token16MatchTokenParserE0ENtB7_10SourceIter8as_innerB32_, symObjAddr: 0x13DC0, symBinAddr: 0x100036694, symSize: 0x24 }
  - { offset: 0x768EB, size: 0x8, addend: 0x0, symName: __RNvXs9_NtNtNtCsfvfooZQ3Axs_4core4iter8adapters3mapINtB5_3MapINtNtNtCse1nGBsou5OW_5alloc3vec9into_iter8IntoIterNtNtCs5AlOhPCr03V_3syn4attr9AttributeENCINvNtNtB1O_3gen4fold14fold_item_enumNtNtCsdjy9FUDAuhT_18build_script_build11match_token16MatchTokenParserE0ENtB7_10SourceIter8as_innerB32_, symObjAddr: 0x13DE4, symBinAddr: 0x1000366B8, symSize: 0x24 }
  - { offset: 0x76929, size: 0x8, addend: 0x0, symName: __RNvXs9_NtNtNtCsfvfooZQ3Axs_4core4iter8adapters3mapINtB5_3MapINtNtNtCse1nGBsou5OW_5alloc3vec9into_iter8IntoIterNtNtCs5AlOhPCr03V_3syn4attr9AttributeENCINvNtNtB1O_3gen4fold14fold_item_implNtNtCsdjy9FUDAuhT_18build_script_build11match_token16MatchTokenParserE0ENtB7_10SourceIter8as_innerB32_, symObjAddr: 0x13E08, symBinAddr: 0x1000366DC, symSize: 0x24 }
  - { offset: 0x76967, size: 0x8, addend: 0x0, symName: __RNvXs9_NtNtNtCsfvfooZQ3Axs_4core4iter8adapters3mapINtB5_3MapINtNtNtCse1nGBsou5OW_5alloc3vec9into_iter8IntoIterNtNtCs5AlOhPCr03V_3syn4attr9AttributeENCINvNtNtB1O_3gen4fold14fold_item_typeNtNtCsdjy9FUDAuhT_18build_script_build11match_token16MatchTokenParserE0ENtB7_10SourceIter8as_innerB32_, symObjAddr: 0x13E2C, symBinAddr: 0x100036700, symSize: 0x24 }
  - { offset: 0x769A5, size: 0x8, addend: 0x0, symName: __RNvXs9_NtNtNtCsfvfooZQ3Axs_4core4iter8adapters3mapINtB5_3MapINtNtNtCse1nGBsou5OW_5alloc3vec9into_iter8IntoIterNtNtCs5AlOhPCr03V_3syn4attr9AttributeENCINvNtNtB1O_3gen4fold14fold_pat_identNtNtCsdjy9FUDAuhT_18build_script_build11match_token16MatchTokenParserE0ENtB7_10SourceIter8as_innerB32_, symObjAddr: 0x13E50, symBinAddr: 0x100036724, symSize: 0x24 }
  - { offset: 0x769E3, size: 0x8, addend: 0x0, symName: __RNvXs9_NtNtNtCsfvfooZQ3Axs_4core4iter8adapters3mapINtB5_3MapINtNtNtCse1nGBsou5OW_5alloc3vec9into_iter8IntoIterNtNtCs5AlOhPCr03V_3syn4attr9AttributeENCINvNtNtB1O_3gen4fold14fold_pat_macroNtNtCsdjy9FUDAuhT_18build_script_build11match_token16MatchTokenParserE0ENtB7_10SourceIter8as_innerB32_, symObjAddr: 0x13E74, symBinAddr: 0x100036748, symSize: 0x24 }
  - { offset: 0x76A21, size: 0x8, addend: 0x0, symName: __RNvXs9_NtNtNtCsfvfooZQ3Axs_4core4iter8adapters3mapINtB5_3MapINtNtNtCse1nGBsou5OW_5alloc3vec9into_iter8IntoIterNtNtCs5AlOhPCr03V_3syn4attr9AttributeENCINvNtNtB1O_3gen4fold14fold_pat_rangeNtNtCsdjy9FUDAuhT_18build_script_build11match_token16MatchTokenParserE0ENtB7_10SourceIter8as_innerB32_, symObjAddr: 0x13E98, symBinAddr: 0x10003676C, symSize: 0x24 }
  - { offset: 0x76A5F, size: 0x8, addend: 0x0, symName: __RNvXs9_NtNtNtCsfvfooZQ3Axs_4core4iter8adapters3mapINtB5_3MapINtNtNtCse1nGBsou5OW_5alloc3vec9into_iter8IntoIterNtNtCs5AlOhPCr03V_3syn4attr9AttributeENCINvNtNtB1O_3gen4fold14fold_pat_sliceNtNtCsdjy9FUDAuhT_18build_script_build11match_token16MatchTokenParserE0ENtB7_10SourceIter8as_innerB32_, symObjAddr: 0x13EBC, symBinAddr: 0x100036790, symSize: 0x24 }
  - { offset: 0x76A9D, size: 0x8, addend: 0x0, symName: __RNvXs9_NtNtNtCsfvfooZQ3Axs_4core4iter8adapters3mapINtB5_3MapINtNtNtCse1nGBsou5OW_5alloc3vec9into_iter8IntoIterNtNtCs5AlOhPCr03V_3syn4attr9AttributeENCINvNtNtB1O_3gen4fold14fold_pat_tupleNtNtCsdjy9FUDAuhT_18build_script_build11match_token16MatchTokenParserE0ENtB7_10SourceIter8as_innerB32_, symObjAddr: 0x13EE0, symBinAddr: 0x1000367B4, symSize: 0x24 }
  - { offset: 0x76ADB, size: 0x8, addend: 0x0, symName: __RNvXs9_NtNtNtCsfvfooZQ3Axs_4core4iter8adapters3mapINtB5_3MapINtNtNtCse1nGBsou5OW_5alloc3vec9into_iter8IntoIterNtNtCs5AlOhPCr03V_3syn4attr9AttributeENCINvNtNtB1O_3gen4fold15fold_expr_arrayNtNtCsdjy9FUDAuhT_18build_script_build11match_token16MatchTokenParserE0ENtB7_10SourceIter8as_innerB33_, symObjAddr: 0x13F04, symBinAddr: 0x1000367D8, symSize: 0x24 }
  - { offset: 0x76B19, size: 0x8, addend: 0x0, symName: __RNvXs9_NtNtNtCsfvfooZQ3Axs_4core4iter8adapters3mapINtB5_3MapINtNtNtCse1nGBsou5OW_5alloc3vec9into_iter8IntoIterNtNtCs5AlOhPCr03V_3syn4attr9AttributeENCINvNtNtB1O_3gen4fold15fold_expr_asyncNtNtCsdjy9FUDAuhT_18build_script_build11match_token16MatchTokenParserE0ENtB7_10SourceIter8as_innerB33_, symObjAddr: 0x13F28, symBinAddr: 0x1000367FC, symSize: 0x24 }
  - { offset: 0x76B57, size: 0x8, addend: 0x0, symName: __RNvXs9_NtNtNtCsfvfooZQ3Axs_4core4iter8adapters3mapINtB5_3MapINtNtNtCse1nGBsou5OW_5alloc3vec9into_iter8IntoIterNtNtCs5AlOhPCr03V_3syn4attr9AttributeENCINvNtNtB1O_3gen4fold15fold_expr_awaitNtNtCsdjy9FUDAuhT_18build_script_build11match_token16MatchTokenParserE0ENtB7_10SourceIter8as_innerB33_, symObjAddr: 0x13F4C, symBinAddr: 0x100036820, symSize: 0x24 }
  - { offset: 0x76B95, size: 0x8, addend: 0x0, symName: __RNvXs9_NtNtNtCsfvfooZQ3Axs_4core4iter8adapters3mapINtB5_3MapINtNtNtCse1nGBsou5OW_5alloc3vec9into_iter8IntoIterNtNtCs5AlOhPCr03V_3syn4attr9AttributeENCINvNtNtB1O_3gen4fold15fold_expr_blockNtNtCsdjy9FUDAuhT_18build_script_build11match_token16MatchTokenParserE0ENtB7_10SourceIter8as_innerB33_, symObjAddr: 0x13F70, symBinAddr: 0x100036844, symSize: 0x24 }
  - { offset: 0x76BD3, size: 0x8, addend: 0x0, symName: __RNvXs9_NtNtNtCsfvfooZQ3Axs_4core4iter8adapters3mapINtB5_3MapINtNtNtCse1nGBsou5OW_5alloc3vec9into_iter8IntoIterNtNtCs5AlOhPCr03V_3syn4attr9AttributeENCINvNtNtB1O_3gen4fold15fold_expr_breakNtNtCsdjy9FUDAuhT_18build_script_build11match_token16MatchTokenParserE0ENtB7_10SourceIter8as_innerB33_, symObjAddr: 0x13F94, symBinAddr: 0x100036868, symSize: 0x24 }
  - { offset: 0x76C11, size: 0x8, addend: 0x0, symName: __RNvXs9_NtNtNtCsfvfooZQ3Axs_4core4iter8adapters3mapINtB5_3MapINtNtNtCse1nGBsou5OW_5alloc3vec9into_iter8IntoIterNtNtCs5AlOhPCr03V_3syn4attr9AttributeENCINvNtNtB1O_3gen4fold15fold_expr_fieldNtNtCsdjy9FUDAuhT_18build_script_build11match_token16MatchTokenParserE0ENtB7_10SourceIter8as_innerB33_, symObjAddr: 0x13FB8, symBinAddr: 0x10003688C, symSize: 0x24 }
  - { offset: 0x76C4F, size: 0x8, addend: 0x0, symName: __RNvXs9_NtNtNtCsfvfooZQ3Axs_4core4iter8adapters3mapINtB5_3MapINtNtNtCse1nGBsou5OW_5alloc3vec9into_iter8IntoIterNtNtCs5AlOhPCr03V_3syn4attr9AttributeENCINvNtNtB1O_3gen4fold15fold_expr_groupNtNtCsdjy9FUDAuhT_18build_script_build11match_token16MatchTokenParserE0ENtB7_10SourceIter8as_innerB33_, symObjAddr: 0x13FDC, symBinAddr: 0x1000368B0, symSize: 0x24 }
  - { offset: 0x76C8D, size: 0x8, addend: 0x0, symName: __RNvXs9_NtNtNtCsfvfooZQ3Axs_4core4iter8adapters3mapINtB5_3MapINtNtNtCse1nGBsou5OW_5alloc3vec9into_iter8IntoIterNtNtCs5AlOhPCr03V_3syn4attr9AttributeENCINvNtNtB1O_3gen4fold15fold_expr_indexNtNtCsdjy9FUDAuhT_18build_script_build11match_token16MatchTokenParserE0ENtB7_10SourceIter8as_innerB33_, symObjAddr: 0x14000, symBinAddr: 0x1000368D4, symSize: 0x24 }
  - { offset: 0x76CCB, size: 0x8, addend: 0x0, symName: __RNvXs9_NtNtNtCsfvfooZQ3Axs_4core4iter8adapters3mapINtB5_3MapINtNtNtCse1nGBsou5OW_5alloc3vec9into_iter8IntoIterNtNtCs5AlOhPCr03V_3syn4attr9AttributeENCINvNtNtB1O_3gen4fold15fold_expr_macroNtNtCsdjy9FUDAuhT_18build_script_build11match_token16MatchTokenParserE0ENtB7_10SourceIter8as_innerB33_, symObjAddr: 0x14024, symBinAddr: 0x1000368F8, symSize: 0x24 }
  - { offset: 0x76D09, size: 0x8, addend: 0x0, symName: __RNvXs9_NtNtNtCsfvfooZQ3Axs_4core4iter8adapters3mapINtB5_3MapINtNtNtCse1nGBsou5OW_5alloc3vec9into_iter8IntoIterNtNtCs5AlOhPCr03V_3syn4attr9AttributeENCINvNtNtB1O_3gen4fold15fold_expr_matchNtNtCsdjy9FUDAuhT_18build_script_build11match_token16MatchTokenParserE0ENtB7_10SourceIter8as_innerB33_, symObjAddr: 0x14048, symBinAddr: 0x10003691C, symSize: 0x24 }
  - { offset: 0x76D47, size: 0x8, addend: 0x0, symName: __RNvXs9_NtNtNtCsfvfooZQ3Axs_4core4iter8adapters3mapINtB5_3MapINtNtNtCse1nGBsou5OW_5alloc3vec9into_iter8IntoIterNtNtCs5AlOhPCr03V_3syn4attr9AttributeENCINvNtNtB1O_3gen4fold15fold_expr_parenNtNtCsdjy9FUDAuhT_18build_script_build11match_token16MatchTokenParserE0ENtB7_10SourceIter8as_innerB33_, symObjAddr: 0x1406C, symBinAddr: 0x100036940, symSize: 0x24 }
  - { offset: 0x76D85, size: 0x8, addend: 0x0, symName: __RNvXs9_NtNtNtCsfvfooZQ3Axs_4core4iter8adapters3mapINtB5_3MapINtNtNtCse1nGBsou5OW_5alloc3vec9into_iter8IntoIterNtNtCs5AlOhPCr03V_3syn4attr9AttributeENCINvNtNtB1O_3gen4fold15fold_expr_rangeNtNtCsdjy9FUDAuhT_18build_script_build11match_token16MatchTokenParserE0ENtB7_10SourceIter8as_innerB33_, symObjAddr: 0x14090, symBinAddr: 0x100036964, symSize: 0x24 }
  - { offset: 0x76DC3, size: 0x8, addend: 0x0, symName: __RNvXs9_NtNtNtCsfvfooZQ3Axs_4core4iter8adapters3mapINtB5_3MapINtNtNtCse1nGBsou5OW_5alloc3vec9into_iter8IntoIterNtNtCs5AlOhPCr03V_3syn4attr9AttributeENCINvNtNtB1O_3gen4fold15fold_expr_tupleNtNtCsdjy9FUDAuhT_18build_script_build11match_token16MatchTokenParserE0ENtB7_10SourceIter8as_innerB33_, symObjAddr: 0x140B4, symBinAddr: 0x100036988, symSize: 0x24 }
  - { offset: 0x76E01, size: 0x8, addend: 0x0, symName: __RNvXs9_NtNtNtCsfvfooZQ3Axs_4core4iter8adapters3mapINtB5_3MapINtNtNtCse1nGBsou5OW_5alloc3vec9into_iter8IntoIterNtNtCs5AlOhPCr03V_3syn4attr9AttributeENCINvNtNtB1O_3gen4fold15fold_expr_unaryNtNtCsdjy9FUDAuhT_18build_script_build11match_token16MatchTokenParserE0ENtB7_10SourceIter8as_innerB33_, symObjAddr: 0x140D8, symBinAddr: 0x1000369AC, symSize: 0x24 }
  - { offset: 0x76E3F, size: 0x8, addend: 0x0, symName: __RNvXs9_NtNtNtCsfvfooZQ3Axs_4core4iter8adapters3mapINtB5_3MapINtNtNtCse1nGBsou5OW_5alloc3vec9into_iter8IntoIterNtNtCs5AlOhPCr03V_3syn4attr9AttributeENCINvNtNtB1O_3gen4fold15fold_expr_whileNtNtCsdjy9FUDAuhT_18build_script_build11match_token16MatchTokenParserE0ENtB7_10SourceIter8as_innerB33_, symObjAddr: 0x140FC, symBinAddr: 0x1000369D0, symSize: 0x24 }
  - { offset: 0x76E7D, size: 0x8, addend: 0x0, symName: __RNvXs9_NtNtNtCsfvfooZQ3Axs_4core4iter8adapters3mapINtB5_3MapINtNtNtCse1nGBsou5OW_5alloc3vec9into_iter8IntoIterNtNtCs5AlOhPCr03V_3syn4attr9AttributeENCINvNtNtB1O_3gen4fold15fold_expr_yieldNtNtCsdjy9FUDAuhT_18build_script_build11match_token16MatchTokenParserE0ENtB7_10SourceIter8as_innerB33_, symObjAddr: 0x14120, symBinAddr: 0x1000369F4, symSize: 0x24 }
  - { offset: 0x76EBB, size: 0x8, addend: 0x0, symName: __RNvXs9_NtNtNtCsfvfooZQ3Axs_4core4iter8adapters3mapINtB5_3MapINtNtNtCse1nGBsou5OW_5alloc3vec9into_iter8IntoIterNtNtCs5AlOhPCr03V_3syn4attr9AttributeENCINvNtNtB1O_3gen4fold15fold_item_constNtNtCsdjy9FUDAuhT_18build_script_build11match_token16MatchTokenParserE0ENtB7_10SourceIter8as_innerB33_, symObjAddr: 0x14144, symBinAddr: 0x100036A18, symSize: 0x24 }
  - { offset: 0x76EF9, size: 0x8, addend: 0x0, symName: __RNvXs9_NtNtNtCsfvfooZQ3Axs_4core4iter8adapters3mapINtB5_3MapINtNtNtCse1nGBsou5OW_5alloc3vec9into_iter8IntoIterNtNtCs5AlOhPCr03V_3syn4attr9AttributeENCINvNtNtB1O_3gen4fold15fold_item_macroNtNtCsdjy9FUDAuhT_18build_script_build11match_token16MatchTokenParserE0ENtB7_10SourceIter8as_innerB33_, symObjAddr: 0x14168, symBinAddr: 0x100036A3C, symSize: 0x24 }
  - { offset: 0x76F37, size: 0x8, addend: 0x0, symName: __RNvXs9_NtNtNtCsfvfooZQ3Axs_4core4iter8adapters3mapINtB5_3MapINtNtNtCse1nGBsou5OW_5alloc3vec9into_iter8IntoIterNtNtCs5AlOhPCr03V_3syn4attr9AttributeENCINvNtNtB1O_3gen4fold15fold_item_traitNtNtCsdjy9FUDAuhT_18build_script_build11match_token16MatchTokenParserE0ENtB7_10SourceIter8as_innerB33_, symObjAddr: 0x1418C, symBinAddr: 0x100036A60, symSize: 0x24 }
  - { offset: 0x76F75, size: 0x8, addend: 0x0, symName: __RNvXs9_NtNtNtCsfvfooZQ3Axs_4core4iter8adapters3mapINtB5_3MapINtNtNtCse1nGBsou5OW_5alloc3vec9into_iter8IntoIterNtNtCs5AlOhPCr03V_3syn4attr9AttributeENCINvNtNtB1O_3gen4fold15fold_item_unionNtNtCsdjy9FUDAuhT_18build_script_build11match_token16MatchTokenParserE0ENtB7_10SourceIter8as_innerB33_, symObjAddr: 0x141B0, symBinAddr: 0x100036A84, symSize: 0x24 }
  - { offset: 0x76FB3, size: 0x8, addend: 0x0, symName: __RNvXs9_NtNtNtCsfvfooZQ3Axs_4core4iter8adapters3mapINtB5_3MapINtNtNtCse1nGBsou5OW_5alloc3vec9into_iter8IntoIterNtNtCs5AlOhPCr03V_3syn4attr9AttributeENCINvNtNtB1O_3gen4fold15fold_pat_structNtNtCsdjy9FUDAuhT_18build_script_build11match_token16MatchTokenParserE0ENtB7_10SourceIter8as_innerB33_, symObjAddr: 0x141D4, symBinAddr: 0x100036AA8, symSize: 0x24 }
  - { offset: 0x76FF1, size: 0x8, addend: 0x0, symName: __RNvXs9_NtNtNtCsfvfooZQ3Axs_4core4iter8adapters3mapINtB5_3MapINtNtNtCse1nGBsou5OW_5alloc3vec9into_iter8IntoIterNtNtCs5AlOhPCr03V_3syn4attr9AttributeENCINvNtNtB1O_3gen4fold15fold_type_paramNtNtCsdjy9FUDAuhT_18build_script_build11match_token16MatchTokenParserE0ENtB7_10SourceIter8as_innerB33_, symObjAddr: 0x141F8, symBinAddr: 0x100036ACC, symSize: 0x24 }
  - { offset: 0x7702F, size: 0x8, addend: 0x0, symName: __RNvXs9_NtNtNtCsfvfooZQ3Axs_4core4iter8adapters3mapINtB5_3MapINtNtNtCse1nGBsou5OW_5alloc3vec9into_iter8IntoIterNtNtCs5AlOhPCr03V_3syn4attr9AttributeENCINvNtNtB1O_3gen4fold16fold_bare_fn_argNtNtCsdjy9FUDAuhT_18build_script_build11match_token16MatchTokenParserE0ENtB7_10SourceIter8as_innerB34_, symObjAddr: 0x1421C, symBinAddr: 0x100036AF0, symSize: 0x24 }
  - { offset: 0x7706D, size: 0x8, addend: 0x0, symName: __RNvXs9_NtNtNtCsfvfooZQ3Axs_4core4iter8adapters3mapINtB5_3MapINtNtNtCse1nGBsou5OW_5alloc3vec9into_iter8IntoIterNtNtCs5AlOhPCr03V_3syn4attr9AttributeENCINvNtNtB1O_3gen4fold16fold_const_paramNtNtCsdjy9FUDAuhT_18build_script_build11match_token16MatchTokenParserE0ENtB7_10SourceIter8as_innerB34_, symObjAddr: 0x14240, symBinAddr: 0x100036B14, symSize: 0x24 }
  - { offset: 0x770AB, size: 0x8, addend: 0x0, symName: __RNvXs9_NtNtNtCsfvfooZQ3Axs_4core4iter8adapters3mapINtB5_3MapINtNtNtCse1nGBsou5OW_5alloc3vec9into_iter8IntoIterNtNtCs5AlOhPCr03V_3syn4attr9AttributeENCINvNtNtB1O_3gen4fold16fold_expr_assignNtNtCsdjy9FUDAuhT_18build_script_build11match_token16MatchTokenParserE0ENtB7_10SourceIter8as_innerB34_, symObjAddr: 0x14264, symBinAddr: 0x100036B38, symSize: 0x24 }
  - { offset: 0x770E9, size: 0x8, addend: 0x0, symName: __RNvXs9_NtNtNtCsfvfooZQ3Axs_4core4iter8adapters3mapINtB5_3MapINtNtNtCse1nGBsou5OW_5alloc3vec9into_iter8IntoIterNtNtCs5AlOhPCr03V_3syn4attr9AttributeENCINvNtNtB1O_3gen4fold16fold_expr_binaryNtNtCsdjy9FUDAuhT_18build_script_build11match_token16MatchTokenParserE0ENtB7_10SourceIter8as_innerB34_, symObjAddr: 0x14288, symBinAddr: 0x100036B5C, symSize: 0x24 }
  - { offset: 0x77127, size: 0x8, addend: 0x0, symName: __RNvXs9_NtNtNtCsfvfooZQ3Axs_4core4iter8adapters3mapINtB5_3MapINtNtNtCse1nGBsou5OW_5alloc3vec9into_iter8IntoIterNtNtCs5AlOhPCr03V_3syn4attr9AttributeENCINvNtNtB1O_3gen4fold16fold_expr_repeatNtNtCsdjy9FUDAuhT_18build_script_build11match_token16MatchTokenParserE0ENtB7_10SourceIter8as_innerB34_, symObjAddr: 0x142AC, symBinAddr: 0x100036B80, symSize: 0x24 }
  - { offset: 0x77165, size: 0x8, addend: 0x0, symName: __RNvXs9_NtNtNtCsfvfooZQ3Axs_4core4iter8adapters3mapINtB5_3MapINtNtNtCse1nGBsou5OW_5alloc3vec9into_iter8IntoIterNtNtCs5AlOhPCr03V_3syn4attr9AttributeENCINvNtNtB1O_3gen4fold16fold_expr_returnNtNtCsdjy9FUDAuhT_18build_script_build11match_token16MatchTokenParserE0ENtB7_10SourceIter8as_innerB34_, symObjAddr: 0x142D0, symBinAddr: 0x100036BA4, symSize: 0x24 }
  - { offset: 0x771A3, size: 0x8, addend: 0x0, symName: __RNvXs9_NtNtNtCsfvfooZQ3Axs_4core4iter8adapters3mapINtB5_3MapINtNtNtCse1nGBsou5OW_5alloc3vec9into_iter8IntoIterNtNtCs5AlOhPCr03V_3syn4attr9AttributeENCINvNtNtB1O_3gen4fold16fold_expr_structNtNtCsdjy9FUDAuhT_18build_script_build11match_token16MatchTokenParserE0ENtB7_10SourceIter8as_innerB34_, symObjAddr: 0x142F4, symBinAddr: 0x100036BC8, symSize: 0x24 }
  - { offset: 0x771E1, size: 0x8, addend: 0x0, symName: __RNvXs9_NtNtNtCsfvfooZQ3Axs_4core4iter8adapters3mapINtB5_3MapINtNtNtCse1nGBsou5OW_5alloc3vec9into_iter8IntoIterNtNtCs5AlOhPCr03V_3syn4attr9AttributeENCINvNtNtB1O_3gen4fold16fold_expr_unsafeNtNtCsdjy9FUDAuhT_18build_script_build11match_token16MatchTokenParserE0ENtB7_10SourceIter8as_innerB34_, symObjAddr: 0x14318, symBinAddr: 0x100036BEC, symSize: 0x24 }
  - { offset: 0x7721F, size: 0x8, addend: 0x0, symName: __RNvXs9_NtNtNtCsfvfooZQ3Axs_4core4iter8adapters3mapINtB5_3MapINtNtNtCse1nGBsou5OW_5alloc3vec9into_iter8IntoIterNtNtCs5AlOhPCr03V_3syn4attr9AttributeENCINvNtNtB1O_3gen4fold16fold_field_valueNtNtCsdjy9FUDAuhT_18build_script_build11match_token16MatchTokenParserE0ENtB7_10SourceIter8as_innerB34_, symObjAddr: 0x1433C, symBinAddr: 0x100036C10, symSize: 0x24 }
  - { offset: 0x7725D, size: 0x8, addend: 0x0, symName: __RNvXs9_NtNtNtCsfvfooZQ3Axs_4core4iter8adapters3mapINtB5_3MapINtNtNtCse1nGBsou5OW_5alloc3vec9into_iter8IntoIterNtNtCs5AlOhPCr03V_3syn4attr9AttributeENCINvNtNtB1O_3gen4fold16fold_item_macro2NtNtCsdjy9FUDAuhT_18build_script_build11match_token16MatchTokenParserE0ENtB7_10SourceIter8as_innerB34_, symObjAddr: 0x14360, symBinAddr: 0x100036C34, symSize: 0x24 }
  - { offset: 0x7729B, size: 0x8, addend: 0x0, symName: __RNvXs9_NtNtNtCsfvfooZQ3Axs_4core4iter8adapters3mapINtB5_3MapINtNtNtCse1nGBsou5OW_5alloc3vec9into_iter8IntoIterNtNtCs5AlOhPCr03V_3syn4attr9AttributeENCINvNtNtB1O_3gen4fold16fold_item_staticNtNtCsdjy9FUDAuhT_18build_script_build11match_token16MatchTokenParserE0ENtB7_10SourceIter8as_innerB34_, symObjAddr: 0x14384, symBinAddr: 0x100036C58, symSize: 0x24 }
  - { offset: 0x772D9, size: 0x8, addend: 0x0, symName: __RNvXs9_NtNtNtCsfvfooZQ3Axs_4core4iter8adapters3mapINtB5_3MapINtNtNtCse1nGBsou5OW_5alloc3vec9into_iter8IntoIterNtNtCs5AlOhPCr03V_3syn4attr9AttributeENCINvNtNtB1O_3gen4fold16fold_item_structNtNtCsdjy9FUDAuhT_18build_script_build11match_token16MatchTokenParserE0ENtB7_10SourceIter8as_innerB34_, symObjAddr: 0x143A8, symBinAddr: 0x100036C7C, symSize: 0x24 }
  - { offset: 0x77317, size: 0x8, addend: 0x0, symName: __RNvXs9_NtNtNtCsfvfooZQ3Axs_4core4iter8adapters3mapINtB5_3MapINtNtNtCse1nGBsou5OW_5alloc3vec9into_iter8IntoIterNtNtCs5AlOhPCr03V_3syn4attr9AttributeENCINvNtNtB1O_3gen4fold17fold_expr_closureNtNtCsdjy9FUDAuhT_18build_script_build11match_token16MatchTokenParserE0ENtB7_10SourceIter8as_innerB35_, symObjAddr: 0x143CC, symBinAddr: 0x100036CA0, symSize: 0x24 }
  - { offset: 0x77355, size: 0x8, addend: 0x0, symName: __RNvXs9_NtNtNtCsfvfooZQ3Axs_4core4iter8adapters3mapINtB5_3MapINtNtNtCse1nGBsou5OW_5alloc3vec9into_iter8IntoIterNtNtCs5AlOhPCr03V_3syn4attr9AttributeENCINvNtNtB1O_3gen4fold17fold_lifetime_defNtNtCsdjy9FUDAuhT_18build_script_build11match_token16MatchTokenParserE0ENtB7_10SourceIter8as_innerB35_, symObjAddr: 0x143F0, symBinAddr: 0x100036CC4, symSize: 0x24 }
  - { offset: 0x77393, size: 0x8, addend: 0x0, symName: __RNvXs9_NtNtNtCsfvfooZQ3Axs_4core4iter8adapters3mapINtB5_3MapINtNtNtCse1nGBsou5OW_5alloc3vec9into_iter8IntoIterNtNtCs5AlOhPCr03V_3syn4attr9AttributeENCINvNtNtB1O_3gen4fold18fold_expr_continueNtNtCsdjy9FUDAuhT_18build_script_build11match_token16MatchTokenParserE0ENtB7_10SourceIter8as_innerB36_, symObjAddr: 0x14414, symBinAddr: 0x100036CE8, symSize: 0x24 }
  - { offset: 0x773D1, size: 0x8, addend: 0x0, symName: __RNvXs9_NtNtNtCsfvfooZQ3Axs_4core4iter8adapters3mapINtB5_3MapINtNtNtCse1nGBsou5OW_5alloc3vec9into_iter8IntoIterNtNtCs5AlOhPCr03V_3syn4attr9AttributeENCINvNtNtB1O_3gen4fold18fold_expr_for_loopNtNtCsdjy9FUDAuhT_18build_script_build11match_token16MatchTokenParserE0ENtB7_10SourceIter8as_innerB36_, symObjAddr: 0x14438, symBinAddr: 0x100036D0C, symSize: 0x24 }
  - { offset: 0x7740F, size: 0x8, addend: 0x0, symName: __RNvXs9_NtNtNtCsfvfooZQ3Axs_4core4iter8adapters3mapINtB5_3MapINtNtNtCse1nGBsou5OW_5alloc3vec9into_iter8IntoIterNtNtCs5AlOhPCr03V_3syn4attr9AttributeENCINvNtNtB1O_3gen4fold18fold_pat_referenceNtNtCsdjy9FUDAuhT_18build_script_build11match_token16MatchTokenParserE0ENtB7_10SourceIter8as_innerB36_, symObjAddr: 0x1445C, symBinAddr: 0x100036D30, symSize: 0x24 }
  - { offset: 0x7744D, size: 0x8, addend: 0x0, symName: __RNvXs9_NtNtNtCsfvfooZQ3Axs_4core4iter8adapters3mapINtB5_3MapINtNtNtCse1nGBsou5OW_5alloc3vec9into_iter8IntoIterNtNtCs5AlOhPCr03V_3syn4attr9AttributeENCINvNtNtB1O_3gen4fold19fold_expr_assign_opNtNtCsdjy9FUDAuhT_18build_script_build11match_token16MatchTokenParserE0ENtB7_10SourceIter8as_innerB37_, symObjAddr: 0x14480, symBinAddr: 0x100036D54, symSize: 0x24 }
  - { offset: 0x7748B, size: 0x8, addend: 0x0, symName: __RNvXs9_NtNtNtCsfvfooZQ3Axs_4core4iter8adapters3mapINtB5_3MapINtNtNtCse1nGBsou5OW_5alloc3vec9into_iter8IntoIterNtNtCs5AlOhPCr03V_3syn4attr9AttributeENCINvNtNtB1O_3gen4fold19fold_expr_referenceNtNtCsdjy9FUDAuhT_18build_script_build11match_token16MatchTokenParserE0ENtB7_10SourceIter8as_innerB37_, symObjAddr: 0x144A4, symBinAddr: 0x100036D78, symSize: 0x24 }
  - { offset: 0x774C9, size: 0x8, addend: 0x0, symName: __RNvXs9_NtNtNtCsfvfooZQ3Axs_4core4iter8adapters3mapINtB5_3MapINtNtNtCse1nGBsou5OW_5alloc3vec9into_iter8IntoIterNtNtCs5AlOhPCr03V_3syn4attr9AttributeENCINvNtNtB1O_3gen4fold19fold_expr_try_blockNtNtCsdjy9FUDAuhT_18build_script_build11match_token16MatchTokenParserE0ENtB7_10SourceIter8as_innerB37_, symObjAddr: 0x144C8, symBinAddr: 0x100036D9C, symSize: 0x24 }
  - { offset: 0x77507, size: 0x8, addend: 0x0, symName: __RNvXs9_NtNtNtCsfvfooZQ3Axs_4core4iter8adapters3mapINtB5_3MapINtNtNtCse1nGBsou5OW_5alloc3vec9into_iter8IntoIterNtNtCs5AlOhPCr03V_3syn4attr9AttributeENCINvNtNtB1O_3gen4fold19fold_impl_item_typeNtNtCsdjy9FUDAuhT_18build_script_build11match_token16MatchTokenParserE0ENtB7_10SourceIter8as_innerB37_, symObjAddr: 0x144EC, symBinAddr: 0x100036DC0, symSize: 0x24 }
  - { offset: 0x77545, size: 0x8, addend: 0x0, symName: __RNvXs9_NtNtNtCsfvfooZQ3Axs_4core4iter8adapters3mapINtB5_3MapINtNtNtCse1nGBsou5OW_5alloc3vec9into_iter8IntoIterNtNtCs5AlOhPCr03V_3syn4attr9AttributeENCINvNtNtB1O_3gen4fold20fold_foreign_item_fnNtNtCsdjy9FUDAuhT_18build_script_build11match_token16MatchTokenParserE0ENtB7_10SourceIter8as_innerB38_, symObjAddr: 0x14510, symBinAddr: 0x100036DE4, symSize: 0x24 }
  - { offset: 0x77583, size: 0x8, addend: 0x0, symName: __RNvXs9_NtNtNtCsfvfooZQ3Axs_4core4iter8adapters3mapINtB5_3MapINtNtNtCse1nGBsou5OW_5alloc3vec9into_iter8IntoIterNtNtCs5AlOhPCr03V_3syn4attr9AttributeENCINvNtNtB1O_3gen4fold20fold_impl_item_constNtNtCsdjy9FUDAuhT_18build_script_build11match_token16MatchTokenParserE0ENtB7_10SourceIter8as_innerB38_, symObjAddr: 0x14534, symBinAddr: 0x100036E08, symSize: 0x24 }
  - { offset: 0x775C1, size: 0x8, addend: 0x0, symName: __RNvXs9_NtNtNtCsfvfooZQ3Axs_4core4iter8adapters3mapINtB5_3MapINtNtNtCse1nGBsou5OW_5alloc3vec9into_iter8IntoIterNtNtCs5AlOhPCr03V_3syn4attr9AttributeENCINvNtNtB1O_3gen4fold20fold_impl_item_macroNtNtCsdjy9FUDAuhT_18build_script_build11match_token16MatchTokenParserE0ENtB7_10SourceIter8as_innerB38_, symObjAddr: 0x14558, symBinAddr: 0x100036E2C, symSize: 0x24 }
  - { offset: 0x775FF, size: 0x8, addend: 0x0, symName: __RNvXs9_NtNtNtCsfvfooZQ3Axs_4core4iter8adapters3mapINtB5_3MapINtNtNtCse1nGBsou5OW_5alloc3vec9into_iter8IntoIterNtNtCs5AlOhPCr03V_3syn4attr9AttributeENCINvNtNtB1O_3gen4fold20fold_trait_item_typeNtNtCsdjy9FUDAuhT_18build_script_build11match_token16MatchTokenParserE0ENtB7_10SourceIter8as_innerB38_, symObjAddr: 0x1457C, symBinAddr: 0x100036E50, symSize: 0x24 }
  - { offset: 0x7763D, size: 0x8, addend: 0x0, symName: __RNvXs9_NtNtNtCsfvfooZQ3Axs_4core4iter8adapters3mapINtB5_3MapINtNtNtCse1nGBsou5OW_5alloc3vec9into_iter8IntoIterNtNtCs5AlOhPCr03V_3syn4attr9AttributeENCINvNtNtB1O_3gen4fold21fold_expr_method_callNtNtCsdjy9FUDAuhT_18build_script_build11match_token16MatchTokenParserE0ENtB7_10SourceIter8as_innerB39_, symObjAddr: 0x145A0, symBinAddr: 0x100036E74, symSize: 0x24 }
  - { offset: 0x7767B, size: 0x8, addend: 0x0, symName: __RNvXs9_NtNtNtCsfvfooZQ3Axs_4core4iter8adapters3mapINtB5_3MapINtNtNtCse1nGBsou5OW_5alloc3vec9into_iter8IntoIterNtNtCs5AlOhPCr03V_3syn4attr9AttributeENCINvNtNtB1O_3gen4fold21fold_impl_item_methodNtNtCsdjy9FUDAuhT_18build_script_build11match_token16MatchTokenParserE0ENtB7_10SourceIter8as_innerB39_, symObjAddr: 0x145C4, symBinAddr: 0x100036E98, symSize: 0x24 }
  - { offset: 0x776B9, size: 0x8, addend: 0x0, symName: __RNvXs9_NtNtNtCsfvfooZQ3Axs_4core4iter8adapters3mapINtB5_3MapINtNtNtCse1nGBsou5OW_5alloc3vec9into_iter8IntoIterNtNtCs5AlOhPCr03V_3syn4attr9AttributeENCINvNtNtB1O_3gen4fold21fold_item_foreign_modNtNtCsdjy9FUDAuhT_18build_script_build11match_token16MatchTokenParserE0ENtB7_10SourceIter8as_innerB39_, symObjAddr: 0x145E8, symBinAddr: 0x100036EBC, symSize: 0x24 }
  - { offset: 0x776F7, size: 0x8, addend: 0x0, symName: __RNvXs9_NtNtNtCsfvfooZQ3Axs_4core4iter8adapters3mapINtB5_3MapINtNtNtCse1nGBsou5OW_5alloc3vec9into_iter8IntoIterNtNtCs5AlOhPCr03V_3syn4attr9AttributeENCINvNtNtB1O_3gen4fold21fold_item_trait_aliasNtNtCsdjy9FUDAuhT_18build_script_build11match_token16MatchTokenParserE0ENtB7_10SourceIter8as_innerB39_, symObjAddr: 0x1460C, symBinAddr: 0x100036EE0, symSize: 0x24 }
  - { offset: 0x77735, size: 0x8, addend: 0x0, symName: __RNvXs9_NtNtNtCsfvfooZQ3Axs_4core4iter8adapters3mapINtB5_3MapINtNtNtCse1nGBsou5OW_5alloc3vec9into_iter8IntoIterNtNtCs5AlOhPCr03V_3syn4attr9AttributeENCINvNtNtB1O_3gen4fold21fold_pat_tuple_structNtNtCsdjy9FUDAuhT_18build_script_build11match_token16MatchTokenParserE0ENtB7_10SourceIter8as_innerB39_, symObjAddr: 0x14630, symBinAddr: 0x100036F04, symSize: 0x24 }
  - { offset: 0x77773, size: 0x8, addend: 0x0, symName: __RNvXs9_NtNtNtCsfvfooZQ3Axs_4core4iter8adapters3mapINtB5_3MapINtNtNtCse1nGBsou5OW_5alloc3vec9into_iter8IntoIterNtNtCs5AlOhPCr03V_3syn4attr9AttributeENCINvNtNtB1O_3gen4fold21fold_trait_item_constNtNtCsdjy9FUDAuhT_18build_script_build11match_token16MatchTokenParserE0ENtB7_10SourceIter8as_innerB39_, symObjAddr: 0x14654, symBinAddr: 0x100036F28, symSize: 0x24 }
  - { offset: 0x777B1, size: 0x8, addend: 0x0, symName: __RNvXs9_NtNtNtCsfvfooZQ3Axs_4core4iter8adapters3mapINtB5_3MapINtNtNtCse1nGBsou5OW_5alloc3vec9into_iter8IntoIterNtNtCs5AlOhPCr03V_3syn4attr9AttributeENCINvNtNtB1O_3gen4fold21fold_trait_item_macroNtNtCsdjy9FUDAuhT_18build_script_build11match_token16MatchTokenParserE0ENtB7_10SourceIter8as_innerB39_, symObjAddr: 0x14678, symBinAddr: 0x100036F4C, symSize: 0x24 }
  - { offset: 0x777EF, size: 0x8, addend: 0x0, symName: __RNvXs9_NtNtNtCsfvfooZQ3Axs_4core4iter8adapters3mapINtB5_3MapINtNtNtCse1nGBsou5OW_5alloc3vec9into_iter8IntoIterNtNtCs5AlOhPCr03V_3syn4attr9AttributeENCINvNtNtB1O_3gen4fold22fold_foreign_item_typeNtNtCsdjy9FUDAuhT_18build_script_build11match_token16MatchTokenParserE0ENtB7_10SourceIter8as_innerB3a_, symObjAddr: 0x1469C, symBinAddr: 0x100036F70, symSize: 0x24 }
  - { offset: 0x7782D, size: 0x8, addend: 0x0, symName: __RNvXs9_NtNtNtCsfvfooZQ3Axs_4core4iter8adapters3mapINtB5_3MapINtNtNtCse1nGBsou5OW_5alloc3vec9into_iter8IntoIterNtNtCs5AlOhPCr03V_3syn4attr9AttributeENCINvNtNtB1O_3gen4fold22fold_item_extern_crateNtNtCsdjy9FUDAuhT_18build_script_build11match_token16MatchTokenParserE0ENtB7_10SourceIter8as_innerB3a_, symObjAddr: 0x146C0, symBinAddr: 0x100036F94, symSize: 0x24 }
  - { offset: 0x7786B, size: 0x8, addend: 0x0, symName: __RNvXs9_NtNtNtCsfvfooZQ3Axs_4core4iter8adapters3mapINtB5_3MapINtNtNtCse1nGBsou5OW_5alloc3vec9into_iter8IntoIterNtNtCs5AlOhPCr03V_3syn4attr9AttributeENCINvNtNtB1O_3gen4fold22fold_trait_item_methodNtNtCsdjy9FUDAuhT_18build_script_build11match_token16MatchTokenParserE0ENtB7_10SourceIter8as_innerB3a_, symObjAddr: 0x146E4, symBinAddr: 0x100036FB8, symSize: 0x24 }
  - { offset: 0x778A9, size: 0x8, addend: 0x0, symName: __RNvXs9_NtNtNtCsfvfooZQ3Axs_4core4iter8adapters3mapINtB5_3MapINtNtNtCse1nGBsou5OW_5alloc3vec9into_iter8IntoIterNtNtCs5AlOhPCr03V_3syn4attr9AttributeENCINvNtNtB1O_3gen4fold23fold_foreign_item_macroNtNtCsdjy9FUDAuhT_18build_script_build11match_token16MatchTokenParserE0ENtB7_10SourceIter8as_innerB3b_, symObjAddr: 0x14708, symBinAddr: 0x100036FDC, symSize: 0x24 }
  - { offset: 0x778E7, size: 0x8, addend: 0x0, symName: __RNvXs9_NtNtNtCsfvfooZQ3Axs_4core4iter8adapters3mapINtB5_3MapINtNtNtCse1nGBsou5OW_5alloc3vec9into_iter8IntoIterNtNtCs5AlOhPCr03V_3syn4attr9AttributeENCINvNtNtB1O_3gen4fold24fold_foreign_item_staticNtNtCsdjy9FUDAuhT_18build_script_build11match_token16MatchTokenParserE0ENtB7_10SourceIter8as_innerB3c_, symObjAddr: 0x1472C, symBinAddr: 0x100037000, symSize: 0x24 }
  - { offset: 0x77925, size: 0x8, addend: 0x0, symName: __RNvXs9_NtNtNtCsfvfooZQ3Axs_4core4iter8adapters3mapINtB5_3MapINtNtNtCse1nGBsou5OW_5alloc3vec9into_iter8IntoIterNtNtCs5AlOhPCr03V_3syn4attr9AttributeENCINvNtNtB1O_3gen4fold8fold_armNtNtCsdjy9FUDAuhT_18build_script_build11match_token16MatchTokenParserE0ENtB7_10SourceIter8as_innerB2V_, symObjAddr: 0x14750, symBinAddr: 0x100037024, symSize: 0x24 }
  - { offset: 0x77963, size: 0x8, addend: 0x0, symName: __RNvXs9_NtNtNtCsfvfooZQ3Axs_4core4iter8adapters3mapINtB5_3MapINtNtNtCse1nGBsou5OW_5alloc3vec9into_iter8IntoIterNtNtCs5AlOhPCr03V_3syn4attr9AttributeENCINvNtNtB1O_3gen4fold9fold_fileNtNtCsdjy9FUDAuhT_18build_script_build11match_token16MatchTokenParserE0ENtB7_10SourceIter8as_innerB2W_, symObjAddr: 0x14774, symBinAddr: 0x100037048, symSize: 0x24 }
  - { offset: 0x779A1, size: 0x8, addend: 0x0, symName: __RNvXs9_NtNtNtCsfvfooZQ3Axs_4core4iter8adapters3mapINtB5_3MapINtNtNtCse1nGBsou5OW_5alloc3vec9into_iter8IntoIterNtNtCs5AlOhPCr03V_3syn4expr3ArmENCINvNtNtB1O_3gen4fold15fold_expr_matchNtNtCsdjy9FUDAuhT_18build_script_build11match_token16MatchTokenParserEs_0ENtB7_10SourceIter8as_innerB2X_, symObjAddr: 0x14798, symBinAddr: 0x10003706C, symSize: 0x24 }
  - { offset: 0x779DF, size: 0x8, addend: 0x0, symName: __RNvXs9_NtNtNtCsfvfooZQ3Axs_4core4iter8adapters3mapINtB5_3MapINtNtNtCse1nGBsou5OW_5alloc3vec9into_iter8IntoIterNtNtCs5AlOhPCr03V_3syn4item11ForeignItemENCINvNtNtB1O_3gen4fold21fold_item_foreign_modNtNtCsdjy9FUDAuhT_18build_script_build11match_token16MatchTokenParserEs_0ENtB7_10SourceIter8as_innerB3c_, symObjAddr: 0x147BC, symBinAddr: 0x100037090, symSize: 0x24 }
  - { offset: 0x77A1D, size: 0x8, addend: 0x0, symName: __RNvXs9_NtNtNtCsfvfooZQ3Axs_4core4iter8adapters3mapINtB5_3MapINtNtNtCse1nGBsou5OW_5alloc3vec9into_iter8IntoIterNtNtCs5AlOhPCr03V_3syn4item4ItemENCINvNtNtB1O_3gen4fold9fold_fileNtNtCsdjy9FUDAuhT_18build_script_build11match_token16MatchTokenParserEs_0ENtB7_10SourceIter8as_innerB2R_, symObjAddr: 0x147E0, symBinAddr: 0x1000370B4, symSize: 0x24 }
  - { offset: 0x77A5B, size: 0x8, addend: 0x0, symName: __RNvXs9_NtNtNtCsfvfooZQ3Axs_4core4iter8adapters3mapINtB5_3MapINtNtNtCse1nGBsou5OW_5alloc3vec9into_iter8IntoIterNtNtCs5AlOhPCr03V_3syn4item4ItemENCNCINvNtNtB1O_3gen4fold13fold_item_modNtNtCsdjy9FUDAuhT_18build_script_build11match_token16MatchTokenParserEs_00ENtB7_10SourceIter8as_innerB2Y_, symObjAddr: 0x14804, symBinAddr: 0x1000370D8, symSize: 0x24 }
  - { offset: 0x77A99, size: 0x8, addend: 0x0, symName: __RNvXs9_NtNtNtCsfvfooZQ3Axs_4core4iter8adapters3mapINtB5_3MapINtNtNtCse1nGBsou5OW_5alloc3vec9into_iter8IntoIterNtNtCs5AlOhPCr03V_3syn4item8ImplItemENCINvNtNtB1O_3gen4fold14fold_item_implNtNtCsdjy9FUDAuhT_18build_script_build11match_token16MatchTokenParserEs2_0ENtB7_10SourceIter8as_innerB31_, symObjAddr: 0x14828, symBinAddr: 0x1000370FC, symSize: 0x24 }
  - { offset: 0x77AD7, size: 0x8, addend: 0x0, symName: __RNvXs9_NtNtNtCsfvfooZQ3Axs_4core4iter8adapters3mapINtB5_3MapINtNtNtCse1nGBsou5OW_5alloc3vec9into_iter8IntoIterNtNtCs5AlOhPCr03V_3syn4item9TraitItemENCINvNtNtB1O_3gen4fold15fold_item_traitNtNtCsdjy9FUDAuhT_18build_script_build11match_token16MatchTokenParserEs3_0ENtB7_10SourceIter8as_innerB33_, symObjAddr: 0x1484C, symBinAddr: 0x100037120, symSize: 0x24 }
  - { offset: 0x77B15, size: 0x8, addend: 0x0, symName: __RNvXs9_NtNtNtCsfvfooZQ3Axs_4core4iter8adapters3mapINtB5_3MapINtNtNtCse1nGBsou5OW_5alloc3vec9into_iter8IntoIterNtNtCs5AlOhPCr03V_3syn4stmt4StmtENCINvNtNtB1O_3gen4fold10fold_blockNtNtCsdjy9FUDAuhT_18build_script_build11match_token16MatchTokenParserE0ENtB7_10SourceIter8as_innerB2T_, symObjAddr: 0x14870, symBinAddr: 0x100037144, symSize: 0x24 }
  - { offset: 0x79039, size: 0x8, addend: 0x0, symName: __RINvYINtNtNtNtCsfvfooZQ3Axs_4core4iter8adapters3map3MapIB4_INtNtCs5AlOhPCr03V_3syn10punctuated9IntoPairsNtNtB10_2ty4TypeNtNtB10_5token5CommaENvMsJ_BY_INtBY_4PairB1E_B1U_E10into_tupleENCINvXs_NtNtNtB10_3gen6helper4foldINtBY_10PunctuatedB1E_B1U_ENtB33_10FoldHelper4liftNCINvNtB37_4fold15fold_type_tupleNtNtCsdjy9FUDAuhT_18build_script_build11match_token16MatchTokenParserE0E0ENtNtNtBa_6traits8iterator8Iterator7collectB3t_EB4S_, symObjAddr: 0x1EA0, symBinAddr: 0x100024774, symSize: 0x14 }
  - { offset: 0x7907A, size: 0x8, addend: 0x0, symName: __RINvYINtNtNtNtCsfvfooZQ3Axs_4core4iter8adapters3map3MapIB4_INtNtCs5AlOhPCr03V_3syn10punctuated9IntoPairsNtNtB10_2ty4TypeNtNtB10_5token5CommaENvMsJ_BY_INtBY_4PairB1E_B1U_E10into_tupleENCINvXs_NtNtNtB10_3gen6helper4foldINtBY_10PunctuatedB1E_B1U_ENtB33_10FoldHelper4liftNCINvNtB37_4fold36fold_parenthesized_generic_argumentsNtNtCsdjy9FUDAuhT_18build_script_build11match_token16MatchTokenParserE0E0ENtNtNtBa_6traits8iterator8Iterator7collectB3t_EB5d_, symObjAddr: 0x1EB4, symBinAddr: 0x100024788, symSize: 0x14 }
  - { offset: 0x790BB, size: 0x8, addend: 0x0, symName: __RINvYINtNtNtNtCsfvfooZQ3Axs_4core4iter8adapters3map3MapIB4_INtNtCs5AlOhPCr03V_3syn10punctuated9IntoPairsNtNtB10_2ty9BareFnArgNtNtB10_5token5CommaENvMsJ_BY_INtBY_4PairB1E_B1Z_E10into_tupleENCINvXs_NtNtNtB10_3gen6helper4foldINtBY_10PunctuatedB1E_B1Z_ENtB38_10FoldHelper4liftNCINvNtB3c_4fold17fold_type_bare_fnNtNtCsdjy9FUDAuhT_18build_script_build11match_token16MatchTokenParserEs1_0E0ENtNtNtBa_6traits8iterator8Iterator7collectB3y_EB4Z_, symObjAddr: 0x1EC8, symBinAddr: 0x10002479C, symSize: 0x14 }
  - { offset: 0x790FC, size: 0x8, addend: 0x0, symName: __RINvYINtNtNtNtCsfvfooZQ3Axs_4core4iter8adapters3map3MapIB4_INtNtCs5AlOhPCr03V_3syn10punctuated9IntoPairsNtNtB10_3pat3PatNtNtB10_5token2OrENvMsJ_BY_INtBY_4PairB1E_B1U_E10into_tupleENCINvXs_NtNtNtB10_3gen6helper4foldINtBY_10PunctuatedB1E_B1U_ENtB30_10FoldHelper4liftNCINvNtB34_4fold11fold_pat_orNtNtCsdjy9FUDAuhT_18build_script_build11match_token16MatchTokenParserEs0_0E0ENtNtNtBa_6traits8iterator8Iterator7collectB3q_EB4L_, symObjAddr: 0x1EDC, symBinAddr: 0x1000247B0, symSize: 0x14 }
  - { offset: 0x7913D, size: 0x8, addend: 0x0, symName: __RINvYINtNtNtNtCsfvfooZQ3Axs_4core4iter8adapters3map3MapIB4_INtNtCs5AlOhPCr03V_3syn10punctuated9IntoPairsNtNtB10_3pat3PatNtNtB10_5token5CommaENvMsJ_BY_INtBY_4PairB1E_B1U_E10into_tupleENCINvXs_NtNtNtB10_3gen6helper4foldINtBY_10PunctuatedB1E_B1U_ENtB33_10FoldHelper4liftNCINvNtB37_4fold14fold_pat_sliceNtNtCsdjy9FUDAuhT_18build_script_build11match_token16MatchTokenParserEs_0E0ENtNtNtBa_6traits8iterator8Iterator7collectB3t_EB4R_, symObjAddr: 0x1EF0, symBinAddr: 0x1000247C4, symSize: 0x14 }
  - { offset: 0x7917E, size: 0x8, addend: 0x0, symName: __RINvYINtNtNtNtCsfvfooZQ3Axs_4core4iter8adapters3map3MapIB4_INtNtCs5AlOhPCr03V_3syn10punctuated9IntoPairsNtNtB10_3pat3PatNtNtB10_5token5CommaENvMsJ_BY_INtBY_4PairB1E_B1U_E10into_tupleENCINvXs_NtNtNtB10_3gen6helper4foldINtBY_10PunctuatedB1E_B1U_ENtB33_10FoldHelper4liftNCINvNtB37_4fold14fold_pat_tupleNtNtCsdjy9FUDAuhT_18build_script_build11match_token16MatchTokenParserEs_0E0ENtNtNtBa_6traits8iterator8Iterator7collectB3t_EB4R_, symObjAddr: 0x1F04, symBinAddr: 0x1000247D8, symSize: 0x14 }
  - { offset: 0x791BF, size: 0x8, addend: 0x0, symName: __RINvYINtNtNtNtCsfvfooZQ3Axs_4core4iter8adapters3map3MapIB4_INtNtCs5AlOhPCr03V_3syn10punctuated9IntoPairsNtNtB10_3pat3PatNtNtB10_5token5CommaENvMsJ_BY_INtBY_4PairB1E_B1U_E10into_tupleENCINvXs_NtNtNtB10_3gen6helper4foldINtBY_10PunctuatedB1E_B1U_ENtB33_10FoldHelper4liftNCINvNtB37_4fold17fold_expr_closureNtNtCsdjy9FUDAuhT_18build_script_build11match_token16MatchTokenParserEs2_0E0ENtNtNtBa_6traits8iterator8Iterator7collectB3t_EB4U_, symObjAddr: 0x1F18, symBinAddr: 0x1000247EC, symSize: 0x14 }
  - { offset: 0x79200, size: 0x8, addend: 0x0, symName: __RINvYINtNtNtNtCsfvfooZQ3Axs_4core4iter8adapters3map3MapIB4_INtNtCs5AlOhPCr03V_3syn10punctuated9IntoPairsNtNtB10_3pat8FieldPatNtNtB10_5token5CommaENvMsJ_BY_INtBY_4PairB1E_B1Z_E10into_tupleENCINvXs_NtNtNtB10_3gen6helper4foldINtBY_10PunctuatedB1E_B1Z_ENtB38_10FoldHelper4liftNCINvNtB3c_4fold15fold_pat_structNtNtCsdjy9FUDAuhT_18build_script_build11match_token16MatchTokenParserEs_0E0ENtNtNtBa_6traits8iterator8Iterator7collectB3y_EB4X_, symObjAddr: 0x1F2C, symBinAddr: 0x100024800, symSize: 0x14 }
  - { offset: 0x79241, size: 0x8, addend: 0x0, symName: __RINvYINtNtNtNtCsfvfooZQ3Axs_4core4iter8adapters3map3MapIB4_INtNtCs5AlOhPCr03V_3syn10punctuated9IntoPairsNtNtB10_4data5FieldNtNtB10_5token5CommaENvMsJ_BY_INtBY_4PairB1E_B1X_E10into_tupleENCINvXs_NtNtNtB10_3gen6helper4foldINtBY_10PunctuatedB1E_B1X_ENtB36_10FoldHelper4liftNCINvNtB3a_4fold17fold_fields_namedNtNtCsdjy9FUDAuhT_18build_script_build11match_token16MatchTokenParserE0E0ENtNtNtBa_6traits8iterator8Iterator7collectB3w_EB4X_, symObjAddr: 0x1F40, symBinAddr: 0x100024814, symSize: 0x14 }
  - { offset: 0x79282, size: 0x8, addend: 0x0, symName: __RINvYINtNtNtNtCsfvfooZQ3Axs_4core4iter8adapters3map3MapIB4_INtNtCs5AlOhPCr03V_3syn10punctuated9IntoPairsNtNtB10_4data5FieldNtNtB10_5token5CommaENvMsJ_BY_INtBY_4PairB1E_B1X_E10into_tupleENCINvXs_NtNtNtB10_3gen6helper4foldINtBY_10PunctuatedB1E_B1X_ENtB36_10FoldHelper4liftNCINvNtB3a_4fold19fold_fields_unnamedNtNtCsdjy9FUDAuhT_18build_script_build11match_token16MatchTokenParserE0E0ENtNtNtBa_6traits8iterator8Iterator7collectB3w_EB4Z_, symObjAddr: 0x1F54, symBinAddr: 0x100024828, symSize: 0x14 }
  - { offset: 0x792C3, size: 0x8, addend: 0x0, symName: __RINvYINtNtNtNtCsfvfooZQ3Axs_4core4iter8adapters3map3MapIB4_INtNtCs5AlOhPCr03V_3syn10punctuated9IntoPairsNtNtB10_4data7VariantNtNtB10_5token5CommaENvMsJ_BY_INtBY_4PairB1E_B1Z_E10into_tupleENCINvXs_NtNtNtB10_3gen6helper4foldINtBY_10PunctuatedB1E_B1Z_ENtB38_10FoldHelper4liftNCINvNtB3c_4fold14fold_item_enumNtNtCsdjy9FUDAuhT_18build_script_build11match_token16MatchTokenParserEs_0E0ENtNtNtBa_6traits8iterator8Iterator7collectB3y_EB4W_, symObjAddr: 0x1F68, symBinAddr: 0x10002483C, symSize: 0x14 }
  - { offset: 0x79304, size: 0x8, addend: 0x0, symName: __RINvYINtNtNtNtCsfvfooZQ3Axs_4core4iter8adapters3map3MapIB4_INtNtCs5AlOhPCr03V_3syn10punctuated9IntoPairsNtNtB10_4expr10FieldValueNtNtB10_5token5CommaENvMsJ_BY_INtBY_4PairB1E_B23_E10into_tupleENCINvXs_NtNtNtB10_3gen6helper4foldINtBY_10PunctuatedB1E_B23_ENtB3c_10FoldHelper4liftNCINvNtB3g_4fold16fold_expr_structNtNtCsdjy9FUDAuhT_18build_script_build11match_token16MatchTokenParserEs_0E0ENtNtNtBa_6traits8iterator8Iterator7collectB3C_EB52_, symObjAddr: 0x1F7C, symBinAddr: 0x100024850, symSize: 0x14 }
  - { offset: 0x79345, size: 0x8, addend: 0x0, symName: __RINvYINtNtNtNtCsfvfooZQ3Axs_4core4iter8adapters3map3MapIB4_INtNtCs5AlOhPCr03V_3syn10punctuated9IntoPairsNtNtB10_4expr21GenericMethodArgumentNtNtB10_5token5CommaENvMsJ_BY_INtBY_4PairB1E_B2e_E10into_tupleENCINvXs_NtNtNtB10_3gen6helper4foldINtBY_10PunctuatedB1E_B2e_ENtB3n_10FoldHelper4liftNCINvNtB3r_4fold21fold_method_turbofishNtNtCsdjy9FUDAuhT_18build_script_build11match_token16MatchTokenParserE0E0ENtNtNtBa_6traits8iterator8Iterator7collectB3N_EB5i_, symObjAddr: 0x1F90, symBinAddr: 0x100024864, symSize: 0x14 }
  - { offset: 0x79386, size: 0x8, addend: 0x0, symName: __RINvYINtNtNtNtCsfvfooZQ3Axs_4core4iter8adapters3map3MapIB4_INtNtCs5AlOhPCr03V_3syn10punctuated9IntoPairsNtNtB10_4expr4ExprNtNtB10_5token5CommaENvMsJ_BY_INtBY_4PairB1E_B1W_E10into_tupleENCINvXs_NtNtNtB10_3gen6helper4foldINtBY_10PunctuatedB1E_B1W_ENtB35_10FoldHelper4liftNCINvNtB39_4fold14fold_expr_callNtNtCsdjy9FUDAuhT_18build_script_build11match_token16MatchTokenParserEs_0E0ENtNtNtBa_6traits8iterator8Iterator7collectB3v_EB4T_, symObjAddr: 0x1FA4, symBinAddr: 0x100024878, symSize: 0x14 }
  - { offset: 0x793C7, size: 0x8, addend: 0x0, symName: __RINvYINtNtNtNtCsfvfooZQ3Axs_4core4iter8adapters3map3MapIB4_INtNtCs5AlOhPCr03V_3syn10punctuated9IntoPairsNtNtB10_4expr4ExprNtNtB10_5token5CommaENvMsJ_BY_INtBY_4PairB1E_B1W_E10into_tupleENCINvXs_NtNtNtB10_3gen6helper4foldINtBY_10PunctuatedB1E_B1W_ENtB35_10FoldHelper4liftNCINvNtB39_4fold15fold_expr_arrayNtNtCsdjy9FUDAuhT_18build_script_build11match_token16MatchTokenParserEs_0E0ENtNtNtBa_6traits8iterator8Iterator7collectB3v_EB4U_, symObjAddr: 0x1FB8, symBinAddr: 0x10002488C, symSize: 0x14 }
  - { offset: 0x79408, size: 0x8, addend: 0x0, symName: __RINvYINtNtNtNtCsfvfooZQ3Axs_4core4iter8adapters3map3MapIB4_INtNtCs5AlOhPCr03V_3syn10punctuated9IntoPairsNtNtB10_4expr4ExprNtNtB10_5token5CommaENvMsJ_BY_INtBY_4PairB1E_B1W_E10into_tupleENCINvXs_NtNtNtB10_3gen6helper4foldINtBY_10PunctuatedB1E_B1W_ENtB35_10FoldHelper4liftNCINvNtB39_4fold15fold_expr_tupleNtNtCsdjy9FUDAuhT_18build_script_build11match_token16MatchTokenParserEs_0E0ENtNtNtBa_6traits8iterator8Iterator7collectB3v_EB4U_, symObjAddr: 0x1FCC, symBinAddr: 0x1000248A0, symSize: 0x14 }
  - { offset: 0x79449, size: 0x8, addend: 0x0, symName: __RINvYINtNtNtNtCsfvfooZQ3Axs_4core4iter8adapters3map3MapIB4_INtNtCs5AlOhPCr03V_3syn10punctuated9IntoPairsNtNtB10_4expr4ExprNtNtB10_5token5CommaENvMsJ_BY_INtBY_4PairB1E_B1W_E10into_tupleENCINvXs_NtNtNtB10_3gen6helper4foldINtBY_10PunctuatedB1E_B1W_ENtB35_10FoldHelper4liftNCINvNtB39_4fold21fold_expr_method_callNtNtCsdjy9FUDAuhT_18build_script_build11match_token16MatchTokenParserEs0_0E0ENtNtNtBa_6traits8iterator8Iterator7collectB3v_EB50_, symObjAddr: 0x1FE0, symBinAddr: 0x1000248B4, symSize: 0x14 }
  - { offset: 0x7948A, size: 0x8, addend: 0x0, symName: __RINvYINtNtNtNtCsfvfooZQ3Axs_4core4iter8adapters3map3MapIB4_INtNtCs5AlOhPCr03V_3syn10punctuated9IntoPairsNtNtB10_4item5FnArgNtNtB10_5token5CommaENvMsJ_BY_INtBY_4PairB1E_B1X_E10into_tupleENCINvXs_NtNtNtB10_3gen6helper4foldINtBY_10PunctuatedB1E_B1X_ENtB36_10FoldHelper4liftNCINvNtB3a_4fold14fold_signatureNtNtCsdjy9FUDAuhT_18build_script_build11match_token16MatchTokenParserEs2_0E0ENtNtNtBa_6traits8iterator8Iterator7collectB3w_EB4U_, symObjAddr: 0x1FF4, symBinAddr: 0x1000248C8, symSize: 0x14 }
  - { offset: 0x794CB, size: 0x8, addend: 0x0, symName: __RINvYINtNtNtNtCsfvfooZQ3Axs_4core4iter8adapters3map3MapIB4_INtNtCs5AlOhPCr03V_3syn10punctuated9IntoPairsNtNtB10_4item7UseTreeNtNtB10_5token5CommaENvMsJ_BY_INtBY_4PairB1E_B1Z_E10into_tupleENCINvXs_NtNtNtB10_3gen6helper4foldINtBY_10PunctuatedB1E_B1Z_ENtB38_10FoldHelper4liftNCINvNtB3c_4fold14fold_use_groupNtNtCsdjy9FUDAuhT_18build_script_build11match_token16MatchTokenParserE0E0ENtNtNtBa_6traits8iterator8Iterator7collectB3y_EB4W_, symObjAddr: 0x2008, symBinAddr: 0x1000248DC, symSize: 0x14 }
  - { offset: 0x7950C, size: 0x8, addend: 0x0, symName: __RINvYINtNtNtNtCsfvfooZQ3Axs_4core4iter8adapters3map3MapIB4_INtNtCs5AlOhPCr03V_3syn10punctuated9IntoPairsNtNtB10_4path11PathSegmentNtNtB10_5token6Colon2ENvMsJ_BY_INtBY_4PairB1E_B24_E10into_tupleENCINvXs_NtNtNtB10_3gen6helper4foldINtBY_10PunctuatedB1E_B24_ENtB3e_10FoldHelper4liftNCINvNtB3i_4fold9fold_pathNtNtCsdjy9FUDAuhT_18build_script_build11match_token16MatchTokenParserEs_0E0ENtNtNtBa_6traits8iterator8Iterator7collectB3E_EB4W_, symObjAddr: 0x201C, symBinAddr: 0x1000248F0, symSize: 0x14 }
  - { offset: 0x7954D, size: 0x8, addend: 0x0, symName: __RINvYINtNtNtNtCsfvfooZQ3Axs_4core4iter8adapters3map3MapIB4_INtNtCs5AlOhPCr03V_3syn10punctuated9IntoPairsNtNtB10_4path15GenericArgumentNtNtB10_5token5CommaENvMsJ_BY_INtBY_4PairB1E_B28_E10into_tupleENCINvXs_NtNtNtB10_3gen6helper4foldINtBY_10PunctuatedB1E_B28_ENtB3h_10FoldHelper4liftNCINvNtB3l_4fold38fold_angle_bracketed_generic_argumentsNtNtCsdjy9FUDAuhT_18build_script_build11match_token16MatchTokenParserEs_0E0ENtNtNtBa_6traits8iterator8Iterator7collectB3H_EB5t_, symObjAddr: 0x2030, symBinAddr: 0x100024904, symSize: 0x14 }
  - { offset: 0x7958E, size: 0x8, addend: 0x0, symName: __RINvYINtNtNtNtCsfvfooZQ3Axs_4core4iter8adapters3map3MapIB4_INtNtCs5AlOhPCr03V_3syn10punctuated9IntoPairsNtNtB10_8generics11LifetimeDefNtNtB10_5token5CommaENvMsJ_BY_INtBY_4PairB1E_B28_E10into_tupleENCINvXs_NtNtNtB10_3gen6helper4foldINtBY_10PunctuatedB1E_B28_ENtB3h_10FoldHelper4liftNCINvNtB3l_4fold20fold_bound_lifetimesNtNtCsdjy9FUDAuhT_18build_script_build11match_token16MatchTokenParserE0E0ENtNtNtBa_6traits8iterator8Iterator7collectB3H_EB5b_, symObjAddr: 0x2044, symBinAddr: 0x100024918, symSize: 0x14 }
  - { offset: 0x795CF, size: 0x8, addend: 0x0, symName: __RINvYINtNtNtNtCsfvfooZQ3Axs_4core4iter8adapters3map3MapIB4_INtNtCs5AlOhPCr03V_3syn10punctuated9IntoPairsNtNtB10_8generics12GenericParamNtNtB10_5token5CommaENvMsJ_BY_INtBY_4PairB1E_B29_E10into_tupleENCINvXs_NtNtNtB10_3gen6helper4foldINtBY_10PunctuatedB1E_B29_ENtB3i_10FoldHelper4liftNCINvNtB3m_4fold13fold_genericsNtNtCsdjy9FUDAuhT_18build_script_build11match_token16MatchTokenParserEs_0E0ENtNtNtBa_6traits8iterator8Iterator7collectB3I_EB55_, symObjAddr: 0x2058, symBinAddr: 0x10002492C, symSize: 0x14 }
  - { offset: 0x79610, size: 0x8, addend: 0x0, symName: __RINvYINtNtNtNtCsfvfooZQ3Axs_4core4iter8adapters3map3MapIB4_INtNtCs5AlOhPCr03V_3syn10punctuated9IntoPairsNtNtB10_8generics14TypeParamBoundNtNtB10_5token3AddENvMsJ_BY_INtBY_4PairB1E_B2b_E10into_tupleENCINvXs_NtNtNtB10_3gen6helper4foldINtBY_10PunctuatedB1E_B2b_ENtB3i_10FoldHelper4liftNCINvNtB3m_4fold15fold_constraintNtNtCsdjy9FUDAuhT_18build_script_build11match_token16MatchTokenParserE0E0ENtNtNtBa_6traits8iterator8Iterator7collectB3I_EB57_, symObjAddr: 0x206C, symBinAddr: 0x100024940, symSize: 0x14 }
  - { offset: 0x79651, size: 0x8, addend: 0x0, symName: __RINvYINtNtNtNtCsfvfooZQ3Axs_4core4iter8adapters3map3MapIB4_INtNtCs5AlOhPCr03V_3syn10punctuated9IntoPairsNtNtB10_8generics14TypeParamBoundNtNtB10_5token3AddENvMsJ_BY_INtBY_4PairB1E_B2b_E10into_tupleENCINvXs_NtNtNtB10_3gen6helper4foldINtBY_10PunctuatedB1E_B2b_ENtB3i_10FoldHelper4liftNCINvNtB3m_4fold15fold_item_traitNtNtCsdjy9FUDAuhT_18build_script_build11match_token16MatchTokenParserEs2_0E0ENtNtNtBa_6traits8iterator8Iterator7collectB3I_EB57_, symObjAddr: 0x2080, symBinAddr: 0x100024954, symSize: 0x14 }
  - { offset: 0x79692, size: 0x8, addend: 0x0, symName: __RINvYINtNtNtNtCsfvfooZQ3Axs_4core4iter8adapters3map3MapIB4_INtNtCs5AlOhPCr03V_3syn10punctuated9IntoPairsNtNtB10_8generics14TypeParamBoundNtNtB10_5token3AddENvMsJ_BY_INtBY_4PairB1E_B2b_E10into_tupleENCINvXs_NtNtNtB10_3gen6helper4foldINtBY_10PunctuatedB1E_B2b_ENtB3i_10FoldHelper4liftNCINvNtB3m_4fold15fold_type_paramNtNtCsdjy9FUDAuhT_18build_script_build11match_token16MatchTokenParserEs0_0E0ENtNtNtBa_6traits8iterator8Iterator7collectB3I_EB57_, symObjAddr: 0x2094, symBinAddr: 0x100024968, symSize: 0x14 }
  - { offset: 0x796D3, size: 0x8, addend: 0x0, symName: __RINvYINtNtNtNtCsfvfooZQ3Axs_4core4iter8adapters3map3MapIB4_INtNtCs5AlOhPCr03V_3syn10punctuated9IntoPairsNtNtB10_8generics14TypeParamBoundNtNtB10_5token3AddENvMsJ_BY_INtBY_4PairB1E_B2b_E10into_tupleENCINvXs_NtNtNtB10_3gen6helper4foldINtBY_10PunctuatedB1E_B2b_ENtB3i_10FoldHelper4liftNCINvNtB3m_4fold19fold_predicate_typeNtNtCsdjy9FUDAuhT_18build_script_build11match_token16MatchTokenParserEs_0E0ENtNtNtBa_6traits8iterator8Iterator7collectB3I_EB5b_, symObjAddr: 0x20A8, symBinAddr: 0x10002497C, symSize: 0x14 }
  - { offset: 0x79714, size: 0x8, addend: 0x0, symName: __RINvYINtNtNtNtCsfvfooZQ3Axs_4core4iter8adapters3map3MapIB4_INtNtCs5AlOhPCr03V_3syn10punctuated9IntoPairsNtNtB10_8generics14TypeParamBoundNtNtB10_5token3AddENvMsJ_BY_INtBY_4PairB1E_B2b_E10into_tupleENCINvXs_NtNtNtB10_3gen6helper4foldINtBY_10PunctuatedB1E_B2b_ENtB3i_10FoldHelper4liftNCINvNtB3m_4fold20fold_trait_item_typeNtNtCsdjy9FUDAuhT_18build_script_build11match_token16MatchTokenParserEs0_0E0ENtNtNtBa_6traits8iterator8Iterator7collectB3I_EB5c_, symObjAddr: 0x20BC, symBinAddr: 0x100024990, symSize: 0x14 }
  - { offset: 0x79755, size: 0x8, addend: 0x0, symName: __RINvYINtNtNtNtCsfvfooZQ3Axs_4core4iter8adapters3map3MapIB4_INtNtCs5AlOhPCr03V_3syn10punctuated9IntoPairsNtNtB10_8generics14TypeParamBoundNtNtB10_5token3AddENvMsJ_BY_INtBY_4PairB1E_B2b_E10into_tupleENCINvXs_NtNtNtB10_3gen6helper4foldINtBY_10PunctuatedB1E_B2b_ENtB3i_10FoldHelper4liftNCINvNtB3m_4fold20fold_type_impl_traitNtNtCsdjy9FUDAuhT_18build_script_build11match_token16MatchTokenParserE0E0ENtNtNtBa_6traits8iterator8Iterator7collectB3I_EB5c_, symObjAddr: 0x20D0, symBinAddr: 0x1000249A4, symSize: 0x14 }
  - { offset: 0x79796, size: 0x8, addend: 0x0, symName: __RINvYINtNtNtNtCsfvfooZQ3Axs_4core4iter8adapters3map3MapIB4_INtNtCs5AlOhPCr03V_3syn10punctuated9IntoPairsNtNtB10_8generics14TypeParamBoundNtNtB10_5token3AddENvMsJ_BY_INtBY_4PairB1E_B2b_E10into_tupleENCINvXs_NtNtNtB10_3gen6helper4foldINtBY_10PunctuatedB1E_B2b_ENtB3i_10FoldHelper4liftNCINvNtB3m_4fold21fold_item_trait_aliasNtNtCsdjy9FUDAuhT_18build_script_build11match_token16MatchTokenParserEs_0E0ENtNtNtBa_6traits8iterator8Iterator7collectB3I_EB5d_, symObjAddr: 0x20E4, symBinAddr: 0x1000249B8, symSize: 0x14 }
  - { offset: 0x797D7, size: 0x8, addend: 0x0, symName: __RINvYINtNtNtNtCsfvfooZQ3Axs_4core4iter8adapters3map3MapIB4_INtNtCs5AlOhPCr03V_3syn10punctuated9IntoPairsNtNtB10_8generics14TypeParamBoundNtNtB10_5token3AddENvMsJ_BY_INtBY_4PairB1E_B2b_E10into_tupleENCINvXs_NtNtNtB10_3gen6helper4foldINtBY_10PunctuatedB1E_B2b_ENtB3i_10FoldHelper4liftNCINvNtB3m_4fold22fold_type_trait_objectNtNtCsdjy9FUDAuhT_18build_script_build11match_token16MatchTokenParserEs_0E0ENtNtNtBa_6traits8iterator8Iterator7collectB3I_EB5e_, symObjAddr: 0x20F8, symBinAddr: 0x1000249CC, symSize: 0x14 }
  - { offset: 0x79818, size: 0x8, addend: 0x0, symName: __RINvYINtNtNtNtCsfvfooZQ3Axs_4core4iter8adapters3map3MapIB4_INtNtCs5AlOhPCr03V_3syn10punctuated9IntoPairsNtNtB10_8generics14WherePredicateNtNtB10_5token5CommaENvMsJ_BY_INtBY_4PairB1E_B2b_E10into_tupleENCINvXs_NtNtNtB10_3gen6helper4foldINtBY_10PunctuatedB1E_B2b_ENtB3k_10FoldHelper4liftNCINvNtB3o_4fold17fold_where_clauseNtNtCsdjy9FUDAuhT_18build_script_build11match_token16MatchTokenParserE0E0ENtNtNtBa_6traits8iterator8Iterator7collectB3K_EB5b_, symObjAddr: 0x210C, symBinAddr: 0x1000249E0, symSize: 0x14 }
  - { offset: 0x79859, size: 0x8, addend: 0x0, symName: __RINvYINtNtNtNtCsfvfooZQ3Axs_4core4iter8adapters3map3MapIB4_INtNtCs5AlOhPCr03V_3syn10punctuated9IntoPairsNtNtB10_8lifetime8LifetimeNtNtB10_5token3AddENvMsJ_BY_INtBY_4PairB1E_B24_E10into_tupleENCINvXs_NtNtNtB10_3gen6helper4foldINtBY_10PunctuatedB1E_B24_ENtB3b_10FoldHelper4liftNCINvNtB3f_4fold17fold_lifetime_defNtNtCsdjy9FUDAuhT_18build_script_build11match_token16MatchTokenParserEs0_0E0ENtNtNtBa_6traits8iterator8Iterator7collectB3B_EB52_, symObjAddr: 0x2120, symBinAddr: 0x1000249F4, symSize: 0x14 }
  - { offset: 0x7989A, size: 0x8, addend: 0x0, symName: __RINvYINtNtNtNtCsfvfooZQ3Axs_4core4iter8adapters3map3MapIB4_INtNtCs5AlOhPCr03V_3syn10punctuated9IntoPairsNtNtB10_8lifetime8LifetimeNtNtB10_5token3AddENvMsJ_BY_INtBY_4PairB1E_B24_E10into_tupleENCINvXs_NtNtNtB10_3gen6helper4foldINtBY_10PunctuatedB1E_B24_ENtB3b_10FoldHelper4liftNCINvNtB3f_4fold23fold_predicate_lifetimeNtNtCsdjy9FUDAuhT_18build_script_build11match_token16MatchTokenParserE0E0ENtNtNtBa_6traits8iterator8Iterator7collectB3B_EB58_, symObjAddr: 0x2134, symBinAddr: 0x100024A08, symSize: 0x14 }
  - { offset: 0x798DB, size: 0x8, addend: 0x0, symName: __RINvYINtNtNtNtCsfvfooZQ3Axs_4core4iter8adapters3map3MapINtNtCs5AlOhPCr03V_3syn10punctuated9IntoPairsNtNtBW_2ty4TypeNtNtBW_5token5CommaENvMsJ_BU_INtBU_4PairB1A_B1P_E10into_tupleENtNtNtBa_6traits8iterator8Iterator3mapB2i_NCINvXs_NtNtNtBW_3gen6helper4foldINtBU_10PunctuatedB1A_B1P_ENtB3D_10FoldHelper4liftNCINvNtB3H_4fold15fold_type_tupleNtNtCsdjy9FUDAuhT_18build_script_build11match_token16MatchTokenParserE0E0EB5r_, symObjAddr: 0x2148, symBinAddr: 0x100024A1C, symSize: 0x50 }
  - { offset: 0x79949, size: 0x8, addend: 0x0, symName: __RINvYINtNtNtNtCsfvfooZQ3Axs_4core4iter8adapters3map3MapINtNtCs5AlOhPCr03V_3syn10punctuated9IntoPairsNtNtBW_2ty4TypeNtNtBW_5token5CommaENvMsJ_BU_INtBU_4PairB1A_B1P_E10into_tupleENtNtNtBa_6traits8iterator8Iterator3mapB2i_NCINvXs_NtNtNtBW_3gen6helper4foldINtBU_10PunctuatedB1A_B1P_ENtB3D_10FoldHelper4liftNCINvNtB3H_4fold36fold_parenthesized_generic_argumentsNtNtCsdjy9FUDAuhT_18build_script_build11match_token16MatchTokenParserE0E0EB5M_, symObjAddr: 0x2198, symBinAddr: 0x100024A6C, symSize: 0x50 }
  - { offset: 0x799B7, size: 0x8, addend: 0x0, symName: __RINvYINtNtNtNtCsfvfooZQ3Axs_4core4iter8adapters3map3MapINtNtCs5AlOhPCr03V_3syn10punctuated9IntoPairsNtNtBW_2ty9BareFnArgNtNtBW_5token5CommaENvMsJ_BU_INtBU_4PairB1A_B1U_E10into_tupleENtNtNtBa_6traits8iterator8Iterator3mapB2n_NCINvXs_NtNtNtBW_3gen6helper4foldINtBU_10PunctuatedB1A_B1U_ENtB3I_10FoldHelper4liftNCINvNtB3M_4fold17fold_type_bare_fnNtNtCsdjy9FUDAuhT_18build_script_build11match_token16MatchTokenParserEs1_0E0EB5y_, symObjAddr: 0x21E8, symBinAddr: 0x100024ABC, symSize: 0x50 }
  - { offset: 0x79A25, size: 0x8, addend: 0x0, symName: __RINvYINtNtNtNtCsfvfooZQ3Axs_4core4iter8adapters3map3MapINtNtCs5AlOhPCr03V_3syn10punctuated9IntoPairsNtNtBW_3pat3PatNtNtBW_5token2OrENvMsJ_BU_INtBU_4PairB1A_B1P_E10into_tupleENtNtNtBa_6traits8iterator8Iterator3mapB2f_NCINvXs_NtNtNtBW_3gen6helper4foldINtBU_10PunctuatedB1A_B1P_ENtB3A_10FoldHelper4liftNCINvNtB3E_4fold11fold_pat_orNtNtCsdjy9FUDAuhT_18build_script_build11match_token16MatchTokenParserEs0_0E0EB5k_, symObjAddr: 0x2238, symBinAddr: 0x100024B0C, symSize: 0x50 }
  - { offset: 0x79A93, size: 0x8, addend: 0x0, symName: __RINvYINtNtNtNtCsfvfooZQ3Axs_4core4iter8adapters3map3MapINtNtCs5AlOhPCr03V_3syn10punctuated9IntoPairsNtNtBW_3pat3PatNtNtBW_5token5CommaENvMsJ_BU_INtBU_4PairB1A_B1P_E10into_tupleENtNtNtBa_6traits8iterator8Iterator3mapB2i_NCINvXs_NtNtNtBW_3gen6helper4foldINtBU_10PunctuatedB1A_B1P_ENtB3D_10FoldHelper4liftNCINvNtB3H_4fold14fold_pat_sliceNtNtCsdjy9FUDAuhT_18build_script_build11match_token16MatchTokenParserEs_0E0EB5q_, symObjAddr: 0x2288, symBinAddr: 0x100024B5C, symSize: 0x50 }
  - { offset: 0x79B01, size: 0x8, addend: 0x0, symName: __RINvYINtNtNtNtCsfvfooZQ3Axs_4core4iter8adapters3map3MapINtNtCs5AlOhPCr03V_3syn10punctuated9IntoPairsNtNtBW_3pat3PatNtNtBW_5token5CommaENvMsJ_BU_INtBU_4PairB1A_B1P_E10into_tupleENtNtNtBa_6traits8iterator8Iterator3mapB2i_NCINvXs_NtNtNtBW_3gen6helper4foldINtBU_10PunctuatedB1A_B1P_ENtB3D_10FoldHelper4liftNCINvNtB3H_4fold14fold_pat_tupleNtNtCsdjy9FUDAuhT_18build_script_build11match_token16MatchTokenParserEs_0E0EB5q_, symObjAddr: 0x22D8, symBinAddr: 0x100024BAC, symSize: 0x50 }
  - { offset: 0x79B6F, size: 0x8, addend: 0x0, symName: __RINvYINtNtNtNtCsfvfooZQ3Axs_4core4iter8adapters3map3MapINtNtCs5AlOhPCr03V_3syn10punctuated9IntoPairsNtNtBW_3pat3PatNtNtBW_5token5CommaENvMsJ_BU_INtBU_4PairB1A_B1P_E10into_tupleENtNtNtBa_6traits8iterator8Iterator3mapB2i_NCINvXs_NtNtNtBW_3gen6helper4foldINtBU_10PunctuatedB1A_B1P_ENtB3D_10FoldHelper4liftNCINvNtB3H_4fold17fold_expr_closureNtNtCsdjy9FUDAuhT_18build_script_build11match_token16MatchTokenParserEs2_0E0EB5t_, symObjAddr: 0x2328, symBinAddr: 0x100024BFC, symSize: 0x50 }
  - { offset: 0x79BDD, size: 0x8, addend: 0x0, symName: __RINvYINtNtNtNtCsfvfooZQ3Axs_4core4iter8adapters3map3MapINtNtCs5AlOhPCr03V_3syn10punctuated9IntoPairsNtNtBW_3pat8FieldPatNtNtBW_5token5CommaENvMsJ_BU_INtBU_4PairB1A_B1U_E10into_tupleENtNtNtBa_6traits8iterator8Iterator3mapB2n_NCINvXs_NtNtNtBW_3gen6helper4foldINtBU_10PunctuatedB1A_B1U_ENtB3I_10FoldHelper4liftNCINvNtB3M_4fold15fold_pat_structNtNtCsdjy9FUDAuhT_18build_script_build11match_token16MatchTokenParserEs_0E0EB5w_, symObjAddr: 0x2378, symBinAddr: 0x100024C4C, symSize: 0x50 }
  - { offset: 0x79C4B, size: 0x8, addend: 0x0, symName: __RINvYINtNtNtNtCsfvfooZQ3Axs_4core4iter8adapters3map3MapINtNtCs5AlOhPCr03V_3syn10punctuated9IntoPairsNtNtBW_4data5FieldNtNtBW_5token5CommaENvMsJ_BU_INtBU_4PairB1A_B1S_E10into_tupleENtNtNtBa_6traits8iterator8Iterator3mapB2l_NCINvXs_NtNtNtBW_3gen6helper4foldINtBU_10PunctuatedB1A_B1S_ENtB3G_10FoldHelper4liftNCINvNtB3K_4fold17fold_fields_namedNtNtCsdjy9FUDAuhT_18build_script_build11match_token16MatchTokenParserE0E0EB5w_, symObjAddr: 0x23C8, symBinAddr: 0x100024C9C, symSize: 0x50 }
  - { offset: 0x79CB9, size: 0x8, addend: 0x0, symName: __RINvYINtNtNtNtCsfvfooZQ3Axs_4core4iter8adapters3map3MapINtNtCs5AlOhPCr03V_3syn10punctuated9IntoPairsNtNtBW_4data5FieldNtNtBW_5token5CommaENvMsJ_BU_INtBU_4PairB1A_B1S_E10into_tupleENtNtNtBa_6traits8iterator8Iterator3mapB2l_NCINvXs_NtNtNtBW_3gen6helper4foldINtBU_10PunctuatedB1A_B1S_ENtB3G_10FoldHelper4liftNCINvNtB3K_4fold19fold_fields_unnamedNtNtCsdjy9FUDAuhT_18build_script_build11match_token16MatchTokenParserE0E0EB5y_, symObjAddr: 0x2418, symBinAddr: 0x100024CEC, symSize: 0x50 }
  - { offset: 0x79D27, size: 0x8, addend: 0x0, symName: __RINvYINtNtNtNtCsfvfooZQ3Axs_4core4iter8adapters3map3MapINtNtCs5AlOhPCr03V_3syn10punctuated9IntoPairsNtNtBW_4data7VariantNtNtBW_5token5CommaENvMsJ_BU_INtBU_4PairB1A_B1U_E10into_tupleENtNtNtBa_6traits8iterator8Iterator3mapB2n_NCINvXs_NtNtNtBW_3gen6helper4foldINtBU_10PunctuatedB1A_B1U_ENtB3I_10FoldHelper4liftNCINvNtB3M_4fold14fold_item_enumNtNtCsdjy9FUDAuhT_18build_script_build11match_token16MatchTokenParserEs_0E0EB5v_, symObjAddr: 0x2468, symBinAddr: 0x100024D3C, symSize: 0x50 }
  - { offset: 0x79D95, size: 0x8, addend: 0x0, symName: __RINvYINtNtNtNtCsfvfooZQ3Axs_4core4iter8adapters3map3MapINtNtCs5AlOhPCr03V_3syn10punctuated9IntoPairsNtNtBW_4expr10FieldValueNtNtBW_5token5CommaENvMsJ_BU_INtBU_4PairB1A_B1Y_E10into_tupleENtNtNtBa_6traits8iterator8Iterator3mapB2r_NCINvXs_NtNtNtBW_3gen6helper4foldINtBU_10PunctuatedB1A_B1Y_ENtB3M_10FoldHelper4liftNCINvNtB3Q_4fold16fold_expr_structNtNtCsdjy9FUDAuhT_18build_script_build11match_token16MatchTokenParserEs_0E0EB5B_, symObjAddr: 0x24B8, symBinAddr: 0x100024D8C, symSize: 0x50 }
  - { offset: 0x79E03, size: 0x8, addend: 0x0, symName: __RINvYINtNtNtNtCsfvfooZQ3Axs_4core4iter8adapters3map3MapINtNtCs5AlOhPCr03V_3syn10punctuated9IntoPairsNtNtBW_4expr21GenericMethodArgumentNtNtBW_5token5CommaENvMsJ_BU_INtBU_4PairB1A_B29_E10into_tupleENtNtNtBa_6traits8iterator8Iterator3mapB2C_NCINvXs_NtNtNtBW_3gen6helper4foldINtBU_10PunctuatedB1A_B29_ENtB3X_10FoldHelper4liftNCINvNtB41_4fold21fold_method_turbofishNtNtCsdjy9FUDAuhT_18build_script_build11match_token16MatchTokenParserE0E0EB5R_, symObjAddr: 0x2508, symBinAddr: 0x100024DDC, symSize: 0x50 }
  - { offset: 0x79E71, size: 0x8, addend: 0x0, symName: __RINvYINtNtNtNtCsfvfooZQ3Axs_4core4iter8adapters3map3MapINtNtCs5AlOhPCr03V_3syn10punctuated9IntoPairsNtNtBW_4expr4ExprNtNtBW_5token5CommaENvMsJ_BU_INtBU_4PairB1A_B1R_E10into_tupleENtNtNtBa_6traits8iterator8Iterator3mapB2k_NCINvXs_NtNtNtBW_3gen6helper4foldINtBU_10PunctuatedB1A_B1R_ENtB3F_10FoldHelper4liftNCINvNtB3J_4fold14fold_expr_callNtNtCsdjy9FUDAuhT_18build_script_build11match_token16MatchTokenParserEs_0E0EB5s_, symObjAddr: 0x2558, symBinAddr: 0x100024E2C, symSize: 0x50 }
  - { offset: 0x79EDF, size: 0x8, addend: 0x0, symName: __RINvYINtNtNtNtCsfvfooZQ3Axs_4core4iter8adapters3map3MapINtNtCs5AlOhPCr03V_3syn10punctuated9IntoPairsNtNtBW_4expr4ExprNtNtBW_5token5CommaENvMsJ_BU_INtBU_4PairB1A_B1R_E10into_tupleENtNtNtBa_6traits8iterator8Iterator3mapB2k_NCINvXs_NtNtNtBW_3gen6helper4foldINtBU_10PunctuatedB1A_B1R_ENtB3F_10FoldHelper4liftNCINvNtB3J_4fold15fold_expr_arrayNtNtCsdjy9FUDAuhT_18build_script_build11match_token16MatchTokenParserEs_0E0EB5t_, symObjAddr: 0x25A8, symBinAddr: 0x100024E7C, symSize: 0x50 }
  - { offset: 0x79F4D, size: 0x8, addend: 0x0, symName: __RINvYINtNtNtNtCsfvfooZQ3Axs_4core4iter8adapters3map3MapINtNtCs5AlOhPCr03V_3syn10punctuated9IntoPairsNtNtBW_4expr4ExprNtNtBW_5token5CommaENvMsJ_BU_INtBU_4PairB1A_B1R_E10into_tupleENtNtNtBa_6traits8iterator8Iterator3mapB2k_NCINvXs_NtNtNtBW_3gen6helper4foldINtBU_10PunctuatedB1A_B1R_ENtB3F_10FoldHelper4liftNCINvNtB3J_4fold15fold_expr_tupleNtNtCsdjy9FUDAuhT_18build_script_build11match_token16MatchTokenParserEs_0E0EB5t_, symObjAddr: 0x25F8, symBinAddr: 0x100024ECC, symSize: 0x50 }
  - { offset: 0x79FBB, size: 0x8, addend: 0x0, symName: __RINvYINtNtNtNtCsfvfooZQ3Axs_4core4iter8adapters3map3MapINtNtCs5AlOhPCr03V_3syn10punctuated9IntoPairsNtNtBW_4expr4ExprNtNtBW_5token5CommaENvMsJ_BU_INtBU_4PairB1A_B1R_E10into_tupleENtNtNtBa_6traits8iterator8Iterator3mapB2k_NCINvXs_NtNtNtBW_3gen6helper4foldINtBU_10PunctuatedB1A_B1R_ENtB3F_10FoldHelper4liftNCINvNtB3J_4fold21fold_expr_method_callNtNtCsdjy9FUDAuhT_18build_script_build11match_token16MatchTokenParserEs0_0E0EB5z_, symObjAddr: 0x2648, symBinAddr: 0x100024F1C, symSize: 0x50 }
  - { offset: 0x7A029, size: 0x8, addend: 0x0, symName: __RINvYINtNtNtNtCsfvfooZQ3Axs_4core4iter8adapters3map3MapINtNtCs5AlOhPCr03V_3syn10punctuated9IntoPairsNtNtBW_4item5FnArgNtNtBW_5token5CommaENvMsJ_BU_INtBU_4PairB1A_B1S_E10into_tupleENtNtNtBa_6traits8iterator8Iterator3mapB2l_NCINvXs_NtNtNtBW_3gen6helper4foldINtBU_10PunctuatedB1A_B1S_ENtB3G_10FoldHelper4liftNCINvNtB3K_4fold14fold_signatureNtNtCsdjy9FUDAuhT_18build_script_build11match_token16MatchTokenParserEs2_0E0EB5t_, symObjAddr: 0x2698, symBinAddr: 0x100024F6C, symSize: 0x50 }
  - { offset: 0x7A097, size: 0x8, addend: 0x0, symName: __RINvYINtNtNtNtCsfvfooZQ3Axs_4core4iter8adapters3map3MapINtNtCs5AlOhPCr03V_3syn10punctuated9IntoPairsNtNtBW_4item7UseTreeNtNtBW_5token5CommaENvMsJ_BU_INtBU_4PairB1A_B1U_E10into_tupleENtNtNtBa_6traits8iterator8Iterator3mapB2n_NCINvXs_NtNtNtBW_3gen6helper4foldINtBU_10PunctuatedB1A_B1U_ENtB3I_10FoldHelper4liftNCINvNtB3M_4fold14fold_use_groupNtNtCsdjy9FUDAuhT_18build_script_build11match_token16MatchTokenParserE0E0EB5v_, symObjAddr: 0x26E8, symBinAddr: 0x100024FBC, symSize: 0x4C }
  - { offset: 0x7A105, size: 0x8, addend: 0x0, symName: __RINvYINtNtNtNtCsfvfooZQ3Axs_4core4iter8adapters3map3MapINtNtCs5AlOhPCr03V_3syn10punctuated9IntoPairsNtNtBW_4path11PathSegmentNtNtBW_5token6Colon2ENvMsJ_BU_INtBU_4PairB1A_B1Z_E10into_tupleENtNtNtBa_6traits8iterator8Iterator3mapB2t_NCINvXs_NtNtNtBW_3gen6helper4foldINtBU_10PunctuatedB1A_B1Z_ENtB3O_10FoldHelper4liftNCINvNtB3S_4fold9fold_pathNtNtCsdjy9FUDAuhT_18build_script_build11match_token16MatchTokenParserEs_0E0EB5v_, symObjAddr: 0x2734, symBinAddr: 0x100025008, symSize: 0x50 }
  - { offset: 0x7A173, size: 0x8, addend: 0x0, symName: __RINvYINtNtNtNtCsfvfooZQ3Axs_4core4iter8adapters3map3MapINtNtCs5AlOhPCr03V_3syn10punctuated9IntoPairsNtNtBW_4path15GenericArgumentNtNtBW_5token5CommaENvMsJ_BU_INtBU_4PairB1A_B23_E10into_tupleENtNtNtBa_6traits8iterator8Iterator3mapB2w_NCINvXs_NtNtNtBW_3gen6helper4foldINtBU_10PunctuatedB1A_B23_ENtB3R_10FoldHelper4liftNCINvNtB3V_4fold38fold_angle_bracketed_generic_argumentsNtNtCsdjy9FUDAuhT_18build_script_build11match_token16MatchTokenParserEs_0E0EB62_, symObjAddr: 0x2784, symBinAddr: 0x100025058, symSize: 0x50 }
  - { offset: 0x7A1E1, size: 0x8, addend: 0x0, symName: __RINvYINtNtNtNtCsfvfooZQ3Axs_4core4iter8adapters3map3MapINtNtCs5AlOhPCr03V_3syn10punctuated9IntoPairsNtNtBW_8generics11LifetimeDefNtNtBW_5token5CommaENvMsJ_BU_INtBU_4PairB1A_B23_E10into_tupleENtNtNtBa_6traits8iterator8Iterator3mapB2w_NCINvXs_NtNtNtBW_3gen6helper4foldINtBU_10PunctuatedB1A_B23_ENtB3R_10FoldHelper4liftNCINvNtB3V_4fold20fold_bound_lifetimesNtNtCsdjy9FUDAuhT_18build_script_build11match_token16MatchTokenParserE0E0EB5K_, symObjAddr: 0x27D4, symBinAddr: 0x1000250A8, symSize: 0x50 }
  - { offset: 0x7A24F, size: 0x8, addend: 0x0, symName: __RINvYINtNtNtNtCsfvfooZQ3Axs_4core4iter8adapters3map3MapINtNtCs5AlOhPCr03V_3syn10punctuated9IntoPairsNtNtBW_8generics12GenericParamNtNtBW_5token5CommaENvMsJ_BU_INtBU_4PairB1A_B24_E10into_tupleENtNtNtBa_6traits8iterator8Iterator3mapB2x_NCINvXs_NtNtNtBW_3gen6helper4foldINtBU_10PunctuatedB1A_B24_ENtB3S_10FoldHelper4liftNCINvNtB3W_4fold13fold_genericsNtNtCsdjy9FUDAuhT_18build_script_build11match_token16MatchTokenParserEs_0E0EB5E_, symObjAddr: 0x2824, symBinAddr: 0x1000250F8, symSize: 0x50 }
  - { offset: 0x7A2BD, size: 0x8, addend: 0x0, symName: __RINvYINtNtNtNtCsfvfooZQ3Axs_4core4iter8adapters3map3MapINtNtCs5AlOhPCr03V_3syn10punctuated9IntoPairsNtNtBW_8generics14TypeParamBoundNtNtBW_5token3AddENvMsJ_BU_INtBU_4PairB1A_B26_E10into_tupleENtNtNtBa_6traits8iterator8Iterator3mapB2x_NCINvXs_NtNtNtBW_3gen6helper4foldINtBU_10PunctuatedB1A_B26_ENtB3S_10FoldHelper4liftNCINvNtB3W_4fold15fold_constraintNtNtCsdjy9FUDAuhT_18build_script_build11match_token16MatchTokenParserE0E0EB5G_, symObjAddr: 0x2874, symBinAddr: 0x100025148, symSize: 0x50 }
  - { offset: 0x7A32B, size: 0x8, addend: 0x0, symName: __RINvYINtNtNtNtCsfvfooZQ3Axs_4core4iter8adapters3map3MapINtNtCs5AlOhPCr03V_3syn10punctuated9IntoPairsNtNtBW_8generics14TypeParamBoundNtNtBW_5token3AddENvMsJ_BU_INtBU_4PairB1A_B26_E10into_tupleENtNtNtBa_6traits8iterator8Iterator3mapB2x_NCINvXs_NtNtNtBW_3gen6helper4foldINtBU_10PunctuatedB1A_B26_ENtB3S_10FoldHelper4liftNCINvNtB3W_4fold15fold_item_traitNtNtCsdjy9FUDAuhT_18build_script_build11match_token16MatchTokenParserEs2_0E0EB5G_, symObjAddr: 0x28C4, symBinAddr: 0x100025198, symSize: 0x50 }
  - { offset: 0x7A399, size: 0x8, addend: 0x0, symName: __RINvYINtNtNtNtCsfvfooZQ3Axs_4core4iter8adapters3map3MapINtNtCs5AlOhPCr03V_3syn10punctuated9IntoPairsNtNtBW_8generics14TypeParamBoundNtNtBW_5token3AddENvMsJ_BU_INtBU_4PairB1A_B26_E10into_tupleENtNtNtBa_6traits8iterator8Iterator3mapB2x_NCINvXs_NtNtNtBW_3gen6helper4foldINtBU_10PunctuatedB1A_B26_ENtB3S_10FoldHelper4liftNCINvNtB3W_4fold15fold_type_paramNtNtCsdjy9FUDAuhT_18build_script_build11match_token16MatchTokenParserEs0_0E0EB5G_, symObjAddr: 0x2914, symBinAddr: 0x1000251E8, symSize: 0x50 }
  - { offset: 0x7A407, size: 0x8, addend: 0x0, symName: __RINvYINtNtNtNtCsfvfooZQ3Axs_4core4iter8adapters3map3MapINtNtCs5AlOhPCr03V_3syn10punctuated9IntoPairsNtNtBW_8generics14TypeParamBoundNtNtBW_5token3AddENvMsJ_BU_INtBU_4PairB1A_B26_E10into_tupleENtNtNtBa_6traits8iterator8Iterator3mapB2x_NCINvXs_NtNtNtBW_3gen6helper4foldINtBU_10PunctuatedB1A_B26_ENtB3S_10FoldHelper4liftNCINvNtB3W_4fold19fold_predicate_typeNtNtCsdjy9FUDAuhT_18build_script_build11match_token16MatchTokenParserEs_0E0EB5K_, symObjAddr: 0x2964, symBinAddr: 0x100025238, symSize: 0x50 }
  - { offset: 0x7A475, size: 0x8, addend: 0x0, symName: __RINvYINtNtNtNtCsfvfooZQ3Axs_4core4iter8adapters3map3MapINtNtCs5AlOhPCr03V_3syn10punctuated9IntoPairsNtNtBW_8generics14TypeParamBoundNtNtBW_5token3AddENvMsJ_BU_INtBU_4PairB1A_B26_E10into_tupleENtNtNtBa_6traits8iterator8Iterator3mapB2x_NCINvXs_NtNtNtBW_3gen6helper4foldINtBU_10PunctuatedB1A_B26_ENtB3S_10FoldHelper4liftNCINvNtB3W_4fold20fold_trait_item_typeNtNtCsdjy9FUDAuhT_18build_script_build11match_token16MatchTokenParserEs0_0E0EB5L_, symObjAddr: 0x29B4, symBinAddr: 0x100025288, symSize: 0x50 }
  - { offset: 0x7A4E3, size: 0x8, addend: 0x0, symName: __RINvYINtNtNtNtCsfvfooZQ3Axs_4core4iter8adapters3map3MapINtNtCs5AlOhPCr03V_3syn10punctuated9IntoPairsNtNtBW_8generics14TypeParamBoundNtNtBW_5token3AddENvMsJ_BU_INtBU_4PairB1A_B26_E10into_tupleENtNtNtBa_6traits8iterator8Iterator3mapB2x_NCINvXs_NtNtNtBW_3gen6helper4foldINtBU_10PunctuatedB1A_B26_ENtB3S_10FoldHelper4liftNCINvNtB3W_4fold20fold_type_impl_traitNtNtCsdjy9FUDAuhT_18build_script_build11match_token16MatchTokenParserE0E0EB5L_, symObjAddr: 0x2A04, symBinAddr: 0x1000252D8, symSize: 0x50 }
  - { offset: 0x7A551, size: 0x8, addend: 0x0, symName: __RINvYINtNtNtNtCsfvfooZQ3Axs_4core4iter8adapters3map3MapINtNtCs5AlOhPCr03V_3syn10punctuated9IntoPairsNtNtBW_8generics14TypeParamBoundNtNtBW_5token3AddENvMsJ_BU_INtBU_4PairB1A_B26_E10into_tupleENtNtNtBa_6traits8iterator8Iterator3mapB2x_NCINvXs_NtNtNtBW_3gen6helper4foldINtBU_10PunctuatedB1A_B26_ENtB3S_10FoldHelper4liftNCINvNtB3W_4fold21fold_item_trait_aliasNtNtCsdjy9FUDAuhT_18build_script_build11match_token16MatchTokenParserEs_0E0EB5M_, symObjAddr: 0x2A54, symBinAddr: 0x100025328, symSize: 0x50 }
  - { offset: 0x7A5BF, size: 0x8, addend: 0x0, symName: __RINvYINtNtNtNtCsfvfooZQ3Axs_4core4iter8adapters3map3MapINtNtCs5AlOhPCr03V_3syn10punctuated9IntoPairsNtNtBW_8generics14TypeParamBoundNtNtBW_5token3AddENvMsJ_BU_INtBU_4PairB1A_B26_E10into_tupleENtNtNtBa_6traits8iterator8Iterator3mapB2x_NCINvXs_NtNtNtBW_3gen6helper4foldINtBU_10PunctuatedB1A_B26_ENtB3S_10FoldHelper4liftNCINvNtB3W_4fold22fold_type_trait_objectNtNtCsdjy9FUDAuhT_18build_script_build11match_token16MatchTokenParserEs_0E0EB5N_, symObjAddr: 0x2AA4, symBinAddr: 0x100025378, symSize: 0x50 }
  - { offset: 0x7A62D, size: 0x8, addend: 0x0, symName: __RINvYINtNtNtNtCsfvfooZQ3Axs_4core4iter8adapters3map3MapINtNtCs5AlOhPCr03V_3syn10punctuated9IntoPairsNtNtBW_8generics14WherePredicateNtNtBW_5token5CommaENvMsJ_BU_INtBU_4PairB1A_B26_E10into_tupleENtNtNtBa_6traits8iterator8Iterator3mapB2z_NCINvXs_NtNtNtBW_3gen6helper4foldINtBU_10PunctuatedB1A_B26_ENtB3U_10FoldHelper4liftNCINvNtB3Y_4fold17fold_where_clauseNtNtCsdjy9FUDAuhT_18build_script_build11match_token16MatchTokenParserE0E0EB5K_, symObjAddr: 0x2AF4, symBinAddr: 0x1000253C8, symSize: 0x50 }
  - { offset: 0x7A69B, size: 0x8, addend: 0x0, symName: __RINvYINtNtNtNtCsfvfooZQ3Axs_4core4iter8adapters3map3MapINtNtCs5AlOhPCr03V_3syn10punctuated9IntoPairsNtNtBW_8lifetime8LifetimeNtNtBW_5token3AddENvMsJ_BU_INtBU_4PairB1A_B1Z_E10into_tupleENtNtNtBa_6traits8iterator8Iterator3mapB2q_NCINvXs_NtNtNtBW_3gen6helper4foldINtBU_10PunctuatedB1A_B1Z_ENtB3L_10FoldHelper4liftNCINvNtB3P_4fold17fold_lifetime_defNtNtCsdjy9FUDAuhT_18build_script_build11match_token16MatchTokenParserEs0_0E0EB5B_, symObjAddr: 0x2B44, symBinAddr: 0x100025418, symSize: 0x4C }
  - { offset: 0x7A709, size: 0x8, addend: 0x0, symName: __RINvYINtNtNtNtCsfvfooZQ3Axs_4core4iter8adapters3map3MapINtNtCs5AlOhPCr03V_3syn10punctuated9IntoPairsNtNtBW_8lifetime8LifetimeNtNtBW_5token3AddENvMsJ_BU_INtBU_4PairB1A_B1Z_E10into_tupleENtNtNtBa_6traits8iterator8Iterator3mapB2q_NCINvXs_NtNtNtBW_3gen6helper4foldINtBU_10PunctuatedB1A_B1Z_ENtB3L_10FoldHelper4liftNCINvNtB3P_4fold23fold_predicate_lifetimeNtNtCsdjy9FUDAuhT_18build_script_build11match_token16MatchTokenParserE0E0EB5H_, symObjAddr: 0x2B90, symBinAddr: 0x100025464, symSize: 0x4C }
  - { offset: 0x7A777, size: 0x8, addend: 0x0, symName: __RINvYINtNtNtNtCsfvfooZQ3Axs_4core4iter8adapters3map3MapINtNtNtBc_5slice4iter4IterhENCNvNtCse1nGBsou5OW_5alloc3str13replace_ascii0ENtNtNtBa_6traits8iterator8Iterator8for_eachNCINvMsi_NtB1p_3vecINtB2U_3VechE14extend_trustedB3_E0ECsdjy9FUDAuhT_18build_script_build, symObjAddr: 0x2BDC, symBinAddr: 0x1000254B0, symSize: 0x34 }
  - { offset: 0x7A7E3, size: 0x8, addend: 0x0, symName: __RINvYINtNtNtNtCsfvfooZQ3Axs_4core4iter8adapters3map3MapINtNtNtCse1nGBsou5OW_5alloc3vec9into_iter8IntoIterNtNtCs5AlOhPCr03V_3syn4attr9AttributeENCINvNtNtB1J_3gen4fold10fold_fieldNtNtCsdjy9FUDAuhT_18build_script_build11match_token16MatchTokenParserE0ENtNtNtBa_6traits8iterator8Iterator7collectINtBW_3VecB1F_EEB2T_, symObjAddr: 0x2C10, symBinAddr: 0x1000254E4, symSize: 0x1C }
  - { offset: 0x7A824, size: 0x8, addend: 0x0, symName: __RINvYINtNtNtNtCsfvfooZQ3Axs_4core4iter8adapters3map3MapINtNtNtCse1nGBsou5OW_5alloc3vec9into_iter8IntoIterNtNtCs5AlOhPCr03V_3syn4attr9AttributeENCINvNtNtB1J_3gen4fold10fold_localNtNtCsdjy9FUDAuhT_18build_script_build11match_token16MatchTokenParserE0ENtNtNtBa_6traits8iterator8Iterator7collectINtBW_3VecB1F_EEB2T_, symObjAddr: 0x2C2C, symBinAddr: 0x100025500, symSize: 0x1C }
  - { offset: 0x7A865, size: 0x8, addend: 0x0, symName: __RINvYINtNtNtNtCsfvfooZQ3Axs_4core4iter8adapters3map3MapINtNtNtCse1nGBsou5OW_5alloc3vec9into_iter8IntoIterNtNtCs5AlOhPCr03V_3syn4attr9AttributeENCINvNtNtB1J_3gen4fold11fold_pat_orNtNtCsdjy9FUDAuhT_18build_script_build11match_token16MatchTokenParserE0ENtNtNtBa_6traits8iterator8Iterator7collectINtBW_3VecB1F_EEB2U_, symObjAddr: 0x2C48, symBinAddr: 0x10002551C, symSize: 0x1C }
  - { offset: 0x7A8A6, size: 0x8, addend: 0x0, symName: __RINvYINtNtNtNtCsfvfooZQ3Axs_4core4iter8adapters3map3MapINtNtNtCse1nGBsou5OW_5alloc3vec9into_iter8IntoIterNtNtCs5AlOhPCr03V_3syn4attr9AttributeENCINvNtNtB1J_3gen4fold12fold_expr_ifNtNtCsdjy9FUDAuhT_18build_script_build11match_token16MatchTokenParserE0ENtNtNtBa_6traits8iterator8Iterator7collectINtBW_3VecB1F_EEB2V_, symObjAddr: 0x2C64, symBinAddr: 0x100025538, symSize: 0x1C }
  - { offset: 0x7A8E7, size: 0x8, addend: 0x0, symName: __RINvYINtNtNtNtCsfvfooZQ3Axs_4core4iter8adapters3map3MapINtNtNtCse1nGBsou5OW_5alloc3vec9into_iter8IntoIterNtNtCs5AlOhPCr03V_3syn4attr9AttributeENCINvNtNtB1J_3gen4fold12fold_item_fnNtNtCsdjy9FUDAuhT_18build_script_build11match_token16MatchTokenParserE0ENtNtNtBa_6traits8iterator8Iterator7collectINtBW_3VecB1F_EEB2V_, symObjAddr: 0x2C80, symBinAddr: 0x100025554, symSize: 0x1C }
  - { offset: 0x7A928, size: 0x8, addend: 0x0, symName: __RINvYINtNtNtNtCsfvfooZQ3Axs_4core4iter8adapters3map3MapINtNtNtCse1nGBsou5OW_5alloc3vec9into_iter8IntoIterNtNtCs5AlOhPCr03V_3syn4attr9AttributeENCINvNtNtB1J_3gen4fold12fold_pat_boxNtNtCsdjy9FUDAuhT_18build_script_build11match_token16MatchTokenParserE0ENtNtNtBa_6traits8iterator8Iterator7collectINtBW_3VecB1F_EEB2V_, symObjAddr: 0x2C9C, symBinAddr: 0x100025570, symSize: 0x1C }
  - { offset: 0x7A969, size: 0x8, addend: 0x0, symName: __RINvYINtNtNtNtCsfvfooZQ3Axs_4core4iter8adapters3map3MapINtNtNtCse1nGBsou5OW_5alloc3vec9into_iter8IntoIterNtNtCs5AlOhPCr03V_3syn4attr9AttributeENCINvNtNtB1J_3gen4fold12fold_pat_litNtNtCsdjy9FUDAuhT_18build_script_build11match_token16MatchTokenParserE0ENtNtNtBa_6traits8iterator8Iterator7collectINtBW_3VecB1F_EEB2V_, symObjAddr: 0x2CB8, symBinAddr: 0x10002558C, symSize: 0x1C }
  - { offset: 0x7A9AA, size: 0x8, addend: 0x0, symName: __RINvYINtNtNtNtCsfvfooZQ3Axs_4core4iter8adapters3map3MapINtNtNtCse1nGBsou5OW_5alloc3vec9into_iter8IntoIterNtNtCs5AlOhPCr03V_3syn4attr9AttributeENCINvNtNtB1J_3gen4fold12fold_variantNtNtCsdjy9FUDAuhT_18build_script_build11match_token16MatchTokenParserE0ENtNtNtBa_6traits8iterator8Iterator7collectINtBW_3VecB1F_EEB2V_, symObjAddr: 0x2CD4, symBinAddr: 0x1000255A8, symSize: 0x1C }
  - { offset: 0x7A9EB, size: 0x8, addend: 0x0, symName: __RINvYINtNtNtNtCsfvfooZQ3Axs_4core4iter8adapters3map3MapINtNtNtCse1nGBsou5OW_5alloc3vec9into_iter8IntoIterNtNtCs5AlOhPCr03V_3syn4attr9AttributeENCINvNtNtB1J_3gen4fold13fold_expr_boxNtNtCsdjy9FUDAuhT_18build_script_build11match_token16MatchTokenParserE0ENtNtNtBa_6traits8iterator8Iterator7collectINtBW_3VecB1F_EEB2W_, symObjAddr: 0x2CF0, symBinAddr: 0x1000255C4, symSize: 0x1C }
  - { offset: 0x7AA2C, size: 0x8, addend: 0x0, symName: __RINvYINtNtNtNtCsfvfooZQ3Axs_4core4iter8adapters3map3MapINtNtNtCse1nGBsou5OW_5alloc3vec9into_iter8IntoIterNtNtCs5AlOhPCr03V_3syn4attr9AttributeENCINvNtNtB1J_3gen4fold13fold_expr_letNtNtCsdjy9FUDAuhT_18build_script_build11match_token16MatchTokenParserE0ENtNtNtBa_6traits8iterator8Iterator7collectINtBW_3VecB1F_EEB2W_, symObjAddr: 0x2D0C, symBinAddr: 0x1000255E0, symSize: 0x1C }
  - { offset: 0x7AA6D, size: 0x8, addend: 0x0, symName: __RINvYINtNtNtNtCsfvfooZQ3Axs_4core4iter8adapters3map3MapINtNtNtCse1nGBsou5OW_5alloc3vec9into_iter8IntoIterNtNtCs5AlOhPCr03V_3syn4attr9AttributeENCINvNtNtB1J_3gen4fold13fold_expr_litNtNtCsdjy9FUDAuhT_18build_script_build11match_token16MatchTokenParserE0ENtNtNtBa_6traits8iterator8Iterator7collectINtBW_3VecB1F_EEB2W_, symObjAddr: 0x2D28, symBinAddr: 0x1000255FC, symSize: 0x1C }
  - { offset: 0x7AAAE, size: 0x8, addend: 0x0, symName: __RINvYINtNtNtNtCsfvfooZQ3Axs_4core4iter8adapters3map3MapINtNtNtCse1nGBsou5OW_5alloc3vec9into_iter8IntoIterNtNtCs5AlOhPCr03V_3syn4attr9AttributeENCINvNtNtB1J_3gen4fold13fold_expr_tryNtNtCsdjy9FUDAuhT_18build_script_build11match_token16MatchTokenParserE0ENtNtNtBa_6traits8iterator8Iterator7collectINtBW_3VecB1F_EEB2W_, symObjAddr: 0x2D44, symBinAddr: 0x100025618, symSize: 0x1C }
  - { offset: 0x7AAEF, size: 0x8, addend: 0x0, symName: __RINvYINtNtNtNtCsfvfooZQ3Axs_4core4iter8adapters3map3MapINtNtNtCse1nGBsou5OW_5alloc3vec9into_iter8IntoIterNtNtCs5AlOhPCr03V_3syn4attr9AttributeENCINvNtNtB1J_3gen4fold13fold_item_modNtNtCsdjy9FUDAuhT_18build_script_build11match_token16MatchTokenParserE0ENtNtNtBa_6traits8iterator8Iterator7collectINtBW_3VecB1F_EEB2W_, symObjAddr: 0x2D60, symBinAddr: 0x100025634, symSize: 0x1C }
  - { offset: 0x7AB30, size: 0x8, addend: 0x0, symName: __RINvYINtNtNtNtCsfvfooZQ3Axs_4core4iter8adapters3map3MapINtNtNtCse1nGBsou5OW_5alloc3vec9into_iter8IntoIterNtNtCs5AlOhPCr03V_3syn4attr9AttributeENCINvNtNtB1J_3gen4fold13fold_item_useNtNtCsdjy9FUDAuhT_18build_script_build11match_token16MatchTokenParserE0ENtNtNtBa_6traits8iterator8Iterator7collectINtBW_3VecB1F_EEB2W_, symObjAddr: 0x2D7C, symBinAddr: 0x100025650, symSize: 0x1C }
  - { offset: 0x7AB71, size: 0x8, addend: 0x0, symName: __RINvYINtNtNtNtCsfvfooZQ3Axs_4core4iter8adapters3map3MapINtNtNtCse1nGBsou5OW_5alloc3vec9into_iter8IntoIterNtNtCs5AlOhPCr03V_3syn4attr9AttributeENCINvNtNtB1J_3gen4fold13fold_pat_pathNtNtCsdjy9FUDAuhT_18build_script_build11match_token16MatchTokenParserE0ENtNtNtBa_6traits8iterator8Iterator7collectINtBW_3VecB1F_EEB2W_, symObjAddr: 0x2D98, symBinAddr: 0x10002566C, symSize: 0x1C }
  - { offset: 0x7ABB2, size: 0x8, addend: 0x0, symName: __RINvYINtNtNtNtCsfvfooZQ3Axs_4core4iter8adapters3map3MapINtNtNtCse1nGBsou5OW_5alloc3vec9into_iter8IntoIterNtNtCs5AlOhPCr03V_3syn4attr9AttributeENCINvNtNtB1J_3gen4fold13fold_pat_restNtNtCsdjy9FUDAuhT_18build_script_build11match_token16MatchTokenParserE0ENtNtNtBa_6traits8iterator8Iterator7collectINtBW_3VecB1F_EEB2W_, symObjAddr: 0x2DB4, symBinAddr: 0x100025688, symSize: 0x1C }
  - { offset: 0x7ABF3, size: 0x8, addend: 0x0, symName: __RINvYINtNtNtNtCsfvfooZQ3Axs_4core4iter8adapters3map3MapINtNtNtCse1nGBsou5OW_5alloc3vec9into_iter8IntoIterNtNtCs5AlOhPCr03V_3syn4attr9AttributeENCINvNtNtB1J_3gen4fold13fold_pat_typeNtNtCsdjy9FUDAuhT_18build_script_build11match_token16MatchTokenParserE0ENtNtNtBa_6traits8iterator8Iterator7collectINtBW_3VecB1F_EEB2W_, symObjAddr: 0x2DD0, symBinAddr: 0x1000256A4, symSize: 0x1C }
  - { offset: 0x7AC34, size: 0x8, addend: 0x0, symName: __RINvYINtNtNtNtCsfvfooZQ3Axs_4core4iter8adapters3map3MapINtNtNtCse1nGBsou5OW_5alloc3vec9into_iter8IntoIterNtNtCs5AlOhPCr03V_3syn4attr9AttributeENCINvNtNtB1J_3gen4fold13fold_pat_wildNtNtCsdjy9FUDAuhT_18build_script_build11match_token16MatchTokenParserE0ENtNtNtBa_6traits8iterator8Iterator7collectINtBW_3VecB1F_EEB2W_, symObjAddr: 0x2DEC, symBinAddr: 0x1000256C0, symSize: 0x1C }
  - { offset: 0x7AC75, size: 0x8, addend: 0x0, symName: __RINvYINtNtNtNtCsfvfooZQ3Axs_4core4iter8adapters3map3MapINtNtNtCse1nGBsou5OW_5alloc3vec9into_iter8IntoIterNtNtCs5AlOhPCr03V_3syn4attr9AttributeENCINvNtNtB1J_3gen4fold13fold_receiverNtNtCsdjy9FUDAuhT_18build_script_build11match_token16MatchTokenParserE0ENtNtNtBa_6traits8iterator8Iterator7collectINtBW_3VecB1F_EEB2W_, symObjAddr: 0x2E08, symBinAddr: 0x1000256DC, symSize: 0x1C }
  - { offset: 0x7ACB6, size: 0x8, addend: 0x0, symName: __RINvYINtNtNtNtCsfvfooZQ3Axs_4core4iter8adapters3map3MapINtNtNtCse1nGBsou5OW_5alloc3vec9into_iter8IntoIterNtNtCs5AlOhPCr03V_3syn4attr9AttributeENCINvNtNtB1J_3gen4fold13fold_variadicNtNtCsdjy9FUDAuhT_18build_script_build11match_token16MatchTokenParserE0ENtNtNtBa_6traits8iterator8Iterator7collectINtBW_3VecB1F_EEB2W_, symObjAddr: 0x2E24, symBinAddr: 0x1000256F8, symSize: 0x1C }
  - { offset: 0x7ACF7, size: 0x8, addend: 0x0, symName: __RINvYINtNtNtNtCsfvfooZQ3Axs_4core4iter8adapters3map3MapINtNtNtCse1nGBsou5OW_5alloc3vec9into_iter8IntoIterNtNtCs5AlOhPCr03V_3syn4attr9AttributeENCINvNtNtB1J_3gen4fold14fold_expr_callNtNtCsdjy9FUDAuhT_18build_script_build11match_token16MatchTokenParserE0ENtNtNtBa_6traits8iterator8Iterator7collectINtBW_3VecB1F_EEB2X_, symObjAddr: 0x2E40, symBinAddr: 0x100025714, symSize: 0x1C }
  - { offset: 0x7AD38, size: 0x8, addend: 0x0, symName: __RINvYINtNtNtNtCsfvfooZQ3Axs_4core4iter8adapters3map3MapINtNtNtCse1nGBsou5OW_5alloc3vec9into_iter8IntoIterNtNtCs5AlOhPCr03V_3syn4attr9AttributeENCINvNtNtB1J_3gen4fold14fold_expr_castNtNtCsdjy9FUDAuhT_18build_script_build11match_token16MatchTokenParserE0ENtNtNtBa_6traits8iterator8Iterator7collectINtBW_3VecB1F_EEB2X_, symObjAddr: 0x2E5C, symBinAddr: 0x100025730, symSize: 0x1C }
  - { offset: 0x7AD79, size: 0x8, addend: 0x0, symName: __RINvYINtNtNtNtCsfvfooZQ3Axs_4core4iter8adapters3map3MapINtNtNtCse1nGBsou5OW_5alloc3vec9into_iter8IntoIterNtNtCs5AlOhPCr03V_3syn4attr9AttributeENCINvNtNtB1J_3gen4fold14fold_expr_loopNtNtCsdjy9FUDAuhT_18build_script_build11match_token16MatchTokenParserE0ENtNtNtBa_6traits8iterator8Iterator7collectINtBW_3VecB1F_EEB2X_, symObjAddr: 0x2E78, symBinAddr: 0x10002574C, symSize: 0x1C }
  - { offset: 0x7ADBA, size: 0x8, addend: 0x0, symName: __RINvYINtNtNtNtCsfvfooZQ3Axs_4core4iter8adapters3map3MapINtNtNtCse1nGBsou5OW_5alloc3vec9into_iter8IntoIterNtNtCs5AlOhPCr03V_3syn4attr9AttributeENCINvNtNtB1J_3gen4fold14fold_expr_pathNtNtCsdjy9FUDAuhT_18build_script_build11match_token16MatchTokenParserE0ENtNtNtBa_6traits8iterator8Iterator7collectINtBW_3VecB1F_EEB2X_, symObjAddr: 0x2E94, symBinAddr: 0x100025768, symSize: 0x1C }
  - { offset: 0x7ADFB, size: 0x8, addend: 0x0, symName: __RINvYINtNtNtNtCsfvfooZQ3Axs_4core4iter8adapters3map3MapINtNtNtCse1nGBsou5OW_5alloc3vec9into_iter8IntoIterNtNtCs5AlOhPCr03V_3syn4attr9AttributeENCINvNtNtB1J_3gen4fold14fold_expr_typeNtNtCsdjy9FUDAuhT_18build_script_build11match_token16MatchTokenParserE0ENtNtNtBa_6traits8iterator8Iterator7collectINtBW_3VecB1F_EEB2X_, symObjAddr: 0x2EB0, symBinAddr: 0x100025784, symSize: 0x1C }
  - { offset: 0x7AE3C, size: 0x8, addend: 0x0, symName: __RINvYINtNtNtNtCsfvfooZQ3Axs_4core4iter8adapters3map3MapINtNtNtCse1nGBsou5OW_5alloc3vec9into_iter8IntoIterNtNtCs5AlOhPCr03V_3syn4attr9AttributeENCINvNtNtB1J_3gen4fold14fold_field_patNtNtCsdjy9FUDAuhT_18build_script_build11match_token16MatchTokenParserE0ENtNtNtBa_6traits8iterator8Iterator7collectINtBW_3VecB1F_EEB2X_, symObjAddr: 0x2ECC, symBinAddr: 0x1000257A0, symSize: 0x1C }
  - { offset: 0x7AE7D, size: 0x8, addend: 0x0, symName: __RINvYINtNtNtNtCsfvfooZQ3Axs_4core4iter8adapters3map3MapINtNtNtCse1nGBsou5OW_5alloc3vec9into_iter8IntoIterNtNtCs5AlOhPCr03V_3syn4attr9AttributeENCINvNtNtB1J_3gen4fold14fold_item_enumNtNtCsdjy9FUDAuhT_18build_script_build11match_token16MatchTokenParserE0ENtNtNtBa_6traits8iterator8Iterator7collectINtBW_3VecB1F_EEB2X_, symObjAddr: 0x2EE8, symBinAddr: 0x1000257BC, symSize: 0x1C }
  - { offset: 0x7AEBE, size: 0x8, addend: 0x0, symName: __RINvYINtNtNtNtCsfvfooZQ3Axs_4core4iter8adapters3map3MapINtNtNtCse1nGBsou5OW_5alloc3vec9into_iter8IntoIterNtNtCs5AlOhPCr03V_3syn4attr9AttributeENCINvNtNtB1J_3gen4fold14fold_item_implNtNtCsdjy9FUDAuhT_18build_script_build11match_token16MatchTokenParserE0ENtNtNtBa_6traits8iterator8Iterator7collectINtBW_3VecB1F_EEB2X_, symObjAddr: 0x2F04, symBinAddr: 0x1000257D8, symSize: 0x1C }
  - { offset: 0x7AEFF, size: 0x8, addend: 0x0, symName: __RINvYINtNtNtNtCsfvfooZQ3Axs_4core4iter8adapters3map3MapINtNtNtCse1nGBsou5OW_5alloc3vec9into_iter8IntoIterNtNtCs5AlOhPCr03V_3syn4attr9AttributeENCINvNtNtB1J_3gen4fold14fold_item_typeNtNtCsdjy9FUDAuhT_18build_script_build11match_token16MatchTokenParserE0ENtNtNtBa_6traits8iterator8Iterator7collectINtBW_3VecB1F_EEB2X_, symObjAddr: 0x2F20, symBinAddr: 0x1000257F4, symSize: 0x1C }
  - { offset: 0x7AF40, size: 0x8, addend: 0x0, symName: __RINvYINtNtNtNtCsfvfooZQ3Axs_4core4iter8adapters3map3MapINtNtNtCse1nGBsou5OW_5alloc3vec9into_iter8IntoIterNtNtCs5AlOhPCr03V_3syn4attr9AttributeENCINvNtNtB1J_3gen4fold14fold_pat_identNtNtCsdjy9FUDAuhT_18build_script_build11match_token16MatchTokenParserE0ENtNtNtBa_6traits8iterator8Iterator7collectINtBW_3VecB1F_EEB2X_, symObjAddr: 0x2F3C, symBinAddr: 0x100025810, symSize: 0x1C }
  - { offset: 0x7AF81, size: 0x8, addend: 0x0, symName: __RINvYINtNtNtNtCsfvfooZQ3Axs_4core4iter8adapters3map3MapINtNtNtCse1nGBsou5OW_5alloc3vec9into_iter8IntoIterNtNtCs5AlOhPCr03V_3syn4attr9AttributeENCINvNtNtB1J_3gen4fold14fold_pat_macroNtNtCsdjy9FUDAuhT_18build_script_build11match_token16MatchTokenParserE0ENtNtNtBa_6traits8iterator8Iterator7collectINtBW_3VecB1F_EEB2X_, symObjAddr: 0x2F58, symBinAddr: 0x10002582C, symSize: 0x1C }
  - { offset: 0x7AFC2, size: 0x8, addend: 0x0, symName: __RINvYINtNtNtNtCsfvfooZQ3Axs_4core4iter8adapters3map3MapINtNtNtCse1nGBsou5OW_5alloc3vec9into_iter8IntoIterNtNtCs5AlOhPCr03V_3syn4attr9AttributeENCINvNtNtB1J_3gen4fold14fold_pat_rangeNtNtCsdjy9FUDAuhT_18build_script_build11match_token16MatchTokenParserE0ENtNtNtBa_6traits8iterator8Iterator7collectINtBW_3VecB1F_EEB2X_, symObjAddr: 0x2F74, symBinAddr: 0x100025848, symSize: 0x1C }
  - { offset: 0x7B003, size: 0x8, addend: 0x0, symName: __RINvYINtNtNtNtCsfvfooZQ3Axs_4core4iter8adapters3map3MapINtNtNtCse1nGBsou5OW_5alloc3vec9into_iter8IntoIterNtNtCs5AlOhPCr03V_3syn4attr9AttributeENCINvNtNtB1J_3gen4fold14fold_pat_sliceNtNtCsdjy9FUDAuhT_18build_script_build11match_token16MatchTokenParserE0ENtNtNtBa_6traits8iterator8Iterator7collectINtBW_3VecB1F_EEB2X_, symObjAddr: 0x2F90, symBinAddr: 0x100025864, symSize: 0x1C }
  - { offset: 0x7B044, size: 0x8, addend: 0x0, symName: __RINvYINtNtNtNtCsfvfooZQ3Axs_4core4iter8adapters3map3MapINtNtNtCse1nGBsou5OW_5alloc3vec9into_iter8IntoIterNtNtCs5AlOhPCr03V_3syn4attr9AttributeENCINvNtNtB1J_3gen4fold14fold_pat_tupleNtNtCsdjy9FUDAuhT_18build_script_build11match_token16MatchTokenParserE0ENtNtNtBa_6traits8iterator8Iterator7collectINtBW_3VecB1F_EEB2X_, symObjAddr: 0x2FAC, symBinAddr: 0x100025880, symSize: 0x1C }
  - { offset: 0x7B085, size: 0x8, addend: 0x0, symName: __RINvYINtNtNtNtCsfvfooZQ3Axs_4core4iter8adapters3map3MapINtNtNtCse1nGBsou5OW_5alloc3vec9into_iter8IntoIterNtNtCs5AlOhPCr03V_3syn4attr9AttributeENCINvNtNtB1J_3gen4fold15fold_expr_arrayNtNtCsdjy9FUDAuhT_18build_script_build11match_token16MatchTokenParserE0ENtNtNtBa_6traits8iterator8Iterator7collectINtBW_3VecB1F_EEB2Y_, symObjAddr: 0x2FC8, symBinAddr: 0x10002589C, symSize: 0x1C }
  - { offset: 0x7B0C6, size: 0x8, addend: 0x0, symName: __RINvYINtNtNtNtCsfvfooZQ3Axs_4core4iter8adapters3map3MapINtNtNtCse1nGBsou5OW_5alloc3vec9into_iter8IntoIterNtNtCs5AlOhPCr03V_3syn4attr9AttributeENCINvNtNtB1J_3gen4fold15fold_expr_asyncNtNtCsdjy9FUDAuhT_18build_script_build11match_token16MatchTokenParserE0ENtNtNtBa_6traits8iterator8Iterator7collectINtBW_3VecB1F_EEB2Y_, symObjAddr: 0x2FE4, symBinAddr: 0x1000258B8, symSize: 0x1C }
  - { offset: 0x7B107, size: 0x8, addend: 0x0, symName: __RINvYINtNtNtNtCsfvfooZQ3Axs_4core4iter8adapters3map3MapINtNtNtCse1nGBsou5OW_5alloc3vec9into_iter8IntoIterNtNtCs5AlOhPCr03V_3syn4attr9AttributeENCINvNtNtB1J_3gen4fold15fold_expr_awaitNtNtCsdjy9FUDAuhT_18build_script_build11match_token16MatchTokenParserE0ENtNtNtBa_6traits8iterator8Iterator7collectINtBW_3VecB1F_EEB2Y_, symObjAddr: 0x3000, symBinAddr: 0x1000258D4, symSize: 0x1C }
  - { offset: 0x7B148, size: 0x8, addend: 0x0, symName: __RINvYINtNtNtNtCsfvfooZQ3Axs_4core4iter8adapters3map3MapINtNtNtCse1nGBsou5OW_5alloc3vec9into_iter8IntoIterNtNtCs5AlOhPCr03V_3syn4attr9AttributeENCINvNtNtB1J_3gen4fold15fold_expr_blockNtNtCsdjy9FUDAuhT_18build_script_build11match_token16MatchTokenParserE0ENtNtNtBa_6traits8iterator8Iterator7collectINtBW_3VecB1F_EEB2Y_, symObjAddr: 0x301C, symBinAddr: 0x1000258F0, symSize: 0x1C }
  - { offset: 0x7B189, size: 0x8, addend: 0x0, symName: __RINvYINtNtNtNtCsfvfooZQ3Axs_4core4iter8adapters3map3MapINtNtNtCse1nGBsou5OW_5alloc3vec9into_iter8IntoIterNtNtCs5AlOhPCr03V_3syn4attr9AttributeENCINvNtNtB1J_3gen4fold15fold_expr_breakNtNtCsdjy9FUDAuhT_18build_script_build11match_token16MatchTokenParserE0ENtNtNtBa_6traits8iterator8Iterator7collectINtBW_3VecB1F_EEB2Y_, symObjAddr: 0x3038, symBinAddr: 0x10002590C, symSize: 0x1C }
  - { offset: 0x7B1CA, size: 0x8, addend: 0x0, symName: __RINvYINtNtNtNtCsfvfooZQ3Axs_4core4iter8adapters3map3MapINtNtNtCse1nGBsou5OW_5alloc3vec9into_iter8IntoIterNtNtCs5AlOhPCr03V_3syn4attr9AttributeENCINvNtNtB1J_3gen4fold15fold_expr_fieldNtNtCsdjy9FUDAuhT_18build_script_build11match_token16MatchTokenParserE0ENtNtNtBa_6traits8iterator8Iterator7collectINtBW_3VecB1F_EEB2Y_, symObjAddr: 0x3054, symBinAddr: 0x100025928, symSize: 0x1C }
  - { offset: 0x7B20B, size: 0x8, addend: 0x0, symName: __RINvYINtNtNtNtCsfvfooZQ3Axs_4core4iter8adapters3map3MapINtNtNtCse1nGBsou5OW_5alloc3vec9into_iter8IntoIterNtNtCs5AlOhPCr03V_3syn4attr9AttributeENCINvNtNtB1J_3gen4fold15fold_expr_groupNtNtCsdjy9FUDAuhT_18build_script_build11match_token16MatchTokenParserE0ENtNtNtBa_6traits8iterator8Iterator7collectINtBW_3VecB1F_EEB2Y_, symObjAddr: 0x3070, symBinAddr: 0x100025944, symSize: 0x1C }
  - { offset: 0x7B24C, size: 0x8, addend: 0x0, symName: __RINvYINtNtNtNtCsfvfooZQ3Axs_4core4iter8adapters3map3MapINtNtNtCse1nGBsou5OW_5alloc3vec9into_iter8IntoIterNtNtCs5AlOhPCr03V_3syn4attr9AttributeENCINvNtNtB1J_3gen4fold15fold_expr_indexNtNtCsdjy9FUDAuhT_18build_script_build11match_token16MatchTokenParserE0ENtNtNtBa_6traits8iterator8Iterator7collectINtBW_3VecB1F_EEB2Y_, symObjAddr: 0x308C, symBinAddr: 0x100025960, symSize: 0x1C }
  - { offset: 0x7B28D, size: 0x8, addend: 0x0, symName: __RINvYINtNtNtNtCsfvfooZQ3Axs_4core4iter8adapters3map3MapINtNtNtCse1nGBsou5OW_5alloc3vec9into_iter8IntoIterNtNtCs5AlOhPCr03V_3syn4attr9AttributeENCINvNtNtB1J_3gen4fold15fold_expr_macroNtNtCsdjy9FUDAuhT_18build_script_build11match_token16MatchTokenParserE0ENtNtNtBa_6traits8iterator8Iterator7collectINtBW_3VecB1F_EEB2Y_, symObjAddr: 0x30A8, symBinAddr: 0x10002597C, symSize: 0x1C }
  - { offset: 0x7B2CE, size: 0x8, addend: 0x0, symName: __RINvYINtNtNtNtCsfvfooZQ3Axs_4core4iter8adapters3map3MapINtNtNtCse1nGBsou5OW_5alloc3vec9into_iter8IntoIterNtNtCs5AlOhPCr03V_3syn4attr9AttributeENCINvNtNtB1J_3gen4fold15fold_expr_matchNtNtCsdjy9FUDAuhT_18build_script_build11match_token16MatchTokenParserE0ENtNtNtBa_6traits8iterator8Iterator7collectINtBW_3VecB1F_EEB2Y_, symObjAddr: 0x30C4, symBinAddr: 0x100025998, symSize: 0x1C }
  - { offset: 0x7B30F, size: 0x8, addend: 0x0, symName: __RINvYINtNtNtNtCsfvfooZQ3Axs_4core4iter8adapters3map3MapINtNtNtCse1nGBsou5OW_5alloc3vec9into_iter8IntoIterNtNtCs5AlOhPCr03V_3syn4attr9AttributeENCINvNtNtB1J_3gen4fold15fold_expr_parenNtNtCsdjy9FUDAuhT_18build_script_build11match_token16MatchTokenParserE0ENtNtNtBa_6traits8iterator8Iterator7collectINtBW_3VecB1F_EEB2Y_, symObjAddr: 0x30E0, symBinAddr: 0x1000259B4, symSize: 0x1C }
  - { offset: 0x7B350, size: 0x8, addend: 0x0, symName: __RINvYINtNtNtNtCsfvfooZQ3Axs_4core4iter8adapters3map3MapINtNtNtCse1nGBsou5OW_5alloc3vec9into_iter8IntoIterNtNtCs5AlOhPCr03V_3syn4attr9AttributeENCINvNtNtB1J_3gen4fold15fold_expr_rangeNtNtCsdjy9FUDAuhT_18build_script_build11match_token16MatchTokenParserE0ENtNtNtBa_6traits8iterator8Iterator7collectINtBW_3VecB1F_EEB2Y_, symObjAddr: 0x30FC, symBinAddr: 0x1000259D0, symSize: 0x1C }
  - { offset: 0x7B391, size: 0x8, addend: 0x0, symName: __RINvYINtNtNtNtCsfvfooZQ3Axs_4core4iter8adapters3map3MapINtNtNtCse1nGBsou5OW_5alloc3vec9into_iter8IntoIterNtNtCs5AlOhPCr03V_3syn4attr9AttributeENCINvNtNtB1J_3gen4fold15fold_expr_tupleNtNtCsdjy9FUDAuhT_18build_script_build11match_token16MatchTokenParserE0ENtNtNtBa_6traits8iterator8Iterator7collectINtBW_3VecB1F_EEB2Y_, symObjAddr: 0x3118, symBinAddr: 0x1000259EC, symSize: 0x1C }
  - { offset: 0x7B3D2, size: 0x8, addend: 0x0, symName: __RINvYINtNtNtNtCsfvfooZQ3Axs_4core4iter8adapters3map3MapINtNtNtCse1nGBsou5OW_5alloc3vec9into_iter8IntoIterNtNtCs5AlOhPCr03V_3syn4attr9AttributeENCINvNtNtB1J_3gen4fold15fold_expr_unaryNtNtCsdjy9FUDAuhT_18build_script_build11match_token16MatchTokenParserE0ENtNtNtBa_6traits8iterator8Iterator7collectINtBW_3VecB1F_EEB2Y_, symObjAddr: 0x3134, symBinAddr: 0x100025A08, symSize: 0x1C }
  - { offset: 0x7B413, size: 0x8, addend: 0x0, symName: __RINvYINtNtNtNtCsfvfooZQ3Axs_4core4iter8adapters3map3MapINtNtNtCse1nGBsou5OW_5alloc3vec9into_iter8IntoIterNtNtCs5AlOhPCr03V_3syn4attr9AttributeENCINvNtNtB1J_3gen4fold15fold_expr_whileNtNtCsdjy9FUDAuhT_18build_script_build11match_token16MatchTokenParserE0ENtNtNtBa_6traits8iterator8Iterator7collectINtBW_3VecB1F_EEB2Y_, symObjAddr: 0x3150, symBinAddr: 0x100025A24, symSize: 0x1C }
  - { offset: 0x7B454, size: 0x8, addend: 0x0, symName: __RINvYINtNtNtNtCsfvfooZQ3Axs_4core4iter8adapters3map3MapINtNtNtCse1nGBsou5OW_5alloc3vec9into_iter8IntoIterNtNtCs5AlOhPCr03V_3syn4attr9AttributeENCINvNtNtB1J_3gen4fold15fold_expr_yieldNtNtCsdjy9FUDAuhT_18build_script_build11match_token16MatchTokenParserE0ENtNtNtBa_6traits8iterator8Iterator7collectINtBW_3VecB1F_EEB2Y_, symObjAddr: 0x316C, symBinAddr: 0x100025A40, symSize: 0x1C }
  - { offset: 0x7B495, size: 0x8, addend: 0x0, symName: __RINvYINtNtNtNtCsfvfooZQ3Axs_4core4iter8adapters3map3MapINtNtNtCse1nGBsou5OW_5alloc3vec9into_iter8IntoIterNtNtCs5AlOhPCr03V_3syn4attr9AttributeENCINvNtNtB1J_3gen4fold15fold_item_constNtNtCsdjy9FUDAuhT_18build_script_build11match_token16MatchTokenParserE0ENtNtNtBa_6traits8iterator8Iterator7collectINtBW_3VecB1F_EEB2Y_, symObjAddr: 0x3188, symBinAddr: 0x100025A5C, symSize: 0x1C }
  - { offset: 0x7B4D6, size: 0x8, addend: 0x0, symName: __RINvYINtNtNtNtCsfvfooZQ3Axs_4core4iter8adapters3map3MapINtNtNtCse1nGBsou5OW_5alloc3vec9into_iter8IntoIterNtNtCs5AlOhPCr03V_3syn4attr9AttributeENCINvNtNtB1J_3gen4fold15fold_item_macroNtNtCsdjy9FUDAuhT_18build_script_build11match_token16MatchTokenParserE0ENtNtNtBa_6traits8iterator8Iterator7collectINtBW_3VecB1F_EEB2Y_, symObjAddr: 0x31A4, symBinAddr: 0x100025A78, symSize: 0x1C }
  - { offset: 0x7B517, size: 0x8, addend: 0x0, symName: __RINvYINtNtNtNtCsfvfooZQ3Axs_4core4iter8adapters3map3MapINtNtNtCse1nGBsou5OW_5alloc3vec9into_iter8IntoIterNtNtCs5AlOhPCr03V_3syn4attr9AttributeENCINvNtNtB1J_3gen4fold15fold_item_traitNtNtCsdjy9FUDAuhT_18build_script_build11match_token16MatchTokenParserE0ENtNtNtBa_6traits8iterator8Iterator7collectINtBW_3VecB1F_EEB2Y_, symObjAddr: 0x31C0, symBinAddr: 0x100025A94, symSize: 0x1C }
  - { offset: 0x7B558, size: 0x8, addend: 0x0, symName: __RINvYINtNtNtNtCsfvfooZQ3Axs_4core4iter8adapters3map3MapINtNtNtCse1nGBsou5OW_5alloc3vec9into_iter8IntoIterNtNtCs5AlOhPCr03V_3syn4attr9AttributeENCINvNtNtB1J_3gen4fold15fold_item_unionNtNtCsdjy9FUDAuhT_18build_script_build11match_token16MatchTokenParserE0ENtNtNtBa_6traits8iterator8Iterator7collectINtBW_3VecB1F_EEB2Y_, symObjAddr: 0x31DC, symBinAddr: 0x100025AB0, symSize: 0x1C }
  - { offset: 0x7B599, size: 0x8, addend: 0x0, symName: __RINvYINtNtNtNtCsfvfooZQ3Axs_4core4iter8adapters3map3MapINtNtNtCse1nGBsou5OW_5alloc3vec9into_iter8IntoIterNtNtCs5AlOhPCr03V_3syn4attr9AttributeENCINvNtNtB1J_3gen4fold15fold_pat_structNtNtCsdjy9FUDAuhT_18build_script_build11match_token16MatchTokenParserE0ENtNtNtBa_6traits8iterator8Iterator7collectINtBW_3VecB1F_EEB2Y_, symObjAddr: 0x31F8, symBinAddr: 0x100025ACC, symSize: 0x1C }
  - { offset: 0x7B5DA, size: 0x8, addend: 0x0, symName: __RINvYINtNtNtNtCsfvfooZQ3Axs_4core4iter8adapters3map3MapINtNtNtCse1nGBsou5OW_5alloc3vec9into_iter8IntoIterNtNtCs5AlOhPCr03V_3syn4attr9AttributeENCINvNtNtB1J_3gen4fold15fold_type_paramNtNtCsdjy9FUDAuhT_18build_script_build11match_token16MatchTokenParserE0ENtNtNtBa_6traits8iterator8Iterator7collectINtBW_3VecB1F_EEB2Y_, symObjAddr: 0x3214, symBinAddr: 0x100025AE8, symSize: 0x1C }
  - { offset: 0x7B61B, size: 0x8, addend: 0x0, symName: __RINvYINtNtNtNtCsfvfooZQ3Axs_4core4iter8adapters3map3MapINtNtNtCse1nGBsou5OW_5alloc3vec9into_iter8IntoIterNtNtCs5AlOhPCr03V_3syn4attr9AttributeENCINvNtNtB1J_3gen4fold16fold_bare_fn_argNtNtCsdjy9FUDAuhT_18build_script_build11match_token16MatchTokenParserE0ENtNtNtBa_6traits8iterator8Iterator7collectINtBW_3VecB1F_EEB2Z_, symObjAddr: 0x3230, symBinAddr: 0x100025B04, symSize: 0x1C }
  - { offset: 0x7B65C, size: 0x8, addend: 0x0, symName: __RINvYINtNtNtNtCsfvfooZQ3Axs_4core4iter8adapters3map3MapINtNtNtCse1nGBsou5OW_5alloc3vec9into_iter8IntoIterNtNtCs5AlOhPCr03V_3syn4attr9AttributeENCINvNtNtB1J_3gen4fold16fold_const_paramNtNtCsdjy9FUDAuhT_18build_script_build11match_token16MatchTokenParserE0ENtNtNtBa_6traits8iterator8Iterator7collectINtBW_3VecB1F_EEB2Z_, symObjAddr: 0x324C, symBinAddr: 0x100025B20, symSize: 0x1C }
  - { offset: 0x7B69D, size: 0x8, addend: 0x0, symName: __RINvYINtNtNtNtCsfvfooZQ3Axs_4core4iter8adapters3map3MapINtNtNtCse1nGBsou5OW_5alloc3vec9into_iter8IntoIterNtNtCs5AlOhPCr03V_3syn4attr9AttributeENCINvNtNtB1J_3gen4fold16fold_expr_assignNtNtCsdjy9FUDAuhT_18build_script_build11match_token16MatchTokenParserE0ENtNtNtBa_6traits8iterator8Iterator7collectINtBW_3VecB1F_EEB2Z_, symObjAddr: 0x3268, symBinAddr: 0x100025B3C, symSize: 0x1C }
  - { offset: 0x7B6DE, size: 0x8, addend: 0x0, symName: __RINvYINtNtNtNtCsfvfooZQ3Axs_4core4iter8adapters3map3MapINtNtNtCse1nGBsou5OW_5alloc3vec9into_iter8IntoIterNtNtCs5AlOhPCr03V_3syn4attr9AttributeENCINvNtNtB1J_3gen4fold16fold_expr_binaryNtNtCsdjy9FUDAuhT_18build_script_build11match_token16MatchTokenParserE0ENtNtNtBa_6traits8iterator8Iterator7collectINtBW_3VecB1F_EEB2Z_, symObjAddr: 0x3284, symBinAddr: 0x100025B58, symSize: 0x1C }
  - { offset: 0x7B71F, size: 0x8, addend: 0x0, symName: __RINvYINtNtNtNtCsfvfooZQ3Axs_4core4iter8adapters3map3MapINtNtNtCse1nGBsou5OW_5alloc3vec9into_iter8IntoIterNtNtCs5AlOhPCr03V_3syn4attr9AttributeENCINvNtNtB1J_3gen4fold16fold_expr_repeatNtNtCsdjy9FUDAuhT_18build_script_build11match_token16MatchTokenParserE0ENtNtNtBa_6traits8iterator8Iterator7collectINtBW_3VecB1F_EEB2Z_, symObjAddr: 0x32A0, symBinAddr: 0x100025B74, symSize: 0x1C }
  - { offset: 0x7B760, size: 0x8, addend: 0x0, symName: __RINvYINtNtNtNtCsfvfooZQ3Axs_4core4iter8adapters3map3MapINtNtNtCse1nGBsou5OW_5alloc3vec9into_iter8IntoIterNtNtCs5AlOhPCr03V_3syn4attr9AttributeENCINvNtNtB1J_3gen4fold16fold_expr_returnNtNtCsdjy9FUDAuhT_18build_script_build11match_token16MatchTokenParserE0ENtNtNtBa_6traits8iterator8Iterator7collectINtBW_3VecB1F_EEB2Z_, symObjAddr: 0x32BC, symBinAddr: 0x100025B90, symSize: 0x1C }
  - { offset: 0x7B7A1, size: 0x8, addend: 0x0, symName: __RINvYINtNtNtNtCsfvfooZQ3Axs_4core4iter8adapters3map3MapINtNtNtCse1nGBsou5OW_5alloc3vec9into_iter8IntoIterNtNtCs5AlOhPCr03V_3syn4attr9AttributeENCINvNtNtB1J_3gen4fold16fold_expr_structNtNtCsdjy9FUDAuhT_18build_script_build11match_token16MatchTokenParserE0ENtNtNtBa_6traits8iterator8Iterator7collectINtBW_3VecB1F_EEB2Z_, symObjAddr: 0x32D8, symBinAddr: 0x100025BAC, symSize: 0x1C }
  - { offset: 0x7B7E2, size: 0x8, addend: 0x0, symName: __RINvYINtNtNtNtCsfvfooZQ3Axs_4core4iter8adapters3map3MapINtNtNtCse1nGBsou5OW_5alloc3vec9into_iter8IntoIterNtNtCs5AlOhPCr03V_3syn4attr9AttributeENCINvNtNtB1J_3gen4fold16fold_expr_unsafeNtNtCsdjy9FUDAuhT_18build_script_build11match_token16MatchTokenParserE0ENtNtNtBa_6traits8iterator8Iterator7collectINtBW_3VecB1F_EEB2Z_, symObjAddr: 0x32F4, symBinAddr: 0x100025BC8, symSize: 0x1C }
  - { offset: 0x7B823, size: 0x8, addend: 0x0, symName: __RINvYINtNtNtNtCsfvfooZQ3Axs_4core4iter8adapters3map3MapINtNtNtCse1nGBsou5OW_5alloc3vec9into_iter8IntoIterNtNtCs5AlOhPCr03V_3syn4attr9AttributeENCINvNtNtB1J_3gen4fold16fold_field_valueNtNtCsdjy9FUDAuhT_18build_script_build11match_token16MatchTokenParserE0ENtNtNtBa_6traits8iterator8Iterator7collectINtBW_3VecB1F_EEB2Z_, symObjAddr: 0x3310, symBinAddr: 0x100025BE4, symSize: 0x1C }
  - { offset: 0x7B864, size: 0x8, addend: 0x0, symName: __RINvYINtNtNtNtCsfvfooZQ3Axs_4core4iter8adapters3map3MapINtNtNtCse1nGBsou5OW_5alloc3vec9into_iter8IntoIterNtNtCs5AlOhPCr03V_3syn4attr9AttributeENCINvNtNtB1J_3gen4fold16fold_item_macro2NtNtCsdjy9FUDAuhT_18build_script_build11match_token16MatchTokenParserE0ENtNtNtBa_6traits8iterator8Iterator7collectINtBW_3VecB1F_EEB2Z_, symObjAddr: 0x332C, symBinAddr: 0x100025C00, symSize: 0x1C }
  - { offset: 0x7B8A5, size: 0x8, addend: 0x0, symName: __RINvYINtNtNtNtCsfvfooZQ3Axs_4core4iter8adapters3map3MapINtNtNtCse1nGBsou5OW_5alloc3vec9into_iter8IntoIterNtNtCs5AlOhPCr03V_3syn4attr9AttributeENCINvNtNtB1J_3gen4fold16fold_item_staticNtNtCsdjy9FUDAuhT_18build_script_build11match_token16MatchTokenParserE0ENtNtNtBa_6traits8iterator8Iterator7collectINtBW_3VecB1F_EEB2Z_, symObjAddr: 0x3348, symBinAddr: 0x100025C1C, symSize: 0x1C }
  - { offset: 0x7B8E6, size: 0x8, addend: 0x0, symName: __RINvYINtNtNtNtCsfvfooZQ3Axs_4core4iter8adapters3map3MapINtNtNtCse1nGBsou5OW_5alloc3vec9into_iter8IntoIterNtNtCs5AlOhPCr03V_3syn4attr9AttributeENCINvNtNtB1J_3gen4fold16fold_item_structNtNtCsdjy9FUDAuhT_18build_script_build11match_token16MatchTokenParserE0ENtNtNtBa_6traits8iterator8Iterator7collectINtBW_3VecB1F_EEB2Z_, symObjAddr: 0x3364, symBinAddr: 0x100025C38, symSize: 0x1C }
  - { offset: 0x7B927, size: 0x8, addend: 0x0, symName: __RINvYINtNtNtNtCsfvfooZQ3Axs_4core4iter8adapters3map3MapINtNtNtCse1nGBsou5OW_5alloc3vec9into_iter8IntoIterNtNtCs5AlOhPCr03V_3syn4attr9AttributeENCINvNtNtB1J_3gen4fold17fold_expr_closureNtNtCsdjy9FUDAuhT_18build_script_build11match_token16MatchTokenParserE0ENtNtNtBa_6traits8iterator8Iterator7collectINtBW_3VecB1F_EEB30_, symObjAddr: 0x3380, symBinAddr: 0x100025C54, symSize: 0x1C }
  - { offset: 0x7B968, size: 0x8, addend: 0x0, symName: __RINvYINtNtNtNtCsfvfooZQ3Axs_4core4iter8adapters3map3MapINtNtNtCse1nGBsou5OW_5alloc3vec9into_iter8IntoIterNtNtCs5AlOhPCr03V_3syn4attr9AttributeENCINvNtNtB1J_3gen4fold17fold_lifetime_defNtNtCsdjy9FUDAuhT_18build_script_build11match_token16MatchTokenParserE0ENtNtNtBa_6traits8iterator8Iterator7collectINtBW_3VecB1F_EEB30_, symObjAddr: 0x339C, symBinAddr: 0x100025C70, symSize: 0x1C }
  - { offset: 0x7B9A9, size: 0x8, addend: 0x0, symName: __RINvYINtNtNtNtCsfvfooZQ3Axs_4core4iter8adapters3map3MapINtNtNtCse1nGBsou5OW_5alloc3vec9into_iter8IntoIterNtNtCs5AlOhPCr03V_3syn4attr9AttributeENCINvNtNtB1J_3gen4fold18fold_expr_continueNtNtCsdjy9FUDAuhT_18build_script_build11match_token16MatchTokenParserE0ENtNtNtBa_6traits8iterator8Iterator7collectINtBW_3VecB1F_EEB31_, symObjAddr: 0x33B8, symBinAddr: 0x100025C8C, symSize: 0x1C }
  - { offset: 0x7B9EA, size: 0x8, addend: 0x0, symName: __RINvYINtNtNtNtCsfvfooZQ3Axs_4core4iter8adapters3map3MapINtNtNtCse1nGBsou5OW_5alloc3vec9into_iter8IntoIterNtNtCs5AlOhPCr03V_3syn4attr9AttributeENCINvNtNtB1J_3gen4fold18fold_expr_for_loopNtNtCsdjy9FUDAuhT_18build_script_build11match_token16MatchTokenParserE0ENtNtNtBa_6traits8iterator8Iterator7collectINtBW_3VecB1F_EEB31_, symObjAddr: 0x33D4, symBinAddr: 0x100025CA8, symSize: 0x1C }
  - { offset: 0x7BA2B, size: 0x8, addend: 0x0, symName: __RINvYINtNtNtNtCsfvfooZQ3Axs_4core4iter8adapters3map3MapINtNtNtCse1nGBsou5OW_5alloc3vec9into_iter8IntoIterNtNtCs5AlOhPCr03V_3syn4attr9AttributeENCINvNtNtB1J_3gen4fold18fold_pat_referenceNtNtCsdjy9FUDAuhT_18build_script_build11match_token16MatchTokenParserE0ENtNtNtBa_6traits8iterator8Iterator7collectINtBW_3VecB1F_EEB31_, symObjAddr: 0x33F0, symBinAddr: 0x100025CC4, symSize: 0x1C }
  - { offset: 0x7BA6C, size: 0x8, addend: 0x0, symName: __RINvYINtNtNtNtCsfvfooZQ3Axs_4core4iter8adapters3map3MapINtNtNtCse1nGBsou5OW_5alloc3vec9into_iter8IntoIterNtNtCs5AlOhPCr03V_3syn4attr9AttributeENCINvNtNtB1J_3gen4fold19fold_expr_assign_opNtNtCsdjy9FUDAuhT_18build_script_build11match_token16MatchTokenParserE0ENtNtNtBa_6traits8iterator8Iterator7collectINtBW_3VecB1F_EEB32_, symObjAddr: 0x340C, symBinAddr: 0x100025CE0, symSize: 0x1C }
  - { offset: 0x7BAAD, size: 0x8, addend: 0x0, symName: __RINvYINtNtNtNtCsfvfooZQ3Axs_4core4iter8adapters3map3MapINtNtNtCse1nGBsou5OW_5alloc3vec9into_iter8IntoIterNtNtCs5AlOhPCr03V_3syn4attr9AttributeENCINvNtNtB1J_3gen4fold19fold_expr_referenceNtNtCsdjy9FUDAuhT_18build_script_build11match_token16MatchTokenParserE0ENtNtNtBa_6traits8iterator8Iterator7collectINtBW_3VecB1F_EEB32_, symObjAddr: 0x3428, symBinAddr: 0x100025CFC, symSize: 0x1C }
  - { offset: 0x7BAEE, size: 0x8, addend: 0x0, symName: __RINvYINtNtNtNtCsfvfooZQ3Axs_4core4iter8adapters3map3MapINtNtNtCse1nGBsou5OW_5alloc3vec9into_iter8IntoIterNtNtCs5AlOhPCr03V_3syn4attr9AttributeENCINvNtNtB1J_3gen4fold19fold_expr_try_blockNtNtCsdjy9FUDAuhT_18build_script_build11match_token16MatchTokenParserE0ENtNtNtBa_6traits8iterator8Iterator7collectINtBW_3VecB1F_EEB32_, symObjAddr: 0x3444, symBinAddr: 0x100025D18, symSize: 0x1C }
  - { offset: 0x7BB2F, size: 0x8, addend: 0x0, symName: __RINvYINtNtNtNtCsfvfooZQ3Axs_4core4iter8adapters3map3MapINtNtNtCse1nGBsou5OW_5alloc3vec9into_iter8IntoIterNtNtCs5AlOhPCr03V_3syn4attr9AttributeENCINvNtNtB1J_3gen4fold19fold_impl_item_typeNtNtCsdjy9FUDAuhT_18build_script_build11match_token16MatchTokenParserE0ENtNtNtBa_6traits8iterator8Iterator7collectINtBW_3VecB1F_EEB32_, symObjAddr: 0x3460, symBinAddr: 0x100025D34, symSize: 0x1C }
  - { offset: 0x7BB70, size: 0x8, addend: 0x0, symName: __RINvYINtNtNtNtCsfvfooZQ3Axs_4core4iter8adapters3map3MapINtNtNtCse1nGBsou5OW_5alloc3vec9into_iter8IntoIterNtNtCs5AlOhPCr03V_3syn4attr9AttributeENCINvNtNtB1J_3gen4fold20fold_foreign_item_fnNtNtCsdjy9FUDAuhT_18build_script_build11match_token16MatchTokenParserE0ENtNtNtBa_6traits8iterator8Iterator7collectINtBW_3VecB1F_EEB33_, symObjAddr: 0x347C, symBinAddr: 0x100025D50, symSize: 0x1C }
  - { offset: 0x7BBB1, size: 0x8, addend: 0x0, symName: __RINvYINtNtNtNtCsfvfooZQ3Axs_4core4iter8adapters3map3MapINtNtNtCse1nGBsou5OW_5alloc3vec9into_iter8IntoIterNtNtCs5AlOhPCr03V_3syn4attr9AttributeENCINvNtNtB1J_3gen4fold20fold_impl_item_constNtNtCsdjy9FUDAuhT_18build_script_build11match_token16MatchTokenParserE0ENtNtNtBa_6traits8iterator8Iterator7collectINtBW_3VecB1F_EEB33_, symObjAddr: 0x3498, symBinAddr: 0x100025D6C, symSize: 0x1C }
  - { offset: 0x7BBF2, size: 0x8, addend: 0x0, symName: __RINvYINtNtNtNtCsfvfooZQ3Axs_4core4iter8adapters3map3MapINtNtNtCse1nGBsou5OW_5alloc3vec9into_iter8IntoIterNtNtCs5AlOhPCr03V_3syn4attr9AttributeENCINvNtNtB1J_3gen4fold20fold_impl_item_macroNtNtCsdjy9FUDAuhT_18build_script_build11match_token16MatchTokenParserE0ENtNtNtBa_6traits8iterator8Iterator7collectINtBW_3VecB1F_EEB33_, symObjAddr: 0x34B4, symBinAddr: 0x100025D88, symSize: 0x1C }
  - { offset: 0x7BC33, size: 0x8, addend: 0x0, symName: __RINvYINtNtNtNtCsfvfooZQ3Axs_4core4iter8adapters3map3MapINtNtNtCse1nGBsou5OW_5alloc3vec9into_iter8IntoIterNtNtCs5AlOhPCr03V_3syn4attr9AttributeENCINvNtNtB1J_3gen4fold20fold_trait_item_typeNtNtCsdjy9FUDAuhT_18build_script_build11match_token16MatchTokenParserE0ENtNtNtBa_6traits8iterator8Iterator7collectINtBW_3VecB1F_EEB33_, symObjAddr: 0x34D0, symBinAddr: 0x100025DA4, symSize: 0x1C }
  - { offset: 0x7BC74, size: 0x8, addend: 0x0, symName: __RINvYINtNtNtNtCsfvfooZQ3Axs_4core4iter8adapters3map3MapINtNtNtCse1nGBsou5OW_5alloc3vec9into_iter8IntoIterNtNtCs5AlOhPCr03V_3syn4attr9AttributeENCINvNtNtB1J_3gen4fold21fold_expr_method_callNtNtCsdjy9FUDAuhT_18build_script_build11match_token16MatchTokenParserE0ENtNtNtBa_6traits8iterator8Iterator7collectINtBW_3VecB1F_EEB34_, symObjAddr: 0x34EC, symBinAddr: 0x100025DC0, symSize: 0x1C }
  - { offset: 0x7BCB5, size: 0x8, addend: 0x0, symName: __RINvYINtNtNtNtCsfvfooZQ3Axs_4core4iter8adapters3map3MapINtNtNtCse1nGBsou5OW_5alloc3vec9into_iter8IntoIterNtNtCs5AlOhPCr03V_3syn4attr9AttributeENCINvNtNtB1J_3gen4fold21fold_impl_item_methodNtNtCsdjy9FUDAuhT_18build_script_build11match_token16MatchTokenParserE0ENtNtNtBa_6traits8iterator8Iterator7collectINtBW_3VecB1F_EEB34_, symObjAddr: 0x3508, symBinAddr: 0x100025DDC, symSize: 0x1C }
  - { offset: 0x7BCF6, size: 0x8, addend: 0x0, symName: __RINvYINtNtNtNtCsfvfooZQ3Axs_4core4iter8adapters3map3MapINtNtNtCse1nGBsou5OW_5alloc3vec9into_iter8IntoIterNtNtCs5AlOhPCr03V_3syn4attr9AttributeENCINvNtNtB1J_3gen4fold21fold_item_foreign_modNtNtCsdjy9FUDAuhT_18build_script_build11match_token16MatchTokenParserE0ENtNtNtBa_6traits8iterator8Iterator7collectINtBW_3VecB1F_EEB34_, symObjAddr: 0x3524, symBinAddr: 0x100025DF8, symSize: 0x1C }
  - { offset: 0x7BD37, size: 0x8, addend: 0x0, symName: __RINvYINtNtNtNtCsfvfooZQ3Axs_4core4iter8adapters3map3MapINtNtNtCse1nGBsou5OW_5alloc3vec9into_iter8IntoIterNtNtCs5AlOhPCr03V_3syn4attr9AttributeENCINvNtNtB1J_3gen4fold21fold_item_trait_aliasNtNtCsdjy9FUDAuhT_18build_script_build11match_token16MatchTokenParserE0ENtNtNtBa_6traits8iterator8Iterator7collectINtBW_3VecB1F_EEB34_, symObjAddr: 0x3540, symBinAddr: 0x100025E14, symSize: 0x1C }
  - { offset: 0x7BD78, size: 0x8, addend: 0x0, symName: __RINvYINtNtNtNtCsfvfooZQ3Axs_4core4iter8adapters3map3MapINtNtNtCse1nGBsou5OW_5alloc3vec9into_iter8IntoIterNtNtCs5AlOhPCr03V_3syn4attr9AttributeENCINvNtNtB1J_3gen4fold21fold_pat_tuple_structNtNtCsdjy9FUDAuhT_18build_script_build11match_token16MatchTokenParserE0ENtNtNtBa_6traits8iterator8Iterator7collectINtBW_3VecB1F_EEB34_, symObjAddr: 0x355C, symBinAddr: 0x100025E30, symSize: 0x1C }
  - { offset: 0x7BDB9, size: 0x8, addend: 0x0, symName: __RINvYINtNtNtNtCsfvfooZQ3Axs_4core4iter8adapters3map3MapINtNtNtCse1nGBsou5OW_5alloc3vec9into_iter8IntoIterNtNtCs5AlOhPCr03V_3syn4attr9AttributeENCINvNtNtB1J_3gen4fold21fold_trait_item_constNtNtCsdjy9FUDAuhT_18build_script_build11match_token16MatchTokenParserE0ENtNtNtBa_6traits8iterator8Iterator7collectINtBW_3VecB1F_EEB34_, symObjAddr: 0x3578, symBinAddr: 0x100025E4C, symSize: 0x1C }
  - { offset: 0x7BDFA, size: 0x8, addend: 0x0, symName: __RINvYINtNtNtNtCsfvfooZQ3Axs_4core4iter8adapters3map3MapINtNtNtCse1nGBsou5OW_5alloc3vec9into_iter8IntoIterNtNtCs5AlOhPCr03V_3syn4attr9AttributeENCINvNtNtB1J_3gen4fold21fold_trait_item_macroNtNtCsdjy9FUDAuhT_18build_script_build11match_token16MatchTokenParserE0ENtNtNtBa_6traits8iterator8Iterator7collectINtBW_3VecB1F_EEB34_, symObjAddr: 0x3594, symBinAddr: 0x100025E68, symSize: 0x1C }
  - { offset: 0x7BE3B, size: 0x8, addend: 0x0, symName: __RINvYINtNtNtNtCsfvfooZQ3Axs_4core4iter8adapters3map3MapINtNtNtCse1nGBsou5OW_5alloc3vec9into_iter8IntoIterNtNtCs5AlOhPCr03V_3syn4attr9AttributeENCINvNtNtB1J_3gen4fold22fold_foreign_item_typeNtNtCsdjy9FUDAuhT_18build_script_build11match_token16MatchTokenParserE0ENtNtNtBa_6traits8iterator8Iterator7collectINtBW_3VecB1F_EEB35_, symObjAddr: 0x35B0, symBinAddr: 0x100025E84, symSize: 0x1C }
  - { offset: 0x7BE7C, size: 0x8, addend: 0x0, symName: __RINvYINtNtNtNtCsfvfooZQ3Axs_4core4iter8adapters3map3MapINtNtNtCse1nGBsou5OW_5alloc3vec9into_iter8IntoIterNtNtCs5AlOhPCr03V_3syn4attr9AttributeENCINvNtNtB1J_3gen4fold22fold_item_extern_crateNtNtCsdjy9FUDAuhT_18build_script_build11match_token16MatchTokenParserE0ENtNtNtBa_6traits8iterator8Iterator7collectINtBW_3VecB1F_EEB35_, symObjAddr: 0x35CC, symBinAddr: 0x100025EA0, symSize: 0x1C }
  - { offset: 0x7BEBD, size: 0x8, addend: 0x0, symName: __RINvYINtNtNtNtCsfvfooZQ3Axs_4core4iter8adapters3map3MapINtNtNtCse1nGBsou5OW_5alloc3vec9into_iter8IntoIterNtNtCs5AlOhPCr03V_3syn4attr9AttributeENCINvNtNtB1J_3gen4fold22fold_trait_item_methodNtNtCsdjy9FUDAuhT_18build_script_build11match_token16MatchTokenParserE0ENtNtNtBa_6traits8iterator8Iterator7collectINtBW_3VecB1F_EEB35_, symObjAddr: 0x35E8, symBinAddr: 0x100025EBC, symSize: 0x1C }
  - { offset: 0x7BEFE, size: 0x8, addend: 0x0, symName: __RINvYINtNtNtNtCsfvfooZQ3Axs_4core4iter8adapters3map3MapINtNtNtCse1nGBsou5OW_5alloc3vec9into_iter8IntoIterNtNtCs5AlOhPCr03V_3syn4attr9AttributeENCINvNtNtB1J_3gen4fold23fold_foreign_item_macroNtNtCsdjy9FUDAuhT_18build_script_build11match_token16MatchTokenParserE0ENtNtNtBa_6traits8iterator8Iterator7collectINtBW_3VecB1F_EEB36_, symObjAddr: 0x3604, symBinAddr: 0x100025ED8, symSize: 0x1C }
  - { offset: 0x7BF3F, size: 0x8, addend: 0x0, symName: __RINvYINtNtNtNtCsfvfooZQ3Axs_4core4iter8adapters3map3MapINtNtNtCse1nGBsou5OW_5alloc3vec9into_iter8IntoIterNtNtCs5AlOhPCr03V_3syn4attr9AttributeENCINvNtNtB1J_3gen4fold24fold_foreign_item_staticNtNtCsdjy9FUDAuhT_18build_script_build11match_token16MatchTokenParserE0ENtNtNtBa_6traits8iterator8Iterator7collectINtBW_3VecB1F_EEB37_, symObjAddr: 0x3620, symBinAddr: 0x100025EF4, symSize: 0x1C }
  - { offset: 0x7BF80, size: 0x8, addend: 0x0, symName: __RINvYINtNtNtNtCsfvfooZQ3Axs_4core4iter8adapters3map3MapINtNtNtCse1nGBsou5OW_5alloc3vec9into_iter8IntoIterNtNtCs5AlOhPCr03V_3syn4attr9AttributeENCINvNtNtB1J_3gen4fold8fold_armNtNtCsdjy9FUDAuhT_18build_script_build11match_token16MatchTokenParserE0ENtNtNtBa_6traits8iterator8Iterator7collectINtBW_3VecB1F_EEB2Q_, symObjAddr: 0x363C, symBinAddr: 0x100025F10, symSize: 0x1C }
  - { offset: 0x7BFC1, size: 0x8, addend: 0x0, symName: __RINvYINtNtNtNtCsfvfooZQ3Axs_4core4iter8adapters3map3MapINtNtNtCse1nGBsou5OW_5alloc3vec9into_iter8IntoIterNtNtCs5AlOhPCr03V_3syn4attr9AttributeENCINvNtNtB1J_3gen4fold9fold_fileNtNtCsdjy9FUDAuhT_18build_script_build11match_token16MatchTokenParserE0ENtNtNtBa_6traits8iterator8Iterator7collectINtBW_3VecB1F_EEB2R_, symObjAddr: 0x3658, symBinAddr: 0x100025F2C, symSize: 0x1C }
  - { offset: 0x7C002, size: 0x8, addend: 0x0, symName: __RINvYINtNtNtNtCsfvfooZQ3Axs_4core4iter8adapters3map3MapINtNtNtCse1nGBsou5OW_5alloc3vec9into_iter8IntoIterNtNtCs5AlOhPCr03V_3syn4expr3ArmENCINvNtNtB1J_3gen4fold15fold_expr_matchNtNtCsdjy9FUDAuhT_18build_script_build11match_token16MatchTokenParserEs_0ENtNtNtBa_6traits8iterator8Iterator7collectINtBW_3VecB1F_EEB2S_, symObjAddr: 0x3674, symBinAddr: 0x100025F48, symSize: 0x1C }
  - { offset: 0x7C043, size: 0x8, addend: 0x0, symName: __RINvYINtNtNtNtCsfvfooZQ3Axs_4core4iter8adapters3map3MapINtNtNtCse1nGBsou5OW_5alloc3vec9into_iter8IntoIterNtNtCs5AlOhPCr03V_3syn4item11ForeignItemENCINvNtNtB1J_3gen4fold21fold_item_foreign_modNtNtCsdjy9FUDAuhT_18build_script_build11match_token16MatchTokenParserEs_0ENtNtNtBa_6traits8iterator8Iterator7collectINtBW_3VecB1F_EEB37_, symObjAddr: 0x3690, symBinAddr: 0x100025F64, symSize: 0x1C }
  - { offset: 0x7C084, size: 0x8, addend: 0x0, symName: __RINvYINtNtNtNtCsfvfooZQ3Axs_4core4iter8adapters3map3MapINtNtNtCse1nGBsou5OW_5alloc3vec9into_iter8IntoIterNtNtCs5AlOhPCr03V_3syn4item4ItemENCINvNtNtB1J_3gen4fold9fold_fileNtNtCsdjy9FUDAuhT_18build_script_build11match_token16MatchTokenParserEs_0ENtNtNtBa_6traits8iterator8Iterator7collectINtBW_3VecB1F_EEB2M_, symObjAddr: 0x36AC, symBinAddr: 0x100025F80, symSize: 0x1C }
  - { offset: 0x7C0C5, size: 0x8, addend: 0x0, symName: __RINvYINtNtNtNtCsfvfooZQ3Axs_4core4iter8adapters3map3MapINtNtNtCse1nGBsou5OW_5alloc3vec9into_iter8IntoIterNtNtCs5AlOhPCr03V_3syn4item4ItemENCNCINvNtNtB1J_3gen4fold13fold_item_modNtNtCsdjy9FUDAuhT_18build_script_build11match_token16MatchTokenParserEs_00ENtNtNtBa_6traits8iterator8Iterator7collectINtBW_3VecB1F_EEB2T_, symObjAddr: 0x36C8, symBinAddr: 0x100025F9C, symSize: 0x1C }
  - { offset: 0x7C106, size: 0x8, addend: 0x0, symName: __RINvYINtNtNtNtCsfvfooZQ3Axs_4core4iter8adapters3map3MapINtNtNtCse1nGBsou5OW_5alloc3vec9into_iter8IntoIterNtNtCs5AlOhPCr03V_3syn4item8ImplItemENCINvNtNtB1J_3gen4fold14fold_item_implNtNtCsdjy9FUDAuhT_18build_script_build11match_token16MatchTokenParserEs2_0ENtNtNtBa_6traits8iterator8Iterator7collectINtBW_3VecB1F_EEB2W_, symObjAddr: 0x36E4, symBinAddr: 0x100025FB8, symSize: 0x1C }
  - { offset: 0x7C147, size: 0x8, addend: 0x0, symName: __RINvYINtNtNtNtCsfvfooZQ3Axs_4core4iter8adapters3map3MapINtNtNtCse1nGBsou5OW_5alloc3vec9into_iter8IntoIterNtNtCs5AlOhPCr03V_3syn4item9TraitItemENCINvNtNtB1J_3gen4fold15fold_item_traitNtNtCsdjy9FUDAuhT_18build_script_build11match_token16MatchTokenParserEs3_0ENtNtNtBa_6traits8iterator8Iterator7collectINtBW_3VecB1F_EEB2Y_, symObjAddr: 0x3700, symBinAddr: 0x100025FD4, symSize: 0x1C }
  - { offset: 0x7C188, size: 0x8, addend: 0x0, symName: __RINvYINtNtNtNtCsfvfooZQ3Axs_4core4iter8adapters3map3MapINtNtNtCse1nGBsou5OW_5alloc3vec9into_iter8IntoIterNtNtCs5AlOhPCr03V_3syn4stmt4StmtENCINvNtNtB1J_3gen4fold10fold_blockNtNtCsdjy9FUDAuhT_18build_script_build11match_token16MatchTokenParserE0ENtNtNtBa_6traits8iterator8Iterator7collectINtBW_3VecB1F_EEB2O_, symObjAddr: 0x371C, symBinAddr: 0x100025FF0, symSize: 0x1C }
  - { offset: 0x7C1D5, size: 0x8, addend: 0x0, symName: __RNvXNtNtNtCsfvfooZQ3Axs_4core4iter6traits7collectINtNtNtB6_8adapters3map3MapIBM_INtNtCs5AlOhPCr03V_3syn10punctuated9IntoPairsNtNtB1l_2ty4TypeNtNtB1l_5token5CommaENvMsJ_B1j_INtB1j_4PairB1Z_B2f_E10into_tupleENCINvXs_NtNtNtB1l_3gen6helper4foldINtB1j_10PunctuatedB1Z_B2f_ENtB3q_10FoldHelper4liftNCINvNtB3u_4fold15fold_type_tupleNtNtCsdjy9FUDAuhT_18build_script_build11match_token16MatchTokenParserE0E0ENtB2_12IntoIterator9into_iterB5g_, symObjAddr: 0xA75C, symBinAddr: 0x10002D030, symSize: 0x30 }
  - { offset: 0x7C20D, size: 0x8, addend: 0x0, symName: __RNvXNtNtNtCsfvfooZQ3Axs_4core4iter6traits7collectINtNtNtB6_8adapters3map3MapIBM_INtNtCs5AlOhPCr03V_3syn10punctuated9IntoPairsNtNtB1l_2ty4TypeNtNtB1l_5token5CommaENvMsJ_B1j_INtB1j_4PairB1Z_B2f_E10into_tupleENCINvXs_NtNtNtB1l_3gen6helper4foldINtB1j_10PunctuatedB1Z_B2f_ENtB3q_10FoldHelper4liftNCINvNtB3u_4fold36fold_parenthesized_generic_argumentsNtNtCsdjy9FUDAuhT_18build_script_build11match_token16MatchTokenParserE0E0ENtB2_12IntoIterator9into_iterB5B_, symObjAddr: 0xA78C, symBinAddr: 0x10002D060, symSize: 0x30 }
  - { offset: 0x7C245, size: 0x8, addend: 0x0, symName: __RNvXNtNtNtCsfvfooZQ3Axs_4core4iter6traits7collectINtNtNtB6_8adapters3map3MapIBM_INtNtCs5AlOhPCr03V_3syn10punctuated9IntoPairsNtNtB1l_2ty9BareFnArgNtNtB1l_5token5CommaENvMsJ_B1j_INtB1j_4PairB1Z_B2k_E10into_tupleENCINvXs_NtNtNtB1l_3gen6helper4foldINtB1j_10PunctuatedB1Z_B2k_ENtB3v_10FoldHelper4liftNCINvNtB3z_4fold17fold_type_bare_fnNtNtCsdjy9FUDAuhT_18build_script_build11match_token16MatchTokenParserEs1_0E0ENtB2_12IntoIterator9into_iterB5n_, symObjAddr: 0xA7BC, symBinAddr: 0x10002D090, symSize: 0x30 }
  - { offset: 0x7C27D, size: 0x8, addend: 0x0, symName: __RNvXNtNtNtCsfvfooZQ3Axs_4core4iter6traits7collectINtNtNtB6_8adapters3map3MapIBM_INtNtCs5AlOhPCr03V_3syn10punctuated9IntoPairsNtNtB1l_3pat3PatNtNtB1l_5token2OrENvMsJ_B1j_INtB1j_4PairB1Z_B2f_E10into_tupleENCINvXs_NtNtNtB1l_3gen6helper4foldINtB1j_10PunctuatedB1Z_B2f_ENtB3n_10FoldHelper4liftNCINvNtB3r_4fold11fold_pat_orNtNtCsdjy9FUDAuhT_18build_script_build11match_token16MatchTokenParserEs0_0E0ENtB2_12IntoIterator9into_iterB59_, symObjAddr: 0xA7EC, symBinAddr: 0x10002D0C0, symSize: 0x30 }
  - { offset: 0x7C2B5, size: 0x8, addend: 0x0, symName: __RNvXNtNtNtCsfvfooZQ3Axs_4core4iter6traits7collectINtNtNtB6_8adapters3map3MapIBM_INtNtCs5AlOhPCr03V_3syn10punctuated9IntoPairsNtNtB1l_3pat3PatNtNtB1l_5token5CommaENvMsJ_B1j_INtB1j_4PairB1Z_B2f_E10into_tupleENCINvXs_NtNtNtB1l_3gen6helper4foldINtB1j_10PunctuatedB1Z_B2f_ENtB3q_10FoldHelper4liftNCINvNtB3u_4fold14fold_pat_sliceNtNtCsdjy9FUDAuhT_18build_script_build11match_token16MatchTokenParserEs_0E0ENtB2_12IntoIterator9into_iterB5f_, symObjAddr: 0xA81C, symBinAddr: 0x10002D0F0, symSize: 0x30 }
  - { offset: 0x7C2ED, size: 0x8, addend: 0x0, symName: __RNvXNtNtNtCsfvfooZQ3Axs_4core4iter6traits7collectINtNtNtB6_8adapters3map3MapIBM_INtNtCs5AlOhPCr03V_3syn10punctuated9IntoPairsNtNtB1l_3pat3PatNtNtB1l_5token5CommaENvMsJ_B1j_INtB1j_4PairB1Z_B2f_E10into_tupleENCINvXs_NtNtNtB1l_3gen6helper4foldINtB1j_10PunctuatedB1Z_B2f_ENtB3q_10FoldHelper4liftNCINvNtB3u_4fold14fold_pat_tupleNtNtCsdjy9FUDAuhT_18build_script_build11match_token16MatchTokenParserEs_0E0ENtB2_12IntoIterator9into_iterB5f_, symObjAddr: 0xA84C, symBinAddr: 0x10002D120, symSize: 0x30 }
  - { offset: 0x7C325, size: 0x8, addend: 0x0, symName: __RNvXNtNtNtCsfvfooZQ3Axs_4core4iter6traits7collectINtNtNtB6_8adapters3map3MapIBM_INtNtCs5AlOhPCr03V_3syn10punctuated9IntoPairsNtNtB1l_3pat3PatNtNtB1l_5token5CommaENvMsJ_B1j_INtB1j_4PairB1Z_B2f_E10into_tupleENCINvXs_NtNtNtB1l_3gen6helper4foldINtB1j_10PunctuatedB1Z_B2f_ENtB3q_10FoldHelper4liftNCINvNtB3u_4fold17fold_expr_closureNtNtCsdjy9FUDAuhT_18build_script_build11match_token16MatchTokenParserEs2_0E0ENtB2_12IntoIterator9into_iterB5i_, symObjAddr: 0xA87C, symBinAddr: 0x10002D150, symSize: 0x30 }
  - { offset: 0x7C35D, size: 0x8, addend: 0x0, symName: __RNvXNtNtNtCsfvfooZQ3Axs_4core4iter6traits7collectINtNtNtB6_8adapters3map3MapIBM_INtNtCs5AlOhPCr03V_3syn10punctuated9IntoPairsNtNtB1l_3pat8FieldPatNtNtB1l_5token5CommaENvMsJ_B1j_INtB1j_4PairB1Z_B2k_E10into_tupleENCINvXs_NtNtNtB1l_3gen6helper4foldINtB1j_10PunctuatedB1Z_B2k_ENtB3v_10FoldHelper4liftNCINvNtB3z_4fold15fold_pat_structNtNtCsdjy9FUDAuhT_18build_script_build11match_token16MatchTokenParserEs_0E0ENtB2_12IntoIterator9into_iterB5l_, symObjAddr: 0xA8AC, symBinAddr: 0x10002D180, symSize: 0x30 }
  - { offset: 0x7C395, size: 0x8, addend: 0x0, symName: __RNvXNtNtNtCsfvfooZQ3Axs_4core4iter6traits7collectINtNtNtB6_8adapters3map3MapIBM_INtNtCs5AlOhPCr03V_3syn10punctuated9IntoPairsNtNtB1l_4data5FieldNtNtB1l_5token5CommaENvMsJ_B1j_INtB1j_4PairB1Z_B2i_E10into_tupleENCINvXs_NtNtNtB1l_3gen6helper4foldINtB1j_10PunctuatedB1Z_B2i_ENtB3t_10FoldHelper4liftNCINvNtB3x_4fold17fold_fields_namedNtNtCsdjy9FUDAuhT_18build_script_build11match_token16MatchTokenParserE0E0ENtB2_12IntoIterator9into_iterB5l_, symObjAddr: 0xA8DC, symBinAddr: 0x10002D1B0, symSize: 0x30 }
  - { offset: 0x7C3CD, size: 0x8, addend: 0x0, symName: __RNvXNtNtNtCsfvfooZQ3Axs_4core4iter6traits7collectINtNtNtB6_8adapters3map3MapIBM_INtNtCs5AlOhPCr03V_3syn10punctuated9IntoPairsNtNtB1l_4data5FieldNtNtB1l_5token5CommaENvMsJ_B1j_INtB1j_4PairB1Z_B2i_E10into_tupleENCINvXs_NtNtNtB1l_3gen6helper4foldINtB1j_10PunctuatedB1Z_B2i_ENtB3t_10FoldHelper4liftNCINvNtB3x_4fold19fold_fields_unnamedNtNtCsdjy9FUDAuhT_18build_script_build11match_token16MatchTokenParserE0E0ENtB2_12IntoIterator9into_iterB5n_, symObjAddr: 0xA90C, symBinAddr: 0x10002D1E0, symSize: 0x30 }
  - { offset: 0x7C405, size: 0x8, addend: 0x0, symName: __RNvXNtNtNtCsfvfooZQ3Axs_4core4iter6traits7collectINtNtNtB6_8adapters3map3MapIBM_INtNtCs5AlOhPCr03V_3syn10punctuated9IntoPairsNtNtB1l_4data7VariantNtNtB1l_5token5CommaENvMsJ_B1j_INtB1j_4PairB1Z_B2k_E10into_tupleENCINvXs_NtNtNtB1l_3gen6helper4foldINtB1j_10PunctuatedB1Z_B2k_ENtB3v_10FoldHelper4liftNCINvNtB3z_4fold14fold_item_enumNtNtCsdjy9FUDAuhT_18build_script_build11match_token16MatchTokenParserEs_0E0ENtB2_12IntoIterator9into_iterB5k_, symObjAddr: 0xA93C, symBinAddr: 0x10002D210, symSize: 0x30 }
  - { offset: 0x7C43D, size: 0x8, addend: 0x0, symName: __RNvXNtNtNtCsfvfooZQ3Axs_4core4iter6traits7collectINtNtNtB6_8adapters3map3MapIBM_INtNtCs5AlOhPCr03V_3syn10punctuated9IntoPairsNtNtB1l_4expr10FieldValueNtNtB1l_5token5CommaENvMsJ_B1j_INtB1j_4PairB1Z_B2o_E10into_tupleENCINvXs_NtNtNtB1l_3gen6helper4foldINtB1j_10PunctuatedB1Z_B2o_ENtB3z_10FoldHelper4liftNCINvNtB3D_4fold16fold_expr_structNtNtCsdjy9FUDAuhT_18build_script_build11match_token16MatchTokenParserEs_0E0ENtB2_12IntoIterator9into_iterB5q_, symObjAddr: 0xA96C, symBinAddr: 0x10002D240, symSize: 0x30 }
  - { offset: 0x7C475, size: 0x8, addend: 0x0, symName: __RNvXNtNtNtCsfvfooZQ3Axs_4core4iter6traits7collectINtNtNtB6_8adapters3map3MapIBM_INtNtCs5AlOhPCr03V_3syn10punctuated9IntoPairsNtNtB1l_4expr21GenericMethodArgumentNtNtB1l_5token5CommaENvMsJ_B1j_INtB1j_4PairB1Z_B2z_E10into_tupleENCINvXs_NtNtNtB1l_3gen6helper4foldINtB1j_10PunctuatedB1Z_B2z_ENtB3K_10FoldHelper4liftNCINvNtB3O_4fold21fold_method_turbofishNtNtCsdjy9FUDAuhT_18build_script_build11match_token16MatchTokenParserE0E0ENtB2_12IntoIterator9into_iterB5G_, symObjAddr: 0xA99C, symBinAddr: 0x10002D270, symSize: 0x30 }
  - { offset: 0x7C4AD, size: 0x8, addend: 0x0, symName: __RNvXNtNtNtCsfvfooZQ3Axs_4core4iter6traits7collectINtNtNtB6_8adapters3map3MapIBM_INtNtCs5AlOhPCr03V_3syn10punctuated9IntoPairsNtNtB1l_4expr4ExprNtNtB1l_5token5CommaENvMsJ_B1j_INtB1j_4PairB1Z_B2h_E10into_tupleENCINvXs_NtNtNtB1l_3gen6helper4foldINtB1j_10PunctuatedB1Z_B2h_ENtB3s_10FoldHelper4liftNCINvNtB3w_4fold14fold_expr_callNtNtCsdjy9FUDAuhT_18build_script_build11match_token16MatchTokenParserEs_0E0ENtB2_12IntoIterator9into_iterB5h_, symObjAddr: 0xA9CC, symBinAddr: 0x10002D2A0, symSize: 0x30 }
  - { offset: 0x7C4E5, size: 0x8, addend: 0x0, symName: __RNvXNtNtNtCsfvfooZQ3Axs_4core4iter6traits7collectINtNtNtB6_8adapters3map3MapIBM_INtNtCs5AlOhPCr03V_3syn10punctuated9IntoPairsNtNtB1l_4expr4ExprNtNtB1l_5token5CommaENvMsJ_B1j_INtB1j_4PairB1Z_B2h_E10into_tupleENCINvXs_NtNtNtB1l_3gen6helper4foldINtB1j_10PunctuatedB1Z_B2h_ENtB3s_10FoldHelper4liftNCINvNtB3w_4fold15fold_expr_arrayNtNtCsdjy9FUDAuhT_18build_script_build11match_token16MatchTokenParserEs_0E0ENtB2_12IntoIterator9into_iterB5i_, symObjAddr: 0xA9FC, symBinAddr: 0x10002D2D0, symSize: 0x30 }
  - { offset: 0x7C51D, size: 0x8, addend: 0x0, symName: __RNvXNtNtNtCsfvfooZQ3Axs_4core4iter6traits7collectINtNtNtB6_8adapters3map3MapIBM_INtNtCs5AlOhPCr03V_3syn10punctuated9IntoPairsNtNtB1l_4expr4ExprNtNtB1l_5token5CommaENvMsJ_B1j_INtB1j_4PairB1Z_B2h_E10into_tupleENCINvXs_NtNtNtB1l_3gen6helper4foldINtB1j_10PunctuatedB1Z_B2h_ENtB3s_10FoldHelper4liftNCINvNtB3w_4fold15fold_expr_tupleNtNtCsdjy9FUDAuhT_18build_script_build11match_token16MatchTokenParserEs_0E0ENtB2_12IntoIterator9into_iterB5i_, symObjAddr: 0xAA2C, symBinAddr: 0x10002D300, symSize: 0x30 }
  - { offset: 0x7C555, size: 0x8, addend: 0x0, symName: __RNvXNtNtNtCsfvfooZQ3Axs_4core4iter6traits7collectINtNtNtB6_8adapters3map3MapIBM_INtNtCs5AlOhPCr03V_3syn10punctuated9IntoPairsNtNtB1l_4expr4ExprNtNtB1l_5token5CommaENvMsJ_B1j_INtB1j_4PairB1Z_B2h_E10into_tupleENCINvXs_NtNtNtB1l_3gen6helper4foldINtB1j_10PunctuatedB1Z_B2h_ENtB3s_10FoldHelper4liftNCINvNtB3w_4fold21fold_expr_method_callNtNtCsdjy9FUDAuhT_18build_script_build11match_token16MatchTokenParserEs0_0E0ENtB2_12IntoIterator9into_iterB5o_, symObjAddr: 0xAA5C, symBinAddr: 0x10002D330, symSize: 0x30 }
  - { offset: 0x7C58D, size: 0x8, addend: 0x0, symName: __RNvXNtNtNtCsfvfooZQ3Axs_4core4iter6traits7collectINtNtNtB6_8adapters3map3MapIBM_INtNtCs5AlOhPCr03V_3syn10punctuated9IntoPairsNtNtB1l_4item5FnArgNtNtB1l_5token5CommaENvMsJ_B1j_INtB1j_4PairB1Z_B2i_E10into_tupleENCINvXs_NtNtNtB1l_3gen6helper4foldINtB1j_10PunctuatedB1Z_B2i_ENtB3t_10FoldHelper4liftNCINvNtB3x_4fold14fold_signatureNtNtCsdjy9FUDAuhT_18build_script_build11match_token16MatchTokenParserEs2_0E0ENtB2_12IntoIterator9into_iterB5i_, symObjAddr: 0xAA8C, symBinAddr: 0x10002D360, symSize: 0x30 }
  - { offset: 0x7C5C5, size: 0x8, addend: 0x0, symName: __RNvXNtNtNtCsfvfooZQ3Axs_4core4iter6traits7collectINtNtNtB6_8adapters3map3MapIBM_INtNtCs5AlOhPCr03V_3syn10punctuated9IntoPairsNtNtB1l_4item7UseTreeNtNtB1l_5token5CommaENvMsJ_B1j_INtB1j_4PairB1Z_B2k_E10into_tupleENCINvXs_NtNtNtB1l_3gen6helper4foldINtB1j_10PunctuatedB1Z_B2k_ENtB3v_10FoldHelper4liftNCINvNtB3z_4fold14fold_use_groupNtNtCsdjy9FUDAuhT_18build_script_build11match_token16MatchTokenParserE0E0ENtB2_12IntoIterator9into_iterB5k_, symObjAddr: 0xAABC, symBinAddr: 0x10002D390, symSize: 0x30 }
  - { offset: 0x7C5FD, size: 0x8, addend: 0x0, symName: __RNvXNtNtNtCsfvfooZQ3Axs_4core4iter6traits7collectINtNtNtB6_8adapters3map3MapIBM_INtNtCs5AlOhPCr03V_3syn10punctuated9IntoPairsNtNtB1l_4path11PathSegmentNtNtB1l_5token6Colon2ENvMsJ_B1j_INtB1j_4PairB1Z_B2p_E10into_tupleENCINvXs_NtNtNtB1l_3gen6helper4foldINtB1j_10PunctuatedB1Z_B2p_ENtB3B_10FoldHelper4liftNCINvNtB3F_4fold9fold_pathNtNtCsdjy9FUDAuhT_18build_script_build11match_token16MatchTokenParserEs_0E0ENtB2_12IntoIterator9into_iterB5k_, symObjAddr: 0xAAEC, symBinAddr: 0x10002D3C0, symSize: 0x30 }
  - { offset: 0x7C635, size: 0x8, addend: 0x0, symName: __RNvXNtNtNtCsfvfooZQ3Axs_4core4iter6traits7collectINtNtNtB6_8adapters3map3MapIBM_INtNtCs5AlOhPCr03V_3syn10punctuated9IntoPairsNtNtB1l_4path15GenericArgumentNtNtB1l_5token5CommaENvMsJ_B1j_INtB1j_4PairB1Z_B2t_E10into_tupleENCINvXs_NtNtNtB1l_3gen6helper4foldINtB1j_10PunctuatedB1Z_B2t_ENtB3E_10FoldHelper4liftNCINvNtB3I_4fold38fold_angle_bracketed_generic_argumentsNtNtCsdjy9FUDAuhT_18build_script_build11match_token16MatchTokenParserEs_0E0ENtB2_12IntoIterator9into_iterB5R_, symObjAddr: 0xAB1C, symBinAddr: 0x10002D3F0, symSize: 0x30 }
  - { offset: 0x7C66D, size: 0x8, addend: 0x0, symName: __RNvXNtNtNtCsfvfooZQ3Axs_4core4iter6traits7collectINtNtNtB6_8adapters3map3MapIBM_INtNtCs5AlOhPCr03V_3syn10punctuated9IntoPairsNtNtB1l_8generics11LifetimeDefNtNtB1l_5token5CommaENvMsJ_B1j_INtB1j_4PairB1Z_B2t_E10into_tupleENCINvXs_NtNtNtB1l_3gen6helper4foldINtB1j_10PunctuatedB1Z_B2t_ENtB3E_10FoldHelper4liftNCINvNtB3I_4fold20fold_bound_lifetimesNtNtCsdjy9FUDAuhT_18build_script_build11match_token16MatchTokenParserE0E0ENtB2_12IntoIterator9into_iterB5z_, symObjAddr: 0xAB4C, symBinAddr: 0x10002D420, symSize: 0x30 }
  - { offset: 0x7C6A5, size: 0x8, addend: 0x0, symName: __RNvXNtNtNtCsfvfooZQ3Axs_4core4iter6traits7collectINtNtNtB6_8adapters3map3MapIBM_INtNtCs5AlOhPCr03V_3syn10punctuated9IntoPairsNtNtB1l_8generics12GenericParamNtNtB1l_5token5CommaENvMsJ_B1j_INtB1j_4PairB1Z_B2u_E10into_tupleENCINvXs_NtNtNtB1l_3gen6helper4foldINtB1j_10PunctuatedB1Z_B2u_ENtB3F_10FoldHelper4liftNCINvNtB3J_4fold13fold_genericsNtNtCsdjy9FUDAuhT_18build_script_build11match_token16MatchTokenParserEs_0E0ENtB2_12IntoIterator9into_iterB5t_, symObjAddr: 0xAB7C, symBinAddr: 0x10002D450, symSize: 0x30 }
  - { offset: 0x7C6DD, size: 0x8, addend: 0x0, symName: __RNvXNtNtNtCsfvfooZQ3Axs_4core4iter6traits7collectINtNtNtB6_8adapters3map3MapIBM_INtNtCs5AlOhPCr03V_3syn10punctuated9IntoPairsNtNtB1l_8generics14TypeParamBoundNtNtB1l_5token3AddENvMsJ_B1j_INtB1j_4PairB1Z_B2w_E10into_tupleENCINvXs_NtNtNtB1l_3gen6helper4foldINtB1j_10PunctuatedB1Z_B2w_ENtB3F_10FoldHelper4liftNCINvNtB3J_4fold15fold_constraintNtNtCsdjy9FUDAuhT_18build_script_build11match_token16MatchTokenParserE0E0ENtB2_12IntoIterator9into_iterB5v_, symObjAddr: 0xABAC, symBinAddr: 0x10002D480, symSize: 0x30 }
  - { offset: 0x7C715, size: 0x8, addend: 0x0, symName: __RNvXNtNtNtCsfvfooZQ3Axs_4core4iter6traits7collectINtNtNtB6_8adapters3map3MapIBM_INtNtCs5AlOhPCr03V_3syn10punctuated9IntoPairsNtNtB1l_8generics14TypeParamBoundNtNtB1l_5token3AddENvMsJ_B1j_INtB1j_4PairB1Z_B2w_E10into_tupleENCINvXs_NtNtNtB1l_3gen6helper4foldINtB1j_10PunctuatedB1Z_B2w_ENtB3F_10FoldHelper4liftNCINvNtB3J_4fold15fold_item_traitNtNtCsdjy9FUDAuhT_18build_script_build11match_token16MatchTokenParserEs2_0E0ENtB2_12IntoIterator9into_iterB5v_, symObjAddr: 0xABDC, symBinAddr: 0x10002D4B0, symSize: 0x30 }
  - { offset: 0x7C74D, size: 0x8, addend: 0x0, symName: __RNvXNtNtNtCsfvfooZQ3Axs_4core4iter6traits7collectINtNtNtB6_8adapters3map3MapIBM_INtNtCs5AlOhPCr03V_3syn10punctuated9IntoPairsNtNtB1l_8generics14TypeParamBoundNtNtB1l_5token3AddENvMsJ_B1j_INtB1j_4PairB1Z_B2w_E10into_tupleENCINvXs_NtNtNtB1l_3gen6helper4foldINtB1j_10PunctuatedB1Z_B2w_ENtB3F_10FoldHelper4liftNCINvNtB3J_4fold15fold_type_paramNtNtCsdjy9FUDAuhT_18build_script_build11match_token16MatchTokenParserEs0_0E0ENtB2_12IntoIterator9into_iterB5v_, symObjAddr: 0xAC0C, symBinAddr: 0x10002D4E0, symSize: 0x30 }
  - { offset: 0x7C785, size: 0x8, addend: 0x0, symName: __RNvXNtNtNtCsfvfooZQ3Axs_4core4iter6traits7collectINtNtNtB6_8adapters3map3MapIBM_INtNtCs5AlOhPCr03V_3syn10punctuated9IntoPairsNtNtB1l_8generics14TypeParamBoundNtNtB1l_5token3AddENvMsJ_B1j_INtB1j_4PairB1Z_B2w_E10into_tupleENCINvXs_NtNtNtB1l_3gen6helper4foldINtB1j_10PunctuatedB1Z_B2w_ENtB3F_10FoldHelper4liftNCINvNtB3J_4fold19fold_predicate_typeNtNtCsdjy9FUDAuhT_18build_script_build11match_token16MatchTokenParserEs_0E0ENtB2_12IntoIterator9into_iterB5z_, symObjAddr: 0xAC3C, symBinAddr: 0x10002D510, symSize: 0x30 }
  - { offset: 0x7C7BD, size: 0x8, addend: 0x0, symName: __RNvXNtNtNtCsfvfooZQ3Axs_4core4iter6traits7collectINtNtNtB6_8adapters3map3MapIBM_INtNtCs5AlOhPCr03V_3syn10punctuated9IntoPairsNtNtB1l_8generics14TypeParamBoundNtNtB1l_5token3AddENvMsJ_B1j_INtB1j_4PairB1Z_B2w_E10into_tupleENCINvXs_NtNtNtB1l_3gen6helper4foldINtB1j_10PunctuatedB1Z_B2w_ENtB3F_10FoldHelper4liftNCINvNtB3J_4fold20fold_trait_item_typeNtNtCsdjy9FUDAuhT_18build_script_build11match_token16MatchTokenParserEs0_0E0ENtB2_12IntoIterator9into_iterB5A_, symObjAddr: 0xAC6C, symBinAddr: 0x10002D540, symSize: 0x30 }
  - { offset: 0x7C7F5, size: 0x8, addend: 0x0, symName: __RNvXNtNtNtCsfvfooZQ3Axs_4core4iter6traits7collectINtNtNtB6_8adapters3map3MapIBM_INtNtCs5AlOhPCr03V_3syn10punctuated9IntoPairsNtNtB1l_8generics14TypeParamBoundNtNtB1l_5token3AddENvMsJ_B1j_INtB1j_4PairB1Z_B2w_E10into_tupleENCINvXs_NtNtNtB1l_3gen6helper4foldINtB1j_10PunctuatedB1Z_B2w_ENtB3F_10FoldHelper4liftNCINvNtB3J_4fold20fold_type_impl_traitNtNtCsdjy9FUDAuhT_18build_script_build11match_token16MatchTokenParserE0E0ENtB2_12IntoIterator9into_iterB5A_, symObjAddr: 0xAC9C, symBinAddr: 0x10002D570, symSize: 0x30 }
  - { offset: 0x7C82D, size: 0x8, addend: 0x0, symName: __RNvXNtNtNtCsfvfooZQ3Axs_4core4iter6traits7collectINtNtNtB6_8adapters3map3MapIBM_INtNtCs5AlOhPCr03V_3syn10punctuated9IntoPairsNtNtB1l_8generics14TypeParamBoundNtNtB1l_5token3AddENvMsJ_B1j_INtB1j_4PairB1Z_B2w_E10into_tupleENCINvXs_NtNtNtB1l_3gen6helper4foldINtB1j_10PunctuatedB1Z_B2w_ENtB3F_10FoldHelper4liftNCINvNtB3J_4fold21fold_item_trait_aliasNtNtCsdjy9FUDAuhT_18build_script_build11match_token16MatchTokenParserEs_0E0ENtB2_12IntoIterator9into_iterB5B_, symObjAddr: 0xACCC, symBinAddr: 0x10002D5A0, symSize: 0x30 }
  - { offset: 0x7C865, size: 0x8, addend: 0x0, symName: __RNvXNtNtNtCsfvfooZQ3Axs_4core4iter6traits7collectINtNtNtB6_8adapters3map3MapIBM_INtNtCs5AlOhPCr03V_3syn10punctuated9IntoPairsNtNtB1l_8generics14TypeParamBoundNtNtB1l_5token3AddENvMsJ_B1j_INtB1j_4PairB1Z_B2w_E10into_tupleENCINvXs_NtNtNtB1l_3gen6helper4foldINtB1j_10PunctuatedB1Z_B2w_ENtB3F_10FoldHelper4liftNCINvNtB3J_4fold22fold_type_trait_objectNtNtCsdjy9FUDAuhT_18build_script_build11match_token16MatchTokenParserEs_0E0ENtB2_12IntoIterator9into_iterB5C_, symObjAddr: 0xACFC, symBinAddr: 0x10002D5D0, symSize: 0x30 }
  - { offset: 0x7C89D, size: 0x8, addend: 0x0, symName: __RNvXNtNtNtCsfvfooZQ3Axs_4core4iter6traits7collectINtNtNtB6_8adapters3map3MapIBM_INtNtCs5AlOhPCr03V_3syn10punctuated9IntoPairsNtNtB1l_8generics14WherePredicateNtNtB1l_5token5CommaENvMsJ_B1j_INtB1j_4PairB1Z_B2w_E10into_tupleENCINvXs_NtNtNtB1l_3gen6helper4foldINtB1j_10PunctuatedB1Z_B2w_ENtB3H_10FoldHelper4liftNCINvNtB3L_4fold17fold_where_clauseNtNtCsdjy9FUDAuhT_18build_script_build11match_token16MatchTokenParserE0E0ENtB2_12IntoIterator9into_iterB5z_, symObjAddr: 0xAD2C, symBinAddr: 0x10002D600, symSize: 0x30 }
  - { offset: 0x7C8D5, size: 0x8, addend: 0x0, symName: __RNvXNtNtNtCsfvfooZQ3Axs_4core4iter6traits7collectINtNtNtB6_8adapters3map3MapIBM_INtNtCs5AlOhPCr03V_3syn10punctuated9IntoPairsNtNtB1l_8lifetime8LifetimeNtNtB1l_5token3AddENvMsJ_B1j_INtB1j_4PairB1Z_B2p_E10into_tupleENCINvXs_NtNtNtB1l_3gen6helper4foldINtB1j_10PunctuatedB1Z_B2p_ENtB3y_10FoldHelper4liftNCINvNtB3C_4fold17fold_lifetime_defNtNtCsdjy9FUDAuhT_18build_script_build11match_token16MatchTokenParserEs0_0E0ENtB2_12IntoIterator9into_iterB5q_, symObjAddr: 0xAD5C, symBinAddr: 0x10002D630, symSize: 0x30 }
  - { offset: 0x7C90D, size: 0x8, addend: 0x0, symName: __RNvXNtNtNtCsfvfooZQ3Axs_4core4iter6traits7collectINtNtNtB6_8adapters3map3MapIBM_INtNtCs5AlOhPCr03V_3syn10punctuated9IntoPairsNtNtB1l_8lifetime8LifetimeNtNtB1l_5token3AddENvMsJ_B1j_INtB1j_4PairB1Z_B2p_E10into_tupleENCINvXs_NtNtNtB1l_3gen6helper4foldINtB1j_10PunctuatedB1Z_B2p_ENtB3y_10FoldHelper4liftNCINvNtB3C_4fold23fold_predicate_lifetimeNtNtCsdjy9FUDAuhT_18build_script_build11match_token16MatchTokenParserE0E0ENtB2_12IntoIterator9into_iterB5w_, symObjAddr: 0xAD8C, symBinAddr: 0x10002D660, symSize: 0x30 }
  - { offset: 0x7C945, size: 0x8, addend: 0x0, symName: __RNvXNtNtNtCsfvfooZQ3Axs_4core4iter6traits7collectINtNtNtB6_8adapters3map3MapINtNtNtCse1nGBsou5OW_5alloc3vec9into_iter8IntoIterNtNtCs5AlOhPCr03V_3syn4attr9AttributeENCINvNtNtB24_3gen4fold10fold_fieldNtNtCsdjy9FUDAuhT_18build_script_build11match_token16MatchTokenParserE0ENtB2_12IntoIterator9into_iterB3e_, symObjAddr: 0xADBC, symBinAddr: 0x10002D690, symSize: 0x30 }
  - { offset: 0x7C97D, size: 0x8, addend: 0x0, symName: __RNvXNtNtNtCsfvfooZQ3Axs_4core4iter6traits7collectINtNtNtB6_8adapters3map3MapINtNtNtCse1nGBsou5OW_5alloc3vec9into_iter8IntoIterNtNtCs5AlOhPCr03V_3syn4attr9AttributeENCINvNtNtB24_3gen4fold10fold_localNtNtCsdjy9FUDAuhT_18build_script_build11match_token16MatchTokenParserE0ENtB2_12IntoIterator9into_iterB3e_, symObjAddr: 0xADEC, symBinAddr: 0x10002D6C0, symSize: 0x30 }
  - { offset: 0x7C9B5, size: 0x8, addend: 0x0, symName: __RNvXNtNtNtCsfvfooZQ3Axs_4core4iter6traits7collectINtNtNtB6_8adapters3map3MapINtNtNtCse1nGBsou5OW_5alloc3vec9into_iter8IntoIterNtNtCs5AlOhPCr03V_3syn4attr9AttributeENCINvNtNtB24_3gen4fold11fold_pat_orNtNtCsdjy9FUDAuhT_18build_script_build11match_token16MatchTokenParserE0ENtB2_12IntoIterator9into_iterB3f_, symObjAddr: 0xAE1C, symBinAddr: 0x10002D6F0, symSize: 0x30 }
  - { offset: 0x7C9ED, size: 0x8, addend: 0x0, symName: __RNvXNtNtNtCsfvfooZQ3Axs_4core4iter6traits7collectINtNtNtB6_8adapters3map3MapINtNtNtCse1nGBsou5OW_5alloc3vec9into_iter8IntoIterNtNtCs5AlOhPCr03V_3syn4attr9AttributeENCINvNtNtB24_3gen4fold12fold_expr_ifNtNtCsdjy9FUDAuhT_18build_script_build11match_token16MatchTokenParserE0ENtB2_12IntoIterator9into_iterB3g_, symObjAddr: 0xAE4C, symBinAddr: 0x10002D720, symSize: 0x30 }
  - { offset: 0x7CA25, size: 0x8, addend: 0x0, symName: __RNvXNtNtNtCsfvfooZQ3Axs_4core4iter6traits7collectINtNtNtB6_8adapters3map3MapINtNtNtCse1nGBsou5OW_5alloc3vec9into_iter8IntoIterNtNtCs5AlOhPCr03V_3syn4attr9AttributeENCINvNtNtB24_3gen4fold12fold_item_fnNtNtCsdjy9FUDAuhT_18build_script_build11match_token16MatchTokenParserE0ENtB2_12IntoIterator9into_iterB3g_, symObjAddr: 0xAE7C, symBinAddr: 0x10002D750, symSize: 0x30 }
  - { offset: 0x7CA5D, size: 0x8, addend: 0x0, symName: __RNvXNtNtNtCsfvfooZQ3Axs_4core4iter6traits7collectINtNtNtB6_8adapters3map3MapINtNtNtCse1nGBsou5OW_5alloc3vec9into_iter8IntoIterNtNtCs5AlOhPCr03V_3syn4attr9AttributeENCINvNtNtB24_3gen4fold12fold_pat_boxNtNtCsdjy9FUDAuhT_18build_script_build11match_token16MatchTokenParserE0ENtB2_12IntoIterator9into_iterB3g_, symObjAddr: 0xAEAC, symBinAddr: 0x10002D780, symSize: 0x30 }
  - { offset: 0x7CA95, size: 0x8, addend: 0x0, symName: __RNvXNtNtNtCsfvfooZQ3Axs_4core4iter6traits7collectINtNtNtB6_8adapters3map3MapINtNtNtCse1nGBsou5OW_5alloc3vec9into_iter8IntoIterNtNtCs5AlOhPCr03V_3syn4attr9AttributeENCINvNtNtB24_3gen4fold12fold_pat_litNtNtCsdjy9FUDAuhT_18build_script_build11match_token16MatchTokenParserE0ENtB2_12IntoIterator9into_iterB3g_, symObjAddr: 0xAEDC, symBinAddr: 0x10002D7B0, symSize: 0x30 }
  - { offset: 0x7CACD, size: 0x8, addend: 0x0, symName: __RNvXNtNtNtCsfvfooZQ3Axs_4core4iter6traits7collectINtNtNtB6_8adapters3map3MapINtNtNtCse1nGBsou5OW_5alloc3vec9into_iter8IntoIterNtNtCs5AlOhPCr03V_3syn4attr9AttributeENCINvNtNtB24_3gen4fold12fold_variantNtNtCsdjy9FUDAuhT_18build_script_build11match_token16MatchTokenParserE0ENtB2_12IntoIterator9into_iterB3g_, symObjAddr: 0xAF0C, symBinAddr: 0x10002D7E0, symSize: 0x30 }
  - { offset: 0x7CB05, size: 0x8, addend: 0x0, symName: __RNvXNtNtNtCsfvfooZQ3Axs_4core4iter6traits7collectINtNtNtB6_8adapters3map3MapINtNtNtCse1nGBsou5OW_5alloc3vec9into_iter8IntoIterNtNtCs5AlOhPCr03V_3syn4attr9AttributeENCINvNtNtB24_3gen4fold13fold_expr_boxNtNtCsdjy9FUDAuhT_18build_script_build11match_token16MatchTokenParserE0ENtB2_12IntoIterator9into_iterB3h_, symObjAddr: 0xAF3C, symBinAddr: 0x10002D810, symSize: 0x30 }
  - { offset: 0x7CB3D, size: 0x8, addend: 0x0, symName: __RNvXNtNtNtCsfvfooZQ3Axs_4core4iter6traits7collectINtNtNtB6_8adapters3map3MapINtNtNtCse1nGBsou5OW_5alloc3vec9into_iter8IntoIterNtNtCs5AlOhPCr03V_3syn4attr9AttributeENCINvNtNtB24_3gen4fold13fold_expr_letNtNtCsdjy9FUDAuhT_18build_script_build11match_token16MatchTokenParserE0ENtB2_12IntoIterator9into_iterB3h_, symObjAddr: 0xAF6C, symBinAddr: 0x10002D840, symSize: 0x30 }
  - { offset: 0x7CB75, size: 0x8, addend: 0x0, symName: __RNvXNtNtNtCsfvfooZQ3Axs_4core4iter6traits7collectINtNtNtB6_8adapters3map3MapINtNtNtCse1nGBsou5OW_5alloc3vec9into_iter8IntoIterNtNtCs5AlOhPCr03V_3syn4attr9AttributeENCINvNtNtB24_3gen4fold13fold_expr_litNtNtCsdjy9FUDAuhT_18build_script_build11match_token16MatchTokenParserE0ENtB2_12IntoIterator9into_iterB3h_, symObjAddr: 0xAF9C, symBinAddr: 0x10002D870, symSize: 0x30 }
  - { offset: 0x7CBAD, size: 0x8, addend: 0x0, symName: __RNvXNtNtNtCsfvfooZQ3Axs_4core4iter6traits7collectINtNtNtB6_8adapters3map3MapINtNtNtCse1nGBsou5OW_5alloc3vec9into_iter8IntoIterNtNtCs5AlOhPCr03V_3syn4attr9AttributeENCINvNtNtB24_3gen4fold13fold_expr_tryNtNtCsdjy9FUDAuhT_18build_script_build11match_token16MatchTokenParserE0ENtB2_12IntoIterator9into_iterB3h_, symObjAddr: 0xAFCC, symBinAddr: 0x10002D8A0, symSize: 0x30 }
  - { offset: 0x7CBE5, size: 0x8, addend: 0x0, symName: __RNvXNtNtNtCsfvfooZQ3Axs_4core4iter6traits7collectINtNtNtB6_8adapters3map3MapINtNtNtCse1nGBsou5OW_5alloc3vec9into_iter8IntoIterNtNtCs5AlOhPCr03V_3syn4attr9AttributeENCINvNtNtB24_3gen4fold13fold_item_modNtNtCsdjy9FUDAuhT_18build_script_build11match_token16MatchTokenParserE0ENtB2_12IntoIterator9into_iterB3h_, symObjAddr: 0xAFFC, symBinAddr: 0x10002D8D0, symSize: 0x30 }
  - { offset: 0x7CC1D, size: 0x8, addend: 0x0, symName: __RNvXNtNtNtCsfvfooZQ3Axs_4core4iter6traits7collectINtNtNtB6_8adapters3map3MapINtNtNtCse1nGBsou5OW_5alloc3vec9into_iter8IntoIterNtNtCs5AlOhPCr03V_3syn4attr9AttributeENCINvNtNtB24_3gen4fold13fold_item_useNtNtCsdjy9FUDAuhT_18build_script_build11match_token16MatchTokenParserE0ENtB2_12IntoIterator9into_iterB3h_, symObjAddr: 0xB02C, symBinAddr: 0x10002D900, symSize: 0x30 }
  - { offset: 0x7CC55, size: 0x8, addend: 0x0, symName: __RNvXNtNtNtCsfvfooZQ3Axs_4core4iter6traits7collectINtNtNtB6_8adapters3map3MapINtNtNtCse1nGBsou5OW_5alloc3vec9into_iter8IntoIterNtNtCs5AlOhPCr03V_3syn4attr9AttributeENCINvNtNtB24_3gen4fold13fold_pat_pathNtNtCsdjy9FUDAuhT_18build_script_build11match_token16MatchTokenParserE0ENtB2_12IntoIterator9into_iterB3h_, symObjAddr: 0xB05C, symBinAddr: 0x10002D930, symSize: 0x30 }
  - { offset: 0x7CC8D, size: 0x8, addend: 0x0, symName: __RNvXNtNtNtCsfvfooZQ3Axs_4core4iter6traits7collectINtNtNtB6_8adapters3map3MapINtNtNtCse1nGBsou5OW_5alloc3vec9into_iter8IntoIterNtNtCs5AlOhPCr03V_3syn4attr9AttributeENCINvNtNtB24_3gen4fold13fold_pat_restNtNtCsdjy9FUDAuhT_18build_script_build11match_token16MatchTokenParserE0ENtB2_12IntoIterator9into_iterB3h_, symObjAddr: 0xB08C, symBinAddr: 0x10002D960, symSize: 0x30 }
  - { offset: 0x7CCC5, size: 0x8, addend: 0x0, symName: __RNvXNtNtNtCsfvfooZQ3Axs_4core4iter6traits7collectINtNtNtB6_8adapters3map3MapINtNtNtCse1nGBsou5OW_5alloc3vec9into_iter8IntoIterNtNtCs5AlOhPCr03V_3syn4attr9AttributeENCINvNtNtB24_3gen4fold13fold_pat_typeNtNtCsdjy9FUDAuhT_18build_script_build11match_token16MatchTokenParserE0ENtB2_12IntoIterator9into_iterB3h_, symObjAddr: 0xB0BC, symBinAddr: 0x10002D990, symSize: 0x30 }
  - { offset: 0x7CCFD, size: 0x8, addend: 0x0, symName: __RNvXNtNtNtCsfvfooZQ3Axs_4core4iter6traits7collectINtNtNtB6_8adapters3map3MapINtNtNtCse1nGBsou5OW_5alloc3vec9into_iter8IntoIterNtNtCs5AlOhPCr03V_3syn4attr9AttributeENCINvNtNtB24_3gen4fold13fold_pat_wildNtNtCsdjy9FUDAuhT_18build_script_build11match_token16MatchTokenParserE0ENtB2_12IntoIterator9into_iterB3h_, symObjAddr: 0xB0EC, symBinAddr: 0x10002D9C0, symSize: 0x30 }
  - { offset: 0x7CD35, size: 0x8, addend: 0x0, symName: __RNvXNtNtNtCsfvfooZQ3Axs_4core4iter6traits7collectINtNtNtB6_8adapters3map3MapINtNtNtCse1nGBsou5OW_5alloc3vec9into_iter8IntoIterNtNtCs5AlOhPCr03V_3syn4attr9AttributeENCINvNtNtB24_3gen4fold13fold_receiverNtNtCsdjy9FUDAuhT_18build_script_build11match_token16MatchTokenParserE0ENtB2_12IntoIterator9into_iterB3h_, symObjAddr: 0xB11C, symBinAddr: 0x10002D9F0, symSize: 0x30 }
  - { offset: 0x7CD6D, size: 0x8, addend: 0x0, symName: __RNvXNtNtNtCsfvfooZQ3Axs_4core4iter6traits7collectINtNtNtB6_8adapters3map3MapINtNtNtCse1nGBsou5OW_5alloc3vec9into_iter8IntoIterNtNtCs5AlOhPCr03V_3syn4attr9AttributeENCINvNtNtB24_3gen4fold13fold_variadicNtNtCsdjy9FUDAuhT_18build_script_build11match_token16MatchTokenParserE0ENtB2_12IntoIterator9into_iterB3h_, symObjAddr: 0xB14C, symBinAddr: 0x10002DA20, symSize: 0x30 }
  - { offset: 0x7CDA5, size: 0x8, addend: 0x0, symName: __RNvXNtNtNtCsfvfooZQ3Axs_4core4iter6traits7collectINtNtNtB6_8adapters3map3MapINtNtNtCse1nGBsou5OW_5alloc3vec9into_iter8IntoIterNtNtCs5AlOhPCr03V_3syn4attr9AttributeENCINvNtNtB24_3gen4fold14fold_expr_callNtNtCsdjy9FUDAuhT_18build_script_build11match_token16MatchTokenParserE0ENtB2_12IntoIterator9into_iterB3i_, symObjAddr: 0xB17C, symBinAddr: 0x10002DA50, symSize: 0x30 }
  - { offset: 0x7CDDD, size: 0x8, addend: 0x0, symName: __RNvXNtNtNtCsfvfooZQ3Axs_4core4iter6traits7collectINtNtNtB6_8adapters3map3MapINtNtNtCse1nGBsou5OW_5alloc3vec9into_iter8IntoIterNtNtCs5AlOhPCr03V_3syn4attr9AttributeENCINvNtNtB24_3gen4fold14fold_expr_castNtNtCsdjy9FUDAuhT_18build_script_build11match_token16MatchTokenParserE0ENtB2_12IntoIterator9into_iterB3i_, symObjAddr: 0xB1AC, symBinAddr: 0x10002DA80, symSize: 0x30 }
  - { offset: 0x7CE15, size: 0x8, addend: 0x0, symName: __RNvXNtNtNtCsfvfooZQ3Axs_4core4iter6traits7collectINtNtNtB6_8adapters3map3MapINtNtNtCse1nGBsou5OW_5alloc3vec9into_iter8IntoIterNtNtCs5AlOhPCr03V_3syn4attr9AttributeENCINvNtNtB24_3gen4fold14fold_expr_loopNtNtCsdjy9FUDAuhT_18build_script_build11match_token16MatchTokenParserE0ENtB2_12IntoIterator9into_iterB3i_, symObjAddr: 0xB1DC, symBinAddr: 0x10002DAB0, symSize: 0x30 }
  - { offset: 0x7CE4D, size: 0x8, addend: 0x0, symName: __RNvXNtNtNtCsfvfooZQ3Axs_4core4iter6traits7collectINtNtNtB6_8adapters3map3MapINtNtNtCse1nGBsou5OW_5alloc3vec9into_iter8IntoIterNtNtCs5AlOhPCr03V_3syn4attr9AttributeENCINvNtNtB24_3gen4fold14fold_expr_pathNtNtCsdjy9FUDAuhT_18build_script_build11match_token16MatchTokenParserE0ENtB2_12IntoIterator9into_iterB3i_, symObjAddr: 0xB20C, symBinAddr: 0x10002DAE0, symSize: 0x30 }
  - { offset: 0x7CE85, size: 0x8, addend: 0x0, symName: __RNvXNtNtNtCsfvfooZQ3Axs_4core4iter6traits7collectINtNtNtB6_8adapters3map3MapINtNtNtCse1nGBsou5OW_5alloc3vec9into_iter8IntoIterNtNtCs5AlOhPCr03V_3syn4attr9AttributeENCINvNtNtB24_3gen4fold14fold_expr_typeNtNtCsdjy9FUDAuhT_18build_script_build11match_token16MatchTokenParserE0ENtB2_12IntoIterator9into_iterB3i_, symObjAddr: 0xB23C, symBinAddr: 0x10002DB10, symSize: 0x30 }
  - { offset: 0x7CEBD, size: 0x8, addend: 0x0, symName: __RNvXNtNtNtCsfvfooZQ3Axs_4core4iter6traits7collectINtNtNtB6_8adapters3map3MapINtNtNtCse1nGBsou5OW_5alloc3vec9into_iter8IntoIterNtNtCs5AlOhPCr03V_3syn4attr9AttributeENCINvNtNtB24_3gen4fold14fold_field_patNtNtCsdjy9FUDAuhT_18build_script_build11match_token16MatchTokenParserE0ENtB2_12IntoIterator9into_iterB3i_, symObjAddr: 0xB26C, symBinAddr: 0x10002DB40, symSize: 0x30 }
  - { offset: 0x7CEF5, size: 0x8, addend: 0x0, symName: __RNvXNtNtNtCsfvfooZQ3Axs_4core4iter6traits7collectINtNtNtB6_8adapters3map3MapINtNtNtCse1nGBsou5OW_5alloc3vec9into_iter8IntoIterNtNtCs5AlOhPCr03V_3syn4attr9AttributeENCINvNtNtB24_3gen4fold14fold_item_enumNtNtCsdjy9FUDAuhT_18build_script_build11match_token16MatchTokenParserE0ENtB2_12IntoIterator9into_iterB3i_, symObjAddr: 0xB29C, symBinAddr: 0x10002DB70, symSize: 0x30 }
  - { offset: 0x7CF2D, size: 0x8, addend: 0x0, symName: __RNvXNtNtNtCsfvfooZQ3Axs_4core4iter6traits7collectINtNtNtB6_8adapters3map3MapINtNtNtCse1nGBsou5OW_5alloc3vec9into_iter8IntoIterNtNtCs5AlOhPCr03V_3syn4attr9AttributeENCINvNtNtB24_3gen4fold14fold_item_implNtNtCsdjy9FUDAuhT_18build_script_build11match_token16MatchTokenParserE0ENtB2_12IntoIterator9into_iterB3i_, symObjAddr: 0xB2CC, symBinAddr: 0x10002DBA0, symSize: 0x30 }
  - { offset: 0x7CF65, size: 0x8, addend: 0x0, symName: __RNvXNtNtNtCsfvfooZQ3Axs_4core4iter6traits7collectINtNtNtB6_8adapters3map3MapINtNtNtCse1nGBsou5OW_5alloc3vec9into_iter8IntoIterNtNtCs5AlOhPCr03V_3syn4attr9AttributeENCINvNtNtB24_3gen4fold14fold_item_typeNtNtCsdjy9FUDAuhT_18build_script_build11match_token16MatchTokenParserE0ENtB2_12IntoIterator9into_iterB3i_, symObjAddr: 0xB2FC, symBinAddr: 0x10002DBD0, symSize: 0x30 }
  - { offset: 0x7CF9D, size: 0x8, addend: 0x0, symName: __RNvXNtNtNtCsfvfooZQ3Axs_4core4iter6traits7collectINtNtNtB6_8adapters3map3MapINtNtNtCse1nGBsou5OW_5alloc3vec9into_iter8IntoIterNtNtCs5AlOhPCr03V_3syn4attr9AttributeENCINvNtNtB24_3gen4fold14fold_pat_identNtNtCsdjy9FUDAuhT_18build_script_build11match_token16MatchTokenParserE0ENtB2_12IntoIterator9into_iterB3i_, symObjAddr: 0xB32C, symBinAddr: 0x10002DC00, symSize: 0x30 }
  - { offset: 0x7CFD5, size: 0x8, addend: 0x0, symName: __RNvXNtNtNtCsfvfooZQ3Axs_4core4iter6traits7collectINtNtNtB6_8adapters3map3MapINtNtNtCse1nGBsou5OW_5alloc3vec9into_iter8IntoIterNtNtCs5AlOhPCr03V_3syn4attr9AttributeENCINvNtNtB24_3gen4fold14fold_pat_macroNtNtCsdjy9FUDAuhT_18build_script_build11match_token16MatchTokenParserE0ENtB2_12IntoIterator9into_iterB3i_, symObjAddr: 0xB35C, symBinAddr: 0x10002DC30, symSize: 0x30 }
  - { offset: 0x7D00D, size: 0x8, addend: 0x0, symName: __RNvXNtNtNtCsfvfooZQ3Axs_4core4iter6traits7collectINtNtNtB6_8adapters3map3MapINtNtNtCse1nGBsou5OW_5alloc3vec9into_iter8IntoIterNtNtCs5AlOhPCr03V_3syn4attr9AttributeENCINvNtNtB24_3gen4fold14fold_pat_rangeNtNtCsdjy9FUDAuhT_18build_script_build11match_token16MatchTokenParserE0ENtB2_12IntoIterator9into_iterB3i_, symObjAddr: 0xB38C, symBinAddr: 0x10002DC60, symSize: 0x30 }
  - { offset: 0x7D045, size: 0x8, addend: 0x0, symName: __RNvXNtNtNtCsfvfooZQ3Axs_4core4iter6traits7collectINtNtNtB6_8adapters3map3MapINtNtNtCse1nGBsou5OW_5alloc3vec9into_iter8IntoIterNtNtCs5AlOhPCr03V_3syn4attr9AttributeENCINvNtNtB24_3gen4fold14fold_pat_sliceNtNtCsdjy9FUDAuhT_18build_script_build11match_token16MatchTokenParserE0ENtB2_12IntoIterator9into_iterB3i_, symObjAddr: 0xB3BC, symBinAddr: 0x10002DC90, symSize: 0x30 }
  - { offset: 0x7D07D, size: 0x8, addend: 0x0, symName: __RNvXNtNtNtCsfvfooZQ3Axs_4core4iter6traits7collectINtNtNtB6_8adapters3map3MapINtNtNtCse1nGBsou5OW_5alloc3vec9into_iter8IntoIterNtNtCs5AlOhPCr03V_3syn4attr9AttributeENCINvNtNtB24_3gen4fold14fold_pat_tupleNtNtCsdjy9FUDAuhT_18build_script_build11match_token16MatchTokenParserE0ENtB2_12IntoIterator9into_iterB3i_, symObjAddr: 0xB3EC, symBinAddr: 0x10002DCC0, symSize: 0x30 }
  - { offset: 0x7D0B5, size: 0x8, addend: 0x0, symName: __RNvXNtNtNtCsfvfooZQ3Axs_4core4iter6traits7collectINtNtNtB6_8adapters3map3MapINtNtNtCse1nGBsou5OW_5alloc3vec9into_iter8IntoIterNtNtCs5AlOhPCr03V_3syn4attr9AttributeENCINvNtNtB24_3gen4fold15fold_expr_arrayNtNtCsdjy9FUDAuhT_18build_script_build11match_token16MatchTokenParserE0ENtB2_12IntoIterator9into_iterB3j_, symObjAddr: 0xB41C, symBinAddr: 0x10002DCF0, symSize: 0x30 }
  - { offset: 0x7D0ED, size: 0x8, addend: 0x0, symName: __RNvXNtNtNtCsfvfooZQ3Axs_4core4iter6traits7collectINtNtNtB6_8adapters3map3MapINtNtNtCse1nGBsou5OW_5alloc3vec9into_iter8IntoIterNtNtCs5AlOhPCr03V_3syn4attr9AttributeENCINvNtNtB24_3gen4fold15fold_expr_asyncNtNtCsdjy9FUDAuhT_18build_script_build11match_token16MatchTokenParserE0ENtB2_12IntoIterator9into_iterB3j_, symObjAddr: 0xB44C, symBinAddr: 0x10002DD20, symSize: 0x30 }
  - { offset: 0x7D125, size: 0x8, addend: 0x0, symName: __RNvXNtNtNtCsfvfooZQ3Axs_4core4iter6traits7collectINtNtNtB6_8adapters3map3MapINtNtNtCse1nGBsou5OW_5alloc3vec9into_iter8IntoIterNtNtCs5AlOhPCr03V_3syn4attr9AttributeENCINvNtNtB24_3gen4fold15fold_expr_awaitNtNtCsdjy9FUDAuhT_18build_script_build11match_token16MatchTokenParserE0ENtB2_12IntoIterator9into_iterB3j_, symObjAddr: 0xB47C, symBinAddr: 0x10002DD50, symSize: 0x30 }
  - { offset: 0x7D15D, size: 0x8, addend: 0x0, symName: __RNvXNtNtNtCsfvfooZQ3Axs_4core4iter6traits7collectINtNtNtB6_8adapters3map3MapINtNtNtCse1nGBsou5OW_5alloc3vec9into_iter8IntoIterNtNtCs5AlOhPCr03V_3syn4attr9AttributeENCINvNtNtB24_3gen4fold15fold_expr_blockNtNtCsdjy9FUDAuhT_18build_script_build11match_token16MatchTokenParserE0ENtB2_12IntoIterator9into_iterB3j_, symObjAddr: 0xB4AC, symBinAddr: 0x10002DD80, symSize: 0x30 }
  - { offset: 0x7D195, size: 0x8, addend: 0x0, symName: __RNvXNtNtNtCsfvfooZQ3Axs_4core4iter6traits7collectINtNtNtB6_8adapters3map3MapINtNtNtCse1nGBsou5OW_5alloc3vec9into_iter8IntoIterNtNtCs5AlOhPCr03V_3syn4attr9AttributeENCINvNtNtB24_3gen4fold15fold_expr_breakNtNtCsdjy9FUDAuhT_18build_script_build11match_token16MatchTokenParserE0ENtB2_12IntoIterator9into_iterB3j_, symObjAddr: 0xB4DC, symBinAddr: 0x10002DDB0, symSize: 0x30 }
  - { offset: 0x7D1CD, size: 0x8, addend: 0x0, symName: __RNvXNtNtNtCsfvfooZQ3Axs_4core4iter6traits7collectINtNtNtB6_8adapters3map3MapINtNtNtCse1nGBsou5OW_5alloc3vec9into_iter8IntoIterNtNtCs5AlOhPCr03V_3syn4attr9AttributeENCINvNtNtB24_3gen4fold15fold_expr_fieldNtNtCsdjy9FUDAuhT_18build_script_build11match_token16MatchTokenParserE0ENtB2_12IntoIterator9into_iterB3j_, symObjAddr: 0xB50C, symBinAddr: 0x10002DDE0, symSize: 0x30 }
  - { offset: 0x7D205, size: 0x8, addend: 0x0, symName: __RNvXNtNtNtCsfvfooZQ3Axs_4core4iter6traits7collectINtNtNtB6_8adapters3map3MapINtNtNtCse1nGBsou5OW_5alloc3vec9into_iter8IntoIterNtNtCs5AlOhPCr03V_3syn4attr9AttributeENCINvNtNtB24_3gen4fold15fold_expr_groupNtNtCsdjy9FUDAuhT_18build_script_build11match_token16MatchTokenParserE0ENtB2_12IntoIterator9into_iterB3j_, symObjAddr: 0xB53C, symBinAddr: 0x10002DE10, symSize: 0x30 }
  - { offset: 0x7D23D, size: 0x8, addend: 0x0, symName: __RNvXNtNtNtCsfvfooZQ3Axs_4core4iter6traits7collectINtNtNtB6_8adapters3map3MapINtNtNtCse1nGBsou5OW_5alloc3vec9into_iter8IntoIterNtNtCs5AlOhPCr03V_3syn4attr9AttributeENCINvNtNtB24_3gen4fold15fold_expr_indexNtNtCsdjy9FUDAuhT_18build_script_build11match_token16MatchTokenParserE0ENtB2_12IntoIterator9into_iterB3j_, symObjAddr: 0xB56C, symBinAddr: 0x10002DE40, symSize: 0x30 }
  - { offset: 0x7D275, size: 0x8, addend: 0x0, symName: __RNvXNtNtNtCsfvfooZQ3Axs_4core4iter6traits7collectINtNtNtB6_8adapters3map3MapINtNtNtCse1nGBsou5OW_5alloc3vec9into_iter8IntoIterNtNtCs5AlOhPCr03V_3syn4attr9AttributeENCINvNtNtB24_3gen4fold15fold_expr_macroNtNtCsdjy9FUDAuhT_18build_script_build11match_token16MatchTokenParserE0ENtB2_12IntoIterator9into_iterB3j_, symObjAddr: 0xB59C, symBinAddr: 0x10002DE70, symSize: 0x30 }
  - { offset: 0x7D2AD, size: 0x8, addend: 0x0, symName: __RNvXNtNtNtCsfvfooZQ3Axs_4core4iter6traits7collectINtNtNtB6_8adapters3map3MapINtNtNtCse1nGBsou5OW_5alloc3vec9into_iter8IntoIterNtNtCs5AlOhPCr03V_3syn4attr9AttributeENCINvNtNtB24_3gen4fold15fold_expr_matchNtNtCsdjy9FUDAuhT_18build_script_build11match_token16MatchTokenParserE0ENtB2_12IntoIterator9into_iterB3j_, symObjAddr: 0xB5CC, symBinAddr: 0x10002DEA0, symSize: 0x30 }
  - { offset: 0x7D2E5, size: 0x8, addend: 0x0, symName: __RNvXNtNtNtCsfvfooZQ3Axs_4core4iter6traits7collectINtNtNtB6_8adapters3map3MapINtNtNtCse1nGBsou5OW_5alloc3vec9into_iter8IntoIterNtNtCs5AlOhPCr03V_3syn4attr9AttributeENCINvNtNtB24_3gen4fold15fold_expr_parenNtNtCsdjy9FUDAuhT_18build_script_build11match_token16MatchTokenParserE0ENtB2_12IntoIterator9into_iterB3j_, symObjAddr: 0xB5FC, symBinAddr: 0x10002DED0, symSize: 0x30 }
  - { offset: 0x7D31D, size: 0x8, addend: 0x0, symName: __RNvXNtNtNtCsfvfooZQ3Axs_4core4iter6traits7collectINtNtNtB6_8adapters3map3MapINtNtNtCse1nGBsou5OW_5alloc3vec9into_iter8IntoIterNtNtCs5AlOhPCr03V_3syn4attr9AttributeENCINvNtNtB24_3gen4fold15fold_expr_rangeNtNtCsdjy9FUDAuhT_18build_script_build11match_token16MatchTokenParserE0ENtB2_12IntoIterator9into_iterB3j_, symObjAddr: 0xB62C, symBinAddr: 0x10002DF00, symSize: 0x30 }
  - { offset: 0x7D355, size: 0x8, addend: 0x0, symName: __RNvXNtNtNtCsfvfooZQ3Axs_4core4iter6traits7collectINtNtNtB6_8adapters3map3MapINtNtNtCse1nGBsou5OW_5alloc3vec9into_iter8IntoIterNtNtCs5AlOhPCr03V_3syn4attr9AttributeENCINvNtNtB24_3gen4fold15fold_expr_tupleNtNtCsdjy9FUDAuhT_18build_script_build11match_token16MatchTokenParserE0ENtB2_12IntoIterator9into_iterB3j_, symObjAddr: 0xB65C, symBinAddr: 0x10002DF30, symSize: 0x30 }
  - { offset: 0x7D38D, size: 0x8, addend: 0x0, symName: __RNvXNtNtNtCsfvfooZQ3Axs_4core4iter6traits7collectINtNtNtB6_8adapters3map3MapINtNtNtCse1nGBsou5OW_5alloc3vec9into_iter8IntoIterNtNtCs5AlOhPCr03V_3syn4attr9AttributeENCINvNtNtB24_3gen4fold15fold_expr_unaryNtNtCsdjy9FUDAuhT_18build_script_build11match_token16MatchTokenParserE0ENtB2_12IntoIterator9into_iterB3j_, symObjAddr: 0xB68C, symBinAddr: 0x10002DF60, symSize: 0x30 }
  - { offset: 0x7D3C5, size: 0x8, addend: 0x0, symName: __RNvXNtNtNtCsfvfooZQ3Axs_4core4iter6traits7collectINtNtNtB6_8adapters3map3MapINtNtNtCse1nGBsou5OW_5alloc3vec9into_iter8IntoIterNtNtCs5AlOhPCr03V_3syn4attr9AttributeENCINvNtNtB24_3gen4fold15fold_expr_whileNtNtCsdjy9FUDAuhT_18build_script_build11match_token16MatchTokenParserE0ENtB2_12IntoIterator9into_iterB3j_, symObjAddr: 0xB6BC, symBinAddr: 0x10002DF90, symSize: 0x30 }
  - { offset: 0x7D3FD, size: 0x8, addend: 0x0, symName: __RNvXNtNtNtCsfvfooZQ3Axs_4core4iter6traits7collectINtNtNtB6_8adapters3map3MapINtNtNtCse1nGBsou5OW_5alloc3vec9into_iter8IntoIterNtNtCs5AlOhPCr03V_3syn4attr9AttributeENCINvNtNtB24_3gen4fold15fold_expr_yieldNtNtCsdjy9FUDAuhT_18build_script_build11match_token16MatchTokenParserE0ENtB2_12IntoIterator9into_iterB3j_, symObjAddr: 0xB6EC, symBinAddr: 0x10002DFC0, symSize: 0x30 }
  - { offset: 0x7D435, size: 0x8, addend: 0x0, symName: __RNvXNtNtNtCsfvfooZQ3Axs_4core4iter6traits7collectINtNtNtB6_8adapters3map3MapINtNtNtCse1nGBsou5OW_5alloc3vec9into_iter8IntoIterNtNtCs5AlOhPCr03V_3syn4attr9AttributeENCINvNtNtB24_3gen4fold15fold_item_constNtNtCsdjy9FUDAuhT_18build_script_build11match_token16MatchTokenParserE0ENtB2_12IntoIterator9into_iterB3j_, symObjAddr: 0xB71C, symBinAddr: 0x10002DFF0, symSize: 0x30 }
  - { offset: 0x7D46D, size: 0x8, addend: 0x0, symName: __RNvXNtNtNtCsfvfooZQ3Axs_4core4iter6traits7collectINtNtNtB6_8adapters3map3MapINtNtNtCse1nGBsou5OW_5alloc3vec9into_iter8IntoIterNtNtCs5AlOhPCr03V_3syn4attr9AttributeENCINvNtNtB24_3gen4fold15fold_item_macroNtNtCsdjy9FUDAuhT_18build_script_build11match_token16MatchTokenParserE0ENtB2_12IntoIterator9into_iterB3j_, symObjAddr: 0xB74C, symBinAddr: 0x10002E020, symSize: 0x30 }
  - { offset: 0x7D4A5, size: 0x8, addend: 0x0, symName: __RNvXNtNtNtCsfvfooZQ3Axs_4core4iter6traits7collectINtNtNtB6_8adapters3map3MapINtNtNtCse1nGBsou5OW_5alloc3vec9into_iter8IntoIterNtNtCs5AlOhPCr03V_3syn4attr9AttributeENCINvNtNtB24_3gen4fold15fold_item_traitNtNtCsdjy9FUDAuhT_18build_script_build11match_token16MatchTokenParserE0ENtB2_12IntoIterator9into_iterB3j_, symObjAddr: 0xB77C, symBinAddr: 0x10002E050, symSize: 0x30 }
  - { offset: 0x7D4DD, size: 0x8, addend: 0x0, symName: __RNvXNtNtNtCsfvfooZQ3Axs_4core4iter6traits7collectINtNtNtB6_8adapters3map3MapINtNtNtCse1nGBsou5OW_5alloc3vec9into_iter8IntoIterNtNtCs5AlOhPCr03V_3syn4attr9AttributeENCINvNtNtB24_3gen4fold15fold_item_unionNtNtCsdjy9FUDAuhT_18build_script_build11match_token16MatchTokenParserE0ENtB2_12IntoIterator9into_iterB3j_, symObjAddr: 0xB7AC, symBinAddr: 0x10002E080, symSize: 0x30 }
  - { offset: 0x7D515, size: 0x8, addend: 0x0, symName: __RNvXNtNtNtCsfvfooZQ3Axs_4core4iter6traits7collectINtNtNtB6_8adapters3map3MapINtNtNtCse1nGBsou5OW_5alloc3vec9into_iter8IntoIterNtNtCs5AlOhPCr03V_3syn4attr9AttributeENCINvNtNtB24_3gen4fold15fold_pat_structNtNtCsdjy9FUDAuhT_18build_script_build11match_token16MatchTokenParserE0ENtB2_12IntoIterator9into_iterB3j_, symObjAddr: 0xB7DC, symBinAddr: 0x10002E0B0, symSize: 0x30 }
  - { offset: 0x7D54D, size: 0x8, addend: 0x0, symName: __RNvXNtNtNtCsfvfooZQ3Axs_4core4iter6traits7collectINtNtNtB6_8adapters3map3MapINtNtNtCse1nGBsou5OW_5alloc3vec9into_iter8IntoIterNtNtCs5AlOhPCr03V_3syn4attr9AttributeENCINvNtNtB24_3gen4fold15fold_type_paramNtNtCsdjy9FUDAuhT_18build_script_build11match_token16MatchTokenParserE0ENtB2_12IntoIterator9into_iterB3j_, symObjAddr: 0xB80C, symBinAddr: 0x10002E0E0, symSize: 0x30 }
  - { offset: 0x7D585, size: 0x8, addend: 0x0, symName: __RNvXNtNtNtCsfvfooZQ3Axs_4core4iter6traits7collectINtNtNtB6_8adapters3map3MapINtNtNtCse1nGBsou5OW_5alloc3vec9into_iter8IntoIterNtNtCs5AlOhPCr03V_3syn4attr9AttributeENCINvNtNtB24_3gen4fold16fold_bare_fn_argNtNtCsdjy9FUDAuhT_18build_script_build11match_token16MatchTokenParserE0ENtB2_12IntoIterator9into_iterB3k_, symObjAddr: 0xB83C, symBinAddr: 0x10002E110, symSize: 0x30 }
  - { offset: 0x7D5BD, size: 0x8, addend: 0x0, symName: __RNvXNtNtNtCsfvfooZQ3Axs_4core4iter6traits7collectINtNtNtB6_8adapters3map3MapINtNtNtCse1nGBsou5OW_5alloc3vec9into_iter8IntoIterNtNtCs5AlOhPCr03V_3syn4attr9AttributeENCINvNtNtB24_3gen4fold16fold_const_paramNtNtCsdjy9FUDAuhT_18build_script_build11match_token16MatchTokenParserE0ENtB2_12IntoIterator9into_iterB3k_, symObjAddr: 0xB86C, symBinAddr: 0x10002E140, symSize: 0x30 }
  - { offset: 0x7D5F5, size: 0x8, addend: 0x0, symName: __RNvXNtNtNtCsfvfooZQ3Axs_4core4iter6traits7collectINtNtNtB6_8adapters3map3MapINtNtNtCse1nGBsou5OW_5alloc3vec9into_iter8IntoIterNtNtCs5AlOhPCr03V_3syn4attr9AttributeENCINvNtNtB24_3gen4fold16fold_expr_assignNtNtCsdjy9FUDAuhT_18build_script_build11match_token16MatchTokenParserE0ENtB2_12IntoIterator9into_iterB3k_, symObjAddr: 0xB89C, symBinAddr: 0x10002E170, symSize: 0x30 }
  - { offset: 0x7D62D, size: 0x8, addend: 0x0, symName: __RNvXNtNtNtCsfvfooZQ3Axs_4core4iter6traits7collectINtNtNtB6_8adapters3map3MapINtNtNtCse1nGBsou5OW_5alloc3vec9into_iter8IntoIterNtNtCs5AlOhPCr03V_3syn4attr9AttributeENCINvNtNtB24_3gen4fold16fold_expr_binaryNtNtCsdjy9FUDAuhT_18build_script_build11match_token16MatchTokenParserE0ENtB2_12IntoIterator9into_iterB3k_, symObjAddr: 0xB8CC, symBinAddr: 0x10002E1A0, symSize: 0x30 }
  - { offset: 0x7D665, size: 0x8, addend: 0x0, symName: __RNvXNtNtNtCsfvfooZQ3Axs_4core4iter6traits7collectINtNtNtB6_8adapters3map3MapINtNtNtCse1nGBsou5OW_5alloc3vec9into_iter8IntoIterNtNtCs5AlOhPCr03V_3syn4attr9AttributeENCINvNtNtB24_3gen4fold16fold_expr_repeatNtNtCsdjy9FUDAuhT_18build_script_build11match_token16MatchTokenParserE0ENtB2_12IntoIterator9into_iterB3k_, symObjAddr: 0xB8FC, symBinAddr: 0x10002E1D0, symSize: 0x30 }
  - { offset: 0x7D69D, size: 0x8, addend: 0x0, symName: __RNvXNtNtNtCsfvfooZQ3Axs_4core4iter6traits7collectINtNtNtB6_8adapters3map3MapINtNtNtCse1nGBsou5OW_5alloc3vec9into_iter8IntoIterNtNtCs5AlOhPCr03V_3syn4attr9AttributeENCINvNtNtB24_3gen4fold16fold_expr_returnNtNtCsdjy9FUDAuhT_18build_script_build11match_token16MatchTokenParserE0ENtB2_12IntoIterator9into_iterB3k_, symObjAddr: 0xB92C, symBinAddr: 0x10002E200, symSize: 0x30 }
  - { offset: 0x7D6D5, size: 0x8, addend: 0x0, symName: __RNvXNtNtNtCsfvfooZQ3Axs_4core4iter6traits7collectINtNtNtB6_8adapters3map3MapINtNtNtCse1nGBsou5OW_5alloc3vec9into_iter8IntoIterNtNtCs5AlOhPCr03V_3syn4attr9AttributeENCINvNtNtB24_3gen4fold16fold_expr_structNtNtCsdjy9FUDAuhT_18build_script_build11match_token16MatchTokenParserE0ENtB2_12IntoIterator9into_iterB3k_, symObjAddr: 0xB95C, symBinAddr: 0x10002E230, symSize: 0x30 }
  - { offset: 0x7D70D, size: 0x8, addend: 0x0, symName: __RNvXNtNtNtCsfvfooZQ3Axs_4core4iter6traits7collectINtNtNtB6_8adapters3map3MapINtNtNtCse1nGBsou5OW_5alloc3vec9into_iter8IntoIterNtNtCs5AlOhPCr03V_3syn4attr9AttributeENCINvNtNtB24_3gen4fold16fold_expr_unsafeNtNtCsdjy9FUDAuhT_18build_script_build11match_token16MatchTokenParserE0ENtB2_12IntoIterator9into_iterB3k_, symObjAddr: 0xB98C, symBinAddr: 0x10002E260, symSize: 0x30 }
  - { offset: 0x7D745, size: 0x8, addend: 0x0, symName: __RNvXNtNtNtCsfvfooZQ3Axs_4core4iter6traits7collectINtNtNtB6_8adapters3map3MapINtNtNtCse1nGBsou5OW_5alloc3vec9into_iter8IntoIterNtNtCs5AlOhPCr03V_3syn4attr9AttributeENCINvNtNtB24_3gen4fold16fold_field_valueNtNtCsdjy9FUDAuhT_18build_script_build11match_token16MatchTokenParserE0ENtB2_12IntoIterator9into_iterB3k_, symObjAddr: 0xB9BC, symBinAddr: 0x10002E290, symSize: 0x30 }
  - { offset: 0x7D77D, size: 0x8, addend: 0x0, symName: __RNvXNtNtNtCsfvfooZQ3Axs_4core4iter6traits7collectINtNtNtB6_8adapters3map3MapINtNtNtCse1nGBsou5OW_5alloc3vec9into_iter8IntoIterNtNtCs5AlOhPCr03V_3syn4attr9AttributeENCINvNtNtB24_3gen4fold16fold_item_macro2NtNtCsdjy9FUDAuhT_18build_script_build11match_token16MatchTokenParserE0ENtB2_12IntoIterator9into_iterB3k_, symObjAddr: 0xB9EC, symBinAddr: 0x10002E2C0, symSize: 0x30 }
  - { offset: 0x7D7B5, size: 0x8, addend: 0x0, symName: __RNvXNtNtNtCsfvfooZQ3Axs_4core4iter6traits7collectINtNtNtB6_8adapters3map3MapINtNtNtCse1nGBsou5OW_5alloc3vec9into_iter8IntoIterNtNtCs5AlOhPCr03V_3syn4attr9AttributeENCINvNtNtB24_3gen4fold16fold_item_staticNtNtCsdjy9FUDAuhT_18build_script_build11match_token16MatchTokenParserE0ENtB2_12IntoIterator9into_iterB3k_, symObjAddr: 0xBA1C, symBinAddr: 0x10002E2F0, symSize: 0x30 }
  - { offset: 0x7D7ED, size: 0x8, addend: 0x0, symName: __RNvXNtNtNtCsfvfooZQ3Axs_4core4iter6traits7collectINtNtNtB6_8adapters3map3MapINtNtNtCse1nGBsou5OW_5alloc3vec9into_iter8IntoIterNtNtCs5AlOhPCr03V_3syn4attr9AttributeENCINvNtNtB24_3gen4fold16fold_item_structNtNtCsdjy9FUDAuhT_18build_script_build11match_token16MatchTokenParserE0ENtB2_12IntoIterator9into_iterB3k_, symObjAddr: 0xBA4C, symBinAddr: 0x10002E320, symSize: 0x30 }
