---
triple:          'arm64-apple-darwin'
binary-path:     '/Users/cedric/orange/ran-llm-claude-flow/src/rust-pipeline/target/debug/deps/libmetrics_macros-61eca195f85c93bc.dylib'
relocations:
  - { offset: 0x1E, size: 0x8, addend: 0x0, symName: __RINvNtNtCs9i5KxIbZ5ph_10proc_macro6bridge6client10run_clientNtB2_11TokenStreamINtNtCsfvfooZQ3Axs_4core6option6OptionBW_ENCNCINvMs7_B2_INtB2_6ClientNtB6_11TokenStreamB2l_E7expand1NvCsljl79DWYEYJ_14metrics_macros14describe_gaugeE00EB2S_, symObjAddr: 0x0, symBinAddr: 0xC50, symSize: 0x21C }
  - { offset: 0x1F59, size: 0x8, addend: 0x0, symName: __RNCINvNtNtCs9i5KxIbZ5ph_10proc_macro6bridge6client10run_clientNtB4_11TokenStreamINtNtCsfvfooZQ3Axs_4core6option6OptionBY_ENCNCINvMs7_B4_INtB4_6ClientNtB8_11TokenStreamB2n_E7expand1NvCsljl79DWYEYJ_14metrics_macros14describe_gaugeE00E0B2U_, symObjAddr: 0x1DDC, symBinAddr: 0x2A2C, symSize: 0x324 }
  - { offset: 0x21BC, size: 0x8, addend: 0x0, symName: __RNCINvNtNtCs9i5KxIbZ5ph_10proc_macro6bridge6client10run_clientNtB4_11TokenStreamINtNtCsfvfooZQ3Axs_4core6option6OptionBY_ENCNCINvMs7_B4_INtB4_6ClientNtB8_11TokenStreamB2n_E7expand1NvCsljl79DWYEYJ_14metrics_macros14register_gaugeE00E0B2U_, symObjAddr: 0x2100, symBinAddr: 0x2D50, symSize: 0x324 }
  - { offset: 0x241F, size: 0x8, addend: 0x0, symName: __RNCINvNtNtCs9i5KxIbZ5ph_10proc_macro6bridge6client10run_clientNtB4_11TokenStreamINtNtCsfvfooZQ3Axs_4core6option6OptionBY_ENCNCINvMs7_B4_INtB4_6ClientNtB8_11TokenStreamB2n_E7expand1NvCsljl79DWYEYJ_14metrics_macros15decrement_gaugeE00E0B2U_, symObjAddr: 0x2424, symBinAddr: 0x3074, symSize: 0x324 }
  - { offset: 0x2682, size: 0x8, addend: 0x0, symName: __RNCINvNtNtCs9i5KxIbZ5ph_10proc_macro6bridge6client10run_clientNtB4_11TokenStreamINtNtCsfvfooZQ3Axs_4core6option6OptionBY_ENCNCINvMs7_B4_INtB4_6ClientNtB8_11TokenStreamB2n_E7expand1NvCsljl79DWYEYJ_14metrics_macros15increment_gaugeE00E0B2U_, symObjAddr: 0x2748, symBinAddr: 0x3398, symSize: 0x324 }
  - { offset: 0x28E5, size: 0x8, addend: 0x0, symName: __RNCINvNtNtCs9i5KxIbZ5ph_10proc_macro6bridge6client10run_clientNtB4_11TokenStreamINtNtCsfvfooZQ3Axs_4core6option6OptionBY_ENCNCINvMs7_B4_INtB4_6ClientNtB8_11TokenStreamB2n_E7expand1NvCsljl79DWYEYJ_14metrics_macros16absolute_counterE00E0B2U_, symObjAddr: 0x2A6C, symBinAddr: 0x36BC, symSize: 0x324 }
  - { offset: 0x2B48, size: 0x8, addend: 0x0, symName: __RNCINvNtNtCs9i5KxIbZ5ph_10proc_macro6bridge6client10run_clientNtB4_11TokenStreamINtNtCsfvfooZQ3Axs_4core6option6OptionBY_ENCNCINvMs7_B4_INtB4_6ClientNtB8_11TokenStreamB2n_E7expand1NvCsljl79DWYEYJ_14metrics_macros16describe_counterE00E0B2U_, symObjAddr: 0x2D90, symBinAddr: 0x39E0, symSize: 0x324 }
  - { offset: 0x2DAB, size: 0x8, addend: 0x0, symName: __RNCINvNtNtCs9i5KxIbZ5ph_10proc_macro6bridge6client10run_clientNtB4_11TokenStreamINtNtCsfvfooZQ3Axs_4core6option6OptionBY_ENCNCINvMs7_B4_INtB4_6ClientNtB8_11TokenStreamB2n_E7expand1NvCsljl79DWYEYJ_14metrics_macros16register_counterE00E0B2U_, symObjAddr: 0x30B4, symBinAddr: 0x3D04, symSize: 0x324 }
  - { offset: 0x300E, size: 0x8, addend: 0x0, symName: __RNCINvNtNtCs9i5KxIbZ5ph_10proc_macro6bridge6client10run_clientNtB4_11TokenStreamINtNtCsfvfooZQ3Axs_4core6option6OptionBY_ENCNCINvMs7_B4_INtB4_6ClientNtB8_11TokenStreamB2n_E7expand1NvCsljl79DWYEYJ_14metrics_macros17increment_counterE00E0B2U_, symObjAddr: 0x33D8, symBinAddr: 0x4028, symSize: 0x324 }
  - { offset: 0x3271, size: 0x8, addend: 0x0, symName: __RNCINvNtNtCs9i5KxIbZ5ph_10proc_macro6bridge6client10run_clientNtB4_11TokenStreamINtNtCsfvfooZQ3Axs_4core6option6OptionBY_ENCNCINvMs7_B4_INtB4_6ClientNtB8_11TokenStreamB2n_E7expand1NvCsljl79DWYEYJ_14metrics_macros18describe_histogramE00E0B2U_, symObjAddr: 0x36FC, symBinAddr: 0x434C, symSize: 0x324 }
  - { offset: 0x34D4, size: 0x8, addend: 0x0, symName: __RNCINvNtNtCs9i5KxIbZ5ph_10proc_macro6bridge6client10run_clientNtB4_11TokenStreamINtNtCsfvfooZQ3Axs_4core6option6OptionBY_ENCNCINvMs7_B4_INtB4_6ClientNtB8_11TokenStreamB2n_E7expand1NvCsljl79DWYEYJ_14metrics_macros18register_histogramE00E0B2U_, symObjAddr: 0x3A20, symBinAddr: 0x4670, symSize: 0x324 }
  - { offset: 0x3737, size: 0x8, addend: 0x0, symName: __RNCINvNtNtCs9i5KxIbZ5ph_10proc_macro6bridge6client10run_clientNtB4_11TokenStreamINtNtCsfvfooZQ3Axs_4core6option6OptionBY_ENCNCINvMs7_B4_INtB4_6ClientNtB8_11TokenStreamB2n_E7expand1NvCsljl79DWYEYJ_14metrics_macros5gaugeE00E0B2U_, symObjAddr: 0x3D44, symBinAddr: 0x4994, symSize: 0x324 }
  - { offset: 0x399A, size: 0x8, addend: 0x0, symName: __RNCINvNtNtCs9i5KxIbZ5ph_10proc_macro6bridge6client10run_clientNtB4_11TokenStreamINtNtCsfvfooZQ3Axs_4core6option6OptionBY_ENCNCINvMs7_B4_INtB4_6ClientNtB8_11TokenStreamB2n_E7expand1NvCsljl79DWYEYJ_14metrics_macros7counterE00E0B2U_, symObjAddr: 0x4068, symBinAddr: 0x4CB8, symSize: 0x324 }
  - { offset: 0x3BFD, size: 0x8, addend: 0x0, symName: __RNCINvNtNtCs9i5KxIbZ5ph_10proc_macro6bridge6client10run_clientNtB4_11TokenStreamINtNtCsfvfooZQ3Axs_4core6option6OptionBY_ENCNCINvMs7_B4_INtB4_6ClientNtB8_11TokenStreamB2n_E7expand1NvCsljl79DWYEYJ_14metrics_macros9histogramE00E0B2U_, symObjAddr: 0x438C, symBinAddr: 0x4FDC, symSize: 0x324 }
  - { offset: 0x3E65, size: 0x8, addend: 0x0, symName: __RNCNCINvNtNtCs9i5KxIbZ5ph_10proc_macro6bridge6client10run_clientNtB6_11TokenStreamINtNtCsfvfooZQ3Axs_4core6option6OptionB10_ENCNCINvMs7_B6_INtB6_6ClientNtBa_11TokenStreamB2q_E7expand1NvCsljl79DWYEYJ_14metrics_macros14describe_gaugeE00E00B2X_, symObjAddr: 0x4920, symBinAddr: 0x5570, symSize: 0x28 }
  - { offset: 0x3EBF, size: 0x8, addend: 0x0, symName: __RNCNCINvNtNtCs9i5KxIbZ5ph_10proc_macro6bridge6client10run_clientNtB6_11TokenStreamINtNtCsfvfooZQ3Axs_4core6option6OptionB10_ENCNCINvMs7_B6_INtB6_6ClientNtBa_11TokenStreamB2q_E7expand1NvCsljl79DWYEYJ_14metrics_macros14register_gaugeE00E00B2X_, symObjAddr: 0x4948, symBinAddr: 0x5598, symSize: 0x28 }
  - { offset: 0x3F19, size: 0x8, addend: 0x0, symName: __RNCNCINvNtNtCs9i5KxIbZ5ph_10proc_macro6bridge6client10run_clientNtB6_11TokenStreamINtNtCsfvfooZQ3Axs_4core6option6OptionB10_ENCNCINvMs7_B6_INtB6_6ClientNtBa_11TokenStreamB2q_E7expand1NvCsljl79DWYEYJ_14metrics_macros15decrement_gaugeE00E00B2X_, symObjAddr: 0x4970, symBinAddr: 0x55C0, symSize: 0x28 }
  - { offset: 0x3F73, size: 0x8, addend: 0x0, symName: __RNCNCINvNtNtCs9i5KxIbZ5ph_10proc_macro6bridge6client10run_clientNtB6_11TokenStreamINtNtCsfvfooZQ3Axs_4core6option6OptionB10_ENCNCINvMs7_B6_INtB6_6ClientNtBa_11TokenStreamB2q_E7expand1NvCsljl79DWYEYJ_14metrics_macros15increment_gaugeE00E00B2X_, symObjAddr: 0x4998, symBinAddr: 0x55E8, symSize: 0x28 }
  - { offset: 0x3FCD, size: 0x8, addend: 0x0, symName: __RNCNCINvNtNtCs9i5KxIbZ5ph_10proc_macro6bridge6client10run_clientNtB6_11TokenStreamINtNtCsfvfooZQ3Axs_4core6option6OptionB10_ENCNCINvMs7_B6_INtB6_6ClientNtBa_11TokenStreamB2q_E7expand1NvCsljl79DWYEYJ_14metrics_macros16absolute_counterE00E00B2X_, symObjAddr: 0x49C0, symBinAddr: 0x5610, symSize: 0x28 }
  - { offset: 0x4027, size: 0x8, addend: 0x0, symName: __RNCNCINvNtNtCs9i5KxIbZ5ph_10proc_macro6bridge6client10run_clientNtB6_11TokenStreamINtNtCsfvfooZQ3Axs_4core6option6OptionB10_ENCNCINvMs7_B6_INtB6_6ClientNtBa_11TokenStreamB2q_E7expand1NvCsljl79DWYEYJ_14metrics_macros16describe_counterE00E00B2X_, symObjAddr: 0x49E8, symBinAddr: 0x5638, symSize: 0x28 }
  - { offset: 0x4081, size: 0x8, addend: 0x0, symName: __RNCNCINvNtNtCs9i5KxIbZ5ph_10proc_macro6bridge6client10run_clientNtB6_11TokenStreamINtNtCsfvfooZQ3Axs_4core6option6OptionB10_ENCNCINvMs7_B6_INtB6_6ClientNtBa_11TokenStreamB2q_E7expand1NvCsljl79DWYEYJ_14metrics_macros16register_counterE00E00B2X_, symObjAddr: 0x4A10, symBinAddr: 0x5660, symSize: 0x28 }
  - { offset: 0x40DB, size: 0x8, addend: 0x0, symName: __RNCNCINvNtNtCs9i5KxIbZ5ph_10proc_macro6bridge6client10run_clientNtB6_11TokenStreamINtNtCsfvfooZQ3Axs_4core6option6OptionB10_ENCNCINvMs7_B6_INtB6_6ClientNtBa_11TokenStreamB2q_E7expand1NvCsljl79DWYEYJ_14metrics_macros17increment_counterE00E00B2X_, symObjAddr: 0x4A38, symBinAddr: 0x5688, symSize: 0x28 }
  - { offset: 0x4135, size: 0x8, addend: 0x0, symName: __RNCNCINvNtNtCs9i5KxIbZ5ph_10proc_macro6bridge6client10run_clientNtB6_11TokenStreamINtNtCsfvfooZQ3Axs_4core6option6OptionB10_ENCNCINvMs7_B6_INtB6_6ClientNtBa_11TokenStreamB2q_E7expand1NvCsljl79DWYEYJ_14metrics_macros18describe_histogramE00E00B2X_, symObjAddr: 0x4A60, symBinAddr: 0x56B0, symSize: 0x28 }
  - { offset: 0x418F, size: 0x8, addend: 0x0, symName: __RNCNCINvNtNtCs9i5KxIbZ5ph_10proc_macro6bridge6client10run_clientNtB6_11TokenStreamINtNtCsfvfooZQ3Axs_4core6option6OptionB10_ENCNCINvMs7_B6_INtB6_6ClientNtBa_11TokenStreamB2q_E7expand1NvCsljl79DWYEYJ_14metrics_macros18register_histogramE00E00B2X_, symObjAddr: 0x4A88, symBinAddr: 0x56D8, symSize: 0x28 }
  - { offset: 0x41E9, size: 0x8, addend: 0x0, symName: __RNCNCINvNtNtCs9i5KxIbZ5ph_10proc_macro6bridge6client10run_clientNtB6_11TokenStreamINtNtCsfvfooZQ3Axs_4core6option6OptionB10_ENCNCINvMs7_B6_INtB6_6ClientNtBa_11TokenStreamB2q_E7expand1NvCsljl79DWYEYJ_14metrics_macros5gaugeE00E00B2X_, symObjAddr: 0x4AB0, symBinAddr: 0x5700, symSize: 0x28 }
  - { offset: 0x4243, size: 0x8, addend: 0x0, symName: __RNCNCINvNtNtCs9i5KxIbZ5ph_10proc_macro6bridge6client10run_clientNtB6_11TokenStreamINtNtCsfvfooZQ3Axs_4core6option6OptionB10_ENCNCINvMs7_B6_INtB6_6ClientNtBa_11TokenStreamB2q_E7expand1NvCsljl79DWYEYJ_14metrics_macros7counterE00E00B2X_, symObjAddr: 0x4AD8, symBinAddr: 0x5728, symSize: 0x28 }
  - { offset: 0x429D, size: 0x8, addend: 0x0, symName: __RNCNCINvNtNtCs9i5KxIbZ5ph_10proc_macro6bridge6client10run_clientNtB6_11TokenStreamINtNtCsfvfooZQ3Axs_4core6option6OptionB10_ENCNCINvMs7_B6_INtB6_6ClientNtBa_11TokenStreamB2q_E7expand1NvCsljl79DWYEYJ_14metrics_macros9histogramE00E00B2X_, symObjAddr: 0x4B00, symBinAddr: 0x5750, symSize: 0x28 }
  - { offset: 0x43FF, size: 0x8, addend: 0x0, symName: __RNCNCINvMs7_NtNtCs9i5KxIbZ5ph_10proc_macro6bridge6clientINtBa_6ClientNtBe_11TokenStreamB15_E7expand1NvCsljl79DWYEYJ_14metrics_macros14describe_gaugeE00B1C_, symObjAddr: 0x46B0, symBinAddr: 0x5300, symSize: 0x30 }
  - { offset: 0x4447, size: 0x8, addend: 0x0, symName: __RNCNCINvMs7_NtNtCs9i5KxIbZ5ph_10proc_macro6bridge6clientINtBa_6ClientNtBe_11TokenStreamB15_E7expand1NvCsljl79DWYEYJ_14metrics_macros14register_gaugeE00B1C_, symObjAddr: 0x46E0, symBinAddr: 0x5330, symSize: 0x30 }
  - { offset: 0x448F, size: 0x8, addend: 0x0, symName: __RNCNCINvMs7_NtNtCs9i5KxIbZ5ph_10proc_macro6bridge6clientINtBa_6ClientNtBe_11TokenStreamB15_E7expand1NvCsljl79DWYEYJ_14metrics_macros15decrement_gaugeE00B1C_, symObjAddr: 0x4710, symBinAddr: 0x5360, symSize: 0x30 }
  - { offset: 0x44D7, size: 0x8, addend: 0x0, symName: __RNCNCINvMs7_NtNtCs9i5KxIbZ5ph_10proc_macro6bridge6clientINtBa_6ClientNtBe_11TokenStreamB15_E7expand1NvCsljl79DWYEYJ_14metrics_macros15increment_gaugeE00B1C_, symObjAddr: 0x4740, symBinAddr: 0x5390, symSize: 0x30 }
  - { offset: 0x451F, size: 0x8, addend: 0x0, symName: __RNCNCINvMs7_NtNtCs9i5KxIbZ5ph_10proc_macro6bridge6clientINtBa_6ClientNtBe_11TokenStreamB15_E7expand1NvCsljl79DWYEYJ_14metrics_macros16absolute_counterE00B1C_, symObjAddr: 0x4770, symBinAddr: 0x53C0, symSize: 0x30 }
  - { offset: 0x4567, size: 0x8, addend: 0x0, symName: __RNCNCINvMs7_NtNtCs9i5KxIbZ5ph_10proc_macro6bridge6clientINtBa_6ClientNtBe_11TokenStreamB15_E7expand1NvCsljl79DWYEYJ_14metrics_macros16describe_counterE00B1C_, symObjAddr: 0x47A0, symBinAddr: 0x53F0, symSize: 0x30 }
  - { offset: 0x45AF, size: 0x8, addend: 0x0, symName: __RNCNCINvMs7_NtNtCs9i5KxIbZ5ph_10proc_macro6bridge6clientINtBa_6ClientNtBe_11TokenStreamB15_E7expand1NvCsljl79DWYEYJ_14metrics_macros16register_counterE00B1C_, symObjAddr: 0x47D0, symBinAddr: 0x5420, symSize: 0x30 }
  - { offset: 0x45F7, size: 0x8, addend: 0x0, symName: __RNCNCINvMs7_NtNtCs9i5KxIbZ5ph_10proc_macro6bridge6clientINtBa_6ClientNtBe_11TokenStreamB15_E7expand1NvCsljl79DWYEYJ_14metrics_macros17increment_counterE00B1C_, symObjAddr: 0x4800, symBinAddr: 0x5450, symSize: 0x30 }
  - { offset: 0x463F, size: 0x8, addend: 0x0, symName: __RNCNCINvMs7_NtNtCs9i5KxIbZ5ph_10proc_macro6bridge6clientINtBa_6ClientNtBe_11TokenStreamB15_E7expand1NvCsljl79DWYEYJ_14metrics_macros18describe_histogramE00B1C_, symObjAddr: 0x4830, symBinAddr: 0x5480, symSize: 0x30 }
  - { offset: 0x4687, size: 0x8, addend: 0x0, symName: __RNCNCINvMs7_NtNtCs9i5KxIbZ5ph_10proc_macro6bridge6clientINtBa_6ClientNtBe_11TokenStreamB15_E7expand1NvCsljl79DWYEYJ_14metrics_macros18register_histogramE00B1C_, symObjAddr: 0x4860, symBinAddr: 0x54B0, symSize: 0x30 }
  - { offset: 0x46CF, size: 0x8, addend: 0x0, symName: __RNCNCINvMs7_NtNtCs9i5KxIbZ5ph_10proc_macro6bridge6clientINtBa_6ClientNtBe_11TokenStreamB15_E7expand1NvCsljl79DWYEYJ_14metrics_macros5gaugeE00B1C_, symObjAddr: 0x4890, symBinAddr: 0x54E0, symSize: 0x30 }
  - { offset: 0x4717, size: 0x8, addend: 0x0, symName: __RNCNCINvMs7_NtNtCs9i5KxIbZ5ph_10proc_macro6bridge6clientINtBa_6ClientNtBe_11TokenStreamB15_E7expand1NvCsljl79DWYEYJ_14metrics_macros7counterE00B1C_, symObjAddr: 0x48C0, symBinAddr: 0x5510, symSize: 0x30 }
  - { offset: 0x475F, size: 0x8, addend: 0x0, symName: __RNCNCINvMs7_NtNtCs9i5KxIbZ5ph_10proc_macro6bridge6clientINtBa_6ClientNtBe_11TokenStreamB15_E7expand1NvCsljl79DWYEYJ_14metrics_macros9histogramE00B1C_, symObjAddr: 0x48F0, symBinAddr: 0x5540, symSize: 0x30 }
  - { offset: 0x47A8, size: 0x8, addend: 0x0, symName: __RNCINvMs7_NtNtCs9i5KxIbZ5ph_10proc_macro6bridge6clientINtB8_6ClientNtBc_11TokenStreamB13_E7expand1NvCsljl79DWYEYJ_14metrics_macros14describe_gaugeE0B1A_, symObjAddr: 0x1B6C, symBinAddr: 0x27BC, symSize: 0x30 }
  - { offset: 0x47F1, size: 0x8, addend: 0x0, symName: __RNCINvMs7_NtNtCs9i5KxIbZ5ph_10proc_macro6bridge6clientINtB8_6ClientNtBc_11TokenStreamB13_E7expand1NvCsljl79DWYEYJ_14metrics_macros14register_gaugeE0B1A_, symObjAddr: 0x1B9C, symBinAddr: 0x27EC, symSize: 0x30 }
  - { offset: 0x483A, size: 0x8, addend: 0x0, symName: __RNCINvMs7_NtNtCs9i5KxIbZ5ph_10proc_macro6bridge6clientINtB8_6ClientNtBc_11TokenStreamB13_E7expand1NvCsljl79DWYEYJ_14metrics_macros15decrement_gaugeE0B1A_, symObjAddr: 0x1BCC, symBinAddr: 0x281C, symSize: 0x30 }
  - { offset: 0x4883, size: 0x8, addend: 0x0, symName: __RNCINvMs7_NtNtCs9i5KxIbZ5ph_10proc_macro6bridge6clientINtB8_6ClientNtBc_11TokenStreamB13_E7expand1NvCsljl79DWYEYJ_14metrics_macros15increment_gaugeE0B1A_, symObjAddr: 0x1BFC, symBinAddr: 0x284C, symSize: 0x30 }
  - { offset: 0x48CC, size: 0x8, addend: 0x0, symName: __RNCINvMs7_NtNtCs9i5KxIbZ5ph_10proc_macro6bridge6clientINtB8_6ClientNtBc_11TokenStreamB13_E7expand1NvCsljl79DWYEYJ_14metrics_macros16absolute_counterE0B1A_, symObjAddr: 0x1C2C, symBinAddr: 0x287C, symSize: 0x30 }
  - { offset: 0x4915, size: 0x8, addend: 0x0, symName: __RNCINvMs7_NtNtCs9i5KxIbZ5ph_10proc_macro6bridge6clientINtB8_6ClientNtBc_11TokenStreamB13_E7expand1NvCsljl79DWYEYJ_14metrics_macros16describe_counterE0B1A_, symObjAddr: 0x1C5C, symBinAddr: 0x28AC, symSize: 0x30 }
  - { offset: 0x495E, size: 0x8, addend: 0x0, symName: __RNCINvMs7_NtNtCs9i5KxIbZ5ph_10proc_macro6bridge6clientINtB8_6ClientNtBc_11TokenStreamB13_E7expand1NvCsljl79DWYEYJ_14metrics_macros16register_counterE0B1A_, symObjAddr: 0x1C8C, symBinAddr: 0x28DC, symSize: 0x30 }
  - { offset: 0x49A7, size: 0x8, addend: 0x0, symName: __RNCINvMs7_NtNtCs9i5KxIbZ5ph_10proc_macro6bridge6clientINtB8_6ClientNtBc_11TokenStreamB13_E7expand1NvCsljl79DWYEYJ_14metrics_macros17increment_counterE0B1A_, symObjAddr: 0x1CBC, symBinAddr: 0x290C, symSize: 0x30 }
  - { offset: 0x49F0, size: 0x8, addend: 0x0, symName: __RNCINvMs7_NtNtCs9i5KxIbZ5ph_10proc_macro6bridge6clientINtB8_6ClientNtBc_11TokenStreamB13_E7expand1NvCsljl79DWYEYJ_14metrics_macros18describe_histogramE0B1A_, symObjAddr: 0x1CEC, symBinAddr: 0x293C, symSize: 0x30 }
  - { offset: 0x4A39, size: 0x8, addend: 0x0, symName: __RNCINvMs7_NtNtCs9i5KxIbZ5ph_10proc_macro6bridge6clientINtB8_6ClientNtBc_11TokenStreamB13_E7expand1NvCsljl79DWYEYJ_14metrics_macros18register_histogramE0B1A_, symObjAddr: 0x1D1C, symBinAddr: 0x296C, symSize: 0x30 }
  - { offset: 0x4A82, size: 0x8, addend: 0x0, symName: __RNCINvMs7_NtNtCs9i5KxIbZ5ph_10proc_macro6bridge6clientINtB8_6ClientNtBc_11TokenStreamB13_E7expand1NvCsljl79DWYEYJ_14metrics_macros5gaugeE0B1A_, symObjAddr: 0x1D4C, symBinAddr: 0x299C, symSize: 0x30 }
  - { offset: 0x4ACB, size: 0x8, addend: 0x0, symName: __RNCINvMs7_NtNtCs9i5KxIbZ5ph_10proc_macro6bridge6clientINtB8_6ClientNtBc_11TokenStreamB13_E7expand1NvCsljl79DWYEYJ_14metrics_macros7counterE0B1A_, symObjAddr: 0x1D7C, symBinAddr: 0x29CC, symSize: 0x30 }
  - { offset: 0x4B14, size: 0x8, addend: 0x0, symName: __RNCINvMs7_NtNtCs9i5KxIbZ5ph_10proc_macro6bridge6clientINtB8_6ClientNtBc_11TokenStreamB13_E7expand1NvCsljl79DWYEYJ_14metrics_macros9histogramE0B1A_, symObjAddr: 0x1DAC, symBinAddr: 0x29FC, symSize: 0x30 }
  - { offset: 0x4B80, size: 0x8, addend: 0x0, symName: __RINvNtNtCs9i5KxIbZ5ph_10proc_macro6bridge6client10run_clientNtB2_11TokenStreamINtNtCsfvfooZQ3Axs_4core6option6OptionBW_ENCNCINvMs7_B2_INtB2_6ClientNtB6_11TokenStreamB2l_E7expand1NvCsljl79DWYEYJ_14metrics_macros14describe_gaugeE00EB2S_, symObjAddr: 0x0, symBinAddr: 0xC50, symSize: 0x21C }
  - { offset: 0x4D40, size: 0x8, addend: 0x0, symName: __RINvNtNtCs9i5KxIbZ5ph_10proc_macro6bridge6client10run_clientNtB2_11TokenStreamINtNtCsfvfooZQ3Axs_4core6option6OptionBW_ENCNCINvMs7_B2_INtB2_6ClientNtB6_11TokenStreamB2l_E7expand1NvCsljl79DWYEYJ_14metrics_macros14register_gaugeE00EB2S_, symObjAddr: 0x21C, symBinAddr: 0xE6C, symSize: 0x21C }
  - { offset: 0x4F00, size: 0x8, addend: 0x0, symName: __RINvNtNtCs9i5KxIbZ5ph_10proc_macro6bridge6client10run_clientNtB2_11TokenStreamINtNtCsfvfooZQ3Axs_4core6option6OptionBW_ENCNCINvMs7_B2_INtB2_6ClientNtB6_11TokenStreamB2l_E7expand1NvCsljl79DWYEYJ_14metrics_macros15decrement_gaugeE00EB2S_, symObjAddr: 0x438, symBinAddr: 0x1088, symSize: 0x21C }
  - { offset: 0x50C0, size: 0x8, addend: 0x0, symName: __RINvNtNtCs9i5KxIbZ5ph_10proc_macro6bridge6client10run_clientNtB2_11TokenStreamINtNtCsfvfooZQ3Axs_4core6option6OptionBW_ENCNCINvMs7_B2_INtB2_6ClientNtB6_11TokenStreamB2l_E7expand1NvCsljl79DWYEYJ_14metrics_macros15increment_gaugeE00EB2S_, symObjAddr: 0x654, symBinAddr: 0x12A4, symSize: 0x21C }
  - { offset: 0x5280, size: 0x8, addend: 0x0, symName: __RINvNtNtCs9i5KxIbZ5ph_10proc_macro6bridge6client10run_clientNtB2_11TokenStreamINtNtCsfvfooZQ3Axs_4core6option6OptionBW_ENCNCINvMs7_B2_INtB2_6ClientNtB6_11TokenStreamB2l_E7expand1NvCsljl79DWYEYJ_14metrics_macros16absolute_counterE00EB2S_, symObjAddr: 0x870, symBinAddr: 0x14C0, symSize: 0x21C }
  - { offset: 0x5440, size: 0x8, addend: 0x0, symName: __RINvNtNtCs9i5KxIbZ5ph_10proc_macro6bridge6client10run_clientNtB2_11TokenStreamINtNtCsfvfooZQ3Axs_4core6option6OptionBW_ENCNCINvMs7_B2_INtB2_6ClientNtB6_11TokenStreamB2l_E7expand1NvCsljl79DWYEYJ_14metrics_macros16describe_counterE00EB2S_, symObjAddr: 0xA8C, symBinAddr: 0x16DC, symSize: 0x21C }
  - { offset: 0x5600, size: 0x8, addend: 0x0, symName: __RINvNtNtCs9i5KxIbZ5ph_10proc_macro6bridge6client10run_clientNtB2_11TokenStreamINtNtCsfvfooZQ3Axs_4core6option6OptionBW_ENCNCINvMs7_B2_INtB2_6ClientNtB6_11TokenStreamB2l_E7expand1NvCsljl79DWYEYJ_14metrics_macros16register_counterE00EB2S_, symObjAddr: 0xCA8, symBinAddr: 0x18F8, symSize: 0x21C }
  - { offset: 0x57C0, size: 0x8, addend: 0x0, symName: __RINvNtNtCs9i5KxIbZ5ph_10proc_macro6bridge6client10run_clientNtB2_11TokenStreamINtNtCsfvfooZQ3Axs_4core6option6OptionBW_ENCNCINvMs7_B2_INtB2_6ClientNtB6_11TokenStreamB2l_E7expand1NvCsljl79DWYEYJ_14metrics_macros17increment_counterE00EB2S_, symObjAddr: 0xEC4, symBinAddr: 0x1B14, symSize: 0x21C }
  - { offset: 0x5980, size: 0x8, addend: 0x0, symName: __RINvNtNtCs9i5KxIbZ5ph_10proc_macro6bridge6client10run_clientNtB2_11TokenStreamINtNtCsfvfooZQ3Axs_4core6option6OptionBW_ENCNCINvMs7_B2_INtB2_6ClientNtB6_11TokenStreamB2l_E7expand1NvCsljl79DWYEYJ_14metrics_macros18describe_histogramE00EB2S_, symObjAddr: 0x10E0, symBinAddr: 0x1D30, symSize: 0x21C }
  - { offset: 0x5B40, size: 0x8, addend: 0x0, symName: __RINvNtNtCs9i5KxIbZ5ph_10proc_macro6bridge6client10run_clientNtB2_11TokenStreamINtNtCsfvfooZQ3Axs_4core6option6OptionBW_ENCNCINvMs7_B2_INtB2_6ClientNtB6_11TokenStreamB2l_E7expand1NvCsljl79DWYEYJ_14metrics_macros18register_histogramE00EB2S_, symObjAddr: 0x12FC, symBinAddr: 0x1F4C, symSize: 0x21C }
  - { offset: 0x5D00, size: 0x8, addend: 0x0, symName: __RINvNtNtCs9i5KxIbZ5ph_10proc_macro6bridge6client10run_clientNtB2_11TokenStreamINtNtCsfvfooZQ3Axs_4core6option6OptionBW_ENCNCINvMs7_B2_INtB2_6ClientNtB6_11TokenStreamB2l_E7expand1NvCsljl79DWYEYJ_14metrics_macros5gaugeE00EB2S_, symObjAddr: 0x1518, symBinAddr: 0x2168, symSize: 0x21C }
  - { offset: 0x5EC0, size: 0x8, addend: 0x0, symName: __RINvNtNtCs9i5KxIbZ5ph_10proc_macro6bridge6client10run_clientNtB2_11TokenStreamINtNtCsfvfooZQ3Axs_4core6option6OptionBW_ENCNCINvMs7_B2_INtB2_6ClientNtB6_11TokenStreamB2l_E7expand1NvCsljl79DWYEYJ_14metrics_macros7counterE00EB2S_, symObjAddr: 0x1734, symBinAddr: 0x2384, symSize: 0x21C }
  - { offset: 0x6080, size: 0x8, addend: 0x0, symName: __RINvNtNtCs9i5KxIbZ5ph_10proc_macro6bridge6client10run_clientNtB2_11TokenStreamINtNtCsfvfooZQ3Axs_4core6option6OptionBW_ENCNCINvMs7_B2_INtB2_6ClientNtB6_11TokenStreamB2l_E7expand1NvCsljl79DWYEYJ_14metrics_macros9histogramE00EB2S_, symObjAddr: 0x1950, symBinAddr: 0x25A0, symSize: 0x21C }
  - { offset: 0x6293, size: 0x8, addend: 0x0, symName: __RNvXsg_NtNtCs9i5KxIbZ5ph_10proc_macro6bridge6clientNtB5_11TokenStreamINtNtB7_3rpc6EncodeuE6encodeCsljl79DWYEYJ_14metrics_macros, symObjAddr: 0x4B28, symBinAddr: 0x5778, symSize: 0x50 }
  - { offset: 0x63A4, size: 0x8, addend: 0x0, symName: __RNvXsj_NtNtCs9i5KxIbZ5ph_10proc_macro6bridge6clientNtB5_11TokenStreamINtNtB7_3rpc9DecodeMutuE6decodeCsljl79DWYEYJ_14metrics_macros, symObjAddr: 0x4B78, symBinAddr: 0x57C8, symSize: 0x2C }
  - { offset: 0x63ED, size: 0x8, addend: 0x0, symName: __RNvXsq_NtNtCs9i5KxIbZ5ph_10proc_macro6bridge6clientNtB5_4SpanINtNtB7_3rpc9DecodeMutuE6decodeCsljl79DWYEYJ_14metrics_macros, symObjAddr: 0x4BA4, symBinAddr: 0x57F4, symSize: 0x2C }
  - { offset: 0x8606, size: 0x8, addend: 0x0, symName: __RINvCs6IAuOt8vWmF_3syn5parseNtCsljl79DWYEYJ_14metrics_macros11DescriptionEBs_, symObjAddr: 0x0, symBinAddr: 0x5874, symSize: 0x30 }
  - { offset: 0x8699, size: 0x8, addend: 0x0, symName: __RINvNtNtNtCs9i5KxIbZ5ph_10proc_macro6bridge6client5state3setINtNtCsfvfooZQ3Axs_4core6option6OptionNtB4_11TokenStreamENCNCINvB4_10run_clientB1y_BW_NCNCINvMs7_B4_INtB4_6ClientNtB8_11TokenStreamB2L_E7expand1NvCsljl79DWYEYJ_14metrics_macros14describe_gaugeE00E00EB3i_, symObjAddr: 0x22FC, symBinAddr: 0x7B28, symSize: 0xE8 }
  - { offset: 0x876E, size: 0x8, addend: 0x0, symName: __RINvNtNtNtCs9i5KxIbZ5ph_10proc_macro6bridge6client5state3setINtNtCsfvfooZQ3Axs_4core6option6OptionNtB4_11TokenStreamENCNCINvB4_10run_clientB1y_BW_NCNCINvMs7_B4_INtB4_6ClientNtB8_11TokenStreamB2L_E7expand1NvCsljl79DWYEYJ_14metrics_macros14register_gaugeE00E00EB3i_, symObjAddr: 0x23E4, symBinAddr: 0x7C10, symSize: 0xE8 }
  - { offset: 0x8843, size: 0x8, addend: 0x0, symName: __RINvNtNtNtCs9i5KxIbZ5ph_10proc_macro6bridge6client5state3setINtNtCsfvfooZQ3Axs_4core6option6OptionNtB4_11TokenStreamENCNCINvB4_10run_clientB1y_BW_NCNCINvMs7_B4_INtB4_6ClientNtB8_11TokenStreamB2L_E7expand1NvCsljl79DWYEYJ_14metrics_macros15decrement_gaugeE00E00EB3i_, symObjAddr: 0x24CC, symBinAddr: 0x7CF8, symSize: 0xE8 }
  - { offset: 0x8918, size: 0x8, addend: 0x0, symName: __RINvNtNtNtCs9i5KxIbZ5ph_10proc_macro6bridge6client5state3setINtNtCsfvfooZQ3Axs_4core6option6OptionNtB4_11TokenStreamENCNCINvB4_10run_clientB1y_BW_NCNCINvMs7_B4_INtB4_6ClientNtB8_11TokenStreamB2L_E7expand1NvCsljl79DWYEYJ_14metrics_macros15increment_gaugeE00E00EB3i_, symObjAddr: 0x25B4, symBinAddr: 0x7DE0, symSize: 0xE8 }
  - { offset: 0x89ED, size: 0x8, addend: 0x0, symName: __RINvNtNtNtCs9i5KxIbZ5ph_10proc_macro6bridge6client5state3setINtNtCsfvfooZQ3Axs_4core6option6OptionNtB4_11TokenStreamENCNCINvB4_10run_clientB1y_BW_NCNCINvMs7_B4_INtB4_6ClientNtB8_11TokenStreamB2L_E7expand1NvCsljl79DWYEYJ_14metrics_macros16absolute_counterE00E00EB3i_, symObjAddr: 0x269C, symBinAddr: 0x7EC8, symSize: 0xE8 }
  - { offset: 0x8AC2, size: 0x8, addend: 0x0, symName: __RINvNtNtNtCs9i5KxIbZ5ph_10proc_macro6bridge6client5state3setINtNtCsfvfooZQ3Axs_4core6option6OptionNtB4_11TokenStreamENCNCINvB4_10run_clientB1y_BW_NCNCINvMs7_B4_INtB4_6ClientNtB8_11TokenStreamB2L_E7expand1NvCsljl79DWYEYJ_14metrics_macros16describe_counterE00E00EB3i_, symObjAddr: 0x2784, symBinAddr: 0x7FB0, symSize: 0xE8 }
  - { offset: 0x8B97, size: 0x8, addend: 0x0, symName: __RINvNtNtNtCs9i5KxIbZ5ph_10proc_macro6bridge6client5state3setINtNtCsfvfooZQ3Axs_4core6option6OptionNtB4_11TokenStreamENCNCINvB4_10run_clientB1y_BW_NCNCINvMs7_B4_INtB4_6ClientNtB8_11TokenStreamB2L_E7expand1NvCsljl79DWYEYJ_14metrics_macros16register_counterE00E00EB3i_, symObjAddr: 0x286C, symBinAddr: 0x8098, symSize: 0xE8 }
  - { offset: 0x8C6C, size: 0x8, addend: 0x0, symName: __RINvNtNtNtCs9i5KxIbZ5ph_10proc_macro6bridge6client5state3setINtNtCsfvfooZQ3Axs_4core6option6OptionNtB4_11TokenStreamENCNCINvB4_10run_clientB1y_BW_NCNCINvMs7_B4_INtB4_6ClientNtB8_11TokenStreamB2L_E7expand1NvCsljl79DWYEYJ_14metrics_macros17increment_counterE00E00EB3i_, symObjAddr: 0x2954, symBinAddr: 0x8180, symSize: 0xE8 }
  - { offset: 0x8D41, size: 0x8, addend: 0x0, symName: __RINvNtNtNtCs9i5KxIbZ5ph_10proc_macro6bridge6client5state3setINtNtCsfvfooZQ3Axs_4core6option6OptionNtB4_11TokenStreamENCNCINvB4_10run_clientB1y_BW_NCNCINvMs7_B4_INtB4_6ClientNtB8_11TokenStreamB2L_E7expand1NvCsljl79DWYEYJ_14metrics_macros18describe_histogramE00E00EB3i_, symObjAddr: 0x2A3C, symBinAddr: 0x8268, symSize: 0xE8 }
  - { offset: 0x8E16, size: 0x8, addend: 0x0, symName: __RINvNtNtNtCs9i5KxIbZ5ph_10proc_macro6bridge6client5state3setINtNtCsfvfooZQ3Axs_4core6option6OptionNtB4_11TokenStreamENCNCINvB4_10run_clientB1y_BW_NCNCINvMs7_B4_INtB4_6ClientNtB8_11TokenStreamB2L_E7expand1NvCsljl79DWYEYJ_14metrics_macros18register_histogramE00E00EB3i_, symObjAddr: 0x2B24, symBinAddr: 0x8350, symSize: 0xE8 }
  - { offset: 0x8EEB, size: 0x8, addend: 0x0, symName: __RINvNtNtNtCs9i5KxIbZ5ph_10proc_macro6bridge6client5state3setINtNtCsfvfooZQ3Axs_4core6option6OptionNtB4_11TokenStreamENCNCINvB4_10run_clientB1y_BW_NCNCINvMs7_B4_INtB4_6ClientNtB8_11TokenStreamB2L_E7expand1NvCsljl79DWYEYJ_14metrics_macros5gaugeE00E00EB3i_, symObjAddr: 0x2C0C, symBinAddr: 0x8438, symSize: 0xE8 }
  - { offset: 0x8FC0, size: 0x8, addend: 0x0, symName: __RINvNtNtNtCs9i5KxIbZ5ph_10proc_macro6bridge6client5state3setINtNtCsfvfooZQ3Axs_4core6option6OptionNtB4_11TokenStreamENCNCINvB4_10run_clientB1y_BW_NCNCINvMs7_B4_INtB4_6ClientNtB8_11TokenStreamB2L_E7expand1NvCsljl79DWYEYJ_14metrics_macros7counterE00E00EB3i_, symObjAddr: 0x2CF4, symBinAddr: 0x8520, symSize: 0xE8 }
  - { offset: 0x9095, size: 0x8, addend: 0x0, symName: __RINvNtNtNtCs9i5KxIbZ5ph_10proc_macro6bridge6client5state3setINtNtCsfvfooZQ3Axs_4core6option6OptionNtB4_11TokenStreamENCNCINvB4_10run_clientB1y_BW_NCNCINvMs7_B4_INtB4_6ClientNtB8_11TokenStreamB2L_E7expand1NvCsljl79DWYEYJ_14metrics_macros9histogramE00E00EB3i_, symObjAddr: 0x2DDC, symBinAddr: 0x8608, symSize: 0xE8 }
  - { offset: 0x9174, size: 0x8, addend: 0x0, symName: __RNCNkNvNtNtNtCs9i5KxIbZ5ph_10proc_macro6bridge6client5state12BRIDGE_STATE0s_0Csljl79DWYEYJ_14metrics_macros, symObjAddr: 0x3CD8, symBinAddr: 0x9504, symSize: 0x34 }
  - { offset: 0x98FB, size: 0x8, addend: 0x0, symName: __RINvNvNtNtCs9i5KxIbZ5ph_10proc_macro6bridge14selfless_reify31reify_to_extern_c_fn_hrt_bridge7wrapperNtNtB6_6buffer6BufferNCINvMs7_NtB6_6clientINtB24_6ClientNtB8_11TokenStreamB2u_E7expand1NvCsljl79DWYEYJ_14metrics_macros14describe_gaugeE0EB31_, symObjAddr: 0x30F4, symBinAddr: 0x8920, symSize: 0x5C }
  - { offset: 0x9957, size: 0x8, addend: 0x0, symName: __RINvNvNtNtCs9i5KxIbZ5ph_10proc_macro6bridge14selfless_reify31reify_to_extern_c_fn_hrt_bridge7wrapperNtNtB6_6buffer6BufferNCINvMs7_NtB6_6clientINtB24_6ClientNtB8_11TokenStreamB2u_E7expand1NvCsljl79DWYEYJ_14metrics_macros14register_gaugeE0EB31_, symObjAddr: 0x3150, symBinAddr: 0x897C, symSize: 0x5C }
  - { offset: 0x99B3, size: 0x8, addend: 0x0, symName: __RINvNvNtNtCs9i5KxIbZ5ph_10proc_macro6bridge14selfless_reify31reify_to_extern_c_fn_hrt_bridge7wrapperNtNtB6_6buffer6BufferNCINvMs7_NtB6_6clientINtB24_6ClientNtB8_11TokenStreamB2u_E7expand1NvCsljl79DWYEYJ_14metrics_macros15decrement_gaugeE0EB31_, symObjAddr: 0x31AC, symBinAddr: 0x89D8, symSize: 0x5C }
  - { offset: 0x9A0F, size: 0x8, addend: 0x0, symName: __RINvNvNtNtCs9i5KxIbZ5ph_10proc_macro6bridge14selfless_reify31reify_to_extern_c_fn_hrt_bridge7wrapperNtNtB6_6buffer6BufferNCINvMs7_NtB6_6clientINtB24_6ClientNtB8_11TokenStreamB2u_E7expand1NvCsljl79DWYEYJ_14metrics_macros15increment_gaugeE0EB31_, symObjAddr: 0x3208, symBinAddr: 0x8A34, symSize: 0x5C }
  - { offset: 0x9A6B, size: 0x8, addend: 0x0, symName: __RINvNvNtNtCs9i5KxIbZ5ph_10proc_macro6bridge14selfless_reify31reify_to_extern_c_fn_hrt_bridge7wrapperNtNtB6_6buffer6BufferNCINvMs7_NtB6_6clientINtB24_6ClientNtB8_11TokenStreamB2u_E7expand1NvCsljl79DWYEYJ_14metrics_macros16absolute_counterE0EB31_, symObjAddr: 0x3264, symBinAddr: 0x8A90, symSize: 0x5C }
  - { offset: 0x9AC7, size: 0x8, addend: 0x0, symName: __RINvNvNtNtCs9i5KxIbZ5ph_10proc_macro6bridge14selfless_reify31reify_to_extern_c_fn_hrt_bridge7wrapperNtNtB6_6buffer6BufferNCINvMs7_NtB6_6clientINtB24_6ClientNtB8_11TokenStreamB2u_E7expand1NvCsljl79DWYEYJ_14metrics_macros16describe_counterE0EB31_, symObjAddr: 0x32C0, symBinAddr: 0x8AEC, symSize: 0x5C }
  - { offset: 0x9B23, size: 0x8, addend: 0x0, symName: __RINvNvNtNtCs9i5KxIbZ5ph_10proc_macro6bridge14selfless_reify31reify_to_extern_c_fn_hrt_bridge7wrapperNtNtB6_6buffer6BufferNCINvMs7_NtB6_6clientINtB24_6ClientNtB8_11TokenStreamB2u_E7expand1NvCsljl79DWYEYJ_14metrics_macros16register_counterE0EB31_, symObjAddr: 0x331C, symBinAddr: 0x8B48, symSize: 0x5C }
  - { offset: 0x9B7F, size: 0x8, addend: 0x0, symName: __RINvNvNtNtCs9i5KxIbZ5ph_10proc_macro6bridge14selfless_reify31reify_to_extern_c_fn_hrt_bridge7wrapperNtNtB6_6buffer6BufferNCINvMs7_NtB6_6clientINtB24_6ClientNtB8_11TokenStreamB2u_E7expand1NvCsljl79DWYEYJ_14metrics_macros17increment_counterE0EB31_, symObjAddr: 0x3378, symBinAddr: 0x8BA4, symSize: 0x5C }
  - { offset: 0x9BDB, size: 0x8, addend: 0x0, symName: __RINvNvNtNtCs9i5KxIbZ5ph_10proc_macro6bridge14selfless_reify31reify_to_extern_c_fn_hrt_bridge7wrapperNtNtB6_6buffer6BufferNCINvMs7_NtB6_6clientINtB24_6ClientNtB8_11TokenStreamB2u_E7expand1NvCsljl79DWYEYJ_14metrics_macros18describe_histogramE0EB31_, symObjAddr: 0x33D4, symBinAddr: 0x8C00, symSize: 0x5C }
  - { offset: 0x9C37, size: 0x8, addend: 0x0, symName: __RINvNvNtNtCs9i5KxIbZ5ph_10proc_macro6bridge14selfless_reify31reify_to_extern_c_fn_hrt_bridge7wrapperNtNtB6_6buffer6BufferNCINvMs7_NtB6_6clientINtB24_6ClientNtB8_11TokenStreamB2u_E7expand1NvCsljl79DWYEYJ_14metrics_macros18register_histogramE0EB31_, symObjAddr: 0x3430, symBinAddr: 0x8C5C, symSize: 0x5C }
  - { offset: 0x9C93, size: 0x8, addend: 0x0, symName: __RINvNvNtNtCs9i5KxIbZ5ph_10proc_macro6bridge14selfless_reify31reify_to_extern_c_fn_hrt_bridge7wrapperNtNtB6_6buffer6BufferNCINvMs7_NtB6_6clientINtB24_6ClientNtB8_11TokenStreamB2u_E7expand1NvCsljl79DWYEYJ_14metrics_macros5gaugeE0EB31_, symObjAddr: 0x348C, symBinAddr: 0x8CB8, symSize: 0x5C }
  - { offset: 0x9CEF, size: 0x8, addend: 0x0, symName: __RINvNvNtNtCs9i5KxIbZ5ph_10proc_macro6bridge14selfless_reify31reify_to_extern_c_fn_hrt_bridge7wrapperNtNtB6_6buffer6BufferNCINvMs7_NtB6_6clientINtB24_6ClientNtB8_11TokenStreamB2u_E7expand1NvCsljl79DWYEYJ_14metrics_macros7counterE0EB31_, symObjAddr: 0x34E8, symBinAddr: 0x8D14, symSize: 0x5C }
  - { offset: 0x9D4B, size: 0x8, addend: 0x0, symName: __RINvNvNtNtCs9i5KxIbZ5ph_10proc_macro6bridge14selfless_reify31reify_to_extern_c_fn_hrt_bridge7wrapperNtNtB6_6buffer6BufferNCINvMs7_NtB6_6clientINtB24_6ClientNtB8_11TokenStreamB2u_E7expand1NvCsljl79DWYEYJ_14metrics_macros9histogramE0EB31_, symObjAddr: 0x3544, symBinAddr: 0x8D70, symSize: 0x5C }
  - { offset: 0xA032, size: 0x8, addend: 0x0, symName: __RNvXs7_NtNtCs9i5KxIbZ5ph_10proc_macro6bridge3rpcINtNtNtCsfvfooZQ3Axs_4core3num7nonzero7NonZeromEINtB5_9DecodeMutuE6decodeCsljl79DWYEYJ_14metrics_macros, symObjAddr: 0x4D38, symBinAddr: 0xA564, symSize: 0x5C }
  - { offset: 0xA195, size: 0x8, addend: 0x0, symName: __RNvXsR_NtCs9i5KxIbZ5ph_10proc_macro6bridgeINtNtCsfvfooZQ3Axs_4core6option6OptionNtNtB5_6client11TokenStreamEINtNtB5_3rpc6EncodeuE6encodeCsljl79DWYEYJ_14metrics_macros, symObjAddr: 0x4D94, symBinAddr: 0xA5C0, symSize: 0xCC }
  - { offset: 0xA23B, size: 0x8, addend: 0x0, symName: __RNvXsR_NtCs9i5KxIbZ5ph_10proc_macro6bridgeINtNtCsfvfooZQ3Axs_4core6option6OptionReEINtNtB5_3rpc6EncodeuE6encodeCsljl79DWYEYJ_14metrics_macros, symObjAddr: 0x4E60, symBinAddr: 0xA68C, symSize: 0xD8 }
  - { offset: 0xBB91, size: 0x8, addend: 0x0, symName: __RINvNtCsfvfooZQ3Axs_4core3ptr13drop_in_placeINtNtB4_4cell10UnsafeCellNtNtNtCs9i5KxIbZ5ph_10proc_macro6bridge6client6BridgeEECsljl79DWYEYJ_14metrics_macros, symObjAddr: 0x16F4, symBinAddr: 0x6F20, symSize: 0x24 }
  - { offset: 0xBBC0, size: 0x8, addend: 0x0, symName: __RINvNtCsfvfooZQ3Axs_4core3ptr13drop_in_placeINtNtB4_4cell7RefCellNtNtNtCs9i5KxIbZ5ph_10proc_macro6bridge6client6BridgeEECsljl79DWYEYJ_14metrics_macros, symObjAddr: 0x1718, symBinAddr: 0x6F44, symSize: 0x24 }
  - { offset: 0xBBEF, size: 0x8, addend: 0x0, symName: __RINvNtCsfvfooZQ3Axs_4core3ptr13drop_in_placeINtNtB4_6option6OptionNtCsljl79DWYEYJ_14metrics_macros6LabelsEEB14_, symObjAddr: 0x173C, symBinAddr: 0x6F68, symSize: 0x44 }
  - { offset: 0xBC1E, size: 0x8, addend: 0x0, symName: __RINvNtCsfvfooZQ3Axs_4core3ptr13drop_in_placeINtNtB4_6result6ResultINtNtB4_6option6OptionNtNtCs6IAuOt8vWmF_3syn4expr4ExprENtNtB1s_5error5ErrorEECsljl79DWYEYJ_14metrics_macros, symObjAddr: 0x1780, symBinAddr: 0x6FAC, symSize: 0x58 }
  - { offset: 0xBC4D, size: 0x8, addend: 0x0, symName: __RINvNtCsfvfooZQ3Axs_4core3ptr13drop_in_placeINtNtB4_6result6ResultNtNtCs6IAuOt8vWmF_3syn4expr4ExprNtNtB16_5error5ErrorEECsljl79DWYEYJ_14metrics_macros, symObjAddr: 0x17D8, symBinAddr: 0x7004, symSize: 0x58 }
  - { offset: 0xBC7C, size: 0x8, addend: 0x0, symName: __RINvNtCsfvfooZQ3Axs_4core3ptr13drop_in_placeINtNtCs2cqEZUIJimJ_5quote9___private9RepInterpNtCs3cP53eQoTwO_11proc_macro211TokenStreamEECsljl79DWYEYJ_14metrics_macros, symObjAddr: 0x1830, symBinAddr: 0x705C, symSize: 0x24 }
  - { offset: 0xBCAB, size: 0x8, addend: 0x0, symName: __RINvNtCsfvfooZQ3Axs_4core3ptr13drop_in_placeINtNtCse1nGBsou5OW_5alloc3vec3VecNtCs3cP53eQoTwO_11proc_macro211TokenStreamEECsljl79DWYEYJ_14metrics_macros, symObjAddr: 0x1854, symBinAddr: 0x7080, symSize: 0x5C }
  - { offset: 0xBCDA, size: 0x8, addend: 0x0, symName: __RINvNtCsfvfooZQ3Axs_4core3ptr13drop_in_placeINtNtCse1nGBsou5OW_5alloc3vec3VecNtNtBL_6string6StringEECsljl79DWYEYJ_14metrics_macros, symObjAddr: 0x18B0, symBinAddr: 0x70DC, symSize: 0x5C }
  - { offset: 0xBD09, size: 0x8, addend: 0x0, symName: __RINvNtCsfvfooZQ3Axs_4core3ptr13drop_in_placeINtNtCse1nGBsou5OW_5alloc3vec3VecTNtNtCs6IAuOt8vWmF_3syn4expr4ExprB1e_EEECsljl79DWYEYJ_14metrics_macros, symObjAddr: 0x190C, symBinAddr: 0x7138, symSize: 0x5C }
  - { offset: 0xBD38, size: 0x8, addend: 0x0, symName: __RINvNtCsfvfooZQ3Axs_4core3ptr13drop_in_placeINtNtCse1nGBsou5OW_5alloc5boxed3BoxDNtNtB4_5error5ErrorNtNtB4_6marker4SendNtB1B_4SyncEL_EECsljl79DWYEYJ_14metrics_macros, symObjAddr: 0x1968, symBinAddr: 0x7194, symSize: 0x80 }
  - { offset: 0xBD67, size: 0x8, addend: 0x0, symName: __RINvNtCsfvfooZQ3Axs_4core3ptr13drop_in_placeINtNtCse1nGBsou5OW_5alloc5boxed3BoxNtNtNtCscOYdFFY2T5N_3std2io5error6CustomEECsljl79DWYEYJ_14metrics_macros, symObjAddr: 0x19E8, symBinAddr: 0x7214, symSize: 0x60 }
  - { offset: 0xBD96, size: 0x8, addend: 0x0, symName: __RINvNtCsfvfooZQ3Axs_4core3ptr13drop_in_placeINtNtCse1nGBsou5OW_5alloc7raw_vec6RawVecNtCs3cP53eQoTwO_11proc_macro211TokenStreamEECsljl79DWYEYJ_14metrics_macros, symObjAddr: 0x1A48, symBinAddr: 0x7274, symSize: 0x24 }
  - { offset: 0xBDC5, size: 0x8, addend: 0x0, symName: __RINvNtCsfvfooZQ3Axs_4core3ptr13drop_in_placeINtNtCse1nGBsou5OW_5alloc7raw_vec6RawVecNtNtBL_6string6StringEECsljl79DWYEYJ_14metrics_macros, symObjAddr: 0x1A6C, symBinAddr: 0x7298, symSize: 0x24 }
  - { offset: 0xBDF4, size: 0x8, addend: 0x0, symName: __RINvNtCsfvfooZQ3Axs_4core3ptr13drop_in_placeINtNtCse1nGBsou5OW_5alloc7raw_vec6RawVecTNtNtCs6IAuOt8vWmF_3syn4expr4ExprB1l_EEECsljl79DWYEYJ_14metrics_macros, symObjAddr: 0x1A90, symBinAddr: 0x72BC, symSize: 0x24 }
  - { offset: 0xBE23, size: 0x8, addend: 0x0, symName: __RINvNtCsfvfooZQ3Axs_4core3ptr13drop_in_placeINtNtNtCscOYdFFY2T5N_3std2io5error9ErrorDataINtNtCse1nGBsou5OW_5alloc5boxed3BoxNtBJ_6CustomEEECsljl79DWYEYJ_14metrics_macros, symObjAddr: 0x1AB4, symBinAddr: 0x72E0, symSize: 0x48 }
  - { offset: 0xBE52, size: 0x8, addend: 0x0, symName: __RINvNtCsfvfooZQ3Axs_4core3ptr13drop_in_placeINtNtNtNtB4_4iter8adapters3map3MapINtNtCs6IAuOt8vWmF_3syn10punctuated4IterNtNtB1j_4path11PathSegmentENCNCNvXs0_Csljl79DWYEYJ_14metrics_macrosNtB2t_11DescriptionNtNtB1j_5parse5Parse5parse00EEB2t_, symObjAddr: 0x1AFC, symBinAddr: 0x7328, symSize: 0x24 }
  - { offset: 0xBE81, size: 0x8, addend: 0x0, symName: __RINvNtCsfvfooZQ3Axs_4core3ptr13drop_in_placeNCINvMsi_NtCse1nGBsou5OW_5alloc3vecINtBP_3VecNtCs3cP53eQoTwO_11proc_macro211TokenStreamE14extend_trustedINtNtNtNtB4_4iter8adapters3map3MapINtNtNtB4_5slice4iter4IterTNtNtCs6IAuOt8vWmF_3syn4expr4ExprB3l_EENCNvCsljl79DWYEYJ_14metrics_macros16generate_statics0EE0EB41_, symObjAddr: 0x1B20, symBinAddr: 0x734C, symSize: 0x24 }
  - { offset: 0xBEB0, size: 0x8, addend: 0x0, symName: __RINvNtCsfvfooZQ3Axs_4core3ptr13drop_in_placeNCINvNtNtNtB4_4iter8adapters3map8map_foldRTNtNtCs6IAuOt8vWmF_3syn4expr4ExprB1n_ENtCs3cP53eQoTwO_11proc_macro211TokenStreamuNCNvCsljl79DWYEYJ_14metrics_macros16generate_statics0NCINvNvNtNtNtBP_6traits8iterator8Iterator8for_each4callB1Y_NCINvMsi_NtCse1nGBsou5OW_5alloc3vecINtB4C_3VecB1Y_E14extend_trustedINtBL_3MapINtNtNtB4_5slice4iter4IterB1m_EB2F_EE0E0E0EB2J_, symObjAddr: 0x1B44, symBinAddr: 0x7370, symSize: 0x24 }
  - { offset: 0xBEDF, size: 0x8, addend: 0x0, symName: __RINvNtCsfvfooZQ3Axs_4core3ptr13drop_in_placeNCINvNvNtNtNtNtB4_4iter6traits8iterator8Iterator8for_each4callNtCs3cP53eQoTwO_11proc_macro211TokenStreamNCINvMsi_NtCse1nGBsou5OW_5alloc3vecINtB2v_3VecB1G_E14extend_trustedINtNtNtBT_8adapters3map3MapINtNtNtB4_5slice4iter4IterTNtNtCs6IAuOt8vWmF_3syn4expr4ExprB4j_EENCNvCsljl79DWYEYJ_14metrics_macros16generate_statics0EE0E0EB4Z_, symObjAddr: 0x1B68, symBinAddr: 0x7394, symSize: 0x24 }
  - { offset: 0xBF0E, size: 0x8, addend: 0x0, symName: __RINvNtCsfvfooZQ3Axs_4core3ptr13drop_in_placeNCNCINvNtNtCs9i5KxIbZ5ph_10proc_macro6bridge6client10run_clientNtBN_11TokenStreamINtNtB4_6option6OptionB1H_ENCNCINvMs7_BN_INtBN_6ClientNtBR_11TokenStreamB2R_E7expand1NvCsljl79DWYEYJ_14metrics_macros14describe_gaugeE00E00EB3o_, symObjAddr: 0x1B8C, symBinAddr: 0x73B8, symSize: 0x24 }
  - { offset: 0xBF3D, size: 0x8, addend: 0x0, symName: __RINvNtCsfvfooZQ3Axs_4core3ptr13drop_in_placeNCNCINvNtNtCs9i5KxIbZ5ph_10proc_macro6bridge6client10run_clientNtBN_11TokenStreamINtNtB4_6option6OptionB1H_ENCNCINvMs7_BN_INtBN_6ClientNtBR_11TokenStreamB2R_E7expand1NvCsljl79DWYEYJ_14metrics_macros14register_gaugeE00E00EB3o_, symObjAddr: 0x1BB0, symBinAddr: 0x73DC, symSize: 0x24 }
  - { offset: 0xBF6C, size: 0x8, addend: 0x0, symName: __RINvNtCsfvfooZQ3Axs_4core3ptr13drop_in_placeNCNCINvNtNtCs9i5KxIbZ5ph_10proc_macro6bridge6client10run_clientNtBN_11TokenStreamINtNtB4_6option6OptionB1H_ENCNCINvMs7_BN_INtBN_6ClientNtBR_11TokenStreamB2R_E7expand1NvCsljl79DWYEYJ_14metrics_macros15decrement_gaugeE00E00EB3o_, symObjAddr: 0x1BD4, symBinAddr: 0x7400, symSize: 0x24 }
  - { offset: 0xBF9B, size: 0x8, addend: 0x0, symName: __RINvNtCsfvfooZQ3Axs_4core3ptr13drop_in_placeNCNCINvNtNtCs9i5KxIbZ5ph_10proc_macro6bridge6client10run_clientNtBN_11TokenStreamINtNtB4_6option6OptionB1H_ENCNCINvMs7_BN_INtBN_6ClientNtBR_11TokenStreamB2R_E7expand1NvCsljl79DWYEYJ_14metrics_macros15increment_gaugeE00E00EB3o_, symObjAddr: 0x1BF8, symBinAddr: 0x7424, symSize: 0x24 }
  - { offset: 0xBFCA, size: 0x8, addend: 0x0, symName: __RINvNtCsfvfooZQ3Axs_4core3ptr13drop_in_placeNCNCINvNtNtCs9i5KxIbZ5ph_10proc_macro6bridge6client10run_clientNtBN_11TokenStreamINtNtB4_6option6OptionB1H_ENCNCINvMs7_BN_INtBN_6ClientNtBR_11TokenStreamB2R_E7expand1NvCsljl79DWYEYJ_14metrics_macros16absolute_counterE00E00EB3o_, symObjAddr: 0x1C1C, symBinAddr: 0x7448, symSize: 0x24 }
  - { offset: 0xBFF9, size: 0x8, addend: 0x0, symName: __RINvNtCsfvfooZQ3Axs_4core3ptr13drop_in_placeNCNCINvNtNtCs9i5KxIbZ5ph_10proc_macro6bridge6client10run_clientNtBN_11TokenStreamINtNtB4_6option6OptionB1H_ENCNCINvMs7_BN_INtBN_6ClientNtBR_11TokenStreamB2R_E7expand1NvCsljl79DWYEYJ_14metrics_macros16describe_counterE00E00EB3o_, symObjAddr: 0x1C40, symBinAddr: 0x746C, symSize: 0x24 }
  - { offset: 0xC028, size: 0x8, addend: 0x0, symName: __RINvNtCsfvfooZQ3Axs_4core3ptr13drop_in_placeNCNCINvNtNtCs9i5KxIbZ5ph_10proc_macro6bridge6client10run_clientNtBN_11TokenStreamINtNtB4_6option6OptionB1H_ENCNCINvMs7_BN_INtBN_6ClientNtBR_11TokenStreamB2R_E7expand1NvCsljl79DWYEYJ_14metrics_macros16register_counterE00E00EB3o_, symObjAddr: 0x1C64, symBinAddr: 0x7490, symSize: 0x24 }
  - { offset: 0xC057, size: 0x8, addend: 0x0, symName: __RINvNtCsfvfooZQ3Axs_4core3ptr13drop_in_placeNCNCINvNtNtCs9i5KxIbZ5ph_10proc_macro6bridge6client10run_clientNtBN_11TokenStreamINtNtB4_6option6OptionB1H_ENCNCINvMs7_BN_INtBN_6ClientNtBR_11TokenStreamB2R_E7expand1NvCsljl79DWYEYJ_14metrics_macros17increment_counterE00E00EB3o_, symObjAddr: 0x1C88, symBinAddr: 0x74B4, symSize: 0x24 }
  - { offset: 0xC086, size: 0x8, addend: 0x0, symName: __RINvNtCsfvfooZQ3Axs_4core3ptr13drop_in_placeNCNCINvNtNtCs9i5KxIbZ5ph_10proc_macro6bridge6client10run_clientNtBN_11TokenStreamINtNtB4_6option6OptionB1H_ENCNCINvMs7_BN_INtBN_6ClientNtBR_11TokenStreamB2R_E7expand1NvCsljl79DWYEYJ_14metrics_macros18describe_histogramE00E00EB3o_, symObjAddr: 0x1CAC, symBinAddr: 0x74D8, symSize: 0x24 }
  - { offset: 0xC0B5, size: 0x8, addend: 0x0, symName: __RINvNtCsfvfooZQ3Axs_4core3ptr13drop_in_placeNCNCINvNtNtCs9i5KxIbZ5ph_10proc_macro6bridge6client10run_clientNtBN_11TokenStreamINtNtB4_6option6OptionB1H_ENCNCINvMs7_BN_INtBN_6ClientNtBR_11TokenStreamB2R_E7expand1NvCsljl79DWYEYJ_14metrics_macros18register_histogramE00E00EB3o_, symObjAddr: 0x1CD0, symBinAddr: 0x74FC, symSize: 0x24 }
  - { offset: 0xC0E4, size: 0x8, addend: 0x0, symName: __RINvNtCsfvfooZQ3Axs_4core3ptr13drop_in_placeNCNCINvNtNtCs9i5KxIbZ5ph_10proc_macro6bridge6client10run_clientNtBN_11TokenStreamINtNtB4_6option6OptionB1H_ENCNCINvMs7_BN_INtBN_6ClientNtBR_11TokenStreamB2R_E7expand1NvCsljl79DWYEYJ_14metrics_macros5gaugeE00E00EB3o_, symObjAddr: 0x1CF4, symBinAddr: 0x7520, symSize: 0x24 }
  - { offset: 0xC113, size: 0x8, addend: 0x0, symName: __RINvNtCsfvfooZQ3Axs_4core3ptr13drop_in_placeNCNCINvNtNtCs9i5KxIbZ5ph_10proc_macro6bridge6client10run_clientNtBN_11TokenStreamINtNtB4_6option6OptionB1H_ENCNCINvMs7_BN_INtBN_6ClientNtBR_11TokenStreamB2R_E7expand1NvCsljl79DWYEYJ_14metrics_macros7counterE00E00EB3o_, symObjAddr: 0x1D18, symBinAddr: 0x7544, symSize: 0x24 }
  - { offset: 0xC142, size: 0x8, addend: 0x0, symName: __RINvNtCsfvfooZQ3Axs_4core3ptr13drop_in_placeNCNCINvNtNtCs9i5KxIbZ5ph_10proc_macro6bridge6client10run_clientNtBN_11TokenStreamINtNtB4_6option6OptionB1H_ENCNCINvMs7_BN_INtBN_6ClientNtBR_11TokenStreamB2R_E7expand1NvCsljl79DWYEYJ_14metrics_macros9histogramE00E00EB3o_, symObjAddr: 0x1D3C, symBinAddr: 0x7568, symSize: 0x24 }
  - { offset: 0xC171, size: 0x8, addend: 0x0, symName: __RINvNtCsfvfooZQ3Axs_4core3ptr13drop_in_placeNtCsljl79DWYEYJ_14metrics_macros11DescriptionEBI_, symObjAddr: 0x1D60, symBinAddr: 0x758C, symSize: 0x90 }
  - { offset: 0xC1A0, size: 0x8, addend: 0x0, symName: __RINvNtCsfvfooZQ3Axs_4core3ptr13drop_in_placeNtCsljl79DWYEYJ_14metrics_macros14WithExpressionEBI_, symObjAddr: 0x1DF0, symBinAddr: 0x761C, symSize: 0x90 }
  - { offset: 0xC1CF, size: 0x8, addend: 0x0, symName: __RINvNtCsfvfooZQ3Axs_4core3ptr13drop_in_placeNtCsljl79DWYEYJ_14metrics_macros17WithoutExpressionEBI_, symObjAddr: 0x1E80, symBinAddr: 0x76AC, symSize: 0x60 }
  - { offset: 0xC1FE, size: 0x8, addend: 0x0, symName: __RINvNtCsfvfooZQ3Axs_4core3ptr13drop_in_placeNtCsljl79DWYEYJ_14metrics_macros6LabelsEBI_, symObjAddr: 0x1EE0, symBinAddr: 0x770C, symSize: 0x58 }
  - { offset: 0xC22D, size: 0x8, addend: 0x0, symName: __RINvNtCsfvfooZQ3Axs_4core3ptr13drop_in_placeNtNtNtCs9i5KxIbZ5ph_10proc_macro6bridge3rpc12PanicMessageECsljl79DWYEYJ_14metrics_macros, symObjAddr: 0x1F38, symBinAddr: 0x7764, symSize: 0x50 }
  - { offset: 0xC25C, size: 0x8, addend: 0x0, symName: __RINvNtCsfvfooZQ3Axs_4core3ptr13drop_in_placeNtNtNtCs9i5KxIbZ5ph_10proc_macro6bridge6buffer6BufferECsljl79DWYEYJ_14metrics_macros, symObjAddr: 0x1F88, symBinAddr: 0x77B4, symSize: 0x24 }
  - { offset: 0xC28B, size: 0x8, addend: 0x0, symName: __RINvNtCsfvfooZQ3Axs_4core3ptr13drop_in_placeNtNtNtCs9i5KxIbZ5ph_10proc_macro6bridge6client6BridgeECsljl79DWYEYJ_14metrics_macros, symObjAddr: 0x1FAC, symBinAddr: 0x77D8, symSize: 0x24 }
  - { offset: 0xC2BA, size: 0x8, addend: 0x0, symName: __RINvNtCsfvfooZQ3Axs_4core3ptr13drop_in_placeNtNtNtCscOYdFFY2T5N_3std2io5error5ErrorECsljl79DWYEYJ_14metrics_macros, symObjAddr: 0x1FD0, symBinAddr: 0x77FC, symSize: 0x24 }
  - { offset: 0xC2E9, size: 0x8, addend: 0x0, symName: __RINvNtCsfvfooZQ3Axs_4core3ptr13drop_in_placeNtNtNtCscOYdFFY2T5N_3std2io5error6CustomECsljl79DWYEYJ_14metrics_macros, symObjAddr: 0x1FF4, symBinAddr: 0x7820, symSize: 0x24 }
  - { offset: 0xC318, size: 0x8, addend: 0x0, symName: __RINvNtCsfvfooZQ3Axs_4core3ptr13drop_in_placeNtNtNtNtCscOYdFFY2T5N_3std2io5error14repr_bitpacked4ReprECsljl79DWYEYJ_14metrics_macros, symObjAddr: 0x2018, symBinAddr: 0x7844, symSize: 0x24 }
  - { offset: 0xC347, size: 0x8, addend: 0x0, symName: __RINvNtCsfvfooZQ3Axs_4core3ptr13drop_in_placeNtNvNtNtNtCs9i5KxIbZ5ph_10proc_macro6bridge6client5state3set13RestoreOnDropECsljl79DWYEYJ_14metrics_macros, symObjAddr: 0x203C, symBinAddr: 0x7868, symSize: 0x24 }
  - { offset: 0xC376, size: 0x8, addend: 0x0, symName: __RINvNtCsfvfooZQ3Axs_4core3ptr13drop_in_placeSNtCs3cP53eQoTwO_11proc_macro211TokenStreamECsljl79DWYEYJ_14metrics_macros, symObjAddr: 0x2060, symBinAddr: 0x788C, symSize: 0xB4 }
  - { offset: 0xC3A5, size: 0x8, addend: 0x0, symName: __RINvNtCsfvfooZQ3Axs_4core3ptr13drop_in_placeSNtNtCse1nGBsou5OW_5alloc6string6StringECsljl79DWYEYJ_14metrics_macros, symObjAddr: 0x2114, symBinAddr: 0x7940, symSize: 0xC4 }
  - { offset: 0xC3D4, size: 0x8, addend: 0x0, symName: __RINvNtCsfvfooZQ3Axs_4core3ptr13drop_in_placeSTNtNtCs6IAuOt8vWmF_3syn4expr4ExprBI_EECsljl79DWYEYJ_14metrics_macros, symObjAddr: 0x21D8, symBinAddr: 0x7A04, symSize: 0xC4 }
  - { offset: 0xC403, size: 0x8, addend: 0x0, symName: __RINvNtCsfvfooZQ3Axs_4core3ptr13drop_in_placeTNtNtCs6IAuOt8vWmF_3syn4expr4ExprBH_EECsljl79DWYEYJ_14metrics_macros, symObjAddr: 0x229C, symBinAddr: 0x7AC8, symSize: 0x60 }
  - { offset: 0xE99E, size: 0x8, addend: 0x0, symName: __RNvXsn_NtNtCsfvfooZQ3Axs_4core5panic11unwind_safeINtB5_16AssertUnwindSafeNCINvNtNtCs9i5KxIbZ5ph_10proc_macro6bridge6client10run_clientNtB1e_11TokenStreamINtNtB9_6option6OptionB28_ENCNCINvMs7_B1e_INtB1e_6ClientNtB1i_11TokenStreamB3l_E7expand1NvCsljl79DWYEYJ_14metrics_macros14describe_gaugeE00E0EINtNtNtB9_3ops8function6FnOnceuE9call_onceB3T_, symObjAddr: 0x4F38, symBinAddr: 0xA764, symSize: 0x38 }
  - { offset: 0xE9F6, size: 0x8, addend: 0x0, symName: __RNvXsn_NtNtCsfvfooZQ3Axs_4core5panic11unwind_safeINtB5_16AssertUnwindSafeNCINvNtNtCs9i5KxIbZ5ph_10proc_macro6bridge6client10run_clientNtB1e_11TokenStreamINtNtB9_6option6OptionB28_ENCNCINvMs7_B1e_INtB1e_6ClientNtB1i_11TokenStreamB3l_E7expand1NvCsljl79DWYEYJ_14metrics_macros14register_gaugeE00E0EINtNtNtB9_3ops8function6FnOnceuE9call_onceB3T_, symObjAddr: 0x4F70, symBinAddr: 0xA79C, symSize: 0x38 }
  - { offset: 0xEA4E, size: 0x8, addend: 0x0, symName: __RNvXsn_NtNtCsfvfooZQ3Axs_4core5panic11unwind_safeINtB5_16AssertUnwindSafeNCINvNtNtCs9i5KxIbZ5ph_10proc_macro6bridge6client10run_clientNtB1e_11TokenStreamINtNtB9_6option6OptionB28_ENCNCINvMs7_B1e_INtB1e_6ClientNtB1i_11TokenStreamB3l_E7expand1NvCsljl79DWYEYJ_14metrics_macros15decrement_gaugeE00E0EINtNtNtB9_3ops8function6FnOnceuE9call_onceB3T_, symObjAddr: 0x4FA8, symBinAddr: 0xA7D4, symSize: 0x38 }
  - { offset: 0xEAA6, size: 0x8, addend: 0x0, symName: __RNvXsn_NtNtCsfvfooZQ3Axs_4core5panic11unwind_safeINtB5_16AssertUnwindSafeNCINvNtNtCs9i5KxIbZ5ph_10proc_macro6bridge6client10run_clientNtB1e_11TokenStreamINtNtB9_6option6OptionB28_ENCNCINvMs7_B1e_INtB1e_6ClientNtB1i_11TokenStreamB3l_E7expand1NvCsljl79DWYEYJ_14metrics_macros15increment_gaugeE00E0EINtNtNtB9_3ops8function6FnOnceuE9call_onceB3T_, symObjAddr: 0x4FE0, symBinAddr: 0xA80C, symSize: 0x38 }
  - { offset: 0xEAFE, size: 0x8, addend: 0x0, symName: __RNvXsn_NtNtCsfvfooZQ3Axs_4core5panic11unwind_safeINtB5_16AssertUnwindSafeNCINvNtNtCs9i5KxIbZ5ph_10proc_macro6bridge6client10run_clientNtB1e_11TokenStreamINtNtB9_6option6OptionB28_ENCNCINvMs7_B1e_INtB1e_6ClientNtB1i_11TokenStreamB3l_E7expand1NvCsljl79DWYEYJ_14metrics_macros16absolute_counterE00E0EINtNtNtB9_3ops8function6FnOnceuE9call_onceB3T_, symObjAddr: 0x5018, symBinAddr: 0xA844, symSize: 0x38 }
  - { offset: 0xEB56, size: 0x8, addend: 0x0, symName: __RNvXsn_NtNtCsfvfooZQ3Axs_4core5panic11unwind_safeINtB5_16AssertUnwindSafeNCINvNtNtCs9i5KxIbZ5ph_10proc_macro6bridge6client10run_clientNtB1e_11TokenStreamINtNtB9_6option6OptionB28_ENCNCINvMs7_B1e_INtB1e_6ClientNtB1i_11TokenStreamB3l_E7expand1NvCsljl79DWYEYJ_14metrics_macros16describe_counterE00E0EINtNtNtB9_3ops8function6FnOnceuE9call_onceB3T_, symObjAddr: 0x5050, symBinAddr: 0xA87C, symSize: 0x38 }
  - { offset: 0xEBAE, size: 0x8, addend: 0x0, symName: __RNvXsn_NtNtCsfvfooZQ3Axs_4core5panic11unwind_safeINtB5_16AssertUnwindSafeNCINvNtNtCs9i5KxIbZ5ph_10proc_macro6bridge6client10run_clientNtB1e_11TokenStreamINtNtB9_6option6OptionB28_ENCNCINvMs7_B1e_INtB1e_6ClientNtB1i_11TokenStreamB3l_E7expand1NvCsljl79DWYEYJ_14metrics_macros16register_counterE00E0EINtNtNtB9_3ops8function6FnOnceuE9call_onceB3T_, symObjAddr: 0x5088, symBinAddr: 0xA8B4, symSize: 0x38 }
  - { offset: 0xEC06, size: 0x8, addend: 0x0, symName: __RNvXsn_NtNtCsfvfooZQ3Axs_4core5panic11unwind_safeINtB5_16AssertUnwindSafeNCINvNtNtCs9i5KxIbZ5ph_10proc_macro6bridge6client10run_clientNtB1e_11TokenStreamINtNtB9_6option6OptionB28_ENCNCINvMs7_B1e_INtB1e_6ClientNtB1i_11TokenStreamB3l_E7expand1NvCsljl79DWYEYJ_14metrics_macros17increment_counterE00E0EINtNtNtB9_3ops8function6FnOnceuE9call_onceB3T_, symObjAddr: 0x50C0, symBinAddr: 0xA8EC, symSize: 0x38 }
  - { offset: 0xEC5E, size: 0x8, addend: 0x0, symName: __RNvXsn_NtNtCsfvfooZQ3Axs_4core5panic11unwind_safeINtB5_16AssertUnwindSafeNCINvNtNtCs9i5KxIbZ5ph_10proc_macro6bridge6client10run_clientNtB1e_11TokenStreamINtNtB9_6option6OptionB28_ENCNCINvMs7_B1e_INtB1e_6ClientNtB1i_11TokenStreamB3l_E7expand1NvCsljl79DWYEYJ_14metrics_macros18describe_histogramE00E0EINtNtNtB9_3ops8function6FnOnceuE9call_onceB3T_, symObjAddr: 0x50F8, symBinAddr: 0xA924, symSize: 0x38 }
  - { offset: 0xECB6, size: 0x8, addend: 0x0, symName: __RNvXsn_NtNtCsfvfooZQ3Axs_4core5panic11unwind_safeINtB5_16AssertUnwindSafeNCINvNtNtCs9i5KxIbZ5ph_10proc_macro6bridge6client10run_clientNtB1e_11TokenStreamINtNtB9_6option6OptionB28_ENCNCINvMs7_B1e_INtB1e_6ClientNtB1i_11TokenStreamB3l_E7expand1NvCsljl79DWYEYJ_14metrics_macros18register_histogramE00E0EINtNtNtB9_3ops8function6FnOnceuE9call_onceB3T_, symObjAddr: 0x5130, symBinAddr: 0xA95C, symSize: 0x38 }
  - { offset: 0xED0E, size: 0x8, addend: 0x0, symName: __RNvXsn_NtNtCsfvfooZQ3Axs_4core5panic11unwind_safeINtB5_16AssertUnwindSafeNCINvNtNtCs9i5KxIbZ5ph_10proc_macro6bridge6client10run_clientNtB1e_11TokenStreamINtNtB9_6option6OptionB28_ENCNCINvMs7_B1e_INtB1e_6ClientNtB1i_11TokenStreamB3l_E7expand1NvCsljl79DWYEYJ_14metrics_macros5gaugeE00E0EINtNtNtB9_3ops8function6FnOnceuE9call_onceB3T_, symObjAddr: 0x5168, symBinAddr: 0xA994, symSize: 0x38 }
  - { offset: 0xED66, size: 0x8, addend: 0x0, symName: __RNvXsn_NtNtCsfvfooZQ3Axs_4core5panic11unwind_safeINtB5_16AssertUnwindSafeNCINvNtNtCs9i5KxIbZ5ph_10proc_macro6bridge6client10run_clientNtB1e_11TokenStreamINtNtB9_6option6OptionB28_ENCNCINvMs7_B1e_INtB1e_6ClientNtB1i_11TokenStreamB3l_E7expand1NvCsljl79DWYEYJ_14metrics_macros7counterE00E0EINtNtNtB9_3ops8function6FnOnceuE9call_onceB3T_, symObjAddr: 0x51A0, symBinAddr: 0xA9CC, symSize: 0x38 }
  - { offset: 0xEDBE, size: 0x8, addend: 0x0, symName: __RNvXsn_NtNtCsfvfooZQ3Axs_4core5panic11unwind_safeINtB5_16AssertUnwindSafeNCINvNtNtCs9i5KxIbZ5ph_10proc_macro6bridge6client10run_clientNtB1e_11TokenStreamINtNtB9_6option6OptionB28_ENCNCINvMs7_B1e_INtB1e_6ClientNtB1i_11TokenStreamB3l_E7expand1NvCsljl79DWYEYJ_14metrics_macros9histogramE00E0EINtNtNtB9_3ops8function6FnOnceuE9call_onceB3T_, symObjAddr: 0x51D8, symBinAddr: 0xAA04, symSize: 0x38 }
  - { offset: 0xF37E, size: 0x8, addend: 0x0, symName: __RINvXs2U_NtNtCsfvfooZQ3Axs_4core5slice4iterINtB7_4IterTNtNtCs6IAuOt8vWmF_3syn4expr4ExprBR_EENtNtNtNtBb_4iter6traits8iterator8Iterator3allNCNvCsljl79DWYEYJ_14metrics_macros20labels_are_fast_path0EB2f_, symObjAddr: 0x35E4, symBinAddr: 0x8E10, symSize: 0xB0 }
  - { offset: 0xF3E3, size: 0x8, addend: 0x0, symName: __RINvXs2U_NtNtCsfvfooZQ3Axs_4core5slice4iterINtB7_4IterTNtNtCs6IAuOt8vWmF_3syn4expr4ExprBR_EENtNtNtNtBb_4iter6traits8iterator8Iterator4folduNCINvNtNtB1y_8adapters3map8map_foldRBQ_NtCs3cP53eQoTwO_11proc_macro211TokenStreamuNCNvCsljl79DWYEYJ_14metrics_macros16generate_statics0NCINvNvB1s_8for_each4callB2Q_NCINvMsi_NtCse1nGBsou5OW_5alloc3vecINtB50_3VecB2Q_E14extend_trustedINtB2i_3MapBF_B3x_EE0E0E0EB3B_, symObjAddr: 0x3694, symBinAddr: 0x8EC0, symSize: 0x1B8 }
  - { offset: 0xF537, size: 0x8, addend: 0x0, symName: __RNvXs2U_NtNtCsfvfooZQ3Axs_4core5slice4iterINtB6_4IterNtCs3cP53eQoTwO_11proc_macro211TokenStreamENtNtNtNtBa_4iter6traits8iterator8Iterator4nextCsljl79DWYEYJ_14metrics_macros, symObjAddr: 0x4A68, symBinAddr: 0xA294, symSize: 0xBC }
  - { offset: 0xF685, size: 0x8, addend: 0x0, symName: __RNvXs2U_NtNtCsfvfooZQ3Axs_4core5slice4iterINtB6_4IterNtNtCse1nGBsou5OW_5alloc6string6StringENtNtNtNtBa_4iter6traits8iterator8Iterator4nextCsljl79DWYEYJ_14metrics_macros, symObjAddr: 0x4B24, symBinAddr: 0xA350, symSize: 0xBC }
  - { offset: 0xF7D3, size: 0x8, addend: 0x0, symName: __RNvXs2U_NtNtCsfvfooZQ3Axs_4core5slice4iterINtB6_4IterTNtNtCs6IAuOt8vWmF_3syn4expr4ExprBQ_EENtNtNtNtBa_4iter6traits8iterator8Iterator4nextCsljl79DWYEYJ_14metrics_macros, symObjAddr: 0x4BE0, symBinAddr: 0xA40C, symSize: 0xBC }
  - { offset: 0xF921, size: 0x8, addend: 0x0, symName: __RNvXs2U_NtNtCsfvfooZQ3Axs_4core5slice4iterINtB6_4IterTNtNtCs6IAuOt8vWmF_3syn4expr4ExprBQ_EENtNtNtNtBa_4iter6traits8iterator8Iterator9size_hintCsljl79DWYEYJ_14metrics_macros, symObjAddr: 0x4C9C, symBinAddr: 0xA4C8, symSize: 0x70 }
  - { offset: 0xFC84, size: 0x8, addend: 0x0, symName: __RNvXs2_NtNtNtCsfvfooZQ3Axs_4core3ops8function5implsQNCINvNtCse1nGBsou5OW_5alloc3str17join_generic_copyehNtNtBV_6string6StringEs_0INtB7_6FnOnceTRB1E_EE9call_onceCsljl79DWYEYJ_14metrics_macros, symObjAddr: 0x4D0C, symBinAddr: 0xA538, symSize: 0x2C }
  - { offset: 0xFCDA, size: 0x8, addend: 0x0, symName: __RNvYNCNkNvNtNtNtCs9i5KxIbZ5ph_10proc_macro6bridge6client5state12BRIDGE_STATE0s_0INtNtNtCsfvfooZQ3Axs_4core3ops8function6FnOnceTINtNtB1n_6option6OptionQIB22_INtNtB1n_4cell4CellPuEEEEE9call_onceCsljl79DWYEYJ_14metrics_macros, symObjAddr: 0x523C, symBinAddr: 0xAA68, symSize: 0x4C }
  - { offset: 0xFD1E, size: 0x8, addend: 0x0, symName: __RNvYNCNvXs0_Csljl79DWYEYJ_14metrics_macrosNtBa_11DescriptionNtNtCs6IAuOt8vWmF_3syn5parse5Parse5parse0INtNtNtCsfvfooZQ3Axs_4core3ops8function6FnOnceTRNtBY_11ParseBufferEE9call_onceBa_, symObjAddr: 0x5288, symBinAddr: 0xAAB4, symSize: 0x44 }
  - { offset: 0xFD62, size: 0x8, addend: 0x0, symName: __RNvYNvYNtCsljl79DWYEYJ_14metrics_macros11DescriptionNtNtCs6IAuOt8vWmF_3syn5parse5Parse5parseINtNtNtCsfvfooZQ3Axs_4core3ops8function6FnOnceTRNtBQ_11ParseBufferEE9call_onceB7_, symObjAddr: 0x5504, symBinAddr: 0xAD30, symSize: 0x24 }
  - { offset: 0xFDA6, size: 0x8, addend: 0x0, symName: __RNvYNvYNtCsljl79DWYEYJ_14metrics_macros14WithExpressionNtNtCs6IAuOt8vWmF_3syn5parse5Parse5parseINtNtNtCsfvfooZQ3Axs_4core3ops8function6FnOnceTRNtBT_11ParseBufferEE9call_onceB7_, symObjAddr: 0x5528, symBinAddr: 0xAD54, symSize: 0x24 }
  - { offset: 0xFDEA, size: 0x8, addend: 0x0, symName: __RNvYNvYNtCsljl79DWYEYJ_14metrics_macros17WithoutExpressionNtNtCs6IAuOt8vWmF_3syn5parse5Parse5parseINtNtNtCsfvfooZQ3Axs_4core3ops8function6FnOnceTRNtBW_11ParseBufferEE9call_onceB7_, symObjAddr: 0x554C, symBinAddr: 0xAD78, symSize: 0x24 }
  - { offset: 0xFE2E, size: 0x8, addend: 0x0, symName: __RNvYNvYNtNtNtCs9i5KxIbZ5ph_10proc_macro6bridge3rpc12PanicMessageINtNtCsfvfooZQ3Axs_4core7convert4FromINtNtCse1nGBsou5OW_5alloc5boxed3BoxDNtNtB15_3any3AnyNtNtB15_6marker4SendEL_EE4fromINtNtNtB15_3ops8function6FnOnceTB1B_EE9call_onceCsljl79DWYEYJ_14metrics_macros, symObjAddr: 0x5570, symBinAddr: 0xAD9C, symSize: 0x2C }
  - { offset: 0xFE78, size: 0x8, addend: 0x0, symName: __RNvYNvCsljl79DWYEYJ_14metrics_macros14describe_gaugeINtNtNtCsfvfooZQ3Axs_4core3ops8function2FnTNtCs9i5KxIbZ5ph_10proc_macro11TokenStreamEE4callB4_, symObjAddr: 0x52CC, symBinAddr: 0xAAF8, symSize: 0x28 }
  - { offset: 0xFEBC, size: 0x8, addend: 0x0, symName: __RNvYNvCsljl79DWYEYJ_14metrics_macros14register_gaugeINtNtNtCsfvfooZQ3Axs_4core3ops8function2FnTNtCs9i5KxIbZ5ph_10proc_macro11TokenStreamEE4callB4_, symObjAddr: 0x52F4, symBinAddr: 0xAB20, symSize: 0x28 }
  - { offset: 0xFF00, size: 0x8, addend: 0x0, symName: __RNvYNvCsljl79DWYEYJ_14metrics_macros15decrement_gaugeINtNtNtCsfvfooZQ3Axs_4core3ops8function2FnTNtCs9i5KxIbZ5ph_10proc_macro11TokenStreamEE4callB4_, symObjAddr: 0x531C, symBinAddr: 0xAB48, symSize: 0x28 }
  - { offset: 0xFF44, size: 0x8, addend: 0x0, symName: __RNvYNvCsljl79DWYEYJ_14metrics_macros15increment_gaugeINtNtNtCsfvfooZQ3Axs_4core3ops8function2FnTNtCs9i5KxIbZ5ph_10proc_macro11TokenStreamEE4callB4_, symObjAddr: 0x5344, symBinAddr: 0xAB70, symSize: 0x28 }
  - { offset: 0xFF88, size: 0x8, addend: 0x0, symName: __RNvYNvCsljl79DWYEYJ_14metrics_macros16absolute_counterINtNtNtCsfvfooZQ3Axs_4core3ops8function2FnTNtCs9i5KxIbZ5ph_10proc_macro11TokenStreamEE4callB4_, symObjAddr: 0x536C, symBinAddr: 0xAB98, symSize: 0x28 }
  - { offset: 0xFFCC, size: 0x8, addend: 0x0, symName: __RNvYNvCsljl79DWYEYJ_14metrics_macros16describe_counterINtNtNtCsfvfooZQ3Axs_4core3ops8function2FnTNtCs9i5KxIbZ5ph_10proc_macro11TokenStreamEE4callB4_, symObjAddr: 0x5394, symBinAddr: 0xABC0, symSize: 0x28 }
  - { offset: 0x10010, size: 0x8, addend: 0x0, symName: __RNvYNvCsljl79DWYEYJ_14metrics_macros16register_counterINtNtNtCsfvfooZQ3Axs_4core3ops8function2FnTNtCs9i5KxIbZ5ph_10proc_macro11TokenStreamEE4callB4_, symObjAddr: 0x53BC, symBinAddr: 0xABE8, symSize: 0x28 }
  - { offset: 0x10054, size: 0x8, addend: 0x0, symName: __RNvYNvCsljl79DWYEYJ_14metrics_macros17increment_counterINtNtNtCsfvfooZQ3Axs_4core3ops8function2FnTNtCs9i5KxIbZ5ph_10proc_macro11TokenStreamEE4callB4_, symObjAddr: 0x53E4, symBinAddr: 0xAC10, symSize: 0x28 }
  - { offset: 0x10098, size: 0x8, addend: 0x0, symName: __RNvYNvCsljl79DWYEYJ_14metrics_macros18describe_histogramINtNtNtCsfvfooZQ3Axs_4core3ops8function2FnTNtCs9i5KxIbZ5ph_10proc_macro11TokenStreamEE4callB4_, symObjAddr: 0x540C, symBinAddr: 0xAC38, symSize: 0x28 }
  - { offset: 0x100DC, size: 0x8, addend: 0x0, symName: __RNvYNvCsljl79DWYEYJ_14metrics_macros18register_histogramINtNtNtCsfvfooZQ3Axs_4core3ops8function2FnTNtCs9i5KxIbZ5ph_10proc_macro11TokenStreamEE4callB4_, symObjAddr: 0x5434, symBinAddr: 0xAC60, symSize: 0x28 }
  - { offset: 0x10120, size: 0x8, addend: 0x0, symName: __RNvYNvCsljl79DWYEYJ_14metrics_macros5gaugeINtNtNtCsfvfooZQ3Axs_4core3ops8function2FnTNtCs9i5KxIbZ5ph_10proc_macro11TokenStreamEE4callB4_, symObjAddr: 0x545C, symBinAddr: 0xAC88, symSize: 0x28 }
  - { offset: 0x10164, size: 0x8, addend: 0x0, symName: __RNvYNvCsljl79DWYEYJ_14metrics_macros7counterINtNtNtCsfvfooZQ3Axs_4core3ops8function2FnTNtCs9i5KxIbZ5ph_10proc_macro11TokenStreamEE4callB4_, symObjAddr: 0x5484, symBinAddr: 0xACB0, symSize: 0x28 }
  - { offset: 0x101A8, size: 0x8, addend: 0x0, symName: __RNvYNvCsljl79DWYEYJ_14metrics_macros9histogramINtNtNtCsfvfooZQ3Axs_4core3ops8function2FnTNtCs9i5KxIbZ5ph_10proc_macro11TokenStreamEE4callB4_, symObjAddr: 0x54AC, symBinAddr: 0xACD8, symSize: 0x28 }
  - { offset: 0x101F2, size: 0x8, addend: 0x0, symName: __RNvYNvMs9_NtCsfvfooZQ3Axs_4core3numj11checked_addINtNtNtBa_3ops8function5FnMutTjjEE8call_mutCsljl79DWYEYJ_14metrics_macros, symObjAddr: 0x54D4, symBinAddr: 0xAD00, symSize: 0x30 }
  - { offset: 0x10996, size: 0x8, addend: 0x0, symName: __RNvMs9_NtCsfvfooZQ3Axs_4core3numj11checked_addCsljl79DWYEYJ_14metrics_macros, symObjAddr: 0x3F98, symBinAddr: 0x97C4, symSize: 0x74 }
  - { offset: 0x10A20, size: 0x8, addend: 0x0, symName: __RNvNvMs9_NtCsfvfooZQ3Axs_4core3numj13unchecked_add18precondition_checkCsljl79DWYEYJ_14metrics_macros, symObjAddr: 0x46D8, symBinAddr: 0x9F04, symSize: 0x44 }
  - { offset: 0x10D12, size: 0x8, addend: 0x0, symName: __RINvXs0_NtNtNtCsfvfooZQ3Axs_4core4iter8adapters3mapINtB6_3MapINtNtNtBc_5slice4iter4IterTNtNtCs6IAuOt8vWmF_3syn4expr4ExprB1o_EENCNvCsljl79DWYEYJ_14metrics_macros16generate_statics0ENtNtNtBa_6traits8iterator8Iterator4folduNCINvNvB2S_8for_each4callNtCs3cP53eQoTwO_11proc_macro211TokenStreamNCINvMsi_NtCse1nGBsou5OW_5alloc3vecINtB4K_3VecB3V_E14extend_trustedBN_E0E0EB24_, symObjAddr: 0x35A0, symBinAddr: 0x8DCC, symSize: 0x44 }
  - { offset: 0x10DAA, size: 0x8, addend: 0x0, symName: __RNvXs0_NtNtNtCsfvfooZQ3Axs_4core4iter8adapters3mapINtB5_3MapINtNtCs6IAuOt8vWmF_3syn10punctuated4IterNtNtB11_4path11PathSegmentENCNCNvXs0_Csljl79DWYEYJ_14metrics_macrosNtB2b_11DescriptionNtNtB11_5parse5Parse5parse00ENtNtNtB9_6traits8iterator8Iterator4nextB2b_, symObjAddr: 0x482C, symBinAddr: 0xA058, symSize: 0x90 }
  - { offset: 0x10E24, size: 0x8, addend: 0x0, symName: __RNvXs0_NtNtNtCsfvfooZQ3Axs_4core4iter8adapters3mapINtB5_3MapINtNtCs6IAuOt8vWmF_3syn10punctuated4IterNtNtB11_4path11PathSegmentENCNCNvXs0_Csljl79DWYEYJ_14metrics_macrosNtB2b_11DescriptionNtNtB11_5parse5Parse5parse00ENtNtNtB9_6traits8iterator8Iterator9size_hintB2b_, symObjAddr: 0x48BC, symBinAddr: 0xA0E8, symSize: 0x24 }
  - { offset: 0x10E6B, size: 0x8, addend: 0x0, symName: __RNvXs0_NtNtNtCsfvfooZQ3Axs_4core4iter8adapters3mapINtB5_3MapINtNtNtBb_5slice4iter4IterTNtNtCs6IAuOt8vWmF_3syn4expr4ExprB1n_EENCNvCsljl79DWYEYJ_14metrics_macros16generate_statics0ENtNtNtB9_6traits8iterator8Iterator9size_hintB23_, symObjAddr: 0x48E0, symBinAddr: 0xA10C, symSize: 0x24 }
  - { offset: 0x10EB2, size: 0x8, addend: 0x0, symName: __RNvXs0_NtNtNtCsfvfooZQ3Axs_4core4iter8adapters3mapINtB5_3MapINtNtNtBb_5slice4iter4IterTNtNtCs6IAuOt8vWmF_3syn4expr4ExprB1n_EENCNvCsljl79DWYEYJ_14metrics_macros16labels_to_quoted0ENtNtNtB9_6traits8iterator8Iterator4nextB23_, symObjAddr: 0x4904, symBinAddr: 0xA130, symSize: 0x90 }
  - { offset: 0x11003, size: 0x8, addend: 0x0, symName: __RNCINvNtNtNtCsfvfooZQ3Axs_4core4iter8adapters3map8map_foldRTNtNtCs6IAuOt8vWmF_3syn4expr4ExprBW_ENtCs3cP53eQoTwO_11proc_macro211TokenStreamuNCNvCsljl79DWYEYJ_14metrics_macros16generate_statics0NCINvNvNtNtNtB8_6traits8iterator8Iterator8for_each4callB1w_NCINvMsi_NtCse1nGBsou5OW_5alloc3vecINtB4a_3VecB1w_E14extend_trustedINtB4_3MapINtNtNtBa_5slice4iter4IterBV_EB2d_EE0E0E0B2h_, symObjAddr: 0x3BD8, symBinAddr: 0x9404, symSize: 0x8C }
  - { offset: 0x1108E, size: 0x8, addend: 0x0, symName: __RNCINvNtNtNtCsfvfooZQ3Axs_4core4iter8adapters3map12map_try_foldRNtNtCse1nGBsou5OW_5alloc6string6StringjjINtNtBa_6option6OptionjENCNCINvNtB14_3str17join_generic_copyehB10_E00NvMs9_NtBa_3numj11checked_addE0Csljl79DWYEYJ_14metrics_macros, symObjAddr: 0x3B30, symBinAddr: 0x935C, symSize: 0xA8 }
  - { offset: 0x11292, size: 0x8, addend: 0x0, symName: __RNCINvNvNtNtNtNtCsfvfooZQ3Axs_4core4iter6traits8iterator8Iterator8for_each4callNtCs3cP53eQoTwO_11proc_macro211TokenStreamNCINvMsi_NtCse1nGBsou5OW_5alloc3vecINtB24_3VecB1f_E14extend_trustedINtNtNtBc_8adapters3map3MapINtNtNtBe_5slice4iter4IterTNtNtCs6IAuOt8vWmF_3syn4expr4ExprB3S_EENCNvCsljl79DWYEYJ_14metrics_macros16generate_statics0EE0E0B4y_, symObjAddr: 0x3C64, symBinAddr: 0x9490, symSize: 0x3C }
  - { offset: 0x1131D, size: 0x8, addend: 0x0, symName: __RINvYINtNtNtCsfvfooZQ3Axs_4core5slice4iter4IterNtNtCse1nGBsou5OW_5alloc6string6StringENtNtNtNtBa_4iter6traits8iterator8Iterator8try_foldjNCINvNtNtB1s_8adapters3map12map_try_foldRBJ_jjINtNtBa_6option6OptionjENCNCINvNtBN_3str17join_generic_copyehBJ_E00NvMs9_NtBa_3numj11checked_addE0B2V_ECsljl79DWYEYJ_14metrics_macros, symObjAddr: 0x384C, symBinAddr: 0x9078, symSize: 0x180 }
  - { offset: 0x113D9, size: 0x8, addend: 0x0, symName: __RINvYINtNtNtCsfvfooZQ3Axs_4core5slice4iter4IterTNtNtCs6IAuOt8vWmF_3syn4expr4ExprBK_EENtNtNtNtBa_4iter6traits8iterator8Iterator3mapNtCs3cP53eQoTwO_11proc_macro211TokenStreamNCNvCsljl79DWYEYJ_14metrics_macros16generate_statics0EB2O_, symObjAddr: 0x39CC, symBinAddr: 0x91F8, symSize: 0x1C }
  - { offset: 0x11431, size: 0x8, addend: 0x0, symName: __RINvYINtNtNtCsfvfooZQ3Axs_4core5slice4iter4IterTNtNtCs6IAuOt8vWmF_3syn4expr4ExprBK_EENtNtNtNtBa_4iter6traits8iterator8Iterator3mapNtCs3cP53eQoTwO_11proc_macro211TokenStreamNCNvCsljl79DWYEYJ_14metrics_macros16labels_to_quoted0EB2O_, symObjAddr: 0x39E8, symBinAddr: 0x9214, symSize: 0x1C }
  - { offset: 0x11489, size: 0x8, addend: 0x0, symName: __RINvYINtNtNtNtCsfvfooZQ3Axs_4core4iter8adapters3map3MapINtNtCs6IAuOt8vWmF_3syn10punctuated4IterNtNtBW_4path11PathSegmentENCNCNvXs0_Csljl79DWYEYJ_14metrics_macrosNtB25_11DescriptionNtNtBW_5parse5Parse5parse00ENtNtNtBa_6traits8iterator8Iterator7collectINtNtCse1nGBsou5OW_5alloc3vec3VecNtNtB45_6string6StringEEB25_, symObjAddr: 0x3A04, symBinAddr: 0x9230, symSize: 0x34 }
  - { offset: 0x114C9, size: 0x8, addend: 0x0, symName: __RINvYINtNtNtNtCsfvfooZQ3Axs_4core4iter8adapters3map3MapINtNtNtBc_5slice4iter4IterTNtNtCs6IAuOt8vWmF_3syn4expr4ExprB1i_EENCNvCsljl79DWYEYJ_14metrics_macros16generate_statics0ENtNtNtBa_6traits8iterator8Iterator7collectINtNtCse1nGBsou5OW_5alloc3vec3VecNtCs3cP53eQoTwO_11proc_macro211TokenStreamEEB1Y_, symObjAddr: 0x3A38, symBinAddr: 0x9264, symSize: 0x34 }
  - { offset: 0x11509, size: 0x8, addend: 0x0, symName: __RINvYINtNtNtNtCsfvfooZQ3Axs_4core4iter8adapters3map3MapINtNtNtBc_5slice4iter4IterTNtNtCs6IAuOt8vWmF_3syn4expr4ExprB1i_EENCNvCsljl79DWYEYJ_14metrics_macros16generate_statics0ENtNtNtBa_6traits8iterator8Iterator8for_eachNCINvMsi_NtCse1nGBsou5OW_5alloc3vecINtB3C_3VecNtCs3cP53eQoTwO_11proc_macro211TokenStreamE14extend_trustedB3_E0EB1Y_, symObjAddr: 0x3A6C, symBinAddr: 0x9298, symSize: 0x44 }
  - { offset: 0x11580, size: 0x8, addend: 0x0, symName: __RNvXNtNtNtCsfvfooZQ3Axs_4core4iter6traits7collectINtNtNtB6_8adapters3map3MapINtNtCs6IAuOt8vWmF_3syn10punctuated4IterNtNtB1h_4path11PathSegmentENCNCNvXs0_Csljl79DWYEYJ_14metrics_macrosNtB2r_11DescriptionNtNtB1h_5parse5Parse5parse00ENtB2_12IntoIterator9into_iterB2r_, symObjAddr: 0x47F4, symBinAddr: 0xA020, symSize: 0x1C }
  - { offset: 0x115B7, size: 0x8, addend: 0x0, symName: __RNvXNtNtNtCsfvfooZQ3Axs_4core4iter6traits7collectINtNtNtB6_8adapters3map3MapINtNtNtB8_5slice4iter4IterTNtNtCs6IAuOt8vWmF_3syn4expr4ExprB1D_EENCNvCsljl79DWYEYJ_14metrics_macros16generate_statics0ENtB2_12IntoIterator9into_iterB2j_, symObjAddr: 0x4810, symBinAddr: 0xA03C, symSize: 0x1C }
  - { offset: 0x117EF, size: 0x8, addend: 0x0, symName: __RNvNvMNtNtCsfvfooZQ3Axs_4core5alloc6layoutNtB4_6Layout25from_size_align_unchecked18precondition_checkCsljl79DWYEYJ_14metrics_macros, symObjAddr: 0x4688, symBinAddr: 0x9EB4, symSize: 0x50 }
  - { offset: 0x11833, size: 0x8, addend: 0x0, symName: __RNvNvNtCsfvfooZQ3Axs_4core9ub_checks23maybe_is_nonoverlapping7runtimeCsljl79DWYEYJ_14metrics_macros, symObjAddr: 0x471C, symBinAddr: 0x9F48, symSize: 0xD8 }
  - { offset: 0x11B64, size: 0x8, addend: 0x0, symName: __RNCNvXs1_NtNtNtCscOYdFFY2T5N_3std2io5error14repr_bitpackedNtB7_4ReprNtNtNtCsfvfooZQ3Axs_4core3ops4drop4Drop4drop0Csljl79DWYEYJ_14metrics_macros, symObjAddr: 0x3D0C, symBinAddr: 0x9538, symSize: 0x34 }
  - { offset: 0x11C19, size: 0x8, addend: 0x0, symName: __RNvXs1_NtNtNtCscOYdFFY2T5N_3std2io5error14repr_bitpackedNtB5_4ReprNtNtNtCsfvfooZQ3Axs_4core3ops4drop4Drop4dropCsljl79DWYEYJ_14metrics_macros, symObjAddr: 0x4A30, symBinAddr: 0xA25C, symSize: 0x38 }
  - { offset: 0x11C42, size: 0x8, addend: 0x0, symName: __RINvNtNtNtCscOYdFFY2T5N_3std2io5error14repr_bitpacked11decode_reprINtNtCse1nGBsou5OW_5alloc5boxed3BoxNtB4_6CustomENCNvXs1_B2_NtB2_4ReprNtNtNtCsfvfooZQ3Axs_4core3ops4drop4Drop4drop0ECsljl79DWYEYJ_14metrics_macros, symObjAddr: 0x2EC4, symBinAddr: 0x86F0, symSize: 0x230 }
  - { offset: 0x11EE7, size: 0x8, addend: 0x0, symName: __RNvNtNtNtCscOYdFFY2T5N_3std2io5error14repr_bitpacked14kind_from_primCsljl79DWYEYJ_14metrics_macros, symObjAddr: 0x4080, symBinAddr: 0x98AC, symSize: 0x608 }
  - { offset: 0x12876, size: 0x8, addend: 0x0, symName: __RINvCs6IAuOt8vWmF_3syn5parseNtCsljl79DWYEYJ_14metrics_macros11DescriptionEBs_, symObjAddr: 0x0, symBinAddr: 0x5874, symSize: 0x30 }
  - { offset: 0x128AD, size: 0x8, addend: 0x0, symName: __RINvCs6IAuOt8vWmF_3syn5parseNtCsljl79DWYEYJ_14metrics_macros14WithExpressionEBs_, symObjAddr: 0x30, symBinAddr: 0x58A4, symSize: 0x30 }
  - { offset: 0x128E4, size: 0x8, addend: 0x0, symName: __RINvCs6IAuOt8vWmF_3syn5parseNtCsljl79DWYEYJ_14metrics_macros17WithoutExpressionEBs_, symObjAddr: 0x60, symBinAddr: 0x58D4, symSize: 0x30 }
  - { offset: 0x1895F, size: 0x8, addend: 0x0, symName: __RNvXs1_NtCse1nGBsou5OW_5alloc7raw_vecINtB5_6RawVecNtCs3cP53eQoTwO_11proc_macro211TokenStreamENtNtNtCsfvfooZQ3Axs_4core3ops4drop4Drop4dropCsljl79DWYEYJ_14metrics_macros, symObjAddr: 0x4994, symBinAddr: 0xA1C0, symSize: 0x34 }
  - { offset: 0x1899B, size: 0x8, addend: 0x0, symName: __RNvXs1_NtCse1nGBsou5OW_5alloc7raw_vecINtB5_6RawVecNtNtB7_6string6StringENtNtNtCsfvfooZQ3Axs_4core3ops4drop4Drop4dropCsljl79DWYEYJ_14metrics_macros, symObjAddr: 0x49C8, symBinAddr: 0xA1F4, symSize: 0x34 }
  - { offset: 0x189D7, size: 0x8, addend: 0x0, symName: __RNvXs1_NtCse1nGBsou5OW_5alloc7raw_vecINtB5_6RawVecTNtNtCs6IAuOt8vWmF_3syn4expr4ExprBN_EENtNtNtCsfvfooZQ3Axs_4core3ops4drop4Drop4dropCsljl79DWYEYJ_14metrics_macros, symObjAddr: 0x49FC, symBinAddr: 0xA228, symSize: 0x34 }
  - { offset: 0x18B1A, size: 0x8, addend: 0x0, symName: __RNCNCINvNtCse1nGBsou5OW_5alloc3str17join_generic_copyehNtNtB8_6string6StringE00Csljl79DWYEYJ_14metrics_macros, symObjAddr: 0x3CA0, symBinAddr: 0x94CC, symSize: 0x38 }
  - { offset: 0x18B73, size: 0x8, addend: 0x0, symName: __RNCINvNtCse1nGBsou5OW_5alloc3str17join_generic_copyehNtNtB6_6string6StringEs_0Csljl79DWYEYJ_14metrics_macros, symObjAddr: 0x3AB0, symBinAddr: 0x92DC, symSize: 0x80 }
  - { offset: 0x18C41, size: 0x8, addend: 0x0, symName: __RINvNtCse1nGBsou5OW_5alloc3str17join_generic_copyehNtNtB4_6string6StringECsljl79DWYEYJ_14metrics_macros, symObjAddr: 0x90, symBinAddr: 0x5904, symSize: 0x161C }
  - { offset: 0x1B52C, size: 0x8, addend: 0x0, symName: __RNvMNtCsfvfooZQ3Axs_4core6optionINtB2_6OptionNtCs3cP53eQoTwO_11proc_macro24SpanE2orCsljl79DWYEYJ_14metrics_macros, symObjAddr: 0x3D40, symBinAddr: 0x956C, symSize: 0x80 }
  - { offset: 0x1B59F, size: 0x8, addend: 0x0, symName: __RNvMNtCsfvfooZQ3Axs_4core6optionINtB2_6OptionNtCsljl79DWYEYJ_14metrics_macros6LabelsE6as_refBJ_, symObjAddr: 0x3DC0, symBinAddr: 0x95EC, symSize: 0x4C }
  - { offset: 0x1B5E9, size: 0x8, addend: 0x0, symName: __RNvMNtCsfvfooZQ3Axs_4core6optionINtB2_6OptionNtCsljl79DWYEYJ_14metrics_macros6LabelsE7is_someBJ_, symObjAddr: 0x3E0C, symBinAddr: 0x9638, symSize: 0x28 }
  - { offset: 0x1B622, size: 0x8, addend: 0x0, symName: __RNvMNtCsfvfooZQ3Axs_4core6optionINtB2_6OptionNtNtCs6IAuOt8vWmF_3syn4expr4ExprE7is_someCsljl79DWYEYJ_14metrics_macros, symObjAddr: 0x3E34, symBinAddr: 0x9660, symSize: 0x28 }
  - { offset: 0x1B6A0, size: 0x8, addend: 0x0, symName: __RNvMs0_NtCse1nGBsou5OW_5alloc7raw_vecINtB5_6RawVecTNtNtCs6IAuOt8vWmF_3syn4expr4ExprBN_EE8grow_oneCsljl79DWYEYJ_14metrics_macros, symObjAddr: 0x3E5C, symBinAddr: 0x9688, symSize: 0x94 }
  - { offset: 0x1B7C5, size: 0x8, addend: 0x0, symName: __RNvMs4_NtNtCsfvfooZQ3Axs_4core5slice4iterINtB5_4IterNtCs3cP53eQoTwO_11proc_macro211TokenStreamE3newCsljl79DWYEYJ_14metrics_macros, symObjAddr: 0x3EF0, symBinAddr: 0x971C, symSize: 0x50 }
  - { offset: 0x1B986, size: 0x8, addend: 0x0, symName: __RNvMs4_NtNtCsfvfooZQ3Axs_4core5slice4iterINtB5_4IterTNtNtCs6IAuOt8vWmF_3syn4expr4ExprBP_EE3newCsljl79DWYEYJ_14metrics_macros, symObjAddr: 0x3F40, symBinAddr: 0x976C, symSize: 0x58 }
  - { offset: 0x1BAA5, size: 0x8, addend: 0x0, symName: __RNvMsE_NtCsfvfooZQ3Axs_4core6optionINtB5_6OptionIBy_NtNtCs6IAuOt8vWmF_3syn4expr4ExprEE7flattenCsljl79DWYEYJ_14metrics_macros, symObjAddr: 0x400C, symBinAddr: 0x9838, symSize: 0x74 }
  - { offset: 0x1BE9F, size: 0x8, addend: 0x0, symName: __RNvYINtNtNtNtCsfvfooZQ3Axs_4core4iter8adapters3map3MapINtNtNtBb_5slice4iter4IterTNtNtCs6IAuOt8vWmF_3syn4expr4ExprB1h_EENCNvCsljl79DWYEYJ_14metrics_macros16labels_to_quoted0ENtNtNtCs2cqEZUIJimJ_5quote9___private3ext14RepIteratorExt15quote_into_iterB1X_, symObjAddr: 0x5210, symBinAddr: 0xAA3C, symSize: 0x2C }
  - { offset: 0x1C464, size: 0x8, addend: 0x0, symName: __RNvXs2_NtNtNtCsfvfooZQ3Axs_4core3ops8function5implsQNCNCNvXs0_Csljl79DWYEYJ_14metrics_macrosNtBY_11DescriptionNtNtCs6IAuOt8vWmF_3syn5parse5Parse5parse00INtB7_6FnOnceTRNtNtB1O_4path11PathSegmentEE9call_onceBY_, symObjAddr: 0x0, symBinAddr: 0xADC8, symSize: 0x2C }
  - { offset: 0x1C486, size: 0x8, addend: 0x0, symName: ___rustc_proc_macro_decls_f83bc032ae4135f7__, symObjAddr: 0x9C20, symBinAddr: 0x1D4760, symSize: 0x0 }
  - { offset: 0x1C499, size: 0x8, addend: 0x0, symName: __RNvXCsljl79DWYEYJ_14metrics_macrosNtB2_17WithoutExpressionNtNtCs6IAuOt8vWmF_3syn5parse5Parse5parse, symObjAddr: 0x58, symBinAddr: 0xAE20, symSize: 0x20C }
  - { offset: 0x1C55A, size: 0x8, addend: 0x0, symName: __RNvXs_Csljl79DWYEYJ_14metrics_macrosNtB4_14WithExpressionNtNtCs6IAuOt8vWmF_3syn5parse5Parse5parse, symObjAddr: 0x264, symBinAddr: 0xB02C, symSize: 0x390 }
  - { offset: 0x1C67B, size: 0x8, addend: 0x0, symName: __RNvXs0_Csljl79DWYEYJ_14metrics_macrosNtB5_11DescriptionNtNtCs6IAuOt8vWmF_3syn5parse5Parse5parse, symObjAddr: 0x5F4, symBinAddr: 0xB3BC, symSize: 0x30C }
  - { offset: 0x1C75E, size: 0x8, addend: 0x0, symName: __RNCNvXs0_Csljl79DWYEYJ_14metrics_macrosNtB7_11DescriptionNtNtCs6IAuOt8vWmF_3syn5parse5Parse5parse0B7_, symObjAddr: 0x900, symBinAddr: 0xB6C8, symSize: 0x574 }
  - { offset: 0x1C80F, size: 0x8, addend: 0x0, symName: __RNCNCNvXs0_Csljl79DWYEYJ_14metrics_macrosNtB9_11DescriptionNtNtCs6IAuOt8vWmF_3syn5parse5Parse5parse00B9_, symObjAddr: 0xE74, symBinAddr: 0xBC3C, symSize: 0x38 }
  - { offset: 0x1C856, size: 0x8, addend: 0x0, symName: __RNvCsljl79DWYEYJ_14metrics_macros16describe_counter, symObjAddr: 0xEAC, symBinAddr: 0xBC74, symSize: 0x280 }
  - { offset: 0x1C8CE, size: 0x8, addend: 0x0, symName: __RNvCsljl79DWYEYJ_14metrics_macros14describe_gauge, symObjAddr: 0x112C, symBinAddr: 0xBEF4, symSize: 0x280 }
  - { offset: 0x1C946, size: 0x8, addend: 0x0, symName: __RNvCsljl79DWYEYJ_14metrics_macros18describe_histogram, symObjAddr: 0x13AC, symBinAddr: 0xC174, symSize: 0x280 }
  - { offset: 0x1C9BE, size: 0x8, addend: 0x0, symName: __RNvCsljl79DWYEYJ_14metrics_macros16register_counter, symObjAddr: 0x162C, symBinAddr: 0xC3F4, symSize: 0x230 }
  - { offset: 0x1CA26, size: 0x8, addend: 0x0, symName: __RNvCsljl79DWYEYJ_14metrics_macros14register_gauge, symObjAddr: 0x185C, symBinAddr: 0xC624, symSize: 0x230 }
  - { offset: 0x1CA8E, size: 0x8, addend: 0x0, symName: __RNvCsljl79DWYEYJ_14metrics_macros18register_histogram, symObjAddr: 0x1A8C, symBinAddr: 0xC854, symSize: 0x230 }
  - { offset: 0x1CAF6, size: 0x8, addend: 0x0, symName: __RNvCsljl79DWYEYJ_14metrics_macros17increment_counter, symObjAddr: 0x1CBC, symBinAddr: 0xCA84, symSize: 0x2D4 }
  - { offset: 0x1CB92, size: 0x8, addend: 0x0, symName: __RNvCsljl79DWYEYJ_14metrics_macros7counter, symObjAddr: 0x1F90, symBinAddr: 0xCD58, symSize: 0x2C8 }
  - { offset: 0x1CC0A, size: 0x8, addend: 0x0, symName: __RNvCsljl79DWYEYJ_14metrics_macros16absolute_counter, symObjAddr: 0x2258, symBinAddr: 0xD020, symSize: 0x2C8 }
  - { offset: 0x1CC82, size: 0x8, addend: 0x0, symName: __RNvCsljl79DWYEYJ_14metrics_macros15increment_gauge, symObjAddr: 0x2520, symBinAddr: 0xD2E8, symSize: 0x2C8 }
  - { offset: 0x1CCFA, size: 0x8, addend: 0x0, symName: __RNvCsljl79DWYEYJ_14metrics_macros15decrement_gauge, symObjAddr: 0x27E8, symBinAddr: 0xD5B0, symSize: 0x2C8 }
  - { offset: 0x1CD72, size: 0x8, addend: 0x0, symName: __RNvCsljl79DWYEYJ_14metrics_macros5gauge, symObjAddr: 0x2AB0, symBinAddr: 0xD878, symSize: 0x2C8 }
  - { offset: 0x1CDEA, size: 0x8, addend: 0x0, symName: __RNvCsljl79DWYEYJ_14metrics_macros9histogram, symObjAddr: 0x2D78, symBinAddr: 0xDB40, symSize: 0x2C8 }
  - { offset: 0x1CE62, size: 0x8, addend: 0x0, symName: __RNvCsljl79DWYEYJ_14metrics_macros17get_describe_code, symObjAddr: 0x3040, symBinAddr: 0xDE08, symSize: 0x758 }
  - { offset: 0x1CFE2, size: 0x8, addend: 0x0, symName: __RINvCsljl79DWYEYJ_14metrics_macros24get_register_and_op_codeNtCs3cP53eQoTwO_11proc_macro211TokenStreamEB2_, symObjAddr: 0x3798, symBinAddr: 0xE560, symSize: 0xBBC }
  - { offset: 0x1D25C, size: 0x8, addend: 0x0, symName: __RINvCsljl79DWYEYJ_14metrics_macros24get_register_and_op_codeNtNtCs6IAuOt8vWmF_3syn4expr4ExprEB2_, symObjAddr: 0x4354, symBinAddr: 0xF11C, symSize: 0xBBC }
  - { offset: 0x1D4D6, size: 0x8, addend: 0x0, symName: __RINvCsljl79DWYEYJ_14metrics_macros24get_register_and_op_codebEB2_, symObjAddr: 0x4F10, symBinAddr: 0xFCD8, symSize: 0xB94 }
  - { offset: 0x1D750, size: 0x8, addend: 0x0, symName: __RNvCsljl79DWYEYJ_14metrics_macros17name_is_fast_path, symObjAddr: 0x5AA4, symBinAddr: 0x1086C, symSize: 0xB4 }
  - { offset: 0x1D794, size: 0x8, addend: 0x0, symName: __RNvCsljl79DWYEYJ_14metrics_macros20labels_are_fast_path, symObjAddr: 0x5B58, symBinAddr: 0x10920, symSize: 0xA4 }
  - { offset: 0x1D7DD, size: 0x8, addend: 0x0, symName: __RNCNvCsljl79DWYEYJ_14metrics_macros20labels_are_fast_path0B3_, symObjAddr: 0x5BFC, symBinAddr: 0x109C4, symSize: 0x84 }
  - { offset: 0x1D840, size: 0x8, addend: 0x0, symName: __RNvCsljl79DWYEYJ_14metrics_macros16generate_statics, symObjAddr: 0x5C80, symBinAddr: 0x10A48, symSize: 0xC08 }
  - { offset: 0x1DB1C, size: 0x8, addend: 0x0, symName: __RNCNvCsljl79DWYEYJ_14metrics_macros16generate_statics0B3_, symObjAddr: 0x6888, symBinAddr: 0x11650, symSize: 0x17C }
  - { offset: 0x1DC06, size: 0x8, addend: 0x0, symName: __RNvCsljl79DWYEYJ_14metrics_macros19generate_metric_key, symObjAddr: 0x6A04, symBinAddr: 0x117CC, symSize: 0xA90 }
  - { offset: 0x1DE6B, size: 0x8, addend: 0x0, symName: __RNvCsljl79DWYEYJ_14metrics_macros16labels_to_quoted, symObjAddr: 0x7494, symBinAddr: 0x1225C, symSize: 0x324 }
  - { offset: 0x1DFC7, size: 0x8, addend: 0x0, symName: __RNCNvCsljl79DWYEYJ_14metrics_macros16labels_to_quoted0B3_, symObjAddr: 0x77B8, symBinAddr: 0x12580, symSize: 0x17C }
  - { offset: 0x1E056, size: 0x8, addend: 0x0, symName: __RNvCsljl79DWYEYJ_14metrics_macros12parse_labels, symObjAddr: 0x7934, symBinAddr: 0x126FC, symSize: 0x9CC }
  - { offset: 0x1E22A, size: 0x8, addend: 0x0, symName: __RNCNvCsljl79DWYEYJ_14metrics_macros12parse_labels0B3_, symObjAddr: 0x8300, symBinAddr: 0x130C8, symSize: 0x8C }
  - { offset: 0x1E264, size: 0x8, addend: 0x0, symName: __RNCNvCsljl79DWYEYJ_14metrics_macros12parse_labelss_0B3_, symObjAddr: 0x838C, symBinAddr: 0x13154, symSize: 0x8C }
  - { offset: 0x20C34, size: 0x8, addend: 0x0, symName: __RNvXs2_NtNtNtCsfvfooZQ3Axs_4core3ops8function5implsQNCNCNvXs0_Csljl79DWYEYJ_14metrics_macrosNtBY_11DescriptionNtNtCs6IAuOt8vWmF_3syn5parse5Parse5parse00INtB7_6FnOnceTRNtNtB1O_4path11PathSegmentEE9call_onceBY_, symObjAddr: 0x0, symBinAddr: 0xADC8, symSize: 0x2C }
  - { offset: 0x20C83, size: 0x8, addend: 0x0, symName: __RNvXs2_NtNtNtCsfvfooZQ3Axs_4core3ops8function5implsQNCNvCsljl79DWYEYJ_14metrics_macros16labels_to_quoted0INtB7_6FnOnceTRTNtNtCs6IAuOt8vWmF_3syn4expr4ExprB1V_EEE9call_onceBS_, symObjAddr: 0x2C, symBinAddr: 0xADF4, symSize: 0x2C }
  - { offset: 0x27CAB, size: 0x8, addend: 0x0, symName: __RINvMNtCse1nGBsou5OW_5alloc5sliceSNtNtB5_6string6String4joinReECsljl79DWYEYJ_14metrics_macros, symObjAddr: 0x0, symBinAddr: 0x131E0, symSize: 0x34 }
  - { offset: 0x27FF6, size: 0x8, addend: 0x0, symName: __RNCNvMs3_NtNtCscOYdFFY2T5N_3std6thread5localINtB7_8LocalKeyINtNtCsfvfooZQ3Axs_4core4cell4CellPuEE7replace0Csljl79DWYEYJ_14metrics_macros, symObjAddr: 0x1434, symBinAddr: 0x14614, symSize: 0x28 }
  - { offset: 0x280B1, size: 0x8, addend: 0x0, symName: __RINvNvNtCscOYdFFY2T5N_3std9panicking3try7do_callINtNtNtCsfvfooZQ3Axs_4core5panic11unwind_safe16AssertUnwindSafeNCINvNtNtCs9i5KxIbZ5ph_10proc_macro6bridge6client10run_clientNtB1Q_11TokenStreamINtNtBR_6option6OptionB2K_ENCNCINvMs7_B1Q_INtB1Q_6ClientNtB1U_11TokenStreamB3X_E7expand1NvCsljl79DWYEYJ_14metrics_macros14describe_gaugeE00E0EuEB4v_, symObjAddr: 0x99C, symBinAddr: 0x13B7C, symSize: 0x50 }
  - { offset: 0x28179, size: 0x8, addend: 0x0, symName: __RINvNvNtCscOYdFFY2T5N_3std9panicking3try7do_callINtNtNtCsfvfooZQ3Axs_4core5panic11unwind_safe16AssertUnwindSafeNCINvNtNtCs9i5KxIbZ5ph_10proc_macro6bridge6client10run_clientNtB1Q_11TokenStreamINtNtBR_6option6OptionB2K_ENCNCINvMs7_B1Q_INtB1Q_6ClientNtB1U_11TokenStreamB3X_E7expand1NvCsljl79DWYEYJ_14metrics_macros14register_gaugeE00E0EuEB4v_, symObjAddr: 0x9EC, symBinAddr: 0x13BCC, symSize: 0x50 }
  - { offset: 0x28241, size: 0x8, addend: 0x0, symName: __RINvNvNtCscOYdFFY2T5N_3std9panicking3try7do_callINtNtNtCsfvfooZQ3Axs_4core5panic11unwind_safe16AssertUnwindSafeNCINvNtNtCs9i5KxIbZ5ph_10proc_macro6bridge6client10run_clientNtB1Q_11TokenStreamINtNtBR_6option6OptionB2K_ENCNCINvMs7_B1Q_INtB1Q_6ClientNtB1U_11TokenStreamB3X_E7expand1NvCsljl79DWYEYJ_14metrics_macros15decrement_gaugeE00E0EuEB4v_, symObjAddr: 0xA3C, symBinAddr: 0x13C1C, symSize: 0x50 }
  - { offset: 0x28309, size: 0x8, addend: 0x0, symName: __RINvNvNtCscOYdFFY2T5N_3std9panicking3try7do_callINtNtNtCsfvfooZQ3Axs_4core5panic11unwind_safe16AssertUnwindSafeNCINvNtNtCs9i5KxIbZ5ph_10proc_macro6bridge6client10run_clientNtB1Q_11TokenStreamINtNtBR_6option6OptionB2K_ENCNCINvMs7_B1Q_INtB1Q_6ClientNtB1U_11TokenStreamB3X_E7expand1NvCsljl79DWYEYJ_14metrics_macros15increment_gaugeE00E0EuEB4v_, symObjAddr: 0xA8C, symBinAddr: 0x13C6C, symSize: 0x50 }
  - { offset: 0x283D1, size: 0x8, addend: 0x0, symName: __RINvNvNtCscOYdFFY2T5N_3std9panicking3try7do_callINtNtNtCsfvfooZQ3Axs_4core5panic11unwind_safe16AssertUnwindSafeNCINvNtNtCs9i5KxIbZ5ph_10proc_macro6bridge6client10run_clientNtB1Q_11TokenStreamINtNtBR_6option6OptionB2K_ENCNCINvMs7_B1Q_INtB1Q_6ClientNtB1U_11TokenStreamB3X_E7expand1NvCsljl79DWYEYJ_14metrics_macros16absolute_counterE00E0EuEB4v_, symObjAddr: 0xADC, symBinAddr: 0x13CBC, symSize: 0x50 }
  - { offset: 0x28499, size: 0x8, addend: 0x0, symName: __RINvNvNtCscOYdFFY2T5N_3std9panicking3try7do_callINtNtNtCsfvfooZQ3Axs_4core5panic11unwind_safe16AssertUnwindSafeNCINvNtNtCs9i5KxIbZ5ph_10proc_macro6bridge6client10run_clientNtB1Q_11TokenStreamINtNtBR_6option6OptionB2K_ENCNCINvMs7_B1Q_INtB1Q_6ClientNtB1U_11TokenStreamB3X_E7expand1NvCsljl79DWYEYJ_14metrics_macros16describe_counterE00E0EuEB4v_, symObjAddr: 0xB2C, symBinAddr: 0x13D0C, symSize: 0x50 }
  - { offset: 0x28561, size: 0x8, addend: 0x0, symName: __RINvNvNtCscOYdFFY2T5N_3std9panicking3try7do_callINtNtNtCsfvfooZQ3Axs_4core5panic11unwind_safe16AssertUnwindSafeNCINvNtNtCs9i5KxIbZ5ph_10proc_macro6bridge6client10run_clientNtB1Q_11TokenStreamINtNtBR_6option6OptionB2K_ENCNCINvMs7_B1Q_INtB1Q_6ClientNtB1U_11TokenStreamB3X_E7expand1NvCsljl79DWYEYJ_14metrics_macros16register_counterE00E0EuEB4v_, symObjAddr: 0xB7C, symBinAddr: 0x13D5C, symSize: 0x50 }
  - { offset: 0x28629, size: 0x8, addend: 0x0, symName: __RINvNvNtCscOYdFFY2T5N_3std9panicking3try7do_callINtNtNtCsfvfooZQ3Axs_4core5panic11unwind_safe16AssertUnwindSafeNCINvNtNtCs9i5KxIbZ5ph_10proc_macro6bridge6client10run_clientNtB1Q_11TokenStreamINtNtBR_6option6OptionB2K_ENCNCINvMs7_B1Q_INtB1Q_6ClientNtB1U_11TokenStreamB3X_E7expand1NvCsljl79DWYEYJ_14metrics_macros17increment_counterE00E0EuEB4v_, symObjAddr: 0xBCC, symBinAddr: 0x13DAC, symSize: 0x50 }
  - { offset: 0x286F1, size: 0x8, addend: 0x0, symName: __RINvNvNtCscOYdFFY2T5N_3std9panicking3try7do_callINtNtNtCsfvfooZQ3Axs_4core5panic11unwind_safe16AssertUnwindSafeNCINvNtNtCs9i5KxIbZ5ph_10proc_macro6bridge6client10run_clientNtB1Q_11TokenStreamINtNtBR_6option6OptionB2K_ENCNCINvMs7_B1Q_INtB1Q_6ClientNtB1U_11TokenStreamB3X_E7expand1NvCsljl79DWYEYJ_14metrics_macros18describe_histogramE00E0EuEB4v_, symObjAddr: 0xC1C, symBinAddr: 0x13DFC, symSize: 0x50 }
  - { offset: 0x287B9, size: 0x8, addend: 0x0, symName: __RINvNvNtCscOYdFFY2T5N_3std9panicking3try7do_callINtNtNtCsfvfooZQ3Axs_4core5panic11unwind_safe16AssertUnwindSafeNCINvNtNtCs9i5KxIbZ5ph_10proc_macro6bridge6client10run_clientNtB1Q_11TokenStreamINtNtBR_6option6OptionB2K_ENCNCINvMs7_B1Q_INtB1Q_6ClientNtB1U_11TokenStreamB3X_E7expand1NvCsljl79DWYEYJ_14metrics_macros18register_histogramE00E0EuEB4v_, symObjAddr: 0xC6C, symBinAddr: 0x13E4C, symSize: 0x50 }
  - { offset: 0x28881, size: 0x8, addend: 0x0, symName: __RINvNvNtCscOYdFFY2T5N_3std9panicking3try7do_callINtNtNtCsfvfooZQ3Axs_4core5panic11unwind_safe16AssertUnwindSafeNCINvNtNtCs9i5KxIbZ5ph_10proc_macro6bridge6client10run_clientNtB1Q_11TokenStreamINtNtBR_6option6OptionB2K_ENCNCINvMs7_B1Q_INtB1Q_6ClientNtB1U_11TokenStreamB3X_E7expand1NvCsljl79DWYEYJ_14metrics_macros5gaugeE00E0EuEB4v_, symObjAddr: 0xCBC, symBinAddr: 0x13E9C, symSize: 0x50 }
  - { offset: 0x28949, size: 0x8, addend: 0x0, symName: __RINvNvNtCscOYdFFY2T5N_3std9panicking3try7do_callINtNtNtCsfvfooZQ3Axs_4core5panic11unwind_safe16AssertUnwindSafeNCINvNtNtCs9i5KxIbZ5ph_10proc_macro6bridge6client10run_clientNtB1Q_11TokenStreamINtNtBR_6option6OptionB2K_ENCNCINvMs7_B1Q_INtB1Q_6ClientNtB1U_11TokenStreamB3X_E7expand1NvCsljl79DWYEYJ_14metrics_macros7counterE00E0EuEB4v_, symObjAddr: 0xD0C, symBinAddr: 0x13EEC, symSize: 0x50 }
  - { offset: 0x28A11, size: 0x8, addend: 0x0, symName: __RINvNvNtCscOYdFFY2T5N_3std9panicking3try7do_callINtNtNtCsfvfooZQ3Axs_4core5panic11unwind_safe16AssertUnwindSafeNCINvNtNtCs9i5KxIbZ5ph_10proc_macro6bridge6client10run_clientNtB1Q_11TokenStreamINtNtBR_6option6OptionB2K_ENCNCINvMs7_B1Q_INtB1Q_6ClientNtB1U_11TokenStreamB3X_E7expand1NvCsljl79DWYEYJ_14metrics_macros9histogramE00E0EuEB4v_, symObjAddr: 0xD5C, symBinAddr: 0x13F3C, symSize: 0x50 }
  - { offset: 0x28AD9, size: 0x8, addend: 0x0, symName: __RINvNvNtCscOYdFFY2T5N_3std9panicking3try8do_catchINtNtNtCsfvfooZQ3Axs_4core5panic11unwind_safe16AssertUnwindSafeNCINvNtNtCs9i5KxIbZ5ph_10proc_macro6bridge6client10run_clientNtB1R_11TokenStreamINtNtBS_6option6OptionB2L_ENCNCINvMs7_B1R_INtB1R_6ClientNtB1V_11TokenStreamB3Y_E7expand1NvCsljl79DWYEYJ_14metrics_macros14describe_gaugeE00E0EuEB4w_, symObjAddr: 0xDAC, symBinAddr: 0x13F8C, symSize: 0x70 }
  - { offset: 0x28B6E, size: 0x8, addend: 0x0, symName: __RINvNvNtCscOYdFFY2T5N_3std9panicking3try8do_catchINtNtNtCsfvfooZQ3Axs_4core5panic11unwind_safe16AssertUnwindSafeNCINvNtNtCs9i5KxIbZ5ph_10proc_macro6bridge6client10run_clientNtB1R_11TokenStreamINtNtBS_6option6OptionB2L_ENCNCINvMs7_B1R_INtB1R_6ClientNtB1V_11TokenStreamB3Y_E7expand1NvCsljl79DWYEYJ_14metrics_macros14register_gaugeE00E0EuEB4w_, symObjAddr: 0xE1C, symBinAddr: 0x13FFC, symSize: 0x70 }
  - { offset: 0x28C03, size: 0x8, addend: 0x0, symName: __RINvNvNtCscOYdFFY2T5N_3std9panicking3try8do_catchINtNtNtCsfvfooZQ3Axs_4core5panic11unwind_safe16AssertUnwindSafeNCINvNtNtCs9i5KxIbZ5ph_10proc_macro6bridge6client10run_clientNtB1R_11TokenStreamINtNtBS_6option6OptionB2L_ENCNCINvMs7_B1R_INtB1R_6ClientNtB1V_11TokenStreamB3Y_E7expand1NvCsljl79DWYEYJ_14metrics_macros15decrement_gaugeE00E0EuEB4w_, symObjAddr: 0xE8C, symBinAddr: 0x1406C, symSize: 0x70 }
  - { offset: 0x28C98, size: 0x8, addend: 0x0, symName: __RINvNvNtCscOYdFFY2T5N_3std9panicking3try8do_catchINtNtNtCsfvfooZQ3Axs_4core5panic11unwind_safe16AssertUnwindSafeNCINvNtNtCs9i5KxIbZ5ph_10proc_macro6bridge6client10run_clientNtB1R_11TokenStreamINtNtBS_6option6OptionB2L_ENCNCINvMs7_B1R_INtB1R_6ClientNtB1V_11TokenStreamB3Y_E7expand1NvCsljl79DWYEYJ_14metrics_macros15increment_gaugeE00E0EuEB4w_, symObjAddr: 0xEFC, symBinAddr: 0x140DC, symSize: 0x70 }
  - { offset: 0x28D2D, size: 0x8, addend: 0x0, symName: __RINvNvNtCscOYdFFY2T5N_3std9panicking3try8do_catchINtNtNtCsfvfooZQ3Axs_4core5panic11unwind_safe16AssertUnwindSafeNCINvNtNtCs9i5KxIbZ5ph_10proc_macro6bridge6client10run_clientNtB1R_11TokenStreamINtNtBS_6option6OptionB2L_ENCNCINvMs7_B1R_INtB1R_6ClientNtB1V_11TokenStreamB3Y_E7expand1NvCsljl79DWYEYJ_14metrics_macros16absolute_counterE00E0EuEB4w_, symObjAddr: 0xF6C, symBinAddr: 0x1414C, symSize: 0x70 }
  - { offset: 0x28DC2, size: 0x8, addend: 0x0, symName: __RINvNvNtCscOYdFFY2T5N_3std9panicking3try8do_catchINtNtNtCsfvfooZQ3Axs_4core5panic11unwind_safe16AssertUnwindSafeNCINvNtNtCs9i5KxIbZ5ph_10proc_macro6bridge6client10run_clientNtB1R_11TokenStreamINtNtBS_6option6OptionB2L_ENCNCINvMs7_B1R_INtB1R_6ClientNtB1V_11TokenStreamB3Y_E7expand1NvCsljl79DWYEYJ_14metrics_macros16describe_counterE00E0EuEB4w_, symObjAddr: 0xFDC, symBinAddr: 0x141BC, symSize: 0x70 }
  - { offset: 0x28E57, size: 0x8, addend: 0x0, symName: __RINvNvNtCscOYdFFY2T5N_3std9panicking3try8do_catchINtNtNtCsfvfooZQ3Axs_4core5panic11unwind_safe16AssertUnwindSafeNCINvNtNtCs9i5KxIbZ5ph_10proc_macro6bridge6client10run_clientNtB1R_11TokenStreamINtNtBS_6option6OptionB2L_ENCNCINvMs7_B1R_INtB1R_6ClientNtB1V_11TokenStreamB3Y_E7expand1NvCsljl79DWYEYJ_14metrics_macros16register_counterE00E0EuEB4w_, symObjAddr: 0x104C, symBinAddr: 0x1422C, symSize: 0x70 }
  - { offset: 0x28EEC, size: 0x8, addend: 0x0, symName: __RINvNvNtCscOYdFFY2T5N_3std9panicking3try8do_catchINtNtNtCsfvfooZQ3Axs_4core5panic11unwind_safe16AssertUnwindSafeNCINvNtNtCs9i5KxIbZ5ph_10proc_macro6bridge6client10run_clientNtB1R_11TokenStreamINtNtBS_6option6OptionB2L_ENCNCINvMs7_B1R_INtB1R_6ClientNtB1V_11TokenStreamB3Y_E7expand1NvCsljl79DWYEYJ_14metrics_macros17increment_counterE00E0EuEB4w_, symObjAddr: 0x10BC, symBinAddr: 0x1429C, symSize: 0x70 }
  - { offset: 0x28F81, size: 0x8, addend: 0x0, symName: __RINvNvNtCscOYdFFY2T5N_3std9panicking3try8do_catchINtNtNtCsfvfooZQ3Axs_4core5panic11unwind_safe16AssertUnwindSafeNCINvNtNtCs9i5KxIbZ5ph_10proc_macro6bridge6client10run_clientNtB1R_11TokenStreamINtNtBS_6option6OptionB2L_ENCNCINvMs7_B1R_INtB1R_6ClientNtB1V_11TokenStreamB3Y_E7expand1NvCsljl79DWYEYJ_14metrics_macros18describe_histogramE00E0EuEB4w_, symObjAddr: 0x112C, symBinAddr: 0x1430C, symSize: 0x70 }
  - { offset: 0x29016, size: 0x8, addend: 0x0, symName: __RINvNvNtCscOYdFFY2T5N_3std9panicking3try8do_catchINtNtNtCsfvfooZQ3Axs_4core5panic11unwind_safe16AssertUnwindSafeNCINvNtNtCs9i5KxIbZ5ph_10proc_macro6bridge6client10run_clientNtB1R_11TokenStreamINtNtBS_6option6OptionB2L_ENCNCINvMs7_B1R_INtB1R_6ClientNtB1V_11TokenStreamB3Y_E7expand1NvCsljl79DWYEYJ_14metrics_macros18register_histogramE00E0EuEB4w_, symObjAddr: 0x119C, symBinAddr: 0x1437C, symSize: 0x70 }
  - { offset: 0x290AB, size: 0x8, addend: 0x0, symName: __RINvNvNtCscOYdFFY2T5N_3std9panicking3try8do_catchINtNtNtCsfvfooZQ3Axs_4core5panic11unwind_safe16AssertUnwindSafeNCINvNtNtCs9i5KxIbZ5ph_10proc_macro6bridge6client10run_clientNtB1R_11TokenStreamINtNtBS_6option6OptionB2L_ENCNCINvMs7_B1R_INtB1R_6ClientNtB1V_11TokenStreamB3Y_E7expand1NvCsljl79DWYEYJ_14metrics_macros5gaugeE00E0EuEB4w_, symObjAddr: 0x120C, symBinAddr: 0x143EC, symSize: 0x70 }
  - { offset: 0x29140, size: 0x8, addend: 0x0, symName: __RINvNvNtCscOYdFFY2T5N_3std9panicking3try8do_catchINtNtNtCsfvfooZQ3Axs_4core5panic11unwind_safe16AssertUnwindSafeNCINvNtNtCs9i5KxIbZ5ph_10proc_macro6bridge6client10run_clientNtB1R_11TokenStreamINtNtBS_6option6OptionB2L_ENCNCINvMs7_B1R_INtB1R_6ClientNtB1V_11TokenStreamB3Y_E7expand1NvCsljl79DWYEYJ_14metrics_macros7counterE00E0EuEB4w_, symObjAddr: 0x127C, symBinAddr: 0x1445C, symSize: 0x70 }
  - { offset: 0x291D5, size: 0x8, addend: 0x0, symName: __RINvNvNtCscOYdFFY2T5N_3std9panicking3try8do_catchINtNtNtCsfvfooZQ3Axs_4core5panic11unwind_safe16AssertUnwindSafeNCINvNtNtCs9i5KxIbZ5ph_10proc_macro6bridge6client10run_clientNtB1R_11TokenStreamINtNtBS_6option6OptionB2L_ENCNCINvMs7_B1R_INtB1R_6ClientNtB1V_11TokenStreamB3Y_E7expand1NvCsljl79DWYEYJ_14metrics_macros9histogramE00E0EuEB4w_, symObjAddr: 0x12EC, symBinAddr: 0x144CC, symSize: 0x70 }
  - { offset: 0x29739, size: 0x8, addend: 0x0, symName: __RNvNvMs1_NtNtCsfvfooZQ3Axs_4core3ptr8non_nullINtB7_7NonNullpE13new_unchecked18precondition_checkCsljl79DWYEYJ_14metrics_macros, symObjAddr: 0x1F34, symBinAddr: 0x15110, symSize: 0x38 }
  - { offset: 0x29CF0, size: 0x8, addend: 0x0, symName: __RNvNvMNtNtCsfvfooZQ3Axs_4core3ptr9const_ptrPp7sub_ptr18precondition_checkCsljl79DWYEYJ_14metrics_macros, symObjAddr: 0x1EF4, symBinAddr: 0x150D0, symSize: 0x40 }
  - { offset: 0x2AC96, size: 0x8, addend: 0x0, symName: __RNvXsp_NtCsfvfooZQ3Axs_4core6resultINtB5_6ResultINtNtB7_6option6OptionNtCsljl79DWYEYJ_14metrics_macros6LabelsENtNtCs6IAuOt8vWmF_3syn5error5ErrorEINtNtNtB7_3ops9try_trait12FromResidualIBy_NtNtB7_7convert10InfallibleB1K_EE13from_residualB18_, symObjAddr: 0x4424, symBinAddr: 0x17600, symSize: 0x48 }
  - { offset: 0x2AD1B, size: 0x8, addend: 0x0, symName: __RNvXsp_NtCsfvfooZQ3Axs_4core6resultINtB5_6ResultINtNtB7_6option6OptionNtNtCs6IAuOt8vWmF_3syn4expr4ExprENtNtB1a_5error5ErrorEINtNtNtB7_3ops9try_trait12FromResidualIBy_NtNtB7_7convert10InfallibleB1D_EE13from_residualCsljl79DWYEYJ_14metrics_macros, symObjAddr: 0x446C, symBinAddr: 0x17648, symSize: 0x48 }
  - { offset: 0x2ADA0, size: 0x8, addend: 0x0, symName: __RNvXsp_NtCsfvfooZQ3Axs_4core6resultINtB5_6ResultNtCsljl79DWYEYJ_14metrics_macros11DescriptionNtNtCs6IAuOt8vWmF_3syn5error5ErrorEINtNtNtB7_3ops9try_trait12FromResidualIBy_NtNtB7_7convert10InfallibleB1t_EE13from_residualBM_, symObjAddr: 0x44B4, symBinAddr: 0x17690, symSize: 0x48 }
  - { offset: 0x2AE25, size: 0x8, addend: 0x0, symName: __RNvXsp_NtCsfvfooZQ3Axs_4core6resultINtB5_6ResultNtCsljl79DWYEYJ_14metrics_macros14WithExpressionNtNtCs6IAuOt8vWmF_3syn5error5ErrorEINtNtNtB7_3ops9try_trait12FromResidualIBy_NtNtB7_7convert10InfallibleB1w_EE13from_residualBM_, symObjAddr: 0x44FC, symBinAddr: 0x176D8, symSize: 0x48 }
  - { offset: 0x2AEAA, size: 0x8, addend: 0x0, symName: __RNvXsp_NtCsfvfooZQ3Axs_4core6resultINtB5_6ResultNtCsljl79DWYEYJ_14metrics_macros17WithoutExpressionNtNtCs6IAuOt8vWmF_3syn5error5ErrorEINtNtNtB7_3ops9try_trait12FromResidualIBy_NtNtB7_7convert10InfallibleB1z_EE13from_residualBM_, symObjAddr: 0x4544, symBinAddr: 0x17720, symSize: 0x48 }
  - { offset: 0x2B076, size: 0x8, addend: 0x0, symName: __RNvXso_NtCsfvfooZQ3Axs_4core6resultINtB5_6ResultINtNtB7_6option6OptionNtCsljl79DWYEYJ_14metrics_macros6LabelsENtNtCs6IAuOt8vWmF_3syn5error5ErrorENtNtNtB7_3ops9try_trait3Try6branchB18_, symObjAddr: 0x404C, symBinAddr: 0x17228, symSize: 0xB4 }
  - { offset: 0x2B0F4, size: 0x8, addend: 0x0, symName: __RNvXso_NtCsfvfooZQ3Axs_4core6resultINtB5_6ResultNtCsljl79DWYEYJ_14metrics_macros11DescriptionNtNtCs6IAuOt8vWmF_3syn5error5ErrorENtNtNtB7_3ops9try_trait3Try6branchBM_, symObjAddr: 0x4100, symBinAddr: 0x172DC, symSize: 0xB4 }
  - { offset: 0x2B172, size: 0x8, addend: 0x0, symName: __RNvXso_NtCsfvfooZQ3Axs_4core6resultINtB5_6ResultNtCsljl79DWYEYJ_14metrics_macros14WithExpressionNtNtCs6IAuOt8vWmF_3syn5error5ErrorENtNtNtB7_3ops9try_trait3Try6branchBM_, symObjAddr: 0x41B4, symBinAddr: 0x17390, symSize: 0xB4 }
  - { offset: 0x2B1F0, size: 0x8, addend: 0x0, symName: __RNvXso_NtCsfvfooZQ3Axs_4core6resultINtB5_6ResultNtCsljl79DWYEYJ_14metrics_macros17WithoutExpressionNtNtCs6IAuOt8vWmF_3syn5error5ErrorENtNtNtB7_3ops9try_trait3Try6branchBM_, symObjAddr: 0x4268, symBinAddr: 0x17444, symSize: 0xB4 }
  - { offset: 0x2DAE7, size: 0x8, addend: 0x0, symName: __RNvXs1_NtCsfvfooZQ3Axs_4core7convertNtCs3cP53eQoTwO_11proc_macro211TokenStreamINtB5_4IntoNtCs9i5KxIbZ5ph_10proc_macro11TokenStreamE4intoCsljl79DWYEYJ_14metrics_macros, symObjAddr: 0x2A80, symBinAddr: 0x15C5C, symSize: 0x14 }
  - { offset: 0x2DF4B, size: 0x8, addend: 0x0, symName: __RNvNvNtCsfvfooZQ3Axs_4core10intrinsics19copy_nonoverlapping18precondition_checkCsljl79DWYEYJ_14metrics_macros, symObjAddr: 0x1F6C, symBinAddr: 0x15148, symSize: 0x2E4 }
  - { offset: 0x2E832, size: 0x8, addend: 0x0, symName: __RNvMNtCsfvfooZQ3Axs_4core5sliceSNtCs3cP53eQoTwO_11proc_macro211TokenStream4iterCsljl79DWYEYJ_14metrics_macros, symObjAddr: 0x14E0, symBinAddr: 0x146C0, symSize: 0x28 }
  - { offset: 0x2E869, size: 0x8, addend: 0x0, symName: __RNvMNtCsfvfooZQ3Axs_4core5sliceSTNtNtCs6IAuOt8vWmF_3syn4expr4ExprBv_E4iterCsljl79DWYEYJ_14metrics_macros, symObjAddr: 0x1508, symBinAddr: 0x146E8, symSize: 0x28 }
  - { offset: 0x2E8EE, size: 0x8, addend: 0x0, symName: __RNvMNtCsfvfooZQ3Axs_4core5sliceSh15copy_from_sliceCsljl79DWYEYJ_14metrics_macros, symObjAddr: 0x1530, symBinAddr: 0x14710, symSize: 0xA4 }
  - { offset: 0x2EAF6, size: 0x8, addend: 0x0, symName: __RNvNvNtNtCsfvfooZQ3Axs_4core5slice3raw14from_raw_parts18precondition_checkCsljl79DWYEYJ_14metrics_macros, symObjAddr: 0x226C, symBinAddr: 0x15448, symSize: 0x168 }
  - { offset: 0x2EC3C, size: 0x8, addend: 0x0, symName: __RNvNvNtNtCsfvfooZQ3Axs_4core5slice3raw18from_raw_parts_mut18precondition_checkCsljl79DWYEYJ_14metrics_macros, symObjAddr: 0x23D4, symBinAddr: 0x155B0, symSize: 0x168 }
  - { offset: 0x2EDBD, size: 0x8, addend: 0x0, symName: __RNvNvXs2_NtNtCsfvfooZQ3Axs_4core5slice5indexINtNtNtBb_3ops5range5RangejEINtB7_10SliceIndexSpE17get_unchecked_mut18precondition_checkCsljl79DWYEYJ_14metrics_macros, symObjAddr: 0x253C, symBinAddr: 0x15718, symSize: 0x60 }
  - { offset: 0x2EF81, size: 0x8, addend: 0x0, symName: __RINvYINtNtCs6IAuOt8vWmF_3syn10punctuated4IterNtNtB8_4path11PathSegmentENtNtNtNtCsfvfooZQ3Axs_4core4iter6traits8iterator8Iterator3mapNtNtCse1nGBsou5OW_5alloc6string6StringNCNCNvXs0_Csljl79DWYEYJ_14metrics_macrosNtB2S_11DescriptionNtNtB8_5parse5Parse5parse00EB2S_, symObjAddr: 0x13DC, symBinAddr: 0x145BC, symSize: 0x1C }
  - { offset: 0x2F448, size: 0x8, addend: 0x0, symName: __RNvNvNtCsfvfooZQ3Axs_4core4hint21unreachable_unchecked18precondition_checkCsljl79DWYEYJ_14metrics_macros, symObjAddr: 0x2250, symBinAddr: 0x1542C, symSize: 0x1C }
  - { offset: 0x2F4A7, size: 0x8, addend: 0x0, symName: __RNvXs_NtCsfvfooZQ3Axs_4core3streINtNtB6_7convert5AsRefShE6as_refCsljl79DWYEYJ_14metrics_macros, symObjAddr: 0x31B8, symBinAddr: 0x16394, symSize: 0x18 }
  - { offset: 0x2FD9B, size: 0x8, addend: 0x0, symName: __RNvXs5_NtNtCs9i5KxIbZ5ph_10proc_macro6bridge6bufferNtB5_6BufferNtNtNtCsfvfooZQ3Axs_4core3ops4drop4Drop4dropCsljl79DWYEYJ_14metrics_macros, symObjAddr: 0x2B44, symBinAddr: 0x15D20, symSize: 0x8C }
  - { offset: 0x2FF24, size: 0x8, addend: 0x0, symName: __RNvXNtNtCs9i5KxIbZ5ph_10proc_macro6bridge3rpcuINtB2_6EncodeuE6encodeCsljl79DWYEYJ_14metrics_macros, symObjAddr: 0x26E0, symBinAddr: 0x158BC, symSize: 0x14 }
  - { offset: 0x2FF6B, size: 0x8, addend: 0x0, symName: __RNvXs9_NtNtCs9i5KxIbZ5ph_10proc_macro6bridge3rpcTINtB7_11ExpnGlobalsNtNtB7_6client4SpanENtB16_11TokenStreamEINtB5_9DecodeMutuE6decodeCsljl79DWYEYJ_14metrics_macros, symObjAddr: 0x2DEC, symBinAddr: 0x15FC8, symSize: 0x84 }
  - { offset: 0x30058, size: 0x8, addend: 0x0, symName: __RNvXsa_NtNtCs9i5KxIbZ5ph_10proc_macro6bridge3rpcRShINtB5_6EncodeuE6encodeCsljl79DWYEYJ_14metrics_macros, symObjAddr: 0x336C, symBinAddr: 0x16548, symSize: 0xD0 }
  - { offset: 0x3015A, size: 0x8, addend: 0x0, symName: __RNvXsc_NtNtCs9i5KxIbZ5ph_10proc_macro6bridge3rpcReINtB5_6EncodeuE6encodeCsljl79DWYEYJ_14metrics_macros, symObjAddr: 0x343C, symBinAddr: 0x16618, symSize: 0x38 }
  - { offset: 0x30242, size: 0x8, addend: 0x0, symName: __RNvXsl_NtNtCs9i5KxIbZ5ph_10proc_macro6bridge3rpcNtB5_12PanicMessageINtB5_6EncodeuE6encodeCsljl79DWYEYJ_14metrics_macros, symObjAddr: 0x3E7C, symBinAddr: 0x17058, symSize: 0x128 }
  - { offset: 0x30408, size: 0x8, addend: 0x0, symName: __RNvXso_NtNtCs9i5KxIbZ5ph_10proc_macro6bridge3rpcmINtB5_9DecodeMutuE6decodeCsljl79DWYEYJ_14metrics_macros, symObjAddr: 0x431C, symBinAddr: 0x174F8, symSize: 0x108 }
  - { offset: 0x30556, size: 0x8, addend: 0x0, symName: __RNvXs1J_NtCs9i5KxIbZ5ph_10proc_macro6bridgeINtB6_11ExpnGlobalsNtNtB6_6client4SpanEINtNtB6_3rpc9DecodeMutuE6decodeCsljl79DWYEYJ_14metrics_macros, symObjAddr: 0x29D0, symBinAddr: 0x15BAC, symSize: 0xB0 }
  - { offset: 0x305A8, size: 0x8, addend: 0x0, symName: __RNvXsV_NtCs9i5KxIbZ5ph_10proc_macro6bridgeINtNtCsfvfooZQ3Axs_4core6result6ResultINtNtBJ_6option6OptionNtNtB5_6client11TokenStreamEuEINtNtB5_3rpc6EncodeuE6encodeCsljl79DWYEYJ_14metrics_macros, symObjAddr: 0x2E70, symBinAddr: 0x1604C, symSize: 0x108 }
  - { offset: 0x3066C, size: 0x8, addend: 0x0, symName: __RNvXsV_NtCs9i5KxIbZ5ph_10proc_macro6bridgeINtNtCsfvfooZQ3Axs_4core6result6ResultuNtNtB5_3rpc12PanicMessageEINtB1j_6EncodeuE6encodeCsljl79DWYEYJ_14metrics_macros, symObjAddr: 0x2F78, symBinAddr: 0x16154, symSize: 0x12C }
  - { offset: 0x30DA8, size: 0x8, addend: 0x0, symName: __RINvMNtCse1nGBsou5OW_5alloc5sliceSNtNtB5_6string6String4joinReECsljl79DWYEYJ_14metrics_macros, symObjAddr: 0x0, symBinAddr: 0x131E0, symSize: 0x34 }
  - { offset: 0x31808, size: 0x8, addend: 0x0, symName: __RINvXsd_NtCse1nGBsou5OW_5alloc3vecINtB6_3VecNtCs3cP53eQoTwO_11proc_macro211TokenStreamEINtNtNtNtCsfvfooZQ3Axs_4core4iter6traits7collect12FromIteratorBG_E9from_iterINtNtNtB1u_8adapters3map3MapINtNtNtB1w_5slice4iter4IterTNtNtCs6IAuOt8vWmF_3syn4expr4ExprB3v_EENCNvCsljl79DWYEYJ_14metrics_macros16generate_statics0EEB4b_, symObjAddr: 0x135C, symBinAddr: 0x1453C, symSize: 0x40 }
  - { offset: 0x31848, size: 0x8, addend: 0x0, symName: __RINvXsd_NtCse1nGBsou5OW_5alloc3vecINtB6_3VecNtNtB8_6string6StringEINtNtNtNtCsfvfooZQ3Axs_4core4iter6traits7collect12FromIteratorBG_E9from_iterINtNtNtB19_8adapters3map3MapINtNtCs6IAuOt8vWmF_3syn10punctuated4IterNtNtB2N_4path11PathSegmentENCNCNvXs0_Csljl79DWYEYJ_14metrics_macrosNtB3X_11DescriptionNtNtB2N_5parse5Parse5parse00EEB3X_, symObjAddr: 0x139C, symBinAddr: 0x1457C, symSize: 0x40 }
  - { offset: 0x31893, size: 0x8, addend: 0x0, symName: __RNCINvMsi_NtCse1nGBsou5OW_5alloc3vecINtB8_3VecNtCs3cP53eQoTwO_11proc_macro211TokenStreamE14extend_trustedINtNtNtNtCsfvfooZQ3Axs_4core4iter8adapters3map3MapINtNtNtB1O_5slice4iter4IterTNtNtCs6IAuOt8vWmF_3syn4expr4ExprB2V_EENCNvCsljl79DWYEYJ_14metrics_macros16generate_statics0EE0B3B_, symObjAddr: 0x13F8, symBinAddr: 0x145D8, symSize: 0x3C }
  - { offset: 0x31A47, size: 0x8, addend: 0x0, symName: __RNvXNtNtCse1nGBsou5OW_5alloc3vec11spec_extendINtB4_3VecNtNtB6_6string6StringEINtB2_10SpecExtendBR_INtNtNtNtCsfvfooZQ3Axs_4core4iter8adapters3map3MapINtNtCs6IAuOt8vWmF_3syn10punctuated4IterNtNtB2r_4path11PathSegmentENCNCNvXs0_Csljl79DWYEYJ_14metrics_macrosNtB3B_11DescriptionNtNtB2r_5parse5Parse5parse00EE11spec_extendB3B_, symObjAddr: 0x26F4, symBinAddr: 0x158D0, symSize: 0x34 }
  - { offset: 0x31A9E, size: 0x8, addend: 0x0, symName: __RNvXs_NtNtCse1nGBsou5OW_5alloc3vec11spec_extendINtB6_3VecNtCs3cP53eQoTwO_11proc_macro211TokenStreamEINtB4_10SpecExtendBT_INtNtNtNtCsfvfooZQ3Axs_4core4iter8adapters3map3MapINtNtNtB24_5slice4iter4IterTNtNtCs6IAuOt8vWmF_3syn4expr4ExprB3b_EENCNvCsljl79DWYEYJ_14metrics_macros16generate_statics0EE11spec_extendB3R_, symObjAddr: 0x31D0, symBinAddr: 0x163AC, symSize: 0x34 }
  - { offset: 0x31AFB, size: 0x8, addend: 0x0, symName: __RNvXNtNtCse1nGBsou5OW_5alloc3vec14spec_from_iterINtB4_3VecNtCs3cP53eQoTwO_11proc_macro211TokenStreamEINtB2_12SpecFromIterBU_INtNtNtNtCsfvfooZQ3Axs_4core4iter8adapters3map3MapINtNtNtB27_5slice4iter4IterTNtNtCs6IAuOt8vWmF_3syn4expr4ExprB3e_EENCNvCsljl79DWYEYJ_14metrics_macros16generate_statics0EE9from_iterB3U_, symObjAddr: 0x2728, symBinAddr: 0x15904, symSize: 0x2C }
  - { offset: 0x31B39, size: 0x8, addend: 0x0, symName: __RNvXNtNtCse1nGBsou5OW_5alloc3vec14spec_from_iterINtB4_3VecNtNtB6_6string6StringEINtB2_12SpecFromIterBU_INtNtNtNtCsfvfooZQ3Axs_4core4iter8adapters3map3MapINtNtCs6IAuOt8vWmF_3syn10punctuated4IterNtNtB2w_4path11PathSegmentENCNCNvXs0_Csljl79DWYEYJ_14metrics_macrosNtB3G_11DescriptionNtNtB2w_5parse5Parse5parse00EE9from_iterB3G_, symObjAddr: 0x2754, symBinAddr: 0x15930, symSize: 0x2C }
  - { offset: 0x31B83, size: 0x8, addend: 0x0, symName: __RNvXNtNtCse1nGBsou5OW_5alloc3vec21spec_from_iter_nestedINtB4_3VecNtNtB6_6string6StringEINtB2_18SpecFromIterNestedB11_INtNtNtNtCsfvfooZQ3Axs_4core4iter8adapters3map3MapINtNtCs6IAuOt8vWmF_3syn10punctuated4IterNtNtB2K_4path11PathSegmentENCNCNvXs0_Csljl79DWYEYJ_14metrics_macrosNtB3U_11DescriptionNtNtB2K_5parse5Parse5parse00EE9from_iterB3U_, symObjAddr: 0x2780, symBinAddr: 0x1595C, symSize: 0x224 }
  - { offset: 0x31DA7, size: 0x8, addend: 0x0, symName: __RNvXs_NtNtCse1nGBsou5OW_5alloc3vec21spec_from_iter_nestedINtB6_3VecNtCs3cP53eQoTwO_11proc_macro211TokenStreamEINtB4_18SpecFromIterNestedB13_INtNtNtNtCsfvfooZQ3Axs_4core4iter8adapters3map3MapINtNtNtB2n_5slice4iter4IterTNtNtCs6IAuOt8vWmF_3syn4expr4ExprB3u_EENCNvCsljl79DWYEYJ_14metrics_macros16generate_statics0EE9from_iterB4a_, symObjAddr: 0x3204, symBinAddr: 0x163E0, symSize: 0x168 }
  - { offset: 0x31E84, size: 0x8, addend: 0x0, symName: __RNvXs6_NtCse1nGBsou5OW_5alloc3vecINtB5_3VecNtCs3cP53eQoTwO_11proc_macro211TokenStreamENtNtNtCsfvfooZQ3Axs_4core3ops5deref5Deref5derefCsljl79DWYEYJ_14metrics_macros, symObjAddr: 0x2C0C, symBinAddr: 0x15DE8, symSize: 0x24 }
  - { offset: 0x31EC4, size: 0x8, addend: 0x0, symName: __RNvXs6_NtCse1nGBsou5OW_5alloc3vecINtB5_3VecNtNtB7_6string6StringENtNtNtCsfvfooZQ3Axs_4core3ops5deref5Deref5derefCsljl79DWYEYJ_14metrics_macros, symObjAddr: 0x2C30, symBinAddr: 0x15E0C, symSize: 0x24 }
  - { offset: 0x31F04, size: 0x8, addend: 0x0, symName: __RNvXs6_NtCse1nGBsou5OW_5alloc3vecINtB5_3VecTNtNtCs6IAuOt8vWmF_3syn4expr4ExprBG_EENtNtNtCsfvfooZQ3Axs_4core3ops5deref5Deref5derefCsljl79DWYEYJ_14metrics_macros, symObjAddr: 0x2C54, symBinAddr: 0x15E30, symSize: 0x24 }
  - { offset: 0x31F4A, size: 0x8, addend: 0x0, symName: __RNvXsn_NtCse1nGBsou5OW_5alloc3vecINtB5_3VecNtCs3cP53eQoTwO_11proc_macro211TokenStreamENtNtNtCsfvfooZQ3Axs_4core3ops4drop4Drop4dropCsljl79DWYEYJ_14metrics_macros, symObjAddr: 0x3FA4, symBinAddr: 0x17180, symSize: 0x38 }
  - { offset: 0x31FFA, size: 0x8, addend: 0x0, symName: __RNvXsn_NtCse1nGBsou5OW_5alloc3vecINtB5_3VecNtNtB7_6string6StringENtNtNtCsfvfooZQ3Axs_4core3ops4drop4Drop4dropCsljl79DWYEYJ_14metrics_macros, symObjAddr: 0x3FDC, symBinAddr: 0x171B8, symSize: 0x38 }
  - { offset: 0x320AA, size: 0x8, addend: 0x0, symName: __RNvXsn_NtCse1nGBsou5OW_5alloc3vecINtB5_3VecTNtNtCs6IAuOt8vWmF_3syn4expr4ExprBG_EENtNtNtCsfvfooZQ3Axs_4core3ops4drop4Drop4dropCsljl79DWYEYJ_14metrics_macros, symObjAddr: 0x4014, symBinAddr: 0x171F0, symSize: 0x38 }
  - { offset: 0x322F6, size: 0x8, addend: 0x0, symName: __RNvXs_NtCse1nGBsou5OW_5alloc5allocNtB4_6GlobalNtNtCsfvfooZQ3Axs_4core5alloc9Allocator10deallocateCsljl79DWYEYJ_14metrics_macros, symObjAddr: 0x3130, symBinAddr: 0x1630C, symSize: 0x88 }
  - { offset: 0x32E51, size: 0x8, addend: 0x0, symName: __RNvXss_NtCse1nGBsou5OW_5alloc6stringNtB5_6StringNtNtNtCsfvfooZQ3Axs_4core3ops5deref5Deref5derefCsljl79DWYEYJ_14metrics_macros, symObjAddr: 0x458C, symBinAddr: 0x17768, symSize: 0x24 }
  - { offset: 0x32E86, size: 0x8, addend: 0x0, symName: __RNvNtCse1nGBsou5OW_5alloc3fmt6formatCsljl79DWYEYJ_14metrics_macros, symObjAddr: 0x1E1C, symBinAddr: 0x14FFC, symSize: 0xD4 }
  - { offset: 0x32EEC, size: 0x8, addend: 0x0, symName: __RNvXs0_NtCse1nGBsou5OW_5alloc3strNtNtB7_6string6StringINtNtCsfvfooZQ3Axs_4core6borrow6BorroweE6borrowCsljl79DWYEYJ_14metrics_macros, symObjAddr: 0x29A4, symBinAddr: 0x15B80, symSize: 0x2C }
  - { offset: 0x32F1E, size: 0x8, addend: 0x0, symName: __RNvXs_NtCse1nGBsou5OW_5alloc3strSNtNtB6_6string6StringINtNtB6_5slice4JoinReE4joinCsljl79DWYEYJ_14metrics_macros, symObjAddr: 0x30E0, symBinAddr: 0x162BC, symSize: 0x50 }
  - { offset: 0x32F8A, size: 0x8, addend: 0x0, symName: __RNvXs6_NtCse1nGBsou5OW_5alloc5boxedINtB5_3BoxDNtNtCsfvfooZQ3Axs_4core5error5ErrorNtNtBM_6marker4SendNtB1j_4SyncEL_ENtNtNtBM_3ops4drop4Drop4dropCsljl79DWYEYJ_14metrics_macros, symObjAddr: 0x2C78, symBinAddr: 0x15E54, symSize: 0xC4 }
  - { offset: 0x330C1, size: 0x8, addend: 0x0, symName: __RNvXs6_NtCse1nGBsou5OW_5alloc5boxedINtB5_3BoxNtNtNtCscOYdFFY2T5N_3std2io5error6CustomENtNtNtCsfvfooZQ3Axs_4core3ops4drop4Drop4dropCsljl79DWYEYJ_14metrics_macros, symObjAddr: 0x2D3C, symBinAddr: 0x15F18, symSize: 0xB0 }
  - { offset: 0x351AD, size: 0x8, addend: 0x0, symName: __RNvXst_NtCs6IAuOt8vWmF_3syn10punctuatedINtB5_4IterNtNtB7_4path11PathSegmentENtNtNtNtCsfvfooZQ3Axs_4core4iter6traits8iterator8Iterator9size_hintCsljl79DWYEYJ_14metrics_macros, symObjAddr: 0x45B0, symBinAddr: 0x1778C, symSize: 0x7C }
  - { offset: 0x351EA, size: 0x8, addend: 0x0, symName: __RNvXsv_NtCs6IAuOt8vWmF_3syn10punctuatedINtB5_4IterNtNtB7_4path11PathSegmentENtNtNtNtCsfvfooZQ3Axs_4core4iter6traits10exact_size17ExactSizeIterator3lenCsljl79DWYEYJ_14metrics_macros, symObjAddr: 0x462C, symBinAddr: 0x17808, symSize: 0x48 }
  - { offset: 0x38047, size: 0x8, addend: 0x0, symName: __RNvXsh_NtCs6IAuOt8vWmF_3syn5parseNvYNtCsljl79DWYEYJ_14metrics_macros11DescriptionNtB5_5Parse5parseNtB5_6Parser6parse2BA_, symObjAddr: 0x3474, symBinAddr: 0x16650, symSize: 0x358 }
  - { offset: 0x38157, size: 0x8, addend: 0x0, symName: __RNvXsh_NtCs6IAuOt8vWmF_3syn5parseNvYNtCsljl79DWYEYJ_14metrics_macros14WithExpressionNtB5_5Parse5parseNtB5_6Parser6parse2BA_, symObjAddr: 0x37CC, symBinAddr: 0x169A8, symSize: 0x358 }
  - { offset: 0x38267, size: 0x8, addend: 0x0, symName: __RNvXsh_NtCs6IAuOt8vWmF_3syn5parseNvYNtCsljl79DWYEYJ_14metrics_macros17WithoutExpressionNtB5_5Parse5parseNtB5_6Parser6parse2BA_, symObjAddr: 0x3B24, symBinAddr: 0x16D00, symSize: 0x358 }
  - { offset: 0x3837D, size: 0x8, addend: 0x0, symName: __RNvYNvYNtCsljl79DWYEYJ_14metrics_macros11DescriptionNtNtCs6IAuOt8vWmF_3syn5parse5Parse5parseNtBQ_6Parser5parseB7_, symObjAddr: 0x4674, symBinAddr: 0x17850, symSize: 0x88 }
  - { offset: 0x383C3, size: 0x8, addend: 0x0, symName: __RNvYNvYNtCsljl79DWYEYJ_14metrics_macros14WithExpressionNtNtCs6IAuOt8vWmF_3syn5parse5Parse5parseNtBT_6Parser5parseB7_, symObjAddr: 0x46FC, symBinAddr: 0x178D8, symSize: 0x88 }
  - { offset: 0x38409, size: 0x8, addend: 0x0, symName: __RNvYNvYNtCsljl79DWYEYJ_14metrics_macros17WithoutExpressionNtNtCs6IAuOt8vWmF_3syn5parse5Parse5parseNtBW_6Parser5parseB7_, symObjAddr: 0x4784, symBinAddr: 0x17960, symSize: 0x88 }
  - { offset: 0x385AD, size: 0x8, addend: 0x0, symName: __RNvXs_NtCs6IAuOt8vWmF_3syn5dropsINtB4_6NoDropDINtNtB6_10punctuated9IterTraitNtNtB6_4path11PathSegmentEp4ItemRB1c_EL_ENtNtNtCsfvfooZQ3Axs_4core3ops5deref5Deref5derefCsljl79DWYEYJ_14metrics_macros, symObjAddr: 0x30A4, symBinAddr: 0x16280, symSize: 0x3C }
  - { offset: 0x38C29, size: 0x8, addend: 0x0, symName: __RINvMNtCsfvfooZQ3Axs_4core6resultINtB3_6ResultNtNtCs6IAuOt8vWmF_3syn4expr4ExprNtNtBM_5error5ErrorE7map_errB1e_NCNvCsljl79DWYEYJ_14metrics_macros12parse_labelss_0EB1O_, symObjAddr: 0x34, symBinAddr: 0x13214, symSize: 0xC0 }
  - { offset: 0x38CBD, size: 0x8, addend: 0x0, symName: __RINvMNtCsfvfooZQ3Axs_4core6resultINtB3_6ResultNtNtCs6IAuOt8vWmF_3syn5token5CommaNtNtBM_5error5ErrorE7map_errB1g_NCNvCsljl79DWYEYJ_14metrics_macros12parse_labels0EB1Q_, symObjAddr: 0xF4, symBinAddr: 0x132D4, symSize: 0xA4 }
  - { offset: 0x38D8F, size: 0x8, addend: 0x0, symName: __RINvMs2_NtNtCscOYdFFY2T5N_3std6thread5localINtB6_8LocalKeyINtNtCsfvfooZQ3Axs_4core4cell4CellPuEE4withNCNvMs3_B6_BF_7replace0B1s_ECsljl79DWYEYJ_14metrics_macros, symObjAddr: 0x198, symBinAddr: 0x13378, symSize: 0x54 }
  - { offset: 0x38E48, size: 0x8, addend: 0x0, symName: __RINvMs2_NtNtCscOYdFFY2T5N_3std6thread5localINtB6_8LocalKeyINtNtCsfvfooZQ3Axs_4core4cell4CellPuEE8try_withNCNvMs3_B6_BF_7replace0B1s_ECsljl79DWYEYJ_14metrics_macros, symObjAddr: 0x1EC, symBinAddr: 0x133CC, symSize: 0xE4 }
  - { offset: 0x39012, size: 0x8, addend: 0x0, symName: __RINvMs3_NtNtCs9i5KxIbZ5ph_10proc_macro6bridge6bufferNtB6_6Buffer17extend_from_arrayKj4_ECsljl79DWYEYJ_14metrics_macros, symObjAddr: 0x2D0, symBinAddr: 0x134B0, symSize: 0x16C }
  - { offset: 0x391D8, size: 0x8, addend: 0x0, symName: __RINvMs3_NtNtCs9i5KxIbZ5ph_10proc_macro6bridge6bufferNtB6_6Buffer17extend_from_arrayKj8_ECsljl79DWYEYJ_14metrics_macros, symObjAddr: 0x43C, symBinAddr: 0x1361C, symSize: 0x16C }
  - { offset: 0x393C5, size: 0x8, addend: 0x0, symName: __RINvMs9_NtCs6IAuOt8vWmF_3syn5parseNtB6_11ParseBuffer4callINtNtCsfvfooZQ3Axs_4core6option6OptionNtNtB8_4expr4ExprEECsljl79DWYEYJ_14metrics_macros, symObjAddr: 0x5A8, symBinAddr: 0x13788, symSize: 0x38 }
  - { offset: 0x39418, size: 0x8, addend: 0x0, symName: __RINvMs9_NtCs6IAuOt8vWmF_3syn5parseNtB6_11ParseBuffer5peek3INvNtB8_5token8FatArrowNtNtB8_9lookahead11TokenMarkerEECsljl79DWYEYJ_14metrics_macros, symObjAddr: 0x5E0, symBinAddr: 0x137C0, symSize: 0x3C }
  - { offset: 0x3951E, size: 0x8, addend: 0x0, symName: __RNvXs4_NtCs2cqEZUIJimJ_5quote9___privateINtB5_9RepInterpNtCs3cP53eQoTwO_11proc_macro211TokenStreamENtNtB7_9to_tokens8ToTokens9to_tokensCsljl79DWYEYJ_14metrics_macros, symObjAddr: 0x2A94, symBinAddr: 0x15C70, symSize: 0x3C }
  - { offset: 0x3955D, size: 0x8, addend: 0x0, symName: __RNvXs4_NtCs2cqEZUIJimJ_5quote9___privateINtB5_9RepInterpRNtCs3cP53eQoTwO_11proc_macro211TokenStreamENtNtB7_9to_tokens8ToTokens9to_tokensCsljl79DWYEYJ_14metrics_macros, symObjAddr: 0x2AD0, symBinAddr: 0x15CAC, symSize: 0x3C }
  - { offset: 0x395A7, size: 0x8, addend: 0x0, symName: __RNvXs4_NtNtCs2cqEZUIJimJ_5quote9___private3extINtNtCse1nGBsou5OW_5alloc3vec3VecNtCs3cP53eQoTwO_11proc_macro211TokenStreamENtB5_16RepAsIteratorExt15quote_into_iterCsljl79DWYEYJ_14metrics_macros, symObjAddr: 0x2B0C, symBinAddr: 0x15CE8, symSize: 0x38 }
  - { offset: 0x395E3, size: 0x8, addend: 0x0, symName: __RNvXs6_NtCs2cqEZUIJimJ_5quote9___privateINtB5_20IdentFragmentAdapterRReENtNtCsfvfooZQ3Axs_4core3fmt7Display3fmtCsljl79DWYEYJ_14metrics_macros, symObjAddr: 0x2BD0, symBinAddr: 0x15DAC, symSize: 0x3C }
  - { offset: 0x39679, size: 0x8, addend: 0x0, symName: __RNvXNtCs2cqEZUIJimJ_5quote14ident_fragmentRReNtB2_13IdentFragment3fmtCsljl79DWYEYJ_14metrics_macros, symObjAddr: 0x259C, symBinAddr: 0x15778, symSize: 0x40 }
  - { offset: 0x396BC, size: 0x8, addend: 0x0, symName: __RNvXNtCs2cqEZUIJimJ_5quote14ident_fragmentRReNtB2_13IdentFragment4spanCsljl79DWYEYJ_14metrics_macros, symObjAddr: 0x25DC, symBinAddr: 0x157B8, symSize: 0x38 }
  - { offset: 0x396F1, size: 0x8, addend: 0x0, symName: __RNvXNtCs2cqEZUIJimJ_5quote14ident_fragmentReNtB2_13IdentFragment3fmtCsljl79DWYEYJ_14metrics_macros, symObjAddr: 0x2614, symBinAddr: 0x157F0, symSize: 0x4C }
  - { offset: 0x39734, size: 0x8, addend: 0x0, symName: __RNvXNtCs2cqEZUIJimJ_5quote14ident_fragmentReNtB2_13IdentFragment4spanCsljl79DWYEYJ_14metrics_macros, symObjAddr: 0x2660, symBinAddr: 0x1583C, symSize: 0x40 }
  - { offset: 0x3976F, size: 0x8, addend: 0x0, symName: __RNvYeNtNtCs2cqEZUIJimJ_5quote14ident_fragment13IdentFragment4spanCsljl79DWYEYJ_14metrics_macros, symObjAddr: 0x480C, symBinAddr: 0x179E8, symSize: 0x30 }
  - { offset: 0x397B0, size: 0x8, addend: 0x0, symName: __RNvXNtCs2cqEZUIJimJ_5quote9to_tokensRNtCs3cP53eQoTwO_11proc_macro211TokenStreamNtB2_8ToTokens9to_tokensCsljl79DWYEYJ_14metrics_macros, symObjAddr: 0x26A0, symBinAddr: 0x1587C, symSize: 0x40 }
  - { offset: 0x39844, size: 0x8, addend: 0x0, symName: __RINvMs_NtNtCsfvfooZQ3Axs_4core3fmt2rtNtB5_8Argument11new_displayINtNtCs2cqEZUIJimJ_5quote9___private20IdentFragmentAdapterRReEECsljl79DWYEYJ_14metrics_macros, symObjAddr: 0x61C, symBinAddr: 0x137FC, symSize: 0x2C }
  - { offset: 0x39A8F, size: 0x8, addend: 0x0, symName: __RINvMsi_NtCse1nGBsou5OW_5alloc3vecINtB6_3VecNtCs3cP53eQoTwO_11proc_macro211TokenStreamE14extend_trustedINtNtNtNtCsfvfooZQ3Axs_4core4iter8adapters3map3MapINtNtNtB1M_5slice4iter4IterTNtNtCs6IAuOt8vWmF_3syn4expr4ExprB2T_EENCNvCsljl79DWYEYJ_14metrics_macros16generate_statics0EEB3z_, symObjAddr: 0x648, symBinAddr: 0x13828, symSize: 0x170 }
  - { offset: 0x39E49, size: 0x8, addend: 0x0, symName: __RINvMsi_NtCse1nGBsou5OW_5alloc3vecINtB6_3VecNtNtB8_6string6StringE16extend_desugaredINtNtNtNtCsfvfooZQ3Axs_4core4iter8adapters3map3MapINtNtCs6IAuOt8vWmF_3syn10punctuated4IterNtNtB2d_4path11PathSegmentENCNCNvXs0_Csljl79DWYEYJ_14metrics_macrosNtB3n_11DescriptionNtNtB2d_5parse5Parse5parse00EEB3n_, symObjAddr: 0x7B8, symBinAddr: 0x13998, symSize: 0x1E4 }
  - { offset: 0x3A344, size: 0x8, addend: 0x0, symName: __RNvMNtCse1nGBsou5OW_5alloc3vecINtB2_3VecTNtNtCs6IAuOt8vWmF_3syn4expr4ExprBD_EE3newCsljl79DWYEYJ_14metrics_macros, symObjAddr: 0x145C, symBinAddr: 0x1463C, symSize: 0x14 }
  - { offset: 0x3A43B, size: 0x8, addend: 0x0, symName: __RNvMNtCse1nGBsou5OW_5alloc6stringNtB2_6String6as_strCsljl79DWYEYJ_14metrics_macros, symObjAddr: 0x1470, symBinAddr: 0x14650, symSize: 0x70 }
  - { offset: 0x3A562, size: 0x8, addend: 0x0, symName: __RNvMNtCsfvfooZQ3Axs_4core6resultINtB2_6ResultINtNtB4_6option6OptionNtNtCs6IAuOt8vWmF_3syn4expr4ExprENtNtB17_5error5ErrorE2okCsljl79DWYEYJ_14metrics_macros, symObjAddr: 0x15D4, symBinAddr: 0x147B4, symSize: 0xA0 }
  - { offset: 0x3A5D2, size: 0x8, addend: 0x0, symName: __RNvMs1_NtNtCsfvfooZQ3Axs_4core3ptr8non_nullINtB5_7NonNullNtNtCse1nGBsou5OW_5alloc6string6StringE7sub_ptrCsljl79DWYEYJ_14metrics_macros, symObjAddr: 0x1674, symBinAddr: 0x14854, symSize: 0x74 }
  - { offset: 0x3A6CB, size: 0x8, addend: 0x0, symName: __RNvMs1_NtNtCsfvfooZQ3Axs_4core3ptr8non_nullINtB5_7NonNullTNtNtCs6IAuOt8vWmF_3syn4expr4ExprBU_EE7sub_ptrCsljl79DWYEYJ_14metrics_macros, symObjAddr: 0x16E8, symBinAddr: 0x148C8, symSize: 0x74 }
  - { offset: 0x3A7AD, size: 0x8, addend: 0x0, symName: __RNvMs3_NtNtCs9i5KxIbZ5ph_10proc_macro6bridge6bufferNtB5_6Buffer17extend_from_sliceCsljl79DWYEYJ_14metrics_macros, symObjAddr: 0x175C, symBinAddr: 0x1493C, symSize: 0x164 }
  - { offset: 0x3A969, size: 0x8, addend: 0x0, symName: __RNvMs3_NtNtCs9i5KxIbZ5ph_10proc_macro6bridge6bufferNtB5_6Buffer4pushCsljl79DWYEYJ_14metrics_macros, symObjAddr: 0x18C0, symBinAddr: 0x14AA0, symSize: 0x134 }
  - { offset: 0x3AA6C, size: 0x8, addend: 0x0, symName: __RNvMs5_NtCs2cqEZUIJimJ_5quote9___privateINtB5_20IdentFragmentAdapterRReE4spanCsljl79DWYEYJ_14metrics_macros, symObjAddr: 0x19F4, symBinAddr: 0x14BD4, symSize: 0x34 }
  - { offset: 0x3AAA5, size: 0x8, addend: 0x0, symName: __RNvMs_NtCse1nGBsou5OW_5alloc3vecINtB4_3VecNtCs3cP53eQoTwO_11proc_macro211TokenStreamE3lenCsljl79DWYEYJ_14metrics_macros, symObjAddr: 0x1A28, symBinAddr: 0x14C08, symSize: 0x18 }
  - { offset: 0x3AC0A, size: 0x8, addend: 0x0, symName: __RNvMs_NtCse1nGBsou5OW_5alloc3vecINtB4_3VecNtCs3cP53eQoTwO_11proc_macro211TokenStreamE7reserveCsljl79DWYEYJ_14metrics_macros, symObjAddr: 0x1A40, symBinAddr: 0x14C20, symSize: 0xC8 }
  - { offset: 0x3AE08, size: 0x8, addend: 0x0, symName: __RNvMs_NtCse1nGBsou5OW_5alloc3vecINtB4_3VecNtCs3cP53eQoTwO_11proc_macro211TokenStreamE8as_sliceCsljl79DWYEYJ_14metrics_macros, symObjAddr: 0x1B08, symBinAddr: 0x14CE8, symSize: 0x64 }
  - { offset: 0x3AFD8, size: 0x8, addend: 0x0, symName: __RNvMs_NtCse1nGBsou5OW_5alloc3vecINtB4_3VecNtNtB6_6string6StringE7reserveCsljl79DWYEYJ_14metrics_macros, symObjAddr: 0x1B6C, symBinAddr: 0x14D4C, symSize: 0xC8 }
  - { offset: 0x3B1D6, size: 0x8, addend: 0x0, symName: __RNvMs_NtCse1nGBsou5OW_5alloc3vecINtB4_3VecNtNtB6_6string6StringE8as_sliceCsljl79DWYEYJ_14metrics_macros, symObjAddr: 0x1C34, symBinAddr: 0x14E14, symSize: 0x64 }
  - { offset: 0x3B389, size: 0x8, addend: 0x0, symName: __RNvMs_NtCse1nGBsou5OW_5alloc3vecINtB4_3VecTNtNtCs6IAuOt8vWmF_3syn4expr4ExprBF_EE4pushCsljl79DWYEYJ_14metrics_macros, symObjAddr: 0x1C98, symBinAddr: 0x14E78, symSize: 0x120 }
  - { offset: 0x3B5E4, size: 0x8, addend: 0x0, symName: __RNvMs_NtCse1nGBsou5OW_5alloc3vecINtB4_3VecTNtNtCs6IAuOt8vWmF_3syn4expr4ExprBF_EE8as_sliceCsljl79DWYEYJ_14metrics_macros, symObjAddr: 0x1DB8, symBinAddr: 0x14F98, symSize: 0x64 }
  - { offset: 0x3D56A, size: 0x8, addend: 0x0, symName: __RNvXNtNtCs6IAuOt8vWmF_3syn4item7parsingNtB4_4ItemNtNtB6_5parse5Parse5parse, symObjAddr: 0x34B4, symBinAddr: 0x17F24, symSize: 0x1B4 }
  - { offset: 0x3D610, size: 0x8, addend: 0x0, symName: __RNvXs0_NtNtCs6IAuOt8vWmF_3syn4item7parsingNtB7_9ItemMacroNtNtB9_5parse5Parse5parse, symObjAddr: 0x3668, symBinAddr: 0x180D8, symSize: 0x620 }
  - { offset: 0x3D7DE, size: 0x8, addend: 0x0, symName: __RNvXs1_NtNtCs6IAuOt8vWmF_3syn4item7parsingNtB7_15ItemExternCrateNtNtB9_5parse5Parse5parse, symObjAddr: 0x3C88, symBinAddr: 0x186F8, symSize: 0x93C }
  - { offset: 0x3D9E8, size: 0x8, addend: 0x0, symName: __RNvXs3_NtNtCs6IAuOt8vWmF_3syn4item7parsingNtB7_7UseTreeNtNtB9_5parse5Parse5parse, symObjAddr: 0x461C, symBinAddr: 0x19034, symSize: 0x58 }
  - { offset: 0x3DA3A, size: 0x8, addend: 0x0, symName: __RNvXs6_NtNtCs6IAuOt8vWmF_3syn4item7parsingNtB7_9SignatureNtNtB9_5parse5Parse5parse, symObjAddr: 0x5B9C, symBinAddr: 0x1908C, symSize: 0x60 }
  - { offset: 0x3DA8C, size: 0x8, addend: 0x0, symName: __RNvXs9_NtNtCs6IAuOt8vWmF_3syn4item7parsingNtB7_8ReceiverNtNtB9_5parse5Parse5parse, symObjAddr: 0x622C, symBinAddr: 0x190EC, symSize: 0x95C }
  - { offset: 0x3DCE5, size: 0x8, addend: 0x0, symName: __RNvXsa_NtNtCs6IAuOt8vWmF_3syn4item7parsingNtB7_7ItemModNtNtB9_5parse5Parse5parse, symObjAddr: 0x6B88, symBinAddr: 0x19A48, symSize: 0xC34 }
  - { offset: 0x3DF48, size: 0x8, addend: 0x0, symName: __RNvXsb_NtNtCs6IAuOt8vWmF_3syn4item7parsingNtB7_14ItemForeignModNtNtB9_5parse5Parse5parse, symObjAddr: 0x77BC, symBinAddr: 0x1A67C, symSize: 0x610 }
  - { offset: 0x3E0F9, size: 0x8, addend: 0x0, symName: __RNvXsc_NtNtCs6IAuOt8vWmF_3syn4item7parsingNtB7_11ForeignItemNtNtB9_5parse5Parse5parse, symObjAddr: 0x7DCC, symBinAddr: 0x1AC8C, symSize: 0x1D80 }
  - { offset: 0x3E769, size: 0x8, addend: 0x0, symName: __RNvXsg_NtNtCs6IAuOt8vWmF_3syn4item7parsingNtB7_16ForeignItemMacroNtNtB9_5parse5Parse5parse, symObjAddr: 0xAE74, symBinAddr: 0x1CA0C, symSize: 0x32C }
  - { offset: 0x3E87D, size: 0x8, addend: 0x0, symName: __RNvXsi_NtNtCs6IAuOt8vWmF_3syn4item7parsingNtB7_10ItemStructNtNtB9_5parse5Parse5parse, symObjAddr: 0xBB78, symBinAddr: 0x1CD38, symSize: 0x638 }
  - { offset: 0x3EA7A, size: 0x8, addend: 0x0, symName: __RNvXsj_NtNtCs6IAuOt8vWmF_3syn4item7parsingNtB7_8ItemEnumNtNtB9_5parse5Parse5parse, symObjAddr: 0xC1B0, symBinAddr: 0x1D370, symSize: 0x63C }
  - { offset: 0x3EC77, size: 0x8, addend: 0x0, symName: __RNvXsk_NtNtCs6IAuOt8vWmF_3syn4item7parsingNtB7_9ItemUnionNtNtB9_5parse5Parse5parse, symObjAddr: 0xC7EC, symBinAddr: 0x1D9AC, symSize: 0x62C }
  - { offset: 0x3EE63, size: 0x8, addend: 0x0, symName: __RNvXsl_NtNtCs6IAuOt8vWmF_3syn4item7parsingNtB7_9ItemTraitNtNtB9_5parse5Parse5parse, symObjAddr: 0xCE18, symBinAddr: 0x1DFD8, symSize: 0x634 }
  - { offset: 0x3F06A, size: 0x8, addend: 0x0, symName: __RNvXsn_NtNtCs6IAuOt8vWmF_3syn4item7parsingNtB7_9TraitItemNtNtB9_5parse5Parse5parse, symObjAddr: 0xD6BC, symBinAddr: 0x1E60C, symSize: 0x1654 }
  - { offset: 0x3F4DF, size: 0x8, addend: 0x0, symName: __RNvXsp_NtNtCs6IAuOt8vWmF_3syn4item7parsingNtB7_11TraitItemFnNtNtB9_5parse5Parse5parse, symObjAddr: 0xF584, symBinAddr: 0x1FC60, symSize: 0x7DC }
  - { offset: 0x3F6E3, size: 0x8, addend: 0x0, symName: __RNvXsr_NtNtCs6IAuOt8vWmF_3syn4item7parsingNtB7_14TraitItemMacroNtNtB9_5parse5Parse5parse, symObjAddr: 0x10484, symBinAddr: 0x2043C, symSize: 0x32C }
  - { offset: 0x3F7F7, size: 0x8, addend: 0x0, symName: __RNvXst_NtNtCs6IAuOt8vWmF_3syn4item7parsingNtB7_8ImplItemNtNtB9_5parse5Parse5parse, symObjAddr: 0x10810, symBinAddr: 0x20768, symSize: 0x1A78 }
  - { offset: 0x3FD19, size: 0x8, addend: 0x0, symName: __RNvXsx_NtNtCs6IAuOt8vWmF_3syn4item7parsingNtB7_13ImplItemMacroNtNtB9_5parse5Parse5parse, symObjAddr: 0x134F8, symBinAddr: 0x221E0, symSize: 0x32C }
  - { offset: 0x3FE2D, size: 0x8, addend: 0x0, symName: __RNvXsz_NtNtCs6IAuOt8vWmF_3syn4item7parsingNtB7_16StaticMutabilityNtNtB9_5parse5Parse5parse, symObjAddr: 0x13824, symBinAddr: 0x2250C, symSize: 0xDC }
  - { offset: 0x3FEA3, size: 0x8, addend: 0x0, symName: __RNvXNtNtCs6IAuOt8vWmF_3syn4item8printingNtB4_15ItemExternCrateNtNtCs2cqEZUIJimJ_5quote9to_tokens8ToTokens9to_tokens, symObjAddr: 0x13900, symBinAddr: 0x225E8, symSize: 0x110 }
  - { offset: 0x3FF10, size: 0x8, addend: 0x0, symName: __RNvXs_NtNtCs6IAuOt8vWmF_3syn4item8printingNtB6_7ItemUseNtNtCs2cqEZUIJimJ_5quote9to_tokens8ToTokens9to_tokens, symObjAddr: 0x13A10, symBinAddr: 0x226F8, symSize: 0xA4 }
  - { offset: 0x3FF4F, size: 0x8, addend: 0x0, symName: __RNvXs0_NtNtCs6IAuOt8vWmF_3syn4item8printingNtB7_10ItemStaticNtNtCs2cqEZUIJimJ_5quote9to_tokens8ToTokens9to_tokens, symObjAddr: 0x13AB4, symBinAddr: 0x2279C, symSize: 0xE4 }
  - { offset: 0x3FF8E, size: 0x8, addend: 0x0, symName: __RNvXs1_NtNtCs6IAuOt8vWmF_3syn4item8printingNtB7_9ItemConstNtNtCs2cqEZUIJimJ_5quote9to_tokens8ToTokens9to_tokens, symObjAddr: 0x13B98, symBinAddr: 0x22880, symSize: 0xD4 }
  - { offset: 0x3FFCD, size: 0x8, addend: 0x0, symName: __RNvXs2_NtNtCs6IAuOt8vWmF_3syn4item8printingNtB7_6ItemFnNtNtCs2cqEZUIJimJ_5quote9to_tokens8ToTokens9to_tokens, symObjAddr: 0x13C6C, symBinAddr: 0x22954, symSize: 0xB4 }
  - { offset: 0x4000C, size: 0x8, addend: 0x0, symName: __RNvXs3_NtNtCs6IAuOt8vWmF_3syn4item8printingNtB7_7ItemModNtNtCs2cqEZUIJimJ_5quote9to_tokens8ToTokens9to_tokens, symObjAddr: 0x13D20, symBinAddr: 0x22A08, symSize: 0x110 }
  - { offset: 0x40079, size: 0x8, addend: 0x0, symName: __RNvXs4_NtNtCs6IAuOt8vWmF_3syn4item8printingNtB7_14ItemForeignModNtNtCs2cqEZUIJimJ_5quote9to_tokens8ToTokens9to_tokens, symObjAddr: 0x13E30, symBinAddr: 0x22B18, symSize: 0x88 }
  - { offset: 0x400B8, size: 0x8, addend: 0x0, symName: __RNvXs5_NtNtCs6IAuOt8vWmF_3syn4item8printingNtB7_8ItemTypeNtNtCs2cqEZUIJimJ_5quote9to_tokens8ToTokens9to_tokens, symObjAddr: 0x13EB8, symBinAddr: 0x22BA0, symSize: 0xD4 }
  - { offset: 0x400F7, size: 0x8, addend: 0x0, symName: __RNvXs6_NtNtCs6IAuOt8vWmF_3syn4item8printingNtB7_8ItemEnumNtNtCs2cqEZUIJimJ_5quote9to_tokens8ToTokens9to_tokens, symObjAddr: 0x13F8C, symBinAddr: 0x22C74, symSize: 0xB8 }
  - { offset: 0x40136, size: 0x8, addend: 0x0, symName: __RNvXs7_NtNtCs6IAuOt8vWmF_3syn4item8printingNtB7_10ItemStructNtNtCs2cqEZUIJimJ_5quote9to_tokens8ToTokens9to_tokens, symObjAddr: 0x14044, symBinAddr: 0x22D2C, symSize: 0x188 }
  - { offset: 0x401B1, size: 0x8, addend: 0x0, symName: __RNvXs8_NtNtCs6IAuOt8vWmF_3syn4item8printingNtB7_9ItemUnionNtNtCs2cqEZUIJimJ_5quote9to_tokens8ToTokens9to_tokens, symObjAddr: 0x141CC, symBinAddr: 0x22EB4, symSize: 0xB4 }
  - { offset: 0x401F0, size: 0x8, addend: 0x0, symName: __RNvXs9_NtNtCs6IAuOt8vWmF_3syn4item8printingNtB7_9ItemTraitNtNtCs2cqEZUIJimJ_5quote9to_tokens8ToTokens9to_tokens, symObjAddr: 0x14280, symBinAddr: 0x22F68, symSize: 0x130 }
  - { offset: 0x4022F, size: 0x8, addend: 0x0, symName: __RNvXsa_NtNtCs6IAuOt8vWmF_3syn4item8printingNtB7_14ItemTraitAliasNtNtCs2cqEZUIJimJ_5quote9to_tokens8ToTokens9to_tokens, symObjAddr: 0x143B0, symBinAddr: 0x23098, symSize: 0xD4 }
  - { offset: 0x4026E, size: 0x8, addend: 0x0, symName: __RNvXsb_NtNtCs6IAuOt8vWmF_3syn4item8printingNtB7_8ItemImplNtNtCs2cqEZUIJimJ_5quote9to_tokens8ToTokens9to_tokens, symObjAddr: 0x14484, symBinAddr: 0x2316C, symSize: 0x14C }
  - { offset: 0x402EB, size: 0x8, addend: 0x0, symName: __RNvXsc_NtNtCs6IAuOt8vWmF_3syn4item8printingNtB7_9ItemMacroNtNtCs2cqEZUIJimJ_5quote9to_tokens8ToTokens9to_tokens, symObjAddr: 0x145D0, symBinAddr: 0x232B8, symSize: 0x148 }
  - { offset: 0x4037C, size: 0x8, addend: 0x0, symName: __RNvXsd_NtNtCs6IAuOt8vWmF_3syn4item8printingNtB7_7UsePathNtNtCs2cqEZUIJimJ_5quote9to_tokens8ToTokens9to_tokens, symObjAddr: 0x14718, symBinAddr: 0x23400, symSize: 0x60 }
  - { offset: 0x403BB, size: 0x8, addend: 0x0, symName: __RNvXse_NtNtCs6IAuOt8vWmF_3syn4item8printingNtB7_7UseNameNtNtCs2cqEZUIJimJ_5quote9to_tokens8ToTokens9to_tokens, symObjAddr: 0x14778, symBinAddr: 0x23460, symSize: 0x3C }
  - { offset: 0x403FA, size: 0x8, addend: 0x0, symName: __RNvXsf_NtNtCs6IAuOt8vWmF_3syn4item8printingNtB7_9UseRenameNtNtCs2cqEZUIJimJ_5quote9to_tokens8ToTokens9to_tokens, symObjAddr: 0x147B4, symBinAddr: 0x2349C, symSize: 0x60 }
  - { offset: 0x40439, size: 0x8, addend: 0x0, symName: __RNvXsg_NtNtCs6IAuOt8vWmF_3syn4item8printingNtB7_7UseGlobNtNtCs2cqEZUIJimJ_5quote9to_tokens8ToTokens9to_tokens, symObjAddr: 0x14814, symBinAddr: 0x234FC, symSize: 0x3C }
  - { offset: 0x40478, size: 0x8, addend: 0x0, symName: __RNvXsh_NtNtCs6IAuOt8vWmF_3syn4item8printingNtB7_8UseGroupNtNtCs2cqEZUIJimJ_5quote9to_tokens8ToTokens9to_tokens, symObjAddr: 0x14850, symBinAddr: 0x23538, symSize: 0x44 }
  - { offset: 0x404B7, size: 0x8, addend: 0x0, symName: __RNvXsi_NtNtCs6IAuOt8vWmF_3syn4item8printingNtB7_14TraitItemConstNtNtCs2cqEZUIJimJ_5quote9to_tokens8ToTokens9to_tokens, symObjAddr: 0x14894, symBinAddr: 0x2357C, symSize: 0x110 }
  - { offset: 0x40524, size: 0x8, addend: 0x0, symName: __RNvXsj_NtNtCs6IAuOt8vWmF_3syn4item8printingNtB7_11TraitItemFnNtNtCs2cqEZUIJimJ_5quote9to_tokens8ToTokens9to_tokens, symObjAddr: 0x149A4, symBinAddr: 0x2368C, symSize: 0xD4 }
  - { offset: 0x40581, size: 0x8, addend: 0x0, symName: __RNvXsk_NtNtCs6IAuOt8vWmF_3syn4item8printingNtB7_13TraitItemTypeNtNtCs2cqEZUIJimJ_5quote9to_tokens8ToTokens9to_tokens, symObjAddr: 0x14A78, symBinAddr: 0x23760, symSize: 0x168 }
  - { offset: 0x405EE, size: 0x8, addend: 0x0, symName: __RNvXsl_NtNtCs6IAuOt8vWmF_3syn4item8printingNtB7_14TraitItemMacroNtNtCs2cqEZUIJimJ_5quote9to_tokens8ToTokens9to_tokens, symObjAddr: 0x14BE0, symBinAddr: 0x238C8, symSize: 0x74 }
  - { offset: 0x4062D, size: 0x8, addend: 0x0, symName: __RNvXsm_NtNtCs6IAuOt8vWmF_3syn4item8printingNtB7_13ImplItemConstNtNtCs2cqEZUIJimJ_5quote9to_tokens8ToTokens9to_tokens, symObjAddr: 0x14C54, symBinAddr: 0x2393C, symSize: 0xE4 }
  - { offset: 0x4066C, size: 0x8, addend: 0x0, symName: __RNvXsn_NtNtCs6IAuOt8vWmF_3syn4item8printingNtB7_10ImplItemFnNtNtCs2cqEZUIJimJ_5quote9to_tokens8ToTokens9to_tokens, symObjAddr: 0x14D38, symBinAddr: 0x23A20, symSize: 0x98 }
  - { offset: 0x406AB, size: 0x8, addend: 0x0, symName: __RNvXso_NtNtCs6IAuOt8vWmF_3syn4item8printingNtB7_12ImplItemTypeNtNtCs2cqEZUIJimJ_5quote9to_tokens8ToTokens9to_tokens, symObjAddr: 0x14DD0, symBinAddr: 0x23AB8, symSize: 0xE4 }
  - { offset: 0x406EA, size: 0x8, addend: 0x0, symName: __RNvXsp_NtNtCs6IAuOt8vWmF_3syn4item8printingNtB7_13ImplItemMacroNtNtCs2cqEZUIJimJ_5quote9to_tokens8ToTokens9to_tokens, symObjAddr: 0x14EB4, symBinAddr: 0x23B9C, symSize: 0x74 }
  - { offset: 0x40729, size: 0x8, addend: 0x0, symName: __RNvXsq_NtNtCs6IAuOt8vWmF_3syn4item8printingNtB7_13ForeignItemFnNtNtCs2cqEZUIJimJ_5quote9to_tokens8ToTokens9to_tokens, symObjAddr: 0x14F28, symBinAddr: 0x23C10, symSize: 0x84 }
  - { offset: 0x40768, size: 0x8, addend: 0x0, symName: __RNvXsr_NtNtCs6IAuOt8vWmF_3syn4item8printingNtB7_17ForeignItemStaticNtNtCs2cqEZUIJimJ_5quote9to_tokens8ToTokens9to_tokens, symObjAddr: 0x14FAC, symBinAddr: 0x23C94, symSize: 0xC4 }
  - { offset: 0x407A7, size: 0x8, addend: 0x0, symName: __RNvXss_NtNtCs6IAuOt8vWmF_3syn4item8printingNtB7_15ForeignItemTypeNtNtCs2cqEZUIJimJ_5quote9to_tokens8ToTokens9to_tokens, symObjAddr: 0x15070, symBinAddr: 0x23D58, symSize: 0xB4 }
  - { offset: 0x407E6, size: 0x8, addend: 0x0, symName: __RNvXst_NtNtCs6IAuOt8vWmF_3syn4item8printingNtB7_16ForeignItemMacroNtNtCs2cqEZUIJimJ_5quote9to_tokens8ToTokens9to_tokens, symObjAddr: 0x15124, symBinAddr: 0x23E0C, symSize: 0x74 }
  - { offset: 0x40825, size: 0x8, addend: 0x0, symName: __RNvXsu_NtNtCs6IAuOt8vWmF_3syn4item8printingNtB7_9SignatureNtNtCs2cqEZUIJimJ_5quote9to_tokens8ToTokens9to_tokens, symObjAddr: 0x15198, symBinAddr: 0x23E80, symSize: 0xD4 }
  - { offset: 0x40864, size: 0x8, addend: 0x0, symName: __RNvXsv_NtNtCs6IAuOt8vWmF_3syn4item8printingNtB7_8ReceiverNtNtCs2cqEZUIJimJ_5quote9to_tokens8ToTokens9to_tokens, symObjAddr: 0x1526C, symBinAddr: 0x23F54, symSize: 0x3FC }
  - { offset: 0x4095C, size: 0x8, addend: 0x0, symName: __RNvXsw_NtNtCs6IAuOt8vWmF_3syn4item8printingNtB7_8VariadicNtNtCs2cqEZUIJimJ_5quote9to_tokens8ToTokens9to_tokens, symObjAddr: 0x15668, symBinAddr: 0x24350, symSize: 0xE0 }
  - { offset: 0x409C9, size: 0x8, addend: 0x0, symName: __RNvXsx_NtNtCs6IAuOt8vWmF_3syn4item8printingNtB7_16StaticMutabilityNtNtCs2cqEZUIJimJ_5quote9to_tokens8ToTokens9to_tokens, symObjAddr: 0x15748, symBinAddr: 0x24430, symSize: 0x7C }
  - { offset: 0x40A2C, size: 0x8, addend: 0x0, symName: __RNcNtNtNtCs6IAuOt8vWmF_3syn4item4Item4Enum0B7_, symObjAddr: 0x157C4, symBinAddr: 0x244AC, symSize: 0x3C }
  - { offset: 0x40A5B, size: 0x8, addend: 0x0, symName: __RNcNtNtNtCs6IAuOt8vWmF_3syn4item4Item11ExternCrate0B7_, symObjAddr: 0x15800, symBinAddr: 0x244E8, symSize: 0x3C }
  - { offset: 0x40A8A, size: 0x8, addend: 0x0, symName: __RNcNtNtNtCs6IAuOt8vWmF_3syn4item4Item2Fn0B7_, symObjAddr: 0x1583C, symBinAddr: 0x24524, symSize: 0x30 }
  - { offset: 0x40AB9, size: 0x8, addend: 0x0, symName: __RNcNtNtNtCs6IAuOt8vWmF_3syn4item4Item10ForeignMod0B7_, symObjAddr: 0x1586C, symBinAddr: 0x24554, symSize: 0x3C }
  - { offset: 0x40AE8, size: 0x8, addend: 0x0, symName: __RNcNtNtNtCs6IAuOt8vWmF_3syn4item4Item5Macro0B7_, symObjAddr: 0x158A8, symBinAddr: 0x24590, symSize: 0x3C }
  - { offset: 0x40B17, size: 0x8, addend: 0x0, symName: __RNcNtNtNtCs6IAuOt8vWmF_3syn4item4Item3Mod0B7_, symObjAddr: 0x158E4, symBinAddr: 0x245CC, symSize: 0x3C }
  - { offset: 0x40B46, size: 0x8, addend: 0x0, symName: __RNcNtNtNtCs6IAuOt8vWmF_3syn4item4Item6Struct0B7_, symObjAddr: 0x15920, symBinAddr: 0x24608, symSize: 0x3C }
  - { offset: 0x40B75, size: 0x8, addend: 0x0, symName: __RNcNtNtNtCs6IAuOt8vWmF_3syn4item4Item5Trait0B7_, symObjAddr: 0x1595C, symBinAddr: 0x24644, symSize: 0x3C }
  - { offset: 0x40BA4, size: 0x8, addend: 0x0, symName: __RNcNtNtNtCs6IAuOt8vWmF_3syn4item4Item10TraitAlias0B7_, symObjAddr: 0x15998, symBinAddr: 0x24680, symSize: 0x3C }
  - { offset: 0x40BD3, size: 0x8, addend: 0x0, symName: __RNcNtNtNtCs6IAuOt8vWmF_3syn4item4Item5Union0B7_, symObjAddr: 0x159D4, symBinAddr: 0x246BC, symSize: 0x3C }
  - { offset: 0x40C03, size: 0x8, addend: 0x0, symName: __RNvXsk_NtCs6IAuOt8vWmF_3syn4itemNtB5_4ItemNtNtCs2cqEZUIJimJ_5quote9to_tokens8ToTokens9to_tokens, symObjAddr: 0x15E78, symBinAddr: 0x246F8, symSize: 0x230 }
  - { offset: 0x40E15, size: 0x8, addend: 0x0, symName: __RNvXsq_NtCs6IAuOt8vWmF_3syn4itemNtB5_7UseTreeNtNtCs2cqEZUIJimJ_5quote9to_tokens8ToTokens9to_tokens, symObjAddr: 0x161F4, symBinAddr: 0x24928, symSize: 0x10C }
  - { offset: 0x40EE7, size: 0x8, addend: 0x0, symName: __RNcNtNtNtCs6IAuOt8vWmF_3syn4item11ForeignItem5Macro0B7_, symObjAddr: 0x16300, symBinAddr: 0x24A34, symSize: 0x3C }
  - { offset: 0x40F19, size: 0x8, addend: 0x0, symName: __RNvXsv_NtCs6IAuOt8vWmF_3syn4itemNtB5_11ForeignItemNtNtCs2cqEZUIJimJ_5quote9to_tokens8ToTokens9to_tokens, symObjAddr: 0x16460, symBinAddr: 0x24A70, symSize: 0x118 }
  - { offset: 0x40FEB, size: 0x8, addend: 0x0, symName: __RNcNtNtNtCs6IAuOt8vWmF_3syn4item9TraitItem2Fn0B7_, symObjAddr: 0x16578, symBinAddr: 0x24B88, symSize: 0x3C }
  - { offset: 0x4101C, size: 0x8, addend: 0x0, symName: __RNcNtNtNtCs6IAuOt8vWmF_3syn4item9TraitItem5Macro0B7_, symObjAddr: 0x165B4, symBinAddr: 0x24BC4, symSize: 0x3C }
  - { offset: 0x4104E, size: 0x8, addend: 0x0, symName: __RNvXsA_NtCs6IAuOt8vWmF_3syn4itemNtB5_9TraitItemNtNtCs2cqEZUIJimJ_5quote9to_tokens8ToTokens9to_tokens, symObjAddr: 0x16714, symBinAddr: 0x24C00, symSize: 0x118 }
  - { offset: 0x41120, size: 0x8, addend: 0x0, symName: __RNcNtNtNtCs6IAuOt8vWmF_3syn4item8ImplItem5Macro0B7_, symObjAddr: 0x1682C, symBinAddr: 0x24D18, symSize: 0x3C }
  - { offset: 0x41152, size: 0x8, addend: 0x0, symName: __RNvXsF_NtCs6IAuOt8vWmF_3syn4itemNtB5_8ImplItemNtNtCs2cqEZUIJimJ_5quote9to_tokens8ToTokens9to_tokens, symObjAddr: 0x1698C, symBinAddr: 0x24D54, symSize: 0x118 }
  - { offset: 0x4121F, size: 0x8, addend: 0x0, symName: __RNvXsI_NtCs6IAuOt8vWmF_3syn4itemNtB5_5FnArgNtNtCs2cqEZUIJimJ_5quote9to_tokens8ToTokens9to_tokens, symObjAddr: 0x16B30, symBinAddr: 0x24E6C, symSize: 0x8C }
  - { offset: 0x4129A, size: 0x8, addend: 0x0, symName: __RNcNtNtNtCs6IAuOt8vWmF_3syn4item16StaticMutability3Mut0B7_, symObjAddr: 0x16BBC, symBinAddr: 0x24EF8, symSize: 0x20 }
  - { offset: 0x49AF5, size: 0x8, addend: 0x0, symName: __RNvMNtCsfvfooZQ3Axs_4core5sliceSTNtNtCs6IAuOt8vWmF_3syn4item5FnArgNtNtBz_5token5CommaE4iterBz_, symObjAddr: 0x1480, symBinAddr: 0x17A2C, symSize: 0x28 }
  - { offset: 0x49B2C, size: 0x8, addend: 0x0, symName: __RNvMNtCsfvfooZQ3Axs_4core5sliceSTNtNtCs6IAuOt8vWmF_3syn4item7UseTreeNtNtBz_5token5CommaE4iterBz_, symObjAddr: 0x14A8, symBinAddr: 0x17A54, symSize: 0x28 }
  - { offset: 0x4AF98, size: 0x8, addend: 0x0, symName: __RNvXNtCs2cqEZUIJimJ_5quote9to_tokensRNtNtCs6IAuOt8vWmF_3syn4item11ForeignItemNtB2_8ToTokens9to_tokensBD_, symObjAddr: 0x14D0, symBinAddr: 0x17A7C, symSize: 0x40 }
  - { offset: 0x4AFD7, size: 0x8, addend: 0x0, symName: __RNvXNtCs2cqEZUIJimJ_5quote9to_tokensRNtNtCs6IAuOt8vWmF_3syn4item4ItemNtB2_8ToTokens9to_tokensBD_, symObjAddr: 0x1510, symBinAddr: 0x17ABC, symSize: 0x40 }
  - { offset: 0x4B016, size: 0x8, addend: 0x0, symName: __RNvXNtCs2cqEZUIJimJ_5quote9to_tokensRNtNtCs6IAuOt8vWmF_3syn4item5FnArgNtB2_8ToTokens9to_tokensBD_, symObjAddr: 0x1550, symBinAddr: 0x17AFC, symSize: 0x40 }
  - { offset: 0x4B055, size: 0x8, addend: 0x0, symName: __RNvXNtCs2cqEZUIJimJ_5quote9to_tokensRNtNtCs6IAuOt8vWmF_3syn4item7UseTreeNtB2_8ToTokens9to_tokensBD_, symObjAddr: 0x1590, symBinAddr: 0x17B3C, symSize: 0x40 }
  - { offset: 0x4B094, size: 0x8, addend: 0x0, symName: __RNvXNtCs2cqEZUIJimJ_5quote9to_tokensRNtNtCs6IAuOt8vWmF_3syn4item8ImplItemNtB2_8ToTokens9to_tokensBD_, symObjAddr: 0x15D0, symBinAddr: 0x17B7C, symSize: 0x40 }
  - { offset: 0x4B0D3, size: 0x8, addend: 0x0, symName: __RNvXNtCs2cqEZUIJimJ_5quote9to_tokensRNtNtCs6IAuOt8vWmF_3syn4item9TraitItemNtB2_8ToTokens9to_tokensBD_, symObjAddr: 0x1610, symBinAddr: 0x17BBC, symSize: 0x40 }
  - { offset: 0x4B115, size: 0x8, addend: 0x0, symName: __RNvMNtCs6IAuOt8vWmF_3syn4itemNtB2_4Item13replace_attrs, symObjAddr: 0x2BF8, symBinAddr: 0x17BFC, symSize: 0x328 }
  - { offset: 0x4B6C7, size: 0x8, addend: 0x0, symName: __RINvMs_NtCse1nGBsou5OW_5alloc3vecINtB5_3VecReE10retain_mutNCNvMNtCs6IAuOt8vWmF_3syn9lookaheadNtBZ_10Lookahead15error0EB11_, symObjAddr: 0x0, symBinAddr: 0x24F18, symSize: 0xE4 }
  - { offset: 0x4C46C, size: 0x8, addend: 0x0, symName: __RNvXs1a_NtCsfvfooZQ3Axs_4core3fmtRINtNtCse1nGBsou5OW_5alloc3vec3VechENtB6_5Debug3fmtCs6IAuOt8vWmF_3syn, symObjAddr: 0x6C30, symBinAddr: 0x296BC, symSize: 0x30 }
  - { offset: 0x52D1F, size: 0x8, addend: 0x0, symName: __RNvXs1_NtCsfvfooZQ3Axs_4core7convertINtNtCse1nGBsou5OW_5alloc3vec3VechEINtB5_4IntoBy_E4intoCs6IAuOt8vWmF_3syn, symObjAddr: 0x6BE8, symBinAddr: 0x296A4, symSize: 0x18 }
  - { offset: 0x52F5C, size: 0x8, addend: 0x0, symName: __RINvNvMs_NtCse1nGBsou5OW_5alloc3vecINtB7_3VecppE10retain_mut12process_loopNCNvMNtCs6IAuOt8vWmF_3syn9lookaheadNtB1f_10Lookahead15error0ReNtNtB9_5alloc6GlobalKb0_EB1h_, symObjAddr: 0xC64, symBinAddr: 0x254F8, symSize: 0xCC }
  - { offset: 0x530B0, size: 0x8, addend: 0x0, symName: __RINvNvMs_NtCse1nGBsou5OW_5alloc3vecINtB7_3VecppE10retain_mut12process_loopNCNvMNtCs6IAuOt8vWmF_3syn9lookaheadNtB1f_10Lookahead15error0ReNtNtB9_5alloc6GlobalKb1_EB1h_, symObjAddr: 0xD30, symBinAddr: 0x255C4, symSize: 0x168 }
  - { offset: 0x532A6, size: 0x8, addend: 0x0, symName: __RNvXNvMs_NtCse1nGBsou5OW_5alloc3vecINtB7_3VecppE10retain_mutINtB2_15BackshiftOnDropReNtNtB9_5alloc6GlobalENtNtNtCsfvfooZQ3Axs_4core3ops4drop4Drop4dropCs6IAuOt8vWmF_3syn, symObjAddr: 0x681C, symBinAddr: 0x29370, symSize: 0x124 }
  - { offset: 0x55D11, size: 0x8, addend: 0x0, symName: __RINvXsh_NtCse1nGBsou5OW_5alloc3vecINtB6_3VecNtCs3cP53eQoTwO_11proc_macro29TokenTreeEINtNtNtNtCsfvfooZQ3Axs_4core4iter6traits7collect6ExtendBG_E6extendINtNtNtB1r_8adapters7flatten7FlattenINtNtB2t_3map3MapIB2Z_IB2Z_INtNtNtB1t_5slice4iter4IterNtNtCs6IAuOt8vWmF_3syn5error12ErrorMessageENvMs_B3S_B3Q_16to_compile_errorENCINvXs7_BI_NtBI_11TokenStreamINtB1n_12FromIteratorB5f_E9from_iterB3k_E0ENCINvXs6_NtBI_3impNtB6n_11TokenStreamIB5y_B6w_E9from_iterB3f_Es_0EEEB3U_, symObjAddr: 0xED4, symBinAddr: 0x2572C, symSize: 0x48 }
  - { offset: 0x55D66, size: 0x8, addend: 0x0, symName: __RINvXsh_NtCse1nGBsou5OW_5alloc3vecINtB6_3VecNtNtCs6IAuOt8vWmF_3syn4attr9AttributeEINtNtNtNtCsfvfooZQ3Axs_4core4iter6traits7collect6ExtendBG_E6extendBw_EBK_, symObjAddr: 0xF1C, symBinAddr: 0x25774, symSize: 0x48 }
  - { offset: 0x55DBB, size: 0x8, addend: 0x0, symName: __RINvXsh_NtCse1nGBsou5OW_5alloc3vecINtB6_3VecNtNtCs6IAuOt8vWmF_3syn8generics14TypeParamBoundEINtNtNtNtCsfvfooZQ3Axs_4core4iter6traits7collect6ExtendBG_E6extendINtNtB1B_6option6OptionBG_EEBK_, symObjAddr: 0x108C, symBinAddr: 0x257BC, symSize: 0x48 }
  - { offset: 0x55E10, size: 0x8, addend: 0x0, symName: __RINvXsh_NtCse1nGBsou5OW_5alloc3vecINtB6_3VecNtNtCs6IAuOt8vWmF_3syn8generics14TypeParamBoundEINtNtNtNtCsfvfooZQ3Axs_4core4iter6traits7collect6ExtendBG_E6extendINtNtNtB1z_8adapters3map3MapINtNtB6_9into_iter8IntoIterTBG_NtNtBK_5token4PlusEENCNvXs8_NtBK_10punctuatedINtB3V_10PunctuatedBG_B3t_ENtB1v_12IntoIterator9into_iter0EEBK_, symObjAddr: 0x10D4, symBinAddr: 0x25804, symSize: 0x48 }
  - { offset: 0x55E70, size: 0x8, addend: 0x0, symName: __RNCINvMsi_NtCse1nGBsou5OW_5alloc3vecINtB8_3VecNtNtCs6IAuOt8vWmF_3syn8generics14TypeParamBoundE14extend_trustedINtNtCsfvfooZQ3Axs_4core6option8IntoIterBI_EE0BM_, symObjAddr: 0x1218, symBinAddr: 0x2584C, symSize: 0x54 }
  - { offset: 0x55F2E, size: 0x8, addend: 0x0, symName: __RNCINvMsi_NtCse1nGBsou5OW_5alloc3vecINtB8_3VecNtNtCs6IAuOt8vWmF_3syn8generics14TypeParamBoundE14extend_trustedINtNtNtNtCsfvfooZQ3Axs_4core4iter8adapters3map3MapINtNtB8_9into_iter8IntoIterTBI_NtNtBM_5token4PlusEENCNvXs8_NtBM_10punctuatedINtB3v_10PunctuatedBI_B33_ENtNtNtB1R_6traits7collect12IntoIterator9into_iter0EE0BM_, symObjAddr: 0x126C, symBinAddr: 0x258A0, symSize: 0x54 }
  - { offset: 0x5642E, size: 0x8, addend: 0x0, symName: __RNvXs6_NtCse1nGBsou5OW_5alloc3vecINtB5_3VecNtNtCs6IAuOt8vWmF_3syn4attr9AttributeENtNtNtCsfvfooZQ3Axs_4core3ops5deref5Deref5derefBJ_, symObjAddr: 0x6C60, symBinAddr: 0x296EC, symSize: 0x24 }
  - { offset: 0x5646E, size: 0x8, addend: 0x0, symName: __RNvXs6_NtCse1nGBsou5OW_5alloc3vecINtB5_3VecNtNtCs6IAuOt8vWmF_3syn4expr3ArmENtNtNtCsfvfooZQ3Axs_4core3ops5deref5Deref5derefBJ_, symObjAddr: 0x6C84, symBinAddr: 0x29710, symSize: 0x24 }
  - { offset: 0x564AE, size: 0x8, addend: 0x0, symName: __RNvXs6_NtCse1nGBsou5OW_5alloc3vecINtB5_3VecNtNtCs6IAuOt8vWmF_3syn5error12ErrorMessageENtNtNtCsfvfooZQ3Axs_4core3ops5deref5Deref5derefBJ_, symObjAddr: 0x6CA8, symBinAddr: 0x29734, symSize: 0x24 }
  - { offset: 0x564EE, size: 0x8, addend: 0x0, symName: __RNvXs6_NtCse1nGBsou5OW_5alloc3vecINtB5_3VecReENtNtNtCsfvfooZQ3Axs_4core3ops5deref5Deref5derefCs6IAuOt8vWmF_3syn, symObjAddr: 0x6CCC, symBinAddr: 0x29758, symSize: 0x24 }
  - { offset: 0x5652E, size: 0x8, addend: 0x0, symName: __RNvXs6_NtCse1nGBsou5OW_5alloc3vecINtB5_3VecTNtNtCs6IAuOt8vWmF_3syn2ty4TypeNtNtBK_5token5CommaEENtNtNtCsfvfooZQ3Axs_4core3ops5deref5Deref5derefBK_, symObjAddr: 0x6CF0, symBinAddr: 0x2977C, symSize: 0x24 }
  - { offset: 0x5656E, size: 0x8, addend: 0x0, symName: __RNvXs6_NtCse1nGBsou5OW_5alloc3vecINtB5_3VecTNtNtCs6IAuOt8vWmF_3syn2ty9BareFnArgNtNtBK_5token5CommaEENtNtNtCsfvfooZQ3Axs_4core3ops5deref5Deref5derefBK_, symObjAddr: 0x6D14, symBinAddr: 0x297A0, symSize: 0x24 }
  - { offset: 0x565AE, size: 0x8, addend: 0x0, symName: __RNvXs6_NtCse1nGBsou5OW_5alloc3vecINtB5_3VecTNtNtCs6IAuOt8vWmF_3syn3pat3PatNtNtBK_5token2OrEENtNtNtCsfvfooZQ3Axs_4core3ops5deref5Deref5derefBK_, symObjAddr: 0x6D38, symBinAddr: 0x297C4, symSize: 0x24 }
  - { offset: 0x565EE, size: 0x8, addend: 0x0, symName: __RNvXs6_NtCse1nGBsou5OW_5alloc3vecINtB5_3VecTNtNtCs6IAuOt8vWmF_3syn3pat3PatNtNtBK_5token5CommaEENtNtNtCsfvfooZQ3Axs_4core3ops5deref5Deref5derefBK_, symObjAddr: 0x6D5C, symBinAddr: 0x297E8, symSize: 0x24 }
  - { offset: 0x5662E, size: 0x8, addend: 0x0, symName: __RNvXs6_NtCse1nGBsou5OW_5alloc3vecINtB5_3VecTNtNtCs6IAuOt8vWmF_3syn3pat8FieldPatNtNtBK_5token5CommaEENtNtNtCsfvfooZQ3Axs_4core3ops5deref5Deref5derefBK_, symObjAddr: 0x6D80, symBinAddr: 0x2980C, symSize: 0x24 }
  - { offset: 0x5666E, size: 0x8, addend: 0x0, symName: __RNvXs6_NtCse1nGBsou5OW_5alloc3vecINtB5_3VecTNtNtCs6IAuOt8vWmF_3syn4data5FieldNtNtBK_5token5CommaEENtNtNtCsfvfooZQ3Axs_4core3ops5deref5Deref5derefBK_, symObjAddr: 0x6DA4, symBinAddr: 0x29830, symSize: 0x24 }
  - { offset: 0x566AE, size: 0x8, addend: 0x0, symName: __RNvXs6_NtCse1nGBsou5OW_5alloc3vecINtB5_3VecTNtNtCs6IAuOt8vWmF_3syn4data7VariantNtNtBK_5token5CommaEENtNtNtCsfvfooZQ3Axs_4core3ops5deref5Deref5derefBK_, symObjAddr: 0x6DC8, symBinAddr: 0x29854, symSize: 0x24 }
  - { offset: 0x566EE, size: 0x8, addend: 0x0, symName: __RNvXs6_NtCse1nGBsou5OW_5alloc3vecINtB5_3VecTNtNtCs6IAuOt8vWmF_3syn4expr10FieldValueNtNtBK_5token5CommaEENtNtNtCsfvfooZQ3Axs_4core3ops5deref5Deref5derefBK_, symObjAddr: 0x6DEC, symBinAddr: 0x29878, symSize: 0x24 }
  - { offset: 0x5672E, size: 0x8, addend: 0x0, symName: __RNvXs6_NtCse1nGBsou5OW_5alloc3vecINtB5_3VecTNtNtCs6IAuOt8vWmF_3syn4expr4ExprNtNtBK_5token5CommaEENtNtNtCsfvfooZQ3Axs_4core3ops5deref5Deref5derefBK_, symObjAddr: 0x6E10, symBinAddr: 0x2989C, symSize: 0x24 }
  - { offset: 0x5676E, size: 0x8, addend: 0x0, symName: __RNvXs6_NtCse1nGBsou5OW_5alloc3vecINtB5_3VecTNtNtCs6IAuOt8vWmF_3syn4item5FnArgNtNtBK_5token5CommaEENtNtNtCsfvfooZQ3Axs_4core3ops5deref5Deref5derefBK_, symObjAddr: 0x6E34, symBinAddr: 0x298C0, symSize: 0x24 }
  - { offset: 0x567AE, size: 0x8, addend: 0x0, symName: __RNvXs6_NtCse1nGBsou5OW_5alloc3vecINtB5_3VecTNtNtCs6IAuOt8vWmF_3syn4item7UseTreeNtNtBK_5token5CommaEENtNtNtCsfvfooZQ3Axs_4core3ops5deref5Deref5derefBK_, symObjAddr: 0x6E58, symBinAddr: 0x298E4, symSize: 0x24 }
  - { offset: 0x567EE, size: 0x8, addend: 0x0, symName: __RNvXs6_NtCse1nGBsou5OW_5alloc3vecINtB5_3VecTNtNtCs6IAuOt8vWmF_3syn4path11PathSegmentNtNtBK_5token7PathSepEENtNtNtCsfvfooZQ3Axs_4core3ops5deref5Deref5derefBK_, symObjAddr: 0x6E7C, symBinAddr: 0x29908, symSize: 0x24 }
  - { offset: 0x5682E, size: 0x8, addend: 0x0, symName: __RNvXs6_NtCse1nGBsou5OW_5alloc3vecINtB5_3VecTNtNtCs6IAuOt8vWmF_3syn4path15GenericArgumentNtNtBK_5token5CommaEENtNtNtCsfvfooZQ3Axs_4core3ops5deref5Deref5derefBK_, symObjAddr: 0x6EA0, symBinAddr: 0x2992C, symSize: 0x24 }
  - { offset: 0x5686E, size: 0x8, addend: 0x0, symName: __RNvXs6_NtCse1nGBsou5OW_5alloc3vecINtB5_3VecTNtNtCs6IAuOt8vWmF_3syn8generics12GenericParamNtNtBK_5token5CommaEENtNtNtCsfvfooZQ3Axs_4core3ops5deref5Deref5derefBK_, symObjAddr: 0x6EC4, symBinAddr: 0x29950, symSize: 0x24 }
  - { offset: 0x568AE, size: 0x8, addend: 0x0, symName: __RNvXs6_NtCse1nGBsou5OW_5alloc3vecINtB5_3VecTNtNtCs6IAuOt8vWmF_3syn8generics13CapturedParamNtNtBK_5token5CommaEENtNtNtCsfvfooZQ3Axs_4core3ops5deref5Deref5derefBK_, symObjAddr: 0x6EE8, symBinAddr: 0x29974, symSize: 0x24 }
  - { offset: 0x568EE, size: 0x8, addend: 0x0, symName: __RNvXs6_NtCse1nGBsou5OW_5alloc3vecINtB5_3VecTNtNtCs6IAuOt8vWmF_3syn8generics14TypeParamBoundNtNtBK_5token4PlusEENtNtNtCsfvfooZQ3Axs_4core3ops5deref5Deref5derefBK_, symObjAddr: 0x6F0C, symBinAddr: 0x29998, symSize: 0x24 }
  - { offset: 0x5692E, size: 0x8, addend: 0x0, symName: __RNvXs6_NtCse1nGBsou5OW_5alloc3vecINtB5_3VecTNtNtCs6IAuOt8vWmF_3syn8generics14WherePredicateNtNtBK_5token5CommaEENtNtNtCsfvfooZQ3Axs_4core3ops5deref5Deref5derefBK_, symObjAddr: 0x6F30, symBinAddr: 0x299BC, symSize: 0x24 }
  - { offset: 0x5696E, size: 0x8, addend: 0x0, symName: __RNvXs6_NtCse1nGBsou5OW_5alloc3vecINtB5_3VecTNtNtCs6IAuOt8vWmF_3syn8lifetime8LifetimeNtNtBK_5token4PlusEENtNtNtCsfvfooZQ3Axs_4core3ops5deref5Deref5derefBK_, symObjAddr: 0x6F54, symBinAddr: 0x299E0, symSize: 0x24 }
  - { offset: 0x569AE, size: 0x8, addend: 0x0, symName: __RNvXs6_NtCse1nGBsou5OW_5alloc3vecINtB5_3VechENtNtNtCsfvfooZQ3Axs_4core3ops5deref5Deref5derefCs6IAuOt8vWmF_3syn, symObjAddr: 0x6F78, symBinAddr: 0x29A04, symSize: 0x24 }
  - { offset: 0x56C94, size: 0x8, addend: 0x0, symName: __RNvXsb_NtCse1nGBsou5OW_5alloc3vecINtB5_3VecNtNtCs6IAuOt8vWmF_3syn5error12ErrorMessageEINtNtNtCsfvfooZQ3Axs_4core3ops5index5IndexjE5indexBJ_, symObjAddr: 0x7EA4, symBinAddr: 0x29AAC, symSize: 0x84 }
  - { offset: 0x56E16, size: 0x8, addend: 0x0, symName: __RNvXsb_NtCse1nGBsou5OW_5alloc3vecINtB5_3VecReEINtNtNtCsfvfooZQ3Axs_4core3ops5index5IndexjE5indexCs6IAuOt8vWmF_3syn, symObjAddr: 0x7F28, symBinAddr: 0x29B30, symSize: 0x84 }
  - { offset: 0x56F98, size: 0x8, addend: 0x0, symName: __RNvXsb_NtCse1nGBsou5OW_5alloc3vecINtB5_3VecTNtNtCs6IAuOt8vWmF_3syn3pat3PatNtNtBK_5token5CommaEEINtNtNtCsfvfooZQ3Axs_4core3ops5index5IndexjE5indexBK_, symObjAddr: 0x7FAC, symBinAddr: 0x29BB4, symSize: 0x84 }
  - { offset: 0x5711A, size: 0x8, addend: 0x0, symName: __RNvXsb_NtCse1nGBsou5OW_5alloc3vecINtB5_3VecTNtNtCs6IAuOt8vWmF_3syn4path11PathSegmentNtNtBK_5token7PathSepEEINtNtNtCsfvfooZQ3Axs_4core3ops5index5IndexjE5indexBK_, symObjAddr: 0x8030, symBinAddr: 0x29C38, symSize: 0x84 }
  - { offset: 0x5729C, size: 0x8, addend: 0x0, symName: __RNvXsb_NtCse1nGBsou5OW_5alloc3vecINtB5_3VechEINtNtNtCsfvfooZQ3Axs_4core3ops5index5IndexINtNtBM_5range9RangeFromjEE5indexCs6IAuOt8vWmF_3syn, symObjAddr: 0x80B4, symBinAddr: 0x29CBC, symSize: 0x80 }
  - { offset: 0x5741E, size: 0x8, addend: 0x0, symName: __RNvXsb_NtCse1nGBsou5OW_5alloc3vecINtB5_3VechEINtNtNtCsfvfooZQ3Axs_4core3ops5index5IndexjE5indexCs6IAuOt8vWmF_3syn, symObjAddr: 0x8134, symBinAddr: 0x29D3C, symSize: 0x80 }
  - { offset: 0x575AB, size: 0x8, addend: 0x0, symName: __RNvXNtNtCse1nGBsou5OW_5alloc3vec11spec_extendINtB4_3VecNtCs3cP53eQoTwO_11proc_macro29TokenTreeEINtB2_10SpecExtendBR_INtNtNtNtCsfvfooZQ3Axs_4core4iter8adapters7flatten7FlattenINtNtB1V_3map3MapIB2N_IB2N_INtNtNtB1Z_5slice4iter4IterNtNtCs6IAuOt8vWmF_3syn5error12ErrorMessageENvMs_B3G_B3E_16to_compile_errorENCINvXs7_BT_NtBT_11TokenStreamINtNtNtB1X_6traits7collect12FromIteratorB53_E9from_iterB38_E0ENCINvXs6_NtBT_3impNtB6u_11TokenStreamIB5m_B6D_E9from_iterB33_Es_0EEE11spec_extendB3I_, symObjAddr: 0x6590, symBinAddr: 0x2934C, symSize: 0x24 }
  - { offset: 0x57603, size: 0x8, addend: 0x0, symName: __RNvXs0_NtNtCse1nGBsou5OW_5alloc3vec11spec_extendINtB7_3VecNtNtCs6IAuOt8vWmF_3syn4attr9AttributeEINtB5_10SpecExtendBU_INtNtB7_9into_iter8IntoIterBU_EE11spec_extendBY_, symObjAddr: 0x6AB8, symBinAddr: 0x2960C, symSize: 0x98 }
  - { offset: 0x5766F, size: 0x8, addend: 0x0, symName: __RNvXs_NtNtCse1nGBsou5OW_5alloc3vec11spec_extendINtB6_3VecNtNtCs6IAuOt8vWmF_3syn8generics14TypeParamBoundEINtB4_10SpecExtendBT_INtNtCsfvfooZQ3Axs_4core6option8IntoIterBT_EE11spec_extendBX_, symObjAddr: 0x7E5C, symBinAddr: 0x29A64, symSize: 0x24 }
  - { offset: 0x576C1, size: 0x8, addend: 0x0, symName: __RNvXs_NtNtCse1nGBsou5OW_5alloc3vec11spec_extendINtB6_3VecNtNtCs6IAuOt8vWmF_3syn8generics14TypeParamBoundEINtB4_10SpecExtendBT_INtNtNtNtCsfvfooZQ3Axs_4core4iter8adapters3map3MapINtNtB6_9into_iter8IntoIterTBT_NtNtBX_5token4PlusEENCNvXs8_NtBX_10punctuatedINtB3L_10PunctuatedBT_B3j_ENtNtNtB27_6traits7collect12IntoIterator9into_iter0EE11spec_extendBX_, symObjAddr: 0x7E80, symBinAddr: 0x29A88, symSize: 0x24 }
  - { offset: 0x5771A, size: 0x8, addend: 0x0, symName: __RNvXs7_NtCse1nGBsou5OW_5alloc3vecINtB5_3VecTNtNtCs6IAuOt8vWmF_3syn4path11PathSegmentNtNtBK_5token7PathSepEENtNtNtCsfvfooZQ3Axs_4core3ops5deref8DerefMut9deref_mutBK_, symObjAddr: 0x6FC0, symBinAddr: 0x29A28, symSize: 0x24 }
  - { offset: 0x577F0, size: 0x8, addend: 0x0, symName: __RNvXsc_NtCse1nGBsou5OW_5alloc3vecINtB5_3VecNtNtCs6IAuOt8vWmF_3syn6buffer5EntryEINtNtNtCsfvfooZQ3Axs_4core3ops5index8IndexMutjE9index_mutBJ_, symObjAddr: 0x81B4, symBinAddr: 0x29DBC, symSize: 0x84 }
  - { offset: 0x57944, size: 0x8, addend: 0x0, symName: __RNvXsc_NtCse1nGBsou5OW_5alloc3vecINtB5_3VechEINtNtNtCsfvfooZQ3Axs_4core3ops5index8IndexMutjE9index_mutCs6IAuOt8vWmF_3syn, symObjAddr: 0x8238, symBinAddr: 0x29E40, symSize: 0x80 }
  - { offset: 0x57A9E, size: 0x8, addend: 0x0, symName: __RNvXse_NtCse1nGBsou5OW_5alloc3vecINtB5_3VecNtNtCs6IAuOt8vWmF_3syn4attr9AttributeENtNtNtNtCsfvfooZQ3Axs_4core4iter6traits7collect12IntoIterator9into_iterBJ_, symObjAddr: 0x82B8, symBinAddr: 0x29EC0, symSize: 0xDC }
  - { offset: 0x57D30, size: 0x8, addend: 0x0, symName: __RNvXse_NtCse1nGBsou5OW_5alloc3vecINtB5_3VecNtNtCs6IAuOt8vWmF_3syn8generics14TypeParamBoundENtNtNtNtCsfvfooZQ3Axs_4core4iter6traits7collect12IntoIterator9into_iterBJ_, symObjAddr: 0x855C, symBinAddr: 0x29F9C, symSize: 0xE4 }
  - { offset: 0x57FC2, size: 0x8, addend: 0x0, symName: __RNvXse_NtCse1nGBsou5OW_5alloc3vecINtB5_3VecTNtNtCs6IAuOt8vWmF_3syn4path11PathSegmentNtNtBK_5token7PathSepEENtNtNtNtCsfvfooZQ3Axs_4core4iter6traits7collect12IntoIterator9into_iterBK_, symObjAddr: 0x8808, symBinAddr: 0x2A080, symSize: 0xE4 }
  - { offset: 0x58254, size: 0x8, addend: 0x0, symName: __RNvXse_NtCse1nGBsou5OW_5alloc3vecINtB5_3VecTNtNtCs6IAuOt8vWmF_3syn8generics14TypeParamBoundNtNtBK_5token4PlusEENtNtNtNtCsfvfooZQ3Axs_4core4iter6traits7collect12IntoIterator9into_iterBK_, symObjAddr: 0x88EC, symBinAddr: 0x2A164, symSize: 0xDC }
  - { offset: 0x584EC, size: 0x8, addend: 0x0, symName: __RNvXsf_NtCse1nGBsou5OW_5alloc3vecRINtB5_3VecNtNtCs6IAuOt8vWmF_3syn4attr9AttributeENtNtNtNtCsfvfooZQ3Axs_4core4iter6traits7collect12IntoIterator9into_iterBK_, symObjAddr: 0x89C8, symBinAddr: 0x2A240, symSize: 0x9C }
  - { offset: 0x58748, size: 0x8, addend: 0x0, symName: __RNvXsf_NtCse1nGBsou5OW_5alloc3vecRINtB5_3VecNtNtCs6IAuOt8vWmF_3syn4item11ForeignItemENtNtNtNtCsfvfooZQ3Axs_4core4iter6traits7collect12IntoIterator9into_iterBK_, symObjAddr: 0x8A64, symBinAddr: 0x2A2DC, symSize: 0xA4 }
  - { offset: 0x589A4, size: 0x8, addend: 0x0, symName: __RNvXsf_NtCse1nGBsou5OW_5alloc3vecRINtB5_3VecNtNtCs6IAuOt8vWmF_3syn4item4ItemENtNtNtNtCsfvfooZQ3Axs_4core4iter6traits7collect12IntoIterator9into_iterBK_, symObjAddr: 0x8B08, symBinAddr: 0x2A380, symSize: 0xA4 }
  - { offset: 0x58C00, size: 0x8, addend: 0x0, symName: __RNvXsf_NtCse1nGBsou5OW_5alloc3vecRINtB5_3VecNtNtCs6IAuOt8vWmF_3syn4item8ImplItemENtNtNtNtCsfvfooZQ3Axs_4core4iter6traits7collect12IntoIterator9into_iterBK_, symObjAddr: 0x8BAC, symBinAddr: 0x2A424, symSize: 0xA4 }
  - { offset: 0x58E5C, size: 0x8, addend: 0x0, symName: __RNvXsf_NtCse1nGBsou5OW_5alloc3vecRINtB5_3VecNtNtCs6IAuOt8vWmF_3syn4item9TraitItemENtNtNtNtCsfvfooZQ3Axs_4core4iter6traits7collect12IntoIterator9into_iterBK_, symObjAddr: 0x8C50, symBinAddr: 0x2A4C8, symSize: 0xA4 }
  - { offset: 0x590B8, size: 0x8, addend: 0x0, symName: __RNvXsf_NtCse1nGBsou5OW_5alloc3vecRINtB5_3VecNtNtCs6IAuOt8vWmF_3syn4stmt4StmtENtNtNtNtCsfvfooZQ3Axs_4core4iter6traits7collect12IntoIterator9into_iterBK_, symObjAddr: 0x8CF4, symBinAddr: 0x2A56C, symSize: 0xA4 }
  - { offset: 0x5931A, size: 0x8, addend: 0x0, symName: __RNvXsg_NtCse1nGBsou5OW_5alloc3vecQINtB5_3VechENtNtNtNtCsfvfooZQ3Axs_4core4iter6traits7collect12IntoIterator9into_iterCs6IAuOt8vWmF_3syn, symObjAddr: 0x9918, symBinAddr: 0x2A610, symSize: 0x98 }
  - { offset: 0x5954E, size: 0x8, addend: 0x0, symName: __RNvXsn_NtCse1nGBsou5OW_5alloc3vecINtB5_3VecNtNtCs6IAuOt8vWmF_3syn4attr9AttributeENtNtNtCsfvfooZQ3Axs_4core3ops4drop4Drop4dropBJ_, symObjAddr: 0x99B0, symBinAddr: 0x2A6A8, symSize: 0x38 }
  - { offset: 0x595FE, size: 0x8, addend: 0x0, symName: __RNvXsn_NtCse1nGBsou5OW_5alloc3vecINtB5_3VecNtNtCs6IAuOt8vWmF_3syn4expr3ArmENtNtNtCsfvfooZQ3Axs_4core3ops4drop4Drop4dropBJ_, symObjAddr: 0x9A20, symBinAddr: 0x2A6E0, symSize: 0x38 }
  - { offset: 0x596AE, size: 0x8, addend: 0x0, symName: __RNvXsn_NtCse1nGBsou5OW_5alloc3vecINtB5_3VecNtNtCs6IAuOt8vWmF_3syn4expr6ExprIfENtNtNtCsfvfooZQ3Axs_4core3ops4drop4Drop4dropBJ_, symObjAddr: 0x9A58, symBinAddr: 0x2A718, symSize: 0x38 }
  - { offset: 0x5975E, size: 0x8, addend: 0x0, symName: __RNvXsn_NtCse1nGBsou5OW_5alloc3vecINtB5_3VecNtNtCs6IAuOt8vWmF_3syn4item11ForeignItemENtNtNtCsfvfooZQ3Axs_4core3ops4drop4Drop4dropBJ_, symObjAddr: 0x9A90, symBinAddr: 0x2A750, symSize: 0x38 }
  - { offset: 0x5980E, size: 0x8, addend: 0x0, symName: __RNvXsn_NtCse1nGBsou5OW_5alloc3vecINtB5_3VecNtNtCs6IAuOt8vWmF_3syn4item4ItemENtNtNtCsfvfooZQ3Axs_4core3ops4drop4Drop4dropBJ_, symObjAddr: 0x9AC8, symBinAddr: 0x2A788, symSize: 0x38 }
  - { offset: 0x598BE, size: 0x8, addend: 0x0, symName: __RNvXsn_NtCse1nGBsou5OW_5alloc3vecINtB5_3VecNtNtCs6IAuOt8vWmF_3syn4item8ImplItemENtNtNtCsfvfooZQ3Axs_4core3ops4drop4Drop4dropBJ_, symObjAddr: 0x9B00, symBinAddr: 0x2A7C0, symSize: 0x38 }
  - { offset: 0x5996E, size: 0x8, addend: 0x0, symName: __RNvXsn_NtCse1nGBsou5OW_5alloc3vecINtB5_3VecNtNtCs6IAuOt8vWmF_3syn4item9TraitItemENtNtNtCsfvfooZQ3Axs_4core3ops4drop4Drop4dropBJ_, symObjAddr: 0x9B38, symBinAddr: 0x2A7F8, symSize: 0x38 }
  - { offset: 0x59A1E, size: 0x8, addend: 0x0, symName: __RNvXsn_NtCse1nGBsou5OW_5alloc3vecINtB5_3VecNtNtCs6IAuOt8vWmF_3syn4stmt4StmtENtNtNtCsfvfooZQ3Axs_4core3ops4drop4Drop4dropBJ_, symObjAddr: 0x9B70, symBinAddr: 0x2A830, symSize: 0x38 }
  - { offset: 0x59ACE, size: 0x8, addend: 0x0, symName: __RNvXsn_NtCse1nGBsou5OW_5alloc3vecINtB5_3VecNtNtCs6IAuOt8vWmF_3syn5error12ErrorMessageENtNtNtCsfvfooZQ3Axs_4core3ops4drop4Drop4dropBJ_, symObjAddr: 0x9BA8, symBinAddr: 0x2A868, symSize: 0x38 }
  - { offset: 0x59B7E, size: 0x8, addend: 0x0, symName: __RNvXsn_NtCse1nGBsou5OW_5alloc3vecINtB5_3VecNtNtCs6IAuOt8vWmF_3syn6buffer5EntryENtNtNtCsfvfooZQ3Axs_4core3ops4drop4Drop4dropBJ_, symObjAddr: 0x9BE0, symBinAddr: 0x2A8A0, symSize: 0x38 }
  - { offset: 0x59C2E, size: 0x8, addend: 0x0, symName: __RNvXsn_NtCse1nGBsou5OW_5alloc3vecINtB5_3VecNtNtCs6IAuOt8vWmF_3syn8generics14TypeParamBoundENtNtNtCsfvfooZQ3Axs_4core3ops4drop4Drop4dropBJ_, symObjAddr: 0x9C18, symBinAddr: 0x2A8D8, symSize: 0x38 }
  - { offset: 0x59CDE, size: 0x8, addend: 0x0, symName: __RNvXsn_NtCse1nGBsou5OW_5alloc3vecINtB5_3VecReENtNtNtCsfvfooZQ3Axs_4core3ops4drop4Drop4dropCs6IAuOt8vWmF_3syn, symObjAddr: 0x9C50, symBinAddr: 0x2A910, symSize: 0x24 }
  - { offset: 0x59D8E, size: 0x8, addend: 0x0, symName: __RNvXsn_NtCse1nGBsou5OW_5alloc3vecINtB5_3VecTNtNtCs6IAuOt8vWmF_3syn2ty4TypeNtNtBK_5token5CommaEENtNtNtCsfvfooZQ3Axs_4core3ops4drop4Drop4dropBK_, symObjAddr: 0x9C74, symBinAddr: 0x2A934, symSize: 0x38 }
  - { offset: 0x59E3E, size: 0x8, addend: 0x0, symName: __RNvXsn_NtCse1nGBsou5OW_5alloc3vecINtB5_3VecTNtNtCs6IAuOt8vWmF_3syn2ty9BareFnArgNtNtBK_5token5CommaEENtNtNtCsfvfooZQ3Axs_4core3ops4drop4Drop4dropBK_, symObjAddr: 0x9CAC, symBinAddr: 0x2A96C, symSize: 0x38 }
  - { offset: 0x59EEE, size: 0x8, addend: 0x0, symName: __RNvXsn_NtCse1nGBsou5OW_5alloc3vecINtB5_3VecTNtNtCs6IAuOt8vWmF_3syn3pat3PatNtNtBK_5token2OrEENtNtNtCsfvfooZQ3Axs_4core3ops4drop4Drop4dropBK_, symObjAddr: 0x9CE4, symBinAddr: 0x2A9A4, symSize: 0x38 }
  - { offset: 0x59F9E, size: 0x8, addend: 0x0, symName: __RNvXsn_NtCse1nGBsou5OW_5alloc3vecINtB5_3VecTNtNtCs6IAuOt8vWmF_3syn3pat3PatNtNtBK_5token5CommaEENtNtNtCsfvfooZQ3Axs_4core3ops4drop4Drop4dropBK_, symObjAddr: 0x9D1C, symBinAddr: 0x2A9DC, symSize: 0x38 }
  - { offset: 0x5A04E, size: 0x8, addend: 0x0, symName: __RNvXsn_NtCse1nGBsou5OW_5alloc3vecINtB5_3VecTNtNtCs6IAuOt8vWmF_3syn3pat8FieldPatNtNtBK_5token5CommaEENtNtNtCsfvfooZQ3Axs_4core3ops4drop4Drop4dropBK_, symObjAddr: 0x9D54, symBinAddr: 0x2AA14, symSize: 0x38 }
  - { offset: 0x5A0FE, size: 0x8, addend: 0x0, symName: __RNvXsn_NtCse1nGBsou5OW_5alloc3vecINtB5_3VecTNtNtCs6IAuOt8vWmF_3syn4data5FieldNtNtBK_5token5CommaEENtNtNtCsfvfooZQ3Axs_4core3ops4drop4Drop4dropBK_, symObjAddr: 0x9D8C, symBinAddr: 0x2AA4C, symSize: 0x38 }
  - { offset: 0x5A1AE, size: 0x8, addend: 0x0, symName: __RNvXsn_NtCse1nGBsou5OW_5alloc3vecINtB5_3VecTNtNtCs6IAuOt8vWmF_3syn4data7VariantNtNtBK_5token5CommaEENtNtNtCsfvfooZQ3Axs_4core3ops4drop4Drop4dropBK_, symObjAddr: 0x9DFC, symBinAddr: 0x2AA84, symSize: 0x38 }
  - { offset: 0x5A25E, size: 0x8, addend: 0x0, symName: __RNvXsn_NtCse1nGBsou5OW_5alloc3vecINtB5_3VecTNtNtCs6IAuOt8vWmF_3syn4expr10FieldValueNtNtBK_5token5CommaEENtNtNtCsfvfooZQ3Axs_4core3ops4drop4Drop4dropBK_, symObjAddr: 0x9E34, symBinAddr: 0x2AABC, symSize: 0x38 }
  - { offset: 0x5A30E, size: 0x8, addend: 0x0, symName: __RNvXsn_NtCse1nGBsou5OW_5alloc3vecINtB5_3VecTNtNtCs6IAuOt8vWmF_3syn4expr4ExprNtNtBK_5token5CommaEENtNtNtCsfvfooZQ3Axs_4core3ops4drop4Drop4dropBK_, symObjAddr: 0x9E6C, symBinAddr: 0x2AAF4, symSize: 0x38 }
  - { offset: 0x5A3BE, size: 0x8, addend: 0x0, symName: __RNvXsn_NtCse1nGBsou5OW_5alloc3vecINtB5_3VecTNtNtCs6IAuOt8vWmF_3syn4item5FnArgNtNtBK_5token5CommaEENtNtNtCsfvfooZQ3Axs_4core3ops4drop4Drop4dropBK_, symObjAddr: 0x9EA4, symBinAddr: 0x2AB2C, symSize: 0x38 }
  - { offset: 0x5A46E, size: 0x8, addend: 0x0, symName: __RNvXsn_NtCse1nGBsou5OW_5alloc3vecINtB5_3VecTNtNtCs6IAuOt8vWmF_3syn4item7UseTreeNtNtBK_5token5CommaEENtNtNtCsfvfooZQ3Axs_4core3ops4drop4Drop4dropBK_, symObjAddr: 0x9EDC, symBinAddr: 0x2AB64, symSize: 0x38 }
  - { offset: 0x5A51E, size: 0x8, addend: 0x0, symName: __RNvXsn_NtCse1nGBsou5OW_5alloc3vecINtB5_3VecTNtNtCs6IAuOt8vWmF_3syn4path11PathSegmentNtNtBK_5token7PathSepEENtNtNtCsfvfooZQ3Axs_4core3ops4drop4Drop4dropBK_, symObjAddr: 0x9F14, symBinAddr: 0x2AB9C, symSize: 0x38 }
  - { offset: 0x5A5CE, size: 0x8, addend: 0x0, symName: __RNvXsn_NtCse1nGBsou5OW_5alloc3vecINtB5_3VecTNtNtCs6IAuOt8vWmF_3syn4path15GenericArgumentNtNtBK_5token5CommaEENtNtNtCsfvfooZQ3Axs_4core3ops4drop4Drop4dropBK_, symObjAddr: 0x9F4C, symBinAddr: 0x2ABD4, symSize: 0x38 }
  - { offset: 0x5A67E, size: 0x8, addend: 0x0, symName: __RNvXsn_NtCse1nGBsou5OW_5alloc3vecINtB5_3VecTNtNtCs6IAuOt8vWmF_3syn8generics12GenericParamNtNtBK_5token5CommaEENtNtNtCsfvfooZQ3Axs_4core3ops4drop4Drop4dropBK_, symObjAddr: 0x9F84, symBinAddr: 0x2AC0C, symSize: 0x38 }
  - { offset: 0x5A72E, size: 0x8, addend: 0x0, symName: __RNvXsn_NtCse1nGBsou5OW_5alloc3vecINtB5_3VecTNtNtCs6IAuOt8vWmF_3syn8generics13CapturedParamNtNtBK_5token5CommaEENtNtNtCsfvfooZQ3Axs_4core3ops4drop4Drop4dropBK_, symObjAddr: 0x9FBC, symBinAddr: 0x2AC44, symSize: 0x38 }
  - { offset: 0x5A7DE, size: 0x8, addend: 0x0, symName: __RNvXsn_NtCse1nGBsou5OW_5alloc3vecINtB5_3VecTNtNtCs6IAuOt8vWmF_3syn8generics14TypeParamBoundNtNtBK_5token4PlusEENtNtNtCsfvfooZQ3Axs_4core3ops4drop4Drop4dropBK_, symObjAddr: 0x9FF4, symBinAddr: 0x2AC7C, symSize: 0x38 }
  - { offset: 0x5A88E, size: 0x8, addend: 0x0, symName: __RNvXsn_NtCse1nGBsou5OW_5alloc3vecINtB5_3VecTNtNtCs6IAuOt8vWmF_3syn8generics14WherePredicateNtNtBK_5token5CommaEENtNtNtCsfvfooZQ3Axs_4core3ops4drop4Drop4dropBK_, symObjAddr: 0xA02C, symBinAddr: 0x2ACB4, symSize: 0x38 }
  - { offset: 0x5A93E, size: 0x8, addend: 0x0, symName: __RNvXsn_NtCse1nGBsou5OW_5alloc3vecINtB5_3VecTNtNtCs6IAuOt8vWmF_3syn8lifetime8LifetimeNtNtBK_5token4PlusEENtNtNtCsfvfooZQ3Axs_4core3ops4drop4Drop4dropBK_, symObjAddr: 0xA064, symBinAddr: 0x2ACEC, symSize: 0x38 }
  - { offset: 0x5A9F4, size: 0x8, addend: 0x0, symName: __RNvXsp_NtCse1nGBsou5OW_5alloc3vecINtB5_3VecNtNtCs6IAuOt8vWmF_3syn5error12ErrorMessageENtNtCsfvfooZQ3Axs_4core3fmt5Debug3fmtBJ_, symObjAddr: 0xA3C8, symBinAddr: 0x2AD24, symSize: 0x74 }
  - { offset: 0x5AB04, size: 0x8, addend: 0x0, symName: __RNvXsp_NtCse1nGBsou5OW_5alloc3vecINtB5_3VechENtNtCsfvfooZQ3Axs_4core3fmt5Debug3fmtCs6IAuOt8vWmF_3syn, symObjAddr: 0xA43C, symBinAddr: 0x2AD98, symSize: 0x70 }
  - { offset: 0x5D032, size: 0x8, addend: 0x0, symName: __RNvXsV_NtCse1nGBsou5OW_5alloc6stringINtNtB7_3vec3VechEINtNtCsfvfooZQ3Axs_4core7convert4FromNtB5_6StringE4fromCs6IAuOt8vWmF_3syn, symObjAddr: 0x7DD8, symBinAddr: 0x29A4C, symSize: 0x18 }
  - { offset: 0x5D287, size: 0x8, addend: 0x0, symName: __RNvXNvMs_NtNtCse1nGBsou5OW_5alloc3ffi5c_strNtB7_7CString3newINtNtBb_3vec3VechENtB2_11SpecNewImpl13spec_new_implCs6IAuOt8vWmF_3syn, symObjAddr: 0x6940, symBinAddr: 0x29494, symSize: 0x178 }
  - { offset: 0x6230A, size: 0x8, addend: 0x0, symName: __RINvMs_NtCse1nGBsou5OW_5alloc3vecINtB5_3VecReE10retain_mutNCNvMNtCs6IAuOt8vWmF_3syn9lookaheadNtBZ_10Lookahead15error0EB11_, symObjAddr: 0x0, symBinAddr: 0x24F18, symSize: 0xE4 }
  - { offset: 0x625E6, size: 0x8, addend: 0x0, symName: __RINvMsi_NtCse1nGBsou5OW_5alloc3vecINtB6_3VecNtCs3cP53eQoTwO_11proc_macro29TokenTreeE16extend_desugaredINtNtNtNtCsfvfooZQ3Axs_4core4iter8adapters7flatten7FlattenINtNtB1H_3map3MapIB2z_IB2z_INtNtNtB1L_5slice4iter4IterNtNtCs6IAuOt8vWmF_3syn5error12ErrorMessageENvMs_B3s_B3q_16to_compile_errorENCINvXs7_BI_NtBI_11TokenStreamINtNtNtB1J_6traits7collect12FromIteratorB4P_E9from_iterB2U_E0ENCINvXs6_NtBI_3impNtB6g_11TokenStreamIB58_B6p_E9from_iterB2P_Es_0EEEB3u_, symObjAddr: 0xE4, symBinAddr: 0x24FFC, symSize: 0x1D4 }
  - { offset: 0x62F88, size: 0x8, addend: 0x0, symName: __RINvMsi_NtCse1nGBsou5OW_5alloc3vecINtB6_3VecNtNtCs6IAuOt8vWmF_3syn8generics14TypeParamBoundE14extend_trustedINtNtCsfvfooZQ3Axs_4core6option8IntoIterBG_EEBK_, symObjAddr: 0x93C, symBinAddr: 0x251D0, symSize: 0x1A0 }
  - { offset: 0x63234, size: 0x8, addend: 0x0, symName: __RINvMsi_NtCse1nGBsou5OW_5alloc3vecINtB6_3VecNtNtCs6IAuOt8vWmF_3syn8generics14TypeParamBoundE14extend_trustedINtNtNtNtCsfvfooZQ3Axs_4core4iter8adapters3map3MapINtNtB6_9into_iter8IntoIterTBG_NtNtBK_5token4PlusEENCNvXs8_NtBK_10punctuatedINtB3t_10PunctuatedBG_B31_ENtNtNtB1P_6traits7collect12IntoIterator9into_iter0EEBK_, symObjAddr: 0xADC, symBinAddr: 0x25370, symSize: 0x188 }
  - { offset: 0x63572, size: 0x8, addend: 0x0, symName: __RNvMNtCse1nGBsou5OW_5alloc3vecINtB2_3VecNtNtCs6IAuOt8vWmF_3syn4attr9AttributeE3newBG_, symObjAddr: 0x12C0, symBinAddr: 0x258F4, symSize: 0x14 }
  - { offset: 0x6358F, size: 0x8, addend: 0x0, symName: __RNvMNtCse1nGBsou5OW_5alloc3vecINtB2_3VecNtNtCs6IAuOt8vWmF_3syn4expr3ArmE3newBG_, symObjAddr: 0x131C, symBinAddr: 0x25908, symSize: 0x14 }
  - { offset: 0x635AC, size: 0x8, addend: 0x0, symName: __RNvMNtCse1nGBsou5OW_5alloc3vecINtB2_3VecNtNtCs6IAuOt8vWmF_3syn4expr6ExprIfE3newBG_, symObjAddr: 0x1330, symBinAddr: 0x2591C, symSize: 0x14 }
  - { offset: 0x635C9, size: 0x8, addend: 0x0, symName: __RNvMNtCse1nGBsou5OW_5alloc3vecINtB2_3VecNtNtCs6IAuOt8vWmF_3syn4item11ForeignItemE3newBG_, symObjAddr: 0x1344, symBinAddr: 0x25930, symSize: 0x14 }
  - { offset: 0x635E6, size: 0x8, addend: 0x0, symName: __RNvMNtCse1nGBsou5OW_5alloc3vecINtB2_3VecNtNtCs6IAuOt8vWmF_3syn4item4ItemE3newBG_, symObjAddr: 0x1358, symBinAddr: 0x25944, symSize: 0x14 }
  - { offset: 0x63603, size: 0x8, addend: 0x0, symName: __RNvMNtCse1nGBsou5OW_5alloc3vecINtB2_3VecNtNtCs6IAuOt8vWmF_3syn4item8ImplItemE3newBG_, symObjAddr: 0x136C, symBinAddr: 0x25958, symSize: 0x14 }
  - { offset: 0x63620, size: 0x8, addend: 0x0, symName: __RNvMNtCse1nGBsou5OW_5alloc3vecINtB2_3VecNtNtCs6IAuOt8vWmF_3syn4item9TraitItemE3newBG_, symObjAddr: 0x1380, symBinAddr: 0x2596C, symSize: 0x14 }
  - { offset: 0x6363D, size: 0x8, addend: 0x0, symName: __RNvMNtCse1nGBsou5OW_5alloc3vecINtB2_3VecNtNtCs6IAuOt8vWmF_3syn4stmt4StmtE3newBG_, symObjAddr: 0x1394, symBinAddr: 0x25980, symSize: 0x14 }
  - { offset: 0x6365A, size: 0x8, addend: 0x0, symName: __RNvMNtCse1nGBsou5OW_5alloc3vecINtB2_3VecNtNtCs6IAuOt8vWmF_3syn6buffer5EntryE3newBG_, symObjAddr: 0x13A8, symBinAddr: 0x25994, symSize: 0x14 }
  - { offset: 0x636D9, size: 0x8, addend: 0x0, symName: __RNvMNtCse1nGBsou5OW_5alloc3vecINtB2_3VecNtNtCs6IAuOt8vWmF_3syn8generics14TypeParamBoundE13with_capacityBG_, symObjAddr: 0x13BC, symBinAddr: 0x259A8, symSize: 0x48 }
  - { offset: 0x63751, size: 0x8, addend: 0x0, symName: __RNvMNtCse1nGBsou5OW_5alloc3vecINtB2_3VecReE3newCs6IAuOt8vWmF_3syn, symObjAddr: 0x1404, symBinAddr: 0x259F0, symSize: 0x14 }
  - { offset: 0x6376E, size: 0x8, addend: 0x0, symName: __RNvMNtCse1nGBsou5OW_5alloc3vecINtB2_3VecTNtNtCs6IAuOt8vWmF_3syn2ty4TypeNtNtBH_5token5CommaEE3newBH_, symObjAddr: 0x1418, symBinAddr: 0x25A04, symSize: 0x14 }
  - { offset: 0x6378B, size: 0x8, addend: 0x0, symName: __RNvMNtCse1nGBsou5OW_5alloc3vecINtB2_3VecTNtNtCs6IAuOt8vWmF_3syn2ty9BareFnArgNtNtBH_5token5CommaEE3newBH_, symObjAddr: 0x142C, symBinAddr: 0x25A18, symSize: 0x14 }
  - { offset: 0x637A8, size: 0x8, addend: 0x0, symName: __RNvMNtCse1nGBsou5OW_5alloc3vecINtB2_3VecTNtNtCs6IAuOt8vWmF_3syn3pat3PatNtNtBH_5token2OrEE3newBH_, symObjAddr: 0x1440, symBinAddr: 0x25A2C, symSize: 0x14 }
  - { offset: 0x637C5, size: 0x8, addend: 0x0, symName: __RNvMNtCse1nGBsou5OW_5alloc3vecINtB2_3VecTNtNtCs6IAuOt8vWmF_3syn3pat3PatNtNtBH_5token5CommaEE3newBH_, symObjAddr: 0x1454, symBinAddr: 0x25A40, symSize: 0x14 }
  - { offset: 0x637E2, size: 0x8, addend: 0x0, symName: __RNvMNtCse1nGBsou5OW_5alloc3vecINtB2_3VecTNtNtCs6IAuOt8vWmF_3syn3pat8FieldPatNtNtBH_5token5CommaEE3newBH_, symObjAddr: 0x1468, symBinAddr: 0x25A54, symSize: 0x14 }
  - { offset: 0x637FF, size: 0x8, addend: 0x0, symName: __RNvMNtCse1nGBsou5OW_5alloc3vecINtB2_3VecTNtNtCs6IAuOt8vWmF_3syn4data5FieldNtNtBH_5token5CommaEE3newBH_, symObjAddr: 0x147C, symBinAddr: 0x25A68, symSize: 0x14 }
  - { offset: 0x6381C, size: 0x8, addend: 0x0, symName: __RNvMNtCse1nGBsou5OW_5alloc3vecINtB2_3VecTNtNtCs6IAuOt8vWmF_3syn4data7VariantNtNtBH_5token5CommaEE3newBH_, symObjAddr: 0x14A4, symBinAddr: 0x25A7C, symSize: 0x14 }
  - { offset: 0x63839, size: 0x8, addend: 0x0, symName: __RNvMNtCse1nGBsou5OW_5alloc3vecINtB2_3VecTNtNtCs6IAuOt8vWmF_3syn4expr10FieldValueNtNtBH_5token5CommaEE3newBH_, symObjAddr: 0x14B8, symBinAddr: 0x25A90, symSize: 0x14 }
  - { offset: 0x63856, size: 0x8, addend: 0x0, symName: __RNvMNtCse1nGBsou5OW_5alloc3vecINtB2_3VecTNtNtCs6IAuOt8vWmF_3syn4expr4ExprNtNtBH_5token5CommaEE3newBH_, symObjAddr: 0x14CC, symBinAddr: 0x25AA4, symSize: 0x14 }
  - { offset: 0x63873, size: 0x8, addend: 0x0, symName: __RNvMNtCse1nGBsou5OW_5alloc3vecINtB2_3VecTNtNtCs6IAuOt8vWmF_3syn4item5FnArgNtNtBH_5token5CommaEE3newBH_, symObjAddr: 0x14E0, symBinAddr: 0x25AB8, symSize: 0x14 }
  - { offset: 0x63890, size: 0x8, addend: 0x0, symName: __RNvMNtCse1nGBsou5OW_5alloc3vecINtB2_3VecTNtNtCs6IAuOt8vWmF_3syn4item7UseTreeNtNtBH_5token5CommaEE3newBH_, symObjAddr: 0x14F4, symBinAddr: 0x25ACC, symSize: 0x14 }
  - { offset: 0x638AD, size: 0x8, addend: 0x0, symName: __RNvMNtCse1nGBsou5OW_5alloc3vecINtB2_3VecTNtNtCs6IAuOt8vWmF_3syn4path11PathSegmentNtNtBH_5token7PathSepEE3newBH_, symObjAddr: 0x1508, symBinAddr: 0x25AE0, symSize: 0x14 }
  - { offset: 0x638CA, size: 0x8, addend: 0x0, symName: __RNvMNtCse1nGBsou5OW_5alloc3vecINtB2_3VecTNtNtCs6IAuOt8vWmF_3syn4path15GenericArgumentNtNtBH_5token5CommaEE3newBH_, symObjAddr: 0x151C, symBinAddr: 0x25AF4, symSize: 0x14 }
  - { offset: 0x638E7, size: 0x8, addend: 0x0, symName: __RNvMNtCse1nGBsou5OW_5alloc3vecINtB2_3VecTNtNtCs6IAuOt8vWmF_3syn8generics12GenericParamNtNtBH_5token5CommaEE3newBH_, symObjAddr: 0x1530, symBinAddr: 0x25B08, symSize: 0x14 }
  - { offset: 0x63904, size: 0x8, addend: 0x0, symName: __RNvMNtCse1nGBsou5OW_5alloc3vecINtB2_3VecTNtNtCs6IAuOt8vWmF_3syn8generics13CapturedParamNtNtBH_5token5CommaEE3newBH_, symObjAddr: 0x1544, symBinAddr: 0x25B1C, symSize: 0x14 }
  - { offset: 0x63921, size: 0x8, addend: 0x0, symName: __RNvMNtCse1nGBsou5OW_5alloc3vecINtB2_3VecTNtNtCs6IAuOt8vWmF_3syn8generics14TypeParamBoundNtNtBH_5token4PlusEE3newBH_, symObjAddr: 0x1558, symBinAddr: 0x25B30, symSize: 0x14 }
  - { offset: 0x6393E, size: 0x8, addend: 0x0, symName: __RNvMNtCse1nGBsou5OW_5alloc3vecINtB2_3VecTNtNtCs6IAuOt8vWmF_3syn8generics14WherePredicateNtNtBH_5token5CommaEE3newBH_, symObjAddr: 0x156C, symBinAddr: 0x25B44, symSize: 0x14 }
  - { offset: 0x6395B, size: 0x8, addend: 0x0, symName: __RNvMNtCse1nGBsou5OW_5alloc3vecINtB2_3VecTNtNtCs6IAuOt8vWmF_3syn8lifetime8LifetimeNtNtBH_5token4PlusEE3newBH_, symObjAddr: 0x1580, symBinAddr: 0x25B58, symSize: 0x14 }
  - { offset: 0x63978, size: 0x8, addend: 0x0, symName: __RNvMNtCse1nGBsou5OW_5alloc3vecINtB2_3VechE3newCs6IAuOt8vWmF_3syn, symObjAddr: 0x1594, symBinAddr: 0x25B6C, symSize: 0x14 }
  - { offset: 0x63A9A, size: 0x8, addend: 0x0, symName: __RNvMs0_NtCse1nGBsou5OW_5alloc3vecINtB5_3VechE17extend_from_sliceCs6IAuOt8vWmF_3syn, symObjAddr: 0x15A8, symBinAddr: 0x25B80, symSize: 0x74 }
  - { offset: 0x63D22, size: 0x8, addend: 0x0, symName: __RNvMs0_NtCse1nGBsou5OW_5alloc3vecINtB5_3VechE6resizeCs6IAuOt8vWmF_3syn, symObjAddr: 0x161C, symBinAddr: 0x25BF4, symSize: 0x100 }
  - { offset: 0x63FC3, size: 0x8, addend: 0x0, symName: __RNvMs2_NtCse1nGBsou5OW_5alloc3vecINtB5_3VechE11extend_withCs6IAuOt8vWmF_3syn, symObjAddr: 0x171C, symBinAddr: 0x25CF4, symSize: 0x230 }
  - { offset: 0x64374, size: 0x8, addend: 0x0, symName: __RNvMs_NtCse1nGBsou5OW_5alloc3vecINtB4_3VecNtNtCs6IAuOt8vWmF_3syn4attr9AttributeE15append_elementsBI_, symObjAddr: 0x194C, symBinAddr: 0x25F24, symSize: 0xD8 }
  - { offset: 0x645A9, size: 0x8, addend: 0x0, symName: __RNvMs_NtCse1nGBsou5OW_5alloc3vecINtB4_3VecNtNtCs6IAuOt8vWmF_3syn4attr9AttributeE4pushBI_, symObjAddr: 0x1A24, symBinAddr: 0x25FFC, symSize: 0x118 }
  - { offset: 0x64845, size: 0x8, addend: 0x0, symName: __RNvMs_NtCse1nGBsou5OW_5alloc3vecINtB4_3VecNtNtCs6IAuOt8vWmF_3syn4attr9AttributeE6appendBI_, symObjAddr: 0x1B3C, symBinAddr: 0x26114, symSize: 0x8C }
  - { offset: 0x64A7A, size: 0x8, addend: 0x0, symName: __RNvMs_NtCse1nGBsou5OW_5alloc3vecINtB4_3VecNtNtCs6IAuOt8vWmF_3syn4attr9AttributeE7reserveBI_, symObjAddr: 0x1BC8, symBinAddr: 0x261A0, symSize: 0xC8 }
  - { offset: 0x64C51, size: 0x8, addend: 0x0, symName: __RNvMs_NtCse1nGBsou5OW_5alloc3vecINtB4_3VecNtNtCs6IAuOt8vWmF_3syn4attr9AttributeE8as_sliceBI_, symObjAddr: 0x1C90, symBinAddr: 0x26268, symSize: 0x64 }
  - { offset: 0x64D30, size: 0x8, addend: 0x0, symName: __RNvMs_NtCse1nGBsou5OW_5alloc3vecINtB4_3VecNtNtCs6IAuOt8vWmF_3syn4attr9AttributeE8is_emptyBI_, symObjAddr: 0x1CF4, symBinAddr: 0x262CC, symSize: 0x20 }
  - { offset: 0x64D90, size: 0x8, addend: 0x0, symName: __RNvMs_NtCse1nGBsou5OW_5alloc3vecINtB4_3VecNtNtCs6IAuOt8vWmF_3syn4expr3ArmE3lenBI_, symObjAddr: 0x1DDC, symBinAddr: 0x262EC, symSize: 0x18 }
  - { offset: 0x64ED8, size: 0x8, addend: 0x0, symName: __RNvMs_NtCse1nGBsou5OW_5alloc3vecINtB4_3VecNtNtCs6IAuOt8vWmF_3syn4expr3ArmE4pushBI_, symObjAddr: 0x1DF4, symBinAddr: 0x26304, symSize: 0x120 }
  - { offset: 0x65126, size: 0x8, addend: 0x0, symName: __RNvMs_NtCse1nGBsou5OW_5alloc3vecINtB4_3VecNtNtCs6IAuOt8vWmF_3syn4expr3ArmE8as_sliceBI_, symObjAddr: 0x1F14, symBinAddr: 0x26424, symSize: 0x64 }
  - { offset: 0x6533A, size: 0x8, addend: 0x0, symName: __RNvMs_NtCse1nGBsou5OW_5alloc3vecINtB4_3VecNtNtCs6IAuOt8vWmF_3syn4expr6ExprIfE3popBI_, symObjAddr: 0x1F78, symBinAddr: 0x26488, symSize: 0x100 }
  - { offset: 0x655AE, size: 0x8, addend: 0x0, symName: __RNvMs_NtCse1nGBsou5OW_5alloc3vecINtB4_3VecNtNtCs6IAuOt8vWmF_3syn4expr6ExprIfE4pushBI_, symObjAddr: 0x2078, symBinAddr: 0x26588, symSize: 0x120 }
  - { offset: 0x65878, size: 0x8, addend: 0x0, symName: __RNvMs_NtCse1nGBsou5OW_5alloc3vecINtB4_3VecNtNtCs6IAuOt8vWmF_3syn4item11ForeignItemE4pushBI_, symObjAddr: 0x2198, symBinAddr: 0x266A8, symSize: 0x120 }
  - { offset: 0x65B42, size: 0x8, addend: 0x0, symName: __RNvMs_NtCse1nGBsou5OW_5alloc3vecINtB4_3VecNtNtCs6IAuOt8vWmF_3syn4item4ItemE4pushBI_, symObjAddr: 0x22B8, symBinAddr: 0x267C8, symSize: 0x120 }
  - { offset: 0x65E0C, size: 0x8, addend: 0x0, symName: __RNvMs_NtCse1nGBsou5OW_5alloc3vecINtB4_3VecNtNtCs6IAuOt8vWmF_3syn4item8ImplItemE4pushBI_, symObjAddr: 0x23D8, symBinAddr: 0x268E8, symSize: 0x120 }
  - { offset: 0x660D6, size: 0x8, addend: 0x0, symName: __RNvMs_NtCse1nGBsou5OW_5alloc3vecINtB4_3VecNtNtCs6IAuOt8vWmF_3syn4item9TraitItemE4pushBI_, symObjAddr: 0x24F8, symBinAddr: 0x26A08, symSize: 0x120 }
  - { offset: 0x663A0, size: 0x8, addend: 0x0, symName: __RNvMs_NtCse1nGBsou5OW_5alloc3vecINtB4_3VecNtNtCs6IAuOt8vWmF_3syn4stmt4StmtE4pushBI_, symObjAddr: 0x2618, symBinAddr: 0x26B28, symSize: 0x120 }
  - { offset: 0x665B2, size: 0x8, addend: 0x0, symName: __RNvMs_NtCse1nGBsou5OW_5alloc3vecINtB4_3VecNtNtCs6IAuOt8vWmF_3syn5error12ErrorMessageE3lenBI_, symObjAddr: 0x2818, symBinAddr: 0x26C48, symSize: 0x18 }
  - { offset: 0x66682, size: 0x8, addend: 0x0, symName: __RNvMs_NtCse1nGBsou5OW_5alloc3vecINtB4_3VecNtNtCs6IAuOt8vWmF_3syn5error12ErrorMessageE8as_sliceBI_, symObjAddr: 0x28F8, symBinAddr: 0x26C60, symSize: 0x64 }
  - { offset: 0x66869, size: 0x8, addend: 0x0, symName: __RNvMs_NtCse1nGBsou5OW_5alloc3vecINtB4_3VecNtNtCs6IAuOt8vWmF_3syn6buffer5EntryE13shrink_to_fitBI_, symObjAddr: 0x295C, symBinAddr: 0x26CC4, symSize: 0xEC }
  - { offset: 0x66ADC, size: 0x8, addend: 0x0, symName: __RNvMs_NtCse1nGBsou5OW_5alloc3vecINtB4_3VecNtNtCs6IAuOt8vWmF_3syn6buffer5EntryE16into_boxed_sliceBI_, symObjAddr: 0x2A48, symBinAddr: 0x26DB0, symSize: 0x110 }
  - { offset: 0x66CA5, size: 0x8, addend: 0x0, symName: __RNvMs_NtCse1nGBsou5OW_5alloc3vecINtB4_3VecNtNtCs6IAuOt8vWmF_3syn6buffer5EntryE3lenBI_, symObjAddr: 0x2B58, symBinAddr: 0x26EC0, symSize: 0x18 }
  - { offset: 0x66DC6, size: 0x8, addend: 0x0, symName: __RNvMs_NtCse1nGBsou5OW_5alloc3vecINtB4_3VecNtNtCs6IAuOt8vWmF_3syn6buffer5EntryE4pushBI_, symObjAddr: 0x2B70, symBinAddr: 0x26ED8, symSize: 0x100 }
  - { offset: 0x67090, size: 0x8, addend: 0x0, symName: __RNvMs_NtCse1nGBsou5OW_5alloc3vecINtB4_3VecNtNtCs6IAuOt8vWmF_3syn8generics14TypeParamBoundE7reserveBI_, symObjAddr: 0x2C70, symBinAddr: 0x26FD8, symSize: 0xC8 }
  - { offset: 0x671F7, size: 0x8, addend: 0x0, symName: __RNvMs_NtCse1nGBsou5OW_5alloc3vecINtB4_3VecReE3lenCs6IAuOt8vWmF_3syn, symObjAddr: 0x2D38, symBinAddr: 0x270A0, symSize: 0x18 }
  - { offset: 0x6730B, size: 0x8, addend: 0x0, symName: __RNvMs_NtCse1nGBsou5OW_5alloc3vecINtB4_3VecReE4pushCs6IAuOt8vWmF_3syn, symObjAddr: 0x2D50, symBinAddr: 0x270B8, symSize: 0xF4 }
  - { offset: 0x6752E, size: 0x8, addend: 0x0, symName: __RNvMs_NtCse1nGBsou5OW_5alloc3vecINtB4_3VecReE8as_sliceCs6IAuOt8vWmF_3syn, symObjAddr: 0x2E44, symBinAddr: 0x271AC, symSize: 0x64 }
  - { offset: 0x675F5, size: 0x8, addend: 0x0, symName: __RNvMs_NtCse1nGBsou5OW_5alloc3vecINtB4_3VecTNtNtCs6IAuOt8vWmF_3syn2ty4TypeNtNtBJ_5token5CommaEE3lenBJ_, symObjAddr: 0x2EA8, symBinAddr: 0x27210, symSize: 0x18 }
  - { offset: 0x6773D, size: 0x8, addend: 0x0, symName: __RNvMs_NtCse1nGBsou5OW_5alloc3vecINtB4_3VecTNtNtCs6IAuOt8vWmF_3syn2ty4TypeNtNtBJ_5token5CommaEE4pushBJ_, symObjAddr: 0x2EC0, symBinAddr: 0x27228, symSize: 0x120 }
  - { offset: 0x6798B, size: 0x8, addend: 0x0, symName: __RNvMs_NtCse1nGBsou5OW_5alloc3vecINtB4_3VecTNtNtCs6IAuOt8vWmF_3syn2ty4TypeNtNtBJ_5token5CommaEE8as_sliceBJ_, symObjAddr: 0x2FE0, symBinAddr: 0x27348, symSize: 0x64 }
  - { offset: 0x67A52, size: 0x8, addend: 0x0, symName: __RNvMs_NtCse1nGBsou5OW_5alloc3vecINtB4_3VecTNtNtCs6IAuOt8vWmF_3syn2ty9BareFnArgNtNtBJ_5token5CommaEE3lenBJ_, symObjAddr: 0x3044, symBinAddr: 0x273AC, symSize: 0x18 }
  - { offset: 0x67B9A, size: 0x8, addend: 0x0, symName: __RNvMs_NtCse1nGBsou5OW_5alloc3vecINtB4_3VecTNtNtCs6IAuOt8vWmF_3syn2ty9BareFnArgNtNtBJ_5token5CommaEE4pushBJ_, symObjAddr: 0x305C, symBinAddr: 0x273C4, symSize: 0x120 }
  - { offset: 0x67DE8, size: 0x8, addend: 0x0, symName: __RNvMs_NtCse1nGBsou5OW_5alloc3vecINtB4_3VecTNtNtCs6IAuOt8vWmF_3syn2ty9BareFnArgNtNtBJ_5token5CommaEE8as_sliceBJ_, symObjAddr: 0x317C, symBinAddr: 0x274E4, symSize: 0x64 }
  - { offset: 0x67FB5, size: 0x8, addend: 0x0, symName: __RNvMs_NtCse1nGBsou5OW_5alloc3vecINtB4_3VecTNtNtCs6IAuOt8vWmF_3syn3pat3PatNtNtBJ_5token2OrEE4pushBJ_, symObjAddr: 0x31E0, symBinAddr: 0x27548, symSize: 0x120 }
  - { offset: 0x68210, size: 0x8, addend: 0x0, symName: __RNvMs_NtCse1nGBsou5OW_5alloc3vecINtB4_3VecTNtNtCs6IAuOt8vWmF_3syn3pat3PatNtNtBJ_5token2OrEE8as_sliceBJ_, symObjAddr: 0x3300, symBinAddr: 0x27668, symSize: 0x64 }
  - { offset: 0x682D7, size: 0x8, addend: 0x0, symName: __RNvMs_NtCse1nGBsou5OW_5alloc3vecINtB4_3VecTNtNtCs6IAuOt8vWmF_3syn3pat3PatNtNtBJ_5token5CommaEE3lenBJ_, symObjAddr: 0x3364, symBinAddr: 0x276CC, symSize: 0x18 }
  - { offset: 0x6841F, size: 0x8, addend: 0x0, symName: __RNvMs_NtCse1nGBsou5OW_5alloc3vecINtB4_3VecTNtNtCs6IAuOt8vWmF_3syn3pat3PatNtNtBJ_5token5CommaEE4pushBJ_, symObjAddr: 0x337C, symBinAddr: 0x276E4, symSize: 0x120 }
  - { offset: 0x6866D, size: 0x8, addend: 0x0, symName: __RNvMs_NtCse1nGBsou5OW_5alloc3vecINtB4_3VecTNtNtCs6IAuOt8vWmF_3syn3pat3PatNtNtBJ_5token5CommaEE8as_sliceBJ_, symObjAddr: 0x349C, symBinAddr: 0x27804, symSize: 0x64 }
  - { offset: 0x6883A, size: 0x8, addend: 0x0, symName: __RNvMs_NtCse1nGBsou5OW_5alloc3vecINtB4_3VecTNtNtCs6IAuOt8vWmF_3syn3pat8FieldPatNtNtBJ_5token5CommaEE4pushBJ_, symObjAddr: 0x3500, symBinAddr: 0x27868, symSize: 0x118 }
  - { offset: 0x68A93, size: 0x8, addend: 0x0, symName: __RNvMs_NtCse1nGBsou5OW_5alloc3vecINtB4_3VecTNtNtCs6IAuOt8vWmF_3syn3pat8FieldPatNtNtBJ_5token5CommaEE8as_sliceBJ_, symObjAddr: 0x3618, symBinAddr: 0x27980, symSize: 0x64 }
  - { offset: 0x68C87, size: 0x8, addend: 0x0, symName: __RNvMs_NtCse1nGBsou5OW_5alloc3vecINtB4_3VecTNtNtCs6IAuOt8vWmF_3syn4data5FieldNtNtBJ_5token5CommaEE4pushBJ_, symObjAddr: 0x36F8, symBinAddr: 0x279E4, symSize: 0x120 }
  - { offset: 0x68ECC, size: 0x8, addend: 0x0, symName: __RNvMs_NtCse1nGBsou5OW_5alloc3vecINtB4_3VecTNtNtCs6IAuOt8vWmF_3syn4data5FieldNtNtBJ_5token5CommaEE8as_sliceBJ_, symObjAddr: 0x3818, symBinAddr: 0x27B04, symSize: 0x64 }
  - { offset: 0x69099, size: 0x8, addend: 0x0, symName: __RNvMs_NtCse1nGBsou5OW_5alloc3vecINtB4_3VecTNtNtCs6IAuOt8vWmF_3syn4data7VariantNtNtBJ_5token5CommaEE4pushBJ_, symObjAddr: 0x3894, symBinAddr: 0x27B68, symSize: 0x120 }
  - { offset: 0x692F4, size: 0x8, addend: 0x0, symName: __RNvMs_NtCse1nGBsou5OW_5alloc3vecINtB4_3VecTNtNtCs6IAuOt8vWmF_3syn4data7VariantNtNtBJ_5token5CommaEE8as_sliceBJ_, symObjAddr: 0x39B4, symBinAddr: 0x27C88, symSize: 0x64 }
  - { offset: 0x694C1, size: 0x8, addend: 0x0, symName: __RNvMs_NtCse1nGBsou5OW_5alloc3vecINtB4_3VecTNtNtCs6IAuOt8vWmF_3syn4expr10FieldValueNtNtBJ_5token5CommaEE4pushBJ_, symObjAddr: 0x3A18, symBinAddr: 0x27CEC, symSize: 0x120 }
  - { offset: 0x6971C, size: 0x8, addend: 0x0, symName: __RNvMs_NtCse1nGBsou5OW_5alloc3vecINtB4_3VecTNtNtCs6IAuOt8vWmF_3syn4expr10FieldValueNtNtBJ_5token5CommaEE8as_sliceBJ_, symObjAddr: 0x3B38, symBinAddr: 0x27E0C, symSize: 0x64 }
  - { offset: 0x697E3, size: 0x8, addend: 0x0, symName: __RNvMs_NtCse1nGBsou5OW_5alloc3vecINtB4_3VecTNtNtCs6IAuOt8vWmF_3syn4expr4ExprNtNtBJ_5token5CommaEE3lenBJ_, symObjAddr: 0x3B9C, symBinAddr: 0x27E70, symSize: 0x18 }
  - { offset: 0x6992B, size: 0x8, addend: 0x0, symName: __RNvMs_NtCse1nGBsou5OW_5alloc3vecINtB4_3VecTNtNtCs6IAuOt8vWmF_3syn4expr4ExprNtNtBJ_5token5CommaEE4pushBJ_, symObjAddr: 0x3BB4, symBinAddr: 0x27E88, symSize: 0x120 }
  - { offset: 0x69B79, size: 0x8, addend: 0x0, symName: __RNvMs_NtCse1nGBsou5OW_5alloc3vecINtB4_3VecTNtNtCs6IAuOt8vWmF_3syn4expr4ExprNtNtBJ_5token5CommaEE8as_sliceBJ_, symObjAddr: 0x3CD4, symBinAddr: 0x27FA8, symSize: 0x64 }
  - { offset: 0x69C40, size: 0x8, addend: 0x0, symName: __RNvMs_NtCse1nGBsou5OW_5alloc3vecINtB4_3VecTNtNtCs6IAuOt8vWmF_3syn4item5FnArgNtNtBJ_5token5CommaEE3lenBJ_, symObjAddr: 0x3D38, symBinAddr: 0x2800C, symSize: 0x18 }
  - { offset: 0x69D88, size: 0x8, addend: 0x0, symName: __RNvMs_NtCse1nGBsou5OW_5alloc3vecINtB4_3VecTNtNtCs6IAuOt8vWmF_3syn4item5FnArgNtNtBJ_5token5CommaEE4pushBJ_, symObjAddr: 0x3D50, symBinAddr: 0x28024, symSize: 0x120 }
  - { offset: 0x69FD6, size: 0x8, addend: 0x0, symName: __RNvMs_NtCse1nGBsou5OW_5alloc3vecINtB4_3VecTNtNtCs6IAuOt8vWmF_3syn4item5FnArgNtNtBJ_5token5CommaEE8as_sliceBJ_, symObjAddr: 0x3E70, symBinAddr: 0x28144, symSize: 0x64 }
  - { offset: 0x6A1A3, size: 0x8, addend: 0x0, symName: __RNvMs_NtCse1nGBsou5OW_5alloc3vecINtB4_3VecTNtNtCs6IAuOt8vWmF_3syn4item7UseTreeNtNtBJ_5token5CommaEE4pushBJ_, symObjAddr: 0x3ED4, symBinAddr: 0x281A8, symSize: 0x118 }
  - { offset: 0x6A3FC, size: 0x8, addend: 0x0, symName: __RNvMs_NtCse1nGBsou5OW_5alloc3vecINtB4_3VecTNtNtCs6IAuOt8vWmF_3syn4item7UseTreeNtNtBJ_5token5CommaEE8as_sliceBJ_, symObjAddr: 0x3FEC, symBinAddr: 0x282C0, symSize: 0x64 }
  - { offset: 0x6A591, size: 0x8, addend: 0x0, symName: __RNvMs_NtCse1nGBsou5OW_5alloc3vecINtB4_3VecTNtNtCs6IAuOt8vWmF_3syn4path11PathSegmentNtNtBJ_5token7PathSepEE12as_mut_sliceBJ_, symObjAddr: 0x4050, symBinAddr: 0x28324, symSize: 0x64 }
  - { offset: 0x6A66D, size: 0x8, addend: 0x0, symName: __RNvMs_NtCse1nGBsou5OW_5alloc3vecINtB4_3VecTNtNtCs6IAuOt8vWmF_3syn4path11PathSegmentNtNtBJ_5token7PathSepEE3lenBJ_, symObjAddr: 0x40B4, symBinAddr: 0x28388, symSize: 0x18 }
  - { offset: 0x6A7BB, size: 0x8, addend: 0x0, symName: __RNvMs_NtCse1nGBsou5OW_5alloc3vecINtB4_3VecTNtNtCs6IAuOt8vWmF_3syn4path11PathSegmentNtNtBJ_5token7PathSepEE3popBJ_, symObjAddr: 0x40CC, symBinAddr: 0x283A0, symSize: 0x104 }
  - { offset: 0x6AA2F, size: 0x8, addend: 0x0, symName: __RNvMs_NtCse1nGBsou5OW_5alloc3vecINtB4_3VecTNtNtCs6IAuOt8vWmF_3syn4path11PathSegmentNtNtBJ_5token7PathSepEE4pushBJ_, symObjAddr: 0x41D0, symBinAddr: 0x284A4, symSize: 0x120 }
  - { offset: 0x6AC74, size: 0x8, addend: 0x0, symName: __RNvMs_NtCse1nGBsou5OW_5alloc3vecINtB4_3VecTNtNtCs6IAuOt8vWmF_3syn4path11PathSegmentNtNtBJ_5token7PathSepEE8as_sliceBJ_, symObjAddr: 0x42F0, symBinAddr: 0x285C4, symSize: 0x64 }
  - { offset: 0x6AD3B, size: 0x8, addend: 0x0, symName: __RNvMs_NtCse1nGBsou5OW_5alloc3vecINtB4_3VecTNtNtCs6IAuOt8vWmF_3syn4path15GenericArgumentNtNtBJ_5token5CommaEE3lenBJ_, symObjAddr: 0x4354, symBinAddr: 0x28628, symSize: 0x18 }
  - { offset: 0x6AE83, size: 0x8, addend: 0x0, symName: __RNvMs_NtCse1nGBsou5OW_5alloc3vecINtB4_3VecTNtNtCs6IAuOt8vWmF_3syn4path15GenericArgumentNtNtBJ_5token5CommaEE4pushBJ_, symObjAddr: 0x436C, symBinAddr: 0x28640, symSize: 0x120 }
  - { offset: 0x6B0D1, size: 0x8, addend: 0x0, symName: __RNvMs_NtCse1nGBsou5OW_5alloc3vecINtB4_3VecTNtNtCs6IAuOt8vWmF_3syn4path15GenericArgumentNtNtBJ_5token5CommaEE8as_sliceBJ_, symObjAddr: 0x448C, symBinAddr: 0x28760, symSize: 0x64 }
  - { offset: 0x6B1F3, size: 0x8, addend: 0x0, symName: __RNvMs_NtCse1nGBsou5OW_5alloc3vecINtB4_3VecTNtNtCs6IAuOt8vWmF_3syn8generics12GenericParamNtNtBJ_5token5CommaEE3lenBJ_, symObjAddr: 0x4554, symBinAddr: 0x287C4, symSize: 0x18 }
  - { offset: 0x6B307, size: 0x8, addend: 0x0, symName: __RNvMs_NtCse1nGBsou5OW_5alloc3vecINtB4_3VecTNtNtCs6IAuOt8vWmF_3syn8generics12GenericParamNtNtBJ_5token5CommaEE4pushBJ_, symObjAddr: 0x456C, symBinAddr: 0x287DC, symSize: 0x120 }
  - { offset: 0x6B54C, size: 0x8, addend: 0x0, symName: __RNvMs_NtCse1nGBsou5OW_5alloc3vecINtB4_3VecTNtNtCs6IAuOt8vWmF_3syn8generics12GenericParamNtNtBJ_5token5CommaEE8as_sliceBJ_, symObjAddr: 0x468C, symBinAddr: 0x288FC, symSize: 0x64 }
  - { offset: 0x6B719, size: 0x8, addend: 0x0, symName: __RNvMs_NtCse1nGBsou5OW_5alloc3vecINtB4_3VecTNtNtCs6IAuOt8vWmF_3syn8generics13CapturedParamNtNtBJ_5token5CommaEE4pushBJ_, symObjAddr: 0x46F0, symBinAddr: 0x28960, symSize: 0x118 }
  - { offset: 0x6B972, size: 0x8, addend: 0x0, symName: __RNvMs_NtCse1nGBsou5OW_5alloc3vecINtB4_3VecTNtNtCs6IAuOt8vWmF_3syn8generics13CapturedParamNtNtBJ_5token5CommaEE8as_sliceBJ_, symObjAddr: 0x4808, symBinAddr: 0x28A78, symSize: 0x64 }
  - { offset: 0x6BA39, size: 0x8, addend: 0x0, symName: __RNvMs_NtCse1nGBsou5OW_5alloc3vecINtB4_3VecTNtNtCs6IAuOt8vWmF_3syn8generics14TypeParamBoundNtNtBJ_5token4PlusEE3lenBJ_, symObjAddr: 0x486C, symBinAddr: 0x28ADC, symSize: 0x18 }
  - { offset: 0x6BB74, size: 0x8, addend: 0x0, symName: __RNvMs_NtCse1nGBsou5OW_5alloc3vecINtB4_3VecTNtNtCs6IAuOt8vWmF_3syn8generics14TypeParamBoundNtNtBJ_5token4PlusEE4pushBJ_, symObjAddr: 0x4884, symBinAddr: 0x28AF4, symSize: 0x118 }
  - { offset: 0x6BDC2, size: 0x8, addend: 0x0, symName: __RNvMs_NtCse1nGBsou5OW_5alloc3vecINtB4_3VecTNtNtCs6IAuOt8vWmF_3syn8generics14TypeParamBoundNtNtBJ_5token4PlusEE8as_sliceBJ_, symObjAddr: 0x499C, symBinAddr: 0x28C0C, symSize: 0x64 }
  - { offset: 0x6BE89, size: 0x8, addend: 0x0, symName: __RNvMs_NtCse1nGBsou5OW_5alloc3vecINtB4_3VecTNtNtCs6IAuOt8vWmF_3syn8generics14WherePredicateNtNtBJ_5token5CommaEE3lenBJ_, symObjAddr: 0x4A00, symBinAddr: 0x28C70, symSize: 0x18 }
  - { offset: 0x6BFD1, size: 0x8, addend: 0x0, symName: __RNvMs_NtCse1nGBsou5OW_5alloc3vecINtB4_3VecTNtNtCs6IAuOt8vWmF_3syn8generics14WherePredicateNtNtBJ_5token5CommaEE4pushBJ_, symObjAddr: 0x4A18, symBinAddr: 0x28C88, symSize: 0x120 }
  - { offset: 0x6C21F, size: 0x8, addend: 0x0, symName: __RNvMs_NtCse1nGBsou5OW_5alloc3vecINtB4_3VecTNtNtCs6IAuOt8vWmF_3syn8generics14WherePredicateNtNtBJ_5token5CommaEE8as_sliceBJ_, symObjAddr: 0x4B38, symBinAddr: 0x28DA8, symSize: 0x64 }
  - { offset: 0x6C2E6, size: 0x8, addend: 0x0, symName: __RNvMs_NtCse1nGBsou5OW_5alloc3vecINtB4_3VecTNtNtCs6IAuOt8vWmF_3syn8lifetime8LifetimeNtNtBJ_5token4PlusEE3lenBJ_, symObjAddr: 0x4B9C, symBinAddr: 0x28E0C, symSize: 0x18 }
  - { offset: 0x6C42E, size: 0x8, addend: 0x0, symName: __RNvMs_NtCse1nGBsou5OW_5alloc3vecINtB4_3VecTNtNtCs6IAuOt8vWmF_3syn8lifetime8LifetimeNtNtBJ_5token4PlusEE4pushBJ_, symObjAddr: 0x4BB4, symBinAddr: 0x28E24, symSize: 0x118 }
  - { offset: 0x6C67A, size: 0x8, addend: 0x0, symName: __RNvMs_NtCse1nGBsou5OW_5alloc3vecINtB4_3VecTNtNtCs6IAuOt8vWmF_3syn8lifetime8LifetimeNtNtBJ_5token4PlusEE8as_sliceBJ_, symObjAddr: 0x4CCC, symBinAddr: 0x28F3C, symSize: 0x64 }
  - { offset: 0x6C83A, size: 0x8, addend: 0x0, symName: __RNvMs_NtCse1nGBsou5OW_5alloc3vecINtB4_3VechE13shrink_to_fitCs6IAuOt8vWmF_3syn, symObjAddr: 0x4D30, symBinAddr: 0x28FA0, symSize: 0xE4 }
  - { offset: 0x6CA68, size: 0x8, addend: 0x0, symName: __RNvMs_NtCse1nGBsou5OW_5alloc3vecINtB4_3VechE16into_boxed_sliceCs6IAuOt8vWmF_3syn, symObjAddr: 0x4E14, symBinAddr: 0x29084, symSize: 0x110 }
  - { offset: 0x6CC31, size: 0x8, addend: 0x0, symName: __RNvMs_NtCse1nGBsou5OW_5alloc3vecINtB4_3VechE3lenCs6IAuOt8vWmF_3syn, symObjAddr: 0x4F24, symBinAddr: 0x29194, symSize: 0x18 }
  - { offset: 0x6CCD6, size: 0x8, addend: 0x0, symName: __RNvMs_NtCse1nGBsou5OW_5alloc3vecINtB4_3VechE8as_sliceCs6IAuOt8vWmF_3syn, symObjAddr: 0x4F3C, symBinAddr: 0x291AC, symSize: 0x60 }
  - { offset: 0x6CF46, size: 0x8, addend: 0x0, symName: __RNvMs_NtCse1nGBsou5OW_5alloc3vecINtB4_3VechE9split_offCs6IAuOt8vWmF_3syn, symObjAddr: 0x4F9C, symBinAddr: 0x2920C, symSize: 0x140 }
  - { offset: 0x736F2, size: 0x8, addend: 0x0, symName: __RNvXNtNtCs6IAuOt8vWmF_3syn4expr7parsingNtB4_4ExprNtNtB6_5parse5Parse5parse, symObjAddr: 0x2BA8, symBinAddr: 0x2BA5C, symSize: 0x3C }
  - { offset: 0x73726, size: 0x8, addend: 0x0, symName: __RNvXs4_NtNtCs6IAuOt8vWmF_3syn4expr7parsingNtB7_7ExprLitNtNtB9_5parse5Parse5parse, symObjAddr: 0x3648, symBinAddr: 0x2BA98, symSize: 0x14C }
  - { offset: 0x73779, size: 0x8, addend: 0x0, symName: __RNvXs7_NtNtCs6IAuOt8vWmF_3syn4expr7parsingNtB7_6ExprIfNtNtB9_5parse5Parse5parse, symObjAddr: 0x3A7C, symBinAddr: 0x2BBE4, symSize: 0x103C }
  - { offset: 0x739EF, size: 0x8, addend: 0x0, symName: __RNvXs8_NtNtCs6IAuOt8vWmF_3syn4expr7parsingNtB7_9ExprInferNtNtB9_5parse5Parse5parse, symObjAddr: 0x4AB8, symBinAddr: 0x2CC20, symSize: 0x1D0 }
  - { offset: 0x73A80, size: 0x8, addend: 0x0, symName: __RNvXs9_NtNtCs6IAuOt8vWmF_3syn4expr7parsingNtB7_11ExprForLoopNtNtB9_5parse5Parse5parse, symObjAddr: 0x4C88, symBinAddr: 0x2CDF0, symSize: 0x9A4 }
  - { offset: 0x73D4F, size: 0x8, addend: 0x0, symName: __RNvXsa_NtNtCs6IAuOt8vWmF_3syn4expr7parsingNtB7_8ExprLoopNtNtB9_5parse5Parse5parse, symObjAddr: 0x562C, symBinAddr: 0x2D794, symSize: 0x590 }
  - { offset: 0x73F02, size: 0x8, addend: 0x0, symName: __RNvXsb_NtNtCs6IAuOt8vWmF_3syn4expr7parsingNtB7_9ExprMatchNtNtB9_5parse5Parse5parse, symObjAddr: 0x5BBC, symBinAddr: 0x2DD24, symSize: 0x60C }
  - { offset: 0x740EB, size: 0x8, addend: 0x0, symName: __RNvXsh_NtNtCs6IAuOt8vWmF_3syn4expr7parsingNtB7_10ExprReturnNtNtB9_5parse5Parse5parse, symObjAddr: 0x6A04, symBinAddr: 0x2E330, symSize: 0x210 }
  - { offset: 0x7414D, size: 0x8, addend: 0x0, symName: __RNvXsi_NtNtCs6IAuOt8vWmF_3syn4expr7parsingNtB7_12ExprTryBlockNtNtB9_5parse5Parse5parse, symObjAddr: 0x6C14, symBinAddr: 0x2E540, symSize: 0x220 }
  - { offset: 0x741BF, size: 0x8, addend: 0x0, symName: __RNvXsj_NtNtCs6IAuOt8vWmF_3syn4expr7parsingNtB7_9ExprYieldNtNtB9_5parse5Parse5parse, symObjAddr: 0x6E34, symBinAddr: 0x2E760, symSize: 0x210 }
  - { offset: 0x74221, size: 0x8, addend: 0x0, symName: __RNvXsk_NtNtCs6IAuOt8vWmF_3syn4expr7parsingNtB7_9ExprAsyncNtNtB9_5parse5Parse5parse, symObjAddr: 0x7044, symBinAddr: 0x2E970, symSize: 0x2E8 }
  - { offset: 0x742B2, size: 0x8, addend: 0x0, symName: __RNvXsl_NtNtCs6IAuOt8vWmF_3syn4expr7parsingNtB7_9ExprWhileNtNtB9_5parse5Parse5parse, symObjAddr: 0x732C, symBinAddr: 0x2EC58, symSize: 0x760 }
  - { offset: 0x744E8, size: 0x8, addend: 0x0, symName: __RNvXsm_NtNtCs6IAuOt8vWmF_3syn4expr7parsingNtB7_9ExprConstNtNtB9_5parse5Parse5parse, symObjAddr: 0x7A8C, symBinAddr: 0x2F3B8, symSize: 0x3BC }
  - { offset: 0x7463E, size: 0x8, addend: 0x0, symName: __RNvXsn_NtNtCs6IAuOt8vWmF_3syn4expr7parsingNtB7_5LabelNtNtB9_5parse5Parse5parse, symObjAddr: 0x7E48, symBinAddr: 0x2F774, symSize: 0x1D4 }
  - { offset: 0x746CF, size: 0x8, addend: 0x0, symName: __RNvXsp_NtNtCs6IAuOt8vWmF_3syn4expr7parsingNtB7_12ExprContinueNtNtB9_5parse5Parse5parse, symObjAddr: 0x801C, symBinAddr: 0x2F948, symSize: 0x200 }
  - { offset: 0x74741, size: 0x8, addend: 0x0, symName: __RNvXsq_NtNtCs6IAuOt8vWmF_3syn4expr7parsingNtB7_10FieldValueNtNtB9_5parse5Parse5parse, symObjAddr: 0x821C, symBinAddr: 0x2FB48, symSize: 0x560 }
  - { offset: 0x748E0, size: 0x8, addend: 0x0, symName: __RNvXss_NtNtCs6IAuOt8vWmF_3syn4expr7parsingNtB7_10ExprUnsafeNtNtB9_5parse5Parse5parse, symObjAddr: 0x893C, symBinAddr: 0x300A8, symSize: 0x3BC }
  - { offset: 0x74A36, size: 0x8, addend: 0x0, symName: __RNvXst_NtNtCs6IAuOt8vWmF_3syn4expr7parsingNtB7_9ExprBlockNtNtB9_5parse5Parse5parse, symObjAddr: 0x8CF8, symBinAddr: 0x30464, symSize: 0x4FC }
  - { offset: 0x74BBC, size: 0x8, addend: 0x0, symName: __RNvXsu_NtNtCs6IAuOt8vWmF_3syn4expr7parsingNtB7_11RangeLimitsNtNtB9_5parse5Parse5parse, symObjAddr: 0x91F4, symBinAddr: 0x30960, symSize: 0x234 }
  - { offset: 0x74C4A, size: 0x8, addend: 0x0, symName: __RNvXsw_NtNtCs6IAuOt8vWmF_3syn4expr7parsingNtB7_8ExprPathNtNtB9_5parse5Parse5parse, symObjAddr: 0x975C, symBinAddr: 0x30EC8, symSize: 0x238 }
  - { offset: 0x74D38, size: 0x8, addend: 0x0, symName: __RNvXsx_NtNtCs6IAuOt8vWmF_3syn4expr7parsingNtB7_6MemberNtNtB9_5parse5Parse5parse, symObjAddr: 0x9994, symBinAddr: 0x31100, symSize: 0xFC }
  - { offset: 0x74D6C, size: 0x8, addend: 0x0, symName: __RNvXsz_NtNtCs6IAuOt8vWmF_3syn4expr7parsingNtB7_3ArmNtNtB9_5parse5Parse5parse, symObjAddr: 0x9C54, symBinAddr: 0x313C0, symSize: 0x8EC }
  - { offset: 0x74FA4, size: 0x8, addend: 0x0, symName: __RNvXsA_NtNtCs6IAuOt8vWmF_3syn4expr7parsingNtB7_5IndexNtNtB9_5parse5Parse5parse, symObjAddr: 0xA540, symBinAddr: 0x31CAC, symSize: 0x28C }
  - { offset: 0x75052, size: 0x8, addend: 0x0, symName: __RNvXNtNtCs6IAuOt8vWmF_3syn4expr8printingNtB4_9ExprArrayNtNtCs2cqEZUIJimJ_5quote9to_tokens8ToTokens9to_tokens, symObjAddr: 0xAA84, symBinAddr: 0x31F38, symSize: 0x58 }
  - { offset: 0x75091, size: 0x8, addend: 0x0, symName: __RNvXs_NtNtCs6IAuOt8vWmF_3syn4expr8printingNtB6_10ExprAssignNtNtCs2cqEZUIJimJ_5quote9to_tokens8ToTokens9to_tokens, symObjAddr: 0xAADC, symBinAddr: 0x31F90, symSize: 0x58 }
  - { offset: 0x750D0, size: 0x8, addend: 0x0, symName: __RNvXs0_NtNtCs6IAuOt8vWmF_3syn4expr8printingNtB7_9ExprAsyncNtNtCs2cqEZUIJimJ_5quote9to_tokens8ToTokens9to_tokens, symObjAddr: 0xAB34, symBinAddr: 0x31FE8, symSize: 0x74 }
  - { offset: 0x7510F, size: 0x8, addend: 0x0, symName: __RNvXs1_NtNtCs6IAuOt8vWmF_3syn4expr8printingNtB7_9ExprAwaitNtNtCs2cqEZUIJimJ_5quote9to_tokens8ToTokens9to_tokens, symObjAddr: 0xABA8, symBinAddr: 0x3205C, symSize: 0x58 }
  - { offset: 0x7514E, size: 0x8, addend: 0x0, symName: __RNvXs2_NtNtCs6IAuOt8vWmF_3syn4expr8printingNtB7_10ExprBinaryNtNtCs2cqEZUIJimJ_5quote9to_tokens8ToTokens9to_tokens, symObjAddr: 0xAC00, symBinAddr: 0x320B4, symSize: 0x58 }
  - { offset: 0x7518D, size: 0x8, addend: 0x0, symName: __RNvXs3_NtNtCs6IAuOt8vWmF_3syn4expr8printingNtB7_9ExprBlockNtNtCs2cqEZUIJimJ_5quote9to_tokens8ToTokens9to_tokens, symObjAddr: 0xAC58, symBinAddr: 0x3210C, symSize: 0x68 }
  - { offset: 0x751CC, size: 0x8, addend: 0x0, symName: __RNvXs4_NtNtCs6IAuOt8vWmF_3syn4expr8printingNtB7_9ExprBreakNtNtCs2cqEZUIJimJ_5quote9to_tokens8ToTokens9to_tokens, symObjAddr: 0xACC0, symBinAddr: 0x32174, symSize: 0x58 }
  - { offset: 0x7520B, size: 0x8, addend: 0x0, symName: __RNvXs5_NtNtCs6IAuOt8vWmF_3syn4expr8printingNtB7_8ExprCallNtNtCs2cqEZUIJimJ_5quote9to_tokens8ToTokens9to_tokens, symObjAddr: 0xAD18, symBinAddr: 0x321CC, symSize: 0x58 }
  - { offset: 0x7524A, size: 0x8, addend: 0x0, symName: __RNvXs6_NtNtCs6IAuOt8vWmF_3syn4expr8printingNtB7_8ExprCastNtNtCs2cqEZUIJimJ_5quote9to_tokens8ToTokens9to_tokens, symObjAddr: 0xAD70, symBinAddr: 0x32224, symSize: 0x58 }
  - { offset: 0x75289, size: 0x8, addend: 0x0, symName: __RNvXs7_NtNtCs6IAuOt8vWmF_3syn4expr8printingNtB7_11ExprClosureNtNtCs2cqEZUIJimJ_5quote9to_tokens8ToTokens9to_tokens, symObjAddr: 0xADC8, symBinAddr: 0x3227C, symSize: 0x58 }
  - { offset: 0x752C8, size: 0x8, addend: 0x0, symName: __RNvXs8_NtNtCs6IAuOt8vWmF_3syn4expr8printingNtB7_9ExprConstNtNtCs2cqEZUIJimJ_5quote9to_tokens8ToTokens9to_tokens, symObjAddr: 0xAE20, symBinAddr: 0x322D4, symSize: 0x68 }
  - { offset: 0x75307, size: 0x8, addend: 0x0, symName: __RNvXs9_NtNtCs6IAuOt8vWmF_3syn4expr8printingNtB7_12ExprContinueNtNtCs2cqEZUIJimJ_5quote9to_tokens8ToTokens9to_tokens, symObjAddr: 0xAE88, symBinAddr: 0x3233C, symSize: 0x64 }
  - { offset: 0x75346, size: 0x8, addend: 0x0, symName: __RNvXsa_NtNtCs6IAuOt8vWmF_3syn4expr8printingNtB7_9ExprFieldNtNtCs2cqEZUIJimJ_5quote9to_tokens8ToTokens9to_tokens, symObjAddr: 0xAEEC, symBinAddr: 0x323A0, symSize: 0x58 }
  - { offset: 0x75385, size: 0x8, addend: 0x0, symName: __RNvXsb_NtNtCs6IAuOt8vWmF_3syn4expr8printingNtB7_11ExprForLoopNtNtCs2cqEZUIJimJ_5quote9to_tokens8ToTokens9to_tokens, symObjAddr: 0xAF44, symBinAddr: 0x323F8, symSize: 0xDC }
  - { offset: 0x753C4, size: 0x8, addend: 0x0, symName: __RNvXsc_NtNtCs6IAuOt8vWmF_3syn4expr8printingNtB7_9ExprGroupNtNtCs2cqEZUIJimJ_5quote9to_tokens8ToTokens9to_tokens, symObjAddr: 0xB020, symBinAddr: 0x324D4, symSize: 0x58 }
  - { offset: 0x75403, size: 0x8, addend: 0x0, symName: __RNvXsd_NtNtCs6IAuOt8vWmF_3syn4expr8printingNtB7_6ExprIfNtNtCs2cqEZUIJimJ_5quote9to_tokens8ToTokens9to_tokens, symObjAddr: 0xB078, symBinAddr: 0x3252C, symSize: 0x208 }
  - { offset: 0x754D9, size: 0x8, addend: 0x0, symName: __RNvXse_NtNtCs6IAuOt8vWmF_3syn4expr8printingNtB7_9ExprIndexNtNtCs2cqEZUIJimJ_5quote9to_tokens8ToTokens9to_tokens, symObjAddr: 0xB280, symBinAddr: 0x32734, symSize: 0x58 }
  - { offset: 0x75518, size: 0x8, addend: 0x0, symName: __RNvXsf_NtNtCs6IAuOt8vWmF_3syn4expr8printingNtB7_9ExprInferNtNtCs2cqEZUIJimJ_5quote9to_tokens8ToTokens9to_tokens, symObjAddr: 0xB2D8, symBinAddr: 0x3278C, symSize: 0x54 }
  - { offset: 0x75557, size: 0x8, addend: 0x0, symName: __RNvXsg_NtNtCs6IAuOt8vWmF_3syn4expr8printingNtB7_7ExprLetNtNtCs2cqEZUIJimJ_5quote9to_tokens8ToTokens9to_tokens, symObjAddr: 0xB32C, symBinAddr: 0x327E0, symSize: 0x58 }
  - { offset: 0x75596, size: 0x8, addend: 0x0, symName: __RNvXsh_NtNtCs6IAuOt8vWmF_3syn4expr8printingNtB7_7ExprLitNtNtCs2cqEZUIJimJ_5quote9to_tokens8ToTokens9to_tokens, symObjAddr: 0xB384, symBinAddr: 0x32838, symSize: 0x54 }
  - { offset: 0x755D5, size: 0x8, addend: 0x0, symName: __RNvXsi_NtNtCs6IAuOt8vWmF_3syn4expr8printingNtB7_8ExprLoopNtNtCs2cqEZUIJimJ_5quote9to_tokens8ToTokens9to_tokens, symObjAddr: 0xB3D8, symBinAddr: 0x3288C, symSize: 0x78 }
  - { offset: 0x75614, size: 0x8, addend: 0x0, symName: __RNvXsj_NtNtCs6IAuOt8vWmF_3syn4expr8printingNtB7_9ExprMacroNtNtCs2cqEZUIJimJ_5quote9to_tokens8ToTokens9to_tokens, symObjAddr: 0xB450, symBinAddr: 0x32904, symSize: 0x54 }
  - { offset: 0x75653, size: 0x8, addend: 0x0, symName: __RNvXsk_NtNtCs6IAuOt8vWmF_3syn4expr8printingNtB7_9ExprMatchNtNtCs2cqEZUIJimJ_5quote9to_tokens8ToTokens9to_tokens, symObjAddr: 0xB4A4, symBinAddr: 0x32958, symSize: 0xAC }
  - { offset: 0x75692, size: 0x8, addend: 0x0, symName: __RNvXsl_NtNtCs6IAuOt8vWmF_3syn4expr8printingNtB7_14ExprMethodCallNtNtCs2cqEZUIJimJ_5quote9to_tokens8ToTokens9to_tokens, symObjAddr: 0xB550, symBinAddr: 0x32A04, symSize: 0x58 }
  - { offset: 0x756D1, size: 0x8, addend: 0x0, symName: __RNvXsm_NtNtCs6IAuOt8vWmF_3syn4expr8printingNtB7_9ExprParenNtNtCs2cqEZUIJimJ_5quote9to_tokens8ToTokens9to_tokens, symObjAddr: 0xB5A8, symBinAddr: 0x32A5C, symSize: 0x58 }
  - { offset: 0x75710, size: 0x8, addend: 0x0, symName: __RNvXsn_NtNtCs6IAuOt8vWmF_3syn4expr8printingNtB7_8ExprPathNtNtCs2cqEZUIJimJ_5quote9to_tokens8ToTokens9to_tokens, symObjAddr: 0xB600, symBinAddr: 0x32AB4, symSize: 0x64 }
  - { offset: 0x7574F, size: 0x8, addend: 0x0, symName: __RNvXso_NtNtCs6IAuOt8vWmF_3syn4expr8printingNtB7_9ExprRangeNtNtCs2cqEZUIJimJ_5quote9to_tokens8ToTokens9to_tokens, symObjAddr: 0xB664, symBinAddr: 0x32B18, symSize: 0x58 }
  - { offset: 0x7578E, size: 0x8, addend: 0x0, symName: __RNvXsp_NtNtCs6IAuOt8vWmF_3syn4expr8printingNtB7_11ExprRawAddrNtNtCs2cqEZUIJimJ_5quote9to_tokens8ToTokens9to_tokens, symObjAddr: 0xB6BC, symBinAddr: 0x32B70, symSize: 0x58 }
  - { offset: 0x757CD, size: 0x8, addend: 0x0, symName: __RNvXsq_NtNtCs6IAuOt8vWmF_3syn4expr8printingNtB7_13ExprReferenceNtNtCs2cqEZUIJimJ_5quote9to_tokens8ToTokens9to_tokens, symObjAddr: 0xB714, symBinAddr: 0x32BC8, symSize: 0x58 }
  - { offset: 0x7580C, size: 0x8, addend: 0x0, symName: __RNvXsr_NtNtCs6IAuOt8vWmF_3syn4expr8printingNtB7_10ExprRepeatNtNtCs2cqEZUIJimJ_5quote9to_tokens8ToTokens9to_tokens, symObjAddr: 0xB76C, symBinAddr: 0x32C20, symSize: 0x58 }
  - { offset: 0x7584B, size: 0x8, addend: 0x0, symName: __RNvXss_NtNtCs6IAuOt8vWmF_3syn4expr8printingNtB7_10ExprReturnNtNtCs2cqEZUIJimJ_5quote9to_tokens8ToTokens9to_tokens, symObjAddr: 0xB7C4, symBinAddr: 0x32C78, symSize: 0x58 }
  - { offset: 0x7588A, size: 0x8, addend: 0x0, symName: __RNvXst_NtNtCs6IAuOt8vWmF_3syn4expr8printingNtB7_10ExprStructNtNtCs2cqEZUIJimJ_5quote9to_tokens8ToTokens9to_tokens, symObjAddr: 0xB81C, symBinAddr: 0x32CD0, symSize: 0x78 }
  - { offset: 0x758C9, size: 0x8, addend: 0x0, symName: __RNvXsu_NtNtCs6IAuOt8vWmF_3syn4expr8printingNtB7_7ExprTryNtNtCs2cqEZUIJimJ_5quote9to_tokens8ToTokens9to_tokens, symObjAddr: 0xB894, symBinAddr: 0x32D48, symSize: 0x58 }
  - { offset: 0x75908, size: 0x8, addend: 0x0, symName: __RNvXsv_NtNtCs6IAuOt8vWmF_3syn4expr8printingNtB7_12ExprTryBlockNtNtCs2cqEZUIJimJ_5quote9to_tokens8ToTokens9to_tokens, symObjAddr: 0xB8EC, symBinAddr: 0x32DA0, symSize: 0x64 }
  - { offset: 0x75947, size: 0x8, addend: 0x0, symName: __RNvXsw_NtNtCs6IAuOt8vWmF_3syn4expr8printingNtB7_9ExprTupleNtNtCs2cqEZUIJimJ_5quote9to_tokens8ToTokens9to_tokens, symObjAddr: 0xB950, symBinAddr: 0x32E04, symSize: 0x58 }
  - { offset: 0x75986, size: 0x8, addend: 0x0, symName: __RNvXsx_NtNtCs6IAuOt8vWmF_3syn4expr8printingNtB7_9ExprUnaryNtNtCs2cqEZUIJimJ_5quote9to_tokens8ToTokens9to_tokens, symObjAddr: 0xB9A8, symBinAddr: 0x32E5C, symSize: 0x58 }
  - { offset: 0x759C5, size: 0x8, addend: 0x0, symName: __RNvXsy_NtNtCs6IAuOt8vWmF_3syn4expr8printingNtB7_10ExprUnsafeNtNtCs2cqEZUIJimJ_5quote9to_tokens8ToTokens9to_tokens, symObjAddr: 0xBA00, symBinAddr: 0x32EB4, symSize: 0x68 }
  - { offset: 0x75A04, size: 0x8, addend: 0x0, symName: __RNvXsz_NtNtCs6IAuOt8vWmF_3syn4expr8printingNtB7_9ExprWhileNtNtCs2cqEZUIJimJ_5quote9to_tokens8ToTokens9to_tokens, symObjAddr: 0xBA68, symBinAddr: 0x32F1C, symSize: 0xBC }
  - { offset: 0x75A43, size: 0x8, addend: 0x0, symName: __RNvXsA_NtNtCs6IAuOt8vWmF_3syn4expr8printingNtB7_9ExprYieldNtNtCs2cqEZUIJimJ_5quote9to_tokens8ToTokens9to_tokens, symObjAddr: 0xBB24, symBinAddr: 0x32FD8, symSize: 0x58 }
  - { offset: 0x75A82, size: 0x8, addend: 0x0, symName: __RNvXsB_NtNtCs6IAuOt8vWmF_3syn4expr8printingNtB7_3ArmNtNtCs2cqEZUIJimJ_5quote9to_tokens8ToTokens9to_tokens, symObjAddr: 0xBB7C, symBinAddr: 0x33030, symSize: 0x128 }
  - { offset: 0x75AEF, size: 0x8, addend: 0x0, symName: __RNvXsC_NtNtCs6IAuOt8vWmF_3syn4expr8printingNtB7_10FieldValueNtNtCs2cqEZUIJimJ_5quote9to_tokens8ToTokens9to_tokens, symObjAddr: 0xBCA4, symBinAddr: 0x33158, symSize: 0xB0 }
  - { offset: 0x75B4C, size: 0x8, addend: 0x0, symName: __RNvXsD_NtNtCs6IAuOt8vWmF_3syn4expr8printingNtB7_5IndexNtNtCs2cqEZUIJimJ_5quote9to_tokens8ToTokens9to_tokens, symObjAddr: 0xBD54, symBinAddr: 0x33208, symSize: 0xD4 }
  - { offset: 0x75BA1, size: 0x8, addend: 0x0, symName: __RNvXsE_NtNtCs6IAuOt8vWmF_3syn4expr8printingNtB7_5LabelNtNtCs2cqEZUIJimJ_5quote9to_tokens8ToTokens9to_tokens, symObjAddr: 0xBE28, symBinAddr: 0x332DC, symSize: 0x50 }
  - { offset: 0x75BE0, size: 0x8, addend: 0x0, symName: __RNvXsF_NtNtCs6IAuOt8vWmF_3syn4expr8printingNtB7_6MemberNtNtCs2cqEZUIJimJ_5quote9to_tokens8ToTokens9to_tokens, symObjAddr: 0xBE78, symBinAddr: 0x3332C, symSize: 0x98 }
  - { offset: 0x75C53, size: 0x8, addend: 0x0, symName: __RNvXsG_NtNtCs6IAuOt8vWmF_3syn4expr8printingNtB7_11RangeLimitsNtNtCs2cqEZUIJimJ_5quote9to_tokens8ToTokens9to_tokens, symObjAddr: 0xBF10, symBinAddr: 0x333C4, symSize: 0x94 }
  - { offset: 0x75CC6, size: 0x8, addend: 0x0, symName: __RNvXsH_NtNtCs6IAuOt8vWmF_3syn4expr8printingNtB7_17PointerMutabilityNtNtCs2cqEZUIJimJ_5quote9to_tokens8ToTokens9to_tokens, symObjAddr: 0xBFA4, symBinAddr: 0x33458, symSize: 0x94 }
  - { offset: 0x75D3F, size: 0x8, addend: 0x0, symName: __RNcNtNtNtCs6IAuOt8vWmF_3syn4expr4Expr5Async0B7_, symObjAddr: 0xC038, symBinAddr: 0x334EC, symSize: 0x3C }
  - { offset: 0x75D6E, size: 0x8, addend: 0x0, symName: __RNcNtNtNtCs6IAuOt8vWmF_3syn4expr4Expr5Block0B7_, symObjAddr: 0xC074, symBinAddr: 0x33528, symSize: 0x3C }
  - { offset: 0x75D9D, size: 0x8, addend: 0x0, symName: __RNcNtNtNtCs6IAuOt8vWmF_3syn4expr4Expr5Break0B7_, symObjAddr: 0xC0B0, symBinAddr: 0x33564, symSize: 0x3C }
  - { offset: 0x75DCC, size: 0x8, addend: 0x0, symName: __RNcNtNtNtCs6IAuOt8vWmF_3syn4expr4Expr7Closure0B7_, symObjAddr: 0xC0EC, symBinAddr: 0x335A0, symSize: 0x3C }
  - { offset: 0x75DFB, size: 0x8, addend: 0x0, symName: __RNcNtNtNtCs6IAuOt8vWmF_3syn4expr4Expr5Const0B7_, symObjAddr: 0xC128, symBinAddr: 0x335DC, symSize: 0x3C }
  - { offset: 0x75E2A, size: 0x8, addend: 0x0, symName: __RNcNtNtNtCs6IAuOt8vWmF_3syn4expr4Expr8Continue0B7_, symObjAddr: 0xC164, symBinAddr: 0x33618, symSize: 0x3C }
  - { offset: 0x75E59, size: 0x8, addend: 0x0, symName: __RNcNtNtNtCs6IAuOt8vWmF_3syn4expr4Expr7ForLoop0B7_, symObjAddr: 0xC1A0, symBinAddr: 0x33654, symSize: 0x3C }
  - { offset: 0x75E88, size: 0x8, addend: 0x0, symName: __RNcNtNtNtCs6IAuOt8vWmF_3syn4expr4Expr2If0B7_, symObjAddr: 0xC1DC, symBinAddr: 0x33690, symSize: 0x3C }
  - { offset: 0x75EB7, size: 0x8, addend: 0x0, symName: __RNcNtNtNtCs6IAuOt8vWmF_3syn4expr4Expr5Infer0B7_, symObjAddr: 0xC218, symBinAddr: 0x336CC, symSize: 0x20 }
  - { offset: 0x75EE5, size: 0x8, addend: 0x0, symName: __RNcNtNtNtCs6IAuOt8vWmF_3syn4expr4Expr3Let0B7_, symObjAddr: 0xC238, symBinAddr: 0x336EC, symSize: 0x3C }
  - { offset: 0x75F14, size: 0x8, addend: 0x0, symName: __RNcNtNtNtCs6IAuOt8vWmF_3syn4expr4Expr3Lit0B7_, symObjAddr: 0xC274, symBinAddr: 0x33728, symSize: 0x3C }
  - { offset: 0x75F43, size: 0x8, addend: 0x0, symName: __RNcNtNtNtCs6IAuOt8vWmF_3syn4expr4Expr4Loop0B7_, symObjAddr: 0xC2B0, symBinAddr: 0x33764, symSize: 0x3C }
  - { offset: 0x75F72, size: 0x8, addend: 0x0, symName: __RNcNtNtNtCs6IAuOt8vWmF_3syn4expr4Expr5Match0B7_, symObjAddr: 0xC2EC, symBinAddr: 0x337A0, symSize: 0x3C }
  - { offset: 0x75FA1, size: 0x8, addend: 0x0, symName: __RNcNtNtNtCs6IAuOt8vWmF_3syn4expr4Expr5Range0B7_, symObjAddr: 0xC328, symBinAddr: 0x337DC, symSize: 0x3C }
  - { offset: 0x75FD0, size: 0x8, addend: 0x0, symName: __RNcNtNtNtCs6IAuOt8vWmF_3syn4expr4Expr6Return0B7_, symObjAddr: 0xC364, symBinAddr: 0x33818, symSize: 0x3C }
  - { offset: 0x75FFF, size: 0x8, addend: 0x0, symName: __RNcNtNtNtCs6IAuOt8vWmF_3syn4expr4Expr6Struct0B7_, symObjAddr: 0xC3A0, symBinAddr: 0x33854, symSize: 0x3C }
  - { offset: 0x7602E, size: 0x8, addend: 0x0, symName: __RNcNtNtNtCs6IAuOt8vWmF_3syn4expr4Expr8TryBlock0B7_, symObjAddr: 0xC3DC, symBinAddr: 0x33890, symSize: 0x3C }
  - { offset: 0x7605D, size: 0x8, addend: 0x0, symName: __RNcNtNtNtCs6IAuOt8vWmF_3syn4expr4Expr5Unary0B7_, symObjAddr: 0xC418, symBinAddr: 0x338CC, symSize: 0x3C }
  - { offset: 0x7608C, size: 0x8, addend: 0x0, symName: __RNcNtNtNtCs6IAuOt8vWmF_3syn4expr4Expr6Unsafe0B7_, symObjAddr: 0xC454, symBinAddr: 0x33908, symSize: 0x3C }
  - { offset: 0x760BB, size: 0x8, addend: 0x0, symName: __RNcNtNtNtCs6IAuOt8vWmF_3syn4expr4Expr5While0B7_, symObjAddr: 0xC490, symBinAddr: 0x33944, symSize: 0x3C }
  - { offset: 0x760EA, size: 0x8, addend: 0x0, symName: __RNcNtNtNtCs6IAuOt8vWmF_3syn4expr4Expr5Yield0B7_, symObjAddr: 0xC4CC, symBinAddr: 0x33980, symSize: 0x3C }
  - { offset: 0x7611A, size: 0x8, addend: 0x0, symName: __RNvXsP_NtCs6IAuOt8vWmF_3syn4exprNtB5_4ExprNtNtCs2cqEZUIJimJ_5quote9to_tokens8ToTokens9to_tokens, symObjAddr: 0xD080, symBinAddr: 0x339BC, symSize: 0x4CC }
  - { offset: 0x76603, size: 0x8, addend: 0x0, symName: __RNcNtNtNtCs6IAuOt8vWmF_3syn4expr6Member5Named0B7_, symObjAddr: 0xD54C, symBinAddr: 0x33E88, symSize: 0x18 }
  - { offset: 0x76633, size: 0x8, addend: 0x0, symName: __RNcNtNtNtCs6IAuOt8vWmF_3syn4expr6Member7Unnamed0B7_, symObjAddr: 0xD564, symBinAddr: 0x33EA0, symSize: 0x28 }
  - { offset: 0x76669, size: 0x8, addend: 0x0, symName: __RNcNtNtNtCs6IAuOt8vWmF_3syn4expr11RangeLimits8HalfOpen0B7_, symObjAddr: 0xD58C, symBinAddr: 0x33EC8, symSize: 0x24 }
  - { offset: 0x76699, size: 0x8, addend: 0x0, symName: __RNcNtNtNtCs6IAuOt8vWmF_3syn4expr11RangeLimits6Closed0B7_, symObjAddr: 0xD5B0, symBinAddr: 0x33EEC, symSize: 0x20 }
  - { offset: 0x7C0B4, size: 0x8, addend: 0x0, symName: __RNvMNtCsfvfooZQ3Axs_4core5sliceSNtNtCs6IAuOt8vWmF_3syn4expr3Arm4iterBy_, symObjAddr: 0xA44, symBinAddr: 0x2AE08, symSize: 0x28 }
  - { offset: 0x7C0EB, size: 0x8, addend: 0x0, symName: __RNvMNtCsfvfooZQ3Axs_4core5sliceSTNtNtCs6IAuOt8vWmF_3syn4expr10FieldValueNtNtBz_5token5CommaE4iterBz_, symObjAddr: 0xA6C, symBinAddr: 0x2AE30, symSize: 0x28 }
  - { offset: 0x7C122, size: 0x8, addend: 0x0, symName: __RNvMNtCsfvfooZQ3Axs_4core5sliceSTNtNtCs6IAuOt8vWmF_3syn4expr4ExprNtNtBz_5token5CommaE4iterBz_, symObjAddr: 0xA94, symBinAddr: 0x2AE58, symSize: 0x28 }
  - { offset: 0x7D64A, size: 0x8, addend: 0x0, symName: __RNvXNtCs2cqEZUIJimJ_5quote9to_tokensRNtNtCs6IAuOt8vWmF_3syn4expr10FieldValueNtB2_8ToTokens9to_tokensBD_, symObjAddr: 0xABC, symBinAddr: 0x2AE80, symSize: 0x40 }
  - { offset: 0x7D689, size: 0x8, addend: 0x0, symName: __RNvXNtCs2cqEZUIJimJ_5quote9to_tokensRNtNtCs6IAuOt8vWmF_3syn4expr4ExprNtB2_8ToTokens9to_tokensBD_, symObjAddr: 0xAFC, symBinAddr: 0x2AEC0, symSize: 0x40 }
  - { offset: 0x7D727, size: 0x8, addend: 0x0, symName: __RNvMNtCs6IAuOt8vWmF_3syn4exprNtB2_4Expr25parse_without_eager_brace, symObjAddr: 0x1C04, symBinAddr: 0x2AF00, symSize: 0x3C }
  - { offset: 0x7D74A, size: 0x8, addend: 0x0, symName: __RNvMNtCs6IAuOt8vWmF_3syn4exprNtB2_4Expr32parse_with_earlier_boundary_rule, symObjAddr: 0x1C40, symBinAddr: 0x2AF3C, symSize: 0x34 }
  - { offset: 0x7D76D, size: 0x8, addend: 0x0, symName: __RNvMNtCs6IAuOt8vWmF_3syn4exprNtB2_4Expr4peek, symObjAddr: 0x1C74, symBinAddr: 0x2AF70, symSize: 0x408 }
  - { offset: 0x7D79D, size: 0x8, addend: 0x0, symName: __RNvMNtCs6IAuOt8vWmF_3syn4exprNtB2_4Expr13replace_attrs, symObjAddr: 0x207C, symBinAddr: 0x2B378, symSize: 0x678 }
  - { offset: 0x7D7F3, size: 0x8, addend: 0x0, symName: __RNvMs6_NtCs6IAuOt8vWmF_3syn4exprNtB5_6Member8is_named, symObjAddr: 0x2A04, symBinAddr: 0x2B9F0, symSize: 0x6C }
  - { offset: 0x7D84E, size: 0x8, addend: 0x0, symName: __RNvMsv_NtNtCs6IAuOt8vWmF_3syn4expr7parsingNtB7_11RangeLimits14parse_obsolete, symObjAddr: 0x9428, symBinAddr: 0x30B94, symSize: 0x334 }
  - { offset: 0x7D901, size: 0x8, addend: 0x0, symName: __RNvMsy_NtNtCs6IAuOt8vWmF_3syn4expr7parsingNtB7_3Arm14parse_multiple, symObjAddr: 0x9A90, symBinAddr: 0x311FC, symSize: 0x1C4 }
  - { offset: 0x7FA08, size: 0x8, addend: 0x0, symName: __RNCNvMNtCs6IAuOt8vWmF_3syn10punctuatedINtB4_10PunctuatedNtNtB6_4path11PathSegmentNtNtB6_5token7PathSepE10into_pairs0B6_, symObjAddr: 0x5AA4, symBinAddr: 0x36FD0, symSize: 0x98 }
  - { offset: 0x7FA5D, size: 0x8, addend: 0x0, symName: __RNCNvMNtCs6IAuOt8vWmF_3syn10punctuatedINtB4_10PunctuatedNtNtB6_4path11PathSegmentNtNtB6_5token7PathSepE3pop0B6_, symObjAddr: 0x9E58, symBinAddr: 0x3B384, symSize: 0xC4 }
  - { offset: 0x7FAA5, size: 0x8, addend: 0x0, symName: __RNCNvMNtCs6IAuOt8vWmF_3syn10punctuatedINtB4_10PunctuatedNtNtB6_4path11PathSegmentNtNtB6_5token7PathSepE3pops_0B6_, symObjAddr: 0x9F1C, symBinAddr: 0x3B448, symSize: 0x74 }
  - { offset: 0x7FBDD, size: 0x8, addend: 0x0, symName: __RINvXs7_NtCs6IAuOt8vWmF_3syn10punctuatedINtB6_10PunctuatedNtNtB8_4path11PathSegmentNtNtB8_5token7PathSepEINtNtNtNtCsfvfooZQ3Axs_4core4iter6traits7collect6ExtendINtB6_4PairBU_B1j_EE6extendINtB6_9IntoPairsBU_B1j_EEB8_, symObjAddr: 0xDFB0, symBinAddr: 0x3C98C, symSize: 0x124 }
  - { offset: 0x7FC33, size: 0x8, addend: 0x0, symName: __RINvNtCs6IAuOt8vWmF_3syn10punctuated9do_extendNtNtB4_4path11PathSegmentNtNtB4_5token7PathSepINtB2_9IntoPairsBI_B17_EEB4_, symObjAddr: 0xE0D4, symBinAddr: 0x3CAB0, symSize: 0x3B4 }
  - { offset: 0x7FD30, size: 0x8, addend: 0x0, symName: __RNvXs8_NtCs6IAuOt8vWmF_3syn10punctuatedINtB5_10PunctuatedNtNtB7_8generics14TypeParamBoundNtNtB7_5token4PlusENtNtNtNtCsfvfooZQ3Axs_4core4iter6traits7collect12IntoIterator9into_iterB7_, symObjAddr: 0xE808, symBinAddr: 0x3CE64, symSize: 0x1C0 }
  - { offset: 0x7FD8C, size: 0x8, addend: 0x0, symName: __RNCNvXs8_NtCs6IAuOt8vWmF_3syn10punctuatedINtB7_10PunctuatedNtNtB9_8generics14TypeParamBoundNtNtB9_5token4PlusENtNtNtNtCsfvfooZQ3Axs_4core4iter6traits7collect12IntoIterator9into_iter0B9_, symObjAddr: 0xEA50, symBinAddr: 0x3D024, symSize: 0x44 }
  - { offset: 0x7FDD8, size: 0x8, addend: 0x0, symName: __RNCNvXs8_NtCs6IAuOt8vWmF_3syn10punctuatedINtB7_10PunctuatedNtNtB9_8generics14TypeParamBoundNtNtB9_5token4PlusENtNtNtNtCsfvfooZQ3Axs_4core4iter6traits7collect12IntoIterator9into_iters_0B9_, symObjAddr: 0xEBC4, symBinAddr: 0x3D068, symSize: 0x98 }
  - { offset: 0x7FE38, size: 0x8, addend: 0x0, symName: __RNvXs9_NtCs6IAuOt8vWmF_3syn10punctuatedRINtB5_10PunctuatedNtNtB7_8generics14TypeParamBoundNtNtB7_5token4PlusENtNtNtNtCsfvfooZQ3Axs_4core4iter6traits7collect12IntoIterator9into_iterB7_, symObjAddr: 0xEC5C, symBinAddr: 0x3D100, symSize: 0x34 }
  - { offset: 0x7FE7E, size: 0x8, addend: 0x0, symName: __RNvXsc_NtCs6IAuOt8vWmF_3syn10punctuatedINtB5_5PairsNtNtB7_2ty4TypeNtNtB7_5token5CommaENtNtNtNtCsfvfooZQ3Axs_4core4iter6traits8iterator8Iterator4nextB7_, symObjAddr: 0xEC90, symBinAddr: 0x3D134, symSize: 0x58 }
  - { offset: 0x7FEBE, size: 0x8, addend: 0x0, symName: __RNvXsc_NtCs6IAuOt8vWmF_3syn10punctuatedINtB5_5PairsNtNtB7_2ty9BareFnArgNtNtB7_5token5CommaENtNtNtNtCsfvfooZQ3Axs_4core4iter6traits8iterator8Iterator4nextB7_, symObjAddr: 0xECE8, symBinAddr: 0x3D18C, symSize: 0x58 }
  - { offset: 0x7FEFE, size: 0x8, addend: 0x0, symName: __RNvXsc_NtCs6IAuOt8vWmF_3syn10punctuatedINtB5_5PairsNtNtB7_3pat3PatNtNtB7_5token2OrENtNtNtNtCsfvfooZQ3Axs_4core4iter6traits8iterator8Iterator4nextB7_, symObjAddr: 0xED40, symBinAddr: 0x3D1E4, symSize: 0x58 }
  - { offset: 0x7FF3E, size: 0x8, addend: 0x0, symName: __RNvXsc_NtCs6IAuOt8vWmF_3syn10punctuatedINtB5_5PairsNtNtB7_3pat3PatNtNtB7_5token5CommaENtNtNtNtCsfvfooZQ3Axs_4core4iter6traits8iterator8Iterator4nextB7_, symObjAddr: 0xED98, symBinAddr: 0x3D23C, symSize: 0x58 }
  - { offset: 0x7FF7E, size: 0x8, addend: 0x0, symName: __RNvXsc_NtCs6IAuOt8vWmF_3syn10punctuatedINtB5_5PairsNtNtB7_3pat8FieldPatNtNtB7_5token5CommaENtNtNtNtCsfvfooZQ3Axs_4core4iter6traits8iterator8Iterator4nextB7_, symObjAddr: 0xEDF0, symBinAddr: 0x3D294, symSize: 0x58 }
  - { offset: 0x7FFBE, size: 0x8, addend: 0x0, symName: __RNvXsc_NtCs6IAuOt8vWmF_3syn10punctuatedINtB5_5PairsNtNtB7_4data5FieldNtNtB7_5token5CommaENtNtNtNtCsfvfooZQ3Axs_4core4iter6traits8iterator8Iterator4nextB7_, symObjAddr: 0xEE48, symBinAddr: 0x3D2EC, symSize: 0x58 }
  - { offset: 0x7FFFE, size: 0x8, addend: 0x0, symName: __RNvXsc_NtCs6IAuOt8vWmF_3syn10punctuatedINtB5_5PairsNtNtB7_4data7VariantNtNtB7_5token5CommaENtNtNtNtCsfvfooZQ3Axs_4core4iter6traits8iterator8Iterator4nextB7_, symObjAddr: 0xEEA0, symBinAddr: 0x3D344, symSize: 0x58 }
  - { offset: 0x8003E, size: 0x8, addend: 0x0, symName: __RNvXsc_NtCs6IAuOt8vWmF_3syn10punctuatedINtB5_5PairsNtNtB7_4expr10FieldValueNtNtB7_5token5CommaENtNtNtNtCsfvfooZQ3Axs_4core4iter6traits8iterator8Iterator4nextB7_, symObjAddr: 0xEEF8, symBinAddr: 0x3D39C, symSize: 0x58 }
  - { offset: 0x8007E, size: 0x8, addend: 0x0, symName: __RNvXsc_NtCs6IAuOt8vWmF_3syn10punctuatedINtB5_5PairsNtNtB7_4expr4ExprNtNtB7_5token5CommaENtNtNtNtCsfvfooZQ3Axs_4core4iter6traits8iterator8Iterator4nextB7_, symObjAddr: 0xEF50, symBinAddr: 0x3D3F4, symSize: 0x58 }
  - { offset: 0x800BE, size: 0x8, addend: 0x0, symName: __RNvXsc_NtCs6IAuOt8vWmF_3syn10punctuatedINtB5_5PairsNtNtB7_4item5FnArgNtNtB7_5token5CommaENtNtNtNtCsfvfooZQ3Axs_4core4iter6traits8iterator8Iterator4nextB7_, symObjAddr: 0xEFA8, symBinAddr: 0x3D44C, symSize: 0x58 }
  - { offset: 0x800FE, size: 0x8, addend: 0x0, symName: __RNvXsc_NtCs6IAuOt8vWmF_3syn10punctuatedINtB5_5PairsNtNtB7_4item7UseTreeNtNtB7_5token5CommaENtNtNtNtCsfvfooZQ3Axs_4core4iter6traits8iterator8Iterator4nextB7_, symObjAddr: 0xF000, symBinAddr: 0x3D4A4, symSize: 0x58 }
  - { offset: 0x8013E, size: 0x8, addend: 0x0, symName: __RNvXsc_NtCs6IAuOt8vWmF_3syn10punctuatedINtB5_5PairsNtNtB7_4path11PathSegmentNtNtB7_5token7PathSepENtNtNtNtCsfvfooZQ3Axs_4core4iter6traits8iterator8Iterator4nextB7_, symObjAddr: 0xF058, symBinAddr: 0x3D4FC, symSize: 0x58 }
  - { offset: 0x8017E, size: 0x8, addend: 0x0, symName: __RNvXsc_NtCs6IAuOt8vWmF_3syn10punctuatedINtB5_5PairsNtNtB7_4path15GenericArgumentNtNtB7_5token5CommaENtNtNtNtCsfvfooZQ3Axs_4core4iter6traits8iterator8Iterator4nextB7_, symObjAddr: 0xF0B0, symBinAddr: 0x3D554, symSize: 0x58 }
  - { offset: 0x801BE, size: 0x8, addend: 0x0, symName: __RNvXsc_NtCs6IAuOt8vWmF_3syn10punctuatedINtB5_5PairsNtNtB7_8generics12GenericParamNtNtB7_5token5CommaENtNtNtNtCsfvfooZQ3Axs_4core4iter6traits8iterator8Iterator4nextB7_, symObjAddr: 0xF108, symBinAddr: 0x3D5AC, symSize: 0x58 }
  - { offset: 0x801FE, size: 0x8, addend: 0x0, symName: __RNvXsc_NtCs6IAuOt8vWmF_3syn10punctuatedINtB5_5PairsNtNtB7_8generics13CapturedParamNtNtB7_5token5CommaENtNtNtNtCsfvfooZQ3Axs_4core4iter6traits8iterator8Iterator4nextB7_, symObjAddr: 0xF160, symBinAddr: 0x3D604, symSize: 0x58 }
  - { offset: 0x8023E, size: 0x8, addend: 0x0, symName: __RNvXsc_NtCs6IAuOt8vWmF_3syn10punctuatedINtB5_5PairsNtNtB7_8generics14TypeParamBoundNtNtB7_5token4PlusENtNtNtNtCsfvfooZQ3Axs_4core4iter6traits8iterator8Iterator4nextB7_, symObjAddr: 0xF1B8, symBinAddr: 0x3D65C, symSize: 0x58 }
  - { offset: 0x8027E, size: 0x8, addend: 0x0, symName: __RNvXsc_NtCs6IAuOt8vWmF_3syn10punctuatedINtB5_5PairsNtNtB7_8generics14WherePredicateNtNtB7_5token5CommaENtNtNtNtCsfvfooZQ3Axs_4core4iter6traits8iterator8Iterator4nextB7_, symObjAddr: 0xF210, symBinAddr: 0x3D6B4, symSize: 0x58 }
  - { offset: 0x802BE, size: 0x8, addend: 0x0, symName: __RNvXsc_NtCs6IAuOt8vWmF_3syn10punctuatedINtB5_5PairsNtNtB7_8lifetime8LifetimeNtNtB7_5token4PlusENtNtNtNtCsfvfooZQ3Axs_4core4iter6traits8iterator8Iterator4nextB7_, symObjAddr: 0xF268, symBinAddr: 0x3D70C, symSize: 0x58 }
  - { offset: 0x80303, size: 0x8, addend: 0x0, symName: __RNCNvXsc_NtCs6IAuOt8vWmF_3syn10punctuatedINtB7_5PairsNtNtB9_2ty4TypeNtNtB9_5token5CommaENtNtNtNtCsfvfooZQ3Axs_4core4iter6traits8iterator8Iterator4next0B9_, symObjAddr: 0xF2C0, symBinAddr: 0x3D764, symSize: 0x40 }
  - { offset: 0x80378, size: 0x8, addend: 0x0, symName: __RNCNvXsc_NtCs6IAuOt8vWmF_3syn10punctuatedINtB7_5PairsNtNtB9_2ty9BareFnArgNtNtB9_5token5CommaENtNtNtNtCsfvfooZQ3Axs_4core4iter6traits8iterator8Iterator4next0B9_, symObjAddr: 0xF300, symBinAddr: 0x3D7A4, symSize: 0x40 }
  - { offset: 0x803ED, size: 0x8, addend: 0x0, symName: __RNCNvXsc_NtCs6IAuOt8vWmF_3syn10punctuatedINtB7_5PairsNtNtB9_3pat3PatNtNtB9_5token2OrENtNtNtNtCsfvfooZQ3Axs_4core4iter6traits8iterator8Iterator4next0B9_, symObjAddr: 0xF340, symBinAddr: 0x3D7E4, symSize: 0x40 }
  - { offset: 0x80462, size: 0x8, addend: 0x0, symName: __RNCNvXsc_NtCs6IAuOt8vWmF_3syn10punctuatedINtB7_5PairsNtNtB9_3pat3PatNtNtB9_5token5CommaENtNtNtNtCsfvfooZQ3Axs_4core4iter6traits8iterator8Iterator4next0B9_, symObjAddr: 0xF380, symBinAddr: 0x3D824, symSize: 0x40 }
  - { offset: 0x804D7, size: 0x8, addend: 0x0, symName: __RNCNvXsc_NtCs6IAuOt8vWmF_3syn10punctuatedINtB7_5PairsNtNtB9_3pat8FieldPatNtNtB9_5token5CommaENtNtNtNtCsfvfooZQ3Axs_4core4iter6traits8iterator8Iterator4next0B9_, symObjAddr: 0xF3C0, symBinAddr: 0x3D864, symSize: 0x40 }
  - { offset: 0x8054C, size: 0x8, addend: 0x0, symName: __RNCNvXsc_NtCs6IAuOt8vWmF_3syn10punctuatedINtB7_5PairsNtNtB9_4data5FieldNtNtB9_5token5CommaENtNtNtNtCsfvfooZQ3Axs_4core4iter6traits8iterator8Iterator4next0B9_, symObjAddr: 0xF400, symBinAddr: 0x3D8A4, symSize: 0x40 }
  - { offset: 0x805C1, size: 0x8, addend: 0x0, symName: __RNCNvXsc_NtCs6IAuOt8vWmF_3syn10punctuatedINtB7_5PairsNtNtB9_4data7VariantNtNtB9_5token5CommaENtNtNtNtCsfvfooZQ3Axs_4core4iter6traits8iterator8Iterator4next0B9_, symObjAddr: 0xF440, symBinAddr: 0x3D8E4, symSize: 0x40 }
  - { offset: 0x80636, size: 0x8, addend: 0x0, symName: __RNCNvXsc_NtCs6IAuOt8vWmF_3syn10punctuatedINtB7_5PairsNtNtB9_4expr10FieldValueNtNtB9_5token5CommaENtNtNtNtCsfvfooZQ3Axs_4core4iter6traits8iterator8Iterator4next0B9_, symObjAddr: 0xF480, symBinAddr: 0x3D924, symSize: 0x40 }
  - { offset: 0x806AB, size: 0x8, addend: 0x0, symName: __RNCNvXsc_NtCs6IAuOt8vWmF_3syn10punctuatedINtB7_5PairsNtNtB9_4expr4ExprNtNtB9_5token5CommaENtNtNtNtCsfvfooZQ3Axs_4core4iter6traits8iterator8Iterator4next0B9_, symObjAddr: 0xF4C0, symBinAddr: 0x3D964, symSize: 0x40 }
  - { offset: 0x80720, size: 0x8, addend: 0x0, symName: __RNCNvXsc_NtCs6IAuOt8vWmF_3syn10punctuatedINtB7_5PairsNtNtB9_4item5FnArgNtNtB9_5token5CommaENtNtNtNtCsfvfooZQ3Axs_4core4iter6traits8iterator8Iterator4next0B9_, symObjAddr: 0xF500, symBinAddr: 0x3D9A4, symSize: 0x40 }
  - { offset: 0x80795, size: 0x8, addend: 0x0, symName: __RNCNvXsc_NtCs6IAuOt8vWmF_3syn10punctuatedINtB7_5PairsNtNtB9_4item7UseTreeNtNtB9_5token5CommaENtNtNtNtCsfvfooZQ3Axs_4core4iter6traits8iterator8Iterator4next0B9_, symObjAddr: 0xF540, symBinAddr: 0x3D9E4, symSize: 0x40 }
  - { offset: 0x8080A, size: 0x8, addend: 0x0, symName: __RNCNvXsc_NtCs6IAuOt8vWmF_3syn10punctuatedINtB7_5PairsNtNtB9_4path11PathSegmentNtNtB9_5token7PathSepENtNtNtNtCsfvfooZQ3Axs_4core4iter6traits8iterator8Iterator4next0B9_, symObjAddr: 0xF580, symBinAddr: 0x3DA24, symSize: 0x40 }
  - { offset: 0x8087F, size: 0x8, addend: 0x0, symName: __RNCNvXsc_NtCs6IAuOt8vWmF_3syn10punctuatedINtB7_5PairsNtNtB9_4path15GenericArgumentNtNtB9_5token5CommaENtNtNtNtCsfvfooZQ3Axs_4core4iter6traits8iterator8Iterator4next0B9_, symObjAddr: 0xF5C0, symBinAddr: 0x3DA64, symSize: 0x40 }
  - { offset: 0x808F4, size: 0x8, addend: 0x0, symName: __RNCNvXsc_NtCs6IAuOt8vWmF_3syn10punctuatedINtB7_5PairsNtNtB9_8generics12GenericParamNtNtB9_5token5CommaENtNtNtNtCsfvfooZQ3Axs_4core4iter6traits8iterator8Iterator4next0B9_, symObjAddr: 0xF600, symBinAddr: 0x3DAA4, symSize: 0x40 }
  - { offset: 0x80969, size: 0x8, addend: 0x0, symName: __RNCNvXsc_NtCs6IAuOt8vWmF_3syn10punctuatedINtB7_5PairsNtNtB9_8generics13CapturedParamNtNtB9_5token5CommaENtNtNtNtCsfvfooZQ3Axs_4core4iter6traits8iterator8Iterator4next0B9_, symObjAddr: 0xF640, symBinAddr: 0x3DAE4, symSize: 0x40 }
  - { offset: 0x809DE, size: 0x8, addend: 0x0, symName: __RNCNvXsc_NtCs6IAuOt8vWmF_3syn10punctuatedINtB7_5PairsNtNtB9_8generics14TypeParamBoundNtNtB9_5token4PlusENtNtNtNtCsfvfooZQ3Axs_4core4iter6traits8iterator8Iterator4next0B9_, symObjAddr: 0xF680, symBinAddr: 0x3DB24, symSize: 0x40 }
  - { offset: 0x80A53, size: 0x8, addend: 0x0, symName: __RNCNvXsc_NtCs6IAuOt8vWmF_3syn10punctuatedINtB7_5PairsNtNtB9_8generics14WherePredicateNtNtB9_5token5CommaENtNtNtNtCsfvfooZQ3Axs_4core4iter6traits8iterator8Iterator4next0B9_, symObjAddr: 0xF6C0, symBinAddr: 0x3DB64, symSize: 0x40 }
  - { offset: 0x80AC8, size: 0x8, addend: 0x0, symName: __RNCNvXsc_NtCs6IAuOt8vWmF_3syn10punctuatedINtB7_5PairsNtNtB9_8lifetime8LifetimeNtNtB9_5token4PlusENtNtNtNtCsfvfooZQ3Axs_4core4iter6traits8iterator8Iterator4next0B9_, symObjAddr: 0xF700, symBinAddr: 0x3DBA4, symSize: 0x40 }
  - { offset: 0x80B3D, size: 0x8, addend: 0x0, symName: __RNCNvXsc_NtCs6IAuOt8vWmF_3syn10punctuatedINtB7_5PairsNtNtB9_2ty4TypeNtNtB9_5token5CommaENtNtNtNtCsfvfooZQ3Axs_4core4iter6traits8iterator8Iterator4nexts_0B9_, symObjAddr: 0xF740, symBinAddr: 0x3DBE4, symSize: 0x40 }
  - { offset: 0x80B7F, size: 0x8, addend: 0x0, symName: __RNCNvXsc_NtCs6IAuOt8vWmF_3syn10punctuatedINtB7_5PairsNtNtB9_2ty9BareFnArgNtNtB9_5token5CommaENtNtNtNtCsfvfooZQ3Axs_4core4iter6traits8iterator8Iterator4nexts_0B9_, symObjAddr: 0xF780, symBinAddr: 0x3DC24, symSize: 0x40 }
  - { offset: 0x80BC1, size: 0x8, addend: 0x0, symName: __RNCNvXsc_NtCs6IAuOt8vWmF_3syn10punctuatedINtB7_5PairsNtNtB9_3pat3PatNtNtB9_5token2OrENtNtNtNtCsfvfooZQ3Axs_4core4iter6traits8iterator8Iterator4nexts_0B9_, symObjAddr: 0xF7C0, symBinAddr: 0x3DC64, symSize: 0x40 }
  - { offset: 0x80C03, size: 0x8, addend: 0x0, symName: __RNCNvXsc_NtCs6IAuOt8vWmF_3syn10punctuatedINtB7_5PairsNtNtB9_3pat3PatNtNtB9_5token5CommaENtNtNtNtCsfvfooZQ3Axs_4core4iter6traits8iterator8Iterator4nexts_0B9_, symObjAddr: 0xF800, symBinAddr: 0x3DCA4, symSize: 0x40 }
  - { offset: 0x80C45, size: 0x8, addend: 0x0, symName: __RNCNvXsc_NtCs6IAuOt8vWmF_3syn10punctuatedINtB7_5PairsNtNtB9_3pat8FieldPatNtNtB9_5token5CommaENtNtNtNtCsfvfooZQ3Axs_4core4iter6traits8iterator8Iterator4nexts_0B9_, symObjAddr: 0xF840, symBinAddr: 0x3DCE4, symSize: 0x40 }
  - { offset: 0x80C87, size: 0x8, addend: 0x0, symName: __RNCNvXsc_NtCs6IAuOt8vWmF_3syn10punctuatedINtB7_5PairsNtNtB9_4data5FieldNtNtB9_5token5CommaENtNtNtNtCsfvfooZQ3Axs_4core4iter6traits8iterator8Iterator4nexts_0B9_, symObjAddr: 0xF880, symBinAddr: 0x3DD24, symSize: 0x40 }
  - { offset: 0x80CC9, size: 0x8, addend: 0x0, symName: __RNCNvXsc_NtCs6IAuOt8vWmF_3syn10punctuatedINtB7_5PairsNtNtB9_4data7VariantNtNtB9_5token5CommaENtNtNtNtCsfvfooZQ3Axs_4core4iter6traits8iterator8Iterator4nexts_0B9_, symObjAddr: 0xF8C0, symBinAddr: 0x3DD64, symSize: 0x40 }
  - { offset: 0x80D0B, size: 0x8, addend: 0x0, symName: __RNCNvXsc_NtCs6IAuOt8vWmF_3syn10punctuatedINtB7_5PairsNtNtB9_4expr10FieldValueNtNtB9_5token5CommaENtNtNtNtCsfvfooZQ3Axs_4core4iter6traits8iterator8Iterator4nexts_0B9_, symObjAddr: 0xF900, symBinAddr: 0x3DDA4, symSize: 0x40 }
  - { offset: 0x80D4D, size: 0x8, addend: 0x0, symName: __RNCNvXsc_NtCs6IAuOt8vWmF_3syn10punctuatedINtB7_5PairsNtNtB9_4expr4ExprNtNtB9_5token5CommaENtNtNtNtCsfvfooZQ3Axs_4core4iter6traits8iterator8Iterator4nexts_0B9_, symObjAddr: 0xF940, symBinAddr: 0x3DDE4, symSize: 0x40 }
  - { offset: 0x80D8F, size: 0x8, addend: 0x0, symName: __RNCNvXsc_NtCs6IAuOt8vWmF_3syn10punctuatedINtB7_5PairsNtNtB9_4item5FnArgNtNtB9_5token5CommaENtNtNtNtCsfvfooZQ3Axs_4core4iter6traits8iterator8Iterator4nexts_0B9_, symObjAddr: 0xF980, symBinAddr: 0x3DE24, symSize: 0x40 }
  - { offset: 0x80DD1, size: 0x8, addend: 0x0, symName: __RNCNvXsc_NtCs6IAuOt8vWmF_3syn10punctuatedINtB7_5PairsNtNtB9_4item7UseTreeNtNtB9_5token5CommaENtNtNtNtCsfvfooZQ3Axs_4core4iter6traits8iterator8Iterator4nexts_0B9_, symObjAddr: 0xF9C0, symBinAddr: 0x3DE64, symSize: 0x40 }
  - { offset: 0x80E13, size: 0x8, addend: 0x0, symName: __RNCNvXsc_NtCs6IAuOt8vWmF_3syn10punctuatedINtB7_5PairsNtNtB9_4path11PathSegmentNtNtB9_5token7PathSepENtNtNtNtCsfvfooZQ3Axs_4core4iter6traits8iterator8Iterator4nexts_0B9_, symObjAddr: 0xFA00, symBinAddr: 0x3DEA4, symSize: 0x40 }
  - { offset: 0x80E55, size: 0x8, addend: 0x0, symName: __RNCNvXsc_NtCs6IAuOt8vWmF_3syn10punctuatedINtB7_5PairsNtNtB9_4path15GenericArgumentNtNtB9_5token5CommaENtNtNtNtCsfvfooZQ3Axs_4core4iter6traits8iterator8Iterator4nexts_0B9_, symObjAddr: 0xFA40, symBinAddr: 0x3DEE4, symSize: 0x40 }
  - { offset: 0x80E97, size: 0x8, addend: 0x0, symName: __RNCNvXsc_NtCs6IAuOt8vWmF_3syn10punctuatedINtB7_5PairsNtNtB9_8generics12GenericParamNtNtB9_5token5CommaENtNtNtNtCsfvfooZQ3Axs_4core4iter6traits8iterator8Iterator4nexts_0B9_, symObjAddr: 0xFA80, symBinAddr: 0x3DF24, symSize: 0x40 }
  - { offset: 0x80ED9, size: 0x8, addend: 0x0, symName: __RNCNvXsc_NtCs6IAuOt8vWmF_3syn10punctuatedINtB7_5PairsNtNtB9_8generics13CapturedParamNtNtB9_5token5CommaENtNtNtNtCsfvfooZQ3Axs_4core4iter6traits8iterator8Iterator4nexts_0B9_, symObjAddr: 0xFAC0, symBinAddr: 0x3DF64, symSize: 0x40 }
  - { offset: 0x80F1B, size: 0x8, addend: 0x0, symName: __RNCNvXsc_NtCs6IAuOt8vWmF_3syn10punctuatedINtB7_5PairsNtNtB9_8generics14TypeParamBoundNtNtB9_5token4PlusENtNtNtNtCsfvfooZQ3Axs_4core4iter6traits8iterator8Iterator4nexts_0B9_, symObjAddr: 0xFB00, symBinAddr: 0x3DFA4, symSize: 0x40 }
  - { offset: 0x80F5D, size: 0x8, addend: 0x0, symName: __RNCNvXsc_NtCs6IAuOt8vWmF_3syn10punctuatedINtB7_5PairsNtNtB9_8generics14WherePredicateNtNtB9_5token5CommaENtNtNtNtCsfvfooZQ3Axs_4core4iter6traits8iterator8Iterator4nexts_0B9_, symObjAddr: 0xFB40, symBinAddr: 0x3DFE4, symSize: 0x40 }
  - { offset: 0x80F9F, size: 0x8, addend: 0x0, symName: __RNCNvXsc_NtCs6IAuOt8vWmF_3syn10punctuatedINtB7_5PairsNtNtB9_8lifetime8LifetimeNtNtB9_5token4PlusENtNtNtNtCsfvfooZQ3Axs_4core4iter6traits8iterator8Iterator4nexts_0B9_, symObjAddr: 0xFB80, symBinAddr: 0x3E024, symSize: 0x40 }
  - { offset: 0x81066, size: 0x8, addend: 0x0, symName: __RNvXsj_NtCs6IAuOt8vWmF_3syn10punctuatedINtB5_9IntoPairsNtNtB7_4path11PathSegmentNtNtB7_5token7PathSepENtNtNtNtCsfvfooZQ3Axs_4core4iter6traits8iterator8Iterator4nextB7_, symObjAddr: 0xFBC0, symBinAddr: 0x3E064, symSize: 0x6C }
  - { offset: 0x810AB, size: 0x8, addend: 0x0, symName: __RNCNvXsj_NtCs6IAuOt8vWmF_3syn10punctuatedINtB7_9IntoPairsNtNtB9_4path11PathSegmentNtNtB9_5token7PathSepENtNtNtNtCsfvfooZQ3Axs_4core4iter6traits8iterator8Iterator4next0B9_, symObjAddr: 0xFC2C, symBinAddr: 0x3E0D0, symSize: 0x74 }
  - { offset: 0x81119, size: 0x8, addend: 0x0, symName: __RNCNvXsj_NtCs6IAuOt8vWmF_3syn10punctuatedINtB7_9IntoPairsNtNtB9_4path11PathSegmentNtNtB9_5token7PathSepENtNtNtNtCsfvfooZQ3Axs_4core4iter6traits8iterator8Iterator4nexts_0B9_, symObjAddr: 0xFCA0, symBinAddr: 0x3E144, symSize: 0x4C }
  - { offset: 0x81169, size: 0x8, addend: 0x0, symName: __RNvXsn_NtCs6IAuOt8vWmF_3syn10punctuatedINtB5_8IntoIterNtNtB7_8generics14TypeParamBoundENtNtNtNtCsfvfooZQ3Axs_4core4iter6traits8iterator8Iterator4nextB7_, symObjAddr: 0xFCEC, symBinAddr: 0x3E190, symSize: 0x34 }
  - { offset: 0x811A6, size: 0x8, addend: 0x0, symName: __RNvXst_NtCs6IAuOt8vWmF_3syn10punctuatedINtB5_4IterNtNtB7_4path11PathSegmentENtNtNtNtCsfvfooZQ3Axs_4core4iter6traits8iterator8Iterator4nextB7_, symObjAddr: 0xFE60, symBinAddr: 0x3E1C4, symSize: 0x48 }
  - { offset: 0x811DD, size: 0x8, addend: 0x0, symName: __RNvXst_NtCs6IAuOt8vWmF_3syn10punctuatedINtB5_4IterNtNtB7_8generics14TypeParamBoundENtNtNtNtCsfvfooZQ3Axs_4core4iter6traits8iterator8Iterator4nextB7_, symObjAddr: 0xFEF0, symBinAddr: 0x3E20C, symSize: 0x48 }
  - { offset: 0x8121A, size: 0x8, addend: 0x0, symName: __RNvXsu_NtCs6IAuOt8vWmF_3syn10punctuatedINtB5_4IterNtNtB7_4path11PathSegmentENtNtNtNtCsfvfooZQ3Axs_4core4iter6traits12double_ended19DoubleEndedIterator9next_backB7_, symObjAddr: 0xFF38, symBinAddr: 0x3E254, symSize: 0x48 }
  - { offset: 0x81251, size: 0x8, addend: 0x0, symName: __RNvXsu_NtCs6IAuOt8vWmF_3syn10punctuatedINtB5_4IterNtNtB7_8generics14TypeParamBoundENtNtNtNtCsfvfooZQ3Axs_4core4iter6traits12double_ended19DoubleEndedIterator9next_backB7_, symObjAddr: 0xFF80, symBinAddr: 0x3E29C, symSize: 0x48 }
  - { offset: 0x8128E, size: 0x8, addend: 0x0, symName: __RNvXsw_NtCs6IAuOt8vWmF_3syn10punctuatedINtB5_11PrivateIterNtNtB7_4path11PathSegmentNtNtB7_5token7PathSepENtNtNtNtCsfvfooZQ3Axs_4core4iter6traits8iterator8Iterator4nextB7_, symObjAddr: 0x10050, symBinAddr: 0x3E2E4, symSize: 0x44 }
  - { offset: 0x812CE, size: 0x8, addend: 0x0, symName: __RNvXsw_NtCs6IAuOt8vWmF_3syn10punctuatedINtB5_11PrivateIterNtNtB7_8generics14TypeParamBoundNtNtB7_5token4PlusENtNtNtNtCsfvfooZQ3Axs_4core4iter6traits8iterator8Iterator4nextB7_, symObjAddr: 0x100D8, symBinAddr: 0x3E328, symSize: 0x44 }
  - { offset: 0x81313, size: 0x8, addend: 0x0, symName: __RNCNvXsw_NtCs6IAuOt8vWmF_3syn10punctuatedINtB7_11PrivateIterNtNtB9_4path11PathSegmentNtNtB9_5token7PathSepENtNtNtNtCsfvfooZQ3Axs_4core4iter6traits8iterator8Iterator4next0B9_, symObjAddr: 0x10164, symBinAddr: 0x3E36C, symSize: 0x24 }
  - { offset: 0x8135E, size: 0x8, addend: 0x0, symName: __RNCNvXsw_NtCs6IAuOt8vWmF_3syn10punctuatedINtB7_11PrivateIterNtNtB9_8generics14TypeParamBoundNtNtB9_5token4PlusENtNtNtNtCsfvfooZQ3Axs_4core4iter6traits8iterator8Iterator4next0B9_, symObjAddr: 0x101AC, symBinAddr: 0x3E390, symSize: 0x24 }
  - { offset: 0x813A9, size: 0x8, addend: 0x0, symName: __RNCNvXsw_NtCs6IAuOt8vWmF_3syn10punctuatedINtB7_11PrivateIterNtNtB9_4path11PathSegmentNtNtB9_5token7PathSepENtNtNtNtCsfvfooZQ3Axs_4core4iter6traits8iterator8Iterator4nexts_0B9_, symObjAddr: 0x10238, symBinAddr: 0x3E3B4, symSize: 0x34 }
  - { offset: 0x813EB, size: 0x8, addend: 0x0, symName: __RNCNvXsw_NtCs6IAuOt8vWmF_3syn10punctuatedINtB7_11PrivateIterNtNtB9_8generics14TypeParamBoundNtNtB9_5token4PlusENtNtNtNtCsfvfooZQ3Axs_4core4iter6traits8iterator8Iterator4nexts_0B9_, symObjAddr: 0x102A0, symBinAddr: 0x3E3E8, symSize: 0x34 }
  - { offset: 0x81442, size: 0x8, addend: 0x0, symName: __RNvXsx_NtCs6IAuOt8vWmF_3syn10punctuatedINtB5_11PrivateIterNtNtB7_4path11PathSegmentNtNtB7_5token7PathSepENtNtNtNtCsfvfooZQ3Axs_4core4iter6traits12double_ended19DoubleEndedIterator9next_backB7_, symObjAddr: 0x10354, symBinAddr: 0x3E41C, symSize: 0x40 }
  - { offset: 0x81482, size: 0x8, addend: 0x0, symName: __RNvXsx_NtCs6IAuOt8vWmF_3syn10punctuatedINtB5_11PrivateIterNtNtB7_8generics14TypeParamBoundNtNtB7_5token4PlusENtNtNtNtCsfvfooZQ3Axs_4core4iter6traits12double_ended19DoubleEndedIterator9next_backB7_, symObjAddr: 0x103D4, symBinAddr: 0x3E45C, symSize: 0x40 }
  - { offset: 0x814C7, size: 0x8, addend: 0x0, symName: __RNCNvXsx_NtCs6IAuOt8vWmF_3syn10punctuatedINtB7_11PrivateIterNtNtB9_4path11PathSegmentNtNtB9_5token7PathSepENtNtNtNtCsfvfooZQ3Axs_4core4iter6traits12double_ended19DoubleEndedIterator9next_back0B9_, symObjAddr: 0x10484, symBinAddr: 0x3E49C, symSize: 0x38 }
  - { offset: 0x81509, size: 0x8, addend: 0x0, symName: __RNCNvXsx_NtCs6IAuOt8vWmF_3syn10punctuatedINtB7_11PrivateIterNtNtB9_8generics14TypeParamBoundNtNtB9_5token4PlusENtNtNtNtCsfvfooZQ3Axs_4core4iter6traits12double_ended19DoubleEndedIterator9next_back0B9_, symObjAddr: 0x104F4, symBinAddr: 0x3E4D4, symSize: 0x38 }
  - { offset: 0x81550, size: 0x8, addend: 0x0, symName: __RNCNCNvXsx_NtCs6IAuOt8vWmF_3syn10punctuatedINtB9_11PrivateIterNtNtBb_4path11PathSegmentNtNtBb_5token7PathSepENtNtNtNtCsfvfooZQ3Axs_4core4iter6traits12double_ended19DoubleEndedIterator9next_back00Bb_, symObjAddr: 0x10574, symBinAddr: 0x3E50C, symSize: 0x24 }
  - { offset: 0x8159B, size: 0x8, addend: 0x0, symName: __RNCNCNvXsx_NtCs6IAuOt8vWmF_3syn10punctuatedINtB9_11PrivateIterNtNtBb_8generics14TypeParamBoundNtNtBb_5token4PlusENtNtNtNtCsfvfooZQ3Axs_4core4iter6traits12double_ended19DoubleEndedIterator9next_back00Bb_, symObjAddr: 0x105BC, symBinAddr: 0x3E530, symSize: 0x24 }
  - { offset: 0x815FC, size: 0x8, addend: 0x0, symName: __RNvXsy_NtCs6IAuOt8vWmF_3syn10punctuatedINtB5_11PrivateIterNtNtB7_4path11PathSegmentNtNtB7_5token7PathSepENtNtNtNtCsfvfooZQ3Axs_4core4iter6traits10exact_size17ExactSizeIterator3lenB7_, symObjAddr: 0x10708, symBinAddr: 0x3E554, symSize: 0x94 }
  - { offset: 0x81670, size: 0x8, addend: 0x0, symName: __RNvXsy_NtCs6IAuOt8vWmF_3syn10punctuatedINtB5_11PrivateIterNtNtB7_8generics14TypeParamBoundNtNtB7_5token4PlusENtNtNtNtCsfvfooZQ3Axs_4core4iter6traits10exact_size17ExactSizeIterator3lenB7_, symObjAddr: 0x10830, symBinAddr: 0x3E5E8, symSize: 0x94 }
  - { offset: 0x816EA, size: 0x8, addend: 0x0, symName: __RNvXsz_NtCs6IAuOt8vWmF_3syn10punctuatedINtB5_11PrivateIterNtNtB7_4path11PathSegmentNtNtB7_5token7PathSepENtNtCsfvfooZQ3Axs_4core5clone5Clone5cloneB7_, symObjAddr: 0x10994, symBinAddr: 0x3E67C, symSize: 0x68 }
  - { offset: 0x8172A, size: 0x8, addend: 0x0, symName: __RNvXsz_NtCs6IAuOt8vWmF_3syn10punctuatedINtB5_11PrivateIterNtNtB7_8generics14TypeParamBoundNtNtB7_5token4PlusENtNtCsfvfooZQ3Axs_4core5clone5Clone5cloneB7_, symObjAddr: 0x10A64, symBinAddr: 0x3E6E4, symSize: 0x68 }
  - { offset: 0x81770, size: 0x8, addend: 0x0, symName: __RNvXsA_NtCs6IAuOt8vWmF_3syn10punctuatedINtB5_11PrivateIterNtNtB7_4path11PathSegmentNtNtB7_5token7PathSepEINtB5_9IterTraitBU_E9clone_boxB7_, symObjAddr: 0x10BF4, symBinAddr: 0x3E74C, symSize: 0x94 }
  - { offset: 0x817CE, size: 0x8, addend: 0x0, symName: __RNvXsA_NtCs6IAuOt8vWmF_3syn10punctuatedINtB5_11PrivateIterNtNtB7_8generics14TypeParamBoundNtNtB7_5token4PlusEINtB5_9IterTraitBU_E9clone_boxB7_, symObjAddr: 0x10D1C, symBinAddr: 0x3E7E0, symSize: 0x94 }
  - { offset: 0x81832, size: 0x8, addend: 0x0, symName: __RNvXsD_NtCs6IAuOt8vWmF_3syn10punctuatedINtB5_7IterMutNtNtB7_4path11PathSegmentENtNtNtNtCsfvfooZQ3Axs_4core4iter6traits12double_ended19DoubleEndedIterator9next_backB7_, symObjAddr: 0x10E60, symBinAddr: 0x3E874, symSize: 0x48 }
  - { offset: 0x8186F, size: 0x8, addend: 0x0, symName: __RNvXsF_NtCs6IAuOt8vWmF_3syn10punctuatedINtB5_14PrivateIterMutNtNtB7_4path11PathSegmentNtNtB7_5token7PathSepENtNtNtNtCsfvfooZQ3Axs_4core4iter6traits8iterator8Iterator4nextB7_, symObjAddr: 0x10EEC, symBinAddr: 0x3E8BC, symSize: 0x44 }
  - { offset: 0x818B4, size: 0x8, addend: 0x0, symName: __RNCNvXsF_NtCs6IAuOt8vWmF_3syn10punctuatedINtB7_14PrivateIterMutNtNtB9_4path11PathSegmentNtNtB9_5token7PathSepENtNtNtNtCsfvfooZQ3Axs_4core4iter6traits8iterator8Iterator4next0B9_, symObjAddr: 0x10F98, symBinAddr: 0x3E900, symSize: 0x24 }
  - { offset: 0x818FF, size: 0x8, addend: 0x0, symName: __RNCNvXsF_NtCs6IAuOt8vWmF_3syn10punctuatedINtB7_14PrivateIterMutNtNtB9_4path11PathSegmentNtNtB9_5token7PathSepENtNtNtNtCsfvfooZQ3Axs_4core4iter6traits8iterator8Iterator4nexts_0B9_, symObjAddr: 0x11014, symBinAddr: 0x3E924, symSize: 0x34 }
  - { offset: 0x8194F, size: 0x8, addend: 0x0, symName: __RNvXsG_NtCs6IAuOt8vWmF_3syn10punctuatedINtB5_14PrivateIterMutNtNtB7_4path11PathSegmentNtNtB7_5token7PathSepENtNtNtNtCsfvfooZQ3Axs_4core4iter6traits12double_ended19DoubleEndedIterator9next_backB7_, symObjAddr: 0x110BC, symBinAddr: 0x3E958, symSize: 0x40 }
  - { offset: 0x81994, size: 0x8, addend: 0x0, symName: __RNCNvXsG_NtCs6IAuOt8vWmF_3syn10punctuatedINtB7_14PrivateIterMutNtNtB9_4path11PathSegmentNtNtB9_5token7PathSepENtNtNtNtCsfvfooZQ3Axs_4core4iter6traits12double_ended19DoubleEndedIterator9next_back0B9_, symObjAddr: 0x11174, symBinAddr: 0x3E998, symSize: 0x38 }
  - { offset: 0x819DB, size: 0x8, addend: 0x0, symName: __RNCNCNvXsG_NtCs6IAuOt8vWmF_3syn10punctuatedINtB9_14PrivateIterMutNtNtBb_4path11PathSegmentNtNtBb_5token7PathSepENtNtNtNtCsfvfooZQ3Axs_4core4iter6traits12double_ended19DoubleEndedIterator9next_back00Bb_, symObjAddr: 0x11208, symBinAddr: 0x3E9D0, symSize: 0x24 }
  - { offset: 0x81A35, size: 0x8, addend: 0x0, symName: __RNvXsH_NtCs6IAuOt8vWmF_3syn10punctuatedINtB5_14PrivateIterMutNtNtB7_4path11PathSegmentNtNtB7_5token7PathSepENtNtNtNtCsfvfooZQ3Axs_4core4iter6traits10exact_size17ExactSizeIterator3lenB7_, symObjAddr: 0x112E4, symBinAddr: 0x3E9F4, symSize: 0x94 }
  - { offset: 0x81AB4, size: 0x8, addend: 0x0, symName: __RNcNtINtNtCs6IAuOt8vWmF_3syn10punctuated4PairNtNtB8_4path11PathSegmentNtNtB8_5token7PathSepE3End0B8_, symObjAddr: 0x1140C, symBinAddr: 0x3EA88, symSize: 0x40 }
  - { offset: 0x81AF1, size: 0x8, addend: 0x0, symName: __RNcNtINtNtCs6IAuOt8vWmF_3syn10punctuated4PairRNtNtB8_2ty4TypeRNtNtB8_5token5CommaE3End0B8_, symObjAddr: 0x1144C, symBinAddr: 0x3EAC8, symSize: 0x1C }
  - { offset: 0x81B2D, size: 0x8, addend: 0x0, symName: __RNcNtINtNtCs6IAuOt8vWmF_3syn10punctuated4PairRNtNtB8_2ty9BareFnArgRNtNtB8_5token5CommaE3End0B8_, symObjAddr: 0x11468, symBinAddr: 0x3EAE4, symSize: 0x1C }
  - { offset: 0x81B69, size: 0x8, addend: 0x0, symName: __RNcNtINtNtCs6IAuOt8vWmF_3syn10punctuated4PairRNtNtB8_3pat3PatRNtNtB8_5token2OrE3End0B8_, symObjAddr: 0x11484, symBinAddr: 0x3EB00, symSize: 0x1C }
  - { offset: 0x81BA5, size: 0x8, addend: 0x0, symName: __RNcNtINtNtCs6IAuOt8vWmF_3syn10punctuated4PairRNtNtB8_3pat3PatRNtNtB8_5token5CommaE3End0B8_, symObjAddr: 0x114A0, symBinAddr: 0x3EB1C, symSize: 0x1C }
  - { offset: 0x81BE1, size: 0x8, addend: 0x0, symName: __RNcNtINtNtCs6IAuOt8vWmF_3syn10punctuated4PairRNtNtB8_3pat8FieldPatRNtNtB8_5token5CommaE3End0B8_, symObjAddr: 0x114BC, symBinAddr: 0x3EB38, symSize: 0x1C }
  - { offset: 0x81C1D, size: 0x8, addend: 0x0, symName: __RNcNtINtNtCs6IAuOt8vWmF_3syn10punctuated4PairRNtNtB8_4data5FieldRNtNtB8_5token5CommaE3End0B8_, symObjAddr: 0x114D8, symBinAddr: 0x3EB54, symSize: 0x1C }
  - { offset: 0x81C59, size: 0x8, addend: 0x0, symName: __RNcNtINtNtCs6IAuOt8vWmF_3syn10punctuated4PairRNtNtB8_4data7VariantRNtNtB8_5token5CommaE3End0B8_, symObjAddr: 0x114F4, symBinAddr: 0x3EB70, symSize: 0x1C }
  - { offset: 0x81C95, size: 0x8, addend: 0x0, symName: __RNcNtINtNtCs6IAuOt8vWmF_3syn10punctuated4PairRNtNtB8_4expr10FieldValueRNtNtB8_5token5CommaE3End0B8_, symObjAddr: 0x11510, symBinAddr: 0x3EB8C, symSize: 0x1C }
  - { offset: 0x81CD1, size: 0x8, addend: 0x0, symName: __RNcNtINtNtCs6IAuOt8vWmF_3syn10punctuated4PairRNtNtB8_4expr4ExprRNtNtB8_5token5CommaE3End0B8_, symObjAddr: 0x1152C, symBinAddr: 0x3EBA8, symSize: 0x1C }
  - { offset: 0x81D0D, size: 0x8, addend: 0x0, symName: __RNcNtINtNtCs6IAuOt8vWmF_3syn10punctuated4PairRNtNtB8_4item5FnArgRNtNtB8_5token5CommaE3End0B8_, symObjAddr: 0x11548, symBinAddr: 0x3EBC4, symSize: 0x1C }
  - { offset: 0x81D49, size: 0x8, addend: 0x0, symName: __RNcNtINtNtCs6IAuOt8vWmF_3syn10punctuated4PairRNtNtB8_4item7UseTreeRNtNtB8_5token5CommaE3End0B8_, symObjAddr: 0x11564, symBinAddr: 0x3EBE0, symSize: 0x1C }
  - { offset: 0x81D85, size: 0x8, addend: 0x0, symName: __RNcNtINtNtCs6IAuOt8vWmF_3syn10punctuated4PairRNtNtB8_4path11PathSegmentRNtNtB8_5token7PathSepE3End0B8_, symObjAddr: 0x11580, symBinAddr: 0x3EBFC, symSize: 0x1C }
  - { offset: 0x81DC1, size: 0x8, addend: 0x0, symName: __RNcNtINtNtCs6IAuOt8vWmF_3syn10punctuated4PairRNtNtB8_4path15GenericArgumentRNtNtB8_5token5CommaE3End0B8_, symObjAddr: 0x1159C, symBinAddr: 0x3EC18, symSize: 0x1C }
  - { offset: 0x81DFD, size: 0x8, addend: 0x0, symName: __RNcNtINtNtCs6IAuOt8vWmF_3syn10punctuated4PairRNtNtB8_8generics12GenericParamRNtNtB8_5token5CommaE3End0B8_, symObjAddr: 0x115B8, symBinAddr: 0x3EC34, symSize: 0x1C }
  - { offset: 0x81E39, size: 0x8, addend: 0x0, symName: __RNcNtINtNtCs6IAuOt8vWmF_3syn10punctuated4PairRNtNtB8_8generics13CapturedParamRNtNtB8_5token5CommaE3End0B8_, symObjAddr: 0x115D4, symBinAddr: 0x3EC50, symSize: 0x1C }
  - { offset: 0x81E75, size: 0x8, addend: 0x0, symName: __RNcNtINtNtCs6IAuOt8vWmF_3syn10punctuated4PairRNtNtB8_8generics14TypeParamBoundRNtNtB8_5token4PlusE3End0B8_, symObjAddr: 0x115F0, symBinAddr: 0x3EC6C, symSize: 0x1C }
  - { offset: 0x81EB1, size: 0x8, addend: 0x0, symName: __RNcNtINtNtCs6IAuOt8vWmF_3syn10punctuated4PairRNtNtB8_8generics14WherePredicateRNtNtB8_5token5CommaE3End0B8_, symObjAddr: 0x1160C, symBinAddr: 0x3EC88, symSize: 0x1C }
  - { offset: 0x81EED, size: 0x8, addend: 0x0, symName: __RNcNtINtNtCs6IAuOt8vWmF_3syn10punctuated4PairRNtNtB8_8lifetime8LifetimeRNtNtB8_5token4PlusE3End0B8_, symObjAddr: 0x11628, symBinAddr: 0x3ECA4, symSize: 0x1C }
  - { offset: 0x8229C, size: 0x8, addend: 0x0, symName: __RNvXsN_NtCs6IAuOt8vWmF_3syn10punctuatedINtB5_10PunctuatedNtNtB7_3pat3PatNtNtB7_5token5CommaEINtNtNtCsfvfooZQ3Axs_4core3ops5index5IndexjE5indexB7_, symObjAddr: 0x11AC8, symBinAddr: 0x3F144, symSize: 0x134 }
  - { offset: 0x82301, size: 0x8, addend: 0x0, symName: __RNvXsN_NtCs6IAuOt8vWmF_3syn10punctuatedINtB5_10PunctuatedNtNtB7_4path11PathSegmentNtNtB7_5token7PathSepEINtNtNtCsfvfooZQ3Axs_4core3ops5index5IndexjE5indexB7_, symObjAddr: 0x11BFC, symBinAddr: 0x3F278, symSize: 0x134 }
  - { offset: 0x82371, size: 0x8, addend: 0x0, symName: __RNvXNtNtCs6IAuOt8vWmF_3syn10punctuated8printingINtB4_10PunctuatedNtNtB6_2ty4TypeNtNtB6_5token5CommaENtNtCs2cqEZUIJimJ_5quote9to_tokens8ToTokens9to_tokensB6_, symObjAddr: 0x11D30, symBinAddr: 0x3F3AC, symSize: 0x50 }
  - { offset: 0x823BC, size: 0x8, addend: 0x0, symName: __RNvXNtNtCs6IAuOt8vWmF_3syn10punctuated8printingINtB4_10PunctuatedNtNtB6_2ty9BareFnArgNtNtB6_5token5CommaENtNtCs2cqEZUIJimJ_5quote9to_tokens8ToTokens9to_tokensB6_, symObjAddr: 0x11D80, symBinAddr: 0x3F3FC, symSize: 0x50 }
  - { offset: 0x82407, size: 0x8, addend: 0x0, symName: __RNvXNtNtCs6IAuOt8vWmF_3syn10punctuated8printingINtB4_10PunctuatedNtNtB6_3pat3PatNtNtB6_5token2OrENtNtCs2cqEZUIJimJ_5quote9to_tokens8ToTokens9to_tokensB6_, symObjAddr: 0x11DD0, symBinAddr: 0x3F44C, symSize: 0x50 }
  - { offset: 0x82452, size: 0x8, addend: 0x0, symName: __RNvXNtNtCs6IAuOt8vWmF_3syn10punctuated8printingINtB4_10PunctuatedNtNtB6_3pat3PatNtNtB6_5token5CommaENtNtCs2cqEZUIJimJ_5quote9to_tokens8ToTokens9to_tokensB6_, symObjAddr: 0x11E20, symBinAddr: 0x3F49C, symSize: 0x50 }
  - { offset: 0x8249D, size: 0x8, addend: 0x0, symName: __RNvXNtNtCs6IAuOt8vWmF_3syn10punctuated8printingINtB4_10PunctuatedNtNtB6_3pat8FieldPatNtNtB6_5token5CommaENtNtCs2cqEZUIJimJ_5quote9to_tokens8ToTokens9to_tokensB6_, symObjAddr: 0x11E70, symBinAddr: 0x3F4EC, symSize: 0x50 }
  - { offset: 0x824E8, size: 0x8, addend: 0x0, symName: __RNvXNtNtCs6IAuOt8vWmF_3syn10punctuated8printingINtB4_10PunctuatedNtNtB6_4data5FieldNtNtB6_5token5CommaENtNtCs2cqEZUIJimJ_5quote9to_tokens8ToTokens9to_tokensB6_, symObjAddr: 0x11EC0, symBinAddr: 0x3F53C, symSize: 0x50 }
  - { offset: 0x82533, size: 0x8, addend: 0x0, symName: __RNvXNtNtCs6IAuOt8vWmF_3syn10punctuated8printingINtB4_10PunctuatedNtNtB6_4data7VariantNtNtB6_5token5CommaENtNtCs2cqEZUIJimJ_5quote9to_tokens8ToTokens9to_tokensB6_, symObjAddr: 0x11F10, symBinAddr: 0x3F58C, symSize: 0x50 }
  - { offset: 0x8257E, size: 0x8, addend: 0x0, symName: __RNvXNtNtCs6IAuOt8vWmF_3syn10punctuated8printingINtB4_10PunctuatedNtNtB6_4expr10FieldValueNtNtB6_5token5CommaENtNtCs2cqEZUIJimJ_5quote9to_tokens8ToTokens9to_tokensB6_, symObjAddr: 0x11F60, symBinAddr: 0x3F5DC, symSize: 0x50 }
  - { offset: 0x825C9, size: 0x8, addend: 0x0, symName: __RNvXNtNtCs6IAuOt8vWmF_3syn10punctuated8printingINtB4_10PunctuatedNtNtB6_4expr4ExprNtNtB6_5token5CommaENtNtCs2cqEZUIJimJ_5quote9to_tokens8ToTokens9to_tokensB6_, symObjAddr: 0x11FB0, symBinAddr: 0x3F62C, symSize: 0x50 }
  - { offset: 0x82614, size: 0x8, addend: 0x0, symName: __RNvXNtNtCs6IAuOt8vWmF_3syn10punctuated8printingINtB4_10PunctuatedNtNtB6_4item5FnArgNtNtB6_5token5CommaENtNtCs2cqEZUIJimJ_5quote9to_tokens8ToTokens9to_tokensB6_, symObjAddr: 0x12000, symBinAddr: 0x3F67C, symSize: 0x50 }
  - { offset: 0x8265F, size: 0x8, addend: 0x0, symName: __RNvXNtNtCs6IAuOt8vWmF_3syn10punctuated8printingINtB4_10PunctuatedNtNtB6_4item7UseTreeNtNtB6_5token5CommaENtNtCs2cqEZUIJimJ_5quote9to_tokens8ToTokens9to_tokensB6_, symObjAddr: 0x12050, symBinAddr: 0x3F6CC, symSize: 0x50 }
  - { offset: 0x826AA, size: 0x8, addend: 0x0, symName: __RNvXNtNtCs6IAuOt8vWmF_3syn10punctuated8printingINtB4_10PunctuatedNtNtB6_8generics12GenericParamNtNtB6_5token5CommaENtNtCs2cqEZUIJimJ_5quote9to_tokens8ToTokens9to_tokensB6_, symObjAddr: 0x120A0, symBinAddr: 0x3F71C, symSize: 0x50 }
  - { offset: 0x826F5, size: 0x8, addend: 0x0, symName: __RNvXNtNtCs6IAuOt8vWmF_3syn10punctuated8printingINtB4_10PunctuatedNtNtB6_8generics14TypeParamBoundNtNtB6_5token4PlusENtNtCs2cqEZUIJimJ_5quote9to_tokens8ToTokens9to_tokensB6_, symObjAddr: 0x120F0, symBinAddr: 0x3F76C, symSize: 0x50 }
  - { offset: 0x82740, size: 0x8, addend: 0x0, symName: __RNvXNtNtCs6IAuOt8vWmF_3syn10punctuated8printingINtB4_10PunctuatedNtNtB6_8generics14WherePredicateNtNtB6_5token5CommaENtNtCs2cqEZUIJimJ_5quote9to_tokens8ToTokens9to_tokensB6_, symObjAddr: 0x12140, symBinAddr: 0x3F7BC, symSize: 0x50 }
  - { offset: 0x8278B, size: 0x8, addend: 0x0, symName: __RNvXNtNtCs6IAuOt8vWmF_3syn10punctuated8printingINtB4_10PunctuatedNtNtB6_8lifetime8LifetimeNtNtB6_5token4PlusENtNtCs2cqEZUIJimJ_5quote9to_tokens8ToTokens9to_tokensB6_, symObjAddr: 0x12190, symBinAddr: 0x3F80C, symSize: 0x50 }
  - { offset: 0x827DC, size: 0x8, addend: 0x0, symName: __RNvXs_NtNtCs6IAuOt8vWmF_3syn10punctuated8printingINtB6_4PairRNtNtB8_2ty4TypeRNtNtB8_5token5CommaENtNtCs2cqEZUIJimJ_5quote9to_tokens8ToTokens9to_tokensB8_, symObjAddr: 0x121E0, symBinAddr: 0x3F85C, symSize: 0xB4 }
  - { offset: 0x8286B, size: 0x8, addend: 0x0, symName: __RNvXs_NtNtCs6IAuOt8vWmF_3syn10punctuated8printingINtB6_4PairRNtNtB8_2ty9BareFnArgRNtNtB8_5token5CommaENtNtCs2cqEZUIJimJ_5quote9to_tokens8ToTokens9to_tokensB8_, symObjAddr: 0x12294, symBinAddr: 0x3F910, symSize: 0xB4 }
  - { offset: 0x828FA, size: 0x8, addend: 0x0, symName: __RNvXs_NtNtCs6IAuOt8vWmF_3syn10punctuated8printingINtB6_4PairRNtNtB8_3pat3PatRNtNtB8_5token2OrENtNtCs2cqEZUIJimJ_5quote9to_tokens8ToTokens9to_tokensB8_, symObjAddr: 0x12348, symBinAddr: 0x3F9C4, symSize: 0xB4 }
  - { offset: 0x82989, size: 0x8, addend: 0x0, symName: __RNvXs_NtNtCs6IAuOt8vWmF_3syn10punctuated8printingINtB6_4PairRNtNtB8_3pat3PatRNtNtB8_5token5CommaENtNtCs2cqEZUIJimJ_5quote9to_tokens8ToTokens9to_tokensB8_, symObjAddr: 0x123FC, symBinAddr: 0x3FA78, symSize: 0xB4 }
  - { offset: 0x82A18, size: 0x8, addend: 0x0, symName: __RNvXs_NtNtCs6IAuOt8vWmF_3syn10punctuated8printingINtB6_4PairRNtNtB8_3pat8FieldPatRNtNtB8_5token5CommaENtNtCs2cqEZUIJimJ_5quote9to_tokens8ToTokens9to_tokensB8_, symObjAddr: 0x124B0, symBinAddr: 0x3FB2C, symSize: 0xB4 }
  - { offset: 0x82AA7, size: 0x8, addend: 0x0, symName: __RNvXs_NtNtCs6IAuOt8vWmF_3syn10punctuated8printingINtB6_4PairRNtNtB8_4data5FieldRNtNtB8_5token5CommaENtNtCs2cqEZUIJimJ_5quote9to_tokens8ToTokens9to_tokensB8_, symObjAddr: 0x12564, symBinAddr: 0x3FBE0, symSize: 0xB4 }
  - { offset: 0x82B36, size: 0x8, addend: 0x0, symName: __RNvXs_NtNtCs6IAuOt8vWmF_3syn10punctuated8printingINtB6_4PairRNtNtB8_4data7VariantRNtNtB8_5token5CommaENtNtCs2cqEZUIJimJ_5quote9to_tokens8ToTokens9to_tokensB8_, symObjAddr: 0x12618, symBinAddr: 0x3FC94, symSize: 0xB4 }
  - { offset: 0x82BC5, size: 0x8, addend: 0x0, symName: __RNvXs_NtNtCs6IAuOt8vWmF_3syn10punctuated8printingINtB6_4PairRNtNtB8_4expr10FieldValueRNtNtB8_5token5CommaENtNtCs2cqEZUIJimJ_5quote9to_tokens8ToTokens9to_tokensB8_, symObjAddr: 0x126CC, symBinAddr: 0x3FD48, symSize: 0xB4 }
  - { offset: 0x82C54, size: 0x8, addend: 0x0, symName: __RNvXs_NtNtCs6IAuOt8vWmF_3syn10punctuated8printingINtB6_4PairRNtNtB8_4expr4ExprRNtNtB8_5token5CommaENtNtCs2cqEZUIJimJ_5quote9to_tokens8ToTokens9to_tokensB8_, symObjAddr: 0x12780, symBinAddr: 0x3FDFC, symSize: 0xB4 }
  - { offset: 0x82CE3, size: 0x8, addend: 0x0, symName: __RNvXs_NtNtCs6IAuOt8vWmF_3syn10punctuated8printingINtB6_4PairRNtNtB8_4item5FnArgRNtNtB8_5token5CommaENtNtCs2cqEZUIJimJ_5quote9to_tokens8ToTokens9to_tokensB8_, symObjAddr: 0x12834, symBinAddr: 0x3FEB0, symSize: 0xB4 }
  - { offset: 0x82D72, size: 0x8, addend: 0x0, symName: __RNvXs_NtNtCs6IAuOt8vWmF_3syn10punctuated8printingINtB6_4PairRNtNtB8_4item7UseTreeRNtNtB8_5token5CommaENtNtCs2cqEZUIJimJ_5quote9to_tokens8ToTokens9to_tokensB8_, symObjAddr: 0x128E8, symBinAddr: 0x3FF64, symSize: 0xB4 }
  - { offset: 0x82E01, size: 0x8, addend: 0x0, symName: __RNvXs_NtNtCs6IAuOt8vWmF_3syn10punctuated8printingINtB6_4PairRNtNtB8_4path15GenericArgumentRNtNtB8_5token5CommaENtNtCs2cqEZUIJimJ_5quote9to_tokens8ToTokens9to_tokensB8_, symObjAddr: 0x1299C, symBinAddr: 0x40018, symSize: 0xB4 }
  - { offset: 0x82E90, size: 0x8, addend: 0x0, symName: __RNvXs_NtNtCs6IAuOt8vWmF_3syn10punctuated8printingINtB6_4PairRNtNtB8_8generics12GenericParamRNtNtB8_5token5CommaENtNtCs2cqEZUIJimJ_5quote9to_tokens8ToTokens9to_tokensB8_, symObjAddr: 0x12A50, symBinAddr: 0x400CC, symSize: 0xB4 }
  - { offset: 0x82F1F, size: 0x8, addend: 0x0, symName: __RNvXs_NtNtCs6IAuOt8vWmF_3syn10punctuated8printingINtB6_4PairRNtNtB8_8generics13CapturedParamRNtNtB8_5token5CommaENtNtCs2cqEZUIJimJ_5quote9to_tokens8ToTokens9to_tokensB8_, symObjAddr: 0x12B04, symBinAddr: 0x40180, symSize: 0xB4 }
  - { offset: 0x82FAE, size: 0x8, addend: 0x0, symName: __RNvXs_NtNtCs6IAuOt8vWmF_3syn10punctuated8printingINtB6_4PairRNtNtB8_8generics14TypeParamBoundRNtNtB8_5token4PlusENtNtCs2cqEZUIJimJ_5quote9to_tokens8ToTokens9to_tokensB8_, symObjAddr: 0x12BB8, symBinAddr: 0x40234, symSize: 0xB4 }
  - { offset: 0x8303D, size: 0x8, addend: 0x0, symName: __RNvXs_NtNtCs6IAuOt8vWmF_3syn10punctuated8printingINtB6_4PairRNtNtB8_8generics14WherePredicateRNtNtB8_5token5CommaENtNtCs2cqEZUIJimJ_5quote9to_tokens8ToTokens9to_tokensB8_, symObjAddr: 0x12C6C, symBinAddr: 0x402E8, symSize: 0xB4 }
  - { offset: 0x830CC, size: 0x8, addend: 0x0, symName: __RNvXs_NtNtCs6IAuOt8vWmF_3syn10punctuated8printingINtB6_4PairRNtNtB8_8lifetime8LifetimeRNtNtB8_5token4PlusENtNtCs2cqEZUIJimJ_5quote9to_tokens8ToTokens9to_tokensB8_, symObjAddr: 0x12D20, symBinAddr: 0x4039C, symSize: 0xB4 }
  - { offset: 0x84309, size: 0x8, addend: 0x0, symName: __RNvXsq_NtCs6IAuOt8vWmF_3syn5tokenNtNtB7_8lifetime8LifetimeNtB5_5Token4peek, symObjAddr: 0x13338, symBinAddr: 0x40488, symSize: 0x88 }
  - { offset: 0x84335, size: 0x8, addend: 0x0, symName: __RNvXsq_NtCs6IAuOt8vWmF_3syn5tokenNtNtB7_8lifetime8LifetimeNtB5_5Token7display, symObjAddr: 0x133C0, symBinAddr: 0x40510, symSize: 0x24 }
  - { offset: 0x8470D, size: 0x8, addend: 0x0, symName: __RNvXs0_NtCs6IAuOt8vWmF_3syn8lifetimeNtB5_8LifetimeNtNtCsfvfooZQ3Axs_4core5clone5Clone5clone, symObjAddr: 0x3030, symBinAddr: 0x35394, symSize: 0x60 }
  - { offset: 0x84744, size: 0x8, addend: 0x0, symName: __RNvXNtNtCs6IAuOt8vWmF_3syn8lifetime7parsingNtB4_8LifetimeNtNtB6_5parse5Parse5parse, symObjAddr: 0x314C, symBinAddr: 0x353F4, symSize: 0x34 }
  - { offset: 0x8477C, size: 0x8, addend: 0x0, symName: __RNvXNtNtCs6IAuOt8vWmF_3syn8lifetime8printingNtB4_8LifetimeNtNtCs2cqEZUIJimJ_5quote9to_tokens8ToTokens9to_tokens, symObjAddr: 0x3180, symBinAddr: 0x35428, symSize: 0x90 }
  - { offset: 0x886D2, size: 0x8, addend: 0x0, symName: __RINvCs6IAuOt8vWmF_3syn9parse_strNtNtB2_4expr5IndexEB2_, symObjAddr: 0x12DD4, symBinAddr: 0x40450, symSize: 0x38 }
  - { offset: 0x891BB, size: 0x8, addend: 0x0, symName: __RNvYINtNtCse1nGBsou5OW_5alloc2rc7RcInnerINtNtCsfvfooZQ3Axs_4core4cell4CellNtNtCs6IAuOt8vWmF_3syn5parse10UnexpectedEENtB5_10RcInnerPtr10inc_strongB1e_, symObjAddr: 0x2C3C, symBinAddr: 0x352C0, symSize: 0x94 }
  - { offset: 0x892F3, size: 0x8, addend: 0x0, symName: __RNvYINtNtCse1nGBsou5OW_5alloc2rc7RcInnerINtNtCsfvfooZQ3Axs_4core4cell4CellNtNtCs6IAuOt8vWmF_3syn5parse10UnexpectedEENtB5_10RcInnerPtr6strongB1e_, symObjAddr: 0x2CD0, symBinAddr: 0x35354, symSize: 0x28 }
  - { offset: 0x8934E, size: 0x8, addend: 0x0, symName: __RNvXs17_NtCse1nGBsou5OW_5alloc2rcINtB6_4WeakINtNtCsfvfooZQ3Axs_4core4cell4CellNtNtCs6IAuOt8vWmF_3syn5parse10UnexpectedERNtNtB8_5alloc6GlobalENtNtNtBL_3ops4drop4Drop4dropB1i_, symObjAddr: 0x924, symBinAddr: 0x34484, symSize: 0x148 }
  - { offset: 0x895C3, size: 0x8, addend: 0x0, symName: __RNvXsu_NtCse1nGBsou5OW_5alloc2rcINtB5_2RcINtNtCsfvfooZQ3Axs_4core4cell4CellNtNtCs6IAuOt8vWmF_3syn5parse10UnexpectedEENtNtNtBI_3ops4drop4Drop4dropB1f_, symObjAddr: 0xDB0, symBinAddr: 0x346CC, symSize: 0x88 }
  - { offset: 0x897A6, size: 0x8, addend: 0x0, symName: __RNvXsv_NtCse1nGBsou5OW_5alloc2rcINtB5_2RcINtNtCsfvfooZQ3Axs_4core4cell4CellNtNtCs6IAuOt8vWmF_3syn5parse10UnexpectedEENtNtBI_5clone5Clone5cloneB1f_, symObjAddr: 0xE38, symBinAddr: 0x34754, symSize: 0x48 }
  - { offset: 0x8F7A5, size: 0x8, addend: 0x0, symName: __RNvMNtCsfvfooZQ3Axs_4core5sliceSTNtNtCs6IAuOt8vWmF_3syn8lifetime8LifetimeNtNtBz_5token4PlusE4iterBz_, symObjAddr: 0x4D8, symBinAddr: 0x3407C, symSize: 0x28 }
  - { offset: 0x8F8C1, size: 0x8, addend: 0x0, symName: __RNvXs9_NtNtNtCsfvfooZQ3Axs_4core4iter8adapters4fuseINtB5_4FuseINtNtB7_3map3MapIBZ_IBZ_INtNtNtBb_5slice4iter4IterNtNtCs6IAuOt8vWmF_3syn5error12ErrorMessageENvMs_B1O_B1M_16to_compile_errorENCINvXs7_Cs3cP53eQoTwO_11proc_macro2NtB38_11TokenStreamINtNtNtB9_6traits7collect12FromIteratorB3z_E9from_iterB1i_E0ENCINvXs6_NtB38_3impNtB50_11TokenStreamIB3T_B5a_E9from_iterB1e_Es_0EEINtB5_8FuseImplBY_E4nextB1Q_, symObjAddr: 0xCF4, symBinAddr: 0x34610, symSize: 0x80 }
  - { offset: 0x8F9BC, size: 0x8, addend: 0x0, symName: __RINvYINtNtCs6IAuOt8vWmF_3syn10punctuated4IterNtNtB8_4path11PathSegmentENtNtNtNtCsfvfooZQ3Axs_4core4iter6traits8iterator8Iterator3allNCNvMs5_NtBJ_7parsingNtBJ_4Path12is_mod_style0EB8_, symObjAddr: 0x368, symBinAddr: 0x33F0C, symSize: 0x3C }
  - { offset: 0x8FA0B, size: 0x8, addend: 0x0, symName: __RINvYINtNtCs6IAuOt8vWmF_3syn10punctuated4IterNtNtB8_4path11PathSegmentENtNtNtNtCsfvfooZQ3Axs_4core4iter6traits8iterator8Iterator8try_folduNCINvNvB17_3all5checkRBH_NCNvMs5_NtBJ_7parsingNtBJ_4Path12is_mod_style0E0INtNtNtB1f_3ops12control_flow11ControlFlowuEEB8_, symObjAddr: 0x3A4, symBinAddr: 0x33F48, symSize: 0x134 }
  - { offset: 0x8FAC5, size: 0x8, addend: 0x0, symName: __RNvYINtNtCs6IAuOt8vWmF_3syn10punctuated11PrivateIterNtNtB7_4path11PathSegmentNtNtB7_5token7PathSepENtNtNtNtCsfvfooZQ3Axs_4core4iter6traits8iterator8Iterator10advance_byB7_, symObjAddr: 0x17A8, symBinAddr: 0x34964, symSize: 0x134 }
  - { offset: 0x8FC1B, size: 0x8, addend: 0x0, symName: __RNvYINtNtCs6IAuOt8vWmF_3syn10punctuated11PrivateIterNtNtB7_4path11PathSegmentNtNtB7_5token7PathSepENtNtNtNtCsfvfooZQ3Axs_4core4iter6traits8iterator8Iterator3nthB7_, symObjAddr: 0x18DC, symBinAddr: 0x34A98, symSize: 0x80 }
  - { offset: 0x8FCE7, size: 0x8, addend: 0x0, symName: __RNvYINtNtCs6IAuOt8vWmF_3syn10punctuated11PrivateIterNtNtB7_4path11PathSegmentNtNtB7_5token7PathSepENtNtNtNtCsfvfooZQ3Axs_4core4iter6traits8iterator8Iterator9size_hintB7_, symObjAddr: 0x195C, symBinAddr: 0x34B18, symSize: 0x34 }
  - { offset: 0x8FD1C, size: 0x8, addend: 0x0, symName: __RNvYINtNtCs6IAuOt8vWmF_3syn10punctuated11PrivateIterNtNtB7_8generics14TypeParamBoundNtNtB7_5token4PlusENtNtNtNtCsfvfooZQ3Axs_4core4iter6traits8iterator8Iterator10advance_byB7_, symObjAddr: 0x1F08, symBinAddr: 0x34D14, symSize: 0x134 }
  - { offset: 0x8FE72, size: 0x8, addend: 0x0, symName: __RNvYINtNtCs6IAuOt8vWmF_3syn10punctuated11PrivateIterNtNtB7_8generics14TypeParamBoundNtNtB7_5token4PlusENtNtNtNtCsfvfooZQ3Axs_4core4iter6traits8iterator8Iterator3nthB7_, symObjAddr: 0x203C, symBinAddr: 0x34E48, symSize: 0x80 }
  - { offset: 0x8FF3E, size: 0x8, addend: 0x0, symName: __RNvYINtNtCs6IAuOt8vWmF_3syn10punctuated11PrivateIterNtNtB7_8generics14TypeParamBoundNtNtB7_5token4PlusENtNtNtNtCsfvfooZQ3Axs_4core4iter6traits8iterator8Iterator9size_hintB7_, symObjAddr: 0x20BC, symBinAddr: 0x34EC8, symSize: 0x34 }
  - { offset: 0x8FF73, size: 0x8, addend: 0x0, symName: __RNvYINtNtCs6IAuOt8vWmF_3syn10punctuated14PrivateIterMutNtNtB7_4path11PathSegmentNtNtB7_5token7PathSepENtNtNtNtCsfvfooZQ3Axs_4core4iter6traits8iterator8Iterator10advance_byB7_, symObjAddr: 0x2668, symBinAddr: 0x350C4, symSize: 0x134 }
  - { offset: 0x900C9, size: 0x8, addend: 0x0, symName: __RNvYINtNtCs6IAuOt8vWmF_3syn10punctuated14PrivateIterMutNtNtB7_4path11PathSegmentNtNtB7_5token7PathSepENtNtNtNtCsfvfooZQ3Axs_4core4iter6traits8iterator8Iterator3nthB7_, symObjAddr: 0x279C, symBinAddr: 0x351F8, symSize: 0x80 }
  - { offset: 0x90195, size: 0x8, addend: 0x0, symName: __RNvYINtNtCs6IAuOt8vWmF_3syn10punctuated14PrivateIterMutNtNtB7_4path11PathSegmentNtNtB7_5token7PathSepENtNtNtNtCsfvfooZQ3Axs_4core4iter6traits8iterator8Iterator9size_hintB7_, symObjAddr: 0x281C, symBinAddr: 0x35278, symSize: 0x34 }
  - { offset: 0x901CA, size: 0x8, addend: 0x0, symName: __RNvYINtNtCs6IAuOt8vWmF_3syn10punctuated5PairsNtNtB7_4path11PathSegmentNtNtB7_5token7PathSepENtNtNtNtCsfvfooZQ3Axs_4core4iter6traits8iterator8Iterator6by_refB7_, symObjAddr: 0x2C28, symBinAddr: 0x352AC, symSize: 0x14 }
  - { offset: 0x90201, size: 0x8, addend: 0x0, symName: __RNvYQINtNtCs6IAuOt8vWmF_3syn10punctuated5PairsNtNtB8_4path11PathSegmentNtNtB8_5token7PathSepENtNtNtNtCsfvfooZQ3Axs_4core4iter6traits8iterator8Iterator4takeB8_, symObjAddr: 0x2D28, symBinAddr: 0x3537C, symSize: 0x18 }
  - { offset: 0x9026C, size: 0x8, addend: 0x0, symName: __RNvXNtNtNtCsfvfooZQ3Axs_4core4iter6traits8iteratorQINtNtCs6IAuOt8vWmF_3syn10punctuated5PairsNtNtBS_4path11PathSegmentNtNtBS_5token7PathSepENtB2_8Iterator4nextBS_, symObjAddr: 0x8FC, symBinAddr: 0x3445C, symSize: 0x28 }
  - { offset: 0x902AF, size: 0x8, addend: 0x0, symName: __RNvXNtNtNtCsfvfooZQ3Axs_4core4iter6traits7collectINtNtCs6IAuOt8vWmF_3syn10punctuated5PairsNtNtBQ_2ty4TypeNtNtBQ_5token5CommaENtB2_12IntoIterator9into_iterBQ_, symObjAddr: 0x71C, symBinAddr: 0x3427C, symSize: 0x18 }
  - { offset: 0x902E6, size: 0x8, addend: 0x0, symName: __RNvXNtNtNtCsfvfooZQ3Axs_4core4iter6traits7collectINtNtCs6IAuOt8vWmF_3syn10punctuated5PairsNtNtBQ_2ty9BareFnArgNtNtBQ_5token5CommaENtB2_12IntoIterator9into_iterBQ_, symObjAddr: 0x734, symBinAddr: 0x34294, symSize: 0x18 }
  - { offset: 0x9031D, size: 0x8, addend: 0x0, symName: __RNvXNtNtNtCsfvfooZQ3Axs_4core4iter6traits7collectINtNtCs6IAuOt8vWmF_3syn10punctuated5PairsNtNtBQ_3pat3PatNtNtBQ_5token2OrENtB2_12IntoIterator9into_iterBQ_, symObjAddr: 0x74C, symBinAddr: 0x342AC, symSize: 0x18 }
  - { offset: 0x90354, size: 0x8, addend: 0x0, symName: __RNvXNtNtNtCsfvfooZQ3Axs_4core4iter6traits7collectINtNtCs6IAuOt8vWmF_3syn10punctuated5PairsNtNtBQ_3pat3PatNtNtBQ_5token5CommaENtB2_12IntoIterator9into_iterBQ_, symObjAddr: 0x764, symBinAddr: 0x342C4, symSize: 0x18 }
  - { offset: 0x9038B, size: 0x8, addend: 0x0, symName: __RNvXNtNtNtCsfvfooZQ3Axs_4core4iter6traits7collectINtNtCs6IAuOt8vWmF_3syn10punctuated5PairsNtNtBQ_3pat8FieldPatNtNtBQ_5token5CommaENtB2_12IntoIterator9into_iterBQ_, symObjAddr: 0x77C, symBinAddr: 0x342DC, symSize: 0x18 }
  - { offset: 0x903C2, size: 0x8, addend: 0x0, symName: __RNvXNtNtNtCsfvfooZQ3Axs_4core4iter6traits7collectINtNtCs6IAuOt8vWmF_3syn10punctuated5PairsNtNtBQ_4data5FieldNtNtBQ_5token5CommaENtB2_12IntoIterator9into_iterBQ_, symObjAddr: 0x794, symBinAddr: 0x342F4, symSize: 0x18 }
  - { offset: 0x903F9, size: 0x8, addend: 0x0, symName: __RNvXNtNtNtCsfvfooZQ3Axs_4core4iter6traits7collectINtNtCs6IAuOt8vWmF_3syn10punctuated5PairsNtNtBQ_4data7VariantNtNtBQ_5token5CommaENtB2_12IntoIterator9into_iterBQ_, symObjAddr: 0x7AC, symBinAddr: 0x3430C, symSize: 0x18 }
  - { offset: 0x90430, size: 0x8, addend: 0x0, symName: __RNvXNtNtNtCsfvfooZQ3Axs_4core4iter6traits7collectINtNtCs6IAuOt8vWmF_3syn10punctuated5PairsNtNtBQ_4expr10FieldValueNtNtBQ_5token5CommaENtB2_12IntoIterator9into_iterBQ_, symObjAddr: 0x7C4, symBinAddr: 0x34324, symSize: 0x18 }
  - { offset: 0x90467, size: 0x8, addend: 0x0, symName: __RNvXNtNtNtCsfvfooZQ3Axs_4core4iter6traits7collectINtNtCs6IAuOt8vWmF_3syn10punctuated5PairsNtNtBQ_4expr4ExprNtNtBQ_5token5CommaENtB2_12IntoIterator9into_iterBQ_, symObjAddr: 0x7DC, symBinAddr: 0x3433C, symSize: 0x18 }
  - { offset: 0x9049E, size: 0x8, addend: 0x0, symName: __RNvXNtNtNtCsfvfooZQ3Axs_4core4iter6traits7collectINtNtCs6IAuOt8vWmF_3syn10punctuated5PairsNtNtBQ_4item5FnArgNtNtBQ_5token5CommaENtB2_12IntoIterator9into_iterBQ_, symObjAddr: 0x7F4, symBinAddr: 0x34354, symSize: 0x18 }
  - { offset: 0x904D5, size: 0x8, addend: 0x0, symName: __RNvXNtNtNtCsfvfooZQ3Axs_4core4iter6traits7collectINtNtCs6IAuOt8vWmF_3syn10punctuated5PairsNtNtBQ_4item7UseTreeNtNtBQ_5token5CommaENtB2_12IntoIterator9into_iterBQ_, symObjAddr: 0x80C, symBinAddr: 0x3436C, symSize: 0x18 }
  - { offset: 0x9050C, size: 0x8, addend: 0x0, symName: __RNvXNtNtNtCsfvfooZQ3Axs_4core4iter6traits7collectINtNtCs6IAuOt8vWmF_3syn10punctuated5PairsNtNtBQ_4path11PathSegmentNtNtBQ_5token7PathSepENtB2_12IntoIterator9into_iterBQ_, symObjAddr: 0x824, symBinAddr: 0x34384, symSize: 0x18 }
  - { offset: 0x90543, size: 0x8, addend: 0x0, symName: __RNvXNtNtNtCsfvfooZQ3Axs_4core4iter6traits7collectINtNtCs6IAuOt8vWmF_3syn10punctuated5PairsNtNtBQ_4path15GenericArgumentNtNtBQ_5token5CommaENtB2_12IntoIterator9into_iterBQ_, symObjAddr: 0x83C, symBinAddr: 0x3439C, symSize: 0x18 }
  - { offset: 0x9057A, size: 0x8, addend: 0x0, symName: __RNvXNtNtNtCsfvfooZQ3Axs_4core4iter6traits7collectINtNtCs6IAuOt8vWmF_3syn10punctuated5PairsNtNtBQ_8generics12GenericParamNtNtBQ_5token5CommaENtB2_12IntoIterator9into_iterBQ_, symObjAddr: 0x854, symBinAddr: 0x343B4, symSize: 0x18 }
  - { offset: 0x905B1, size: 0x8, addend: 0x0, symName: __RNvXNtNtNtCsfvfooZQ3Axs_4core4iter6traits7collectINtNtCs6IAuOt8vWmF_3syn10punctuated5PairsNtNtBQ_8generics13CapturedParamNtNtBQ_5token5CommaENtB2_12IntoIterator9into_iterBQ_, symObjAddr: 0x86C, symBinAddr: 0x343CC, symSize: 0x18 }
  - { offset: 0x905E8, size: 0x8, addend: 0x0, symName: __RNvXNtNtNtCsfvfooZQ3Axs_4core4iter6traits7collectINtNtCs6IAuOt8vWmF_3syn10punctuated5PairsNtNtBQ_8generics14TypeParamBoundNtNtBQ_5token4PlusENtB2_12IntoIterator9into_iterBQ_, symObjAddr: 0x884, symBinAddr: 0x343E4, symSize: 0x18 }
  - { offset: 0x9061F, size: 0x8, addend: 0x0, symName: __RNvXNtNtNtCsfvfooZQ3Axs_4core4iter6traits7collectINtNtCs6IAuOt8vWmF_3syn10punctuated5PairsNtNtBQ_8generics14WherePredicateNtNtBQ_5token5CommaENtB2_12IntoIterator9into_iterBQ_, symObjAddr: 0x89C, symBinAddr: 0x343FC, symSize: 0x18 }
  - { offset: 0x90656, size: 0x8, addend: 0x0, symName: __RNvXNtNtNtCsfvfooZQ3Axs_4core4iter6traits7collectINtNtCs6IAuOt8vWmF_3syn10punctuated5PairsNtNtBQ_8lifetime8LifetimeNtNtBQ_5token4PlusENtB2_12IntoIterator9into_iterBQ_, symObjAddr: 0x8B4, symBinAddr: 0x34414, symSize: 0x18 }
  - { offset: 0x9068D, size: 0x8, addend: 0x0, symName: __RNvXNtNtNtCsfvfooZQ3Axs_4core4iter6traits7collectINtNtCs6IAuOt8vWmF_3syn10punctuated9IntoPairsNtNtBQ_4path11PathSegmentNtNtBQ_5token7PathSepENtB2_12IntoIterator9into_iterBQ_, symObjAddr: 0x8CC, symBinAddr: 0x3442C, symSize: 0x30 }
  - { offset: 0x906D1, size: 0x8, addend: 0x0, symName: __RNvYINtNtCs6IAuOt8vWmF_3syn10punctuated11PrivateIterNtNtB7_4path11PathSegmentNtNtB7_5token7PathSepENtNtNtNtCsfvfooZQ3Axs_4core4iter6traits10exact_size17ExactSizeIterator8is_emptyB7_, symObjAddr: 0x15E0, symBinAddr: 0x3479C, symSize: 0x2C }
  - { offset: 0x90706, size: 0x8, addend: 0x0, symName: __RNvYINtNtCs6IAuOt8vWmF_3syn10punctuated11PrivateIterNtNtB7_8generics14TypeParamBoundNtNtB7_5token4PlusENtNtNtNtCsfvfooZQ3Axs_4core4iter6traits10exact_size17ExactSizeIterator8is_emptyB7_, symObjAddr: 0x1D40, symBinAddr: 0x34B4C, symSize: 0x2C }
  - { offset: 0x9073B, size: 0x8, addend: 0x0, symName: __RNvYINtNtCs6IAuOt8vWmF_3syn10punctuated14PrivateIterMutNtNtB7_4path11PathSegmentNtNtB7_5token7PathSepENtNtNtNtCsfvfooZQ3Axs_4core4iter6traits10exact_size17ExactSizeIterator8is_emptyB7_, symObjAddr: 0x24A0, symBinAddr: 0x34EFC, symSize: 0x2C }
  - { offset: 0x9077C, size: 0x8, addend: 0x0, symName: __RNvYINtNtCs6IAuOt8vWmF_3syn10punctuated11PrivateIterNtNtB7_4path11PathSegmentNtNtB7_5token7PathSepENtNtNtNtCsfvfooZQ3Axs_4core4iter6traits12double_ended19DoubleEndedIterator15advance_back_byB7_, symObjAddr: 0x160C, symBinAddr: 0x347C8, symSize: 0x134 }
  - { offset: 0x908CA, size: 0x8, addend: 0x0, symName: __RNvYINtNtCs6IAuOt8vWmF_3syn10punctuated11PrivateIterNtNtB7_4path11PathSegmentNtNtB7_5token7PathSepENtNtNtNtCsfvfooZQ3Axs_4core4iter6traits12double_ended19DoubleEndedIterator8nth_backB7_, symObjAddr: 0x1740, symBinAddr: 0x348FC, symSize: 0x68 }
  - { offset: 0x90948, size: 0x8, addend: 0x0, symName: __RNvYINtNtCs6IAuOt8vWmF_3syn10punctuated11PrivateIterNtNtB7_8generics14TypeParamBoundNtNtB7_5token4PlusENtNtNtNtCsfvfooZQ3Axs_4core4iter6traits12double_ended19DoubleEndedIterator15advance_back_byB7_, symObjAddr: 0x1D6C, symBinAddr: 0x34B78, symSize: 0x134 }
  - { offset: 0x90A96, size: 0x8, addend: 0x0, symName: __RNvYINtNtCs6IAuOt8vWmF_3syn10punctuated11PrivateIterNtNtB7_8generics14TypeParamBoundNtNtB7_5token4PlusENtNtNtNtCsfvfooZQ3Axs_4core4iter6traits12double_ended19DoubleEndedIterator8nth_backB7_, symObjAddr: 0x1EA0, symBinAddr: 0x34CAC, symSize: 0x68 }
  - { offset: 0x90B14, size: 0x8, addend: 0x0, symName: __RNvYINtNtCs6IAuOt8vWmF_3syn10punctuated14PrivateIterMutNtNtB7_4path11PathSegmentNtNtB7_5token7PathSepENtNtNtNtCsfvfooZQ3Axs_4core4iter6traits12double_ended19DoubleEndedIterator15advance_back_byB7_, symObjAddr: 0x24CC, symBinAddr: 0x34F28, symSize: 0x134 }
  - { offset: 0x90C62, size: 0x8, addend: 0x0, symName: __RNvYINtNtCs6IAuOt8vWmF_3syn10punctuated14PrivateIterMutNtNtB7_4path11PathSegmentNtNtB7_5token7PathSepENtNtNtNtCsfvfooZQ3Axs_4core4iter6traits12double_ended19DoubleEndedIterator8nth_backB7_, symObjAddr: 0x2600, symBinAddr: 0x3505C, symSize: 0x68 }
  - { offset: 0x910E5, size: 0x8, addend: 0x0, symName: __RNvXs7_NtNtCsfvfooZQ3Axs_4core3cmp5implsReNtB7_9PartialEq2eqCs6IAuOt8vWmF_3syn, symObjAddr: 0xC4C, symBinAddr: 0x345CC, symSize: 0x44 }
  - { offset: 0x9113A, size: 0x8, addend: 0x0, symName: __RNvXsX_NtNtCsfvfooZQ3Axs_4core3cmp5implshNtB7_3Ord3cmpCs6IAuOt8vWmF_3syn, symObjAddr: 0xD74, symBinAddr: 0x34690, symSize: 0x3C }
  - { offset: 0x914CC, size: 0x8, addend: 0x0, symName: __RNvNvMNtNtCsfvfooZQ3Axs_4core5alloc6layoutNtB4_6Layout25from_size_align_unchecked18precondition_checkCs6IAuOt8vWmF_3syn, symObjAddr: 0x648, symBinAddr: 0x341EC, symSize: 0x50 }
  - { offset: 0x925FF, size: 0x8, addend: 0x0, symName: __RNvMs5_NtCse1nGBsou5OW_5alloc2rcINtB5_2RcINtNtCsfvfooZQ3Axs_4core4cell4CellNtNtCs6IAuOt8vWmF_3syn5parse10UnexpectedEE9drop_slowB1f_, symObjAddr: 0x500, symBinAddr: 0x340A4, symSize: 0x74 }
  - { offset: 0x926D0, size: 0x8, addend: 0x0, symName: __RNvMs6_NtCse1nGBsou5OW_5alloc2rcINtB5_2RcINtNtCsfvfooZQ3Axs_4core4cell4CellNtNtCs6IAuOt8vWmF_3syn5parse10UnexpectedEE3newB1f_, symObjAddr: 0x574, symBinAddr: 0x34118, symSize: 0xA8 }
  - { offset: 0x92818, size: 0x8, addend: 0x0, symName: __RNvMsd_NtCse1nGBsou5OW_5alloc2rcINtB5_2RcINtNtCsfvfooZQ3Axs_4core4cell4CellNtNtCs6IAuOt8vWmF_3syn5parse10UnexpectedEE6ptr_eqB1f_, symObjAddr: 0x61C, symBinAddr: 0x341C0, symSize: 0x2C }
  - { offset: 0x92880, size: 0x8, addend: 0x0, symName: __RNvXNtCs2cqEZUIJimJ_5quote9to_tokensRNtNtCs6IAuOt8vWmF_3syn8lifetime8LifetimeNtB2_8ToTokens9to_tokensBD_, symObjAddr: 0x698, symBinAddr: 0x3423C, symSize: 0x40 }
  - { offset: 0x9317E, size: 0x8, addend: 0x0, symName: __RNvMNtCs6IAuOt8vWmF_3syn10punctuatedINtB2_10PunctuatedNtNtB4_2ty4TypeNtNtB4_5token5CommaE3newB4_, symObjAddr: 0x3894, symBinAddr: 0x354B8, symSize: 0x54 }
  - { offset: 0x931A4, size: 0x8, addend: 0x0, symName: __RNvMNtCs6IAuOt8vWmF_3syn10punctuatedINtB2_10PunctuatedNtNtB4_2ty9BareFnArgNtNtB4_5token5CommaE3newB4_, symObjAddr: 0x38E8, symBinAddr: 0x3550C, symSize: 0x54 }
  - { offset: 0x931CA, size: 0x8, addend: 0x0, symName: __RNvMNtCs6IAuOt8vWmF_3syn10punctuatedINtB2_10PunctuatedNtNtB4_3pat3PatNtNtB4_5token2OrE3newB4_, symObjAddr: 0x393C, symBinAddr: 0x35560, symSize: 0x54 }
  - { offset: 0x931F0, size: 0x8, addend: 0x0, symName: __RNvMNtCs6IAuOt8vWmF_3syn10punctuatedINtB2_10PunctuatedNtNtB4_3pat3PatNtNtB4_5token5CommaE3newB4_, symObjAddr: 0x3990, symBinAddr: 0x355B4, symSize: 0x54 }
  - { offset: 0x93216, size: 0x8, addend: 0x0, symName: __RNvMNtCs6IAuOt8vWmF_3syn10punctuatedINtB2_10PunctuatedNtNtB4_3pat8FieldPatNtNtB4_5token5CommaE3newB4_, symObjAddr: 0x39E4, symBinAddr: 0x35608, symSize: 0x54 }
  - { offset: 0x9323C, size: 0x8, addend: 0x0, symName: __RNvMNtCs6IAuOt8vWmF_3syn10punctuatedINtB2_10PunctuatedNtNtB4_4data5FieldNtNtB4_5token5CommaE3newB4_, symObjAddr: 0x3A38, symBinAddr: 0x3565C, symSize: 0x54 }
  - { offset: 0x93262, size: 0x8, addend: 0x0, symName: __RNvMNtCs6IAuOt8vWmF_3syn10punctuatedINtB2_10PunctuatedNtNtB4_4data7VariantNtNtB4_5token5CommaE3newB4_, symObjAddr: 0x3AE0, symBinAddr: 0x356B0, symSize: 0x54 }
  - { offset: 0x93288, size: 0x8, addend: 0x0, symName: __RNvMNtCs6IAuOt8vWmF_3syn10punctuatedINtB2_10PunctuatedNtNtB4_4expr10FieldValueNtNtB4_5token5CommaE3newB4_, symObjAddr: 0x3B34, symBinAddr: 0x35704, symSize: 0x54 }
  - { offset: 0x932AE, size: 0x8, addend: 0x0, symName: __RNvMNtCs6IAuOt8vWmF_3syn10punctuatedINtB2_10PunctuatedNtNtB4_4expr4ExprNtNtB4_5token5CommaE3newB4_, symObjAddr: 0x3B88, symBinAddr: 0x35758, symSize: 0x54 }
  - { offset: 0x932D4, size: 0x8, addend: 0x0, symName: __RNvMNtCs6IAuOt8vWmF_3syn10punctuatedINtB2_10PunctuatedNtNtB4_4item5FnArgNtNtB4_5token5CommaE3newB4_, symObjAddr: 0x3BDC, symBinAddr: 0x357AC, symSize: 0x54 }
  - { offset: 0x932FA, size: 0x8, addend: 0x0, symName: __RNvMNtCs6IAuOt8vWmF_3syn10punctuatedINtB2_10PunctuatedNtNtB4_4item7UseTreeNtNtB4_5token5CommaE3newB4_, symObjAddr: 0x3C30, symBinAddr: 0x35800, symSize: 0x54 }
  - { offset: 0x93320, size: 0x8, addend: 0x0, symName: __RNvMNtCs6IAuOt8vWmF_3syn10punctuatedINtB2_10PunctuatedNtNtB4_4path11PathSegmentNtNtB4_5token7PathSepE3newB4_, symObjAddr: 0x3C84, symBinAddr: 0x35854, symSize: 0x54 }
  - { offset: 0x93346, size: 0x8, addend: 0x0, symName: __RNvMNtCs6IAuOt8vWmF_3syn10punctuatedINtB2_10PunctuatedNtNtB4_4path15GenericArgumentNtNtB4_5token5CommaE3newB4_, symObjAddr: 0x3CD8, symBinAddr: 0x358A8, symSize: 0x54 }
  - { offset: 0x9336C, size: 0x8, addend: 0x0, symName: __RNvMNtCs6IAuOt8vWmF_3syn10punctuatedINtB2_10PunctuatedNtNtB4_8generics12GenericParamNtNtB4_5token5CommaE3newB4_, symObjAddr: 0x3D2C, symBinAddr: 0x358FC, symSize: 0x54 }
  - { offset: 0x93392, size: 0x8, addend: 0x0, symName: __RNvMNtCs6IAuOt8vWmF_3syn10punctuatedINtB2_10PunctuatedNtNtB4_8generics13CapturedParamNtNtB4_5token5CommaE3newB4_, symObjAddr: 0x3D80, symBinAddr: 0x35950, symSize: 0x54 }
  - { offset: 0x933B8, size: 0x8, addend: 0x0, symName: __RNvMNtCs6IAuOt8vWmF_3syn10punctuatedINtB2_10PunctuatedNtNtB4_8generics14TypeParamBoundNtNtB4_5token4PlusE3newB4_, symObjAddr: 0x3DD4, symBinAddr: 0x359A4, symSize: 0x54 }
  - { offset: 0x933DE, size: 0x8, addend: 0x0, symName: __RNvMNtCs6IAuOt8vWmF_3syn10punctuatedINtB2_10PunctuatedNtNtB4_8generics14WherePredicateNtNtB4_5token5CommaE3newB4_, symObjAddr: 0x3E28, symBinAddr: 0x359F8, symSize: 0x54 }
  - { offset: 0x93404, size: 0x8, addend: 0x0, symName: __RNvMNtCs6IAuOt8vWmF_3syn10punctuatedINtB2_10PunctuatedNtNtB4_8lifetime8LifetimeNtNtB4_5token4PlusE3newB4_, symObjAddr: 0x3E7C, symBinAddr: 0x35A4C, symSize: 0x54 }
  - { offset: 0x93437, size: 0x8, addend: 0x0, symName: __RNvMNtCs6IAuOt8vWmF_3syn10punctuatedINtB2_10PunctuatedNtNtB4_2ty4TypeNtNtB4_5token5CommaE8is_emptyB4_, symObjAddr: 0x3ED0, symBinAddr: 0x35AA0, symSize: 0x74 }
  - { offset: 0x93478, size: 0x8, addend: 0x0, symName: __RNvMNtCs6IAuOt8vWmF_3syn10punctuatedINtB2_10PunctuatedNtNtB4_2ty9BareFnArgNtNtB4_5token5CommaE8is_emptyB4_, symObjAddr: 0x3F44, symBinAddr: 0x35B14, symSize: 0x74 }
  - { offset: 0x934B9, size: 0x8, addend: 0x0, symName: __RNvMNtCs6IAuOt8vWmF_3syn10punctuatedINtB2_10PunctuatedNtNtB4_3pat3PatNtNtB4_5token5CommaE8is_emptyB4_, symObjAddr: 0x3FB8, symBinAddr: 0x35B88, symSize: 0x74 }
  - { offset: 0x93507, size: 0x8, addend: 0x0, symName: __RNvMNtCs6IAuOt8vWmF_3syn10punctuatedINtB2_10PunctuatedNtNtB4_4expr4ExprNtNtB4_5token5CommaE8is_emptyB4_, symObjAddr: 0x40A0, symBinAddr: 0x35BFC, symSize: 0x74 }
  - { offset: 0x93548, size: 0x8, addend: 0x0, symName: __RNvMNtCs6IAuOt8vWmF_3syn10punctuatedINtB2_10PunctuatedNtNtB4_4item5FnArgNtNtB4_5token5CommaE8is_emptyB4_, symObjAddr: 0x4114, symBinAddr: 0x35C70, symSize: 0x74 }
  - { offset: 0x93589, size: 0x8, addend: 0x0, symName: __RNvMNtCs6IAuOt8vWmF_3syn10punctuatedINtB2_10PunctuatedNtNtB4_4path11PathSegmentNtNtB4_5token7PathSepE8is_emptyB4_, symObjAddr: 0x4188, symBinAddr: 0x35CE4, symSize: 0x74 }
  - { offset: 0x935CA, size: 0x8, addend: 0x0, symName: __RNvMNtCs6IAuOt8vWmF_3syn10punctuatedINtB2_10PunctuatedNtNtB4_4path15GenericArgumentNtNtB4_5token5CommaE8is_emptyB4_, symObjAddr: 0x41FC, symBinAddr: 0x35D58, symSize: 0x74 }
  - { offset: 0x9360B, size: 0x8, addend: 0x0, symName: __RNvMNtCs6IAuOt8vWmF_3syn10punctuatedINtB2_10PunctuatedNtNtB4_8generics12GenericParamNtNtB4_5token5CommaE8is_emptyB4_, symObjAddr: 0x4270, symBinAddr: 0x35DCC, symSize: 0x74 }
  - { offset: 0x9364C, size: 0x8, addend: 0x0, symName: __RNvMNtCs6IAuOt8vWmF_3syn10punctuatedINtB2_10PunctuatedNtNtB4_8generics14TypeParamBoundNtNtB4_5token4PlusE8is_emptyB4_, symObjAddr: 0x42E4, symBinAddr: 0x35E40, symSize: 0x74 }
  - { offset: 0x9368D, size: 0x8, addend: 0x0, symName: __RNvMNtCs6IAuOt8vWmF_3syn10punctuatedINtB2_10PunctuatedNtNtB4_8generics14WherePredicateNtNtB4_5token5CommaE8is_emptyB4_, symObjAddr: 0x4358, symBinAddr: 0x35EB4, symSize: 0x74 }
  - { offset: 0x936CE, size: 0x8, addend: 0x0, symName: __RNvMNtCs6IAuOt8vWmF_3syn10punctuatedINtB2_10PunctuatedNtNtB4_8lifetime8LifetimeNtNtB4_5token4PlusE8is_emptyB4_, symObjAddr: 0x43CC, symBinAddr: 0x35F28, symSize: 0x74 }
  - { offset: 0x93702, size: 0x8, addend: 0x0, symName: __RNvMNtCs6IAuOt8vWmF_3syn10punctuatedINtB2_10PunctuatedNtNtB4_2ty4TypeNtNtB4_5token5CommaE3lenB4_, symObjAddr: 0x4440, symBinAddr: 0x35F9C, symSize: 0xA0 }
  - { offset: 0x93736, size: 0x8, addend: 0x0, symName: __RNvMNtCs6IAuOt8vWmF_3syn10punctuatedINtB2_10PunctuatedNtNtB4_3pat3PatNtNtB4_5token5CommaE3lenB4_, symObjAddr: 0x44E0, symBinAddr: 0x3603C, symSize: 0xA0 }
  - { offset: 0x9376A, size: 0x8, addend: 0x0, symName: __RNvMNtCs6IAuOt8vWmF_3syn10punctuatedINtB2_10PunctuatedNtNtB4_4expr4ExprNtNtB4_5token5CommaE3lenB4_, symObjAddr: 0x46C0, symBinAddr: 0x360DC, symSize: 0xA0 }
  - { offset: 0x9379E, size: 0x8, addend: 0x0, symName: __RNvMNtCs6IAuOt8vWmF_3syn10punctuatedINtB2_10PunctuatedNtNtB4_4path11PathSegmentNtNtB4_5token7PathSepE3lenB4_, symObjAddr: 0x4760, symBinAddr: 0x3617C, symSize: 0xA0 }
  - { offset: 0x937D2, size: 0x8, addend: 0x0, symName: __RNvMNtCs6IAuOt8vWmF_3syn10punctuatedINtB2_10PunctuatedNtNtB4_8generics14TypeParamBoundNtNtB4_5token4PlusE3lenB4_, symObjAddr: 0x4800, symBinAddr: 0x3621C, symSize: 0xA0 }
  - { offset: 0x93806, size: 0x8, addend: 0x0, symName: __RNvMNtCs6IAuOt8vWmF_3syn10punctuatedINtB2_10PunctuatedNtNtB4_4path11PathSegmentNtNtB4_5token7PathSepE4lastB4_, symObjAddr: 0x49A8, symBinAddr: 0x362BC, symSize: 0x84 }
  - { offset: 0x9383A, size: 0x8, addend: 0x0, symName: __RNvMNtCs6IAuOt8vWmF_3syn10punctuatedINtB2_10PunctuatedNtNtB4_8generics14TypeParamBoundNtNtB4_5token4PlusE4lastB4_, symObjAddr: 0x4A2C, symBinAddr: 0x36340, symSize: 0x84 }
  - { offset: 0x9387B, size: 0x8, addend: 0x0, symName: __RNvMNtCs6IAuOt8vWmF_3syn10punctuatedINtB2_10PunctuatedNtNtB4_4path11PathSegmentNtNtB4_5token7PathSepE8last_mutB4_, symObjAddr: 0x4AB0, symBinAddr: 0x363C4, symSize: 0x84 }
  - { offset: 0x93918, size: 0x8, addend: 0x0, symName: __RNvMNtCs6IAuOt8vWmF_3syn10punctuatedINtB2_10PunctuatedNtNtB4_4path11PathSegmentNtNtB4_5token7PathSepE4iterB4_, symObjAddr: 0x4CC4, symBinAddr: 0x36448, symSize: 0xC8 }
  - { offset: 0x939D2, size: 0x8, addend: 0x0, symName: __RNvMNtCs6IAuOt8vWmF_3syn10punctuatedINtB2_10PunctuatedNtNtB4_8generics14TypeParamBoundNtNtB4_5token4PlusE4iterB4_, symObjAddr: 0x4E54, symBinAddr: 0x36510, symSize: 0xC8 }
  - { offset: 0x93AB3, size: 0x8, addend: 0x0, symName: __RNvMNtCs6IAuOt8vWmF_3syn10punctuatedINtB2_10PunctuatedNtNtB4_4path11PathSegmentNtNtB4_5token7PathSepE8iter_mutB4_, symObjAddr: 0x4FE4, symBinAddr: 0x365D8, symSize: 0xC8 }
  - { offset: 0x93B66, size: 0x8, addend: 0x0, symName: __RNvMNtCs6IAuOt8vWmF_3syn10punctuatedINtB2_10PunctuatedNtNtB4_2ty4TypeNtNtB4_5token5CommaE5pairsB4_, symObjAddr: 0x5174, symBinAddr: 0x366A0, symSize: 0x74 }
  - { offset: 0x93BC1, size: 0x8, addend: 0x0, symName: __RNvMNtCs6IAuOt8vWmF_3syn10punctuatedINtB2_10PunctuatedNtNtB4_2ty9BareFnArgNtNtB4_5token5CommaE5pairsB4_, symObjAddr: 0x51E8, symBinAddr: 0x36714, symSize: 0x74 }
  - { offset: 0x93C29, size: 0x8, addend: 0x0, symName: __RNvMNtCs6IAuOt8vWmF_3syn10punctuatedINtB2_10PunctuatedNtNtB4_3pat3PatNtNtB4_5token2OrE5pairsB4_, symObjAddr: 0x525C, symBinAddr: 0x36788, symSize: 0x74 }
  - { offset: 0x93C77, size: 0x8, addend: 0x0, symName: __RNvMNtCs6IAuOt8vWmF_3syn10punctuatedINtB2_10PunctuatedNtNtB4_3pat3PatNtNtB4_5token5CommaE5pairsB4_, symObjAddr: 0x52D0, symBinAddr: 0x367FC, symSize: 0x74 }
  - { offset: 0x93CDF, size: 0x8, addend: 0x0, symName: __RNvMNtCs6IAuOt8vWmF_3syn10punctuatedINtB2_10PunctuatedNtNtB4_3pat8FieldPatNtNtB4_5token5CommaE5pairsB4_, symObjAddr: 0x5344, symBinAddr: 0x36870, symSize: 0x74 }
  - { offset: 0x93D13, size: 0x8, addend: 0x0, symName: __RNvMNtCs6IAuOt8vWmF_3syn10punctuatedINtB2_10PunctuatedNtNtB4_4data5FieldNtNtB4_5token5CommaE5pairsB4_, symObjAddr: 0x53B8, symBinAddr: 0x368E4, symSize: 0x74 }
  - { offset: 0x93D7B, size: 0x8, addend: 0x0, symName: __RNvMNtCs6IAuOt8vWmF_3syn10punctuatedINtB2_10PunctuatedNtNtB4_4data7VariantNtNtB4_5token5CommaE5pairsB4_, symObjAddr: 0x542C, symBinAddr: 0x36958, symSize: 0x74 }
  - { offset: 0x93DE3, size: 0x8, addend: 0x0, symName: __RNvMNtCs6IAuOt8vWmF_3syn10punctuatedINtB2_10PunctuatedNtNtB4_4expr10FieldValueNtNtB4_5token5CommaE5pairsB4_, symObjAddr: 0x54A0, symBinAddr: 0x369CC, symSize: 0x74 }
  - { offset: 0x93E3E, size: 0x8, addend: 0x0, symName: __RNvMNtCs6IAuOt8vWmF_3syn10punctuatedINtB2_10PunctuatedNtNtB4_4expr4ExprNtNtB4_5token5CommaE5pairsB4_, symObjAddr: 0x5514, symBinAddr: 0x36A40, symSize: 0x74 }
  - { offset: 0x93E72, size: 0x8, addend: 0x0, symName: __RNvMNtCs6IAuOt8vWmF_3syn10punctuatedINtB2_10PunctuatedNtNtB4_4item5FnArgNtNtB4_5token5CommaE5pairsB4_, symObjAddr: 0x5588, symBinAddr: 0x36AB4, symSize: 0x74 }
  - { offset: 0x93EDA, size: 0x8, addend: 0x0, symName: __RNvMNtCs6IAuOt8vWmF_3syn10punctuatedINtB2_10PunctuatedNtNtB4_4item7UseTreeNtNtB4_5token5CommaE5pairsB4_, symObjAddr: 0x55FC, symBinAddr: 0x36B28, symSize: 0x74 }
  - { offset: 0x93F0E, size: 0x8, addend: 0x0, symName: __RNvMNtCs6IAuOt8vWmF_3syn10punctuatedINtB2_10PunctuatedNtNtB4_4path11PathSegmentNtNtB4_5token7PathSepE5pairsB4_, symObjAddr: 0x5670, symBinAddr: 0x36B9C, symSize: 0x74 }
  - { offset: 0x93F69, size: 0x8, addend: 0x0, symName: __RNvMNtCs6IAuOt8vWmF_3syn10punctuatedINtB2_10PunctuatedNtNtB4_4path15GenericArgumentNtNtB4_5token5CommaE5pairsB4_, symObjAddr: 0x56E4, symBinAddr: 0x36C10, symSize: 0x74 }
  - { offset: 0x93F9D, size: 0x8, addend: 0x0, symName: __RNvMNtCs6IAuOt8vWmF_3syn10punctuatedINtB2_10PunctuatedNtNtB4_8generics12GenericParamNtNtB4_5token5CommaE5pairsB4_, symObjAddr: 0x5758, symBinAddr: 0x36C84, symSize: 0x74 }
  - { offset: 0x94005, size: 0x8, addend: 0x0, symName: __RNvMNtCs6IAuOt8vWmF_3syn10punctuatedINtB2_10PunctuatedNtNtB4_8generics13CapturedParamNtNtB4_5token5CommaE5pairsB4_, symObjAddr: 0x57CC, symBinAddr: 0x36CF8, symSize: 0x74 }
  - { offset: 0x94039, size: 0x8, addend: 0x0, symName: __RNvMNtCs6IAuOt8vWmF_3syn10punctuatedINtB2_10PunctuatedNtNtB4_8generics14TypeParamBoundNtNtB4_5token4PlusE5pairsB4_, symObjAddr: 0x5840, symBinAddr: 0x36D6C, symSize: 0x74 }
  - { offset: 0x94094, size: 0x8, addend: 0x0, symName: __RNvMNtCs6IAuOt8vWmF_3syn10punctuatedINtB2_10PunctuatedNtNtB4_8generics14WherePredicateNtNtB4_5token5CommaE5pairsB4_, symObjAddr: 0x58B4, symBinAddr: 0x36DE0, symSize: 0x74 }
  - { offset: 0x940C8, size: 0x8, addend: 0x0, symName: __RNvMNtCs6IAuOt8vWmF_3syn10punctuatedINtB2_10PunctuatedNtNtB4_8lifetime8LifetimeNtNtB4_5token4PlusE5pairsB4_, symObjAddr: 0x5928, symBinAddr: 0x36E54, symSize: 0x74 }
  - { offset: 0x940FC, size: 0x8, addend: 0x0, symName: __RNvMNtCs6IAuOt8vWmF_3syn10punctuatedINtB2_10PunctuatedNtNtB4_4path11PathSegmentNtNtB4_5token7PathSepE10into_pairsB4_, symObjAddr: 0x599C, symBinAddr: 0x36EC8, symSize: 0x108 }
  - { offset: 0x9413E, size: 0x8, addend: 0x0, symName: __RNvMNtCs6IAuOt8vWmF_3syn10punctuatedINtB2_10PunctuatedNtNtB4_2ty4TypeNtNtB4_5token5CommaE10push_valueB4_, symObjAddr: 0x5B3C, symBinAddr: 0x37068, symSize: 0x1B4 }
  - { offset: 0x941AC, size: 0x8, addend: 0x0, symName: __RNvMNtCs6IAuOt8vWmF_3syn10punctuatedINtB2_10PunctuatedNtNtB4_2ty9BareFnArgNtNtB4_5token5CommaE10push_valueB4_, symObjAddr: 0x5CF0, symBinAddr: 0x3721C, symSize: 0x1B4 }
  - { offset: 0x9421A, size: 0x8, addend: 0x0, symName: __RNvMNtCs6IAuOt8vWmF_3syn10punctuatedINtB2_10PunctuatedNtNtB4_3pat3PatNtNtB4_5token2OrE10push_valueB4_, symObjAddr: 0x5EA4, symBinAddr: 0x373D0, symSize: 0x1B4 }
  - { offset: 0x94288, size: 0x8, addend: 0x0, symName: __RNvMNtCs6IAuOt8vWmF_3syn10punctuatedINtB2_10PunctuatedNtNtB4_3pat3PatNtNtB4_5token5CommaE10push_valueB4_, symObjAddr: 0x6058, symBinAddr: 0x37584, symSize: 0x1B4 }
  - { offset: 0x942F6, size: 0x8, addend: 0x0, symName: __RNvMNtCs6IAuOt8vWmF_3syn10punctuatedINtB2_10PunctuatedNtNtB4_3pat8FieldPatNtNtB4_5token5CommaE10push_valueB4_, symObjAddr: 0x620C, symBinAddr: 0x37738, symSize: 0x1B4 }
  - { offset: 0x94357, size: 0x8, addend: 0x0, symName: __RNvMNtCs6IAuOt8vWmF_3syn10punctuatedINtB2_10PunctuatedNtNtB4_4data5FieldNtNtB4_5token5CommaE10push_valueB4_, symObjAddr: 0x63C0, symBinAddr: 0x378EC, symSize: 0x1B4 }
  - { offset: 0x943C5, size: 0x8, addend: 0x0, symName: __RNvMNtCs6IAuOt8vWmF_3syn10punctuatedINtB2_10PunctuatedNtNtB4_4data7VariantNtNtB4_5token5CommaE10push_valueB4_, symObjAddr: 0x6574, symBinAddr: 0x37AA0, symSize: 0x1B4 }
  - { offset: 0x94433, size: 0x8, addend: 0x0, symName: __RNvMNtCs6IAuOt8vWmF_3syn10punctuatedINtB2_10PunctuatedNtNtB4_4expr10FieldValueNtNtB4_5token5CommaE10push_valueB4_, symObjAddr: 0x6728, symBinAddr: 0x37C54, symSize: 0x1B4 }
  - { offset: 0x944A1, size: 0x8, addend: 0x0, symName: __RNvMNtCs6IAuOt8vWmF_3syn10punctuatedINtB2_10PunctuatedNtNtB4_4expr4ExprNtNtB4_5token5CommaE10push_valueB4_, symObjAddr: 0x68DC, symBinAddr: 0x37E08, symSize: 0x1B4 }
  - { offset: 0x9450F, size: 0x8, addend: 0x0, symName: __RNvMNtCs6IAuOt8vWmF_3syn10punctuatedINtB2_10PunctuatedNtNtB4_4item5FnArgNtNtB4_5token5CommaE10push_valueB4_, symObjAddr: 0x6A90, symBinAddr: 0x37FBC, symSize: 0x1B4 }
  - { offset: 0x9457D, size: 0x8, addend: 0x0, symName: __RNvMNtCs6IAuOt8vWmF_3syn10punctuatedINtB2_10PunctuatedNtNtB4_4item7UseTreeNtNtB4_5token5CommaE10push_valueB4_, symObjAddr: 0x6C44, symBinAddr: 0x38170, symSize: 0x1B4 }
  - { offset: 0x945DE, size: 0x8, addend: 0x0, symName: __RNvMNtCs6IAuOt8vWmF_3syn10punctuatedINtB2_10PunctuatedNtNtB4_4path11PathSegmentNtNtB4_5token7PathSepE10push_valueB4_, symObjAddr: 0x6DF8, symBinAddr: 0x38324, symSize: 0x1B4 }
  - { offset: 0x9464C, size: 0x8, addend: 0x0, symName: __RNvMNtCs6IAuOt8vWmF_3syn10punctuatedINtB2_10PunctuatedNtNtB4_4path15GenericArgumentNtNtB4_5token5CommaE10push_valueB4_, symObjAddr: 0x6FAC, symBinAddr: 0x384D8, symSize: 0x1B4 }
  - { offset: 0x946AD, size: 0x8, addend: 0x0, symName: __RNvMNtCs6IAuOt8vWmF_3syn10punctuatedINtB2_10PunctuatedNtNtB4_8generics12GenericParamNtNtB4_5token5CommaE10push_valueB4_, symObjAddr: 0x7160, symBinAddr: 0x3868C, symSize: 0x1B4 }
  - { offset: 0x9471B, size: 0x8, addend: 0x0, symName: __RNvMNtCs6IAuOt8vWmF_3syn10punctuatedINtB2_10PunctuatedNtNtB4_8generics13CapturedParamNtNtB4_5token5CommaE10push_valueB4_, symObjAddr: 0x7314, symBinAddr: 0x38840, symSize: 0x1AC }
  - { offset: 0x94789, size: 0x8, addend: 0x0, symName: __RNvMNtCs6IAuOt8vWmF_3syn10punctuatedINtB2_10PunctuatedNtNtB4_8generics14TypeParamBoundNtNtB4_5token4PlusE10push_valueB4_, symObjAddr: 0x74C0, symBinAddr: 0x389EC, symSize: 0x1B4 }
  - { offset: 0x947F7, size: 0x8, addend: 0x0, symName: __RNvMNtCs6IAuOt8vWmF_3syn10punctuatedINtB2_10PunctuatedNtNtB4_8generics14WherePredicateNtNtB4_5token5CommaE10push_valueB4_, symObjAddr: 0x7674, symBinAddr: 0x38BA0, symSize: 0x1B4 }
  - { offset: 0x94865, size: 0x8, addend: 0x0, symName: __RNvMNtCs6IAuOt8vWmF_3syn10punctuatedINtB2_10PunctuatedNtNtB4_8lifetime8LifetimeNtNtB4_5token4PlusE10push_valueB4_, symObjAddr: 0x7828, symBinAddr: 0x38D54, symSize: 0x1A4 }
  - { offset: 0x948F1, size: 0x8, addend: 0x0, symName: __RNvMNtCs6IAuOt8vWmF_3syn10punctuatedINtB2_10PunctuatedNtNtB4_2ty4TypeNtNtB4_5token5CommaE10push_punctB4_, symObjAddr: 0x79CC, symBinAddr: 0x38EF8, symSize: 0x200 }
  - { offset: 0x9499A, size: 0x8, addend: 0x0, symName: __RNvMNtCs6IAuOt8vWmF_3syn10punctuatedINtB2_10PunctuatedNtNtB4_2ty9BareFnArgNtNtB4_5token5CommaE10push_punctB4_, symObjAddr: 0x7BCC, symBinAddr: 0x390F8, symSize: 0x200 }
  - { offset: 0x94A43, size: 0x8, addend: 0x0, symName: __RNvMNtCs6IAuOt8vWmF_3syn10punctuatedINtB2_10PunctuatedNtNtB4_3pat3PatNtNtB4_5token2OrE10push_punctB4_, symObjAddr: 0x7DCC, symBinAddr: 0x392F8, symSize: 0x200 }
  - { offset: 0x94AC1, size: 0x8, addend: 0x0, symName: __RNvMNtCs6IAuOt8vWmF_3syn10punctuatedINtB2_10PunctuatedNtNtB4_3pat3PatNtNtB4_5token5CommaE10push_punctB4_, symObjAddr: 0x7FCC, symBinAddr: 0x394F8, symSize: 0x200 }
  - { offset: 0x94B6A, size: 0x8, addend: 0x0, symName: __RNvMNtCs6IAuOt8vWmF_3syn10punctuatedINtB2_10PunctuatedNtNtB4_3pat8FieldPatNtNtB4_5token5CommaE10push_punctB4_, symObjAddr: 0x81CC, symBinAddr: 0x396F8, symSize: 0x200 }
  - { offset: 0x94C13, size: 0x8, addend: 0x0, symName: __RNvMNtCs6IAuOt8vWmF_3syn10punctuatedINtB2_10PunctuatedNtNtB4_4data5FieldNtNtB4_5token5CommaE10push_punctB4_, symObjAddr: 0x83CC, symBinAddr: 0x398F8, symSize: 0x200 }
  - { offset: 0x94CBC, size: 0x8, addend: 0x0, symName: __RNvMNtCs6IAuOt8vWmF_3syn10punctuatedINtB2_10PunctuatedNtNtB4_4data7VariantNtNtB4_5token5CommaE10push_punctB4_, symObjAddr: 0x85CC, symBinAddr: 0x39AF8, symSize: 0x200 }
  - { offset: 0x94D65, size: 0x8, addend: 0x0, symName: __RNvMNtCs6IAuOt8vWmF_3syn10punctuatedINtB2_10PunctuatedNtNtB4_4expr10FieldValueNtNtB4_5token5CommaE10push_punctB4_, symObjAddr: 0x87CC, symBinAddr: 0x39CF8, symSize: 0x200 }
  - { offset: 0x94E0E, size: 0x8, addend: 0x0, symName: __RNvMNtCs6IAuOt8vWmF_3syn10punctuatedINtB2_10PunctuatedNtNtB4_4expr4ExprNtNtB4_5token5CommaE10push_punctB4_, symObjAddr: 0x89CC, symBinAddr: 0x39EF8, symSize: 0x200 }
  - { offset: 0x94EB7, size: 0x8, addend: 0x0, symName: __RNvMNtCs6IAuOt8vWmF_3syn10punctuatedINtB2_10PunctuatedNtNtB4_4item5FnArgNtNtB4_5token5CommaE10push_punctB4_, symObjAddr: 0x8BCC, symBinAddr: 0x3A0F8, symSize: 0x200 }
  - { offset: 0x94F60, size: 0x8, addend: 0x0, symName: __RNvMNtCs6IAuOt8vWmF_3syn10punctuatedINtB2_10PunctuatedNtNtB4_4item7UseTreeNtNtB4_5token5CommaE10push_punctB4_, symObjAddr: 0x8DCC, symBinAddr: 0x3A2F8, symSize: 0x200 }
  - { offset: 0x95009, size: 0x8, addend: 0x0, symName: __RNvMNtCs6IAuOt8vWmF_3syn10punctuatedINtB2_10PunctuatedNtNtB4_4path11PathSegmentNtNtB4_5token7PathSepE10push_punctB4_, symObjAddr: 0x8FCC, symBinAddr: 0x3A4F8, symSize: 0x200 }
  - { offset: 0x950B2, size: 0x8, addend: 0x0, symName: __RNvMNtCs6IAuOt8vWmF_3syn10punctuatedINtB2_10PunctuatedNtNtB4_4path15GenericArgumentNtNtB4_5token5CommaE10push_punctB4_, symObjAddr: 0x91CC, symBinAddr: 0x3A6F8, symSize: 0x200 }
  - { offset: 0x9515B, size: 0x8, addend: 0x0, symName: __RNvMNtCs6IAuOt8vWmF_3syn10punctuatedINtB2_10PunctuatedNtNtB4_8generics12GenericParamNtNtB4_5token5CommaE10push_punctB4_, symObjAddr: 0x93CC, symBinAddr: 0x3A8F8, symSize: 0x204 }
  - { offset: 0x95204, size: 0x8, addend: 0x0, symName: __RNvMNtCs6IAuOt8vWmF_3syn10punctuatedINtB2_10PunctuatedNtNtB4_8generics13CapturedParamNtNtB4_5token5CommaE10push_punctB4_, symObjAddr: 0x95D0, symBinAddr: 0x3AAFC, symSize: 0x200 }
  - { offset: 0x952AD, size: 0x8, addend: 0x0, symName: __RNvMNtCs6IAuOt8vWmF_3syn10punctuatedINtB2_10PunctuatedNtNtB4_8generics14TypeParamBoundNtNtB4_5token4PlusE10push_punctB4_, symObjAddr: 0x97D0, symBinAddr: 0x3ACFC, symSize: 0x200 }
  - { offset: 0x95356, size: 0x8, addend: 0x0, symName: __RNvMNtCs6IAuOt8vWmF_3syn10punctuatedINtB2_10PunctuatedNtNtB4_8generics14WherePredicateNtNtB4_5token5CommaE10push_punctB4_, symObjAddr: 0x99D0, symBinAddr: 0x3AEFC, symSize: 0x200 }
  - { offset: 0x953FF, size: 0x8, addend: 0x0, symName: __RNvMNtCs6IAuOt8vWmF_3syn10punctuatedINtB2_10PunctuatedNtNtB4_8lifetime8LifetimeNtNtB4_5token4PlusE10push_punctB4_, symObjAddr: 0x9BD0, symBinAddr: 0x3B0FC, symSize: 0x1F8 }
  - { offset: 0x9547C, size: 0x8, addend: 0x0, symName: __RNvMNtCs6IAuOt8vWmF_3syn10punctuatedINtB2_10PunctuatedNtNtB4_4path11PathSegmentNtNtB4_5token7PathSepE3popB4_, symObjAddr: 0x9DC8, symBinAddr: 0x3B2F4, symSize: 0x90 }
  - { offset: 0x954B0, size: 0x8, addend: 0x0, symName: __RNvMNtCs6IAuOt8vWmF_3syn10punctuatedINtB2_10PunctuatedNtNtB4_2ty4TypeNtNtB4_5token5CommaE14trailing_punctB4_, symObjAddr: 0x9F90, symBinAddr: 0x3B4BC, symSize: 0x80 }
  - { offset: 0x954E4, size: 0x8, addend: 0x0, symName: __RNvMNtCs6IAuOt8vWmF_3syn10punctuatedINtB2_10PunctuatedNtNtB4_3pat3PatNtNtB4_5token5CommaE14trailing_punctB4_, symObjAddr: 0xA010, symBinAddr: 0x3B53C, symSize: 0x80 }
  - { offset: 0x95518, size: 0x8, addend: 0x0, symName: __RNvMNtCs6IAuOt8vWmF_3syn10punctuatedINtB2_10PunctuatedNtNtB4_4expr4ExprNtNtB4_5token5CommaE14trailing_punctB4_, symObjAddr: 0xA090, symBinAddr: 0x3B5BC, symSize: 0x80 }
  - { offset: 0x9554C, size: 0x8, addend: 0x0, symName: __RNvMNtCs6IAuOt8vWmF_3syn10punctuatedINtB2_10PunctuatedNtNtB4_4path11PathSegmentNtNtB4_5token7PathSepE14trailing_punctB4_, symObjAddr: 0xA110, symBinAddr: 0x3B63C, symSize: 0x80 }
  - { offset: 0x95580, size: 0x8, addend: 0x0, symName: __RNvMNtCs6IAuOt8vWmF_3syn10punctuatedINtB2_10PunctuatedNtNtB4_8generics14TypeParamBoundNtNtB4_5token4PlusE14trailing_punctB4_, symObjAddr: 0xA190, symBinAddr: 0x3B6BC, symSize: 0x80 }
  - { offset: 0x955B4, size: 0x8, addend: 0x0, symName: __RNvMNtCs6IAuOt8vWmF_3syn10punctuatedINtB2_10PunctuatedNtNtB4_2ty4TypeNtNtB4_5token5CommaE17empty_or_trailingB4_, symObjAddr: 0xA210, symBinAddr: 0x3B73C, symSize: 0x34 }
  - { offset: 0x955E8, size: 0x8, addend: 0x0, symName: __RNvMNtCs6IAuOt8vWmF_3syn10punctuatedINtB2_10PunctuatedNtNtB4_2ty9BareFnArgNtNtB4_5token5CommaE17empty_or_trailingB4_, symObjAddr: 0xA244, symBinAddr: 0x3B770, symSize: 0x34 }
  - { offset: 0x9561C, size: 0x8, addend: 0x0, symName: __RNvMNtCs6IAuOt8vWmF_3syn10punctuatedINtB2_10PunctuatedNtNtB4_3pat3PatNtNtB4_5token2OrE17empty_or_trailingB4_, symObjAddr: 0xA278, symBinAddr: 0x3B7A4, symSize: 0x34 }
  - { offset: 0x95650, size: 0x8, addend: 0x0, symName: __RNvMNtCs6IAuOt8vWmF_3syn10punctuatedINtB2_10PunctuatedNtNtB4_3pat3PatNtNtB4_5token5CommaE17empty_or_trailingB4_, symObjAddr: 0xA2AC, symBinAddr: 0x3B7D8, symSize: 0x34 }
  - { offset: 0x95684, size: 0x8, addend: 0x0, symName: __RNvMNtCs6IAuOt8vWmF_3syn10punctuatedINtB2_10PunctuatedNtNtB4_3pat8FieldPatNtNtB4_5token5CommaE17empty_or_trailingB4_, symObjAddr: 0xA2E0, symBinAddr: 0x3B80C, symSize: 0x34 }
  - { offset: 0x956B8, size: 0x8, addend: 0x0, symName: __RNvMNtCs6IAuOt8vWmF_3syn10punctuatedINtB2_10PunctuatedNtNtB4_4data5FieldNtNtB4_5token5CommaE17empty_or_trailingB4_, symObjAddr: 0xA314, symBinAddr: 0x3B840, symSize: 0x34 }
  - { offset: 0x956EC, size: 0x8, addend: 0x0, symName: __RNvMNtCs6IAuOt8vWmF_3syn10punctuatedINtB2_10PunctuatedNtNtB4_4data7VariantNtNtB4_5token5CommaE17empty_or_trailingB4_, symObjAddr: 0xA348, symBinAddr: 0x3B874, symSize: 0x34 }
  - { offset: 0x95720, size: 0x8, addend: 0x0, symName: __RNvMNtCs6IAuOt8vWmF_3syn10punctuatedINtB2_10PunctuatedNtNtB4_4expr10FieldValueNtNtB4_5token5CommaE17empty_or_trailingB4_, symObjAddr: 0xA37C, symBinAddr: 0x3B8A8, symSize: 0x34 }
  - { offset: 0x95754, size: 0x8, addend: 0x0, symName: __RNvMNtCs6IAuOt8vWmF_3syn10punctuatedINtB2_10PunctuatedNtNtB4_4expr4ExprNtNtB4_5token5CommaE17empty_or_trailingB4_, symObjAddr: 0xA3B0, symBinAddr: 0x3B8DC, symSize: 0x34 }
  - { offset: 0x95788, size: 0x8, addend: 0x0, symName: __RNvMNtCs6IAuOt8vWmF_3syn10punctuatedINtB2_10PunctuatedNtNtB4_4item5FnArgNtNtB4_5token5CommaE17empty_or_trailingB4_, symObjAddr: 0xA3E4, symBinAddr: 0x3B910, symSize: 0x34 }
  - { offset: 0x957BC, size: 0x8, addend: 0x0, symName: __RNvMNtCs6IAuOt8vWmF_3syn10punctuatedINtB2_10PunctuatedNtNtB4_4item7UseTreeNtNtB4_5token5CommaE17empty_or_trailingB4_, symObjAddr: 0xA418, symBinAddr: 0x3B944, symSize: 0x34 }
  - { offset: 0x957F0, size: 0x8, addend: 0x0, symName: __RNvMNtCs6IAuOt8vWmF_3syn10punctuatedINtB2_10PunctuatedNtNtB4_4path11PathSegmentNtNtB4_5token7PathSepE17empty_or_trailingB4_, symObjAddr: 0xA44C, symBinAddr: 0x3B978, symSize: 0x34 }
  - { offset: 0x95824, size: 0x8, addend: 0x0, symName: __RNvMNtCs6IAuOt8vWmF_3syn10punctuatedINtB2_10PunctuatedNtNtB4_4path15GenericArgumentNtNtB4_5token5CommaE17empty_or_trailingB4_, symObjAddr: 0xA480, symBinAddr: 0x3B9AC, symSize: 0x34 }
  - { offset: 0x95858, size: 0x8, addend: 0x0, symName: __RNvMNtCs6IAuOt8vWmF_3syn10punctuatedINtB2_10PunctuatedNtNtB4_8generics12GenericParamNtNtB4_5token5CommaE17empty_or_trailingB4_, symObjAddr: 0xA4B4, symBinAddr: 0x3B9E0, symSize: 0x34 }
  - { offset: 0x9588C, size: 0x8, addend: 0x0, symName: __RNvMNtCs6IAuOt8vWmF_3syn10punctuatedINtB2_10PunctuatedNtNtB4_8generics13CapturedParamNtNtB4_5token5CommaE17empty_or_trailingB4_, symObjAddr: 0xA4E8, symBinAddr: 0x3BA14, symSize: 0x34 }
  - { offset: 0x958C0, size: 0x8, addend: 0x0, symName: __RNvMNtCs6IAuOt8vWmF_3syn10punctuatedINtB2_10PunctuatedNtNtB4_8generics14TypeParamBoundNtNtB4_5token4PlusE17empty_or_trailingB4_, symObjAddr: 0xA51C, symBinAddr: 0x3BA48, symSize: 0x34 }
  - { offset: 0x958F4, size: 0x8, addend: 0x0, symName: __RNvMNtCs6IAuOt8vWmF_3syn10punctuatedINtB2_10PunctuatedNtNtB4_8generics14WherePredicateNtNtB4_5token5CommaE17empty_or_trailingB4_, symObjAddr: 0xA550, symBinAddr: 0x3BA7C, symSize: 0x34 }
  - { offset: 0x95928, size: 0x8, addend: 0x0, symName: __RNvMNtCs6IAuOt8vWmF_3syn10punctuatedINtB2_10PunctuatedNtNtB4_8lifetime8LifetimeNtNtB4_5token4PlusE17empty_or_trailingB4_, symObjAddr: 0xA584, symBinAddr: 0x3BAB0, symSize: 0x34 }
  - { offset: 0x9595C, size: 0x8, addend: 0x0, symName: __RNvMNtCs6IAuOt8vWmF_3syn10punctuatedINtB2_10PunctuatedNtNtB4_4expr10FieldValueNtNtB4_5token5CommaE4pushB4_, symObjAddr: 0xA5B8, symBinAddr: 0x3BAE4, symSize: 0x124 }
  - { offset: 0x959B7, size: 0x8, addend: 0x0, symName: __RNvMNtCs6IAuOt8vWmF_3syn10punctuatedINtB2_10PunctuatedNtNtB4_2ty4TypeNtNtB4_5token5CommaE21parse_terminated_withB4_, symObjAddr: 0xA6DC, symBinAddr: 0x3BC08, symSize: 0x35C }
  - { offset: 0x95AD4, size: 0x8, addend: 0x0, symName: __RNvMNtCs6IAuOt8vWmF_3syn10punctuatedINtB2_10PunctuatedNtNtB4_4data5FieldNtNtB4_5token5CommaE21parse_terminated_withB4_, symObjAddr: 0xAA38, symBinAddr: 0x3BF64, symSize: 0x370 }
  - { offset: 0x95BF1, size: 0x8, addend: 0x0, symName: __RNvMNtCs6IAuOt8vWmF_3syn10punctuatedINtB2_10PunctuatedNtNtB4_4data7VariantNtNtB4_5token5CommaE21parse_terminated_withB4_, symObjAddr: 0xADA8, symBinAddr: 0x3C2D4, symSize: 0x35C }
  - { offset: 0x95D0E, size: 0x8, addend: 0x0, symName: __RNvMNtCs6IAuOt8vWmF_3syn10punctuatedINtB2_10PunctuatedNtNtB4_4expr4ExprNtNtB4_5token5CommaE21parse_terminated_withB4_, symObjAddr: 0xB104, symBinAddr: 0x3C630, symSize: 0x35C }
  - { offset: 0x95E3A, size: 0x8, addend: 0x0, symName: __RNvMsJ_NtCs6IAuOt8vWmF_3syn10punctuatedINtB5_4PairNtNtB7_4path11PathSegmentNtNtB7_5token7PathSepE10into_valueB7_, symObjAddr: 0x11644, symBinAddr: 0x3ECC0, symSize: 0xD4 }
  - { offset: 0x95EB5, size: 0x8, addend: 0x0, symName: __RNvMsJ_NtCs6IAuOt8vWmF_3syn10punctuatedINtB5_4PairRNtNtB7_4path11PathSegmentRNtNtB7_5token7PathSepE5valueB7_, symObjAddr: 0x11718, symBinAddr: 0x3ED94, symSize: 0x74 }
  - { offset: 0x95F2F, size: 0x8, addend: 0x0, symName: __RNvMsJ_NtCs6IAuOt8vWmF_3syn10punctuatedINtB5_4PairRNtNtB7_4path15GenericArgumentRNtNtB7_5token5CommaE5valueB7_, symObjAddr: 0x1178C, symBinAddr: 0x3EE08, symSize: 0x74 }
  - { offset: 0x95F9C, size: 0x8, addend: 0x0, symName: __RNvMsJ_NtCs6IAuOt8vWmF_3syn10punctuatedINtB5_4PairRNtNtB7_8generics12GenericParamRNtNtB7_5token5CommaE5valueB7_, symObjAddr: 0x11800, symBinAddr: 0x3EE7C, symSize: 0x74 }
  - { offset: 0x96009, size: 0x8, addend: 0x0, symName: __RNvMsJ_NtCs6IAuOt8vWmF_3syn10punctuatedINtB5_4PairRNtNtB7_8generics13CapturedParamRNtNtB7_5token5CommaE5valueB7_, symObjAddr: 0x11874, symBinAddr: 0x3EEF0, symSize: 0x74 }
  - { offset: 0x96069, size: 0x8, addend: 0x0, symName: __RNvMsJ_NtCs6IAuOt8vWmF_3syn10punctuatedINtB5_4PairRNtNtB7_4path11PathSegmentRNtNtB7_5token7PathSepE5punctB7_, symObjAddr: 0x118E8, symBinAddr: 0x3EF64, symSize: 0x78 }
  - { offset: 0x960C9, size: 0x8, addend: 0x0, symName: __RNvMsJ_NtCs6IAuOt8vWmF_3syn10punctuatedINtB5_4PairRNtNtB7_4path15GenericArgumentRNtNtB7_5token5CommaE5punctB7_, symObjAddr: 0x11960, symBinAddr: 0x3EFDC, symSize: 0x78 }
  - { offset: 0x9611C, size: 0x8, addend: 0x0, symName: __RNvMsJ_NtCs6IAuOt8vWmF_3syn10punctuatedINtB5_4PairRNtNtB7_8generics12GenericParamRNtNtB7_5token5CommaE5punctB7_, symObjAddr: 0x119D8, symBinAddr: 0x3F054, symSize: 0x78 }
  - { offset: 0x9616F, size: 0x8, addend: 0x0, symName: __RNvMsJ_NtCs6IAuOt8vWmF_3syn10punctuatedINtB5_4PairRNtNtB7_8generics13CapturedParamRNtNtB7_5token5CommaE5punctB7_, symObjAddr: 0x11A50, symBinAddr: 0x3F0CC, symSize: 0x78 }
  - { offset: 0x965D4, size: 0x8, addend: 0x0, symName: __RINvMNtCsfvfooZQ3Axs_4core6optionINtB3_6OptionINtNtCs6IAuOt8vWmF_3syn10punctuated4PairNtNtBN_4path11PathSegmentNtNtBN_5token7PathSepEE7or_elseNCNvXsj_BL_INtBL_9IntoPairsB1m_B1L_ENtNtNtNtB5_4iter6traits8iterator8Iterator4nexts_0EBN_, symObjAddr: 0x0, symBinAddr: 0x40534, symSize: 0xD8 }
  - { offset: 0x9D5AB, size: 0x8, addend: 0x0, symName: __RNcNtINtNtCsfvfooZQ3Axs_4core6option6OptionNtCs3cP53eQoTwO_11proc_macro25IdentE4Some0Cs6IAuOt8vWmF_3syn, symObjAddr: 0x44F4, symBinAddr: 0x43BBC, symSize: 0x18 }
  - { offset: 0x9D5DE, size: 0x8, addend: 0x0, symName: __RNcNtINtNtCsfvfooZQ3Axs_4core6option6OptionNtNtCs6IAuOt8vWmF_3syn2ty3AbiE4Some0BJ_, symObjAddr: 0x450C, symBinAddr: 0x43BD4, symSize: 0x2C }
  - { offset: 0x9D611, size: 0x8, addend: 0x0, symName: __RNcNtINtNtCsfvfooZQ3Axs_4core6option6OptionNtNtCs6IAuOt8vWmF_3syn4expr5LabelE4Some0BJ_, symObjAddr: 0x4538, symBinAddr: 0x43C00, symSize: 0x30 }
  - { offset: 0x9D645, size: 0x8, addend: 0x0, symName: __RNcNtINtNtCsfvfooZQ3Axs_4core6option6OptionNtNtCs6IAuOt8vWmF_3syn8generics11WhereClauseE4Some0BJ_, symObjAddr: 0x4568, symBinAddr: 0x43C30, symSize: 0x30 }
  - { offset: 0x9D679, size: 0x8, addend: 0x0, symName: __RNcNtINtNtCsfvfooZQ3Axs_4core6option6OptionNtNtCs6IAuOt8vWmF_3syn8generics14BoundLifetimesE4Some0BJ_, symObjAddr: 0x4598, symBinAddr: 0x43C60, symSize: 0x30 }
  - { offset: 0x9DE0D, size: 0x8, addend: 0x0, symName: __RNvXs3_NtCsfvfooZQ3Axs_4core6optionINtB5_6OptionINtNtCse1nGBsou5OW_5alloc2rc2RcINtNtB7_4cell4CellNtNtCs6IAuOt8vWmF_3syn5parse10UnexpectedEEENtNtB7_5clone5Clone5cloneB1B_, symObjAddr: 0x6F90, symBinAddr: 0x4610C, symSize: 0x5C }
  - { offset: 0x9DE62, size: 0x8, addend: 0x0, symName: __RNvXs3_NtCsfvfooZQ3Axs_4core6optionINtB5_6OptionNtNtCs6IAuOt8vWmF_3syn8lifetime8LifetimeENtNtB7_5clone5Clone5cloneBO_, symObjAddr: 0x86DC, symBinAddr: 0x46168, symSize: 0x78 }
  - { offset: 0x9DF29, size: 0x8, addend: 0x0, symName: __RNvXs4_NtCsfvfooZQ3Axs_4core6optionINtB5_6OptionINtNtCse1nGBsou5OW_5alloc2rc2RcINtNtB7_4cell4CellNtNtCs6IAuOt8vWmF_3syn5parse10UnexpectedEEENtNtB7_7default7Default7defaultB1B_, symObjAddr: 0x8CDC, symBinAddr: 0x461E0, symSize: 0x14 }
  - { offset: 0x9DF57, size: 0x8, addend: 0x0, symName: __RNvXs5_NtCsfvfooZQ3Axs_4core6optionINtB5_6OptionNtNtCs6IAuOt8vWmF_3syn4path11PathSegmentENtNtNtNtB7_4iter6traits7collect12IntoIterator9into_iterBO_, symObjAddr: 0x8D40, symBinAddr: 0x461F4, symSize: 0x48 }
  - { offset: 0x9DF8F, size: 0x8, addend: 0x0, symName: __RNvXs5_NtCsfvfooZQ3Axs_4core6optionINtB5_6OptionNtNtCs6IAuOt8vWmF_3syn8generics14TypeParamBoundENtNtNtNtB7_4iter6traits7collect12IntoIterator9into_iterBO_, symObjAddr: 0x8D88, symBinAddr: 0x4623C, symSize: 0x48 }
  - { offset: 0x9DFC7, size: 0x8, addend: 0x0, symName: __RNvXs5_NtCsfvfooZQ3Axs_4core6optionINtB5_6OptionQNtNtCs6IAuOt8vWmF_3syn4path11PathSegmentENtNtNtNtB7_4iter6traits7collect12IntoIterator9into_iterBP_, symObjAddr: 0x8DE4, symBinAddr: 0x46284, symSize: 0x14 }
  - { offset: 0x9DFFE, size: 0x8, addend: 0x0, symName: __RNvXs5_NtCsfvfooZQ3Axs_4core6optionINtB5_6OptionRNtNtCs6IAuOt8vWmF_3syn2ty4TypeENtNtNtNtB7_4iter6traits7collect12IntoIterator9into_iterBP_, symObjAddr: 0x8E0C, symBinAddr: 0x46298, symSize: 0x14 }
  - { offset: 0x9E035, size: 0x8, addend: 0x0, symName: __RNvXs5_NtCsfvfooZQ3Axs_4core6optionINtB5_6OptionRNtNtCs6IAuOt8vWmF_3syn2ty9BareFnArgENtNtNtNtB7_4iter6traits7collect12IntoIterator9into_iterBP_, symObjAddr: 0x8E20, symBinAddr: 0x462AC, symSize: 0x14 }
  - { offset: 0x9E06C, size: 0x8, addend: 0x0, symName: __RNvXs5_NtCsfvfooZQ3Axs_4core6optionINtB5_6OptionRNtNtCs6IAuOt8vWmF_3syn3pat3PatENtNtNtNtB7_4iter6traits7collect12IntoIterator9into_iterBP_, symObjAddr: 0x8E34, symBinAddr: 0x462C0, symSize: 0x14 }
  - { offset: 0x9E0A3, size: 0x8, addend: 0x0, symName: __RNvXs5_NtCsfvfooZQ3Axs_4core6optionINtB5_6OptionRNtNtCs6IAuOt8vWmF_3syn3pat8FieldPatENtNtNtNtB7_4iter6traits7collect12IntoIterator9into_iterBP_, symObjAddr: 0x8E48, symBinAddr: 0x462D4, symSize: 0x14 }
  - { offset: 0x9E0DA, size: 0x8, addend: 0x0, symName: __RNvXs5_NtCsfvfooZQ3Axs_4core6optionINtB5_6OptionRNtNtCs6IAuOt8vWmF_3syn4data5FieldENtNtNtNtB7_4iter6traits7collect12IntoIterator9into_iterBP_, symObjAddr: 0x8E5C, symBinAddr: 0x462E8, symSize: 0x14 }
  - { offset: 0x9E111, size: 0x8, addend: 0x0, symName: __RNvXs5_NtCsfvfooZQ3Axs_4core6optionINtB5_6OptionRNtNtCs6IAuOt8vWmF_3syn4data7VariantENtNtNtNtB7_4iter6traits7collect12IntoIterator9into_iterBP_, symObjAddr: 0x8E70, symBinAddr: 0x462FC, symSize: 0x14 }
  - { offset: 0x9E148, size: 0x8, addend: 0x0, symName: __RNvXs5_NtCsfvfooZQ3Axs_4core6optionINtB5_6OptionRNtNtCs6IAuOt8vWmF_3syn4expr10FieldValueENtNtNtNtB7_4iter6traits7collect12IntoIterator9into_iterBP_, symObjAddr: 0x8E84, symBinAddr: 0x46310, symSize: 0x14 }
  - { offset: 0x9E17F, size: 0x8, addend: 0x0, symName: __RNvXs5_NtCsfvfooZQ3Axs_4core6optionINtB5_6OptionRNtNtCs6IAuOt8vWmF_3syn4expr4ExprENtNtNtNtB7_4iter6traits7collect12IntoIterator9into_iterBP_, symObjAddr: 0x8E98, symBinAddr: 0x46324, symSize: 0x14 }
  - { offset: 0x9E1B6, size: 0x8, addend: 0x0, symName: __RNvXs5_NtCsfvfooZQ3Axs_4core6optionINtB5_6OptionRNtNtCs6IAuOt8vWmF_3syn4item5FnArgENtNtNtNtB7_4iter6traits7collect12IntoIterator9into_iterBP_, symObjAddr: 0x8EAC, symBinAddr: 0x46338, symSize: 0x14 }
  - { offset: 0x9E1ED, size: 0x8, addend: 0x0, symName: __RNvXs5_NtCsfvfooZQ3Axs_4core6optionINtB5_6OptionRNtNtCs6IAuOt8vWmF_3syn4item7UseTreeENtNtNtNtB7_4iter6traits7collect12IntoIterator9into_iterBP_, symObjAddr: 0x8EC0, symBinAddr: 0x4634C, symSize: 0x14 }
  - { offset: 0x9E224, size: 0x8, addend: 0x0, symName: __RNvXs5_NtCsfvfooZQ3Axs_4core6optionINtB5_6OptionRNtNtCs6IAuOt8vWmF_3syn4path11PathSegmentENtNtNtNtB7_4iter6traits7collect12IntoIterator9into_iterBP_, symObjAddr: 0x8ED4, symBinAddr: 0x46360, symSize: 0x14 }
  - { offset: 0x9E25B, size: 0x8, addend: 0x0, symName: __RNvXs5_NtCsfvfooZQ3Axs_4core6optionINtB5_6OptionRNtNtCs6IAuOt8vWmF_3syn4path15GenericArgumentENtNtNtNtB7_4iter6traits7collect12IntoIterator9into_iterBP_, symObjAddr: 0x8EE8, symBinAddr: 0x46374, symSize: 0x14 }
  - { offset: 0x9E292, size: 0x8, addend: 0x0, symName: __RNvXs5_NtCsfvfooZQ3Axs_4core6optionINtB5_6OptionRNtNtCs6IAuOt8vWmF_3syn8generics12GenericParamENtNtNtNtB7_4iter6traits7collect12IntoIterator9into_iterBP_, symObjAddr: 0x8EFC, symBinAddr: 0x46388, symSize: 0x14 }
  - { offset: 0x9E2C9, size: 0x8, addend: 0x0, symName: __RNvXs5_NtCsfvfooZQ3Axs_4core6optionINtB5_6OptionRNtNtCs6IAuOt8vWmF_3syn8generics13CapturedParamENtNtNtNtB7_4iter6traits7collect12IntoIterator9into_iterBP_, symObjAddr: 0x8F10, symBinAddr: 0x4639C, symSize: 0x14 }
  - { offset: 0x9E300, size: 0x8, addend: 0x0, symName: __RNvXs5_NtCsfvfooZQ3Axs_4core6optionINtB5_6OptionRNtNtCs6IAuOt8vWmF_3syn8generics14TypeParamBoundENtNtNtNtB7_4iter6traits7collect12IntoIterator9into_iterBP_, symObjAddr: 0x8F24, symBinAddr: 0x463B0, symSize: 0x14 }
  - { offset: 0x9E337, size: 0x8, addend: 0x0, symName: __RNvXs5_NtCsfvfooZQ3Axs_4core6optionINtB5_6OptionRNtNtCs6IAuOt8vWmF_3syn8generics14WherePredicateENtNtNtNtB7_4iter6traits7collect12IntoIterator9into_iterBP_, symObjAddr: 0x8F38, symBinAddr: 0x463C4, symSize: 0x14 }
  - { offset: 0x9E36E, size: 0x8, addend: 0x0, symName: __RNvXs5_NtCsfvfooZQ3Axs_4core6optionINtB5_6OptionRNtNtCs6IAuOt8vWmF_3syn8lifetime8LifetimeENtNtNtNtB7_4iter6traits7collect12IntoIterator9into_iterBP_, symObjAddr: 0x8F4C, symBinAddr: 0x463D8, symSize: 0x14 }
  - { offset: 0x9E3AB, size: 0x8, addend: 0x0, symName: __RNvXsB_NtCsfvfooZQ3Axs_4core6optionINtB5_6OptionRhENtNtNtB7_3ops9try_trait3Try6branchCs6IAuOt8vWmF_3syn, symObjAddr: 0x918C, symBinAddr: 0x463EC, symSize: 0x40 }
  - { offset: 0x9E400, size: 0x8, addend: 0x0, symName: __RNvXsB_NtCsfvfooZQ3Axs_4core6optionINtB5_6OptionTINtNtCse1nGBsou5OW_5alloc5boxed3BoxeEBL_EENtNtNtB7_3ops9try_trait3Try6branchCs6IAuOt8vWmF_3syn, symObjAddr: 0x91CC, symBinAddr: 0x4642C, symSize: 0x60 }
  - { offset: 0x9E456, size: 0x8, addend: 0x0, symName: __RNvXsB_NtCsfvfooZQ3Axs_4core6optionINtB5_6OptionTNtCs3cP53eQoTwO_11proc_macro25IdentNtNtCs6IAuOt8vWmF_3syn6buffer6CursorEENtNtNtB7_3ops9try_trait3Try6branchB1o_, symObjAddr: 0x922C, symBinAddr: 0x4648C, symSize: 0x74 }
  - { offset: 0x9E4AC, size: 0x8, addend: 0x0, symName: __RNvXsB_NtCsfvfooZQ3Axs_4core6optionINtB5_6OptionTNtCs3cP53eQoTwO_11proc_macro27LiteralNtNtCs6IAuOt8vWmF_3syn6buffer6CursorEENtNtNtB7_3ops9try_trait3Try6branchB1q_, symObjAddr: 0x92A0, symBinAddr: 0x46500, symSize: 0x78 }
  - { offset: 0x9E502, size: 0x8, addend: 0x0, symName: __RNvXsB_NtCsfvfooZQ3Axs_4core6optionINtB5_6OptionjENtNtNtB7_3ops9try_trait3Try11from_outputCs6IAuOt8vWmF_3syn, symObjAddr: 0x9318, symBinAddr: 0x46578, symSize: 0x24 }
  - { offset: 0x9E539, size: 0x8, addend: 0x0, symName: __RNvXsB_NtCsfvfooZQ3Axs_4core6optionINtB5_6OptionjENtNtNtB7_3ops9try_trait3Try6branchCs6IAuOt8vWmF_3syn, symObjAddr: 0x933C, symBinAddr: 0x4659C, symSize: 0x48 }
  - { offset: 0x9E594, size: 0x8, addend: 0x0, symName: __RNvXsC_NtCsfvfooZQ3Axs_4core6optionINtB5_6OptionTINtNtCse1nGBsou5OW_5alloc5boxed3BoxeEBL_EEINtNtNtB7_3ops9try_trait12FromResidualIBy_NtNtB7_7convert10InfallibleEE13from_residualCs6IAuOt8vWmF_3syn, symObjAddr: 0x9454, symBinAddr: 0x465E4, symSize: 0x10 }
  - { offset: 0x9E5C7, size: 0x8, addend: 0x0, symName: __RNvXsC_NtCsfvfooZQ3Axs_4core6optionINtB5_6OptionTNtNtCs6IAuOt8vWmF_3syn3lit3LitNtNtBP_6buffer6CursorEEINtNtNtB7_3ops9try_trait12FromResidualIBy_NtNtB7_7convert10InfallibleEE13from_residualBP_, symObjAddr: 0x9464, symBinAddr: 0x465F4, symSize: 0x1C }
  - { offset: 0x9E5FA, size: 0x8, addend: 0x0, symName: __RNvXsC_NtCsfvfooZQ3Axs_4core6optionINtB5_6OptionTNtNtCs6IAuOt8vWmF_3syn8lifetime8LifetimeNtNtBP_6buffer6CursorEEINtNtNtB7_3ops9try_trait12FromResidualIBy_NtNtB7_7convert10InfallibleEE13from_residualBP_, symObjAddr: 0x9480, symBinAddr: 0x46610, symSize: 0x18 }
  - { offset: 0x9E62D, size: 0x8, addend: 0x0, symName: __RNvXsC_NtCsfvfooZQ3Axs_4core6optionINtB5_6OptionjEINtNtNtB7_3ops9try_trait12FromResidualIBy_NtNtB7_7convert10InfallibleEE13from_residualCs6IAuOt8vWmF_3syn, symObjAddr: 0x9498, symBinAddr: 0x46628, symSize: 0x18 }
  - { offset: 0x9E6BA, size: 0x8, addend: 0x0, symName: __RNvXsO_NtCsfvfooZQ3Axs_4core6optionINtB5_8IntoIterRNtNtCs6IAuOt8vWmF_3syn4path11PathSegmentENtNtB7_5clone5Clone5cloneBR_, symObjAddr: 0xB590, symBinAddr: 0x46688, symSize: 0x68 }
  - { offset: 0x9E761, size: 0x8, addend: 0x0, symName: __RNvXsO_NtCsfvfooZQ3Axs_4core6optionINtB5_8IntoIterRNtNtCs6IAuOt8vWmF_3syn8generics14TypeParamBoundENtNtB7_5clone5Clone5cloneBR_, symObjAddr: 0xB660, symBinAddr: 0x466F0, symSize: 0x68 }
  - { offset: 0x9EB8F, size: 0x8, addend: 0x0, symName: __RNvXsv_NtCsfvfooZQ3Axs_4core6optionINtB5_8IntoIterNtNtCs6IAuOt8vWmF_3syn4path11PathSegmentENtNtNtNtB7_4iter6traits8iterator8Iterator4nextBQ_, symObjAddr: 0xE660, symBinAddr: 0x468C0, symSize: 0x64 }
  - { offset: 0x9EC32, size: 0x8, addend: 0x0, symName: __RNvXsv_NtCsfvfooZQ3Axs_4core6optionINtB5_8IntoIterNtNtCs6IAuOt8vWmF_3syn8generics14TypeParamBoundENtNtNtNtB7_4iter6traits8iterator8Iterator4nextBQ_, symObjAddr: 0xE6C4, symBinAddr: 0x46924, symSize: 0x60 }
  - { offset: 0x9ECD5, size: 0x8, addend: 0x0, symName: __RNvXsv_NtCsfvfooZQ3Axs_4core6optionINtB5_8IntoIterNtNtCs6IAuOt8vWmF_3syn8generics14TypeParamBoundENtNtNtNtB7_4iter6traits8iterator8Iterator9size_hintBQ_, symObjAddr: 0xE724, symBinAddr: 0x46984, symSize: 0x48 }
  - { offset: 0x9ED4D, size: 0x8, addend: 0x0, symName: __RNvXsv_NtCsfvfooZQ3Axs_4core6optionINtB5_8IntoIterQNtNtCs6IAuOt8vWmF_3syn4path11PathSegmentENtNtNtNtB7_4iter6traits8iterator8Iterator4nextBR_, symObjAddr: 0xE7D8, symBinAddr: 0x469CC, symSize: 0x28 }
  - { offset: 0x9EDF0, size: 0x8, addend: 0x0, symName: __RNvXsv_NtCsfvfooZQ3Axs_4core6optionINtB5_8IntoIterQNtNtCs6IAuOt8vWmF_3syn4path11PathSegmentENtNtNtNtB7_4iter6traits8iterator8Iterator9size_hintBR_, symObjAddr: 0xE800, symBinAddr: 0x469F4, symSize: 0x44 }
  - { offset: 0x9EE68, size: 0x8, addend: 0x0, symName: __RNvXsv_NtCsfvfooZQ3Axs_4core6optionINtB5_8IntoIterRNtNtCs6IAuOt8vWmF_3syn2ty4TypeENtNtNtNtB7_4iter6traits8iterator8Iterator4nextBR_, symObjAddr: 0xE8B0, symBinAddr: 0x46A38, symSize: 0x28 }
  - { offset: 0x9EF0B, size: 0x8, addend: 0x0, symName: __RNvXsv_NtCsfvfooZQ3Axs_4core6optionINtB5_8IntoIterRNtNtCs6IAuOt8vWmF_3syn2ty9BareFnArgENtNtNtNtB7_4iter6traits8iterator8Iterator4nextBR_, symObjAddr: 0xE8D8, symBinAddr: 0x46A60, symSize: 0x28 }
  - { offset: 0x9EFAE, size: 0x8, addend: 0x0, symName: __RNvXsv_NtCsfvfooZQ3Axs_4core6optionINtB5_8IntoIterRNtNtCs6IAuOt8vWmF_3syn3pat3PatENtNtNtNtB7_4iter6traits8iterator8Iterator4nextBR_, symObjAddr: 0xE900, symBinAddr: 0x46A88, symSize: 0x28 }
  - { offset: 0x9F051, size: 0x8, addend: 0x0, symName: __RNvXsv_NtCsfvfooZQ3Axs_4core6optionINtB5_8IntoIterRNtNtCs6IAuOt8vWmF_3syn3pat8FieldPatENtNtNtNtB7_4iter6traits8iterator8Iterator4nextBR_, symObjAddr: 0xE928, symBinAddr: 0x46AB0, symSize: 0x28 }
  - { offset: 0x9F0F4, size: 0x8, addend: 0x0, symName: __RNvXsv_NtCsfvfooZQ3Axs_4core6optionINtB5_8IntoIterRNtNtCs6IAuOt8vWmF_3syn4data5FieldENtNtNtNtB7_4iter6traits8iterator8Iterator4nextBR_, symObjAddr: 0xE950, symBinAddr: 0x46AD8, symSize: 0x28 }
  - { offset: 0x9F197, size: 0x8, addend: 0x0, symName: __RNvXsv_NtCsfvfooZQ3Axs_4core6optionINtB5_8IntoIterRNtNtCs6IAuOt8vWmF_3syn4data7VariantENtNtNtNtB7_4iter6traits8iterator8Iterator4nextBR_, symObjAddr: 0xE9BC, symBinAddr: 0x46B00, symSize: 0x28 }
  - { offset: 0x9F23A, size: 0x8, addend: 0x0, symName: __RNvXsv_NtCsfvfooZQ3Axs_4core6optionINtB5_8IntoIterRNtNtCs6IAuOt8vWmF_3syn4expr10FieldValueENtNtNtNtB7_4iter6traits8iterator8Iterator4nextBR_, symObjAddr: 0xE9E4, symBinAddr: 0x46B28, symSize: 0x28 }
  - { offset: 0x9F2DD, size: 0x8, addend: 0x0, symName: __RNvXsv_NtCsfvfooZQ3Axs_4core6optionINtB5_8IntoIterRNtNtCs6IAuOt8vWmF_3syn4expr4ExprENtNtNtNtB7_4iter6traits8iterator8Iterator4nextBR_, symObjAddr: 0xEA0C, symBinAddr: 0x46B50, symSize: 0x28 }
  - { offset: 0x9F380, size: 0x8, addend: 0x0, symName: __RNvXsv_NtCsfvfooZQ3Axs_4core6optionINtB5_8IntoIterRNtNtCs6IAuOt8vWmF_3syn4item5FnArgENtNtNtNtB7_4iter6traits8iterator8Iterator4nextBR_, symObjAddr: 0xEA34, symBinAddr: 0x46B78, symSize: 0x28 }
  - { offset: 0x9F423, size: 0x8, addend: 0x0, symName: __RNvXsv_NtCsfvfooZQ3Axs_4core6optionINtB5_8IntoIterRNtNtCs6IAuOt8vWmF_3syn4item7UseTreeENtNtNtNtB7_4iter6traits8iterator8Iterator4nextBR_, symObjAddr: 0xEAA0, symBinAddr: 0x46BA0, symSize: 0x28 }
  - { offset: 0x9F4C6, size: 0x8, addend: 0x0, symName: __RNvXsv_NtCsfvfooZQ3Axs_4core6optionINtB5_8IntoIterRNtNtCs6IAuOt8vWmF_3syn4path11PathSegmentENtNtNtNtB7_4iter6traits8iterator8Iterator4nextBR_, symObjAddr: 0xEAC8, symBinAddr: 0x46BC8, symSize: 0x28 }
  - { offset: 0x9F569, size: 0x8, addend: 0x0, symName: __RNvXsv_NtCsfvfooZQ3Axs_4core6optionINtB5_8IntoIterRNtNtCs6IAuOt8vWmF_3syn4path11PathSegmentENtNtNtNtB7_4iter6traits8iterator8Iterator9size_hintBR_, symObjAddr: 0xEAF0, symBinAddr: 0x46BF0, symSize: 0x44 }
  - { offset: 0x9F5E1, size: 0x8, addend: 0x0, symName: __RNvXsv_NtCsfvfooZQ3Axs_4core6optionINtB5_8IntoIterRNtNtCs6IAuOt8vWmF_3syn4path15GenericArgumentENtNtNtNtB7_4iter6traits8iterator8Iterator4nextBR_, symObjAddr: 0xEB34, symBinAddr: 0x46C34, symSize: 0x28 }
  - { offset: 0x9F684, size: 0x8, addend: 0x0, symName: __RNvXsv_NtCsfvfooZQ3Axs_4core6optionINtB5_8IntoIterRNtNtCs6IAuOt8vWmF_3syn8generics12GenericParamENtNtNtNtB7_4iter6traits8iterator8Iterator4nextBR_, symObjAddr: 0xEB5C, symBinAddr: 0x46C5C, symSize: 0x28 }
  - { offset: 0x9F727, size: 0x8, addend: 0x0, symName: __RNvXsv_NtCsfvfooZQ3Axs_4core6optionINtB5_8IntoIterRNtNtCs6IAuOt8vWmF_3syn8generics13CapturedParamENtNtNtNtB7_4iter6traits8iterator8Iterator4nextBR_, symObjAddr: 0xEBC8, symBinAddr: 0x46C84, symSize: 0x28 }
  - { offset: 0x9F7CA, size: 0x8, addend: 0x0, symName: __RNvXsv_NtCsfvfooZQ3Axs_4core6optionINtB5_8IntoIterRNtNtCs6IAuOt8vWmF_3syn8generics14TypeParamBoundENtNtNtNtB7_4iter6traits8iterator8Iterator4nextBR_, symObjAddr: 0xEBF0, symBinAddr: 0x46CAC, symSize: 0x28 }
  - { offset: 0x9F86D, size: 0x8, addend: 0x0, symName: __RNvXsv_NtCsfvfooZQ3Axs_4core6optionINtB5_8IntoIterRNtNtCs6IAuOt8vWmF_3syn8generics14TypeParamBoundENtNtNtNtB7_4iter6traits8iterator8Iterator9size_hintBR_, symObjAddr: 0xEC18, symBinAddr: 0x46CD4, symSize: 0x44 }
  - { offset: 0x9F8E5, size: 0x8, addend: 0x0, symName: __RNvXsv_NtCsfvfooZQ3Axs_4core6optionINtB5_8IntoIterRNtNtCs6IAuOt8vWmF_3syn8generics14WherePredicateENtNtNtNtB7_4iter6traits8iterator8Iterator4nextBR_, symObjAddr: 0xEC5C, symBinAddr: 0x46D18, symSize: 0x28 }
  - { offset: 0x9F988, size: 0x8, addend: 0x0, symName: __RNvXsv_NtCsfvfooZQ3Axs_4core6optionINtB5_8IntoIterRNtNtCs6IAuOt8vWmF_3syn8lifetime8LifetimeENtNtNtNtB7_4iter6traits8iterator8Iterator4nextBR_, symObjAddr: 0xEC84, symBinAddr: 0x46D40, symSize: 0x28 }
  - { offset: 0xA0BE3, size: 0x8, addend: 0x0, symName: __RNvNvMNtNtCsfvfooZQ3Axs_4core3ptr9const_ptrPp6offset18precondition_checkCs6IAuOt8vWmF_3syn, symObjAddr: 0x5F10, symBinAddr: 0x45258, symSize: 0xA0 }
  - { offset: 0xA0DA5, size: 0x8, addend: 0x0, symName: __RNvNvMNtNtCsfvfooZQ3Axs_4core3ptr9const_ptrPp7sub_ptr18precondition_checkCs6IAuOt8vWmF_3syn, symObjAddr: 0x5FB0, symBinAddr: 0x452F8, symSize: 0x40 }
  - { offset: 0xA1596, size: 0x8, addend: 0x0, symName: __RNvXsr_NtCsfvfooZQ3Axs_4core3fmtShNtB5_5Debug3fmtCs6IAuOt8vWmF_3syn, symObjAddr: 0xE52C, symBinAddr: 0x46838, symSize: 0x88 }
  - { offset: 0xA2C59, size: 0x8, addend: 0x0, symName: __RINvYINtNtCsfvfooZQ3Axs_4core6option8IntoIterNtNtCs6IAuOt8vWmF_3syn8generics14TypeParamBoundENtNtNtNtB8_4iter6traits8iterator8Iterator4folduNCINvNvB1t_8for_each4callBH_NCINvMsi_NtCse1nGBsou5OW_5alloc3vecINtB2P_3VecBH_E14extend_trustedB3_E0E0EBL_, symObjAddr: 0x3F98, symBinAddr: 0x43660, symSize: 0x148 }
  - { offset: 0xA2CEB, size: 0x8, addend: 0x0, symName: __RINvYINtNtCsfvfooZQ3Axs_4core6option8IntoIterNtNtCs6IAuOt8vWmF_3syn8generics14TypeParamBoundENtNtNtNtB8_4iter6traits8iterator8Iterator8for_eachNCINvMsi_NtCse1nGBsou5OW_5alloc3vecINtB2q_3VecBH_E14extend_trustedB3_E0EBL_, symObjAddr: 0x40E0, symBinAddr: 0x437A8, symSize: 0x34 }
  - { offset: 0xA2D57, size: 0x8, addend: 0x0, symName: __RINvYNtNtNtCsfvfooZQ3Axs_4core3ops11index_range10IndexRangeNtNtNtNtB9_4iter6traits8iterator8Iterator8try_folduNCINvMNtB7_9try_traitINtB1Q_17NeverShortCircuituE10wrap_mut_2ujNCINvXs0_NtNtB9_5array4iterINtB2U_8IntoIterNtCs3cP53eQoTwO_11proc_macro29TokenTreeKj1_EBV_4folduNCINvNtNtB11_8adapters3map8map_foldB3s_NtCs9i5KxIbZ5ph_10proc_macro9TokenTreeuNvNtB3u_3imp19into_compiler_tokenNCINvNvBV_8for_each4callB4W_NCINvXsg_B4Y_NtB4Y_11TokenStreamINtNtBZ_7collect12FromIteratorB4W_E9from_iterINtB4o_3MapB3c_B5z_EE0E0E0E0E0B25_ECs6IAuOt8vWmF_3syn, symObjAddr: 0x4114, symBinAddr: 0x437DC, symSize: 0xF8 }
  - { offset: 0xA2DEF, size: 0x8, addend: 0x0, symName: __RINvYNtNtNtCsfvfooZQ3Axs_4core3ops11index_range10IndexRangeNtNtNtNtB9_4iter6traits8iterator8Iterator8try_folduNCINvMNtB7_9try_traitINtB1Q_17NeverShortCircuituE10wrap_mut_2ujNCINvXs0_NtNtB9_5array4iterINtB2U_8IntoIterNtCs3cP53eQoTwO_11proc_macro29TokenTreeKj1_EBV_4folduNCINvNvBV_8for_each4callB3s_NCINvXsa_NtB3u_8fallbackNtB4U_11TokenStreamINtNtBZ_7collect6ExtendB3s_E6extendB3c_E0E0E0E0B25_ECs6IAuOt8vWmF_3syn, symObjAddr: 0x420C, symBinAddr: 0x438D4, symSize: 0xF8 }
  - { offset: 0xA2E87, size: 0x8, addend: 0x0, symName: __RINvYNtNtNtCsfvfooZQ3Axs_4core3ops11index_range10IndexRangeNtNtNtNtB9_4iter6traits8iterator8Iterator8try_folduNCINvMNtB7_9try_traitINtB1Q_17NeverShortCircuituE10wrap_mut_2ujNCINvXs0_NtNtB9_5array4iterINtB2U_8IntoIterNtCs3cP53eQoTwO_11proc_macro29TokenTreeKj8_EBV_4folduNCINvNtNtB11_8adapters3map8map_foldB3s_NtCs9i5KxIbZ5ph_10proc_macro9TokenTreeuNvNtB3u_3imp19into_compiler_tokenNCINvNvBV_8for_each4callB4W_NCINvXsg_B4Y_NtB4Y_11TokenStreamINtNtBZ_7collect12FromIteratorB4W_E9from_iterINtB4o_3MapB3c_B5z_EE0E0E0E0E0B25_ECs6IAuOt8vWmF_3syn, symObjAddr: 0x4304, symBinAddr: 0x439CC, symSize: 0xF8 }
  - { offset: 0xA2F1F, size: 0x8, addend: 0x0, symName: __RINvYNtNtNtCsfvfooZQ3Axs_4core3ops11index_range10IndexRangeNtNtNtNtB9_4iter6traits8iterator8Iterator8try_folduNCINvMNtB7_9try_traitINtB1Q_17NeverShortCircuituE10wrap_mut_2ujNCINvXs0_NtNtB9_5array4iterINtB2U_8IntoIterNtCs3cP53eQoTwO_11proc_macro29TokenTreeKj8_EBV_4folduNCINvNvBV_8for_each4callB3s_NCINvXsa_NtB3u_8fallbackNtB4U_11TokenStreamINtNtBZ_7collect6ExtendB3s_E6extendB3c_E0E0E0E0B25_ECs6IAuOt8vWmF_3syn, symObjAddr: 0x43FC, symBinAddr: 0x43AC4, symSize: 0xF8 }
  - { offset: 0xA2FC3, size: 0x8, addend: 0x0, symName: __RNvXNtNtNtCsfvfooZQ3Axs_4core4iter6traits7collectINtNtNtB6_8adapters3rev3RevINtNtNtB8_5slice4iter4IterhEENtB2_12IntoIterator9into_iterCs6IAuOt8vWmF_3syn, symObjAddr: 0x5FF0, symBinAddr: 0x45338, symSize: 0x1C }
  - { offset: 0xA3031, size: 0x8, addend: 0x0, symName: __RNvYINtNtCsfvfooZQ3Axs_4core6option8IntoIterQNtNtCs6IAuOt8vWmF_3syn4path11PathSegmentENtNtNtNtB7_4iter6traits10exact_size17ExactSizeIterator3lenBL_, symObjAddr: 0xEDC4, symBinAddr: 0x46D8C, symSize: 0xF4 }
  - { offset: 0xA3124, size: 0x8, addend: 0x0, symName: __RNvYINtNtCsfvfooZQ3Axs_4core6option8IntoIterRNtNtCs6IAuOt8vWmF_3syn4path11PathSegmentENtNtNtNtB7_4iter6traits10exact_size17ExactSizeIterator3lenBL_, symObjAddr: 0xF194, symBinAddr: 0x46E80, symSize: 0xF4 }
  - { offset: 0xA3217, size: 0x8, addend: 0x0, symName: __RNvYINtNtCsfvfooZQ3Axs_4core6option8IntoIterRNtNtCs6IAuOt8vWmF_3syn8generics14TypeParamBoundENtNtNtNtB7_4iter6traits10exact_size17ExactSizeIterator3lenBL_, symObjAddr: 0xF37C, symBinAddr: 0x46F74, symSize: 0xF4 }
  - { offset: 0xA331C, size: 0x8, addend: 0x0, symName: __RNvXs_NtNtNtCsfvfooZQ3Axs_4core4iter8adapters3revINtB4_3RevINtNtNtBa_5slice4iter4IterhEENtNtNtB8_6traits8iterator8Iterator4nextCs6IAuOt8vWmF_3syn, symObjAddr: 0xB784, symBinAddr: 0x46814, symSize: 0x24 }
  - { offset: 0xA3A55, size: 0x8, addend: 0x0, symName: __RNvXs_NtNtCsfvfooZQ3Axs_4core3ops11index_rangeNtB4_10IndexRangeNtNtNtNtB8_4iter6traits8iterator8Iterator4nextCs6IAuOt8vWmF_3syn, symObjAddr: 0xB6C8, symBinAddr: 0x46758, symSize: 0xBC }
  - { offset: 0xA60F0, size: 0x8, addend: 0x0, symName: __RNvXsl_NtNtCs6IAuOt8vWmF_3syn2ty7parsingINtNtCsfvfooZQ3Axs_4core6option6OptionNtB7_3AbiENtNtB9_5parse5Parse5parse, symObjAddr: 0x115DC, symBinAddr: 0x491D4, symSize: 0x98 }
  - { offset: 0xA7164, size: 0x8, addend: 0x0, symName: __RNvXso_NtNtCs6IAuOt8vWmF_3syn4expr7parsingINtNtCsfvfooZQ3Axs_4core6option6OptionNtB7_5LabelENtNtB9_5parse5Parse5parse, symObjAddr: 0xF4AC, symBinAddr: 0x470A4, symSize: 0xA4 }
  - { offset: 0xA730A, size: 0x8, addend: 0x0, symName: __RNCNvXNtNtCs6IAuOt8vWmF_3syn4attr8printingNtB6_9AttributeNtNtCs2cqEZUIJimJ_5quote9to_tokens8ToTokens9to_tokens0B8_, symObjAddr: 0xF470, symBinAddr: 0x47068, symSize: 0x3C }
  - { offset: 0xA90E5, size: 0x8, addend: 0x0, symName: __RNCNvXs_NtNtCs6IAuOt8vWmF_3syn11restriction8printingNtB8_13VisRestrictedNtNtCs2cqEZUIJimJ_5quote9to_tokens8ToTokens9to_tokens0Ba_, symObjAddr: 0x1155C, symBinAddr: 0x49154, symSize: 0x80 }
  - { offset: 0xA95E3, size: 0x8, addend: 0x0, symName: __RNvXs2_NtNtCs6IAuOt8vWmF_3syn8generics7parsingINtNtCsfvfooZQ3Axs_4core6option6OptionNtB7_14BoundLifetimesENtNtB9_5parse5Parse5parse, symObjAddr: 0xF550, symBinAddr: 0x47148, symSize: 0x98 }
  - { offset: 0xA9617, size: 0x8, addend: 0x0, symName: __RNvXsb_NtNtCs6IAuOt8vWmF_3syn8generics7parsingINtNtCsfvfooZQ3Axs_4core6option6OptionNtB7_11WhereClauseENtNtB9_5parse5Parse5parse, symObjAddr: 0xF5E8, symBinAddr: 0x471E0, symSize: 0x98 }
  - { offset: 0xA9DF4, size: 0x8, addend: 0x0, symName: __RNvXsb_NtCs6IAuOt8vWmF_3syn5parseINtNtCsfvfooZQ3Axs_4core6option6OptionNtCs3cP53eQoTwO_11proc_macro25IdentENtB5_5Parse5parseB7_, symObjAddr: 0xF680, symBinAddr: 0x47278, symSize: 0x12C }
  - { offset: 0xA9E4A, size: 0x8, addend: 0x0, symName: __RNvXsb_NtCs6IAuOt8vWmF_3syn5parseINtNtCsfvfooZQ3Axs_4core6option6OptionNtNtB7_3lit3LitENtB5_5Parse5parseB7_, symObjAddr: 0xF7AC, symBinAddr: 0x473A4, symSize: 0x130 }
  - { offset: 0xA9EA0, size: 0x8, addend: 0x0, symName: __RNvXsb_NtCs6IAuOt8vWmF_3syn5parseINtNtCsfvfooZQ3Axs_4core6option6OptionNtNtB7_3lit6LitStrENtB5_5Parse5parseB7_, symObjAddr: 0xF8DC, symBinAddr: 0x474D4, symSize: 0x110 }
  - { offset: 0xA9EF5, size: 0x8, addend: 0x0, symName: __RNvXsb_NtCs6IAuOt8vWmF_3syn5parseINtNtCsfvfooZQ3Axs_4core6option6OptionNtNtB7_3lit8LitFloatENtB5_5Parse5parseB7_, symObjAddr: 0xF9EC, symBinAddr: 0x475E4, symSize: 0x110 }
  - { offset: 0xA9F4A, size: 0x8, addend: 0x0, symName: __RNvXsb_NtCs6IAuOt8vWmF_3syn5parseINtNtCsfvfooZQ3Axs_4core6option6OptionNtNtB7_5token2EqENtB5_5Parse5parseB7_, symObjAddr: 0xFAFC, symBinAddr: 0x476F4, symSize: 0x11C }
  - { offset: 0xA9F9F, size: 0x8, addend: 0x0, symName: __RNvXsb_NtCs6IAuOt8vWmF_3syn5parseINtNtCsfvfooZQ3Axs_4core6option6OptionNtNtB7_5token2OrENtB5_5Parse5parseB7_, symObjAddr: 0xFC18, symBinAddr: 0x47810, symSize: 0x11C }
  - { offset: 0xA9FF4, size: 0x8, addend: 0x0, symName: __RNvXsb_NtCs6IAuOt8vWmF_3syn5parseINtNtCsfvfooZQ3Axs_4core6option6OptionNtNtB7_5token3BoxENtB5_5Parse5parseB7_, symObjAddr: 0xFD34, symBinAddr: 0x4792C, symSize: 0x128 }
  - { offset: 0xAA049, size: 0x8, addend: 0x0, symName: __RNvXsb_NtCs6IAuOt8vWmF_3syn5parseINtNtCsfvfooZQ3Axs_4core6option6OptionNtNtB7_5token3DynENtB5_5Parse5parseB7_, symObjAddr: 0xFE5C, symBinAddr: 0x47A54, symSize: 0x128 }
  - { offset: 0xAA09E, size: 0x8, addend: 0x0, symName: __RNvXsb_NtCs6IAuOt8vWmF_3syn5parseINtNtCsfvfooZQ3Axs_4core6option6OptionNtNtB7_5token3MutENtB5_5Parse5parseB7_, symObjAddr: 0xFF84, symBinAddr: 0x47B7C, symSize: 0x128 }
  - { offset: 0xAA0F3, size: 0x8, addend: 0x0, symName: __RNvXsb_NtCs6IAuOt8vWmF_3syn5parseINtNtCsfvfooZQ3Axs_4core6option6OptionNtNtB7_5token3RefENtB5_5Parse5parseB7_, symObjAddr: 0x100AC, symBinAddr: 0x47CA4, symSize: 0x128 }
  - { offset: 0xAA148, size: 0x8, addend: 0x0, symName: __RNvXsb_NtCs6IAuOt8vWmF_3syn5parseINtNtCsfvfooZQ3Axs_4core6option6OptionNtNtB7_5token4AutoENtB5_5Parse5parseB7_, symObjAddr: 0x101D4, symBinAddr: 0x47DCC, symSize: 0x128 }
  - { offset: 0xAA19D, size: 0x8, addend: 0x0, symName: __RNvXsb_NtCs6IAuOt8vWmF_3syn5parseINtNtCsfvfooZQ3Axs_4core6option6OptionNtNtB7_5token4MoveENtB5_5Parse5parseB7_, symObjAddr: 0x102FC, symBinAddr: 0x47EF4, symSize: 0x128 }
  - { offset: 0xAA1F2, size: 0x8, addend: 0x0, symName: __RNvXsb_NtCs6IAuOt8vWmF_3syn5parseINtNtCsfvfooZQ3Axs_4core6option6OptionNtNtB7_5token4PlusENtB5_5Parse5parseB7_, symObjAddr: 0x10424, symBinAddr: 0x4801C, symSize: 0x11C }
  - { offset: 0xAA247, size: 0x8, addend: 0x0, symName: __RNvXsb_NtCs6IAuOt8vWmF_3syn5parseINtNtCsfvfooZQ3Axs_4core6option6OptionNtNtB7_5token4SemiENtB5_5Parse5parseB7_, symObjAddr: 0x10540, symBinAddr: 0x48138, symSize: 0x11C }
  - { offset: 0xAA29C, size: 0x8, addend: 0x0, symName: __RNvXsb_NtCs6IAuOt8vWmF_3syn5parseINtNtCsfvfooZQ3Axs_4core6option6OptionNtNtB7_5token4StarENtB5_5Parse5parseB7_, symObjAddr: 0x1065C, symBinAddr: 0x48254, symSize: 0x11C }
  - { offset: 0xAA2F1, size: 0x8, addend: 0x0, symName: __RNvXsb_NtCs6IAuOt8vWmF_3syn5parseINtNtCsfvfooZQ3Axs_4core6option6OptionNtNtB7_5token5AsyncENtB5_5Parse5parseB7_, symObjAddr: 0x10778, symBinAddr: 0x48370, symSize: 0x128 }
  - { offset: 0xAA346, size: 0x8, addend: 0x0, symName: __RNvXsb_NtCs6IAuOt8vWmF_3syn5parseINtNtCsfvfooZQ3Axs_4core6option6OptionNtNtB7_5token5AwaitENtB5_5Parse5parseB7_, symObjAddr: 0x108A0, symBinAddr: 0x48498, symSize: 0x128 }
  - { offset: 0xAA39B, size: 0x8, addend: 0x0, symName: __RNvXsb_NtCs6IAuOt8vWmF_3syn5parseINtNtCsfvfooZQ3Axs_4core6option6OptionNtNtB7_5token5ColonENtB5_5Parse5parseB7_, symObjAddr: 0x109C8, symBinAddr: 0x485C0, symSize: 0x11C }
  - { offset: 0xAA3F0, size: 0x8, addend: 0x0, symName: __RNvXsb_NtCs6IAuOt8vWmF_3syn5parseINtNtCsfvfooZQ3Axs_4core6option6OptionNtNtB7_5token5CommaENtB5_5Parse5parseB7_, symObjAddr: 0x10AE4, symBinAddr: 0x486DC, symSize: 0x11C }
  - { offset: 0xAA445, size: 0x8, addend: 0x0, symName: __RNvXsb_NtCs6IAuOt8vWmF_3syn5parseINtNtCsfvfooZQ3Axs_4core6option6OptionNtNtB7_5token5ConstENtB5_5Parse5parseB7_, symObjAddr: 0x10C00, symBinAddr: 0x487F8, symSize: 0x128 }
  - { offset: 0xAA49A, size: 0x8, addend: 0x0, symName: __RNvXsb_NtCs6IAuOt8vWmF_3syn5parseINtNtCsfvfooZQ3Axs_4core6option6OptionNtNtB7_5token6StaticENtB5_5Parse5parseB7_, symObjAddr: 0x10D28, symBinAddr: 0x48920, symSize: 0x128 }
  - { offset: 0xAA4EF, size: 0x8, addend: 0x0, symName: __RNvXsb_NtCs6IAuOt8vWmF_3syn5parseINtNtCsfvfooZQ3Axs_4core6option6OptionNtNtB7_5token6UnsafeENtB5_5Parse5parseB7_, symObjAddr: 0x10E50, symBinAddr: 0x48A48, symSize: 0x128 }
  - { offset: 0xAA544, size: 0x8, addend: 0x0, symName: __RNvXsb_NtCs6IAuOt8vWmF_3syn5parseINtNtCsfvfooZQ3Axs_4core6option6OptionNtNtB7_5token7DefaultENtB5_5Parse5parseB7_, symObjAddr: 0x10F78, symBinAddr: 0x48B70, symSize: 0x128 }
  - { offset: 0xAA599, size: 0x8, addend: 0x0, symName: __RNvXsb_NtCs6IAuOt8vWmF_3syn5parseINtNtCsfvfooZQ3Axs_4core6option6OptionNtNtB7_5token7PathSepENtB5_5Parse5parseB7_, symObjAddr: 0x110A0, symBinAddr: 0x48C98, symSize: 0x130 }
  - { offset: 0xAA5EE, size: 0x8, addend: 0x0, symName: __RNvXsb_NtCs6IAuOt8vWmF_3syn5parseINtNtCsfvfooZQ3Axs_4core6option6OptionNtNtB7_5token8QuestionENtB5_5Parse5parseB7_, symObjAddr: 0x111D0, symBinAddr: 0x48DC8, symSize: 0x11C }
  - { offset: 0xAA643, size: 0x8, addend: 0x0, symName: __RNvXsb_NtCs6IAuOt8vWmF_3syn5parseINtNtCsfvfooZQ3Axs_4core6option6OptionNtNtB7_5token9DotDotDotENtB5_5Parse5parseB7_, symObjAddr: 0x112EC, symBinAddr: 0x48EE4, symSize: 0x130 }
  - { offset: 0xAA698, size: 0x8, addend: 0x0, symName: __RNvXsb_NtCs6IAuOt8vWmF_3syn5parseINtNtCsfvfooZQ3Axs_4core6option6OptionNtNtB7_8lifetime8LifetimeENtB5_5Parse5parseB7_, symObjAddr: 0x1141C, symBinAddr: 0x49014, symSize: 0x140 }
  - { offset: 0xAC0B8, size: 0x8, addend: 0x0, symName: __RNvXsF_NtCse1nGBsou5OW_5alloc6stringNtNtCsfvfooZQ3Axs_4core3fmt9ArgumentsNtB5_12SpecToString14spec_to_stringCs6IAuOt8vWmF_3syn, symObjAddr: 0x94B0, symBinAddr: 0x46640, symSize: 0x48 }
  - { offset: 0xAC0EC, size: 0x8, addend: 0x0, symName: __RNvXsw_NtCse1nGBsou5OW_5alloc6stringNtNtCsfvfooZQ3Axs_4core3fmt9ArgumentsNtB5_8ToString9to_stringCs6IAuOt8vWmF_3syn, symObjAddr: 0xECAC, symBinAddr: 0x46D68, symSize: 0x24 }
  - { offset: 0xAC12A, size: 0x8, addend: 0x0, symName: __RNvNtCse1nGBsou5OW_5alloc3fmt6formatCs6IAuOt8vWmF_3syn, symObjAddr: 0x5E3C, symBinAddr: 0x45184, symSize: 0xD4 }
  - { offset: 0xAC840, size: 0x8, addend: 0x0, symName: __RINvMNtCsfvfooZQ3Axs_4core6optionINtB3_6OptionINtNtCs6IAuOt8vWmF_3syn10punctuated4PairNtNtBN_4path11PathSegmentNtNtBN_5token7PathSepEE7or_elseNCNvXsj_BL_INtBL_9IntoPairsB1m_B1L_ENtNtNtNtB5_4iter6traits8iterator8Iterator4nexts_0EBN_, symObjAddr: 0x0, symBinAddr: 0x40534, symSize: 0xD8 }
  - { offset: 0xAC8B0, size: 0x8, addend: 0x0, symName: __RINvMNtCsfvfooZQ3Axs_4core6optionINtB3_6OptionINtNtCs6IAuOt8vWmF_3syn10punctuated4PairRNtNtBN_2ty4TypeRNtNtBN_5token5CommaEE7or_elseNCNvXsc_BL_INtBL_5PairsB1n_B1D_ENtNtNtNtB5_4iter6traits8iterator8Iterator4nexts_0EBN_, symObjAddr: 0xD8, symBinAddr: 0x4060C, symSize: 0xB4 }
  - { offset: 0xAC92D, size: 0x8, addend: 0x0, symName: __RINvMNtCsfvfooZQ3Axs_4core6optionINtB3_6OptionINtNtCs6IAuOt8vWmF_3syn10punctuated4PairRNtNtBN_2ty9BareFnArgRNtNtBN_5token5CommaEE7or_elseNCNvXsc_BL_INtBL_5PairsB1n_B1I_ENtNtNtNtB5_4iter6traits8iterator8Iterator4nexts_0EBN_, symObjAddr: 0x18C, symBinAddr: 0x406C0, symSize: 0xB4 }
  - { offset: 0xAC9AA, size: 0x8, addend: 0x0, symName: __RINvMNtCsfvfooZQ3Axs_4core6optionINtB3_6OptionINtNtCs6IAuOt8vWmF_3syn10punctuated4PairRNtNtBN_3pat3PatRNtNtBN_5token2OrEE7or_elseNCNvXsc_BL_INtBL_5PairsB1n_B1D_ENtNtNtNtB5_4iter6traits8iterator8Iterator4nexts_0EBN_, symObjAddr: 0x240, symBinAddr: 0x40774, symSize: 0xB4 }
  - { offset: 0xACA0D, size: 0x8, addend: 0x0, symName: __RINvMNtCsfvfooZQ3Axs_4core6optionINtB3_6OptionINtNtCs6IAuOt8vWmF_3syn10punctuated4PairRNtNtBN_3pat3PatRNtNtBN_5token5CommaEE7or_elseNCNvXsc_BL_INtBL_5PairsB1n_B1D_ENtNtNtNtB5_4iter6traits8iterator8Iterator4nexts_0EBN_, symObjAddr: 0x2F4, symBinAddr: 0x40828, symSize: 0xB4 }
  - { offset: 0xACA8A, size: 0x8, addend: 0x0, symName: __RINvMNtCsfvfooZQ3Axs_4core6optionINtB3_6OptionINtNtCs6IAuOt8vWmF_3syn10punctuated4PairRNtNtBN_3pat8FieldPatRNtNtBN_5token5CommaEE7or_elseNCNvXsc_BL_INtBL_5PairsB1n_B1I_ENtNtNtNtB5_4iter6traits8iterator8Iterator4nexts_0EBN_, symObjAddr: 0x3A8, symBinAddr: 0x408DC, symSize: 0xB4 }
  - { offset: 0xACB07, size: 0x8, addend: 0x0, symName: __RINvMNtCsfvfooZQ3Axs_4core6optionINtB3_6OptionINtNtCs6IAuOt8vWmF_3syn10punctuated4PairRNtNtBN_4data5FieldRNtNtBN_5token5CommaEE7or_elseNCNvXsc_BL_INtBL_5PairsB1n_B1G_ENtNtNtNtB5_4iter6traits8iterator8Iterator4nexts_0EBN_, symObjAddr: 0x45C, symBinAddr: 0x40990, symSize: 0xB4 }
  - { offset: 0xACB84, size: 0x8, addend: 0x0, symName: __RINvMNtCsfvfooZQ3Axs_4core6optionINtB3_6OptionINtNtCs6IAuOt8vWmF_3syn10punctuated4PairRNtNtBN_4data7VariantRNtNtBN_5token5CommaEE7or_elseNCNvXsc_BL_INtBL_5PairsB1n_B1I_ENtNtNtNtB5_4iter6traits8iterator8Iterator4nexts_0EBN_, symObjAddr: 0x510, symBinAddr: 0x40A44, symSize: 0xB4 }
  - { offset: 0xACC01, size: 0x8, addend: 0x0, symName: __RINvMNtCsfvfooZQ3Axs_4core6optionINtB3_6OptionINtNtCs6IAuOt8vWmF_3syn10punctuated4PairRNtNtBN_4expr10FieldValueRNtNtBN_5token5CommaEE7or_elseNCNvXsc_BL_INtBL_5PairsB1n_B1M_ENtNtNtNtB5_4iter6traits8iterator8Iterator4nexts_0EBN_, symObjAddr: 0x5C4, symBinAddr: 0x40AF8, symSize: 0xB4 }
  - { offset: 0xACC71, size: 0x8, addend: 0x0, symName: __RINvMNtCsfvfooZQ3Axs_4core6optionINtB3_6OptionINtNtCs6IAuOt8vWmF_3syn10punctuated4PairRNtNtBN_4expr4ExprRNtNtBN_5token5CommaEE7or_elseNCNvXsc_BL_INtBL_5PairsB1n_B1F_ENtNtNtNtB5_4iter6traits8iterator8Iterator4nexts_0EBN_, symObjAddr: 0x678, symBinAddr: 0x40BAC, symSize: 0xB4 }
  - { offset: 0xACCEE, size: 0x8, addend: 0x0, symName: __RINvMNtCsfvfooZQ3Axs_4core6optionINtB3_6OptionINtNtCs6IAuOt8vWmF_3syn10punctuated4PairRNtNtBN_4item5FnArgRNtNtBN_5token5CommaEE7or_elseNCNvXsc_BL_INtBL_5PairsB1n_B1G_ENtNtNtNtB5_4iter6traits8iterator8Iterator4nexts_0EBN_, symObjAddr: 0x72C, symBinAddr: 0x40C60, symSize: 0xB4 }
  - { offset: 0xACD6B, size: 0x8, addend: 0x0, symName: __RINvMNtCsfvfooZQ3Axs_4core6optionINtB3_6OptionINtNtCs6IAuOt8vWmF_3syn10punctuated4PairRNtNtBN_4item7UseTreeRNtNtBN_5token5CommaEE7or_elseNCNvXsc_BL_INtBL_5PairsB1n_B1I_ENtNtNtNtB5_4iter6traits8iterator8Iterator4nexts_0EBN_, symObjAddr: 0x7E0, symBinAddr: 0x40D14, symSize: 0xB4 }
  - { offset: 0xACDE8, size: 0x8, addend: 0x0, symName: __RINvMNtCsfvfooZQ3Axs_4core6optionINtB3_6OptionINtNtCs6IAuOt8vWmF_3syn10punctuated4PairRNtNtBN_4path11PathSegmentRNtNtBN_5token7PathSepEE7or_elseNCNvXsc_BL_INtBL_5PairsB1n_B1N_ENtNtNtNtB5_4iter6traits8iterator8Iterator4nexts_0EBN_, symObjAddr: 0x894, symBinAddr: 0x40DC8, symSize: 0xB4 }
  - { offset: 0xACE65, size: 0x8, addend: 0x0, symName: __RINvMNtCsfvfooZQ3Axs_4core6optionINtB3_6OptionINtNtCs6IAuOt8vWmF_3syn10punctuated4PairRNtNtBN_4path15GenericArgumentRNtNtBN_5token5CommaEE7or_elseNCNvXsc_BL_INtBL_5PairsB1n_B1R_ENtNtNtNtB5_4iter6traits8iterator8Iterator4nexts_0EBN_, symObjAddr: 0x948, symBinAddr: 0x40E7C, symSize: 0xB4 }
  - { offset: 0xACEE2, size: 0x8, addend: 0x0, symName: __RINvMNtCsfvfooZQ3Axs_4core6optionINtB3_6OptionINtNtCs6IAuOt8vWmF_3syn10punctuated4PairRNtNtBN_8generics12GenericParamRNtNtBN_5token5CommaEE7or_elseNCNvXsc_BL_INtBL_5PairsB1n_B1S_ENtNtNtNtB5_4iter6traits8iterator8Iterator4nexts_0EBN_, symObjAddr: 0x9FC, symBinAddr: 0x40F30, symSize: 0xB4 }
  - { offset: 0xACF5F, size: 0x8, addend: 0x0, symName: __RINvMNtCsfvfooZQ3Axs_4core6optionINtB3_6OptionINtNtCs6IAuOt8vWmF_3syn10punctuated4PairRNtNtBN_8generics13CapturedParamRNtNtBN_5token5CommaEE7or_elseNCNvXsc_BL_INtBL_5PairsB1n_B1T_ENtNtNtNtB5_4iter6traits8iterator8Iterator4nexts_0EBN_, symObjAddr: 0xAB0, symBinAddr: 0x40FE4, symSize: 0xB4 }
  - { offset: 0xACFE9, size: 0x8, addend: 0x0, symName: __RINvMNtCsfvfooZQ3Axs_4core6optionINtB3_6OptionINtNtCs6IAuOt8vWmF_3syn10punctuated4PairRNtNtBN_8generics14TypeParamBoundRNtNtBN_5token4PlusEE7or_elseNCNvXsc_BL_INtBL_5PairsB1n_B1U_ENtNtNtNtB5_4iter6traits8iterator8Iterator4nexts_0EBN_, symObjAddr: 0xB64, symBinAddr: 0x41098, symSize: 0xB4 }
  - { offset: 0xAD066, size: 0x8, addend: 0x0, symName: __RINvMNtCsfvfooZQ3Axs_4core6optionINtB3_6OptionINtNtCs6IAuOt8vWmF_3syn10punctuated4PairRNtNtBN_8generics14WherePredicateRNtNtBN_5token5CommaEE7or_elseNCNvXsc_BL_INtBL_5PairsB1n_B1U_ENtNtNtNtB5_4iter6traits8iterator8Iterator4nexts_0EBN_, symObjAddr: 0xC18, symBinAddr: 0x4114C, symSize: 0xB4 }
  - { offset: 0xAD0D6, size: 0x8, addend: 0x0, symName: __RINvMNtCsfvfooZQ3Axs_4core6optionINtB3_6OptionINtNtCs6IAuOt8vWmF_3syn10punctuated4PairRNtNtBN_8lifetime8LifetimeRNtNtBN_5token4PlusEE7or_elseNCNvXsc_BL_INtBL_5PairsB1n_B1N_ENtNtNtNtB5_4iter6traits8iterator8Iterator4nexts_0EBN_, symObjAddr: 0xCCC, symBinAddr: 0x41200, symSize: 0xB4 }
  - { offset: 0xAD139, size: 0x8, addend: 0x0, symName: __RINvMNtCsfvfooZQ3Axs_4core6optionINtB3_6OptionINtNtCse1nGBsou5OW_5alloc5boxed3BoxNtNtCs6IAuOt8vWmF_3syn4path11PathSegmentEE3mapB1h_NCNvMNtB1l_10punctuatedINtB2a_10PunctuatedB1h_NtNtB1l_5token7PathSepE10into_pairs0EB1l_, symObjAddr: 0xE70, symBinAddr: 0x412B4, symSize: 0x74 }
  - { offset: 0xAD1A4, size: 0x8, addend: 0x0, symName: __RINvMNtCsfvfooZQ3Axs_4core6optionINtB3_6OptionINtNtCse1nGBsou5OW_5alloc5boxed3BoxNtNtCs6IAuOt8vWmF_3syn4path11PathSegmentEE3mapINtNtB1l_10punctuated4PairB1h_NtNtB1l_5token7PathSepENCNvMB24_INtB24_10PunctuatedB1h_B2v_E3pop0EB1l_, symObjAddr: 0xEE4, symBinAddr: 0x41328, symSize: 0x70 }
  - { offset: 0xAD20F, size: 0x8, addend: 0x0, symName: __RINvMNtCsfvfooZQ3Axs_4core6optionINtB3_6OptionINtNtCse1nGBsou5OW_5alloc5boxed3BoxNtNtCs6IAuOt8vWmF_3syn8generics14TypeParamBoundEE3mapB1h_NCNvXs8_NtB1l_10punctuatedINtB2k_10PunctuatedB1h_NtNtB1l_5token4PlusENtNtNtNtB5_4iter6traits7collect12IntoIterator9into_iters_0EB1l_, symObjAddr: 0xF54, symBinAddr: 0x41398, symSize: 0x70 }
  - { offset: 0xAD28C, size: 0x8, addend: 0x0, symName: __RINvMNtCsfvfooZQ3Axs_4core6optionINtB3_6OptionNtCs3cP53eQoTwO_11proc_macro29TokenTreeE11map_or_elseNtBK_4SpanNvMse_BK_B1z_9call_siteNCNvNvMNtCs6IAuOt8vWmF_3syn5errorNtB2d_5Error11new_spanned11new_spanned0EB2f_, symObjAddr: 0xFC4, symBinAddr: 0x41408, symSize: 0xE4 }
  - { offset: 0xAD308, size: 0x8, addend: 0x0, symName: __RINvMNtCsfvfooZQ3Axs_4core6optionINtB3_6OptionNtCs3cP53eQoTwO_11proc_macro29TokenTreeE6map_orNtBK_4SpanNCNvNvMNtCs6IAuOt8vWmF_3syn5errorNtB1K_5Error11new_spanned11new_spanneds_0EB1M_, symObjAddr: 0x10A8, symBinAddr: 0x414EC, symSize: 0xC8 }
  - { offset: 0xAD393, size: 0x8, addend: 0x0, symName: __RINvMNtCsfvfooZQ3Axs_4core6optionINtB3_6OptionNtNtCs3cP53eQoTwO_11proc_macro28fallback4SpanE3mapNtNtBM_3imp4SpanNcNtB1w_8Fallback0ECs6IAuOt8vWmF_3syn, symObjAddr: 0x1170, symBinAddr: 0x415B4, symSize: 0x4C }
  - { offset: 0xAD416, size: 0x8, addend: 0x0, symName: __RINvMNtCsfvfooZQ3Axs_4core6optionINtB3_6OptionNtNtCs6IAuOt8vWmF_3syn4path11PathSegmentE3mapINtNtBM_10punctuated4PairBI_NtNtBM_5token7PathSepENcNtB1r_3End0EBM_, symObjAddr: 0x11BC, symBinAddr: 0x41600, symSize: 0xAC }
  - { offset: 0xAD49A, size: 0x8, addend: 0x0, symName: __RINvMNtCsfvfooZQ3Axs_4core6optionINtB3_6OptionNtNtCs6IAuOt8vWmF_3syn5token3MutE6map_orNtNtBM_4item16StaticMutabilityNcNtB1m_3Mut0EBM_, symObjAddr: 0x1268, symBinAddr: 0x416AC, symSize: 0xC4 }
  - { offset: 0xAD50C, size: 0x8, addend: 0x0, symName: __RINvMNtCsfvfooZQ3Axs_4core6optionINtB3_6OptionNtNtCs6IAuOt8vWmF_3syn5token5BraceE3mapNtNtBM_4stmt5BlockNCNvXsp_NtNtBM_4item7parsingNtB1N_11TraitItemFnNtNtBM_5parse5Parse5parse0EBM_, symObjAddr: 0x132C, symBinAddr: 0x41770, symSize: 0xAC }
  - { offset: 0xAD5B2, size: 0x8, addend: 0x0, symName: __RINvMNtCsfvfooZQ3Axs_4core6optionINtB3_6OptionNtNtCs6IAuOt8vWmF_3syn6buffer6CursorE6map_orbFG_IBI_L0_EEbEBM_, symObjAddr: 0x13D8, symBinAddr: 0x4181C, symSize: 0xBC }
  - { offset: 0xAD63D, size: 0x8, addend: 0x0, symName: __RINvMNtCsfvfooZQ3Axs_4core6optionINtB3_6OptionNtNtCs6IAuOt8vWmF_3syn6buffer6CursorE8and_thenBI_NvMs_BK_BI_4skipEBM_, symObjAddr: 0x1494, symBinAddr: 0x418D8, symSize: 0x58 }
  - { offset: 0xAD706, size: 0x8, addend: 0x0, symName: __RINvMNtCsfvfooZQ3Axs_4core6optionINtB3_6OptionNtNtNtCs6IAuOt8vWmF_3syn3pat7parsing13PatRangeBoundE3mapINtNtCse1nGBsou5OW_5alloc5boxed3BoxNtNtBO_4expr4ExprENvMs0_BK_BI_9into_exprEBO_, symObjAddr: 0x1624, symBinAddr: 0x41930, symSize: 0x8C }
  - { offset: 0xAD7D6, size: 0x8, addend: 0x0, symName: __RINvMNtCsfvfooZQ3Axs_4core6optionINtB3_6OptionQINtNtCse1nGBsou5OW_5alloc5boxed3BoxNtNtCs6IAuOt8vWmF_3syn4path11PathSegmentEE3mapQB1i_NvYBJ_INtNtB5_7convert5AsMutB1i_E6as_mutEB1m_, symObjAddr: 0x1700, symBinAddr: 0x419BC, symSize: 0x50 }
  - { offset: 0xAD8C1, size: 0x8, addend: 0x0, symName: __RINvMNtCsfvfooZQ3Axs_4core6optionINtB3_6OptionQNtNtCs6IAuOt8vWmF_3syn4path11PathSegmentE7or_elseNCNvXsF_NtBN_10punctuatedINtB1E_14PrivateIterMutBJ_NtNtBN_5token7PathSepENtNtNtNtB5_4iter6traits8iterator8Iterator4nexts_0EBN_, symObjAddr: 0x18F0, symBinAddr: 0x41A0C, symSize: 0xA8 }
  - { offset: 0xAD957, size: 0x8, addend: 0x0, symName: __RINvMNtCsfvfooZQ3Axs_4core6optionINtB3_6OptionQNtNtCs6IAuOt8vWmF_3syn4path11PathSegmentE7or_elseNCNvXsG_NtBN_10punctuatedINtB1E_14PrivateIterMutBJ_NtNtBN_5token7PathSepENtNtNtNtB5_4iter6traits12double_ended19DoubleEndedIterator9next_back0EBN_, symObjAddr: 0x1998, symBinAddr: 0x41AB4, symSize: 0xA8 }
  - { offset: 0xAD9FA, size: 0x8, addend: 0x0, symName: __RINvMNtCsfvfooZQ3Axs_4core6optionINtB3_6OptionQTNtNtCs6IAuOt8vWmF_3syn4path11PathSegmentNtNtBO_5token7PathSepEE3mapQBK_NCNCNvXsG_NtBO_10punctuatedINtB23_14PrivateIterMutBK_B1o_ENtNtNtNtB5_4iter6traits12double_ended19DoubleEndedIterator9next_back00EBO_, symObjAddr: 0x1C30, symBinAddr: 0x41B5C, symSize: 0x50 }
  - { offset: 0xADA65, size: 0x8, addend: 0x0, symName: __RINvMNtCsfvfooZQ3Axs_4core6optionINtB3_6OptionQTNtNtCs6IAuOt8vWmF_3syn4path11PathSegmentNtNtBO_5token7PathSepEE3mapQBK_NCNvXsF_NtBO_10punctuatedINtB21_14PrivateIterMutBK_B1o_ENtNtNtNtB5_4iter6traits8iterator8Iterator4next0EBO_, symObjAddr: 0x1C80, symBinAddr: 0x41BAC, symSize: 0x50 }
  - { offset: 0xADAF5, size: 0x8, addend: 0x0, symName: __RINvMNtCsfvfooZQ3Axs_4core6optionINtB3_6OptionRINtNtCse1nGBsou5OW_5alloc5boxed3BoxNtNtCs6IAuOt8vWmF_3syn2ty4TypeEE3mapRB1i_NvYBJ_INtNtB5_7convert5AsRefB1i_E6as_refEB1m_, symObjAddr: 0x1D70, symBinAddr: 0x41BFC, symSize: 0x50 }
  - { offset: 0xADB85, size: 0x8, addend: 0x0, symName: __RINvMNtCsfvfooZQ3Axs_4core6optionINtB3_6OptionRINtNtCse1nGBsou5OW_5alloc5boxed3BoxNtNtCs6IAuOt8vWmF_3syn2ty9BareFnArgEE3mapRB1i_NvYBJ_INtNtB5_7convert5AsRefB1i_E6as_refEB1m_, symObjAddr: 0x1DC0, symBinAddr: 0x41C4C, symSize: 0x50 }
  - { offset: 0xADC15, size: 0x8, addend: 0x0, symName: __RINvMNtCsfvfooZQ3Axs_4core6optionINtB3_6OptionRINtNtCse1nGBsou5OW_5alloc5boxed3BoxNtNtCs6IAuOt8vWmF_3syn3pat3PatEE3mapRB1i_NvYBJ_INtNtB5_7convert5AsRefB1i_E6as_refEB1m_, symObjAddr: 0x1E10, symBinAddr: 0x41C9C, symSize: 0x50 }
  - { offset: 0xADCA5, size: 0x8, addend: 0x0, symName: __RINvMNtCsfvfooZQ3Axs_4core6optionINtB3_6OptionRINtNtCse1nGBsou5OW_5alloc5boxed3BoxNtNtCs6IAuOt8vWmF_3syn3pat8FieldPatEE3mapRB1i_NvYBJ_INtNtB5_7convert5AsRefB1i_E6as_refEB1m_, symObjAddr: 0x1E60, symBinAddr: 0x41CEC, symSize: 0x50 }
  - { offset: 0xADD35, size: 0x8, addend: 0x0, symName: __RINvMNtCsfvfooZQ3Axs_4core6optionINtB3_6OptionRINtNtCse1nGBsou5OW_5alloc5boxed3BoxNtNtCs6IAuOt8vWmF_3syn4data5FieldEE3mapRB1i_NvYBJ_INtNtB5_7convert5AsRefB1i_E6as_refEB1m_, symObjAddr: 0x1EB0, symBinAddr: 0x41D3C, symSize: 0x50 }
  - { offset: 0xADDC5, size: 0x8, addend: 0x0, symName: __RINvMNtCsfvfooZQ3Axs_4core6optionINtB3_6OptionRINtNtCse1nGBsou5OW_5alloc5boxed3BoxNtNtCs6IAuOt8vWmF_3syn4data7VariantEE3mapRB1i_NvYBJ_INtNtB5_7convert5AsRefB1i_E6as_refEB1m_, symObjAddr: 0x1F00, symBinAddr: 0x41D8C, symSize: 0x50 }
  - { offset: 0xADE55, size: 0x8, addend: 0x0, symName: __RINvMNtCsfvfooZQ3Axs_4core6optionINtB3_6OptionRINtNtCse1nGBsou5OW_5alloc5boxed3BoxNtNtCs6IAuOt8vWmF_3syn4expr10FieldValueEE3mapRB1i_NvYBJ_INtNtB5_7convert5AsRefB1i_E6as_refEB1m_, symObjAddr: 0x1F50, symBinAddr: 0x41DDC, symSize: 0x50 }
  - { offset: 0xADED8, size: 0x8, addend: 0x0, symName: __RINvMNtCsfvfooZQ3Axs_4core6optionINtB3_6OptionRINtNtCse1nGBsou5OW_5alloc5boxed3BoxNtNtCs6IAuOt8vWmF_3syn4expr4ExprEE3mapRB1i_NvYBJ_INtNtB5_7convert5AsRefB1i_E6as_refEB1m_, symObjAddr: 0x1FA0, symBinAddr: 0x41E2C, symSize: 0x50 }
  - { offset: 0xADF68, size: 0x8, addend: 0x0, symName: __RINvMNtCsfvfooZQ3Axs_4core6optionINtB3_6OptionRINtNtCse1nGBsou5OW_5alloc5boxed3BoxNtNtCs6IAuOt8vWmF_3syn4item5FnArgEE3mapRB1i_NvYBJ_INtNtB5_7convert5AsRefB1i_E6as_refEB1m_, symObjAddr: 0x1FF0, symBinAddr: 0x41E7C, symSize: 0x50 }
  - { offset: 0xADFF8, size: 0x8, addend: 0x0, symName: __RINvMNtCsfvfooZQ3Axs_4core6optionINtB3_6OptionRINtNtCse1nGBsou5OW_5alloc5boxed3BoxNtNtCs6IAuOt8vWmF_3syn4item7UseTreeEE3mapRB1i_NvYBJ_INtNtB5_7convert5AsRefB1i_E6as_refEB1m_, symObjAddr: 0x2040, symBinAddr: 0x41ECC, symSize: 0x50 }
  - { offset: 0xAE088, size: 0x8, addend: 0x0, symName: __RINvMNtCsfvfooZQ3Axs_4core6optionINtB3_6OptionRINtNtCse1nGBsou5OW_5alloc5boxed3BoxNtNtCs6IAuOt8vWmF_3syn4path11PathSegmentEE3mapRB1i_NvYBJ_INtNtB5_7convert5AsRefB1i_E6as_refEB1m_, symObjAddr: 0x2090, symBinAddr: 0x41F1C, symSize: 0x50 }
  - { offset: 0xAE118, size: 0x8, addend: 0x0, symName: __RINvMNtCsfvfooZQ3Axs_4core6optionINtB3_6OptionRINtNtCse1nGBsou5OW_5alloc5boxed3BoxNtNtCs6IAuOt8vWmF_3syn4path15GenericArgumentEE3mapRB1i_NvYBJ_INtNtB5_7convert5AsRefB1i_E6as_refEB1m_, symObjAddr: 0x20E0, symBinAddr: 0x41F6C, symSize: 0x50 }
  - { offset: 0xAE1A8, size: 0x8, addend: 0x0, symName: __RINvMNtCsfvfooZQ3Axs_4core6optionINtB3_6OptionRINtNtCse1nGBsou5OW_5alloc5boxed3BoxNtNtCs6IAuOt8vWmF_3syn8generics12GenericParamEE3mapRB1i_NvYBJ_INtNtB5_7convert5AsRefB1i_E6as_refEB1m_, symObjAddr: 0x2130, symBinAddr: 0x41FBC, symSize: 0x50 }
  - { offset: 0xAE238, size: 0x8, addend: 0x0, symName: __RINvMNtCsfvfooZQ3Axs_4core6optionINtB3_6OptionRINtNtCse1nGBsou5OW_5alloc5boxed3BoxNtNtCs6IAuOt8vWmF_3syn8generics13CapturedParamEE3mapRB1i_NvYBJ_INtNtB5_7convert5AsRefB1i_E6as_refEB1m_, symObjAddr: 0x2180, symBinAddr: 0x4200C, symSize: 0x50 }
  - { offset: 0xAE2C8, size: 0x8, addend: 0x0, symName: __RINvMNtCsfvfooZQ3Axs_4core6optionINtB3_6OptionRINtNtCse1nGBsou5OW_5alloc5boxed3BoxNtNtCs6IAuOt8vWmF_3syn8generics14TypeParamBoundEE3mapRB1i_NvYBJ_INtNtB5_7convert5AsRefB1i_E6as_refEB1m_, symObjAddr: 0x21D0, symBinAddr: 0x4205C, symSize: 0x50 }
  - { offset: 0xAE358, size: 0x8, addend: 0x0, symName: __RINvMNtCsfvfooZQ3Axs_4core6optionINtB3_6OptionRINtNtCse1nGBsou5OW_5alloc5boxed3BoxNtNtCs6IAuOt8vWmF_3syn8generics14WherePredicateEE3mapRB1i_NvYBJ_INtNtB5_7convert5AsRefB1i_E6as_refEB1m_, symObjAddr: 0x2220, symBinAddr: 0x420AC, symSize: 0x50 }
  - { offset: 0xAE3E8, size: 0x8, addend: 0x0, symName: __RINvMNtCsfvfooZQ3Axs_4core6optionINtB3_6OptionRINtNtCse1nGBsou5OW_5alloc5boxed3BoxNtNtCs6IAuOt8vWmF_3syn8lifetime8LifetimeEE3mapRB1i_NvYBJ_INtNtB5_7convert5AsRefB1i_E6as_refEB1m_, symObjAddr: 0x2270, symBinAddr: 0x420FC, symSize: 0x50 }
  - { offset: 0xAE48C, size: 0x8, addend: 0x0, symName: __RINvMNtCsfvfooZQ3Axs_4core6optionINtB3_6OptionRNtNtCs6IAuOt8vWmF_3syn2ty4TypeE3mapINtNtBN_10punctuated4PairBI_RNtNtBN_5token5CommaENcNtB1i_3End0EBN_, symObjAddr: 0x233C, symBinAddr: 0x4214C, symSize: 0x68 }
  - { offset: 0xAE50F, size: 0x8, addend: 0x0, symName: __RINvMNtCsfvfooZQ3Axs_4core6optionINtB3_6OptionRNtNtCs6IAuOt8vWmF_3syn2ty9BareFnArgE3mapINtNtBN_10punctuated4PairBI_RNtNtBN_5token5CommaENcNtB1n_3End0EBN_, symObjAddr: 0x23A4, symBinAddr: 0x421B4, symSize: 0x68 }
  - { offset: 0xAE592, size: 0x8, addend: 0x0, symName: __RINvMNtCsfvfooZQ3Axs_4core6optionINtB3_6OptionRNtNtCs6IAuOt8vWmF_3syn3pat3PatE3mapINtNtBN_10punctuated4PairBI_RNtNtBN_5token2OrENcNtB1i_3End0EBN_, symObjAddr: 0x240C, symBinAddr: 0x4221C, symSize: 0x68 }
  - { offset: 0xAE615, size: 0x8, addend: 0x0, symName: __RINvMNtCsfvfooZQ3Axs_4core6optionINtB3_6OptionRNtNtCs6IAuOt8vWmF_3syn3pat3PatE3mapINtNtBN_10punctuated4PairBI_RNtNtBN_5token5CommaENcNtB1i_3End0EBN_, symObjAddr: 0x2474, symBinAddr: 0x42284, symSize: 0x68 }
  - { offset: 0xAE698, size: 0x8, addend: 0x0, symName: __RINvMNtCsfvfooZQ3Axs_4core6optionINtB3_6OptionRNtNtCs6IAuOt8vWmF_3syn3pat8FieldPatE3mapINtNtBN_10punctuated4PairBI_RNtNtBN_5token5CommaENcNtB1n_3End0EBN_, symObjAddr: 0x24DC, symBinAddr: 0x422EC, symSize: 0x68 }
  - { offset: 0xAE71B, size: 0x8, addend: 0x0, symName: __RINvMNtCsfvfooZQ3Axs_4core6optionINtB3_6OptionRNtNtCs6IAuOt8vWmF_3syn4data5FieldE3mapINtNtBN_10punctuated4PairBI_RNtNtBN_5token5CommaENcNtB1l_3End0EBN_, symObjAddr: 0x2544, symBinAddr: 0x42354, symSize: 0x68 }
  - { offset: 0xAE7B8, size: 0x8, addend: 0x0, symName: __RINvMNtCsfvfooZQ3Axs_4core6optionINtB3_6OptionRNtNtCs6IAuOt8vWmF_3syn4data7VariantE3mapINtNtBN_10punctuated4PairBI_RNtNtBN_5token5CommaENcNtB1n_3End0EBN_, symObjAddr: 0x26FC, symBinAddr: 0x423BC, symSize: 0x68 }
  - { offset: 0xAE83B, size: 0x8, addend: 0x0, symName: __RINvMNtCsfvfooZQ3Axs_4core6optionINtB3_6OptionRNtNtCs6IAuOt8vWmF_3syn4expr10FieldValueE3mapINtNtBN_10punctuated4PairBI_RNtNtBN_5token5CommaENcNtB1r_3End0EBN_, symObjAddr: 0x2764, symBinAddr: 0x42424, symSize: 0x68 }
  - { offset: 0xAE8BE, size: 0x8, addend: 0x0, symName: __RINvMNtCsfvfooZQ3Axs_4core6optionINtB3_6OptionRNtNtCs6IAuOt8vWmF_3syn4expr4ExprE3mapINtNtBN_10punctuated4PairBI_RNtNtBN_5token5CommaENcNtB1k_3End0EBN_, symObjAddr: 0x27CC, symBinAddr: 0x4248C, symSize: 0x68 }
  - { offset: 0xAE941, size: 0x8, addend: 0x0, symName: __RINvMNtCsfvfooZQ3Axs_4core6optionINtB3_6OptionRNtNtCs6IAuOt8vWmF_3syn4item5FnArgE3mapINtNtBN_10punctuated4PairBI_RNtNtBN_5token5CommaENcNtB1l_3End0EBN_, symObjAddr: 0x2834, symBinAddr: 0x424F4, symSize: 0x68 }
  - { offset: 0xAE9EB, size: 0x8, addend: 0x0, symName: __RINvMNtCsfvfooZQ3Axs_4core6optionINtB3_6OptionRNtNtCs6IAuOt8vWmF_3syn4item7UseTreeE3mapINtNtBN_10punctuated4PairBI_RNtNtBN_5token5CommaENcNtB1n_3End0EBN_, symObjAddr: 0x29EC, symBinAddr: 0x4255C, symSize: 0x68 }
  - { offset: 0xAEA6E, size: 0x8, addend: 0x0, symName: __RINvMNtCsfvfooZQ3Axs_4core6optionINtB3_6OptionRNtNtCs6IAuOt8vWmF_3syn4path11PathSegmentE3mapINtNtBN_10punctuated4PairBI_RNtNtBN_5token7PathSepENcNtB1s_3End0EBN_, symObjAddr: 0x2A54, symBinAddr: 0x425C4, symSize: 0x68 }
  - { offset: 0xAEAD9, size: 0x8, addend: 0x0, symName: __RINvMNtCsfvfooZQ3Axs_4core6optionINtB3_6OptionRNtNtCs6IAuOt8vWmF_3syn4path11PathSegmentE7or_elseNCNvXsw_NtBN_10punctuatedINtB1E_11PrivateIterBJ_NtNtBN_5token7PathSepENtNtNtNtB5_4iter6traits8iterator8Iterator4nexts_0EBN_, symObjAddr: 0x2ABC, symBinAddr: 0x4262C, symSize: 0xA8 }
  - { offset: 0xAEB55, size: 0x8, addend: 0x0, symName: __RINvMNtCsfvfooZQ3Axs_4core6optionINtB3_6OptionRNtNtCs6IAuOt8vWmF_3syn4path11PathSegmentE7or_elseNCNvXsx_NtBN_10punctuatedINtB1E_11PrivateIterBJ_NtNtBN_5token7PathSepENtNtNtNtB5_4iter6traits12double_ended19DoubleEndedIterator9next_back0EBN_, symObjAddr: 0x2B64, symBinAddr: 0x426D4, symSize: 0xA8 }
  - { offset: 0xAEBCF, size: 0x8, addend: 0x0, symName: __RINvMNtCsfvfooZQ3Axs_4core6optionINtB3_6OptionRNtNtCs6IAuOt8vWmF_3syn4path15GenericArgumentE3mapINtNtBN_10punctuated4PairBI_RNtNtBN_5token5CommaENcNtB1w_3End0EBN_, symObjAddr: 0x2C0C, symBinAddr: 0x4277C, symSize: 0x68 }
  - { offset: 0xAEC3A, size: 0x8, addend: 0x0, symName: __RINvMNtCsfvfooZQ3Axs_4core6optionINtB3_6OptionRNtNtCs6IAuOt8vWmF_3syn5token3MutE3mapBJ_NCNvXs9_NtNtBN_4item7parsingNtB1x_8ReceiverNtNtBN_5parse5Parse5parse0EBN_, symObjAddr: 0x2C74, symBinAddr: 0x427E4, symSize: 0x5C }
  - { offset: 0xAECBD, size: 0x8, addend: 0x0, symName: __RINvMNtCsfvfooZQ3Axs_4core6optionINtB3_6OptionRNtNtCs6IAuOt8vWmF_3syn8generics12GenericParamE3mapINtNtBN_10punctuated4PairBI_RNtNtBN_5token5CommaENcNtB1x_3End0EBN_, symObjAddr: 0x2CD0, symBinAddr: 0x42840, symSize: 0x68 }
  - { offset: 0xAED5A, size: 0x8, addend: 0x0, symName: __RINvMNtCsfvfooZQ3Axs_4core6optionINtB3_6OptionRNtNtCs6IAuOt8vWmF_3syn8generics13CapturedParamE3mapINtNtBN_10punctuated4PairBI_RNtNtBN_5token5CommaENcNtB1y_3End0EBN_, symObjAddr: 0x2E88, symBinAddr: 0x428A8, symSize: 0x68 }
  - { offset: 0xAEDDD, size: 0x8, addend: 0x0, symName: __RINvMNtCsfvfooZQ3Axs_4core6optionINtB3_6OptionRNtNtCs6IAuOt8vWmF_3syn8generics14TypeParamBoundE3mapINtNtBN_10punctuated4PairBI_RNtNtBN_5token4PlusENcNtB1z_3End0EBN_, symObjAddr: 0x2EF0, symBinAddr: 0x42910, symSize: 0x68 }
  - { offset: 0xAEE48, size: 0x8, addend: 0x0, symName: __RINvMNtCsfvfooZQ3Axs_4core6optionINtB3_6OptionRNtNtCs6IAuOt8vWmF_3syn8generics14TypeParamBoundE7or_elseNCNvXsw_NtBN_10punctuatedINtB1L_11PrivateIterBJ_NtNtBN_5token4PlusENtNtNtNtB5_4iter6traits8iterator8Iterator4nexts_0EBN_, symObjAddr: 0x2F58, symBinAddr: 0x42978, symSize: 0xA8 }
  - { offset: 0xAEED1, size: 0x8, addend: 0x0, symName: __RINvMNtCsfvfooZQ3Axs_4core6optionINtB3_6OptionRNtNtCs6IAuOt8vWmF_3syn8generics14TypeParamBoundE7or_elseNCNvXsx_NtBN_10punctuatedINtB1L_11PrivateIterBJ_NtNtBN_5token4PlusENtNtNtNtB5_4iter6traits12double_ended19DoubleEndedIterator9next_back0EBN_, symObjAddr: 0x3000, symBinAddr: 0x42A20, symSize: 0xA8 }
  - { offset: 0xAEF4B, size: 0x8, addend: 0x0, symName: __RINvMNtCsfvfooZQ3Axs_4core6optionINtB3_6OptionRNtNtCs6IAuOt8vWmF_3syn8generics14WherePredicateE3mapINtNtBN_10punctuated4PairBI_RNtNtBN_5token5CommaENcNtB1z_3End0EBN_, symObjAddr: 0x30A8, symBinAddr: 0x42AC8, symSize: 0x68 }
  - { offset: 0xAEFCE, size: 0x8, addend: 0x0, symName: __RINvMNtCsfvfooZQ3Axs_4core6optionINtB3_6OptionRNtNtCs6IAuOt8vWmF_3syn8lifetime8LifetimeE3mapINtNtBN_10punctuated4PairBI_RNtNtBN_5token4PlusENcNtB1s_3End0EBN_, symObjAddr: 0x3110, symBinAddr: 0x42B30, symSize: 0x68 }
  - { offset: 0xAF046, size: 0x8, addend: 0x0, symName: __RINvMNtCsfvfooZQ3Axs_4core6optionINtB3_6OptionRTNtNtCs6IAuOt8vWmF_3syn2ty4TypeNtNtBO_5token5CommaEE3mapINtNtBO_10punctuated4PairRBK_RB1e_ENCNvXsc_B1G_INtB1G_5PairsBK_B1e_ENtNtNtNtB5_4iter6traits8iterator8Iterator4next0EBO_, symObjAddr: 0x3178, symBinAddr: 0x42B98, symSize: 0x68 }
  - { offset: 0xAF0BE, size: 0x8, addend: 0x0, symName: __RINvMNtCsfvfooZQ3Axs_4core6optionINtB3_6OptionRTNtNtCs6IAuOt8vWmF_3syn2ty9BareFnArgNtNtBO_5token5CommaEE3mapINtNtBO_10punctuated4PairRBK_RB1j_ENCNvXsc_B1L_INtB1L_5PairsBK_B1j_ENtNtNtNtB5_4iter6traits8iterator8Iterator4next0EBO_, symObjAddr: 0x31E0, symBinAddr: 0x42C00, symSize: 0x68 }
  - { offset: 0xAF136, size: 0x8, addend: 0x0, symName: __RINvMNtCsfvfooZQ3Axs_4core6optionINtB3_6OptionRTNtNtCs6IAuOt8vWmF_3syn3pat3PatNtNtBO_5token2OrEE3mapINtNtBO_10punctuated4PairRBK_RB1e_ENCNvXsc_B1D_INtB1D_5PairsBK_B1e_ENtNtNtNtB5_4iter6traits8iterator8Iterator4next0EBO_, symObjAddr: 0x3248, symBinAddr: 0x42C68, symSize: 0x68 }
  - { offset: 0xAF1AE, size: 0x8, addend: 0x0, symName: __RINvMNtCsfvfooZQ3Axs_4core6optionINtB3_6OptionRTNtNtCs6IAuOt8vWmF_3syn3pat3PatNtNtBO_5token5CommaEE3mapINtNtBO_10punctuated4PairRBK_RB1e_ENCNvXsc_B1G_INtB1G_5PairsBK_B1e_ENtNtNtNtB5_4iter6traits8iterator8Iterator4next0EBO_, symObjAddr: 0x32B0, symBinAddr: 0x42CD0, symSize: 0x68 }
  - { offset: 0xAF226, size: 0x8, addend: 0x0, symName: __RINvMNtCsfvfooZQ3Axs_4core6optionINtB3_6OptionRTNtNtCs6IAuOt8vWmF_3syn3pat8FieldPatNtNtBO_5token5CommaEE3mapINtNtBO_10punctuated4PairRBK_RB1j_ENCNvXsc_B1L_INtB1L_5PairsBK_B1j_ENtNtNtNtB5_4iter6traits8iterator8Iterator4next0EBO_, symObjAddr: 0x3318, symBinAddr: 0x42D38, symSize: 0x68 }
  - { offset: 0xAF291, size: 0x8, addend: 0x0, symName: __RINvMNtCsfvfooZQ3Axs_4core6optionINtB3_6OptionRTNtNtCs6IAuOt8vWmF_3syn4data5FieldNtNtBO_5token5CommaEE3mapINtNtBO_10punctuated4PairRBK_RB1h_ENCNvXsc_B1J_INtB1J_5PairsBK_B1h_ENtNtNtNtB5_4iter6traits8iterator8Iterator4next0EBO_, symObjAddr: 0x3380, symBinAddr: 0x42DA0, symSize: 0x68 }
  - { offset: 0xAF309, size: 0x8, addend: 0x0, symName: __RINvMNtCsfvfooZQ3Axs_4core6optionINtB3_6OptionRTNtNtCs6IAuOt8vWmF_3syn4data7VariantNtNtBO_5token5CommaEE3mapINtNtBO_10punctuated4PairRBK_RB1j_ENCNvXsc_B1L_INtB1L_5PairsBK_B1j_ENtNtNtNtB5_4iter6traits8iterator8Iterator4next0EBO_, symObjAddr: 0x3488, symBinAddr: 0x42E08, symSize: 0x68 }
  - { offset: 0xAF381, size: 0x8, addend: 0x0, symName: __RINvMNtCsfvfooZQ3Axs_4core6optionINtB3_6OptionRTNtNtCs6IAuOt8vWmF_3syn4expr10FieldValueNtNtBO_5token5CommaEE3mapINtNtBO_10punctuated4PairRBK_RB1n_ENCNvXsc_B1P_INtB1P_5PairsBK_B1n_ENtNtNtNtB5_4iter6traits8iterator8Iterator4next0EBO_, symObjAddr: 0x34F0, symBinAddr: 0x42E70, symSize: 0x68 }
  - { offset: 0xAF3F9, size: 0x8, addend: 0x0, symName: __RINvMNtCsfvfooZQ3Axs_4core6optionINtB3_6OptionRTNtNtCs6IAuOt8vWmF_3syn4expr4ExprNtNtBO_5token5CommaEE3mapINtNtBO_10punctuated4PairRBK_RB1g_ENCNvXsc_B1I_INtB1I_5PairsBK_B1g_ENtNtNtNtB5_4iter6traits8iterator8Iterator4next0EBO_, symObjAddr: 0x3558, symBinAddr: 0x42ED8, symSize: 0x68 }
  - { offset: 0xAF464, size: 0x8, addend: 0x0, symName: __RINvMNtCsfvfooZQ3Axs_4core6optionINtB3_6OptionRTNtNtCs6IAuOt8vWmF_3syn4item5FnArgNtNtBO_5token5CommaEE3mapINtNtBO_10punctuated4PairRBK_RB1h_ENCNvXsc_B1J_INtB1J_5PairsBK_B1h_ENtNtNtNtB5_4iter6traits8iterator8Iterator4next0EBO_, symObjAddr: 0x35C0, symBinAddr: 0x42F40, symSize: 0x68 }
  - { offset: 0xAF4DC, size: 0x8, addend: 0x0, symName: __RINvMNtCsfvfooZQ3Axs_4core6optionINtB3_6OptionRTNtNtCs6IAuOt8vWmF_3syn4item7UseTreeNtNtBO_5token5CommaEE3mapINtNtBO_10punctuated4PairRBK_RB1j_ENCNvXsc_B1L_INtB1L_5PairsBK_B1j_ENtNtNtNtB5_4iter6traits8iterator8Iterator4next0EBO_, symObjAddr: 0x36C8, symBinAddr: 0x42FA8, symSize: 0x68 }
  - { offset: 0xAF547, size: 0x8, addend: 0x0, symName: __RINvMNtCsfvfooZQ3Axs_4core6optionINtB3_6OptionRTNtNtCs6IAuOt8vWmF_3syn4path11PathSegmentNtNtBO_5token7PathSepEE3mapINtNtBO_10punctuated4PairRBK_RB1o_ENCNvXsc_B1S_INtB1S_5PairsBK_B1o_ENtNtNtNtB5_4iter6traits8iterator8Iterator4next0EBO_, symObjAddr: 0x3730, symBinAddr: 0x43010, symSize: 0x68 }
  - { offset: 0xAF5B2, size: 0x8, addend: 0x0, symName: __RINvMNtCsfvfooZQ3Axs_4core6optionINtB3_6OptionRTNtNtCs6IAuOt8vWmF_3syn4path11PathSegmentNtNtBO_5token7PathSepEE3mapRBK_NCNCNvXsx_NtBO_10punctuatedINtB23_11PrivateIterBK_B1o_ENtNtNtNtB5_4iter6traits12double_ended19DoubleEndedIterator9next_back00EBO_, symObjAddr: 0x3798, symBinAddr: 0x43078, symSize: 0x50 }
  - { offset: 0xAF61D, size: 0x8, addend: 0x0, symName: __RINvMNtCsfvfooZQ3Axs_4core6optionINtB3_6OptionRTNtNtCs6IAuOt8vWmF_3syn4path11PathSegmentNtNtBO_5token7PathSepEE3mapRBK_NCNvXsw_NtBO_10punctuatedINtB21_11PrivateIterBK_B1o_ENtNtNtNtB5_4iter6traits8iterator8Iterator4next0EBO_, symObjAddr: 0x37E8, symBinAddr: 0x430C8, symSize: 0x50 }
  - { offset: 0xAF695, size: 0x8, addend: 0x0, symName: __RINvMNtCsfvfooZQ3Axs_4core6optionINtB3_6OptionRTNtNtCs6IAuOt8vWmF_3syn4path15GenericArgumentNtNtBO_5token5CommaEE3mapINtNtBO_10punctuated4PairRBK_RB1s_ENCNvXsc_B1U_INtB1U_5PairsBK_B1s_ENtNtNtNtB5_4iter6traits8iterator8Iterator4next0EBO_, symObjAddr: 0x3838, symBinAddr: 0x43118, symSize: 0x68 }
  - { offset: 0xAF700, size: 0x8, addend: 0x0, symName: __RINvMNtCsfvfooZQ3Axs_4core6optionINtB3_6OptionRTNtNtCs6IAuOt8vWmF_3syn8generics12GenericParamNtNtBO_5token5CommaEE3mapINtNtBO_10punctuated4PairRBK_RB1t_ENCNvXsc_B1V_INtB1V_5PairsBK_B1t_ENtNtNtNtB5_4iter6traits8iterator8Iterator4next0EBO_, symObjAddr: 0x38A0, symBinAddr: 0x43180, symSize: 0x68 }
  - { offset: 0xAF778, size: 0x8, addend: 0x0, symName: __RINvMNtCsfvfooZQ3Axs_4core6optionINtB3_6OptionRTNtNtCs6IAuOt8vWmF_3syn8generics13CapturedParamNtNtBO_5token5CommaEE3mapINtNtBO_10punctuated4PairRBK_RB1u_ENCNvXsc_B1W_INtB1W_5PairsBK_B1u_ENtNtNtNtB5_4iter6traits8iterator8Iterator4next0EBO_, symObjAddr: 0x39A8, symBinAddr: 0x431E8, symSize: 0x68 }
  - { offset: 0xAF7E3, size: 0x8, addend: 0x0, symName: __RINvMNtCsfvfooZQ3Axs_4core6optionINtB3_6OptionRTNtNtCs6IAuOt8vWmF_3syn8generics14TypeParamBoundNtNtBO_5token4PlusEE3mapINtNtBO_10punctuated4PairRBK_RB1v_ENCNvXsc_B1W_INtB1W_5PairsBK_B1v_ENtNtNtNtB5_4iter6traits8iterator8Iterator4next0EBO_, symObjAddr: 0x3A10, symBinAddr: 0x43250, symSize: 0x68 }
  - { offset: 0xAF84E, size: 0x8, addend: 0x0, symName: __RINvMNtCsfvfooZQ3Axs_4core6optionINtB3_6OptionRTNtNtCs6IAuOt8vWmF_3syn8generics14TypeParamBoundNtNtBO_5token4PlusEE3mapRBK_NCNCNvXsx_NtBO_10punctuatedINtB27_11PrivateIterBK_B1v_ENtNtNtNtB5_4iter6traits12double_ended19DoubleEndedIterator9next_back00EBO_, symObjAddr: 0x3A78, symBinAddr: 0x432B8, symSize: 0x50 }
  - { offset: 0xAF8B9, size: 0x8, addend: 0x0, symName: __RINvMNtCsfvfooZQ3Axs_4core6optionINtB3_6OptionRTNtNtCs6IAuOt8vWmF_3syn8generics14TypeParamBoundNtNtBO_5token4PlusEE3mapRBK_NCNvXsw_NtBO_10punctuatedINtB25_11PrivateIterBK_B1v_ENtNtNtNtB5_4iter6traits8iterator8Iterator4next0EBO_, symObjAddr: 0x3AC8, symBinAddr: 0x43308, symSize: 0x50 }
  - { offset: 0xAF931, size: 0x8, addend: 0x0, symName: __RINvMNtCsfvfooZQ3Axs_4core6optionINtB3_6OptionRTNtNtCs6IAuOt8vWmF_3syn8generics14WherePredicateNtNtBO_5token5CommaEE3mapINtNtBO_10punctuated4PairRBK_RB1v_ENCNvXsc_B1X_INtB1X_5PairsBK_B1v_ENtNtNtNtB5_4iter6traits8iterator8Iterator4next0EBO_, symObjAddr: 0x3B18, symBinAddr: 0x43358, symSize: 0x68 }
  - { offset: 0xAF9A9, size: 0x8, addend: 0x0, symName: __RINvMNtCsfvfooZQ3Axs_4core6optionINtB3_6OptionRTNtNtCs6IAuOt8vWmF_3syn8lifetime8LifetimeNtNtBO_5token4PlusEE3mapINtNtBO_10punctuated4PairRBK_RB1o_ENCNvXsc_B1P_INtB1P_5PairsBK_B1o_ENtNtNtNtB5_4iter6traits8iterator8Iterator4next0EBO_, symObjAddr: 0x3B80, symBinAddr: 0x433C0, symSize: 0x68 }
  - { offset: 0xAFA14, size: 0x8, addend: 0x0, symName: __RINvMNtCsfvfooZQ3Axs_4core6optionINtB3_6OptionTNtNtCs6IAuOt8vWmF_3syn4path11PathSegmentNtNtBN_5token7PathSepEE3mapINtNtBN_10punctuated4PairBJ_B1n_ENCNvMB1R_INtB1R_10PunctuatedBJ_B1n_E3pops_0EBN_, symObjAddr: 0x3BE8, symBinAddr: 0x43428, symSize: 0xA8 }
  - { offset: 0xAFA80, size: 0x8, addend: 0x0, symName: __RINvMNtCsfvfooZQ3Axs_4core6optionINtB3_6OptionTNtNtCs6IAuOt8vWmF_3syn4path11PathSegmentNtNtBN_5token7PathSepEE3mapINtNtBN_10punctuated4PairBJ_B1n_ENCNvXsj_B1R_INtB1R_9IntoPairsBJ_B1n_ENtNtNtNtB5_4iter6traits8iterator8Iterator4next0EBN_, symObjAddr: 0x3C90, symBinAddr: 0x434D0, symSize: 0xA8 }
  - { offset: 0xAFB2F, size: 0x8, addend: 0x0, symName: __RINvMNtCsfvfooZQ3Axs_4core6optionINtB3_6OptionTNtNtCs6IAuOt8vWmF_3syn8lifetime8LifetimeNtNtBN_6buffer6CursorEE10ok_or_elseNtNtBN_5error5ErrorNCNCNvXNtBL_7parsingBJ_NtNtBN_5parse5Parse5parse00EBN_, symObjAddr: 0x3D38, symBinAddr: 0x43578, symSize: 0x98 }
  - { offset: 0xAFCC3, size: 0x8, addend: 0x0, symName: __RINvMs3_NtCsfvfooZQ3Axs_4core3fmtNtB6_9Arguments6new_v1Kj2_KBS_ECs6IAuOt8vWmF_3syn, symObjAddr: 0x3DD0, symBinAddr: 0x43610, symSize: 0x50 }
  - { offset: 0xAFD1C, size: 0x8, addend: 0x0, symName: __RNvMNtCsfvfooZQ3Axs_4core6optionINtB2_6OptionINtNtCse1nGBsou5OW_5alloc5boxed3BoxNtNtCs6IAuOt8vWmF_3syn2ty4TypeEE4takeB1k_, symObjAddr: 0x45C8, symBinAddr: 0x43C90, symSize: 0x28 }
  - { offset: 0xAFDAF, size: 0x8, addend: 0x0, symName: __RNvMNtCsfvfooZQ3Axs_4core6optionINtB2_6OptionINtNtCse1nGBsou5OW_5alloc5boxed3BoxNtNtCs6IAuOt8vWmF_3syn2ty4TypeEE6as_refB1k_, symObjAddr: 0x45F0, symBinAddr: 0x43CB8, symSize: 0x4C }
  - { offset: 0xAFE15, size: 0x8, addend: 0x0, symName: __RNvMNtCsfvfooZQ3Axs_4core6optionINtB2_6OptionINtNtCse1nGBsou5OW_5alloc5boxed3BoxNtNtCs6IAuOt8vWmF_3syn2ty4TypeEE7is_noneB1k_, symObjAddr: 0x463C, symBinAddr: 0x43D04, symSize: 0x28 }
  - { offset: 0xAFE5F, size: 0x8, addend: 0x0, symName: __RNvMNtCsfvfooZQ3Axs_4core6optionINtB2_6OptionINtNtCse1nGBsou5OW_5alloc5boxed3BoxNtNtCs6IAuOt8vWmF_3syn2ty4TypeEE7is_someB1k_, symObjAddr: 0x4664, symBinAddr: 0x43D2C, symSize: 0x28 }
  - { offset: 0xAFE98, size: 0x8, addend: 0x0, symName: __RNvMNtCsfvfooZQ3Axs_4core6optionINtB2_6OptionINtNtCse1nGBsou5OW_5alloc5boxed3BoxNtNtCs6IAuOt8vWmF_3syn2ty9BareFnArgEE4takeB1k_, symObjAddr: 0x468C, symBinAddr: 0x43D54, symSize: 0x28 }
  - { offset: 0xAFF2B, size: 0x8, addend: 0x0, symName: __RNvMNtCsfvfooZQ3Axs_4core6optionINtB2_6OptionINtNtCse1nGBsou5OW_5alloc5boxed3BoxNtNtCs6IAuOt8vWmF_3syn2ty9BareFnArgEE6as_refB1k_, symObjAddr: 0x46B4, symBinAddr: 0x43D7C, symSize: 0x4C }
  - { offset: 0xAFF91, size: 0x8, addend: 0x0, symName: __RNvMNtCsfvfooZQ3Axs_4core6optionINtB2_6OptionINtNtCse1nGBsou5OW_5alloc5boxed3BoxNtNtCs6IAuOt8vWmF_3syn2ty9BareFnArgEE7is_noneB1k_, symObjAddr: 0x4700, symBinAddr: 0x43DC8, symSize: 0x28 }
  - { offset: 0xAFFDB, size: 0x8, addend: 0x0, symName: __RNvMNtCsfvfooZQ3Axs_4core6optionINtB2_6OptionINtNtCse1nGBsou5OW_5alloc5boxed3BoxNtNtCs6IAuOt8vWmF_3syn2ty9BareFnArgEE7is_someB1k_, symObjAddr: 0x4728, symBinAddr: 0x43DF0, symSize: 0x28 }
  - { offset: 0xB0014, size: 0x8, addend: 0x0, symName: __RNvMNtCsfvfooZQ3Axs_4core6optionINtB2_6OptionINtNtCse1nGBsou5OW_5alloc5boxed3BoxNtNtCs6IAuOt8vWmF_3syn3pat3PatEE4takeB1k_, symObjAddr: 0x4750, symBinAddr: 0x43E18, symSize: 0x28 }
  - { offset: 0xB00A7, size: 0x8, addend: 0x0, symName: __RNvMNtCsfvfooZQ3Axs_4core6optionINtB2_6OptionINtNtCse1nGBsou5OW_5alloc5boxed3BoxNtNtCs6IAuOt8vWmF_3syn3pat3PatEE6as_refB1k_, symObjAddr: 0x4778, symBinAddr: 0x43E40, symSize: 0x4C }
  - { offset: 0xB010D, size: 0x8, addend: 0x0, symName: __RNvMNtCsfvfooZQ3Axs_4core6optionINtB2_6OptionINtNtCse1nGBsou5OW_5alloc5boxed3BoxNtNtCs6IAuOt8vWmF_3syn3pat3PatEE7is_noneB1k_, symObjAddr: 0x47C4, symBinAddr: 0x43E8C, symSize: 0x28 }
  - { offset: 0xB0157, size: 0x8, addend: 0x0, symName: __RNvMNtCsfvfooZQ3Axs_4core6optionINtB2_6OptionINtNtCse1nGBsou5OW_5alloc5boxed3BoxNtNtCs6IAuOt8vWmF_3syn3pat3PatEE7is_someB1k_, symObjAddr: 0x47EC, symBinAddr: 0x43EB4, symSize: 0x28 }
  - { offset: 0xB0190, size: 0x8, addend: 0x0, symName: __RNvMNtCsfvfooZQ3Axs_4core6optionINtB2_6OptionINtNtCse1nGBsou5OW_5alloc5boxed3BoxNtNtCs6IAuOt8vWmF_3syn3pat8FieldPatEE4takeB1k_, symObjAddr: 0x4814, symBinAddr: 0x43EDC, symSize: 0x28 }
  - { offset: 0xB0223, size: 0x8, addend: 0x0, symName: __RNvMNtCsfvfooZQ3Axs_4core6optionINtB2_6OptionINtNtCse1nGBsou5OW_5alloc5boxed3BoxNtNtCs6IAuOt8vWmF_3syn3pat8FieldPatEE6as_refB1k_, symObjAddr: 0x483C, symBinAddr: 0x43F04, symSize: 0x4C }
  - { offset: 0xB0289, size: 0x8, addend: 0x0, symName: __RNvMNtCsfvfooZQ3Axs_4core6optionINtB2_6OptionINtNtCse1nGBsou5OW_5alloc5boxed3BoxNtNtCs6IAuOt8vWmF_3syn3pat8FieldPatEE7is_noneB1k_, symObjAddr: 0x4888, symBinAddr: 0x43F50, symSize: 0x28 }
  - { offset: 0xB02D3, size: 0x8, addend: 0x0, symName: __RNvMNtCsfvfooZQ3Axs_4core6optionINtB2_6OptionINtNtCse1nGBsou5OW_5alloc5boxed3BoxNtNtCs6IAuOt8vWmF_3syn3pat8FieldPatEE7is_someB1k_, symObjAddr: 0x48B0, symBinAddr: 0x43F78, symSize: 0x28 }
  - { offset: 0xB030C, size: 0x8, addend: 0x0, symName: __RNvMNtCsfvfooZQ3Axs_4core6optionINtB2_6OptionINtNtCse1nGBsou5OW_5alloc5boxed3BoxNtNtCs6IAuOt8vWmF_3syn4data5FieldEE4takeB1k_, symObjAddr: 0x48D8, symBinAddr: 0x43FA0, symSize: 0x28 }
  - { offset: 0xB039F, size: 0x8, addend: 0x0, symName: __RNvMNtCsfvfooZQ3Axs_4core6optionINtB2_6OptionINtNtCse1nGBsou5OW_5alloc5boxed3BoxNtNtCs6IAuOt8vWmF_3syn4data5FieldEE6as_refB1k_, symObjAddr: 0x494C, symBinAddr: 0x43FC8, symSize: 0x4C }
  - { offset: 0xB0405, size: 0x8, addend: 0x0, symName: __RNvMNtCsfvfooZQ3Axs_4core6optionINtB2_6OptionINtNtCse1nGBsou5OW_5alloc5boxed3BoxNtNtCs6IAuOt8vWmF_3syn4data5FieldEE7is_noneB1k_, symObjAddr: 0x4998, symBinAddr: 0x44014, symSize: 0x28 }
  - { offset: 0xB044F, size: 0x8, addend: 0x0, symName: __RNvMNtCsfvfooZQ3Axs_4core6optionINtB2_6OptionINtNtCse1nGBsou5OW_5alloc5boxed3BoxNtNtCs6IAuOt8vWmF_3syn4data5FieldEE7is_someB1k_, symObjAddr: 0x49C0, symBinAddr: 0x4403C, symSize: 0x28 }
  - { offset: 0xB0488, size: 0x8, addend: 0x0, symName: __RNvMNtCsfvfooZQ3Axs_4core6optionINtB2_6OptionINtNtCse1nGBsou5OW_5alloc5boxed3BoxNtNtCs6IAuOt8vWmF_3syn4data7VariantEE4takeB1k_, symObjAddr: 0x49E8, symBinAddr: 0x44064, symSize: 0x28 }
  - { offset: 0xB051B, size: 0x8, addend: 0x0, symName: __RNvMNtCsfvfooZQ3Axs_4core6optionINtB2_6OptionINtNtCse1nGBsou5OW_5alloc5boxed3BoxNtNtCs6IAuOt8vWmF_3syn4data7VariantEE6as_refB1k_, symObjAddr: 0x4A10, symBinAddr: 0x4408C, symSize: 0x4C }
  - { offset: 0xB0581, size: 0x8, addend: 0x0, symName: __RNvMNtCsfvfooZQ3Axs_4core6optionINtB2_6OptionINtNtCse1nGBsou5OW_5alloc5boxed3BoxNtNtCs6IAuOt8vWmF_3syn4data7VariantEE7is_noneB1k_, symObjAddr: 0x4A5C, symBinAddr: 0x440D8, symSize: 0x28 }
  - { offset: 0xB05CB, size: 0x8, addend: 0x0, symName: __RNvMNtCsfvfooZQ3Axs_4core6optionINtB2_6OptionINtNtCse1nGBsou5OW_5alloc5boxed3BoxNtNtCs6IAuOt8vWmF_3syn4data7VariantEE7is_someB1k_, symObjAddr: 0x4A84, symBinAddr: 0x44100, symSize: 0x28 }
  - { offset: 0xB0604, size: 0x8, addend: 0x0, symName: __RNvMNtCsfvfooZQ3Axs_4core6optionINtB2_6OptionINtNtCse1nGBsou5OW_5alloc5boxed3BoxNtNtCs6IAuOt8vWmF_3syn4expr10FieldValueEE4takeB1k_, symObjAddr: 0x4AAC, symBinAddr: 0x44128, symSize: 0x28 }
  - { offset: 0xB0697, size: 0x8, addend: 0x0, symName: __RNvMNtCsfvfooZQ3Axs_4core6optionINtB2_6OptionINtNtCse1nGBsou5OW_5alloc5boxed3BoxNtNtCs6IAuOt8vWmF_3syn4expr10FieldValueEE6as_refB1k_, symObjAddr: 0x4AD4, symBinAddr: 0x44150, symSize: 0x4C }
  - { offset: 0xB06FD, size: 0x8, addend: 0x0, symName: __RNvMNtCsfvfooZQ3Axs_4core6optionINtB2_6OptionINtNtCse1nGBsou5OW_5alloc5boxed3BoxNtNtCs6IAuOt8vWmF_3syn4expr10FieldValueEE7is_noneB1k_, symObjAddr: 0x4B20, symBinAddr: 0x4419C, symSize: 0x28 }
  - { offset: 0xB0747, size: 0x8, addend: 0x0, symName: __RNvMNtCsfvfooZQ3Axs_4core6optionINtB2_6OptionINtNtCse1nGBsou5OW_5alloc5boxed3BoxNtNtCs6IAuOt8vWmF_3syn4expr10FieldValueEE7is_someB1k_, symObjAddr: 0x4B48, symBinAddr: 0x441C4, symSize: 0x28 }
  - { offset: 0xB0780, size: 0x8, addend: 0x0, symName: __RNvMNtCsfvfooZQ3Axs_4core6optionINtB2_6OptionINtNtCse1nGBsou5OW_5alloc5boxed3BoxNtNtCs6IAuOt8vWmF_3syn4expr4ExprEE4takeB1k_, symObjAddr: 0x4B70, symBinAddr: 0x441EC, symSize: 0x28 }
  - { offset: 0xB0813, size: 0x8, addend: 0x0, symName: __RNvMNtCsfvfooZQ3Axs_4core6optionINtB2_6OptionINtNtCse1nGBsou5OW_5alloc5boxed3BoxNtNtCs6IAuOt8vWmF_3syn4expr4ExprEE6as_refB1k_, symObjAddr: 0x4B98, symBinAddr: 0x44214, symSize: 0x4C }
  - { offset: 0xB0879, size: 0x8, addend: 0x0, symName: __RNvMNtCsfvfooZQ3Axs_4core6optionINtB2_6OptionINtNtCse1nGBsou5OW_5alloc5boxed3BoxNtNtCs6IAuOt8vWmF_3syn4expr4ExprEE7is_noneB1k_, symObjAddr: 0x4BE4, symBinAddr: 0x44260, symSize: 0x28 }
  - { offset: 0xB08C3, size: 0x8, addend: 0x0, symName: __RNvMNtCsfvfooZQ3Axs_4core6optionINtB2_6OptionINtNtCse1nGBsou5OW_5alloc5boxed3BoxNtNtCs6IAuOt8vWmF_3syn4expr4ExprEE7is_someB1k_, symObjAddr: 0x4C0C, symBinAddr: 0x44288, symSize: 0x28 }
  - { offset: 0xB08FC, size: 0x8, addend: 0x0, symName: __RNvMNtCsfvfooZQ3Axs_4core6optionINtB2_6OptionINtNtCse1nGBsou5OW_5alloc5boxed3BoxNtNtCs6IAuOt8vWmF_3syn4item5FnArgEE4takeB1k_, symObjAddr: 0x4C34, symBinAddr: 0x442B0, symSize: 0x28 }
  - { offset: 0xB098F, size: 0x8, addend: 0x0, symName: __RNvMNtCsfvfooZQ3Axs_4core6optionINtB2_6OptionINtNtCse1nGBsou5OW_5alloc5boxed3BoxNtNtCs6IAuOt8vWmF_3syn4item5FnArgEE6as_refB1k_, symObjAddr: 0x4C5C, symBinAddr: 0x442D8, symSize: 0x4C }
  - { offset: 0xB09F5, size: 0x8, addend: 0x0, symName: __RNvMNtCsfvfooZQ3Axs_4core6optionINtB2_6OptionINtNtCse1nGBsou5OW_5alloc5boxed3BoxNtNtCs6IAuOt8vWmF_3syn4item5FnArgEE7is_noneB1k_, symObjAddr: 0x4CA8, symBinAddr: 0x44324, symSize: 0x28 }
  - { offset: 0xB0A3F, size: 0x8, addend: 0x0, symName: __RNvMNtCsfvfooZQ3Axs_4core6optionINtB2_6OptionINtNtCse1nGBsou5OW_5alloc5boxed3BoxNtNtCs6IAuOt8vWmF_3syn4item5FnArgEE7is_someB1k_, symObjAddr: 0x4CD0, symBinAddr: 0x4434C, symSize: 0x28 }
  - { offset: 0xB0A78, size: 0x8, addend: 0x0, symName: __RNvMNtCsfvfooZQ3Axs_4core6optionINtB2_6OptionINtNtCse1nGBsou5OW_5alloc5boxed3BoxNtNtCs6IAuOt8vWmF_3syn4item7UseTreeEE4takeB1k_, symObjAddr: 0x4CF8, symBinAddr: 0x44374, symSize: 0x28 }
  - { offset: 0xB0B0B, size: 0x8, addend: 0x0, symName: __RNvMNtCsfvfooZQ3Axs_4core6optionINtB2_6OptionINtNtCse1nGBsou5OW_5alloc5boxed3BoxNtNtCs6IAuOt8vWmF_3syn4item7UseTreeEE6as_refB1k_, symObjAddr: 0x4D20, symBinAddr: 0x4439C, symSize: 0x4C }
  - { offset: 0xB0B71, size: 0x8, addend: 0x0, symName: __RNvMNtCsfvfooZQ3Axs_4core6optionINtB2_6OptionINtNtCse1nGBsou5OW_5alloc5boxed3BoxNtNtCs6IAuOt8vWmF_3syn4item7UseTreeEE7is_noneB1k_, symObjAddr: 0x4D6C, symBinAddr: 0x443E8, symSize: 0x28 }
  - { offset: 0xB0BBB, size: 0x8, addend: 0x0, symName: __RNvMNtCsfvfooZQ3Axs_4core6optionINtB2_6OptionINtNtCse1nGBsou5OW_5alloc5boxed3BoxNtNtCs6IAuOt8vWmF_3syn4item7UseTreeEE7is_someB1k_, symObjAddr: 0x4D94, symBinAddr: 0x44410, symSize: 0x28 }
  - { offset: 0xB0BF4, size: 0x8, addend: 0x0, symName: __RNvMNtCsfvfooZQ3Axs_4core6optionINtB2_6OptionINtNtCse1nGBsou5OW_5alloc5boxed3BoxNtNtCs6IAuOt8vWmF_3syn4path11PathSegmentEE4takeB1k_, symObjAddr: 0x4DBC, symBinAddr: 0x44438, symSize: 0x28 }
  - { offset: 0xB0C7A, size: 0x8, addend: 0x0, symName: __RNvMNtCsfvfooZQ3Axs_4core6optionINtB2_6OptionINtNtCse1nGBsou5OW_5alloc5boxed3BoxNtNtCs6IAuOt8vWmF_3syn4path11PathSegmentEE6as_mutB1k_, symObjAddr: 0x4DE4, symBinAddr: 0x44460, symSize: 0x4C }
  - { offset: 0xB0CD1, size: 0x8, addend: 0x0, symName: __RNvMNtCsfvfooZQ3Axs_4core6optionINtB2_6OptionINtNtCse1nGBsou5OW_5alloc5boxed3BoxNtNtCs6IAuOt8vWmF_3syn4path11PathSegmentEE6as_refB1k_, symObjAddr: 0x4E30, symBinAddr: 0x444AC, symSize: 0x4C }
  - { offset: 0xB0D37, size: 0x8, addend: 0x0, symName: __RNvMNtCsfvfooZQ3Axs_4core6optionINtB2_6OptionINtNtCse1nGBsou5OW_5alloc5boxed3BoxNtNtCs6IAuOt8vWmF_3syn4path11PathSegmentEE7is_noneB1k_, symObjAddr: 0x4E7C, symBinAddr: 0x444F8, symSize: 0x28 }
  - { offset: 0xB0D81, size: 0x8, addend: 0x0, symName: __RNvMNtCsfvfooZQ3Axs_4core6optionINtB2_6OptionINtNtCse1nGBsou5OW_5alloc5boxed3BoxNtNtCs6IAuOt8vWmF_3syn4path11PathSegmentEE7is_someB1k_, symObjAddr: 0x4EA4, symBinAddr: 0x44520, symSize: 0x28 }
  - { offset: 0xB0DBA, size: 0x8, addend: 0x0, symName: __RNvMNtCsfvfooZQ3Axs_4core6optionINtB2_6OptionINtNtCse1nGBsou5OW_5alloc5boxed3BoxNtNtCs6IAuOt8vWmF_3syn4path15GenericArgumentEE4takeB1k_, symObjAddr: 0x4ECC, symBinAddr: 0x44548, symSize: 0x28 }
  - { offset: 0xB0E4D, size: 0x8, addend: 0x0, symName: __RNvMNtCsfvfooZQ3Axs_4core6optionINtB2_6OptionINtNtCse1nGBsou5OW_5alloc5boxed3BoxNtNtCs6IAuOt8vWmF_3syn4path15GenericArgumentEE6as_refB1k_, symObjAddr: 0x4EF4, symBinAddr: 0x44570, symSize: 0x4C }
  - { offset: 0xB0EB3, size: 0x8, addend: 0x0, symName: __RNvMNtCsfvfooZQ3Axs_4core6optionINtB2_6OptionINtNtCse1nGBsou5OW_5alloc5boxed3BoxNtNtCs6IAuOt8vWmF_3syn4path15GenericArgumentEE7is_noneB1k_, symObjAddr: 0x4F40, symBinAddr: 0x445BC, symSize: 0x28 }
  - { offset: 0xB0EFD, size: 0x8, addend: 0x0, symName: __RNvMNtCsfvfooZQ3Axs_4core6optionINtB2_6OptionINtNtCse1nGBsou5OW_5alloc5boxed3BoxNtNtCs6IAuOt8vWmF_3syn4path15GenericArgumentEE7is_someB1k_, symObjAddr: 0x4F68, symBinAddr: 0x445E4, symSize: 0x28 }
  - { offset: 0xB0F36, size: 0x8, addend: 0x0, symName: __RNvMNtCsfvfooZQ3Axs_4core6optionINtB2_6OptionINtNtCse1nGBsou5OW_5alloc5boxed3BoxNtNtCs6IAuOt8vWmF_3syn8generics12GenericParamEE4takeB1k_, symObjAddr: 0x4F90, symBinAddr: 0x4460C, symSize: 0x28 }
  - { offset: 0xB0FC9, size: 0x8, addend: 0x0, symName: __RNvMNtCsfvfooZQ3Axs_4core6optionINtB2_6OptionINtNtCse1nGBsou5OW_5alloc5boxed3BoxNtNtCs6IAuOt8vWmF_3syn8generics12GenericParamEE6as_refB1k_, symObjAddr: 0x5004, symBinAddr: 0x44634, symSize: 0x4C }
  - { offset: 0xB102F, size: 0x8, addend: 0x0, symName: __RNvMNtCsfvfooZQ3Axs_4core6optionINtB2_6OptionINtNtCse1nGBsou5OW_5alloc5boxed3BoxNtNtCs6IAuOt8vWmF_3syn8generics12GenericParamEE7is_noneB1k_, symObjAddr: 0x5050, symBinAddr: 0x44680, symSize: 0x28 }
  - { offset: 0xB1079, size: 0x8, addend: 0x0, symName: __RNvMNtCsfvfooZQ3Axs_4core6optionINtB2_6OptionINtNtCse1nGBsou5OW_5alloc5boxed3BoxNtNtCs6IAuOt8vWmF_3syn8generics12GenericParamEE7is_someB1k_, symObjAddr: 0x5078, symBinAddr: 0x446A8, symSize: 0x28 }
  - { offset: 0xB10B2, size: 0x8, addend: 0x0, symName: __RNvMNtCsfvfooZQ3Axs_4core6optionINtB2_6OptionINtNtCse1nGBsou5OW_5alloc5boxed3BoxNtNtCs6IAuOt8vWmF_3syn8generics13CapturedParamEE4takeB1k_, symObjAddr: 0x50A0, symBinAddr: 0x446D0, symSize: 0x28 }
  - { offset: 0xB1145, size: 0x8, addend: 0x0, symName: __RNvMNtCsfvfooZQ3Axs_4core6optionINtB2_6OptionINtNtCse1nGBsou5OW_5alloc5boxed3BoxNtNtCs6IAuOt8vWmF_3syn8generics13CapturedParamEE6as_refB1k_, symObjAddr: 0x50C8, symBinAddr: 0x446F8, symSize: 0x4C }
  - { offset: 0xB11AB, size: 0x8, addend: 0x0, symName: __RNvMNtCsfvfooZQ3Axs_4core6optionINtB2_6OptionINtNtCse1nGBsou5OW_5alloc5boxed3BoxNtNtCs6IAuOt8vWmF_3syn8generics13CapturedParamEE7is_noneB1k_, symObjAddr: 0x5114, symBinAddr: 0x44744, symSize: 0x28 }
  - { offset: 0xB11F5, size: 0x8, addend: 0x0, symName: __RNvMNtCsfvfooZQ3Axs_4core6optionINtB2_6OptionINtNtCse1nGBsou5OW_5alloc5boxed3BoxNtNtCs6IAuOt8vWmF_3syn8generics13CapturedParamEE7is_someB1k_, symObjAddr: 0x513C, symBinAddr: 0x4476C, symSize: 0x28 }
  - { offset: 0xB122E, size: 0x8, addend: 0x0, symName: __RNvMNtCsfvfooZQ3Axs_4core6optionINtB2_6OptionINtNtCse1nGBsou5OW_5alloc5boxed3BoxNtNtCs6IAuOt8vWmF_3syn8generics14TypeParamBoundEE4takeB1k_, symObjAddr: 0x5164, symBinAddr: 0x44794, symSize: 0x28 }
  - { offset: 0xB12C1, size: 0x8, addend: 0x0, symName: __RNvMNtCsfvfooZQ3Axs_4core6optionINtB2_6OptionINtNtCse1nGBsou5OW_5alloc5boxed3BoxNtNtCs6IAuOt8vWmF_3syn8generics14TypeParamBoundEE6as_refB1k_, symObjAddr: 0x518C, symBinAddr: 0x447BC, symSize: 0x4C }
  - { offset: 0xB1327, size: 0x8, addend: 0x0, symName: __RNvMNtCsfvfooZQ3Axs_4core6optionINtB2_6OptionINtNtCse1nGBsou5OW_5alloc5boxed3BoxNtNtCs6IAuOt8vWmF_3syn8generics14TypeParamBoundEE7is_noneB1k_, symObjAddr: 0x51D8, symBinAddr: 0x44808, symSize: 0x28 }
  - { offset: 0xB1371, size: 0x8, addend: 0x0, symName: __RNvMNtCsfvfooZQ3Axs_4core6optionINtB2_6OptionINtNtCse1nGBsou5OW_5alloc5boxed3BoxNtNtCs6IAuOt8vWmF_3syn8generics14TypeParamBoundEE7is_someB1k_, symObjAddr: 0x5200, symBinAddr: 0x44830, symSize: 0x28 }
  - { offset: 0xB13AA, size: 0x8, addend: 0x0, symName: __RNvMNtCsfvfooZQ3Axs_4core6optionINtB2_6OptionINtNtCse1nGBsou5OW_5alloc5boxed3BoxNtNtCs6IAuOt8vWmF_3syn8generics14WherePredicateEE4takeB1k_, symObjAddr: 0x5228, symBinAddr: 0x44858, symSize: 0x28 }
  - { offset: 0xB143D, size: 0x8, addend: 0x0, symName: __RNvMNtCsfvfooZQ3Axs_4core6optionINtB2_6OptionINtNtCse1nGBsou5OW_5alloc5boxed3BoxNtNtCs6IAuOt8vWmF_3syn8generics14WherePredicateEE6as_refB1k_, symObjAddr: 0x5250, symBinAddr: 0x44880, symSize: 0x4C }
  - { offset: 0xB14A3, size: 0x8, addend: 0x0, symName: __RNvMNtCsfvfooZQ3Axs_4core6optionINtB2_6OptionINtNtCse1nGBsou5OW_5alloc5boxed3BoxNtNtCs6IAuOt8vWmF_3syn8generics14WherePredicateEE7is_noneB1k_, symObjAddr: 0x529C, symBinAddr: 0x448CC, symSize: 0x28 }
  - { offset: 0xB14ED, size: 0x8, addend: 0x0, symName: __RNvMNtCsfvfooZQ3Axs_4core6optionINtB2_6OptionINtNtCse1nGBsou5OW_5alloc5boxed3BoxNtNtCs6IAuOt8vWmF_3syn8generics14WherePredicateEE7is_someB1k_, symObjAddr: 0x52C4, symBinAddr: 0x448F4, symSize: 0x28 }
  - { offset: 0xB1526, size: 0x8, addend: 0x0, symName: __RNvMNtCsfvfooZQ3Axs_4core6optionINtB2_6OptionINtNtCse1nGBsou5OW_5alloc5boxed3BoxNtNtCs6IAuOt8vWmF_3syn8lifetime8LifetimeEE4takeB1k_, symObjAddr: 0x52EC, symBinAddr: 0x4491C, symSize: 0x28 }
  - { offset: 0xB15B9, size: 0x8, addend: 0x0, symName: __RNvMNtCsfvfooZQ3Axs_4core6optionINtB2_6OptionINtNtCse1nGBsou5OW_5alloc5boxed3BoxNtNtCs6IAuOt8vWmF_3syn8lifetime8LifetimeEE6as_refB1k_, symObjAddr: 0x5314, symBinAddr: 0x44944, symSize: 0x4C }
  - { offset: 0xB161F, size: 0x8, addend: 0x0, symName: __RNvMNtCsfvfooZQ3Axs_4core6optionINtB2_6OptionINtNtCse1nGBsou5OW_5alloc5boxed3BoxNtNtCs6IAuOt8vWmF_3syn8lifetime8LifetimeEE7is_noneB1k_, symObjAddr: 0x5360, symBinAddr: 0x44990, symSize: 0x28 }
  - { offset: 0xB1669, size: 0x8, addend: 0x0, symName: __RNvMNtCsfvfooZQ3Axs_4core6optionINtB2_6OptionINtNtCse1nGBsou5OW_5alloc5boxed3BoxNtNtCs6IAuOt8vWmF_3syn8lifetime8LifetimeEE7is_someB1k_, symObjAddr: 0x5388, symBinAddr: 0x449B8, symSize: 0x28 }
  - { offset: 0xB16AF, size: 0x8, addend: 0x0, symName: __RNvMNtCsfvfooZQ3Axs_4core6optionINtB2_6OptionNtNtCs6IAuOt8vWmF_3syn3pat7PatRestE7is_someBL_, symObjAddr: 0x53D8, symBinAddr: 0x449E0, symSize: 0x2C }
  - { offset: 0xB1704, size: 0x8, addend: 0x0, symName: __RNvMNtCsfvfooZQ3Axs_4core6optionINtB2_6OptionNtNtCs6IAuOt8vWmF_3syn4expr5LabelE7is_noneBL_, symObjAddr: 0x5404, symBinAddr: 0x44A0C, symSize: 0x28 }
  - { offset: 0xB174E, size: 0x8, addend: 0x0, symName: __RNvMNtCsfvfooZQ3Axs_4core6optionINtB2_6OptionNtNtCs6IAuOt8vWmF_3syn4expr5LabelE7is_someBL_, symObjAddr: 0x542C, symBinAddr: 0x44A34, symSize: 0x28 }
  - { offset: 0xB17A3, size: 0x8, addend: 0x0, symName: __RNvMNtCsfvfooZQ3Axs_4core6optionINtB2_6OptionNtNtCs6IAuOt8vWmF_3syn4item9SignatureE7is_noneBL_, symObjAddr: 0x5454, symBinAddr: 0x44A5C, symSize: 0x28 }
  - { offset: 0xB17FA, size: 0x8, addend: 0x0, symName: __RNvMNtCsfvfooZQ3Axs_4core6optionINtB2_6OptionNtNtCs6IAuOt8vWmF_3syn4path30AngleBracketedGenericArgumentsE7is_someBL_, symObjAddr: 0x547C, symBinAddr: 0x44A84, symSize: 0x2C }
  - { offset: 0xB184F, size: 0x8, addend: 0x0, symName: __RNvMNtCsfvfooZQ3Axs_4core6optionINtB2_6OptionNtNtCs6IAuOt8vWmF_3syn4path5QSelfE7is_noneBL_, symObjAddr: 0x54A8, symBinAddr: 0x44AB0, symSize: 0x28 }
  - { offset: 0xB1899, size: 0x8, addend: 0x0, symName: __RNvMNtCsfvfooZQ3Axs_4core6optionINtB2_6OptionNtNtCs6IAuOt8vWmF_3syn4path5QSelfE7is_someBL_, symObjAddr: 0x54D0, symBinAddr: 0x44AD8, symSize: 0x28 }
  - { offset: 0xB18D2, size: 0x8, addend: 0x0, symName: __RNvMNtCsfvfooZQ3Axs_4core6optionINtB2_6OptionNtNtCs6IAuOt8vWmF_3syn5token2EqE7is_someBL_, symObjAddr: 0x54F8, symBinAddr: 0x44B00, symSize: 0x20 }
  - { offset: 0xB1927, size: 0x8, addend: 0x0, symName: __RNvMNtCsfvfooZQ3Axs_4core6optionINtB2_6OptionNtNtCs6IAuOt8vWmF_3syn5token2LtE7is_noneBL_, symObjAddr: 0x5518, symBinAddr: 0x44B20, symSize: 0x20 }
  - { offset: 0xB197E, size: 0x8, addend: 0x0, symName: __RNvMNtCsfvfooZQ3Axs_4core6optionINtB2_6OptionNtNtCs6IAuOt8vWmF_3syn5token2OrE7is_someBL_, symObjAddr: 0x5538, symBinAddr: 0x44B40, symSize: 0x20 }
  - { offset: 0xB19D3, size: 0x8, addend: 0x0, symName: __RNvMNtCsfvfooZQ3Axs_4core6optionINtB2_6OptionNtNtCs6IAuOt8vWmF_3syn5token3BoxE7is_noneBL_, symObjAddr: 0x5558, symBinAddr: 0x44B60, symSize: 0x20 }
  - { offset: 0xB1A1D, size: 0x8, addend: 0x0, symName: __RNvMNtCsfvfooZQ3Axs_4core6optionINtB2_6OptionNtNtCs6IAuOt8vWmF_3syn5token3BoxE7is_someBL_, symObjAddr: 0x5578, symBinAddr: 0x44B80, symSize: 0x20 }
  - { offset: 0xB1A56, size: 0x8, addend: 0x0, symName: __RNvMNtCsfvfooZQ3Axs_4core6optionINtB2_6OptionNtNtCs6IAuOt8vWmF_3syn5token3MutE6as_refBL_, symObjAddr: 0x5598, symBinAddr: 0x44BA0, symSize: 0x48 }
  - { offset: 0xB1ABC, size: 0x8, addend: 0x0, symName: __RNvMNtCsfvfooZQ3Axs_4core6optionINtB2_6OptionNtNtCs6IAuOt8vWmF_3syn5token3MutE7is_noneBL_, symObjAddr: 0x55E0, symBinAddr: 0x44BE8, symSize: 0x20 }
  - { offset: 0xB1B06, size: 0x8, addend: 0x0, symName: __RNvMNtCsfvfooZQ3Axs_4core6optionINtB2_6OptionNtNtCs6IAuOt8vWmF_3syn5token3MutE7is_someBL_, symObjAddr: 0x5600, symBinAddr: 0x44C08, symSize: 0x20 }
  - { offset: 0xB1B3F, size: 0x8, addend: 0x0, symName: __RNvMNtCsfvfooZQ3Axs_4core6optionINtB2_6OptionNtNtCs6IAuOt8vWmF_3syn5token3RawE7is_someBL_, symObjAddr: 0x5620, symBinAddr: 0x44C28, symSize: 0x20 }
  - { offset: 0xB1B94, size: 0x8, addend: 0x0, symName: __RNvMNtCsfvfooZQ3Axs_4core6optionINtB2_6OptionNtNtCs6IAuOt8vWmF_3syn5token3RefE7is_noneBL_, symObjAddr: 0x5640, symBinAddr: 0x44C48, symSize: 0x20 }
  - { offset: 0xB1BDE, size: 0x8, addend: 0x0, symName: __RNvMNtCsfvfooZQ3Axs_4core6optionINtB2_6OptionNtNtCs6IAuOt8vWmF_3syn5token3RefE7is_someBL_, symObjAddr: 0x5660, symBinAddr: 0x44C68, symSize: 0x20 }
  - { offset: 0xB1C33, size: 0x8, addend: 0x0, symName: __RNvMNtCsfvfooZQ3Axs_4core6optionINtB2_6OptionNtNtCs6IAuOt8vWmF_3syn5token4SemiE7is_noneBL_, symObjAddr: 0x5680, symBinAddr: 0x44C88, symSize: 0x20 }
  - { offset: 0xB1C7D, size: 0x8, addend: 0x0, symName: __RNvMNtCsfvfooZQ3Axs_4core6optionINtB2_6OptionNtNtCs6IAuOt8vWmF_3syn5token4SemiE7is_someBL_, symObjAddr: 0x56A0, symBinAddr: 0x44CA8, symSize: 0x20 }
  - { offset: 0xB1CB6, size: 0x8, addend: 0x0, symName: __RNvMNtCsfvfooZQ3Axs_4core6optionINtB2_6OptionNtNtCs6IAuOt8vWmF_3syn5token4StarE7is_someBL_, symObjAddr: 0x56C0, symBinAddr: 0x44CC8, symSize: 0x20 }
  - { offset: 0xB1D0B, size: 0x8, addend: 0x0, symName: __RNvMNtCsfvfooZQ3Axs_4core6optionINtB2_6OptionNtNtCs6IAuOt8vWmF_3syn5token5ColonE7is_noneBL_, symObjAddr: 0x56E0, symBinAddr: 0x44CE8, symSize: 0x20 }
  - { offset: 0xB1D55, size: 0x8, addend: 0x0, symName: __RNvMNtCsfvfooZQ3Axs_4core6optionINtB2_6OptionNtNtCs6IAuOt8vWmF_3syn5token5ColonE7is_someBL_, symObjAddr: 0x5700, symBinAddr: 0x44D08, symSize: 0x20 }
  - { offset: 0xB1DAA, size: 0x8, addend: 0x0, symName: __RNvMNtCsfvfooZQ3Axs_4core6optionINtB2_6OptionNtNtCs6IAuOt8vWmF_3syn5token5CommaE7is_noneBL_, symObjAddr: 0x5720, symBinAddr: 0x44D28, symSize: 0x20 }
  - { offset: 0xB1E1D, size: 0x8, addend: 0x0, symName: __RNvMNtCsfvfooZQ3Axs_4core6optionINtB2_6OptionNtNtCs6IAuOt8vWmF_3syn5token6UnsafeE7is_noneBL_, symObjAddr: 0x5740, symBinAddr: 0x44D48, symSize: 0x20 }
  - { offset: 0xB1E67, size: 0x8, addend: 0x0, symName: __RNvMNtCsfvfooZQ3Axs_4core6optionINtB2_6OptionNtNtCs6IAuOt8vWmF_3syn5token6UnsafeE7is_someBL_, symObjAddr: 0x5760, symBinAddr: 0x44D68, symSize: 0x20 }
  - { offset: 0xB1EBC, size: 0x8, addend: 0x0, symName: __RNvMNtCsfvfooZQ3Axs_4core6optionINtB2_6OptionNtNtCs6IAuOt8vWmF_3syn5token7DefaultE7is_noneBL_, symObjAddr: 0x5780, symBinAddr: 0x44D88, symSize: 0x20 }
  - { offset: 0xB1F2F, size: 0x8, addend: 0x0, symName: __RNvMNtCsfvfooZQ3Axs_4core6optionINtB2_6OptionNtNtCs6IAuOt8vWmF_3syn5token7PathSepE7is_noneBL_, symObjAddr: 0x57A0, symBinAddr: 0x44DA8, symSize: 0x20 }
  - { offset: 0xB1F79, size: 0x8, addend: 0x0, symName: __RNvMNtCsfvfooZQ3Axs_4core6optionINtB2_6OptionNtNtCs6IAuOt8vWmF_3syn5token7PathSepE7is_someBL_, symObjAddr: 0x57C0, symBinAddr: 0x44DC8, symSize: 0x20 }
  - { offset: 0xB1FCE, size: 0x8, addend: 0x0, symName: __RNvMNtCsfvfooZQ3Axs_4core6optionINtB2_6OptionNtNtCs6IAuOt8vWmF_3syn8generics11WhereClauseE7is_noneBL_, symObjAddr: 0x5830, symBinAddr: 0x44DE8, symSize: 0x2C }
  - { offset: 0xB2041, size: 0x8, addend: 0x0, symName: __RNvMNtCsfvfooZQ3Axs_4core6optionINtB2_6OptionNtNtCs6IAuOt8vWmF_3syn8generics14BoundLifetimesE7is_noneBL_, symObjAddr: 0x585C, symBinAddr: 0x44E14, symSize: 0x2C }
  - { offset: 0xB208B, size: 0x8, addend: 0x0, symName: __RNvMNtCsfvfooZQ3Axs_4core6optionINtB2_6OptionNtNtCs6IAuOt8vWmF_3syn8generics14BoundLifetimesE7is_someBL_, symObjAddr: 0x5888, symBinAddr: 0x44E40, symSize: 0x2C }
  - { offset: 0xB20E0, size: 0x8, addend: 0x0, symName: __RNvMNtCsfvfooZQ3Axs_4core6optionINtB2_6OptionNtNtCs6IAuOt8vWmF_3syn8lifetime8LifetimeE7is_noneBL_, symObjAddr: 0x5900, symBinAddr: 0x44E6C, symSize: 0x28 }
  - { offset: 0xB212A, size: 0x8, addend: 0x0, symName: __RNvMNtCsfvfooZQ3Axs_4core6optionINtB2_6OptionNtNtCs6IAuOt8vWmF_3syn8lifetime8LifetimeE7is_someBL_, symObjAddr: 0x5928, symBinAddr: 0x44E94, symSize: 0x28 }
  - { offset: 0xB2163, size: 0x8, addend: 0x0, symName: __RNvMNtCsfvfooZQ3Axs_4core6optionINtB2_6OptionNtNtNtCs6IAuOt8vWmF_3syn3pat7parsing13PatRangeBoundE7is_someBN_, symObjAddr: 0x5950, symBinAddr: 0x44EBC, symSize: 0x30 }
  - { offset: 0xB219C, size: 0x8, addend: 0x0, symName: __RNvMNtCsfvfooZQ3Axs_4core6optionINtB2_6OptionRNtCs3cP53eQoTwO_11proc_macro25IdentE7is_someCs6IAuOt8vWmF_3syn, symObjAddr: 0x5980, symBinAddr: 0x44EEC, symSize: 0x28 }
  - { offset: 0xB21E2, size: 0x8, addend: 0x0, symName: __RNvMNtCsfvfooZQ3Axs_4core6optionINtB2_6OptionRRNtNtCs6IAuOt8vWmF_3syn5token5CommaE7is_someBN_, symObjAddr: 0x59A8, symBinAddr: 0x44F14, symSize: 0x28 }
  - { offset: 0xB2237, size: 0x8, addend: 0x0, symName: __RNvMNtCsfvfooZQ3Axs_4core6optionINtB2_6OptionTIBv_NtNtCs6IAuOt8vWmF_3syn5token3NotENtNtBQ_4path4PathNtBO_3ForEE7is_noneBQ_, symObjAddr: 0x59D0, symBinAddr: 0x44F3C, symSize: 0x2C }
  - { offset: 0xB22C8, size: 0x8, addend: 0x0, symName: __RNvMNtCsfvfooZQ3Axs_4core6optionINtB2_6OptionTNtCs3cP53eQoTwO_11proc_macro24SpanNtBK_9DelimiterEE7is_noneCs6IAuOt8vWmF_3syn, symObjAddr: 0x59FC, symBinAddr: 0x44F68, symSize: 0x28 }
  - { offset: 0xB233B, size: 0x8, addend: 0x0, symName: __RNvMNtCsfvfooZQ3Axs_4core6optionINtB2_6OptionTNtCs3cP53eQoTwO_11proc_macro25IdentNtNtCs6IAuOt8vWmF_3syn5token5ColonEE7is_noneB1l_, symObjAddr: 0x5A24, symBinAddr: 0x44F90, symSize: 0x28 }
  - { offset: 0xB23B0, size: 0x8, addend: 0x0, symName: __RNvMNtCsfvfooZQ3Axs_4core6optionINtB2_6OptionTNtCs3cP53eQoTwO_11proc_macro25IdentNtNtCs6IAuOt8vWmF_3syn6buffer6CursorEE7is_someB1l_, symObjAddr: 0x5A4C, symBinAddr: 0x44FB8, symSize: 0x28 }
  - { offset: 0xB2414, size: 0x8, addend: 0x0, symName: __RNvMNtCsfvfooZQ3Axs_4core6optionINtB2_6OptionTNtNtCs6IAuOt8vWmF_3syn5token2EqNtNtBM_2ty4TypeEE7is_someBM_, symObjAddr: 0x5AF0, symBinAddr: 0x44FE0, symSize: 0x28 }
  - { offset: 0xB244D, size: 0x8, addend: 0x0, symName: __RNvMNtCsfvfooZQ3Axs_4core6optionINtB2_6OptionTNtNtCs6IAuOt8vWmF_3syn5token3AndIBv_NtNtBM_8lifetime8LifetimeEEE6as_refBM_, symObjAddr: 0x5B18, symBinAddr: 0x45008, symSize: 0x4C }
  - { offset: 0xB2497, size: 0x8, addend: 0x0, symName: __RNvMNtCsfvfooZQ3Axs_4core6optionINtB2_6OptionTNtNtCs6IAuOt8vWmF_3syn5token3AndIBv_NtNtBM_8lifetime8LifetimeEEE7is_someBM_, symObjAddr: 0x5B64, symBinAddr: 0x45054, symSize: 0x28 }
  - { offset: 0xB24DD, size: 0x8, addend: 0x0, symName: __RNvMNtCsfvfooZQ3Axs_4core6optionINtB2_6OptionTNtNtCs6IAuOt8vWmF_3syn5token4ElseINtNtCse1nGBsou5OW_5alloc5boxed3BoxNtNtBM_4expr4ExprEEE6as_mutBM_, symObjAddr: 0x5B8C, symBinAddr: 0x4507C, symSize: 0x4C }
  - { offset: 0xB2534, size: 0x8, addend: 0x0, symName: __RNvMNtCsfvfooZQ3Axs_4core6optionINtB2_6OptionTNtNtCs6IAuOt8vWmF_3syn5token4ElseINtNtCse1nGBsou5OW_5alloc5boxed3BoxNtNtBM_4expr4ExprEEE7is_someBM_, symObjAddr: 0x5BD8, symBinAddr: 0x450C8, symSize: 0x28 }
  - { offset: 0xB2596, size: 0x8, addend: 0x0, symName: __RNvMNtCsfvfooZQ3Axs_4core6optionINtB2_6OptionTNtNtCs6IAuOt8vWmF_3syn6buffer6CursorNtNtCs3cP53eQoTwO_11proc_macro25extra9DelimSpanBI_EE7is_someBM_, symObjAddr: 0x5C28, symBinAddr: 0x450F0, symSize: 0x20 }
  - { offset: 0xB25CF, size: 0x8, addend: 0x0, symName: __RNvMNtCsfvfooZQ3Axs_4core6optionINtB2_6OptionTNtNtCs6IAuOt8vWmF_3syn8lifetime8LifetimeNtNtBM_6buffer6CursorEE7is_someBM_, symObjAddr: 0x5C48, symBinAddr: 0x45110, symSize: 0x28 }
  - { offset: 0xB25FB, size: 0x8, addend: 0x0, symName: __RNvMNtCsfvfooZQ3Axs_4core6optionINtB2_6OptioncE9unwrap_orCs6IAuOt8vWmF_3syn, symObjAddr: 0x5C70, symBinAddr: 0x45138, symSize: 0x4C }
  - { offset: 0xB26DB, size: 0x8, addend: 0x0, symName: __RNvXs3_NtCs2cqEZUIJimJ_5quote9to_tokensINtNtCsfvfooZQ3Axs_4core6option6OptionINtNtCse1nGBsou5OW_5alloc5boxed3BoxNtNtCs6IAuOt8vWmF_3syn4expr4ExprEENtB5_8ToTokens9to_tokensB1Q_, symObjAddr: 0x6154, symBinAddr: 0x45354, symSize: 0x84 }
  - { offset: 0xB2737, size: 0x8, addend: 0x0, symName: __RNvXs3_NtCs2cqEZUIJimJ_5quote9to_tokensINtNtCsfvfooZQ3Axs_4core6option6OptionNtCs3cP53eQoTwO_11proc_macro25IdentENtB5_8ToTokens9to_tokensCs6IAuOt8vWmF_3syn, symObjAddr: 0x61D8, symBinAddr: 0x453D8, symSize: 0x84 }
  - { offset: 0xB2793, size: 0x8, addend: 0x0, symName: __RNvXs3_NtCs2cqEZUIJimJ_5quote9to_tokensINtNtCsfvfooZQ3Axs_4core6option6OptionNtNtCs6IAuOt8vWmF_3syn2ty3AbiENtB5_8ToTokens9to_tokensB1h_, symObjAddr: 0x625C, symBinAddr: 0x4545C, symSize: 0x80 }
  - { offset: 0xB27EF, size: 0x8, addend: 0x0, symName: __RNvXs3_NtCs2cqEZUIJimJ_5quote9to_tokensINtNtCsfvfooZQ3Axs_4core6option6OptionNtNtCs6IAuOt8vWmF_3syn3lit6LitStrENtB5_8ToTokens9to_tokensB1h_, symObjAddr: 0x62DC, symBinAddr: 0x454DC, symSize: 0x84 }
  - { offset: 0xB284B, size: 0x8, addend: 0x0, symName: __RNvXs3_NtCs2cqEZUIJimJ_5quote9to_tokensINtNtCsfvfooZQ3Axs_4core6option6OptionNtNtCs6IAuOt8vWmF_3syn3pat7PatRestENtB5_8ToTokens9to_tokensB1h_, symObjAddr: 0x6360, symBinAddr: 0x45560, symSize: 0x88 }
  - { offset: 0xB28A7, size: 0x8, addend: 0x0, symName: __RNvXs3_NtCs2cqEZUIJimJ_5quote9to_tokensINtNtCsfvfooZQ3Axs_4core6option6OptionNtNtCs6IAuOt8vWmF_3syn4expr5LabelENtB5_8ToTokens9to_tokensB1h_, symObjAddr: 0x63E8, symBinAddr: 0x455E8, symSize: 0x84 }
  - { offset: 0xB2903, size: 0x8, addend: 0x0, symName: __RNvXs3_NtCs2cqEZUIJimJ_5quote9to_tokensINtNtCsfvfooZQ3Axs_4core6option6OptionNtNtCs6IAuOt8vWmF_3syn4path30AngleBracketedGenericArgumentsENtB5_8ToTokens9to_tokensB1h_, symObjAddr: 0x646C, symBinAddr: 0x4566C, symSize: 0x88 }
  - { offset: 0xB295F, size: 0x8, addend: 0x0, symName: __RNvXs3_NtCs2cqEZUIJimJ_5quote9to_tokensINtNtCsfvfooZQ3Axs_4core6option6OptionNtNtCs6IAuOt8vWmF_3syn5token2InENtB5_8ToTokens9to_tokensB1h_, symObjAddr: 0x64F4, symBinAddr: 0x456F4, symSize: 0x80 }
  - { offset: 0xB29BB, size: 0x8, addend: 0x0, symName: __RNvXs3_NtCs2cqEZUIJimJ_5quote9to_tokensINtNtCsfvfooZQ3Axs_4core6option6OptionNtNtCs6IAuOt8vWmF_3syn5token2OrENtB5_8ToTokens9to_tokensB1h_, symObjAddr: 0x6574, symBinAddr: 0x45774, symSize: 0x80 }
  - { offset: 0xB2A17, size: 0x8, addend: 0x0, symName: __RNvXs3_NtCs2cqEZUIJimJ_5quote9to_tokensINtNtCsfvfooZQ3Axs_4core6option6OptionNtNtCs6IAuOt8vWmF_3syn5token3DynENtB5_8ToTokens9to_tokensB1h_, symObjAddr: 0x65F4, symBinAddr: 0x457F4, symSize: 0x80 }
  - { offset: 0xB2A73, size: 0x8, addend: 0x0, symName: __RNvXs3_NtCs2cqEZUIJimJ_5quote9to_tokensINtNtCsfvfooZQ3Axs_4core6option6OptionNtNtCs6IAuOt8vWmF_3syn5token3MutENtB5_8ToTokens9to_tokensB1h_, symObjAddr: 0x6674, symBinAddr: 0x45874, symSize: 0x80 }
  - { offset: 0xB2ACF, size: 0x8, addend: 0x0, symName: __RNvXs3_NtCs2cqEZUIJimJ_5quote9to_tokensINtNtCsfvfooZQ3Axs_4core6option6OptionNtNtCs6IAuOt8vWmF_3syn5token3NotENtB5_8ToTokens9to_tokensB1h_, symObjAddr: 0x66F4, symBinAddr: 0x458F4, symSize: 0x80 }
  - { offset: 0xB2B2B, size: 0x8, addend: 0x0, symName: __RNvXs3_NtCs2cqEZUIJimJ_5quote9to_tokensINtNtCsfvfooZQ3Axs_4core6option6OptionNtNtCs6IAuOt8vWmF_3syn5token3RefENtB5_8ToTokens9to_tokensB1h_, symObjAddr: 0x6774, symBinAddr: 0x45974, symSize: 0x80 }
  - { offset: 0xB2B87, size: 0x8, addend: 0x0, symName: __RNvXs3_NtCs2cqEZUIJimJ_5quote9to_tokensINtNtCsfvfooZQ3Axs_4core6option6OptionNtNtCs6IAuOt8vWmF_3syn5token4AutoENtB5_8ToTokens9to_tokensB1h_, symObjAddr: 0x67F4, symBinAddr: 0x459F4, symSize: 0x80 }
  - { offset: 0xB2BE3, size: 0x8, addend: 0x0, symName: __RNvXs3_NtCs2cqEZUIJimJ_5quote9to_tokensINtNtCsfvfooZQ3Axs_4core6option6OptionNtNtCs6IAuOt8vWmF_3syn5token4MoveENtB5_8ToTokens9to_tokensB1h_, symObjAddr: 0x6874, symBinAddr: 0x45A74, symSize: 0x80 }
  - { offset: 0xB2C3F, size: 0x8, addend: 0x0, symName: __RNvXs3_NtCs2cqEZUIJimJ_5quote9to_tokensINtNtCsfvfooZQ3Axs_4core6option6OptionNtNtCs6IAuOt8vWmF_3syn5token4SemiENtB5_8ToTokens9to_tokensB1h_, symObjAddr: 0x68F4, symBinAddr: 0x45AF4, symSize: 0x80 }
  - { offset: 0xB2C9B, size: 0x8, addend: 0x0, symName: __RNvXs3_NtCs2cqEZUIJimJ_5quote9to_tokensINtNtCsfvfooZQ3Axs_4core6option6OptionNtNtCs6IAuOt8vWmF_3syn5token5AsyncENtB5_8ToTokens9to_tokensB1h_, symObjAddr: 0x6974, symBinAddr: 0x45B74, symSize: 0x80 }
  - { offset: 0xB2CF7, size: 0x8, addend: 0x0, symName: __RNvXs3_NtCs2cqEZUIJimJ_5quote9to_tokensINtNtCsfvfooZQ3Axs_4core6option6OptionNtNtCs6IAuOt8vWmF_3syn5token5CommaENtB5_8ToTokens9to_tokensB1h_, symObjAddr: 0x69F4, symBinAddr: 0x45BF4, symSize: 0x80 }
  - { offset: 0xB2D53, size: 0x8, addend: 0x0, symName: __RNvXs3_NtCs2cqEZUIJimJ_5quote9to_tokensINtNtCsfvfooZQ3Axs_4core6option6OptionNtNtCs6IAuOt8vWmF_3syn5token5ConstENtB5_8ToTokens9to_tokensB1h_, symObjAddr: 0x6A74, symBinAddr: 0x45C74, symSize: 0x80 }
  - { offset: 0xB2DAF, size: 0x8, addend: 0x0, symName: __RNvXs3_NtCs2cqEZUIJimJ_5quote9to_tokensINtNtCsfvfooZQ3Axs_4core6option6OptionNtNtCs6IAuOt8vWmF_3syn5token6StaticENtB5_8ToTokens9to_tokensB1h_, symObjAddr: 0x6AF4, symBinAddr: 0x45CF4, symSize: 0x80 }
  - { offset: 0xB2E0B, size: 0x8, addend: 0x0, symName: __RNvXs3_NtCs2cqEZUIJimJ_5quote9to_tokensINtNtCsfvfooZQ3Axs_4core6option6OptionNtNtCs6IAuOt8vWmF_3syn5token6UnsafeENtB5_8ToTokens9to_tokensB1h_, symObjAddr: 0x6B74, symBinAddr: 0x45D74, symSize: 0x80 }
  - { offset: 0xB2E67, size: 0x8, addend: 0x0, symName: __RNvXs3_NtCs2cqEZUIJimJ_5quote9to_tokensINtNtCsfvfooZQ3Axs_4core6option6OptionNtNtCs6IAuOt8vWmF_3syn5token7DefaultENtB5_8ToTokens9to_tokensB1h_, symObjAddr: 0x6BF4, symBinAddr: 0x45DF4, symSize: 0x80 }
  - { offset: 0xB2EC3, size: 0x8, addend: 0x0, symName: __RNvXs3_NtCs2cqEZUIJimJ_5quote9to_tokensINtNtCsfvfooZQ3Axs_4core6option6OptionNtNtCs6IAuOt8vWmF_3syn5token7PathSepENtB5_8ToTokens9to_tokensB1h_, symObjAddr: 0x6C74, symBinAddr: 0x45E74, symSize: 0x80 }
  - { offset: 0xB2F1F, size: 0x8, addend: 0x0, symName: __RNvXs3_NtCs2cqEZUIJimJ_5quote9to_tokensINtNtCsfvfooZQ3Axs_4core6option6OptionNtNtCs6IAuOt8vWmF_3syn8generics11WhereClauseENtB5_8ToTokens9to_tokensB1h_, symObjAddr: 0x6CF4, symBinAddr: 0x45EF4, symSize: 0x88 }
  - { offset: 0xB2F7B, size: 0x8, addend: 0x0, symName: __RNvXs3_NtCs2cqEZUIJimJ_5quote9to_tokensINtNtCsfvfooZQ3Axs_4core6option6OptionNtNtCs6IAuOt8vWmF_3syn8generics14BoundLifetimesENtB5_8ToTokens9to_tokensB1h_, symObjAddr: 0x6D7C, symBinAddr: 0x45F7C, symSize: 0x88 }
  - { offset: 0xB2FD7, size: 0x8, addend: 0x0, symName: __RNvXs3_NtCs2cqEZUIJimJ_5quote9to_tokensINtNtCsfvfooZQ3Axs_4core6option6OptionNtNtCs6IAuOt8vWmF_3syn8lifetime8LifetimeENtB5_8ToTokens9to_tokensB1h_, symObjAddr: 0x6E04, symBinAddr: 0x46004, symSize: 0x84 }
  - { offset: 0xB3033, size: 0x8, addend: 0x0, symName: __RNvXs3_NtCs2cqEZUIJimJ_5quote9to_tokensINtNtCsfvfooZQ3Axs_4core6option6OptionRRNtNtCs6IAuOt8vWmF_3syn5token7PathSepENtB5_8ToTokens9to_tokensB1j_, symObjAddr: 0x6F0C, symBinAddr: 0x46088, symSize: 0x84 }
  - { offset: 0xB37B5, size: 0x8, addend: 0x0, symName: __RINvNtCse1nGBsou5OW_5alloc3str17join_generic_copyehReECs6IAuOt8vWmF_3syn, symObjAddr: 0x0, symBinAddr: 0x4926C, symSize: 0x160C }
  - { offset: 0xB66B0, size: 0x8, addend: 0x0, symName: __RNvNtNtCs6IAuOt8vWmF_3syn3pat7parsing14multi_pat_impl, symObjAddr: 0xB210, symBinAddr: 0x52ABC, symSize: 0x5DC }
  - { offset: 0xB67E5, size: 0x8, addend: 0x0, symName: __RNvNtNtCs6IAuOt8vWmF_3syn3pat7parsing36pat_path_or_macro_or_struct_or_range, symObjAddr: 0xB7EC, symBinAddr: 0x53098, symSize: 0x728 }
  - { offset: 0xB68DD, size: 0x8, addend: 0x0, symName: __RNvNtNtCs6IAuOt8vWmF_3syn3pat7parsing8pat_wild, symObjAddr: 0xBF14, symBinAddr: 0x537C0, symSize: 0x138 }
  - { offset: 0xB6929, size: 0x8, addend: 0x0, symName: __RNvNtNtCs6IAuOt8vWmF_3syn3pat7parsing7pat_box, symObjAddr: 0xC04C, symBinAddr: 0x538F8, symSize: 0x208 }
  - { offset: 0xB69B4, size: 0x8, addend: 0x0, symName: __RNvNtNtCs6IAuOt8vWmF_3syn3pat7parsing9pat_ident, symObjAddr: 0xC254, symBinAddr: 0x53B00, symSize: 0x618 }
  - { offset: 0xB6B27, size: 0x8, addend: 0x0, symName: __RNvNtNtCs6IAuOt8vWmF_3syn3pat7parsing16pat_tuple_struct, symObjAddr: 0xC86C, symBinAddr: 0x54118, symSize: 0x570 }
  - { offset: 0xB6C72, size: 0x8, addend: 0x0, symName: __RNvNtNtCs6IAuOt8vWmF_3syn3pat7parsing10pat_struct, symObjAddr: 0xCDDC, symBinAddr: 0x54688, symSize: 0x92C }
  - { offset: 0xB6E40, size: 0x8, addend: 0x0, symName: __RNvNtNtCs6IAuOt8vWmF_3syn3pat7parsing9field_pat, symObjAddr: 0xD708, symBinAddr: 0x54FB4, symSize: 0xB80 }
  - { offset: 0xB7082, size: 0x8, addend: 0x0, symName: __RNvNtNtCs6IAuOt8vWmF_3syn3pat7parsing9pat_range, symObjAddr: 0xE288, symBinAddr: 0x55B34, symSize: 0x4F4 }
  - { offset: 0xB7189, size: 0x8, addend: 0x0, symName: __RNvNtNtCs6IAuOt8vWmF_3syn3pat7parsing19pat_range_half_open, symObjAddr: 0xE77C, symBinAddr: 0x56028, symSize: 0x3A4 }
  - { offset: 0xB7259, size: 0x8, addend: 0x0, symName: __RNvNtNtCs6IAuOt8vWmF_3syn3pat7parsing18pat_paren_or_tuple, symObjAddr: 0xEB20, symBinAddr: 0x563CC, symSize: 0x694 }
  - { offset: 0xB73A3, size: 0x8, addend: 0x0, symName: __RNvNtNtCs6IAuOt8vWmF_3syn3pat7parsing13pat_reference, symObjAddr: 0xF1B4, symBinAddr: 0x56A60, symSize: 0x348 }
  - { offset: 0xB7505, size: 0x8, addend: 0x0, symName: __RNvNtNtCs6IAuOt8vWmF_3syn3pat7parsing16pat_lit_or_range, symObjAddr: 0xF4FC, symBinAddr: 0x56DA8, symSize: 0x538 }
  - { offset: 0xB7622, size: 0x8, addend: 0x0, symName: __RNvNtNtCs6IAuOt8vWmF_3syn3pat7parsing15pat_range_bound, symObjAddr: 0xFD44, symBinAddr: 0x575F0, symSize: 0x6CC }
  - { offset: 0xB76CB, size: 0x8, addend: 0x0, symName: __RNvNtNtCs6IAuOt8vWmF_3syn3pat7parsing9pat_slice, symObjAddr: 0x10410, symBinAddr: 0x57CBC, symSize: 0x700 }
  - { offset: 0xB788A, size: 0x8, addend: 0x0, symName: __RNvNtNtCs6IAuOt8vWmF_3syn3pat7parsing9pat_const, symObjAddr: 0x10B10, symBinAddr: 0x583BC, symSize: 0x3A0 }
  - { offset: 0xB79A7, size: 0x8, addend: 0x0, symName: __RNvXNtNtCs6IAuOt8vWmF_3syn3pat8printingNtB4_8PatIdentNtNtCs2cqEZUIJimJ_5quote9to_tokens8ToTokens9to_tokens, symObjAddr: 0x10EB0, symBinAddr: 0x5875C, symSize: 0xF0 }
  - { offset: 0xB7A14, size: 0x8, addend: 0x0, symName: __RNvXs_NtNtCs6IAuOt8vWmF_3syn3pat8printingNtB6_5PatOrNtNtCs2cqEZUIJimJ_5quote9to_tokens8ToTokens9to_tokens, symObjAddr: 0x10FA0, symBinAddr: 0x5884C, symSize: 0x74 }
  - { offset: 0xB7A53, size: 0x8, addend: 0x0, symName: __RNvXs0_NtNtCs6IAuOt8vWmF_3syn3pat8printingNtB7_8PatParenNtNtCs2cqEZUIJimJ_5quote9to_tokens8ToTokens9to_tokens, symObjAddr: 0x11014, symBinAddr: 0x588C0, symSize: 0x68 }
  - { offset: 0xB7A92, size: 0x8, addend: 0x0, symName: __RNvXs1_NtNtCs6IAuOt8vWmF_3syn3pat8printingNtB7_12PatReferenceNtNtCs2cqEZUIJimJ_5quote9to_tokens8ToTokens9to_tokens, symObjAddr: 0x1107C, symBinAddr: 0x58928, symSize: 0x84 }
  - { offset: 0xB7AD1, size: 0x8, addend: 0x0, symName: __RNvXs2_NtNtCs6IAuOt8vWmF_3syn3pat8printingNtB7_7PatRestNtNtCs2cqEZUIJimJ_5quote9to_tokens8ToTokens9to_tokens, symObjAddr: 0x11100, symBinAddr: 0x589AC, symSize: 0x64 }
  - { offset: 0xB7B10, size: 0x8, addend: 0x0, symName: __RNvXs3_NtNtCs6IAuOt8vWmF_3syn3pat8printingNtB7_8PatSliceNtNtCs2cqEZUIJimJ_5quote9to_tokens8ToTokens9to_tokens, symObjAddr: 0x11164, symBinAddr: 0x58A10, symSize: 0x68 }
  - { offset: 0xB7B4F, size: 0x8, addend: 0x0, symName: __RNvXs4_NtNtCs6IAuOt8vWmF_3syn3pat8printingNtB7_9PatStructNtNtCs2cqEZUIJimJ_5quote9to_tokens8ToTokens9to_tokens, symObjAddr: 0x111CC, symBinAddr: 0x58A78, symSize: 0x88 }
  - { offset: 0xB7B8E, size: 0x8, addend: 0x0, symName: __RNvXs5_NtNtCs6IAuOt8vWmF_3syn3pat8printingNtB7_8PatTupleNtNtCs2cqEZUIJimJ_5quote9to_tokens8ToTokens9to_tokens, symObjAddr: 0x11254, symBinAddr: 0x58B00, symSize: 0x68 }
  - { offset: 0xB7BCD, size: 0x8, addend: 0x0, symName: __RNvXs6_NtNtCs6IAuOt8vWmF_3syn3pat8printingNtB7_14PatTupleStructNtNtCs2cqEZUIJimJ_5quote9to_tokens8ToTokens9to_tokens, symObjAddr: 0x112BC, symBinAddr: 0x58B68, symSize: 0x88 }
  - { offset: 0xB7C0C, size: 0x8, addend: 0x0, symName: __RNvXs7_NtNtCs6IAuOt8vWmF_3syn3pat8printingNtB7_7PatTypeNtNtCs2cqEZUIJimJ_5quote9to_tokens8ToTokens9to_tokens, symObjAddr: 0x11344, symBinAddr: 0x58BF0, symSize: 0x84 }
  - { offset: 0xB7C4B, size: 0x8, addend: 0x0, symName: __RNvXs8_NtNtCs6IAuOt8vWmF_3syn3pat8printingNtB7_7PatWildNtNtCs2cqEZUIJimJ_5quote9to_tokens8ToTokens9to_tokens, symObjAddr: 0x113C8, symBinAddr: 0x58C74, symSize: 0x64 }
  - { offset: 0xB7C8A, size: 0x8, addend: 0x0, symName: __RNvXs9_NtNtCs6IAuOt8vWmF_3syn3pat8printingNtB7_8FieldPatNtNtCs2cqEZUIJimJ_5quote9to_tokens8ToTokens9to_tokens, symObjAddr: 0x1142C, symBinAddr: 0x58CD8, symSize: 0xC0 }
  - { offset: 0xB7CED, size: 0x8, addend: 0x0, symName: __RNcNtNtNtCs6IAuOt8vWmF_3syn3pat3Pat5Ident0B7_, symObjAddr: 0x1204C, symBinAddr: 0x58D98, symSize: 0x3C }
  - { offset: 0xB7D1C, size: 0x8, addend: 0x0, symName: __RNcNtNtNtCs6IAuOt8vWmF_3syn3pat3Pat9Reference0B7_, symObjAddr: 0x12088, symBinAddr: 0x58DD4, symSize: 0x40 }
  - { offset: 0xB7D4B, size: 0x8, addend: 0x0, symName: __RNcNtNtNtCs6IAuOt8vWmF_3syn3pat3Pat5Slice0B7_, symObjAddr: 0x120C8, symBinAddr: 0x58E14, symSize: 0x40 }
  - { offset: 0xB7D7A, size: 0x8, addend: 0x0, symName: __RNcNtNtNtCs6IAuOt8vWmF_3syn3pat3Pat6Struct0B7_, symObjAddr: 0x12108, symBinAddr: 0x58E54, symSize: 0x30 }
  - { offset: 0xB7DA9, size: 0x8, addend: 0x0, symName: __RNcNtNtNtCs6IAuOt8vWmF_3syn3pat3Pat11TupleStruct0B7_, symObjAddr: 0x12138, symBinAddr: 0x58E84, symSize: 0x40 }
  - { offset: 0xB7DD8, size: 0x8, addend: 0x0, symName: __RNcNtNtNtCs6IAuOt8vWmF_3syn3pat3Pat8Verbatim0B7_, symObjAddr: 0x12178, symBinAddr: 0x58EC4, symSize: 0x20 }
  - { offset: 0xB7E06, size: 0x8, addend: 0x0, symName: __RNcNtNtNtCs6IAuOt8vWmF_3syn3pat3Pat4Wild0B7_, symObjAddr: 0x12198, symBinAddr: 0x58EE4, symSize: 0x24 }
  - { offset: 0xB7E35, size: 0x8, addend: 0x0, symName: __RNvXse_NtCs6IAuOt8vWmF_3syn3patNtB5_3PatNtNtCs2cqEZUIJimJ_5quote9to_tokens8ToTokens9to_tokens, symObjAddr: 0x12664, symBinAddr: 0x58F08, symSize: 0x250 }
  - { offset: 0xB8321, size: 0x8, addend: 0x0, symName: __RINvNtNtCs6IAuOt8vWmF_3syn3lit5value4byteNtNtCse1nGBsou5OW_5alloc6string6StringEB6_, symObjAddr: 0x3CE4, symBinAddr: 0x4B9A8, symSize: 0xC0 }
  - { offset: 0xB837D, size: 0x8, addend: 0x0, symName: __RINvNtNtCs6IAuOt8vWmF_3syn3lit5value4byteShEB6_, symObjAddr: 0x3DA4, symBinAddr: 0x4BA68, symSize: 0xBC }
  - { offset: 0xB83D9, size: 0x8, addend: 0x0, symName: __RINvNtNtCs6IAuOt8vWmF_3syn3lit5value4byteeEB6_, symObjAddr: 0x3E60, symBinAddr: 0x4BB24, symSize: 0xC0 }
  - { offset: 0xB8435, size: 0x8, addend: 0x0, symName: __RNvNtNtCs6IAuOt8vWmF_3syn3lit5value8next_chr, symObjAddr: 0x3F20, symBinAddr: 0x4BBE4, symSize: 0x54 }
  - { offset: 0xB8463, size: 0x8, addend: 0x0, symName: __RNvNtNtCs6IAuOt8vWmF_3syn3lit5value13parse_lit_str, symObjAddr: 0x3F74, symBinAddr: 0x4BC38, symSize: 0xDC }
  - { offset: 0xB8491, size: 0x8, addend: 0x0, symName: __RNvNtNtCs6IAuOt8vWmF_3syn3lit5value20parse_lit_str_cooked, symObjAddr: 0x4050, symBinAddr: 0x4BD14, symSize: 0x968 }
  - { offset: 0xB86AE, size: 0x8, addend: 0x0, symName: __RNvNtNtCs6IAuOt8vWmF_3syn3lit5value17parse_lit_str_raw, symObjAddr: 0x49B8, symBinAddr: 0x4C67C, symSize: 0x4CC }
  - { offset: 0xB8868, size: 0x8, addend: 0x0, symName: __RNvNtNtCs6IAuOt8vWmF_3syn3lit5value18parse_lit_byte_str, symObjAddr: 0x4E84, symBinAddr: 0x4CB48, symSize: 0x158 }
  - { offset: 0xB88E2, size: 0x8, addend: 0x0, symName: __RNvNtNtCs6IAuOt8vWmF_3syn3lit5value25parse_lit_byte_str_cooked, symObjAddr: 0x4FDC, symBinAddr: 0x4CCA0, symSize: 0x974 }
  - { offset: 0xB8BCA, size: 0x8, addend: 0x0, symName: __RNvNtNtCs6IAuOt8vWmF_3syn3lit5value22parse_lit_byte_str_raw, symObjAddr: 0x5950, symBinAddr: 0x4D614, symSize: 0x1B8 }
  - { offset: 0xB8C6C, size: 0x8, addend: 0x0, symName: __RNvNtNtCs6IAuOt8vWmF_3syn3lit5value15parse_lit_c_str, symObjAddr: 0x5B08, symBinAddr: 0x4D7CC, symSize: 0x158 }
  - { offset: 0xB8CE6, size: 0x8, addend: 0x0, symName: __RNvNtNtCs6IAuOt8vWmF_3syn3lit5value22parse_lit_c_str_cooked, symObjAddr: 0x5C60, symBinAddr: 0x4D924, symSize: 0xBD0 }
  - { offset: 0xB9044, size: 0x8, addend: 0x0, symName: __RNvNtNtCs6IAuOt8vWmF_3syn3lit5value19parse_lit_c_str_raw, symObjAddr: 0x6830, symBinAddr: 0x4E4F4, symSize: 0x278 }
  - { offset: 0xB9120, size: 0x8, addend: 0x0, symName: __RNvNtNtCs6IAuOt8vWmF_3syn3lit5value14parse_lit_byte, symObjAddr: 0x6AA8, symBinAddr: 0x4E76C, symSize: 0x5C4 }
  - { offset: 0xB9383, size: 0x8, addend: 0x0, symName: __RNvNtNtCs6IAuOt8vWmF_3syn3lit5value14parse_lit_char, symObjAddr: 0x706C, symBinAddr: 0x4ED30, symSize: 0x57C }
  - { offset: 0xB9556, size: 0x8, addend: 0x0, symName: __RINvNtNtCs6IAuOt8vWmF_3syn3lit5value11backslash_xShEB6_, symObjAddr: 0x75E8, symBinAddr: 0x4F2AC, symSize: 0x560 }
  - { offset: 0xB95F6, size: 0x8, addend: 0x0, symName: __RINvNtNtCs6IAuOt8vWmF_3syn3lit5value11backslash_xeEB6_, symObjAddr: 0x7B48, symBinAddr: 0x4F80C, symSize: 0x544 }
  - { offset: 0xB9670, size: 0x8, addend: 0x0, symName: __RINvNtNtCs6IAuOt8vWmF_3syn3lit5value11backslash_uShEB6_, symObjAddr: 0x808C, symBinAddr: 0x4FD50, symSize: 0x5F8 }
  - { offset: 0xB97B8, size: 0x8, addend: 0x0, symName: __RINvNtNtCs6IAuOt8vWmF_3syn3lit5value11backslash_ueEB6_, symObjAddr: 0x8684, symBinAddr: 0x50348, symSize: 0x5C8 }
  - { offset: 0xB9861, size: 0x8, addend: 0x0, symName: __RNvNtNtCs6IAuOt8vWmF_3syn3lit5value13parse_lit_int, symObjAddr: 0x8C4C, symBinAddr: 0x50910, symSize: 0xC44 }
  - { offset: 0xB99B1, size: 0x8, addend: 0x0, symName: __RNvNtNtCs6IAuOt8vWmF_3syn3lit5value15parse_lit_float, symObjAddr: 0x9890, symBinAddr: 0x51554, symSize: 0xBD8 }
  - { offset: 0xB9B2F, size: 0x8, addend: 0x0, symName: __RNCNvNtNtCs6IAuOt8vWmF_3syn3lit5value15parse_lit_float0B7_, symObjAddr: 0xA468, symBinAddr: 0x5212C, symSize: 0x38 }
  - { offset: 0xB9B75, size: 0x8, addend: 0x0, symName: __RINvNvNtNtCs6IAuOt8vWmF_3syn3lit5value11backslash_u18panic_cold_displayReEB8_, symObjAddr: 0x12024, symBinAddr: 0x15446C, symSize: 0x28 }
  - { offset: 0xBB388, size: 0x8, addend: 0x0, symName: __RNvNtNtCs6IAuOt8vWmF_3syn8generics7parsing26choose_generics_over_qpath, symObjAddr: 0x399C, symBinAddr: 0x4B660, symSize: 0x1F8 }
  - { offset: 0xBB3B6, size: 0x8, addend: 0x0, symName: __RNvNtNtCs6IAuOt8vWmF_3syn8generics7parsing40choose_generics_over_qpath_after_keyword, symObjAddr: 0x3B94, symBinAddr: 0x4B858, symSize: 0x150 }
  - { offset: 0xBD22B, size: 0x8, addend: 0x0, symName: __RNCNCINvNtCse1nGBsou5OW_5alloc3str17join_generic_copyehReE00Cs6IAuOt8vWmF_3syn, symObjAddr: 0x26A8, symBinAddr: 0x4AED4, symSize: 0x38 }
  - { offset: 0xBD284, size: 0x8, addend: 0x0, symName: __RNCINvNtCse1nGBsou5OW_5alloc3str17join_generic_copyehReEs_0Cs6IAuOt8vWmF_3syn, symObjAddr: 0x2398, symBinAddr: 0x4ABC4, symSize: 0x80 }
  - { offset: 0xBD352, size: 0x8, addend: 0x0, symName: __RINvNtCse1nGBsou5OW_5alloc3str17join_generic_copyehReECs6IAuOt8vWmF_3syn, symObjAddr: 0x0, symBinAddr: 0x4926C, symSize: 0x160C }
  - { offset: 0xBE84D, size: 0x8, addend: 0x0, symName: __RNvXs2_NtCse1nGBsou5OW_5alloc3streNtNtB7_6borrow7ToOwned8to_ownedCs6IAuOt8vWmF_3syn, symObjAddr: 0x2E1C, symBinAddr: 0x4B3AC, symSize: 0x50 }
  - { offset: 0xBE940, size: 0x8, addend: 0x0, symName: __RNvXs_NtCse1nGBsou5OW_5alloc3strSReINtNtB6_5slice4JoinBv_E4joinCs6IAuOt8vWmF_3syn, symObjAddr: 0x3738, symBinAddr: 0x4B4EC, symSize: 0x50 }
  - { offset: 0xC27F3, size: 0x8, addend: 0x0, symName: __RINvNtCsfvfooZQ3Axs_4core3cmp3minjECs6IAuOt8vWmF_3syn, symObjAddr: 0x160C, symBinAddr: 0x4A878, symSize: 0x24 }
  - { offset: 0xC2874, size: 0x8, addend: 0x0, symName: __RNvXs5_NtCsfvfooZQ3Axs_4core3cmpNtB5_8OrderingNtB5_9PartialEq2eqCs6IAuOt8vWmF_3syn, symObjAddr: 0x335C, symBinAddr: 0x4B478, symSize: 0x2C }
  - { offset: 0xC28B7, size: 0x8, addend: 0x0, symName: __RNvYjNtNtCsfvfooZQ3Axs_4core3cmp3Ord3minCs6IAuOt8vWmF_3syn, symObjAddr: 0x38E0, symBinAddr: 0x4B5E0, symSize: 0x80 }
  - { offset: 0xC3011, size: 0x8, addend: 0x0, symName: __RNvMNtCsfvfooZQ3Axs_4core5sliceSTNtNtCs6IAuOt8vWmF_3syn3pat3PatNtNtBz_5token2OrE4iterBz_, symObjAddr: 0x26E0, symBinAddr: 0x4AF0C, symSize: 0x28 }
  - { offset: 0xC3048, size: 0x8, addend: 0x0, symName: __RNvMNtCsfvfooZQ3Axs_4core5sliceSTNtNtCs6IAuOt8vWmF_3syn3pat3PatNtNtBz_5token5CommaE4iterBz_, symObjAddr: 0x2708, symBinAddr: 0x4AF34, symSize: 0x28 }
  - { offset: 0xC307F, size: 0x8, addend: 0x0, symName: __RNvMNtCsfvfooZQ3Axs_4core5sliceSTNtNtCs6IAuOt8vWmF_3syn3pat8FieldPatNtNtBz_5token5CommaE4iterBz_, symObjAddr: 0x2730, symBinAddr: 0x4AF5C, symSize: 0x28 }
  - { offset: 0xC3910, size: 0x8, addend: 0x0, symName: __RNvXs2_NtNtNtCsfvfooZQ3Axs_4core3ops8function5implsQNCINvNtCse1nGBsou5OW_5alloc3str17join_generic_copyehReEs_0INtB7_6FnOnceTRB1E_EE9call_onceCs6IAuOt8vWmF_3syn, symObjAddr: 0x3330, symBinAddr: 0x4B44C, symSize: 0x2C }
  - { offset: 0xC44C7, size: 0x8, addend: 0x0, symName: __RNvXs_NtNtNtCsfvfooZQ3Axs_4core4iter8adapters4takeINtB4_4TakeQINtNtCs6IAuOt8vWmF_3syn10punctuated5PairsNtNtB13_4path11PathSegmentNtNtB13_5token7PathSepEENtNtNtB8_6traits8iterator8Iterator4nextB13_, symObjAddr: 0x37D0, symBinAddr: 0x4B560, symSize: 0x5C }
  - { offset: 0xC4680, size: 0x8, addend: 0x0, symName: __RNvXs1_NtNtNtCsfvfooZQ3Axs_4core4iter8adapters3zipINtB5_3ZipNtNtNtBb_3str4iter5CharsINtNtNtBb_5slice4iter4IterNtCs3cP53eQoTwO_11proc_macro24SpanEEINtB5_7ZipImplBW_B1k_E3newCs6IAuOt8vWmF_3syn, symObjAddr: 0x2CBC, symBinAddr: 0x4B27C, symSize: 0x48 }
  - { offset: 0xC46CC, size: 0x8, addend: 0x0, symName: __RNvXs1_NtNtNtCsfvfooZQ3Axs_4core4iter8adapters3zipINtB5_3ZipNtNtNtBb_3str4iter5CharsINtNtNtBb_5slice4iter4IterNtCs3cP53eQoTwO_11proc_macro24SpanEEINtB5_7ZipImplBW_B1k_E4nextCs6IAuOt8vWmF_3syn, symObjAddr: 0x2D04, symBinAddr: 0x4B2C4, symSize: 0xE8 }
  - { offset: 0xC481A, size: 0x8, addend: 0x0, symName: __RNvXs_NtNtNtCsfvfooZQ3Axs_4core4iter8adapters3zipINtB4_3ZipNtNtNtBa_3str4iter5CharsINtNtNtBa_5slice4iter4IterNtCs3cP53eQoTwO_11proc_macro24SpanEENtNtNtB8_6traits8iterator8Iterator4nextCs6IAuOt8vWmF_3syn, symObjAddr: 0x37AC, symBinAddr: 0x4B53C, symSize: 0x24 }
  - { offset: 0xC49C9, size: 0x8, addend: 0x0, symName: __RINvYINtNtNtCsfvfooZQ3Axs_4core5array4iter8IntoIterNtCs3cP53eQoTwO_11proc_macro29TokenTreeKj1_ENtNtNtNtBa_4iter6traits8iterator8Iterator3mapNtCs9i5KxIbZ5ph_10proc_macro9TokenTreeNvNtBP_3imp19into_compiler_tokenECs6IAuOt8vWmF_3syn, symObjAddr: 0x22A0, symBinAddr: 0x4AACC, symSize: 0x30 }
  - { offset: 0xC4A37, size: 0x8, addend: 0x0, symName: __RINvYINtNtNtCsfvfooZQ3Axs_4core5array4iter8IntoIterNtCs3cP53eQoTwO_11proc_macro29TokenTreeKj1_ENtNtNtNtBa_4iter6traits8iterator8Iterator7collectNtNtBP_3imp11TokenStreamECs6IAuOt8vWmF_3syn, symObjAddr: 0x22D0, symBinAddr: 0x4AAFC, symSize: 0x14 }
  - { offset: 0xC4A78, size: 0x8, addend: 0x0, symName: __RINvYINtNtNtCsfvfooZQ3Axs_4core5array4iter8IntoIterNtCs3cP53eQoTwO_11proc_macro29TokenTreeKj1_ENtNtNtNtBa_4iter6traits8iterator8Iterator7collectNtNtBP_8fallback11TokenStreamECs6IAuOt8vWmF_3syn, symObjAddr: 0x22E4, symBinAddr: 0x4AB10, symSize: 0x14 }
  - { offset: 0xC4AB9, size: 0x8, addend: 0x0, symName: __RINvYINtNtNtCsfvfooZQ3Axs_4core5array4iter8IntoIterNtCs3cP53eQoTwO_11proc_macro29TokenTreeKj1_ENtNtNtNtBa_4iter6traits8iterator8Iterator8for_eachNCINvXsa_NtBP_8fallbackNtB2s_11TokenStreamINtNtB1z_7collect6ExtendBN_E6extendB3_E0ECs6IAuOt8vWmF_3syn, symObjAddr: 0x22F8, symBinAddr: 0x4AB24, symSize: 0x24 }
  - { offset: 0xC4B05, size: 0x8, addend: 0x0, symName: __RINvYINtNtNtCsfvfooZQ3Axs_4core5array4iter8IntoIterNtCs3cP53eQoTwO_11proc_macro29TokenTreeKj8_ENtNtNtNtBa_4iter6traits8iterator8Iterator3mapNtCs9i5KxIbZ5ph_10proc_macro9TokenTreeNvNtBP_3imp19into_compiler_tokenECs6IAuOt8vWmF_3syn, symObjAddr: 0x231C, symBinAddr: 0x4AB48, symSize: 0x30 }
  - { offset: 0xC4B73, size: 0x8, addend: 0x0, symName: __RINvYINtNtNtCsfvfooZQ3Axs_4core5array4iter8IntoIterNtCs3cP53eQoTwO_11proc_macro29TokenTreeKj8_ENtNtNtNtBa_4iter6traits8iterator8Iterator7collectNtNtBP_3imp11TokenStreamECs6IAuOt8vWmF_3syn, symObjAddr: 0x234C, symBinAddr: 0x4AB78, symSize: 0x14 }
  - { offset: 0xC4BB4, size: 0x8, addend: 0x0, symName: __RINvYINtNtNtCsfvfooZQ3Axs_4core5array4iter8IntoIterNtCs3cP53eQoTwO_11proc_macro29TokenTreeKj8_ENtNtNtNtBa_4iter6traits8iterator8Iterator7collectNtNtBP_8fallback11TokenStreamECs6IAuOt8vWmF_3syn, symObjAddr: 0x2360, symBinAddr: 0x4AB8C, symSize: 0x14 }
  - { offset: 0xC4BF5, size: 0x8, addend: 0x0, symName: __RINvYINtNtNtCsfvfooZQ3Axs_4core5array4iter8IntoIterNtCs3cP53eQoTwO_11proc_macro29TokenTreeKj8_ENtNtNtNtBa_4iter6traits8iterator8Iterator8for_eachNCINvXsa_NtBP_8fallbackNtB2s_11TokenStreamINtNtB1z_7collect6ExtendBN_E6extendB3_E0ECs6IAuOt8vWmF_3syn, symObjAddr: 0x2374, symBinAddr: 0x4ABA0, symSize: 0x24 }
  - { offset: 0xC4C41, size: 0x8, addend: 0x0, symName: __RNvYINtNtNtNtCsfvfooZQ3Axs_4core4iter8adapters4take4TakeQINtNtCs6IAuOt8vWmF_3syn10punctuated5PairsNtNtBY_4path11PathSegmentNtNtBY_5token7PathSepEENtNtNtB9_6traits8iterator8Iterator9enumerateBY_, symObjAddr: 0x382C, symBinAddr: 0x4B5BC, symSize: 0x24 }
  - { offset: 0xC4C99, size: 0x8, addend: 0x0, symName: __RNvXNtNtNtCsfvfooZQ3Axs_4core4iter6traits7collectINtNtNtB6_8adapters3zip3ZipNtNtNtB8_3str4iter5CharsINtNtNtB8_5slice4iter4IterNtCs3cP53eQoTwO_11proc_macro24SpanEENtB2_12IntoIterator9into_iterCs6IAuOt8vWmF_3syn, symObjAddr: 0x29F8, symBinAddr: 0x4B164, symSize: 0x30 }
  - { offset: 0xC4CD1, size: 0x8, addend: 0x0, symName: __RNvXNtNtNtCsfvfooZQ3Axs_4core4iter6traits7collectINtNtNtB8_5array4iter8IntoIterNtCs3cP53eQoTwO_11proc_macro29TokenTreeKj1_ENtB2_12IntoIterator9into_iterCs6IAuOt8vWmF_3syn, symObjAddr: 0x2A28, symBinAddr: 0x4B194, symSize: 0x30 }
  - { offset: 0xC4D09, size: 0x8, addend: 0x0, symName: __RNvXNtNtNtCsfvfooZQ3Axs_4core4iter6traits7collectINtNtNtB8_5array4iter8IntoIterNtCs3cP53eQoTwO_11proc_macro29TokenTreeKj8_ENtB2_12IntoIterator9into_iterCs6IAuOt8vWmF_3syn, symObjAddr: 0x2A58, symBinAddr: 0x4B1C4, symSize: 0x30 }
  - { offset: 0xC4D4E, size: 0x8, addend: 0x0, symName: __RNvXsF_NtNtCsfvfooZQ3Axs_4core4iter5rangejNtB5_4Step17forward_uncheckedCs6IAuOt8vWmF_3syn, symObjAddr: 0x36F0, symBinAddr: 0x4B4A4, symSize: 0x48 }
  - { offset: 0xC4E3C, size: 0x8, addend: 0x0, symName: __RNCINvXs0_NtNtCsfvfooZQ3Axs_4core5array4iterINtB8_8IntoIterNtCs3cP53eQoTwO_11proc_macro29TokenTreeKj1_ENtNtNtNtBc_4iter6traits8iterator8Iterator4folduNCINvNtNtB1J_8adapters3map8map_foldBV_NtCs9i5KxIbZ5ph_10proc_macro9TokenTreeuNvNtBX_3imp19into_compiler_tokenNCINvNvB1D_8for_each4callB30_NCINvXsg_B32_NtB32_11TokenStreamINtNtB1H_7collect12FromIteratorB30_E9from_iterINtB2t_3MapBG_B3D_EE0E0E0E0Cs6IAuOt8vWmF_3syn, symObjAddr: 0x2418, symBinAddr: 0x4AC44, symSize: 0xA4 }
  - { offset: 0xC4FA0, size: 0x8, addend: 0x0, symName: __RNCINvXs0_NtNtCsfvfooZQ3Axs_4core5array4iterINtB8_8IntoIterNtCs3cP53eQoTwO_11proc_macro29TokenTreeKj1_ENtNtNtNtBc_4iter6traits8iterator8Iterator4folduNCINvNvB1D_8for_each4callBV_NCINvXsa_NtBX_8fallbackNtB2Z_11TokenStreamINtNtB1H_7collect6ExtendBV_E6extendBG_E0E0E0Cs6IAuOt8vWmF_3syn, symObjAddr: 0x24BC, symBinAddr: 0x4ACE8, symSize: 0xA4 }
  - { offset: 0xC5104, size: 0x8, addend: 0x0, symName: __RNCINvXs0_NtNtCsfvfooZQ3Axs_4core5array4iterINtB8_8IntoIterNtCs3cP53eQoTwO_11proc_macro29TokenTreeKj8_ENtNtNtNtBc_4iter6traits8iterator8Iterator4folduNCINvNtNtB1J_8adapters3map8map_foldBV_NtCs9i5KxIbZ5ph_10proc_macro9TokenTreeuNvNtBX_3imp19into_compiler_tokenNCINvNvB1D_8for_each4callB30_NCINvXsg_B32_NtB32_11TokenStreamINtNtB1H_7collect12FromIteratorB30_E9from_iterINtB2t_3MapBG_B3D_EE0E0E0E0Cs6IAuOt8vWmF_3syn, symObjAddr: 0x2560, symBinAddr: 0x4AD8C, symSize: 0xA4 }
  - { offset: 0xC5268, size: 0x8, addend: 0x0, symName: __RNCINvXs0_NtNtCsfvfooZQ3Axs_4core5array4iterINtB8_8IntoIterNtCs3cP53eQoTwO_11proc_macro29TokenTreeKj8_ENtNtNtNtBc_4iter6traits8iterator8Iterator4folduNCINvNvB1D_8for_each4callBV_NCINvXsa_NtBX_8fallbackNtB2Z_11TokenStreamINtNtB1H_7collect6ExtendBV_E6extendBG_E0E0E0Cs6IAuOt8vWmF_3syn, symObjAddr: 0x2604, symBinAddr: 0x4AE30, symSize: 0xA4 }
  - { offset: 0xC53CD, size: 0x8, addend: 0x0, symName: __RINvXs0_NtNtCsfvfooZQ3Axs_4core5array4iterINtB6_8IntoIterNtCs3cP53eQoTwO_11proc_macro29TokenTreeKj1_ENtNtNtNtBa_4iter6traits8iterator8Iterator4folduNCINvNtNtB1H_8adapters3map8map_foldBT_NtCs9i5KxIbZ5ph_10proc_macro9TokenTreeuNvNtBV_3imp19into_compiler_tokenNCINvNvB1B_8for_each4callB2Y_NCINvXsg_B30_NtB30_11TokenStreamINtNtB1F_7collect12FromIteratorB2Y_E9from_iterINtB2r_3MapBE_B3B_EE0E0E0ECs6IAuOt8vWmF_3syn, symObjAddr: 0x2070, symBinAddr: 0x4A89C, symSize: 0x8C }
  - { offset: 0xC547D, size: 0x8, addend: 0x0, symName: __RINvXs0_NtNtCsfvfooZQ3Axs_4core5array4iterINtB6_8IntoIterNtCs3cP53eQoTwO_11proc_macro29TokenTreeKj1_ENtNtNtNtBa_4iter6traits8iterator8Iterator4folduNCINvNvB1B_8for_each4callBT_NCINvXsa_NtBV_8fallbackNtB2X_11TokenStreamINtNtB1F_7collect6ExtendBT_E6extendBE_E0E0ECs6IAuOt8vWmF_3syn, symObjAddr: 0x20FC, symBinAddr: 0x4A928, symSize: 0x8C }
  - { offset: 0xC552D, size: 0x8, addend: 0x0, symName: __RINvXs0_NtNtCsfvfooZQ3Axs_4core5array4iterINtB6_8IntoIterNtCs3cP53eQoTwO_11proc_macro29TokenTreeKj8_ENtNtNtNtBa_4iter6traits8iterator8Iterator4folduNCINvNtNtB1H_8adapters3map8map_foldBT_NtCs9i5KxIbZ5ph_10proc_macro9TokenTreeuNvNtBV_3imp19into_compiler_tokenNCINvNvB1B_8for_each4callB2Y_NCINvXsg_B30_NtB30_11TokenStreamINtNtB1F_7collect12FromIteratorB2Y_E9from_iterINtB2r_3MapBE_B3B_EE0E0E0ECs6IAuOt8vWmF_3syn, symObjAddr: 0x2188, symBinAddr: 0x4A9B4, symSize: 0x8C }
  - { offset: 0xC55DD, size: 0x8, addend: 0x0, symName: __RINvXs0_NtNtCsfvfooZQ3Axs_4core5array4iterINtB6_8IntoIterNtCs3cP53eQoTwO_11proc_macro29TokenTreeKj8_ENtNtNtNtBa_4iter6traits8iterator8Iterator4folduNCINvNvB1B_8for_each4callBT_NCINvXsa_NtBV_8fallbackNtB2X_11TokenStreamINtNtB1F_7collect6ExtendBT_E6extendBE_E0E0ECs6IAuOt8vWmF_3syn, symObjAddr: 0x2214, symBinAddr: 0x4AA40, symSize: 0x8C }
  - { offset: 0xC568D, size: 0x8, addend: 0x0, symName: __RNvXs0_NtNtCsfvfooZQ3Axs_4core5array4iterINtB5_8IntoIterNtCs3cP53eQoTwO_11proc_macro29TokenTreeKj1_ENtNtNtNtB9_4iter6traits8iterator8Iterator9size_hintCs6IAuOt8vWmF_3syn, symObjAddr: 0x2A88, symBinAddr: 0x4B1F4, symSize: 0x44 }
  - { offset: 0xC56F4, size: 0x8, addend: 0x0, symName: __RNvXs0_NtNtCsfvfooZQ3Axs_4core5array4iterINtB5_8IntoIterNtCs3cP53eQoTwO_11proc_macro29TokenTreeKj8_ENtNtNtNtB9_4iter6traits8iterator8Iterator9size_hintCs6IAuOt8vWmF_3syn, symObjAddr: 0x2ACC, symBinAddr: 0x4B238, symSize: 0x44 }
  - { offset: 0xC5847, size: 0x8, addend: 0x0, symName: __RNvXs2_NtNtCsfvfooZQ3Axs_4core5array4iterINtB5_8IntoIterNtCs3cP53eQoTwO_11proc_macro29TokenTreeKj1_ENtNtNtB9_3ops4drop4Drop4dropCs6IAuOt8vWmF_3syn, symObjAddr: 0x2E6C, symBinAddr: 0x4B3FC, symSize: 0x28 }
  - { offset: 0xC587A, size: 0x8, addend: 0x0, symName: __RNvXs2_NtNtCsfvfooZQ3Axs_4core5array4iterINtB5_8IntoIterNtCs3cP53eQoTwO_11proc_macro29TokenTreeKj8_ENtNtNtB9_3ops4drop4Drop4dropCs6IAuOt8vWmF_3syn, symObjAddr: 0x2E94, symBinAddr: 0x4B424, symSize: 0x28 }
  - { offset: 0xC6AFF, size: 0x8, addend: 0x0, symName: __RNvMs_NtNtCsfvfooZQ3Axs_4core5array4iterINtB4_8IntoIterNtCs3cP53eQoTwO_11proc_macro29TokenTreeKj1_E12as_mut_sliceCs6IAuOt8vWmF_3syn, symObjAddr: 0x2758, symBinAddr: 0x4AF84, symSize: 0xB0 }
  - { offset: 0xC6C13, size: 0x8, addend: 0x0, symName: __RNvMs_NtNtCsfvfooZQ3Axs_4core5array4iterINtB4_8IntoIterNtCs3cP53eQoTwO_11proc_macro29TokenTreeKj8_E12as_mut_sliceCs6IAuOt8vWmF_3syn, symObjAddr: 0x2808, symBinAddr: 0x4B034, symSize: 0xB0 }
  - { offset: 0xC6D17, size: 0x8, addend: 0x0, symName: __RNvXNtCs2cqEZUIJimJ_5quote9to_tokensRNtNtCs6IAuOt8vWmF_3syn3pat3PatNtB2_8ToTokens9to_tokensBD_, symObjAddr: 0x28B8, symBinAddr: 0x4B0E4, symSize: 0x40 }
  - { offset: 0xC6D56, size: 0x8, addend: 0x0, symName: __RNvXNtCs2cqEZUIJimJ_5quote9to_tokensRNtNtCs6IAuOt8vWmF_3syn3pat8FieldPatNtB2_8ToTokens9to_tokensBD_, symObjAddr: 0x28F8, symBinAddr: 0x4B124, symSize: 0x40 }
  - { offset: 0xC6FD8, size: 0x8, addend: 0x0, symName: __RNvMNtNtCs6IAuOt8vWmF_3syn3pat7parsingNtB4_3Pat12parse_single, symObjAddr: 0xA4D4, symBinAddr: 0x52164, symSize: 0x888 }
  - { offset: 0xC7029, size: 0x8, addend: 0x0, symName: __RNvMNtNtCs6IAuOt8vWmF_3syn3pat7parsingNtB4_3Pat29parse_multi_with_leading_vert, symObjAddr: 0xADA0, symBinAddr: 0x529EC, symSize: 0xD0 }
  - { offset: 0xC70B3, size: 0x8, addend: 0x0, symName: __RNvMs0_NtNtCs6IAuOt8vWmF_3syn3pat7parsingNtB5_13PatRangeBound9into_expr, symObjAddr: 0xFA34, symBinAddr: 0x572E0, symSize: 0x1A8 }
  - { offset: 0xC714B, size: 0x8, addend: 0x0, symName: __RNvMs0_NtNtCs6IAuOt8vWmF_3syn3pat7parsingNtB5_13PatRangeBound8into_pat, symObjAddr: 0xFBDC, symBinAddr: 0x57488, symSize: 0x168 }
  - { offset: 0xC74FC, size: 0x8, addend: 0x0, symName: __RINvMNtCse1nGBsou5OW_5alloc5sliceSRe4joinBw_ECs6IAuOt8vWmF_3syn, symObjAddr: 0x0, symBinAddr: 0x59158, symSize: 0x34 }
  - { offset: 0xC7994, size: 0x8, addend: 0x0, symName: __RINvXs6_Cs3cP53eQoTwO_11proc_macro2NtB6_11TokenStreamINtNtNtNtCsfvfooZQ3Axs_4core4iter6traits7collect12FromIteratorNtB6_9TokenTreeE9from_iterAB1P_j1_ECs6IAuOt8vWmF_3syn, symObjAddr: 0x12B4, symBinAddr: 0x5A40C, symSize: 0x54 }
  - { offset: 0xC79CC, size: 0x8, addend: 0x0, symName: __RINvXs6_Cs3cP53eQoTwO_11proc_macro2NtB6_11TokenStreamINtNtNtNtCsfvfooZQ3Axs_4core4iter6traits7collect12FromIteratorNtB6_9TokenTreeE9from_iterAB1P_j8_ECs6IAuOt8vWmF_3syn, symObjAddr: 0x1308, symBinAddr: 0x5A460, symSize: 0x5C }
  - { offset: 0xC7A04, size: 0x8, addend: 0x0, symName: __RINvXs6_Cs3cP53eQoTwO_11proc_macro2NtB6_11TokenStreamINtNtNtNtCsfvfooZQ3Axs_4core4iter6traits7collect12FromIteratorNtB6_9TokenTreeE9from_iterINtNtNtCse1nGBsou5OW_5alloc3vec9into_iter8IntoIterB1P_EECs6IAuOt8vWmF_3syn, symObjAddr: 0x13B8, symBinAddr: 0x5A4BC, symSize: 0x54 }
  - { offset: 0xC7A42, size: 0x8, addend: 0x0, symName: __RINvXs7_Cs3cP53eQoTwO_11proc_macro2NtB6_11TokenStreamINtNtNtNtCsfvfooZQ3Axs_4core4iter6traits7collect12FromIteratorBx_E9from_iterINtNtNtBW_8adapters3map3MapINtNtNtBY_5slice4iter4IterNtNtCs6IAuOt8vWmF_3syn5error12ErrorMessageENvMs_B2W_B2U_16to_compile_errorEEB2Y_, symObjAddr: 0x140C, symBinAddr: 0x5A510, symSize: 0x5C }
  - { offset: 0xC7A7E, size: 0x8, addend: 0x0, symName: __RNCINvXs7_Cs3cP53eQoTwO_11proc_macro2NtB8_11TokenStreamINtNtNtNtCsfvfooZQ3Axs_4core4iter6traits7collect12FromIteratorBz_E9from_iterINtNtNtBY_8adapters3map3MapINtNtNtB10_5slice4iter4IterNtNtCs6IAuOt8vWmF_3syn5error12ErrorMessageENvMs_B2Z_B2X_16to_compile_errorEE0B31_, symObjAddr: 0x1818, symBinAddr: 0x5A7CC, symSize: 0x30 }
  - { offset: 0xC7CAF, size: 0x8, addend: 0x0, symName: __RNvXsG_Cs3cP53eQoTwO_11proc_macro2NtB5_11TokenStreamNtNtCsfvfooZQ3Axs_4core5clone5Clone5cloneCs6IAuOt8vWmF_3syn, symObjAddr: 0x248C, symBinAddr: 0x5AD9C, symSize: 0x78 }
  - { offset: 0xC7CE1, size: 0x8, addend: 0x0, symName: __RNvXsI_Cs3cP53eQoTwO_11proc_macro2NtB5_4SpanNtNtCsfvfooZQ3Axs_4core5clone5Clone5cloneCs6IAuOt8vWmF_3syn, symObjAddr: 0x2504, symBinAddr: 0x5AE14, symSize: 0x18 }
  - { offset: 0xC7D15, size: 0x8, addend: 0x0, symName: __RNvXsK_Cs3cP53eQoTwO_11proc_macro2NtB5_5GroupNtNtCsfvfooZQ3Axs_4core5clone5Clone5cloneCs6IAuOt8vWmF_3syn, symObjAddr: 0x251C, symBinAddr: 0x5AE2C, symSize: 0x40 }
  - { offset: 0xC7D49, size: 0x8, addend: 0x0, symName: __RNvXsM_Cs3cP53eQoTwO_11proc_macro2NtB5_9DelimiterNtNtCsfvfooZQ3Axs_4core5clone5Clone5cloneCs6IAuOt8vWmF_3syn, symObjAddr: 0x255C, symBinAddr: 0x5AE6C, symSize: 0x18 }
  - { offset: 0xC7D7D, size: 0x8, addend: 0x0, symName: __RNvXsQ_Cs3cP53eQoTwO_11proc_macro2NtB5_9DelimiterNtNtCsfvfooZQ3Axs_4core3cmp9PartialEq2eqCs6IAuOt8vWmF_3syn, symObjAddr: 0x2574, symBinAddr: 0x5AE84, symSize: 0x34 }
  - { offset: 0xC7DFC, size: 0x8, addend: 0x0, symName: __RNvXsR_Cs3cP53eQoTwO_11proc_macro2NtB5_5PunctNtNtCsfvfooZQ3Axs_4core5clone5Clone5cloneCs6IAuOt8vWmF_3syn, symObjAddr: 0x25A8, symBinAddr: 0x5AEB8, symSize: 0x64 }
  - { offset: 0xC7E30, size: 0x8, addend: 0x0, symName: __RNvXsT_Cs3cP53eQoTwO_11proc_macro2NtB5_7SpacingNtNtCsfvfooZQ3Axs_4core5clone5Clone5cloneCs6IAuOt8vWmF_3syn, symObjAddr: 0x260C, symBinAddr: 0x5AF1C, symSize: 0x1C }
  - { offset: 0xC7E64, size: 0x8, addend: 0x0, symName: __RNvXsX_Cs3cP53eQoTwO_11proc_macro2NtB5_7SpacingNtNtCsfvfooZQ3Axs_4core3cmp9PartialEq2eqCs6IAuOt8vWmF_3syn, symObjAddr: 0x2628, symBinAddr: 0x5AF38, symSize: 0x3C }
  - { offset: 0xC7EE3, size: 0x8, addend: 0x0, symName: __RNvXsY_Cs3cP53eQoTwO_11proc_macro2NtB5_5IdentNtNtCsfvfooZQ3Axs_4core5clone5Clone5cloneCs6IAuOt8vWmF_3syn, symObjAddr: 0x2664, symBinAddr: 0x5AF74, symSize: 0x78 }
  - { offset: 0xC7F17, size: 0x8, addend: 0x0, symName: __RNvXsZ_Cs3cP53eQoTwO_11proc_macro2NtB5_7LiteralNtNtCsfvfooZQ3Axs_4core5clone5Clone5cloneCs6IAuOt8vWmF_3syn, symObjAddr: 0x26DC, symBinAddr: 0x5AFEC, symSize: 0x78 }
  - { offset: 0xC7F4B, size: 0x8, addend: 0x0, symName: __RNvXsv_Cs3cP53eQoTwO_11proc_macro2NtB5_5IdentINtNtCsfvfooZQ3Axs_4core3cmp9PartialEqReE2eqCs6IAuOt8vWmF_3syn, symObjAddr: 0x40E8, symBinAddr: 0x5B338, symSize: 0x40 }
  - { offset: 0xC7F91, size: 0x8, addend: 0x0, symName: __RNvXsv_Cs3cP53eQoTwO_11proc_macro2NtB5_5IdentINtNtCsfvfooZQ3Axs_4core3cmp9PartialEqeE2eqCs6IAuOt8vWmF_3syn, symObjAddr: 0x4128, symBinAddr: 0x5B378, symSize: 0x44 }
  - { offset: 0xC8E4F, size: 0x8, addend: 0x0, symName: __RNvNvMs1_NtNtCsfvfooZQ3Axs_4core3ptr8non_nullINtB7_7NonNullpE13new_unchecked18precondition_checkCs6IAuOt8vWmF_3syn, symObjAddr: 0x1D48, symBinAddr: 0x5AB2C, symSize: 0x38 }
  - { offset: 0xC9893, size: 0x8, addend: 0x0, symName: __RNvXs1p_NtNtCsfvfooZQ3Axs_4core3fmt3numjNtB8_5Debug3fmtCs6IAuOt8vWmF_3syn, symObjAddr: 0x2150, symBinAddr: 0x5AC94, symSize: 0x90 }
  - { offset: 0xD443D, size: 0x8, addend: 0x0, symName: __RNvXs2_NtNtNtCsfvfooZQ3Axs_4core3ops8function5implsQNCINvXs7_Cs3cP53eQoTwO_11proc_macro2NtBX_11TokenStreamINtNtNtNtBb_4iter6traits7collect12FromIteratorB1o_E9from_iterINtNtNtB1N_8adapters3map3MapINtNtNtBb_5slice4iter4IterNtNtCs6IAuOt8vWmF_3syn5error12ErrorMessageENvMs_B3z_B3x_16to_compile_errorEE0INtB7_6FnOnceTB1o_EE9call_onceB3B_, symObjAddr: 0x21E0, symBinAddr: 0x5AD24, symSize: 0x3C }
  - { offset: 0xD46D7, size: 0x8, addend: 0x0, symName: __RINvNvNtNtNtNtCsfvfooZQ3Axs_4core4iter6traits8iterator8Iterator4last4someNtCs3cP53eQoTwO_11proc_macro29TokenTreeECs6IAuOt8vWmF_3syn, symObjAddr: 0x74, symBinAddr: 0x591CC, symSize: 0x24 }
  - { offset: 0xD4723, size: 0x8, addend: 0x0, symName: __RNCINvNvNtNtNtNtCsfvfooZQ3Axs_4core4iter6traits8iterator8Iterator3all5checkRNtNtCs6IAuOt8vWmF_3syn4path11PathSegmentNCNvMs5_NtB1e_7parsingNtB1e_4Path12is_mod_style0E0B1g_, symObjAddr: 0x1468, symBinAddr: 0x5A56C, symSize: 0x50 }
  - { offset: 0xD478B, size: 0x8, addend: 0x0, symName: __RNCINvNvNtNtNtNtCsfvfooZQ3Axs_4core4iter6traits8iterator8Iterator8for_each4callNtCs3cP53eQoTwO_11proc_macro29TokenTreeNCINvXsa_NtB1h_8fallbackNtB21_11TokenStreamINtNtBa_7collect6ExtendB1f_E6extendINtNtNtBe_5array4iter8IntoIterB1f_Kj1_EE0E0Cs6IAuOt8vWmF_3syn, symObjAddr: 0x14F4, symBinAddr: 0x5A5BC, symSize: 0x3C }
  - { offset: 0xD47E4, size: 0x8, addend: 0x0, symName: __RNCINvNvNtNtNtNtCsfvfooZQ3Axs_4core4iter6traits8iterator8Iterator8for_each4callNtCs3cP53eQoTwO_11proc_macro29TokenTreeNCINvXsa_NtB1h_8fallbackNtB21_11TokenStreamINtNtBa_7collect6ExtendB1f_E6extendINtNtNtBe_5array4iter8IntoIterB1f_Kj8_EE0E0Cs6IAuOt8vWmF_3syn, symObjAddr: 0x1530, symBinAddr: 0x5A5F8, symSize: 0x3C }
  - { offset: 0xD483D, size: 0x8, addend: 0x0, symName: __RNCINvNvNtNtNtNtCsfvfooZQ3Axs_4core4iter6traits8iterator8Iterator8for_each4callNtCs3cP53eQoTwO_11proc_macro29TokenTreeNCINvXsa_NtB1h_8fallbackNtB21_11TokenStreamINtNtBa_7collect6ExtendB1f_E6extendINtNtNtCse1nGBsou5OW_5alloc3vec9into_iter8IntoIterB1f_EE0E0Cs6IAuOt8vWmF_3syn, symObjAddr: 0x156C, symBinAddr: 0x5A634, symSize: 0x3C }
  - { offset: 0xD4896, size: 0x8, addend: 0x0, symName: __RNCINvNvNtNtNtNtCsfvfooZQ3Axs_4core4iter6traits8iterator8Iterator8for_each4callNtCs9i5KxIbZ5ph_10proc_macro11TokenStreamNCINvXsj_B1h_B1f_INtNtBa_7collect6ExtendB1f_E6extendINtNtNtBc_8adapters3map3MapIB2L_IB2L_INtNtNtBe_5slice4iter4IterNtNtCs6IAuOt8vWmF_3syn5error12ErrorMessageENvMs_B3N_B3L_16to_compile_errorENCINvXs7_Cs3cP53eQoTwO_11proc_macro2NtB57_11TokenStreamINtB2e_12FromIteratorB5y_E9from_iterB3g_E0ENCINvXs6_NtB57_3impNtB6H_11TokenStreamIB5S_B6R_E9from_iterB3b_E0EE0E0B3P_, symObjAddr: 0x15A8, symBinAddr: 0x5A670, symSize: 0x28 }
  - { offset: 0xD48EE, size: 0x8, addend: 0x0, symName: __RNCINvNvNtNtNtNtCsfvfooZQ3Axs_4core4iter6traits8iterator8Iterator8for_each4callNtCs9i5KxIbZ5ph_10proc_macro9TokenTreeNCINvXsg_B1h_NtB1h_11TokenStreamINtNtBa_7collect12FromIteratorB1f_E9from_iterINtNtNtBc_8adapters3map3MapINtNtNtBe_5array4iter8IntoIterNtCs3cP53eQoTwO_11proc_macro29TokenTreeKj1_ENvNtB43_3imp19into_compiler_tokenEE0E0Cs6IAuOt8vWmF_3syn, symObjAddr: 0x160C, symBinAddr: 0x5A698, symSize: 0x3C }
  - { offset: 0xD4947, size: 0x8, addend: 0x0, symName: __RNCINvNvNtNtNtNtCsfvfooZQ3Axs_4core4iter6traits8iterator8Iterator8for_each4callNtCs9i5KxIbZ5ph_10proc_macro9TokenTreeNCINvXsg_B1h_NtB1h_11TokenStreamINtNtBa_7collect12FromIteratorB1f_E9from_iterINtNtNtBc_8adapters3map3MapINtNtNtBe_5array4iter8IntoIterNtCs3cP53eQoTwO_11proc_macro29TokenTreeKj8_ENvNtB43_3imp19into_compiler_tokenEE0E0Cs6IAuOt8vWmF_3syn, symObjAddr: 0x1648, symBinAddr: 0x5A6D4, symSize: 0x3C }
  - { offset: 0xD49A0, size: 0x8, addend: 0x0, symName: __RNCINvNvNtNtNtNtCsfvfooZQ3Axs_4core4iter6traits8iterator8Iterator8for_each4callNtCs9i5KxIbZ5ph_10proc_macro9TokenTreeNCINvXsg_B1h_NtB1h_11TokenStreamINtNtBa_7collect12FromIteratorB1f_E9from_iterINtNtNtBc_8adapters3map3MapINtNtNtCse1nGBsou5OW_5alloc3vec9into_iter8IntoIterNtCs3cP53eQoTwO_11proc_macro29TokenTreeENvNtB4n_3imp19into_compiler_tokenEE0E0Cs6IAuOt8vWmF_3syn, symObjAddr: 0x1684, symBinAddr: 0x5A710, symSize: 0x3C }
  - { offset: 0xD49F9, size: 0x8, addend: 0x0, symName: __RNCINvNvNtNtNtNtCsfvfooZQ3Axs_4core4iter6traits8iterator8Iterator8for_each4callNtNtCs6IAuOt8vWmF_3syn8generics14TypeParamBoundNCINvMsi_NtCse1nGBsou5OW_5alloc3vecINtB29_3VecB1f_E14extend_trustedINtNtBe_6option8IntoIterB1f_EE0E0B1j_, symObjAddr: 0x1798, symBinAddr: 0x5A74C, symSize: 0x40 }
  - { offset: 0xD4A52, size: 0x8, addend: 0x0, symName: __RNCINvNvNtNtNtNtCsfvfooZQ3Axs_4core4iter6traits8iterator8Iterator8for_each4callNtNtCs6IAuOt8vWmF_3syn8generics14TypeParamBoundNCINvMsi_NtCse1nGBsou5OW_5alloc3vecINtB29_3VecB1f_E14extend_trustedINtNtNtBc_8adapters3map3MapINtNtB29_9into_iter8IntoIterTB1f_NtNtB1j_5token4PlusEENCNvXs8_NtB1j_10punctuatedINtB4w_10PunctuatedB1f_B43_ENtNtBa_7collect12IntoIterator9into_iter0EE0E0B1j_, symObjAddr: 0x17D8, symBinAddr: 0x5A78C, symSize: 0x40 }
  - { offset: 0xD4AB9, size: 0x8, addend: 0x0, symName: __RNvXNtNtNtCsfvfooZQ3Axs_4core4iter6traits7collectINtNtNtB6_8adapters9enumerate9EnumerateINtNtBQ_4take4TakeQINtNtCs6IAuOt8vWmF_3syn10punctuated5PairsNtNtB1M_4path11PathSegmentNtNtB1M_5token7PathSepEEENtB2_12IntoIterator9into_iterB1M_, symObjAddr: 0x1EF4, symBinAddr: 0x5AC00, symSize: 0x18 }
  - { offset: 0xD4AF0, size: 0x8, addend: 0x0, symName: __RNvXNtNtNtCsfvfooZQ3Axs_4core4iter6traits7collectINtNtNtB6_8adapters9enumerate9EnumerateINtNtNtB8_5slice4iter4IterNtNtCs6IAuOt8vWmF_3syn4expr3ArmEENtB2_12IntoIterator9into_iterB1S_, symObjAddr: 0x1F24, symBinAddr: 0x5AC18, symSize: 0x18 }
  - { offset: 0xD4B27, size: 0x8, addend: 0x0, symName: __RNvXNtNtNtCsfvfooZQ3Axs_4core4iter6traits7collectINtNtNtB6_8adapters9enumerate9EnumerateNtNtNtB8_3str4iter5CharsENtB2_12IntoIterator9into_iterCs6IAuOt8vWmF_3syn, symObjAddr: 0x1F3C, symBinAddr: 0x5AC30, symSize: 0x18 }
  - { offset: 0xD4B70, size: 0x8, addend: 0x0, symName: __RNvXs_NtNtNtCsfvfooZQ3Axs_4core4iter8adapters9enumerateINtB4_9EnumerateINtNtB6_4take4TakeQINtNtCs6IAuOt8vWmF_3syn10punctuated5PairsNtNtB1v_4path11PathSegmentNtNtB1v_5token7PathSepEEENtNtNtB8_6traits8iterator8Iterator4nextB1v_, symObjAddr: 0x2754, symBinAddr: 0x5B064, symSize: 0x110 }
  - { offset: 0xD4C4B, size: 0x8, addend: 0x0, symName: __RNvXs_NtNtNtCsfvfooZQ3Axs_4core4iter8adapters9enumerateINtB4_9EnumerateINtNtNtBa_5slice4iter4IterNtNtCs6IAuOt8vWmF_3syn4expr3ArmEENtNtNtB8_6traits8iterator8Iterator4nextB1B_, symObjAddr: 0x2A24, symBinAddr: 0x5B174, symSize: 0xE0 }
  - { offset: 0xD4D25, size: 0x8, addend: 0x0, symName: __RNvXs_NtNtNtCsfvfooZQ3Axs_4core4iter8adapters9enumerateINtB4_9EnumerateNtNtNtBa_3str4iter5CharsENtNtNtB8_6traits8iterator8Iterator4nextCs6IAuOt8vWmF_3syn, symObjAddr: 0x4004, symBinAddr: 0x5B254, symSize: 0xE4 }
  - { offset: 0xD4F2C, size: 0x8, addend: 0x0, symName: __RNvMNtCsfvfooZQ3Axs_4core5sliceSNtCs3cP53eQoTwO_11proc_macro24Span4iterCs6IAuOt8vWmF_3syn, symObjAddr: 0x1848, symBinAddr: 0x5A7FC, symSize: 0x28 }
  - { offset: 0xD4F63, size: 0x8, addend: 0x0, symName: __RNvMNtCsfvfooZQ3Axs_4core5sliceSNtCs3cP53eQoTwO_11proc_macro24Span4lastCs6IAuOt8vWmF_3syn, symObjAddr: 0x1870, symBinAddr: 0x5A824, symSize: 0x50 }
  - { offset: 0xD565A, size: 0x8, addend: 0x0, symName: __RNvXNtNtCsfvfooZQ3Axs_4core5array4iterANtCs3cP53eQoTwO_11proc_macro29TokenTreej1_NtNtNtNtB6_4iter6traits7collect12IntoIterator9into_iterCs6IAuOt8vWmF_3syn, symObjAddr: 0x1D80, symBinAddr: 0x5AB64, symSize: 0x3C }
  - { offset: 0xD568F, size: 0x8, addend: 0x0, symName: __RNvXNtNtCsfvfooZQ3Axs_4core5array4iterANtCs3cP53eQoTwO_11proc_macro29TokenTreej8_NtNtNtNtB6_4iter6traits7collect12IntoIterator9into_iterCs6IAuOt8vWmF_3syn, symObjAddr: 0x1DBC, symBinAddr: 0x5ABA0, symSize: 0x60 }
  - { offset: 0xD5728, size: 0x8, addend: 0x0, symName: __RNvXs0_NtCsfvfooZQ3Axs_4core6borrowReINtB5_6BorroweE6borrowCs6IAuOt8vWmF_3syn, symObjAddr: 0x1F54, symBinAddr: 0x5AC48, symSize: 0x20 }
  - { offset: 0xD5796, size: 0x8, addend: 0x0, symName: __RNvXs1_NtCsfvfooZQ3Axs_4core7convertNtCs3cP53eQoTwO_11proc_macro25IdentINtB5_4IntoBy_E4intoCs6IAuOt8vWmF_3syn, symObjAddr: 0x2004, symBinAddr: 0x5AC68, symSize: 0x18 }
  - { offset: 0xD57F4, size: 0x8, addend: 0x0, symName: __RNvXs1_NtCsfvfooZQ3Axs_4core7convertNtCs3cP53eQoTwO_11proc_macro25IdentINtB5_4IntoNtNtCs6IAuOt8vWmF_3syn4path11PathSegmentE4intoB1m_, symObjAddr: 0x201C, symBinAddr: 0x5AC80, symSize: 0x14 }
  - { offset: 0xD5850, size: 0x8, addend: 0x0, symName: __RNvXs7_NtNtCsfvfooZQ3Axs_4core3cmp5implsRNtCs3cP53eQoTwO_11proc_macro25IdentINtB7_9PartialEqReE2eqCs6IAuOt8vWmF_3syn, symObjAddr: 0x221C, symBinAddr: 0x5AD60, symSize: 0x3C }
  - { offset: 0xD58A6, size: 0x8, addend: 0x0, symName: __RNvYNtCs3cP53eQoTwO_11proc_macro27SpacingNtNtCsfvfooZQ3Axs_4core3cmp9PartialEq2neCs6IAuOt8vWmF_3syn, symObjAddr: 0x443C, symBinAddr: 0x5B68C, symSize: 0x30 }
  - { offset: 0xD5B78, size: 0x8, addend: 0x0, symName: __RNvXsw_NtCse1nGBsou5OW_5alloc6stringNtCs3cP53eQoTwO_11proc_macro27LiteralNtB5_8ToString9to_stringCs6IAuOt8vWmF_3syn, symObjAddr: 0x416C, symBinAddr: 0x5B3BC, symSize: 0x24 }
  - { offset: 0xD5BAF, size: 0x8, addend: 0x0, symName: __RNvXsw_NtCse1nGBsou5OW_5alloc6stringNtCs3cP53eQoTwO_11proc_macro28LexErrorNtB5_8ToString9to_stringCs6IAuOt8vWmF_3syn, symObjAddr: 0x4190, symBinAddr: 0x5B3E0, symSize: 0x24 }
  - { offset: 0xD5BEC, size: 0x8, addend: 0x0, symName: __RNvXsx_NtCse1nGBsou5OW_5alloc6stringNtCs3cP53eQoTwO_11proc_macro27LiteralNtB5_12SpecToString14spec_to_stringCs6IAuOt8vWmF_3syn, symObjAddr: 0x41B4, symBinAddr: 0x5B404, symSize: 0x144 }
  - { offset: 0xD5CB7, size: 0x8, addend: 0x0, symName: __RNvXsx_NtCse1nGBsou5OW_5alloc6stringNtCs3cP53eQoTwO_11proc_macro28LexErrorNtB5_12SpecToString14spec_to_stringCs6IAuOt8vWmF_3syn, symObjAddr: 0x42F8, symBinAddr: 0x5B548, symSize: 0x144 }
  - { offset: 0xD6B82, size: 0x8, addend: 0x0, symName: __RINvMNtCse1nGBsou5OW_5alloc5sliceSRe4joinBw_ECs6IAuOt8vWmF_3syn, symObjAddr: 0x0, symBinAddr: 0x59158, symSize: 0x34 }
  - { offset: 0xDAE59, size: 0x8, addend: 0x0, symName: __RNvXNtNtCs6IAuOt8vWmF_3syn3lit7parsingNtB4_3LitNtNtB6_5parse5Parse5parse, symObjAddr: 0x8CF0, symBinAddr: 0x5CC5C, symSize: 0x34 }
  - { offset: 0xDAE8C, size: 0x8, addend: 0x0, symName: __RNCNvXNtNtCs6IAuOt8vWmF_3syn3lit7parsingNtB6_3LitNtNtB8_5parse5Parse5parse0B8_, symObjAddr: 0x8D24, symBinAddr: 0x5CC90, symSize: 0x48C }
  - { offset: 0xDAFAD, size: 0x8, addend: 0x0, symName: __RNvNtNtCs6IAuOt8vWmF_3syn3lit7parsing18parse_negative_lit, symObjAddr: 0x91B0, symBinAddr: 0x5D11C, symSize: 0x804 }
  - { offset: 0xDB1A3, size: 0x8, addend: 0x0, symName: __RNvXs_NtNtCs6IAuOt8vWmF_3syn3lit7parsingNtB6_6LitStrNtNtB8_5parse5Parse5parse, symObjAddr: 0x99B4, symBinAddr: 0x5D920, symSize: 0x220 }
  - { offset: 0xDB20B, size: 0x8, addend: 0x0, symName: __RNvXs4_NtNtCs6IAuOt8vWmF_3syn3lit7parsingNtB7_6LitIntNtNtB9_5parse5Parse5parse, symObjAddr: 0xA484, symBinAddr: 0x5DB40, symSize: 0x22C }
  - { offset: 0xDB273, size: 0x8, addend: 0x0, symName: __RNvXs5_NtNtCs6IAuOt8vWmF_3syn3lit7parsingNtB7_8LitFloatNtNtB9_5parse5Parse5parse, symObjAddr: 0xA6B0, symBinAddr: 0x5DD6C, symSize: 0x22C }
  - { offset: 0xDB2D6, size: 0x8, addend: 0x0, symName: __RNvNtNtCs6IAuOt8vWmF_3syn3lit7parsing9peek_impl, symObjAddr: 0xAA50, symBinAddr: 0x5DF98, symSize: 0xD4 }
  - { offset: 0xDB373, size: 0x8, addend: 0x0, symName: __RNvXs7_NtNtCs6IAuOt8vWmF_3syn3lit7parsingNtB7_3LitNtNtB9_5token5Token4peek, symObjAddr: 0x16980, symBinAddr: 0x67028, symSize: 0x44 }
  - { offset: 0xDB3A6, size: 0x8, addend: 0x0, symName: __RNvNvXs7_NtNtCs6IAuOt8vWmF_3syn3lit7parsingNtB9_3LitNtNtBb_5token5Token4peek4peek, symObjAddr: 0x169C4, symBinAddr: 0x6706C, symSize: 0x80 }
  - { offset: 0xDB3D5, size: 0x8, addend: 0x0, symName: __RNvXs7_NtNtCs6IAuOt8vWmF_3syn3lit7parsingNtB7_3LitNtNtB9_5token5Token7display, symObjAddr: 0x16A44, symBinAddr: 0x670EC, symSize: 0x24 }
  - { offset: 0xDB3F9, size: 0x8, addend: 0x0, symName: __RNvXs9_NtNtCs6IAuOt8vWmF_3syn3lit7parsingNtB7_6LitStrNtNtB9_5token5Token4peek, symObjAddr: 0x16A68, symBinAddr: 0x67110, symSize: 0x44 }
  - { offset: 0xDB42C, size: 0x8, addend: 0x0, symName: __RNvNvXs9_NtNtCs6IAuOt8vWmF_3syn3lit7parsingNtB9_6LitStrNtNtBb_5token5Token4peek4peek, symObjAddr: 0x16AAC, symBinAddr: 0x67154, symSize: 0x80 }
  - { offset: 0xDB45B, size: 0x8, addend: 0x0, symName: __RNvXs9_NtNtCs6IAuOt8vWmF_3syn3lit7parsingNtB7_6LitStrNtNtB9_5token5Token7display, symObjAddr: 0x16B2C, symBinAddr: 0x671D4, symSize: 0x24 }
  - { offset: 0xDB47F, size: 0x8, addend: 0x0, symName: __RNvXsj_NtNtCs6IAuOt8vWmF_3syn3lit7parsingNtB7_6LitIntNtNtB9_5token5Token4peek, symObjAddr: 0x16EF0, symBinAddr: 0x671F8, symSize: 0x44 }
  - { offset: 0xDB4B2, size: 0x8, addend: 0x0, symName: __RNvNvXsj_NtNtCs6IAuOt8vWmF_3syn3lit7parsingNtB9_6LitIntNtNtBb_5token5Token4peek4peek, symObjAddr: 0x16F34, symBinAddr: 0x6723C, symSize: 0x80 }
  - { offset: 0xDB4E7, size: 0x8, addend: 0x0, symName: __RNvXsl_NtNtCs6IAuOt8vWmF_3syn3lit7parsingNtB7_8LitFloatNtNtB9_5token5Token4peek, symObjAddr: 0x16FD8, symBinAddr: 0x672BC, symSize: 0x44 }
  - { offset: 0xDB51A, size: 0x8, addend: 0x0, symName: __RNvNvXsl_NtNtCs6IAuOt8vWmF_3syn3lit7parsingNtB9_8LitFloatNtNtBb_5token5Token4peek4peek, symObjAddr: 0x1701C, symBinAddr: 0x67300, symSize: 0x80 }
  - { offset: 0xDB555, size: 0x8, addend: 0x0, symName: __RNvXNtNtCs6IAuOt8vWmF_3syn3lit8printingNtB4_6LitStrNtNtCs2cqEZUIJimJ_5quote9to_tokens8ToTokens9to_tokens, symObjAddr: 0xAB24, symBinAddr: 0x5E06C, symSize: 0x68 }
  - { offset: 0xDB594, size: 0x8, addend: 0x0, symName: __RNvXs_NtNtCs6IAuOt8vWmF_3syn3lit8printingNtB6_10LitByteStrNtNtCs2cqEZUIJimJ_5quote9to_tokens8ToTokens9to_tokens, symObjAddr: 0xAB8C, symBinAddr: 0x5E0D4, symSize: 0x68 }
  - { offset: 0xDB5D3, size: 0x8, addend: 0x0, symName: __RNvXs0_NtNtCs6IAuOt8vWmF_3syn3lit8printingNtB7_7LitCStrNtNtCs2cqEZUIJimJ_5quote9to_tokens8ToTokens9to_tokens, symObjAddr: 0xABF4, symBinAddr: 0x5E13C, symSize: 0x68 }
  - { offset: 0xDB612, size: 0x8, addend: 0x0, symName: __RNvXs1_NtNtCs6IAuOt8vWmF_3syn3lit8printingNtB7_7LitByteNtNtCs2cqEZUIJimJ_5quote9to_tokens8ToTokens9to_tokens, symObjAddr: 0xAC5C, symBinAddr: 0x5E1A4, symSize: 0x68 }
  - { offset: 0xDB651, size: 0x8, addend: 0x0, symName: __RNvXs2_NtNtCs6IAuOt8vWmF_3syn3lit8printingNtB7_7LitCharNtNtCs2cqEZUIJimJ_5quote9to_tokens8ToTokens9to_tokens, symObjAddr: 0xACC4, symBinAddr: 0x5E20C, symSize: 0x68 }
  - { offset: 0xDB690, size: 0x8, addend: 0x0, symName: __RNvXs3_NtNtCs6IAuOt8vWmF_3syn3lit8printingNtB7_6LitIntNtNtCs2cqEZUIJimJ_5quote9to_tokens8ToTokens9to_tokens, symObjAddr: 0xAD2C, symBinAddr: 0x5E274, symSize: 0x68 }
  - { offset: 0xDB6CF, size: 0x8, addend: 0x0, symName: __RNvXs4_NtNtCs6IAuOt8vWmF_3syn3lit8printingNtB7_8LitFloatNtNtCs2cqEZUIJimJ_5quote9to_tokens8ToTokens9to_tokens, symObjAddr: 0xAD94, symBinAddr: 0x5E2DC, symSize: 0x68 }
  - { offset: 0xDB70E, size: 0x8, addend: 0x0, symName: __RNvXs5_NtNtCs6IAuOt8vWmF_3syn3lit8printingNtB7_7LitBoolNtNtCs2cqEZUIJimJ_5quote9to_tokens8ToTokens9to_tokens, symObjAddr: 0xADFC, symBinAddr: 0x5E344, symSize: 0x50 }
  - { offset: 0xDB74E, size: 0x8, addend: 0x0, symName: __RNvXsl_NtCs6IAuOt8vWmF_3syn3litNtB5_3LitNtNtCs2cqEZUIJimJ_5quote9to_tokens8ToTokens9to_tokens, symObjAddr: 0x15E90, symBinAddr: 0x66E5C, symSize: 0x1CC }
  - { offset: 0xDD6C3, size: 0x8, addend: 0x0, symName: __RNvXNtCs6IAuOt8vWmF_3syn3extNtCs3cP53eQoTwO_11proc_macro25IdentNtB2_8IdentExt9parse_any, symObjAddr: 0x446C, symBinAddr: 0x5B6BC, symSize: 0x34 }
  - { offset: 0xDD716, size: 0x8, addend: 0x0, symName: __RNvXNtCs6IAuOt8vWmF_3syn5identNtCs3cP53eQoTwO_11proc_macro25IdentINtNtCsfvfooZQ3Axs_4core7convert4FromNtNtB4_5token10UnderscoreE4from, symObjAddr: 0x45EC, symBinAddr: 0x5B6F0, symSize: 0x64 }
  - { offset: 0xDD748, size: 0x8, addend: 0x0, symName: __RNvNtNtCs6IAuOt8vWmF_3syn5ident7parsing15accept_as_ident, symObjAddr: 0x4650, symBinAddr: 0x5B754, symSize: 0xE74 }
  - { offset: 0xDD779, size: 0x8, addend: 0x0, symName: __RNvXNtNtCs6IAuOt8vWmF_3syn5ident7parsingNtCs3cP53eQoTwO_11proc_macro25IdentNtNtB6_5parse5Parse5parse, symObjAddr: 0x54C4, symBinAddr: 0x5C5C8, symSize: 0x34 }
  - { offset: 0xDD7AA, size: 0x8, addend: 0x0, symName: __RNCNvXNtNtCs6IAuOt8vWmF_3syn5ident7parsingNtCs3cP53eQoTwO_11proc_macro25IdentNtNtB8_5parse5Parse5parse0B8_, symObjAddr: 0x54F8, symBinAddr: 0x5C5FC, symSize: 0x2E8 }
  - { offset: 0xDD816, size: 0x8, addend: 0x0, symName: __RNvXs_NtNtCs6IAuOt8vWmF_3syn5ident7parsingNtCs3cP53eQoTwO_11proc_macro25IdentNtNtB8_5token5Token4peek, symObjAddr: 0x57E0, symBinAddr: 0x5C8E4, symSize: 0x12C }
  - { offset: 0xDD866, size: 0x8, addend: 0x0, symName: __RNvXs_NtNtCs6IAuOt8vWmF_3syn5ident7parsingNtCs3cP53eQoTwO_11proc_macro25IdentNtNtB8_5token5Token7display, symObjAddr: 0x590C, symBinAddr: 0x5CA10, symSize: 0x24 }
  - { offset: 0xDD913, size: 0x8, addend: 0x0, symName: __RNvXNtNtCs6IAuOt8vWmF_3syn5parse11discouragedNtB4_11ParseBufferNtB2_11Speculative10advance_to, symObjAddr: 0xC2B0, symBinAddr: 0x5F0E4, symSize: 0x37C }
  - { offset: 0xDDA88, size: 0x8, addend: 0x0, symName: __RNvXNtCs6IAuOt8vWmF_3syn5parseNtB2_11ParseBufferNtNtNtCsfvfooZQ3Axs_4core3ops4drop4Drop4drop, symObjAddr: 0xC870, symBinAddr: 0x5F460, symSize: 0x15C }
  - { offset: 0xDDB55, size: 0x8, addend: 0x0, symName: __RNvXs3_NtCs6IAuOt8vWmF_3syn5parseNtB5_10StepCursorNtNtNtCsfvfooZQ3Axs_4core3ops5deref5Deref5deref, symObjAddr: 0xCAEC, symBinAddr: 0x5F5BC, symSize: 0x24 }
  - { offset: 0xDDC1D, size: 0x8, addend: 0x0, symName: __RNvNtCs6IAuOt8vWmF_3syn5parse19advance_step_cursor, symObjAddr: 0xCC08, symBinAddr: 0x5F6A0, symSize: 0x34 }
  - { offset: 0xDDC57, size: 0x8, addend: 0x0, symName: __RNvNtCs6IAuOt8vWmF_3syn5parse16new_parse_buffer, symObjAddr: 0xCC3C, symBinAddr: 0x5F6D4, symSize: 0xE4 }
  - { offset: 0xDDCA8, size: 0x8, addend: 0x0, symName: __RNvXs7_NtCs6IAuOt8vWmF_3syn5parseNtB5_10UnexpectedNtNtCsfvfooZQ3Axs_4core7default7Default7default, symObjAddr: 0xCD20, symBinAddr: 0x5F7B8, symSize: 0x18 }
  - { offset: 0xDDCCC, size: 0x8, addend: 0x0, symName: __RNvXs8_NtCs6IAuOt8vWmF_3syn5parseNtB5_10UnexpectedNtNtCsfvfooZQ3Axs_4core5clone5Clone5clone, symObjAddr: 0xCD38, symBinAddr: 0x5F7D0, symSize: 0xEC }
  - { offset: 0xDDD3F, size: 0x8, addend: 0x0, symName: __RINvNtCs6IAuOt8vWmF_3syn5parse10cell_cloneINtNtCsfvfooZQ3Axs_4core6option6OptionINtNtCse1nGBsou5OW_5alloc2rc2RcINtNtBJ_4cell4CellNtB2_10UnexpectedEEEEB4_, symObjAddr: 0xCE24, symBinAddr: 0x5F8BC, symSize: 0xD0 }
  - { offset: 0xDDDA2, size: 0x8, addend: 0x0, symName: __RINvNtCs6IAuOt8vWmF_3syn5parse10cell_cloneNtB2_10UnexpectedEB4_, symObjAddr: 0xCEF4, symBinAddr: 0x5F98C, symSize: 0xDC }
  - { offset: 0xDDE05, size: 0x8, addend: 0x0, symName: __RNvNtCs6IAuOt8vWmF_3syn5parse16inner_unexpected, symObjAddr: 0xCFD0, symBinAddr: 0x5FA68, symSize: 0x1BC }
  - { offset: 0xDDEDE, size: 0x8, addend: 0x0, symName: __RNvNtCs6IAuOt8vWmF_3syn5parse14get_unexpected, symObjAddr: 0xD18C, symBinAddr: 0x5FC24, symSize: 0x58 }
  - { offset: 0xDDF2A, size: 0x8, addend: 0x0, symName: __RNvNtCs6IAuOt8vWmF_3syn5parse33span_of_unexpected_ignoring_nones, symObjAddr: 0xD1E4, symBinAddr: 0x5FC7C, symSize: 0x1B4 }
  - { offset: 0xE134D, size: 0x8, addend: 0x0, symName: __RNvNvMs9_NtCs6IAuOt8vWmF_3syn5parseNtB7_11ParseBuffer5peek25peek2, symObjAddr: 0x11C80, symBinAddr: 0x646E4, symSize: 0x5C }
  - { offset: 0xE1390, size: 0x8, addend: 0x0, symName: __RNvNvMs9_NtCs6IAuOt8vWmF_3syn5parseNtB7_11ParseBuffer5peek35peek3, symObjAddr: 0x12114, symBinAddr: 0x64B78, symSize: 0x6C }
  - { offset: 0xE13E0, size: 0x8, addend: 0x0, symName: __RNCNvXsc_NtCs6IAuOt8vWmF_3syn5parseNtCs3cP53eQoTwO_11proc_macro211TokenStreamNtB7_5Parse5parse0B9_, symObjAddr: 0x14108, symBinAddr: 0x66298, symSize: 0xB0 }
  - { offset: 0xE141B, size: 0x8, addend: 0x0, symName: __RNvXsc_NtCs6IAuOt8vWmF_3syn5parseNtCs3cP53eQoTwO_11proc_macro211TokenStreamNtB5_5Parse5parse, symObjAddr: 0x140D4, symBinAddr: 0x66264, symSize: 0x34 }
  - { offset: 0xE149B, size: 0x8, addend: 0x0, symName: __RNvYNvYNtNtCs6IAuOt8vWmF_3syn4expr5IndexNtNtB9_5parse5Parse5parseNtBE_6Parser9parse_strB9_, symObjAddr: 0x1480C, symBinAddr: 0x66348, symSize: 0x11C }
  - { offset: 0xE1500, size: 0x8, addend: 0x0, symName: __RNvNtCs6IAuOt8vWmF_3syn5parse22tokens_to_parse_buffer, symObjAddr: 0x14A44, symBinAddr: 0x66464, symSize: 0x98 }
  - { offset: 0xE158D, size: 0x8, addend: 0x0, symName: __RNvXsh_NtCs6IAuOt8vWmF_3syn5parseNvYNtNtB7_4expr5IndexNtB5_5Parse5parseNtB5_6Parser6parse2B7_, symObjAddr: 0x14ADC, symBinAddr: 0x664FC, symSize: 0x310 }
  - { offset: 0xE169C, size: 0x8, addend: 0x0, symName: __RNvNtCs6IAuOt8vWmF_3syn5parse20err_unexpected_token, symObjAddr: 0x15154, symBinAddr: 0x6680C, symSize: 0x11C }
  - { offset: 0xE188D, size: 0x8, addend: 0x0, symName: __RNvXNtCs6IAuOt8vWmF_3syn4spanNtCs3cP53eQoTwO_11proc_macro24SpanINtB2_9IntoSpansBr_E10into_spans, symObjAddr: 0x1535C, symBinAddr: 0x66928, symSize: 0x20 }
  - { offset: 0xE18BF, size: 0x8, addend: 0x0, symName: __RNvXs_NtCs6IAuOt8vWmF_3syn4spanNtCs3cP53eQoTwO_11proc_macro24SpanINtB4_9IntoSpansABt_j1_E10into_spans, symObjAddr: 0x1537C, symBinAddr: 0x66948, symSize: 0x28 }
  - { offset: 0xE18F1, size: 0x8, addend: 0x0, symName: __RNvXs0_NtCs6IAuOt8vWmF_3syn4spanNtCs3cP53eQoTwO_11proc_macro24SpanINtB5_9IntoSpansABu_j2_E10into_spans, symObjAddr: 0x153A4, symBinAddr: 0x66970, symSize: 0x2C }
  - { offset: 0xE1923, size: 0x8, addend: 0x0, symName: __RNvXs4_NtCs6IAuOt8vWmF_3syn4spanANtCs3cP53eQoTwO_11proc_macro24Spanj3_INtB5_9IntoSpansBu_E10into_spans, symObjAddr: 0x15464, symBinAddr: 0x6699C, symSize: 0x28 }
  - { offset: 0xE1955, size: 0x8, addend: 0x0, symName: __RNvXs5_NtCs6IAuOt8vWmF_3syn4spanNtCs3cP53eQoTwO_11proc_macro24SpanINtB5_9IntoSpansNtNtBw_5extra9DelimSpanE10into_spans, symObjAddr: 0x1548C, symBinAddr: 0x669C4, symSize: 0xAC }
  - { offset: 0xE199D, size: 0x8, addend: 0x0, symName: __RNvNtCs6IAuOt8vWmF_3syn8verbatim7between, symObjAddr: 0x15538, symBinAddr: 0x66A70, symSize: 0x3EC }
  - { offset: 0xE1BE2, size: 0x8, addend: 0x0, symName: __RINvMsC_Cs3cP53eQoTwO_11proc_macro2NtB6_7Literal7subspanINtNtNtCsfvfooZQ3Axs_4core3ops5range5RangejEECs6IAuOt8vWmF_3syn, symObjAddr: 0x34, symBinAddr: 0x5918C, symSize: 0x40 }
  - { offset: 0xE1C2C, size: 0x8, addend: 0x0, symName: __RINvXNtCs2cqEZUIJimJ_5quote3extNtCs3cP53eQoTwO_11proc_macro211TokenStreamNtB3_14TokenStreamExt10append_allINtNtCs6IAuOt8vWmF_3syn10punctuated5PairsNtNtB1L_2ty4TypeNtNtB1L_5token5CommaEEB1L_, symObjAddr: 0x98, symBinAddr: 0x591F0, symSize: 0xD0 }
  - { offset: 0xE1C9E, size: 0x8, addend: 0x0, symName: __RINvXNtCs2cqEZUIJimJ_5quote3extNtCs3cP53eQoTwO_11proc_macro211TokenStreamNtB3_14TokenStreamExt10append_allINtNtCs6IAuOt8vWmF_3syn10punctuated5PairsNtNtB1L_2ty9BareFnArgNtNtB1L_5token5CommaEEB1L_, symObjAddr: 0x168, symBinAddr: 0x592C0, symSize: 0xD0 }
  - { offset: 0xE1D10, size: 0x8, addend: 0x0, symName: __RINvXNtCs2cqEZUIJimJ_5quote3extNtCs3cP53eQoTwO_11proc_macro211TokenStreamNtB3_14TokenStreamExt10append_allINtNtCs6IAuOt8vWmF_3syn10punctuated5PairsNtNtB1L_3pat3PatNtNtB1L_5token2OrEEB1L_, symObjAddr: 0x238, symBinAddr: 0x59390, symSize: 0xD0 }
  - { offset: 0xE1D82, size: 0x8, addend: 0x0, symName: __RINvXNtCs2cqEZUIJimJ_5quote3extNtCs3cP53eQoTwO_11proc_macro211TokenStreamNtB3_14TokenStreamExt10append_allINtNtCs6IAuOt8vWmF_3syn10punctuated5PairsNtNtB1L_3pat3PatNtNtB1L_5token5CommaEEB1L_, symObjAddr: 0x308, symBinAddr: 0x59460, symSize: 0xD0 }
  - { offset: 0xE1DF4, size: 0x8, addend: 0x0, symName: __RINvXNtCs2cqEZUIJimJ_5quote3extNtCs3cP53eQoTwO_11proc_macro211TokenStreamNtB3_14TokenStreamExt10append_allINtNtCs6IAuOt8vWmF_3syn10punctuated5PairsNtNtB1L_3pat8FieldPatNtNtB1L_5token5CommaEEB1L_, symObjAddr: 0x3D8, symBinAddr: 0x59530, symSize: 0xD0 }
  - { offset: 0xE1E66, size: 0x8, addend: 0x0, symName: __RINvXNtCs2cqEZUIJimJ_5quote3extNtCs3cP53eQoTwO_11proc_macro211TokenStreamNtB3_14TokenStreamExt10append_allINtNtCs6IAuOt8vWmF_3syn10punctuated5PairsNtNtB1L_4data5FieldNtNtB1L_5token5CommaEEB1L_, symObjAddr: 0x4A8, symBinAddr: 0x59600, symSize: 0xD0 }
  - { offset: 0xE1ED8, size: 0x8, addend: 0x0, symName: __RINvXNtCs2cqEZUIJimJ_5quote3extNtCs3cP53eQoTwO_11proc_macro211TokenStreamNtB3_14TokenStreamExt10append_allINtNtCs6IAuOt8vWmF_3syn10punctuated5PairsNtNtB1L_4data7VariantNtNtB1L_5token5CommaEEB1L_, symObjAddr: 0x578, symBinAddr: 0x596D0, symSize: 0xD0 }
  - { offset: 0xE1F4A, size: 0x8, addend: 0x0, symName: __RINvXNtCs2cqEZUIJimJ_5quote3extNtCs3cP53eQoTwO_11proc_macro211TokenStreamNtB3_14TokenStreamExt10append_allINtNtCs6IAuOt8vWmF_3syn10punctuated5PairsNtNtB1L_4expr10FieldValueNtNtB1L_5token5CommaEEB1L_, symObjAddr: 0x648, symBinAddr: 0x597A0, symSize: 0xD0 }
  - { offset: 0xE1FBC, size: 0x8, addend: 0x0, symName: __RINvXNtCs2cqEZUIJimJ_5quote3extNtCs3cP53eQoTwO_11proc_macro211TokenStreamNtB3_14TokenStreamExt10append_allINtNtCs6IAuOt8vWmF_3syn10punctuated5PairsNtNtB1L_4expr4ExprNtNtB1L_5token5CommaEEB1L_, symObjAddr: 0x718, symBinAddr: 0x59870, symSize: 0xD0 }
  - { offset: 0xE202E, size: 0x8, addend: 0x0, symName: __RINvXNtCs2cqEZUIJimJ_5quote3extNtCs3cP53eQoTwO_11proc_macro211TokenStreamNtB3_14TokenStreamExt10append_allINtNtCs6IAuOt8vWmF_3syn10punctuated5PairsNtNtB1L_4item5FnArgNtNtB1L_5token5CommaEEB1L_, symObjAddr: 0x7E8, symBinAddr: 0x59940, symSize: 0xD0 }
  - { offset: 0xE20A0, size: 0x8, addend: 0x0, symName: __RINvXNtCs2cqEZUIJimJ_5quote3extNtCs3cP53eQoTwO_11proc_macro211TokenStreamNtB3_14TokenStreamExt10append_allINtNtCs6IAuOt8vWmF_3syn10punctuated5PairsNtNtB1L_4item7UseTreeNtNtB1L_5token5CommaEEB1L_, symObjAddr: 0x8B8, symBinAddr: 0x59A10, symSize: 0xD0 }
  - { offset: 0xE2112, size: 0x8, addend: 0x0, symName: __RINvXNtCs2cqEZUIJimJ_5quote3extNtCs3cP53eQoTwO_11proc_macro211TokenStreamNtB3_14TokenStreamExt10append_allINtNtCs6IAuOt8vWmF_3syn10punctuated5PairsNtNtB1L_8generics12GenericParamNtNtB1L_5token5CommaEEB1L_, symObjAddr: 0x988, symBinAddr: 0x59AE0, symSize: 0xD0 }
  - { offset: 0xE2184, size: 0x8, addend: 0x0, symName: __RINvXNtCs2cqEZUIJimJ_5quote3extNtCs3cP53eQoTwO_11proc_macro211TokenStreamNtB3_14TokenStreamExt10append_allINtNtCs6IAuOt8vWmF_3syn10punctuated5PairsNtNtB1L_8generics14TypeParamBoundNtNtB1L_5token4PlusEEB1L_, symObjAddr: 0xA58, symBinAddr: 0x59BB0, symSize: 0xD0 }
  - { offset: 0xE21F6, size: 0x8, addend: 0x0, symName: __RINvXNtCs2cqEZUIJimJ_5quote3extNtCs3cP53eQoTwO_11proc_macro211TokenStreamNtB3_14TokenStreamExt10append_allINtNtCs6IAuOt8vWmF_3syn10punctuated5PairsNtNtB1L_8generics14WherePredicateNtNtB1L_5token5CommaEEB1L_, symObjAddr: 0xB28, symBinAddr: 0x59C80, symSize: 0xD0 }
  - { offset: 0xE2268, size: 0x8, addend: 0x0, symName: __RINvXNtCs2cqEZUIJimJ_5quote3extNtCs3cP53eQoTwO_11proc_macro211TokenStreamNtB3_14TokenStreamExt10append_allINtNtCs6IAuOt8vWmF_3syn10punctuated5PairsNtNtB1L_8lifetime8LifetimeNtNtB1L_5token4PlusEEB1L_, symObjAddr: 0xBF8, symBinAddr: 0x59D50, symSize: 0xD0 }
  - { offset: 0xE22DA, size: 0x8, addend: 0x0, symName: __RINvXNtCs2cqEZUIJimJ_5quote3extNtCs3cP53eQoTwO_11proc_macro211TokenStreamNtB3_14TokenStreamExt10append_allINtNtNtNtCsfvfooZQ3Axs_4core4iter8adapters6filter6FilterINtNtNtB1P_5slice4iter4IterNtNtCs6IAuOt8vWmF_3syn4attr9AttributeEFG0_RL1_RL0_B31_EbEEB35_, symObjAddr: 0xCC8, symBinAddr: 0x59E20, symSize: 0xDC }
  - { offset: 0xE234C, size: 0x8, addend: 0x0, symName: __RINvXNtCs2cqEZUIJimJ_5quote3extNtCs3cP53eQoTwO_11proc_macro211TokenStreamNtB3_14TokenStreamExt10append_allRINtNtCse1nGBsou5OW_5alloc3vec3VecNtNtCs6IAuOt8vWmF_3syn4attr9AttributeEEB2i_, symObjAddr: 0xDA4, symBinAddr: 0x59EFC, symSize: 0xD8 }
  - { offset: 0xE23BD, size: 0x8, addend: 0x0, symName: __RINvXNtCs2cqEZUIJimJ_5quote3extNtCs3cP53eQoTwO_11proc_macro211TokenStreamNtB3_14TokenStreamExt10append_allRINtNtCse1nGBsou5OW_5alloc3vec3VecNtNtCs6IAuOt8vWmF_3syn4item11ForeignItemEEB2i_, symObjAddr: 0xE7C, symBinAddr: 0x59FD4, symSize: 0xD8 }
  - { offset: 0xE242E, size: 0x8, addend: 0x0, symName: __RINvXNtCs2cqEZUIJimJ_5quote3extNtCs3cP53eQoTwO_11proc_macro211TokenStreamNtB3_14TokenStreamExt10append_allRINtNtCse1nGBsou5OW_5alloc3vec3VecNtNtCs6IAuOt8vWmF_3syn4item4ItemEEB2i_, symObjAddr: 0xF54, symBinAddr: 0x5A0AC, symSize: 0xD8 }
  - { offset: 0xE249F, size: 0x8, addend: 0x0, symName: __RINvXNtCs2cqEZUIJimJ_5quote3extNtCs3cP53eQoTwO_11proc_macro211TokenStreamNtB3_14TokenStreamExt10append_allRINtNtCse1nGBsou5OW_5alloc3vec3VecNtNtCs6IAuOt8vWmF_3syn4item8ImplItemEEB2i_, symObjAddr: 0x102C, symBinAddr: 0x5A184, symSize: 0xD8 }
  - { offset: 0xE2510, size: 0x8, addend: 0x0, symName: __RINvXNtCs2cqEZUIJimJ_5quote3extNtCs3cP53eQoTwO_11proc_macro211TokenStreamNtB3_14TokenStreamExt10append_allRINtNtCse1nGBsou5OW_5alloc3vec3VecNtNtCs6IAuOt8vWmF_3syn4item9TraitItemEEB2i_, symObjAddr: 0x1104, symBinAddr: 0x5A25C, symSize: 0xD8 }
  - { offset: 0xE2581, size: 0x8, addend: 0x0, symName: __RINvXNtCs2cqEZUIJimJ_5quote3extNtCs3cP53eQoTwO_11proc_macro211TokenStreamNtB3_14TokenStreamExt10append_allRINtNtCse1nGBsou5OW_5alloc3vec3VecNtNtCs6IAuOt8vWmF_3syn4stmt4StmtEEB2i_, symObjAddr: 0x11DC, symBinAddr: 0x5A334, symSize: 0xD8 }
  - { offset: 0xE2AED, size: 0x8, addend: 0x0, symName: __RNvMs1_NtNtCsfvfooZQ3Axs_4core3ptr8non_nullINtB5_7NonNullNtNtCs6IAuOt8vWmF_3syn4attr9AttributeE7sub_ptrBX_, symObjAddr: 0x18C0, symBinAddr: 0x5A874, symSize: 0x74 }
  - { offset: 0xE2C14, size: 0x8, addend: 0x0, symName: __RNvMs1_NtNtCsfvfooZQ3Axs_4core3ptr8non_nullINtB5_7NonNullNtNtCs6IAuOt8vWmF_3syn5error12ErrorMessageE7sub_ptrBX_, symObjAddr: 0x1934, symBinAddr: 0x5A8E8, symSize: 0x74 }
  - { offset: 0xE2D1A, size: 0x8, addend: 0x0, symName: __RNvMs1_NtNtCsfvfooZQ3Axs_4core3ptr8non_nullINtB5_7NonNullNtNtCs6IAuOt8vWmF_3syn8generics14TypeParamBoundE7sub_ptrBX_, symObjAddr: 0x19A8, symBinAddr: 0x5A95C, symSize: 0x74 }
  - { offset: 0xE2E20, size: 0x8, addend: 0x0, symName: __RNvMs1_NtNtCsfvfooZQ3Axs_4core3ptr8non_nullINtB5_7NonNullReE7sub_ptrCs6IAuOt8vWmF_3syn, symObjAddr: 0x1A1C, symBinAddr: 0x5A9D0, symSize: 0x74 }
  - { offset: 0xE2F5A, size: 0x8, addend: 0x0, symName: __RNvMs1_NtNtCsfvfooZQ3Axs_4core3ptr8non_nullINtB5_7NonNullTNtNtCs6IAuOt8vWmF_3syn4path11PathSegmentNtNtBY_5token7PathSepEE7sub_ptrBY_, symObjAddr: 0x1BEC, symBinAddr: 0x5AA44, symSize: 0x74 }
  - { offset: 0xE307A, size: 0x8, addend: 0x0, symName: __RNvMs1_NtNtCsfvfooZQ3Axs_4core3ptr8non_nullINtB5_7NonNullTNtNtCs6IAuOt8vWmF_3syn8generics14TypeParamBoundNtNtBY_5token4PlusEE7sub_ptrBY_, symObjAddr: 0x1CD4, symBinAddr: 0x5AAB8, symSize: 0x74 }
  - { offset: 0xE34E8, size: 0x8, addend: 0x0, symName: __RNvMs3_NtCs6IAuOt8vWmF_3syn3litNtB5_6LitInt13base10_digits, symObjAddr: 0x7328, symBinAddr: 0x5CA34, symSize: 0x60 }
  - { offset: 0xE350B, size: 0x8, addend: 0x0, symName: __RNvMs3_NtCs6IAuOt8vWmF_3syn3litNtB5_6LitInt6suffix, symObjAddr: 0x7388, symBinAddr: 0x5CA94, symSize: 0x60 }
  - { offset: 0xE352E, size: 0x8, addend: 0x0, symName: __RNvMs3_NtCs6IAuOt8vWmF_3syn3litNtB5_6LitInt4span, symObjAddr: 0x73E8, symBinAddr: 0x5CAF4, symSize: 0x5C }
  - { offset: 0xE3578, size: 0x8, addend: 0x0, symName: __RNvMs6_NtCs6IAuOt8vWmF_3syn3litNtB5_8LitFloat5token, symObjAddr: 0x7CBC, symBinAddr: 0x5CB50, symSize: 0x64 }
  - { offset: 0xE35B5, size: 0x8, addend: 0x0, symName: __RNvMs9_NtCs6IAuOt8vWmF_3syn3litNtB5_7LitBool5token, symObjAddr: 0x80EC, symBinAddr: 0x5CBB4, symSize: 0xA8 }
  - { offset: 0xE35F6, size: 0x8, addend: 0x0, symName: __RNvMNtNtCs6IAuOt8vWmF_3syn3lit5valueNtB4_3Lit3new, symObjAddr: 0xAE4C, symBinAddr: 0x5E394, symSize: 0xD50 }
  - { offset: 0xE38AE, size: 0x8, addend: 0x0, symName: __RINvMs6_NtCs6IAuOt8vWmF_3syn5parseNtB6_10StepCursor5errorNtNtCse1nGBsou5OW_5alloc6string6StringEB8_, symObjAddr: 0xCB48, symBinAddr: 0x5F5E0, symSize: 0x38 }
  - { offset: 0xE38EB, size: 0x8, addend: 0x0, symName: __RINvMs6_NtCs6IAuOt8vWmF_3syn5parseNtB6_10StepCursor5errorNtNtCsfvfooZQ3Axs_4core3fmt9ArgumentsEB8_, symObjAddr: 0xCB80, symBinAddr: 0x5F618, symSize: 0x38 }
  - { offset: 0xE3928, size: 0x8, addend: 0x0, symName: __RINvMs6_NtCs6IAuOt8vWmF_3syn5parseNtB6_10StepCursor5errorReEB8_, symObjAddr: 0xCBB8, symBinAddr: 0x5F650, symSize: 0x50 }
  - { offset: 0xE399C, size: 0x8, addend: 0x0, symName: __RINvMs9_NtCs6IAuOt8vWmF_3syn5parseNtB6_11ParseBuffer5parseINtNtCse1nGBsou5OW_5alloc5boxed3BoxNtNtB8_2ty4TypeEEB8_, symObjAddr: 0xD398, symBinAddr: 0x5FE30, symSize: 0x34 }
  - { offset: 0xE39C8, size: 0x8, addend: 0x0, symName: __RINvMs9_NtCs6IAuOt8vWmF_3syn5parseNtB6_11ParseBuffer5parseINtNtCse1nGBsou5OW_5alloc5boxed3BoxNtNtB8_4expr4ExprEEB8_, symObjAddr: 0xD3CC, symBinAddr: 0x5FE64, symSize: 0x34 }
  - { offset: 0xE39F4, size: 0x8, addend: 0x0, symName: __RINvMs9_NtCs6IAuOt8vWmF_3syn5parseNtB6_11ParseBuffer5parseINtNtCsfvfooZQ3Axs_4core6option6OptionNtCs3cP53eQoTwO_11proc_macro25IdentEEB8_, symObjAddr: 0xD400, symBinAddr: 0x5FE98, symSize: 0x34 }
  - { offset: 0xE3A20, size: 0x8, addend: 0x0, symName: __RINvMs9_NtCs6IAuOt8vWmF_3syn5parseNtB6_11ParseBuffer5parseINtNtCsfvfooZQ3Axs_4core6option6OptionNtNtB8_2ty3AbiEEB8_, symObjAddr: 0xD434, symBinAddr: 0x5FECC, symSize: 0x34 }
  - { offset: 0xE3A4C, size: 0x8, addend: 0x0, symName: __RINvMs9_NtCs6IAuOt8vWmF_3syn5parseNtB6_11ParseBuffer5parseINtNtCsfvfooZQ3Axs_4core6option6OptionNtNtB8_3lit3LitEEB8_, symObjAddr: 0xD468, symBinAddr: 0x5FF00, symSize: 0x34 }
  - { offset: 0xE3A78, size: 0x8, addend: 0x0, symName: __RINvMs9_NtCs6IAuOt8vWmF_3syn5parseNtB6_11ParseBuffer5parseINtNtCsfvfooZQ3Axs_4core6option6OptionNtNtB8_3lit6LitStrEEB8_, symObjAddr: 0xD49C, symBinAddr: 0x5FF34, symSize: 0x34 }
  - { offset: 0xE3AA4, size: 0x8, addend: 0x0, symName: __RINvMs9_NtCs6IAuOt8vWmF_3syn5parseNtB6_11ParseBuffer5parseINtNtCsfvfooZQ3Axs_4core6option6OptionNtNtB8_3lit8LitFloatEEB8_, symObjAddr: 0xD4D0, symBinAddr: 0x5FF68, symSize: 0x34 }
  - { offset: 0xE3AD0, size: 0x8, addend: 0x0, symName: __RINvMs9_NtCs6IAuOt8vWmF_3syn5parseNtB6_11ParseBuffer5parseINtNtCsfvfooZQ3Axs_4core6option6OptionNtNtB8_4expr5LabelEEB8_, symObjAddr: 0xD504, symBinAddr: 0x5FF9C, symSize: 0x34 }
  - { offset: 0xE3AFC, size: 0x8, addend: 0x0, symName: __RINvMs9_NtCs6IAuOt8vWmF_3syn5parseNtB6_11ParseBuffer5parseINtNtCsfvfooZQ3Axs_4core6option6OptionNtNtB8_5token2EqEEB8_, symObjAddr: 0xD538, symBinAddr: 0x5FFD0, symSize: 0x34 }
  - { offset: 0xE3B28, size: 0x8, addend: 0x0, symName: __RINvMs9_NtCs6IAuOt8vWmF_3syn5parseNtB6_11ParseBuffer5parseINtNtCsfvfooZQ3Axs_4core6option6OptionNtNtB8_5token2OrEEB8_, symObjAddr: 0xD56C, symBinAddr: 0x60004, symSize: 0x34 }
  - { offset: 0xE3B54, size: 0x8, addend: 0x0, symName: __RINvMs9_NtCs6IAuOt8vWmF_3syn5parseNtB6_11ParseBuffer5parseINtNtCsfvfooZQ3Axs_4core6option6OptionNtNtB8_5token3BoxEEB8_, symObjAddr: 0xD5A0, symBinAddr: 0x60038, symSize: 0x34 }
  - { offset: 0xE3B80, size: 0x8, addend: 0x0, symName: __RINvMs9_NtCs6IAuOt8vWmF_3syn5parseNtB6_11ParseBuffer5parseINtNtCsfvfooZQ3Axs_4core6option6OptionNtNtB8_5token3DynEEB8_, symObjAddr: 0xD5D4, symBinAddr: 0x6006C, symSize: 0x34 }
  - { offset: 0xE3BAC, size: 0x8, addend: 0x0, symName: __RINvMs9_NtCs6IAuOt8vWmF_3syn5parseNtB6_11ParseBuffer5parseINtNtCsfvfooZQ3Axs_4core6option6OptionNtNtB8_5token3MutEEB8_, symObjAddr: 0xD608, symBinAddr: 0x600A0, symSize: 0x34 }
  - { offset: 0xE3BD8, size: 0x8, addend: 0x0, symName: __RINvMs9_NtCs6IAuOt8vWmF_3syn5parseNtB6_11ParseBuffer5parseINtNtCsfvfooZQ3Axs_4core6option6OptionNtNtB8_5token3RefEEB8_, symObjAddr: 0xD63C, symBinAddr: 0x600D4, symSize: 0x34 }
  - { offset: 0xE3C04, size: 0x8, addend: 0x0, symName: __RINvMs9_NtCs6IAuOt8vWmF_3syn5parseNtB6_11ParseBuffer5parseINtNtCsfvfooZQ3Axs_4core6option6OptionNtNtB8_5token4AutoEEB8_, symObjAddr: 0xD670, symBinAddr: 0x60108, symSize: 0x34 }
  - { offset: 0xE3C30, size: 0x8, addend: 0x0, symName: __RINvMs9_NtCs6IAuOt8vWmF_3syn5parseNtB6_11ParseBuffer5parseINtNtCsfvfooZQ3Axs_4core6option6OptionNtNtB8_5token4MoveEEB8_, symObjAddr: 0xD6A4, symBinAddr: 0x6013C, symSize: 0x34 }
  - { offset: 0xE3C5C, size: 0x8, addend: 0x0, symName: __RINvMs9_NtCs6IAuOt8vWmF_3syn5parseNtB6_11ParseBuffer5parseINtNtCsfvfooZQ3Axs_4core6option6OptionNtNtB8_5token4PlusEEB8_, symObjAddr: 0xD6D8, symBinAddr: 0x60170, symSize: 0x34 }
  - { offset: 0xE3C88, size: 0x8, addend: 0x0, symName: __RINvMs9_NtCs6IAuOt8vWmF_3syn5parseNtB6_11ParseBuffer5parseINtNtCsfvfooZQ3Axs_4core6option6OptionNtNtB8_5token4SemiEEB8_, symObjAddr: 0xD70C, symBinAddr: 0x601A4, symSize: 0x34 }
  - { offset: 0xE3CB4, size: 0x8, addend: 0x0, symName: __RINvMs9_NtCs6IAuOt8vWmF_3syn5parseNtB6_11ParseBuffer5parseINtNtCsfvfooZQ3Axs_4core6option6OptionNtNtB8_5token4StarEEB8_, symObjAddr: 0xD740, symBinAddr: 0x601D8, symSize: 0x34 }
  - { offset: 0xE3CE0, size: 0x8, addend: 0x0, symName: __RINvMs9_NtCs6IAuOt8vWmF_3syn5parseNtB6_11ParseBuffer5parseINtNtCsfvfooZQ3Axs_4core6option6OptionNtNtB8_5token5AsyncEEB8_, symObjAddr: 0xD774, symBinAddr: 0x6020C, symSize: 0x34 }
  - { offset: 0xE3D0C, size: 0x8, addend: 0x0, symName: __RINvMs9_NtCs6IAuOt8vWmF_3syn5parseNtB6_11ParseBuffer5parseINtNtCsfvfooZQ3Axs_4core6option6OptionNtNtB8_5token5AwaitEEB8_, symObjAddr: 0xD7A8, symBinAddr: 0x60240, symSize: 0x34 }
  - { offset: 0xE3D38, size: 0x8, addend: 0x0, symName: __RINvMs9_NtCs6IAuOt8vWmF_3syn5parseNtB6_11ParseBuffer5parseINtNtCsfvfooZQ3Axs_4core6option6OptionNtNtB8_5token5ColonEEB8_, symObjAddr: 0xD7DC, symBinAddr: 0x60274, symSize: 0x34 }
  - { offset: 0xE3D64, size: 0x8, addend: 0x0, symName: __RINvMs9_NtCs6IAuOt8vWmF_3syn5parseNtB6_11ParseBuffer5parseINtNtCsfvfooZQ3Axs_4core6option6OptionNtNtB8_5token5CommaEEB8_, symObjAddr: 0xD810, symBinAddr: 0x602A8, symSize: 0x34 }
  - { offset: 0xE3D90, size: 0x8, addend: 0x0, symName: __RINvMs9_NtCs6IAuOt8vWmF_3syn5parseNtB6_11ParseBuffer5parseINtNtCsfvfooZQ3Axs_4core6option6OptionNtNtB8_5token5ConstEEB8_, symObjAddr: 0xD844, symBinAddr: 0x602DC, symSize: 0x34 }
  - { offset: 0xE3DBC, size: 0x8, addend: 0x0, symName: __RINvMs9_NtCs6IAuOt8vWmF_3syn5parseNtB6_11ParseBuffer5parseINtNtCsfvfooZQ3Axs_4core6option6OptionNtNtB8_5token6StaticEEB8_, symObjAddr: 0xD878, symBinAddr: 0x60310, symSize: 0x34 }
  - { offset: 0xE3DE8, size: 0x8, addend: 0x0, symName: __RINvMs9_NtCs6IAuOt8vWmF_3syn5parseNtB6_11ParseBuffer5parseINtNtCsfvfooZQ3Axs_4core6option6OptionNtNtB8_5token6UnsafeEEB8_, symObjAddr: 0xD8AC, symBinAddr: 0x60344, symSize: 0x34 }
  - { offset: 0xE3E14, size: 0x8, addend: 0x0, symName: __RINvMs9_NtCs6IAuOt8vWmF_3syn5parseNtB6_11ParseBuffer5parseINtNtCsfvfooZQ3Axs_4core6option6OptionNtNtB8_5token7DefaultEEB8_, symObjAddr: 0xD8E0, symBinAddr: 0x60378, symSize: 0x34 }
  - { offset: 0xE3E40, size: 0x8, addend: 0x0, symName: __RINvMs9_NtCs6IAuOt8vWmF_3syn5parseNtB6_11ParseBuffer5parseINtNtCsfvfooZQ3Axs_4core6option6OptionNtNtB8_5token7PathSepEEB8_, symObjAddr: 0xD914, symBinAddr: 0x603AC, symSize: 0x34 }
  - { offset: 0xE3E6C, size: 0x8, addend: 0x0, symName: __RINvMs9_NtCs6IAuOt8vWmF_3syn5parseNtB6_11ParseBuffer5parseINtNtCsfvfooZQ3Axs_4core6option6OptionNtNtB8_5token8QuestionEEB8_, symObjAddr: 0xD948, symBinAddr: 0x603E0, symSize: 0x34 }
  - { offset: 0xE3E98, size: 0x8, addend: 0x0, symName: __RINvMs9_NtCs6IAuOt8vWmF_3syn5parseNtB6_11ParseBuffer5parseINtNtCsfvfooZQ3Axs_4core6option6OptionNtNtB8_5token9DotDotDotEEB8_, symObjAddr: 0xD97C, symBinAddr: 0x60414, symSize: 0x34 }
  - { offset: 0xE3EC4, size: 0x8, addend: 0x0, symName: __RINvMs9_NtCs6IAuOt8vWmF_3syn5parseNtB6_11ParseBuffer5parseINtNtCsfvfooZQ3Axs_4core6option6OptionNtNtB8_8generics11WhereClauseEEB8_, symObjAddr: 0xD9B0, symBinAddr: 0x60448, symSize: 0x34 }
  - { offset: 0xE3EF0, size: 0x8, addend: 0x0, symName: __RINvMs9_NtCs6IAuOt8vWmF_3syn5parseNtB6_11ParseBuffer5parseINtNtCsfvfooZQ3Axs_4core6option6OptionNtNtB8_8generics14BoundLifetimesEEB8_, symObjAddr: 0xD9E4, symBinAddr: 0x6047C, symSize: 0x34 }
  - { offset: 0xE3F1C, size: 0x8, addend: 0x0, symName: __RINvMs9_NtCs6IAuOt8vWmF_3syn5parseNtB6_11ParseBuffer5parseINtNtCsfvfooZQ3Axs_4core6option6OptionNtNtB8_8lifetime8LifetimeEEB8_, symObjAddr: 0xDA18, symBinAddr: 0x604B0, symSize: 0x34 }
  - { offset: 0xE3F48, size: 0x8, addend: 0x0, symName: __RINvMs9_NtCs6IAuOt8vWmF_3syn5parseNtB6_11ParseBuffer5parseNtCs3cP53eQoTwO_11proc_macro211TokenStreamEB8_, symObjAddr: 0xDA4C, symBinAddr: 0x604E4, symSize: 0x34 }
  - { offset: 0xE3F74, size: 0x8, addend: 0x0, symName: __RINvMs9_NtCs6IAuOt8vWmF_3syn5parseNtB6_11ParseBuffer5parseNtCs3cP53eQoTwO_11proc_macro25IdentEB8_, symObjAddr: 0xDA80, symBinAddr: 0x60518, symSize: 0x34 }
  - { offset: 0xE3FA0, size: 0x8, addend: 0x0, symName: __RINvMs9_NtCs6IAuOt8vWmF_3syn5parseNtB6_11ParseBuffer5parseNtNtB8_11restriction10VisibilityEB8_, symObjAddr: 0xDAB4, symBinAddr: 0x6054C, symSize: 0x34 }
  - { offset: 0xE3FCC, size: 0x8, addend: 0x0, symName: __RINvMs9_NtCs6IAuOt8vWmF_3syn5parseNtB6_11ParseBuffer5parseNtNtB8_2op4UnOpEB8_, symObjAddr: 0xDAE8, symBinAddr: 0x60580, symSize: 0x34 }
  - { offset: 0xE3FF8, size: 0x8, addend: 0x0, symName: __RINvMs9_NtCs6IAuOt8vWmF_3syn5parseNtB6_11ParseBuffer5parseNtNtB8_2op5BinOpEB8_, symObjAddr: 0xDB1C, symBinAddr: 0x605B4, symSize: 0x34 }
  - { offset: 0xE4024, size: 0x8, addend: 0x0, symName: __RINvMs9_NtCs6IAuOt8vWmF_3syn5parseNtB6_11ParseBuffer5parseNtNtB8_2ty10ReturnTypeEB8_, symObjAddr: 0xDB50, symBinAddr: 0x605E8, symSize: 0x34 }
  - { offset: 0xE4050, size: 0x8, addend: 0x0, symName: __RINvMs9_NtCs6IAuOt8vWmF_3syn5parseNtB6_11ParseBuffer5parseNtNtB8_2ty10TypeBareFnEB8_, symObjAddr: 0xDB84, symBinAddr: 0x6061C, symSize: 0x34 }
  - { offset: 0xE407C, size: 0x8, addend: 0x0, symName: __RINvMs9_NtCs6IAuOt8vWmF_3syn5parseNtB6_11ParseBuffer5parseNtNtB8_2ty13TypeReferenceEB8_, symObjAddr: 0xDBB8, symBinAddr: 0x60650, symSize: 0x34 }
  - { offset: 0xE40A8, size: 0x8, addend: 0x0, symName: __RINvMs9_NtCs6IAuOt8vWmF_3syn5parseNtB6_11ParseBuffer5parseNtNtB8_2ty15TypeTraitObjectEB8_, symObjAddr: 0xDBEC, symBinAddr: 0x60684, symSize: 0x34 }
  - { offset: 0xE40D4, size: 0x8, addend: 0x0, symName: __RINvMs9_NtCs6IAuOt8vWmF_3syn5parseNtB6_11ParseBuffer5parseNtNtB8_2ty3AbiEB8_, symObjAddr: 0xDC20, symBinAddr: 0x606B8, symSize: 0x34 }
  - { offset: 0xE4100, size: 0x8, addend: 0x0, symName: __RINvMs9_NtCs6IAuOt8vWmF_3syn5parseNtB6_11ParseBuffer5parseNtNtB8_2ty4TypeEB8_, symObjAddr: 0xDC54, symBinAddr: 0x606EC, symSize: 0x34 }
  - { offset: 0xE412C, size: 0x8, addend: 0x0, symName: __RINvMs9_NtCs6IAuOt8vWmF_3syn5parseNtB6_11ParseBuffer5parseNtNtB8_2ty7TypePtrEB8_, symObjAddr: 0xDC88, symBinAddr: 0x60720, symSize: 0x34 }
  - { offset: 0xE4158, size: 0x8, addend: 0x0, symName: __RINvMs9_NtCs6IAuOt8vWmF_3syn5parseNtB6_11ParseBuffer5parseNtNtB8_2ty8TypePathEB8_, symObjAddr: 0xDCBC, symBinAddr: 0x60754, symSize: 0x34 }
  - { offset: 0xE4184, size: 0x8, addend: 0x0, symName: __RINvMs9_NtCs6IAuOt8vWmF_3syn5parseNtB6_11ParseBuffer5parseNtNtB8_2ty9TypeGroupEB8_, symObjAddr: 0xDCF0, symBinAddr: 0x60788, symSize: 0x34 }
  - { offset: 0xE41B0, size: 0x8, addend: 0x0, symName: __RINvMs9_NtCs6IAuOt8vWmF_3syn5parseNtB6_11ParseBuffer5parseNtNtB8_2ty9TypeInferEB8_, symObjAddr: 0xDD24, symBinAddr: 0x607BC, symSize: 0x34 }
  - { offset: 0xE41DC, size: 0x8, addend: 0x0, symName: __RINvMs9_NtCs6IAuOt8vWmF_3syn5parseNtB6_11ParseBuffer5parseNtNtB8_2ty9TypeNeverEB8_, symObjAddr: 0xDD58, symBinAddr: 0x607F0, symSize: 0x34 }
  - { offset: 0xE4208, size: 0x8, addend: 0x0, symName: __RINvMs9_NtCs6IAuOt8vWmF_3syn5parseNtB6_11ParseBuffer5parseNtNtB8_3lit3LitEB8_, symObjAddr: 0xDD8C, symBinAddr: 0x60824, symSize: 0x34 }
  - { offset: 0xE4234, size: 0x8, addend: 0x0, symName: __RINvMs9_NtCs6IAuOt8vWmF_3syn5parseNtB6_11ParseBuffer5parseNtNtB8_3lit6LitIntEB8_, symObjAddr: 0xDDC0, symBinAddr: 0x60858, symSize: 0x34 }
  - { offset: 0xE4260, size: 0x8, addend: 0x0, symName: __RINvMs9_NtCs6IAuOt8vWmF_3syn5parseNtB6_11ParseBuffer5parseNtNtB8_3lit6LitStrEB8_, symObjAddr: 0xDDF4, symBinAddr: 0x6088C, symSize: 0x34 }
  - { offset: 0xE428C, size: 0x8, addend: 0x0, symName: __RINvMs9_NtCs6IAuOt8vWmF_3syn5parseNtB6_11ParseBuffer5parseNtNtB8_3lit8LitFloatEB8_, symObjAddr: 0xDE28, symBinAddr: 0x608C0, symSize: 0x34 }
  - { offset: 0xE42B8, size: 0x8, addend: 0x0, symName: __RINvMs9_NtCs6IAuOt8vWmF_3syn5parseNtB6_11ParseBuffer5parseNtNtB8_3mac5MacroEB8_, symObjAddr: 0xDE5C, symBinAddr: 0x608F4, symSize: 0x34 }
  - { offset: 0xE42E4, size: 0x8, addend: 0x0, symName: __RINvMs9_NtCs6IAuOt8vWmF_3syn5parseNtB6_11ParseBuffer5parseNtNtB8_4attr4MetaEB8_, symObjAddr: 0xDE90, symBinAddr: 0x60928, symSize: 0x34 }
  - { offset: 0xE4310, size: 0x8, addend: 0x0, symName: __RINvMs9_NtCs6IAuOt8vWmF_3syn5parseNtB6_11ParseBuffer5parseNtNtB8_4data11FieldsNamedEB8_, symObjAddr: 0xDEC4, symBinAddr: 0x6095C, symSize: 0x34 }
  - { offset: 0xE433C, size: 0x8, addend: 0x0, symName: __RINvMs9_NtCs6IAuOt8vWmF_3syn5parseNtB6_11ParseBuffer5parseNtNtB8_4data13FieldsUnnamedEB8_, symObjAddr: 0xDEF8, symBinAddr: 0x60990, symSize: 0x34 }
  - { offset: 0xE4368, size: 0x8, addend: 0x0, symName: __RINvMs9_NtCs6IAuOt8vWmF_3syn5parseNtB6_11ParseBuffer5parseNtNtB8_4expr10ExprReturnEB8_, symObjAddr: 0xDF2C, symBinAddr: 0x609C4, symSize: 0x34 }
  - { offset: 0xE4394, size: 0x8, addend: 0x0, symName: __RINvMs9_NtCs6IAuOt8vWmF_3syn5parseNtB6_11ParseBuffer5parseNtNtB8_4expr10ExprUnsafeEB8_, symObjAddr: 0xDF60, symBinAddr: 0x609F8, symSize: 0x34 }
  - { offset: 0xE43C0, size: 0x8, addend: 0x0, symName: __RINvMs9_NtCs6IAuOt8vWmF_3syn5parseNtB6_11ParseBuffer5parseNtNtB8_4expr10FieldValueEB8_, symObjAddr: 0xDF94, symBinAddr: 0x60A2C, symSize: 0x34 }
  - { offset: 0xE43EC, size: 0x8, addend: 0x0, symName: __RINvMs9_NtCs6IAuOt8vWmF_3syn5parseNtB6_11ParseBuffer5parseNtNtB8_4expr11ExprForLoopEB8_, symObjAddr: 0xDFC8, symBinAddr: 0x60A60, symSize: 0x34 }
  - { offset: 0xE4418, size: 0x8, addend: 0x0, symName: __RINvMs9_NtCs6IAuOt8vWmF_3syn5parseNtB6_11ParseBuffer5parseNtNtB8_4expr11RangeLimitsEB8_, symObjAddr: 0xDFFC, symBinAddr: 0x60A94, symSize: 0x34 }
  - { offset: 0xE4444, size: 0x8, addend: 0x0, symName: __RINvMs9_NtCs6IAuOt8vWmF_3syn5parseNtB6_11ParseBuffer5parseNtNtB8_4expr12ExprContinueEB8_, symObjAddr: 0xE030, symBinAddr: 0x60AC8, symSize: 0x34 }
  - { offset: 0xE4470, size: 0x8, addend: 0x0, symName: __RINvMs9_NtCs6IAuOt8vWmF_3syn5parseNtB6_11ParseBuffer5parseNtNtB8_4expr12ExprTryBlockEB8_, symObjAddr: 0xE064, symBinAddr: 0x60AFC, symSize: 0x34 }
  - { offset: 0xE449C, size: 0x8, addend: 0x0, symName: __RINvMs9_NtCs6IAuOt8vWmF_3syn5parseNtB6_11ParseBuffer5parseNtNtB8_4expr4ExprEB8_, symObjAddr: 0xE0CC, symBinAddr: 0x60B30, symSize: 0x34 }
  - { offset: 0xE44C8, size: 0x8, addend: 0x0, symName: __RINvMs9_NtCs6IAuOt8vWmF_3syn5parseNtB6_11ParseBuffer5parseNtNtB8_4expr5IndexEB8_, symObjAddr: 0xE100, symBinAddr: 0x60B64, symSize: 0x34 }
  - { offset: 0xE44F4, size: 0x8, addend: 0x0, symName: __RINvMs9_NtCs6IAuOt8vWmF_3syn5parseNtB6_11ParseBuffer5parseNtNtB8_4expr5LabelEB8_, symObjAddr: 0xE134, symBinAddr: 0x60B98, symSize: 0x34 }
  - { offset: 0xE4520, size: 0x8, addend: 0x0, symName: __RINvMs9_NtCs6IAuOt8vWmF_3syn5parseNtB6_11ParseBuffer5parseNtNtB8_4expr6ExprIfEB8_, symObjAddr: 0xE168, symBinAddr: 0x60BCC, symSize: 0x34 }
  - { offset: 0xE454C, size: 0x8, addend: 0x0, symName: __RINvMs9_NtCs6IAuOt8vWmF_3syn5parseNtB6_11ParseBuffer5parseNtNtB8_4expr6MemberEB8_, symObjAddr: 0xE19C, symBinAddr: 0x60C00, symSize: 0x34 }
  - { offset: 0xE4578, size: 0x8, addend: 0x0, symName: __RINvMs9_NtCs6IAuOt8vWmF_3syn5parseNtB6_11ParseBuffer5parseNtNtB8_4expr7ExprLitEB8_, symObjAddr: 0xE1D0, symBinAddr: 0x60C34, symSize: 0x34 }
  - { offset: 0xE45A4, size: 0x8, addend: 0x0, symName: __RINvMs9_NtCs6IAuOt8vWmF_3syn5parseNtB6_11ParseBuffer5parseNtNtB8_4expr8ExprLoopEB8_, symObjAddr: 0xE204, symBinAddr: 0x60C68, symSize: 0x34 }
  - { offset: 0xE45D0, size: 0x8, addend: 0x0, symName: __RINvMs9_NtCs6IAuOt8vWmF_3syn5parseNtB6_11ParseBuffer5parseNtNtB8_4expr8ExprPathEB8_, symObjAddr: 0xE238, symBinAddr: 0x60C9C, symSize: 0x34 }
  - { offset: 0xE45FC, size: 0x8, addend: 0x0, symName: __RINvMs9_NtCs6IAuOt8vWmF_3syn5parseNtB6_11ParseBuffer5parseNtNtB8_4expr9ExprAsyncEB8_, symObjAddr: 0xE26C, symBinAddr: 0x60CD0, symSize: 0x34 }
  - { offset: 0xE4628, size: 0x8, addend: 0x0, symName: __RINvMs9_NtCs6IAuOt8vWmF_3syn5parseNtB6_11ParseBuffer5parseNtNtB8_4expr9ExprBlockEB8_, symObjAddr: 0xE2A0, symBinAddr: 0x60D04, symSize: 0x34 }
  - { offset: 0xE4654, size: 0x8, addend: 0x0, symName: __RINvMs9_NtCs6IAuOt8vWmF_3syn5parseNtB6_11ParseBuffer5parseNtNtB8_4expr9ExprConstEB8_, symObjAddr: 0xE2D4, symBinAddr: 0x60D38, symSize: 0x34 }
  - { offset: 0xE4680, size: 0x8, addend: 0x0, symName: __RINvMs9_NtCs6IAuOt8vWmF_3syn5parseNtB6_11ParseBuffer5parseNtNtB8_4expr9ExprInferEB8_, symObjAddr: 0xE308, symBinAddr: 0x60D6C, symSize: 0x34 }
  - { offset: 0xE46AC, size: 0x8, addend: 0x0, symName: __RINvMs9_NtCs6IAuOt8vWmF_3syn5parseNtB6_11ParseBuffer5parseNtNtB8_4expr9ExprMatchEB8_, symObjAddr: 0xE33C, symBinAddr: 0x60DA0, symSize: 0x34 }
  - { offset: 0xE46D8, size: 0x8, addend: 0x0, symName: __RINvMs9_NtCs6IAuOt8vWmF_3syn5parseNtB6_11ParseBuffer5parseNtNtB8_4expr9ExprWhileEB8_, symObjAddr: 0xE370, symBinAddr: 0x60DD4, symSize: 0x34 }
  - { offset: 0xE4704, size: 0x8, addend: 0x0, symName: __RINvMs9_NtCs6IAuOt8vWmF_3syn5parseNtB6_11ParseBuffer5parseNtNtB8_4expr9ExprYieldEB8_, symObjAddr: 0xE3A4, symBinAddr: 0x60E08, symSize: 0x34 }
  - { offset: 0xE4730, size: 0x8, addend: 0x0, symName: __RINvMs9_NtCs6IAuOt8vWmF_3syn5parseNtB6_11ParseBuffer5parseNtNtB8_4item10ItemStructEB8_, symObjAddr: 0xE3D8, symBinAddr: 0x60E3C, symSize: 0x34 }
  - { offset: 0xE475C, size: 0x8, addend: 0x0, symName: __RINvMs9_NtCs6IAuOt8vWmF_3syn5parseNtB6_11ParseBuffer5parseNtNtB8_4item11ForeignItemEB8_, symObjAddr: 0xE40C, symBinAddr: 0x60E70, symSize: 0x34 }
  - { offset: 0xE4788, size: 0x8, addend: 0x0, symName: __RINvMs9_NtCs6IAuOt8vWmF_3syn5parseNtB6_11ParseBuffer5parseNtNtB8_4item11TraitItemFnEB8_, symObjAddr: 0xE440, symBinAddr: 0x60EA4, symSize: 0x34 }
  - { offset: 0xE47B4, size: 0x8, addend: 0x0, symName: __RINvMs9_NtCs6IAuOt8vWmF_3syn5parseNtB6_11ParseBuffer5parseNtNtB8_4item13ImplItemMacroEB8_, symObjAddr: 0xE474, symBinAddr: 0x60ED8, symSize: 0x34 }
  - { offset: 0xE47E0, size: 0x8, addend: 0x0, symName: __RINvMs9_NtCs6IAuOt8vWmF_3syn5parseNtB6_11ParseBuffer5parseNtNtB8_4item14ItemForeignModEB8_, symObjAddr: 0xE4A8, symBinAddr: 0x60F0C, symSize: 0x34 }
  - { offset: 0xE480C, size: 0x8, addend: 0x0, symName: __RINvMs9_NtCs6IAuOt8vWmF_3syn5parseNtB6_11ParseBuffer5parseNtNtB8_4item14TraitItemMacroEB8_, symObjAddr: 0xE4DC, symBinAddr: 0x60F40, symSize: 0x34 }
  - { offset: 0xE4838, size: 0x8, addend: 0x0, symName: __RINvMs9_NtCs6IAuOt8vWmF_3syn5parseNtB6_11ParseBuffer5parseNtNtB8_4item15ItemExternCrateEB8_, symObjAddr: 0xE510, symBinAddr: 0x60F74, symSize: 0x34 }
  - { offset: 0xE4864, size: 0x8, addend: 0x0, symName: __RINvMs9_NtCs6IAuOt8vWmF_3syn5parseNtB6_11ParseBuffer5parseNtNtB8_4item16ForeignItemMacroEB8_, symObjAddr: 0xE544, symBinAddr: 0x60FA8, symSize: 0x34 }
  - { offset: 0xE4890, size: 0x8, addend: 0x0, symName: __RINvMs9_NtCs6IAuOt8vWmF_3syn5parseNtB6_11ParseBuffer5parseNtNtB8_4item16StaticMutabilityEB8_, symObjAddr: 0xE578, symBinAddr: 0x60FDC, symSize: 0x34 }
  - { offset: 0xE48BC, size: 0x8, addend: 0x0, symName: __RINvMs9_NtCs6IAuOt8vWmF_3syn5parseNtB6_11ParseBuffer5parseNtNtB8_4item4ItemEB8_, symObjAddr: 0xE5AC, symBinAddr: 0x61010, symSize: 0x34 }
  - { offset: 0xE48E8, size: 0x8, addend: 0x0, symName: __RINvMs9_NtCs6IAuOt8vWmF_3syn5parseNtB6_11ParseBuffer5parseNtNtB8_4item7ItemModEB8_, symObjAddr: 0xE5E0, symBinAddr: 0x61044, symSize: 0x34 }
  - { offset: 0xE4914, size: 0x8, addend: 0x0, symName: __RINvMs9_NtCs6IAuOt8vWmF_3syn5parseNtB6_11ParseBuffer5parseNtNtB8_4item7UseTreeEB8_, symObjAddr: 0xE614, symBinAddr: 0x61078, symSize: 0x34 }
  - { offset: 0xE4940, size: 0x8, addend: 0x0, symName: __RINvMs9_NtCs6IAuOt8vWmF_3syn5parseNtB6_11ParseBuffer5parseNtNtB8_4item8ImplItemEB8_, symObjAddr: 0xE648, symBinAddr: 0x610AC, symSize: 0x34 }
  - { offset: 0xE496C, size: 0x8, addend: 0x0, symName: __RINvMs9_NtCs6IAuOt8vWmF_3syn5parseNtB6_11ParseBuffer5parseNtNtB8_4item8ItemEnumEB8_, symObjAddr: 0xE67C, symBinAddr: 0x610E0, symSize: 0x34 }
  - { offset: 0xE4998, size: 0x8, addend: 0x0, symName: __RINvMs9_NtCs6IAuOt8vWmF_3syn5parseNtB6_11ParseBuffer5parseNtNtB8_4item8ReceiverEB8_, symObjAddr: 0xE6B0, symBinAddr: 0x61114, symSize: 0x34 }
  - { offset: 0xE49C4, size: 0x8, addend: 0x0, symName: __RINvMs9_NtCs6IAuOt8vWmF_3syn5parseNtB6_11ParseBuffer5parseNtNtB8_4item9ItemMacroEB8_, symObjAddr: 0xE6E4, symBinAddr: 0x61148, symSize: 0x34 }
  - { offset: 0xE49F0, size: 0x8, addend: 0x0, symName: __RINvMs9_NtCs6IAuOt8vWmF_3syn5parseNtB6_11ParseBuffer5parseNtNtB8_4item9ItemTraitEB8_, symObjAddr: 0xE718, symBinAddr: 0x6117C, symSize: 0x34 }
  - { offset: 0xE4A1C, size: 0x8, addend: 0x0, symName: __RINvMs9_NtCs6IAuOt8vWmF_3syn5parseNtB6_11ParseBuffer5parseNtNtB8_4item9ItemUnionEB8_, symObjAddr: 0xE74C, symBinAddr: 0x611B0, symSize: 0x34 }
  - { offset: 0xE4A48, size: 0x8, addend: 0x0, symName: __RINvMs9_NtCs6IAuOt8vWmF_3syn5parseNtB6_11ParseBuffer5parseNtNtB8_4item9SignatureEB8_, symObjAddr: 0xE780, symBinAddr: 0x611E4, symSize: 0x34 }
  - { offset: 0xE4A74, size: 0x8, addend: 0x0, symName: __RINvMs9_NtCs6IAuOt8vWmF_3syn5parseNtB6_11ParseBuffer5parseNtNtB8_4item9TraitItemEB8_, symObjAddr: 0xE7B4, symBinAddr: 0x61218, symSize: 0x34 }
  - { offset: 0xE4AA0, size: 0x8, addend: 0x0, symName: __RINvMs9_NtCs6IAuOt8vWmF_3syn5parseNtB6_11ParseBuffer5parseNtNtB8_4path15GenericArgumentEB8_, symObjAddr: 0xE7E8, symBinAddr: 0x6124C, symSize: 0x34 }
  - { offset: 0xE4ACC, size: 0x8, addend: 0x0, symName: __RINvMs9_NtCs6IAuOt8vWmF_3syn5parseNtB6_11ParseBuffer5parseNtNtB8_4path29ParenthesizedGenericArgumentsEB8_, symObjAddr: 0xE81C, symBinAddr: 0x61280, symSize: 0x34 }
  - { offset: 0xE4AF8, size: 0x8, addend: 0x0, symName: __RINvMs9_NtCs6IAuOt8vWmF_3syn5parseNtB6_11ParseBuffer5parseNtNtB8_4path30AngleBracketedGenericArgumentsEB8_, symObjAddr: 0xE850, symBinAddr: 0x612B4, symSize: 0x34 }
  - { offset: 0xE4B24, size: 0x8, addend: 0x0, symName: __RINvMs9_NtCs6IAuOt8vWmF_3syn5parseNtB6_11ParseBuffer5parseNtNtB8_4path4PathEB8_, symObjAddr: 0xE884, symBinAddr: 0x612E8, symSize: 0x34 }
  - { offset: 0xE4B50, size: 0x8, addend: 0x0, symName: __RINvMs9_NtCs6IAuOt8vWmF_3syn5parseNtB6_11ParseBuffer5parseNtNtB8_4stmt5BlockEB8_, symObjAddr: 0xE8B8, symBinAddr: 0x6131C, symSize: 0x34 }
  - { offset: 0xE4B7C, size: 0x8, addend: 0x0, symName: __RINvMs9_NtCs6IAuOt8vWmF_3syn5parseNtB6_11ParseBuffer5parseNtNtB8_5token10UnderscoreEB8_, symObjAddr: 0xE8EC, symBinAddr: 0x61350, symSize: 0x34 }
  - { offset: 0xE4BA8, size: 0x8, addend: 0x0, symName: __RINvMs9_NtCs6IAuOt8vWmF_3syn5parseNtB6_11ParseBuffer5parseNtNtB8_5token2AsEB8_, symObjAddr: 0xE920, symBinAddr: 0x61384, symSize: 0x34 }
  - { offset: 0xE4BD4, size: 0x8, addend: 0x0, symName: __RINvMs9_NtCs6IAuOt8vWmF_3syn5parseNtB6_11ParseBuffer5parseNtNtB8_5token2AtEB8_, symObjAddr: 0xE954, symBinAddr: 0x613B8, symSize: 0x34 }
  - { offset: 0xE4C00, size: 0x8, addend: 0x0, symName: __RINvMs9_NtCs6IAuOt8vWmF_3syn5parseNtB6_11ParseBuffer5parseNtNtB8_5token2EqEB8_, symObjAddr: 0xE988, symBinAddr: 0x613EC, symSize: 0x34 }
  - { offset: 0xE4C2C, size: 0x8, addend: 0x0, symName: __RINvMs9_NtCs6IAuOt8vWmF_3syn5parseNtB6_11ParseBuffer5parseNtNtB8_5token2FnEB8_, symObjAddr: 0xE9BC, symBinAddr: 0x61420, symSize: 0x34 }
  - { offset: 0xE4C58, size: 0x8, addend: 0x0, symName: __RINvMs9_NtCs6IAuOt8vWmF_3syn5parseNtB6_11ParseBuffer5parseNtNtB8_5token2GeEB8_, symObjAddr: 0xE9F0, symBinAddr: 0x61454, symSize: 0x34 }
  - { offset: 0xE4C84, size: 0x8, addend: 0x0, symName: __RINvMs9_NtCs6IAuOt8vWmF_3syn5parseNtB6_11ParseBuffer5parseNtNtB8_5token2GtEB8_, symObjAddr: 0xEA24, symBinAddr: 0x61488, symSize: 0x34 }
  - { offset: 0xE4CB0, size: 0x8, addend: 0x0, symName: __RINvMs9_NtCs6IAuOt8vWmF_3syn5parseNtB6_11ParseBuffer5parseNtNtB8_5token2IfEB8_, symObjAddr: 0xEA58, symBinAddr: 0x614BC, symSize: 0x34 }
  - { offset: 0xE4CDC, size: 0x8, addend: 0x0, symName: __RINvMs9_NtCs6IAuOt8vWmF_3syn5parseNtB6_11ParseBuffer5parseNtNtB8_5token2InEB8_, symObjAddr: 0xEA8C, symBinAddr: 0x614F0, symSize: 0x34 }
  - { offset: 0xE4D08, size: 0x8, addend: 0x0, symName: __RINvMs9_NtCs6IAuOt8vWmF_3syn5parseNtB6_11ParseBuffer5parseNtNtB8_5token2LeEB8_, symObjAddr: 0xEAC0, symBinAddr: 0x61524, symSize: 0x34 }
  - { offset: 0xE4D34, size: 0x8, addend: 0x0, symName: __RINvMs9_NtCs6IAuOt8vWmF_3syn5parseNtB6_11ParseBuffer5parseNtNtB8_5token2LtEB8_, symObjAddr: 0xEAF4, symBinAddr: 0x61558, symSize: 0x34 }
  - { offset: 0xE4D60, size: 0x8, addend: 0x0, symName: __RINvMs9_NtCs6IAuOt8vWmF_3syn5parseNtB6_11ParseBuffer5parseNtNtB8_5token2NeEB8_, symObjAddr: 0xEB28, symBinAddr: 0x6158C, symSize: 0x34 }
  - { offset: 0xE4D8C, size: 0x8, addend: 0x0, symName: __RINvMs9_NtCs6IAuOt8vWmF_3syn5parseNtB6_11ParseBuffer5parseNtNtB8_5token2OrEB8_, symObjAddr: 0xEB5C, symBinAddr: 0x615C0, symSize: 0x34 }
  - { offset: 0xE4DB8, size: 0x8, addend: 0x0, symName: __RINvMs9_NtCs6IAuOt8vWmF_3syn5parseNtB6_11ParseBuffer5parseNtNtB8_5token3AndEB8_, symObjAddr: 0xEB90, symBinAddr: 0x615F4, symSize: 0x34 }
  - { offset: 0xE4DE4, size: 0x8, addend: 0x0, symName: __RINvMs9_NtCs6IAuOt8vWmF_3syn5parseNtB6_11ParseBuffer5parseNtNtB8_5token3BoxEB8_, symObjAddr: 0xEBC4, symBinAddr: 0x61628, symSize: 0x34 }
  - { offset: 0xE4E10, size: 0x8, addend: 0x0, symName: __RINvMs9_NtCs6IAuOt8vWmF_3syn5parseNtB6_11ParseBuffer5parseNtNtB8_5token3DotEB8_, symObjAddr: 0xEBF8, symBinAddr: 0x6165C, symSize: 0x34 }
  - { offset: 0xE4E3C, size: 0x8, addend: 0x0, symName: __RINvMs9_NtCs6IAuOt8vWmF_3syn5parseNtB6_11ParseBuffer5parseNtNtB8_5token3DynEB8_, symObjAddr: 0xEC2C, symBinAddr: 0x61690, symSize: 0x34 }
  - { offset: 0xE4E68, size: 0x8, addend: 0x0, symName: __RINvMs9_NtCs6IAuOt8vWmF_3syn5parseNtB6_11ParseBuffer5parseNtNtB8_5token3ForEB8_, symObjAddr: 0xEC60, symBinAddr: 0x616C4, symSize: 0x34 }
  - { offset: 0xE4E94, size: 0x8, addend: 0x0, symName: __RINvMs9_NtCs6IAuOt8vWmF_3syn5parseNtB6_11ParseBuffer5parseNtNtB8_5token3LetEB8_, symObjAddr: 0xEC94, symBinAddr: 0x616F8, symSize: 0x34 }
  - { offset: 0xE4EC0, size: 0x8, addend: 0x0, symName: __RINvMs9_NtCs6IAuOt8vWmF_3syn5parseNtB6_11ParseBuffer5parseNtNtB8_5token3ModEB8_, symObjAddr: 0xECC8, symBinAddr: 0x6172C, symSize: 0x34 }
  - { offset: 0xE4EEC, size: 0x8, addend: 0x0, symName: __RINvMs9_NtCs6IAuOt8vWmF_3syn5parseNtB6_11ParseBuffer5parseNtNtB8_5token3MutEB8_, symObjAddr: 0xECFC, symBinAddr: 0x61760, symSize: 0x34 }
  - { offset: 0xE4F18, size: 0x8, addend: 0x0, symName: __RINvMs9_NtCs6IAuOt8vWmF_3syn5parseNtB6_11ParseBuffer5parseNtNtB8_5token3NotEB8_, symObjAddr: 0xED30, symBinAddr: 0x61794, symSize: 0x34 }
  - { offset: 0xE4F44, size: 0x8, addend: 0x0, symName: __RINvMs9_NtCs6IAuOt8vWmF_3syn5parseNtB6_11ParseBuffer5parseNtNtB8_5token3PubEB8_, symObjAddr: 0xED64, symBinAddr: 0x617C8, symSize: 0x34 }
  - { offset: 0xE4F70, size: 0x8, addend: 0x0, symName: __RINvMs9_NtCs6IAuOt8vWmF_3syn5parseNtB6_11ParseBuffer5parseNtNtB8_5token3RawEB8_, symObjAddr: 0xED98, symBinAddr: 0x617FC, symSize: 0x34 }
  - { offset: 0xE4F9C, size: 0x8, addend: 0x0, symName: __RINvMs9_NtCs6IAuOt8vWmF_3syn5parseNtB6_11ParseBuffer5parseNtNtB8_5token3RefEB8_, symObjAddr: 0xEDCC, symBinAddr: 0x61830, symSize: 0x34 }
  - { offset: 0xE4FC8, size: 0x8, addend: 0x0, symName: __RINvMs9_NtCs6IAuOt8vWmF_3syn5parseNtB6_11ParseBuffer5parseNtNtB8_5token3ShlEB8_, symObjAddr: 0xEE00, symBinAddr: 0x61864, symSize: 0x34 }
  - { offset: 0xE4FF4, size: 0x8, addend: 0x0, symName: __RINvMs9_NtCs6IAuOt8vWmF_3syn5parseNtB6_11ParseBuffer5parseNtNtB8_5token3ShrEB8_, symObjAddr: 0xEE34, symBinAddr: 0x61898, symSize: 0x34 }
  - { offset: 0xE5020, size: 0x8, addend: 0x0, symName: __RINvMs9_NtCs6IAuOt8vWmF_3syn5parseNtB6_11ParseBuffer5parseNtNtB8_5token3TryEB8_, symObjAddr: 0xEE68, symBinAddr: 0x618CC, symSize: 0x34 }
  - { offset: 0xE504C, size: 0x8, addend: 0x0, symName: __RINvMs9_NtCs6IAuOt8vWmF_3syn5parseNtB6_11ParseBuffer5parseNtNtB8_5token3UseEB8_, symObjAddr: 0xEE9C, symBinAddr: 0x61900, symSize: 0x34 }
  - { offset: 0xE5078, size: 0x8, addend: 0x0, symName: __RINvMs9_NtCs6IAuOt8vWmF_3syn5parseNtB6_11ParseBuffer5parseNtNtB8_5token4AutoEB8_, symObjAddr: 0xEED0, symBinAddr: 0x61934, symSize: 0x34 }
  - { offset: 0xE50A4, size: 0x8, addend: 0x0, symName: __RINvMs9_NtCs6IAuOt8vWmF_3syn5parseNtB6_11ParseBuffer5parseNtNtB8_5token4ElseEB8_, symObjAddr: 0xEF04, symBinAddr: 0x61968, symSize: 0x34 }
  - { offset: 0xE50D0, size: 0x8, addend: 0x0, symName: __RINvMs9_NtCs6IAuOt8vWmF_3syn5parseNtB6_11ParseBuffer5parseNtNtB8_5token4EnumEB8_, symObjAddr: 0xEF38, symBinAddr: 0x6199C, symSize: 0x34 }
  - { offset: 0xE50FC, size: 0x8, addend: 0x0, symName: __RINvMs9_NtCs6IAuOt8vWmF_3syn5parseNtB6_11ParseBuffer5parseNtNtB8_5token4EqEqEB8_, symObjAddr: 0xEF6C, symBinAddr: 0x619D0, symSize: 0x34 }
  - { offset: 0xE5128, size: 0x8, addend: 0x0, symName: __RINvMs9_NtCs6IAuOt8vWmF_3syn5parseNtB6_11ParseBuffer5parseNtNtB8_5token4ImplEB8_, symObjAddr: 0xEFA0, symBinAddr: 0x61A04, symSize: 0x34 }
  - { offset: 0xE5154, size: 0x8, addend: 0x0, symName: __RINvMs9_NtCs6IAuOt8vWmF_3syn5parseNtB6_11ParseBuffer5parseNtNtB8_5token4LoopEB8_, symObjAddr: 0xEFD4, symBinAddr: 0x61A38, symSize: 0x34 }
  - { offset: 0xE5180, size: 0x8, addend: 0x0, symName: __RINvMs9_NtCs6IAuOt8vWmF_3syn5parseNtB6_11ParseBuffer5parseNtNtB8_5token4MoveEB8_, symObjAddr: 0xF008, symBinAddr: 0x61A6C, symSize: 0x34 }
  - { offset: 0xE51AC, size: 0x8, addend: 0x0, symName: __RINvMs9_NtCs6IAuOt8vWmF_3syn5parseNtB6_11ParseBuffer5parseNtNtB8_5token4OrEqEB8_, symObjAddr: 0xF03C, symBinAddr: 0x61AA0, symSize: 0x34 }
  - { offset: 0xE51D8, size: 0x8, addend: 0x0, symName: __RINvMs9_NtCs6IAuOt8vWmF_3syn5parseNtB6_11ParseBuffer5parseNtNtB8_5token4OrOrEB8_, symObjAddr: 0xF070, symBinAddr: 0x61AD4, symSize: 0x34 }
  - { offset: 0xE5204, size: 0x8, addend: 0x0, symName: __RINvMs9_NtCs6IAuOt8vWmF_3syn5parseNtB6_11ParseBuffer5parseNtNtB8_5token4PlusEB8_, symObjAddr: 0xF0A4, symBinAddr: 0x61B08, symSize: 0x34 }
  - { offset: 0xE5230, size: 0x8, addend: 0x0, symName: __RINvMs9_NtCs6IAuOt8vWmF_3syn5parseNtB6_11ParseBuffer5parseNtNtB8_5token4SemiEB8_, symObjAddr: 0xF0D8, symBinAddr: 0x61B3C, symSize: 0x34 }
  - { offset: 0xE525C, size: 0x8, addend: 0x0, symName: __RINvMs9_NtCs6IAuOt8vWmF_3syn5parseNtB6_11ParseBuffer5parseNtNtB8_5token4StarEB8_, symObjAddr: 0xF10C, symBinAddr: 0x61B70, symSize: 0x34 }
  - { offset: 0xE5288, size: 0x8, addend: 0x0, symName: __RINvMs9_NtCs6IAuOt8vWmF_3syn5parseNtB6_11ParseBuffer5parseNtNtB8_5token4TypeEB8_, symObjAddr: 0xF140, symBinAddr: 0x61BA4, symSize: 0x34 }
  - { offset: 0xE52B4, size: 0x8, addend: 0x0, symName: __RINvMs9_NtCs6IAuOt8vWmF_3syn5parseNtB6_11ParseBuffer5parseNtNtB8_5token5AndEqEB8_, symObjAddr: 0xF174, symBinAddr: 0x61BD8, symSize: 0x34 }
  - { offset: 0xE52E0, size: 0x8, addend: 0x0, symName: __RINvMs9_NtCs6IAuOt8vWmF_3syn5parseNtB6_11ParseBuffer5parseNtNtB8_5token5AsyncEB8_, symObjAddr: 0xF1A8, symBinAddr: 0x61C0C, symSize: 0x34 }
  - { offset: 0xE530C, size: 0x8, addend: 0x0, symName: __RINvMs9_NtCs6IAuOt8vWmF_3syn5parseNtB6_11ParseBuffer5parseNtNtB8_5token5AwaitEB8_, symObjAddr: 0xF1DC, symBinAddr: 0x61C40, symSize: 0x34 }
  - { offset: 0xE5338, size: 0x8, addend: 0x0, symName: __RINvMs9_NtCs6IAuOt8vWmF_3syn5parseNtB6_11ParseBuffer5parseNtNtB8_5token5BreakEB8_, symObjAddr: 0xF210, symBinAddr: 0x61C74, symSize: 0x34 }
  - { offset: 0xE5364, size: 0x8, addend: 0x0, symName: __RINvMs9_NtCs6IAuOt8vWmF_3syn5parseNtB6_11ParseBuffer5parseNtNtB8_5token5CaretEB8_, symObjAddr: 0xF244, symBinAddr: 0x61CA8, symSize: 0x34 }
  - { offset: 0xE5390, size: 0x8, addend: 0x0, symName: __RINvMs9_NtCs6IAuOt8vWmF_3syn5parseNtB6_11ParseBuffer5parseNtNtB8_5token5ColonEB8_, symObjAddr: 0xF278, symBinAddr: 0x61CDC, symSize: 0x34 }
  - { offset: 0xE53BC, size: 0x8, addend: 0x0, symName: __RINvMs9_NtCs6IAuOt8vWmF_3syn5parseNtB6_11ParseBuffer5parseNtNtB8_5token5CommaEB8_, symObjAddr: 0xF2AC, symBinAddr: 0x61D10, symSize: 0x34 }
  - { offset: 0xE53E8, size: 0x8, addend: 0x0, symName: __RINvMs9_NtCs6IAuOt8vWmF_3syn5parseNtB6_11ParseBuffer5parseNtNtB8_5token5ConstEB8_, symObjAddr: 0xF2E0, symBinAddr: 0x61D44, symSize: 0x34 }
  - { offset: 0xE5414, size: 0x8, addend: 0x0, symName: __RINvMs9_NtCs6IAuOt8vWmF_3syn5parseNtB6_11ParseBuffer5parseNtNtB8_5token5CrateEB8_, symObjAddr: 0xF314, symBinAddr: 0x61D78, symSize: 0x34 }
  - { offset: 0xE5440, size: 0x8, addend: 0x0, symName: __RINvMs9_NtCs6IAuOt8vWmF_3syn5parseNtB6_11ParseBuffer5parseNtNtB8_5token5MacroEB8_, symObjAddr: 0xF348, symBinAddr: 0x61DAC, symSize: 0x34 }
  - { offset: 0xE546C, size: 0x8, addend: 0x0, symName: __RINvMs9_NtCs6IAuOt8vWmF_3syn5parseNtB6_11ParseBuffer5parseNtNtB8_5token5MatchEB8_, symObjAddr: 0xF37C, symBinAddr: 0x61DE0, symSize: 0x34 }
  - { offset: 0xE5498, size: 0x8, addend: 0x0, symName: __RINvMs9_NtCs6IAuOt8vWmF_3syn5parseNtB6_11ParseBuffer5parseNtNtB8_5token5MinusEB8_, symObjAddr: 0xF3B0, symBinAddr: 0x61E14, symSize: 0x34 }
  - { offset: 0xE54C4, size: 0x8, addend: 0x0, symName: __RINvMs9_NtCs6IAuOt8vWmF_3syn5parseNtB6_11ParseBuffer5parseNtNtB8_5token5PoundEB8_, symObjAddr: 0xF3E4, symBinAddr: 0x61E48, symSize: 0x34 }
  - { offset: 0xE54F0, size: 0x8, addend: 0x0, symName: __RINvMs9_NtCs6IAuOt8vWmF_3syn5parseNtB6_11ParseBuffer5parseNtNtB8_5token5ShlEqEB8_, symObjAddr: 0xF418, symBinAddr: 0x61E7C, symSize: 0x34 }
  - { offset: 0xE551C, size: 0x8, addend: 0x0, symName: __RINvMs9_NtCs6IAuOt8vWmF_3syn5parseNtB6_11ParseBuffer5parseNtNtB8_5token5ShrEqEB8_, symObjAddr: 0xF44C, symBinAddr: 0x61EB0, symSize: 0x34 }
  - { offset: 0xE5548, size: 0x8, addend: 0x0, symName: __RINvMs9_NtCs6IAuOt8vWmF_3syn5parseNtB6_11ParseBuffer5parseNtNtB8_5token5SlashEB8_, symObjAddr: 0xF480, symBinAddr: 0x61EE4, symSize: 0x34 }
  - { offset: 0xE5574, size: 0x8, addend: 0x0, symName: __RINvMs9_NtCs6IAuOt8vWmF_3syn5parseNtB6_11ParseBuffer5parseNtNtB8_5token5TraitEB8_, symObjAddr: 0xF4B4, symBinAddr: 0x61F18, symSize: 0x34 }
  - { offset: 0xE55A0, size: 0x8, addend: 0x0, symName: __RINvMs9_NtCs6IAuOt8vWmF_3syn5parseNtB6_11ParseBuffer5parseNtNtB8_5token5UnionEB8_, symObjAddr: 0xF4E8, symBinAddr: 0x61F4C, symSize: 0x34 }
  - { offset: 0xE55CC, size: 0x8, addend: 0x0, symName: __RINvMs9_NtCs6IAuOt8vWmF_3syn5parseNtB6_11ParseBuffer5parseNtNtB8_5token5WhereEB8_, symObjAddr: 0xF51C, symBinAddr: 0x61F80, symSize: 0x34 }
  - { offset: 0xE55F8, size: 0x8, addend: 0x0, symName: __RINvMs9_NtCs6IAuOt8vWmF_3syn5parseNtB6_11ParseBuffer5parseNtNtB8_5token5WhileEB8_, symObjAddr: 0xF550, symBinAddr: 0x61FB4, symSize: 0x34 }
  - { offset: 0xE5624, size: 0x8, addend: 0x0, symName: __RINvMs9_NtCs6IAuOt8vWmF_3syn5parseNtB6_11ParseBuffer5parseNtNtB8_5token5YieldEB8_, symObjAddr: 0xF584, symBinAddr: 0x61FE8, symSize: 0x34 }
  - { offset: 0xE5650, size: 0x8, addend: 0x0, symName: __RINvMs9_NtCs6IAuOt8vWmF_3syn5parseNtB6_11ParseBuffer5parseNtNtB8_5token6AndAndEB8_, symObjAddr: 0xF5B8, symBinAddr: 0x6201C, symSize: 0x34 }
  - { offset: 0xE567C, size: 0x8, addend: 0x0, symName: __RINvMs9_NtCs6IAuOt8vWmF_3syn5parseNtB6_11ParseBuffer5parseNtNtB8_5token6BecomeEB8_, symObjAddr: 0xF5EC, symBinAddr: 0x62050, symSize: 0x34 }
  - { offset: 0xE56A8, size: 0x8, addend: 0x0, symName: __RINvMs9_NtCs6IAuOt8vWmF_3syn5parseNtB6_11ParseBuffer5parseNtNtB8_5token6DotDotEB8_, symObjAddr: 0xF620, symBinAddr: 0x62084, symSize: 0x34 }
  - { offset: 0xE56D4, size: 0x8, addend: 0x0, symName: __RINvMs9_NtCs6IAuOt8vWmF_3syn5parseNtB6_11ParseBuffer5parseNtNtB8_5token6ExternEB8_, symObjAddr: 0xF654, symBinAddr: 0x620B8, symSize: 0x34 }
  - { offset: 0xE5700, size: 0x8, addend: 0x0, symName: __RINvMs9_NtCs6IAuOt8vWmF_3syn5parseNtB6_11ParseBuffer5parseNtNtB8_5token6PlusEqEB8_, symObjAddr: 0xF688, symBinAddr: 0x620EC, symSize: 0x34 }
  - { offset: 0xE572C, size: 0x8, addend: 0x0, symName: __RINvMs9_NtCs6IAuOt8vWmF_3syn5parseNtB6_11ParseBuffer5parseNtNtB8_5token6RArrowEB8_, symObjAddr: 0xF6BC, symBinAddr: 0x62120, symSize: 0x34 }
  - { offset: 0xE5758, size: 0x8, addend: 0x0, symName: __RINvMs9_NtCs6IAuOt8vWmF_3syn5parseNtB6_11ParseBuffer5parseNtNtB8_5token6ReturnEB8_, symObjAddr: 0xF6F0, symBinAddr: 0x62154, symSize: 0x34 }
  - { offset: 0xE5784, size: 0x8, addend: 0x0, symName: __RINvMs9_NtCs6IAuOt8vWmF_3syn5parseNtB6_11ParseBuffer5parseNtNtB8_5token6StarEqEB8_, symObjAddr: 0xF724, symBinAddr: 0x62188, symSize: 0x34 }
  - { offset: 0xE57B0, size: 0x8, addend: 0x0, symName: __RINvMs9_NtCs6IAuOt8vWmF_3syn5parseNtB6_11ParseBuffer5parseNtNtB8_5token6StaticEB8_, symObjAddr: 0xF758, symBinAddr: 0x621BC, symSize: 0x34 }
  - { offset: 0xE57DC, size: 0x8, addend: 0x0, symName: __RINvMs9_NtCs6IAuOt8vWmF_3syn5parseNtB6_11ParseBuffer5parseNtNtB8_5token6StructEB8_, symObjAddr: 0xF78C, symBinAddr: 0x621F0, symSize: 0x34 }
  - { offset: 0xE5808, size: 0x8, addend: 0x0, symName: __RINvMs9_NtCs6IAuOt8vWmF_3syn5parseNtB6_11ParseBuffer5parseNtNtB8_5token6UnsafeEB8_, symObjAddr: 0xF7C0, symBinAddr: 0x62224, symSize: 0x34 }
  - { offset: 0xE5834, size: 0x8, addend: 0x0, symName: __RINvMs9_NtCs6IAuOt8vWmF_3syn5parseNtB6_11ParseBuffer5parseNtNtB8_5token7CaretEqEB8_, symObjAddr: 0xF7F4, symBinAddr: 0x62258, symSize: 0x34 }
  - { offset: 0xE5860, size: 0x8, addend: 0x0, symName: __RINvMs9_NtCs6IAuOt8vWmF_3syn5parseNtB6_11ParseBuffer5parseNtNtB8_5token7DefaultEB8_, symObjAddr: 0xF828, symBinAddr: 0x6228C, symSize: 0x34 }
  - { offset: 0xE588C, size: 0x8, addend: 0x0, symName: __RINvMs9_NtCs6IAuOt8vWmF_3syn5parseNtB6_11ParseBuffer5parseNtNtB8_5token7MinusEqEB8_, symObjAddr: 0xF85C, symBinAddr: 0x622C0, symSize: 0x34 }
  - { offset: 0xE58B8, size: 0x8, addend: 0x0, symName: __RINvMs9_NtCs6IAuOt8vWmF_3syn5parseNtB6_11ParseBuffer5parseNtNtB8_5token7PathSepEB8_, symObjAddr: 0xF890, symBinAddr: 0x622F4, symSize: 0x34 }
  - { offset: 0xE58E4, size: 0x8, addend: 0x0, symName: __RINvMs9_NtCs6IAuOt8vWmF_3syn5parseNtB6_11ParseBuffer5parseNtNtB8_5token7PercentEB8_, symObjAddr: 0xF8C4, symBinAddr: 0x62328, symSize: 0x34 }
  - { offset: 0xE5910, size: 0x8, addend: 0x0, symName: __RINvMs9_NtCs6IAuOt8vWmF_3syn5parseNtB6_11ParseBuffer5parseNtNtB8_5token7SlashEqEB8_, symObjAddr: 0xF8F8, symBinAddr: 0x6235C, symSize: 0x34 }
  - { offset: 0xE593C, size: 0x8, addend: 0x0, symName: __RINvMs9_NtCs6IAuOt8vWmF_3syn5parseNtB6_11ParseBuffer5parseNtNtB8_5token8ContinueEB8_, symObjAddr: 0xF92C, symBinAddr: 0x62390, symSize: 0x34 }
  - { offset: 0xE5968, size: 0x8, addend: 0x0, symName: __RINvMs9_NtCs6IAuOt8vWmF_3syn5parseNtB6_11ParseBuffer5parseNtNtB8_5token8DotDotEqEB8_, symObjAddr: 0xF960, symBinAddr: 0x623C4, symSize: 0x34 }
  - { offset: 0xE5994, size: 0x8, addend: 0x0, symName: __RINvMs9_NtCs6IAuOt8vWmF_3syn5parseNtB6_11ParseBuffer5parseNtNtB8_5token8FatArrowEB8_, symObjAddr: 0xF994, symBinAddr: 0x623F8, symSize: 0x34 }
  - { offset: 0xE59C0, size: 0x8, addend: 0x0, symName: __RINvMs9_NtCs6IAuOt8vWmF_3syn5parseNtB6_11ParseBuffer5parseNtNtB8_5token8QuestionEB8_, symObjAddr: 0xF9C8, symBinAddr: 0x6242C, symSize: 0x34 }
  - { offset: 0xE59EC, size: 0x8, addend: 0x0, symName: __RINvMs9_NtCs6IAuOt8vWmF_3syn5parseNtB6_11ParseBuffer5parseNtNtB8_5token9DotDotDotEB8_, symObjAddr: 0xF9FC, symBinAddr: 0x62460, symSize: 0x34 }
  - { offset: 0xE5A18, size: 0x8, addend: 0x0, symName: __RINvMs9_NtCs6IAuOt8vWmF_3syn5parseNtB6_11ParseBuffer5parseNtNtB8_5token9PercentEqEB8_, symObjAddr: 0xFA30, symBinAddr: 0x62494, symSize: 0x34 }
  - { offset: 0xE5A44, size: 0x8, addend: 0x0, symName: __RINvMs9_NtCs6IAuOt8vWmF_3syn5parseNtB6_11ParseBuffer5parseNtNtB8_5token9SelfValueEB8_, symObjAddr: 0xFA64, symBinAddr: 0x624C8, symSize: 0x34 }
  - { offset: 0xE5A70, size: 0x8, addend: 0x0, symName: __RINvMs9_NtCs6IAuOt8vWmF_3syn5parseNtB6_11ParseBuffer5parseNtNtB8_8generics10ConstParamEB8_, symObjAddr: 0xFA98, symBinAddr: 0x624FC, symSize: 0x34 }
  - { offset: 0xE5A9C, size: 0x8, addend: 0x0, symName: __RINvMs9_NtCs6IAuOt8vWmF_3syn5parseNtB6_11ParseBuffer5parseNtNtB8_8generics10TraitBoundEB8_, symObjAddr: 0xFACC, symBinAddr: 0x62530, symSize: 0x34 }
  - { offset: 0xE5AC8, size: 0x8, addend: 0x0, symName: __RINvMs9_NtCs6IAuOt8vWmF_3syn5parseNtB6_11ParseBuffer5parseNtNtB8_8generics11WhereClauseEB8_, symObjAddr: 0xFB00, symBinAddr: 0x62564, symSize: 0x34 }
  - { offset: 0xE5AF4, size: 0x8, addend: 0x0, symName: __RINvMs9_NtCs6IAuOt8vWmF_3syn5parseNtB6_11ParseBuffer5parseNtNtB8_8generics12GenericParamEB8_, symObjAddr: 0xFB34, symBinAddr: 0x62598, symSize: 0x34 }
  - { offset: 0xE5B20, size: 0x8, addend: 0x0, symName: __RINvMs9_NtCs6IAuOt8vWmF_3syn5parseNtB6_11ParseBuffer5parseNtNtB8_8generics13CapturedParamEB8_, symObjAddr: 0xFB68, symBinAddr: 0x625CC, symSize: 0x34 }
  - { offset: 0xE5B4C, size: 0x8, addend: 0x0, symName: __RINvMs9_NtCs6IAuOt8vWmF_3syn5parseNtB6_11ParseBuffer5parseNtNtB8_8generics13LifetimeParamEB8_, symObjAddr: 0xFB9C, symBinAddr: 0x62600, symSize: 0x34 }
