---
triple:          'arm64-apple-darwin'
binary-path:     '/Users/cedric/orange/ran-llm-claude-flow/src/rust-pipeline/target/debug/build/selectors-d691332d1fdb41cf/build_script_build-d691332d1fdb41cf'
relocations:
  - { offset: 0x1E, size: 0x8, addend: 0x0, symName: __RINvMs6_NtCsloNvcHxBCre_9hashbrown3rawINtB6_8RawTableTRReuEE14reserve_rehashNCINvNtB8_3map11make_hasherBQ_uNtNtNtCscOYdFFY2T5N_3std4hash6random11RandomStateE0ECseI6s6vG8qtM_18build_script_build, symObjAddr: 0x0, symBinAddr: 0x100052834, symSize: 0x824 }
  - { offset: 0x5A, size: 0x8, addend: 0x0, symName: __RNCINvMs6_NtCsloNvcHxBCre_9hashbrown3rawINtB8_8RawTableTRReuEE14reserve_rehashNCINvNtBa_3map11make_hasherBS_uNtNtNtCscOYdFFY2T5N_3std4hash6random11RandomStateE0E0CseI6s6vG8qtM_18build_script_build, symObjAddr: 0xF68, symBinAddr: 0x10000136C, symSize: 0xC0 }
  - { offset: 0x21D, size: 0x8, addend: 0x0, symName: __RNCINvMs6_NtCsloNvcHxBCre_9hashbrown3rawINtB8_8RawTableTRReuEE24find_or_find_insert_slotNCINvNtBa_3map14equivalent_keyBS_BS_uE0NCINvB1t_11make_hasherBS_uNtNtNtCscOYdFFY2T5N_3std4hash6random11RandomStateE0E0CseI6s6vG8qtM_18build_script_build, symObjAddr: 0x1028, symBinAddr: 0x10000142C, symSize: 0xC4 }
  - { offset: 0xAE5, size: 0x8, addend: 0x0, symName: __RNCINvMsa_NtCsloNvcHxBCre_9hashbrown3rawNtB8_13RawTableInner14prepare_resizeNtNtCse1nGBsou5OW_5alloc5alloc6GlobalE0CseI6s6vG8qtM_18build_script_build, symObjAddr: 0x10EC, symBinAddr: 0x1000014F0, symSize: 0xBC }
  - { offset: 0xCC8, size: 0x8, addend: 0x0, symName: __RNCNvMsa_NtCsloNvcHxBCre_9hashbrown3rawNtB7_13RawTableInner15rehash_in_place0CseI6s6vG8qtM_18build_script_build, symObjAddr: 0x11A8, symBinAddr: 0x1000015AC, symSize: 0x23C }
  - { offset: 0x11FB, size: 0x8, addend: 0x0, symName: __RNvNtCsloNvcHxBCre_9hashbrown3raw19capacity_to_bucketsCseI6s6vG8qtM_18build_script_build, symObjAddr: 0x2524, symBinAddr: 0x100002928, symSize: 0x198 }
  - { offset: 0x13B6, size: 0x8, addend: 0x0, symName: __RNvXsg_NtCsloNvcHxBCre_9hashbrown3rawINtB5_8RawTableTRReuEENtNtNtCsfvfooZQ3Axs_4core3ops4drop4Drop4dropCseI6s6vG8qtM_18build_script_build, symObjAddr: 0x26BC, symBinAddr: 0x100002AC0, symSize: 0x38 }
  - { offset: 0x4593, size: 0x8, addend: 0x0, symName: __RINvMs6_NtCsloNvcHxBCre_9hashbrown3rawINtB6_8RawTableTRReuEE14reserve_rehashNCINvNtB8_3map11make_hasherBQ_uNtNtNtCscOYdFFY2T5N_3std4hash6random11RandomStateE0ECseI6s6vG8qtM_18build_script_build, symObjAddr: 0x0, symBinAddr: 0x100052834, symSize: 0x824 }
  - { offset: 0x4F83, size: 0x8, addend: 0x0, symName: __RINvMs6_NtCsloNvcHxBCre_9hashbrown3rawINtB6_8RawTableTRReuEE24find_or_find_insert_slotNCINvNtB8_3map14equivalent_keyBQ_BQ_uE0NCINvB1r_11make_hasherBQ_uNtNtNtCscOYdFFY2T5N_3std4hash6random11RandomStateE0ECseI6s6vG8qtM_18build_script_build, symObjAddr: 0x824, symBinAddr: 0x100000C28, symSize: 0x13C }
  - { offset: 0x5167, size: 0x8, addend: 0x0, symName: __RINvMs6_NtCsloNvcHxBCre_9hashbrown3rawINtB6_8RawTableTRReuEE7reserveNCINvNtB8_3map11make_hasherBQ_uNtNtNtCscOYdFFY2T5N_3std4hash6random11RandomStateE0ECseI6s6vG8qtM_18build_script_build, symObjAddr: 0x960, symBinAddr: 0x100000D64, symSize: 0xCC }
  - { offset: 0x52DA, size: 0x8, addend: 0x0, symName: __RINvMsa_NtCsloNvcHxBCre_9hashbrown3rawNtB6_13RawTableInner13drop_elementsTRReuEECseI6s6vG8qtM_18build_script_build, symObjAddr: 0xA2C, symBinAddr: 0x100000E30, symSize: 0x28 }
  - { offset: 0x5545, size: 0x8, addend: 0x0, symName: __RINvMsa_NtCsloNvcHxBCre_9hashbrown3rawNtB6_13RawTableInner16drop_inner_tableTRReuENtNtCse1nGBsou5OW_5alloc5alloc6GlobalECseI6s6vG8qtM_18build_script_build, symObjAddr: 0xA54, symBinAddr: 0x100000E58, symSize: 0xBC }
  - { offset: 0x5758, size: 0x8, addend: 0x0, symName: __RINvMsa_NtCsloNvcHxBCre_9hashbrown3rawNtB6_13RawTableInner17new_uninitializedNtNtCse1nGBsou5OW_5alloc5alloc6GlobalECseI6s6vG8qtM_18build_script_build, symObjAddr: 0xB10, symBinAddr: 0x100000F14, symSize: 0x1B0 }
  - { offset: 0x5991, size: 0x8, addend: 0x0, symName: __RINvMsa_NtCsloNvcHxBCre_9hashbrown3rawNtB6_13RawTableInner22fallible_with_capacityNtNtCse1nGBsou5OW_5alloc5alloc6GlobalECseI6s6vG8qtM_18build_script_build, symObjAddr: 0xCC0, symBinAddr: 0x1000010C4, symSize: 0x2A8 }
  - { offset: 0x611E, size: 0x8, addend: 0x0, symName: __RNvMs1_NtCsloNvcHxBCre_9hashbrown3rawNtB5_11TableLayout20calculate_layout_forCseI6s6vG8qtM_18build_script_build, symObjAddr: 0x13E4, symBinAddr: 0x1000017E8, symSize: 0x210 }
  - { offset: 0x65AB, size: 0x8, addend: 0x0, symName: __RNvMs6_NtCsloNvcHxBCre_9hashbrown3rawINtB5_8RawTableTRReuEE14insert_in_slotCseI6s6vG8qtM_18build_script_build, symObjAddr: 0x15F4, symBinAddr: 0x1000019F8, symSize: 0x130 }
  - { offset: 0x6A6C, size: 0x8, addend: 0x0, symName: __RNvMsa_NtCsloNvcHxBCre_9hashbrown3rawNtB5_13RawTableInner15fix_insert_slotCseI6s6vG8qtM_18build_script_build, symObjAddr: 0x1724, symBinAddr: 0x100001B28, symSize: 0x128 }
  - { offset: 0x6DEA, size: 0x8, addend: 0x0, symName: __RNvMsa_NtCsloNvcHxBCre_9hashbrown3rawNtB5_13RawTableInner15rehash_in_placeCseI6s6vG8qtM_18build_script_build, symObjAddr: 0x184C, symBinAddr: 0x100001C50, symSize: 0x4E8 }
  - { offset: 0x7601, size: 0x8, addend: 0x0, symName: __RNvMsa_NtCsloNvcHxBCre_9hashbrown3rawNtB5_13RawTableInner16find_insert_slotCseI6s6vG8qtM_18build_script_build, symObjAddr: 0x1D34, symBinAddr: 0x100002138, symSize: 0x10C }
  - { offset: 0x77F2, size: 0x8, addend: 0x0, symName: __RNvMsa_NtCsloNvcHxBCre_9hashbrown3rawNtB5_13RawTableInner19prepare_insert_slotCseI6s6vG8qtM_18build_script_build, symObjAddr: 0x1E40, symBinAddr: 0x100002244, symSize: 0x74 }
  - { offset: 0x7AE4, size: 0x8, addend: 0x0, symName: __RNvMsa_NtCsloNvcHxBCre_9hashbrown3rawNtB5_13RawTableInner23prepare_rehash_in_placeCseI6s6vG8qtM_18build_script_build, symObjAddr: 0x1EB4, symBinAddr: 0x1000022B8, symSize: 0x254 }
  - { offset: 0x81E0, size: 0x8, addend: 0x0, symName: __RNvMsa_NtCsloNvcHxBCre_9hashbrown3rawNtB5_13RawTableInner25find_insert_slot_in_groupCseI6s6vG8qtM_18build_script_build, symObjAddr: 0x2108, symBinAddr: 0x10000250C, symSize: 0x160 }
  - { offset: 0x84F1, size: 0x8, addend: 0x0, symName: __RNvMsa_NtCsloNvcHxBCre_9hashbrown3rawNtB5_13RawTableInner30find_or_find_insert_slot_innerCseI6s6vG8qtM_18build_script_build, symObjAddr: 0x2268, symBinAddr: 0x10000266C, symSize: 0x2BC }
  - { offset: 0x88C9, size: 0x8, addend: 0x0, symName: __RINvNtNtNtNtCsfvfooZQ3Axs_4core5slice4sort6shared9smallsort11insert_tailNtNvCsgq90m4oCT4f_13phf_generator17try_generate_hash6BucketNCINvMNtCse1nGBsou5OW_5alloc5sliceSB18_7sort_byNCIB1a_ReEs0_0E0ECseI6s6vG8qtM_18build_script_build, symObjAddr: 0x0, symBinAddr: 0x100002AF8, symSize: 0x1C8 }
  - { offset: 0x95DA, size: 0x8, addend: 0x0, symName: __RINvNtNtNtNtCsfvfooZQ3Axs_4core5slice4sort6shared9smallsort11insert_tailNtNvCsgq90m4oCT4f_13phf_generator17try_generate_hash6BucketNCINvMNtCse1nGBsou5OW_5alloc5sliceSB18_7sort_byNCIB1a_ReEs0_0E0ECseI6s6vG8qtM_18build_script_build, symObjAddr: 0x0, symBinAddr: 0x100002AF8, symSize: 0x1C8 }
  - { offset: 0x9779, size: 0x8, addend: 0x0, symName: __RINvNtNtNtNtCsfvfooZQ3Axs_4core5slice4sort6shared9smallsort12sort4_stableNtNvCsgq90m4oCT4f_13phf_generator17try_generate_hash6BucketNCINvMNtCse1nGBsou5OW_5alloc5sliceSB19_7sort_byNCIB1b_ReEs0_0E0ECseI6s6vG8qtM_18build_script_build, symObjAddr: 0x1C8, symBinAddr: 0x100002CC0, symSize: 0x488 }
  - { offset: 0x9D49, size: 0x8, addend: 0x0, symName: __RINvNtNtNtNtCsfvfooZQ3Axs_4core5slice4sort6shared9smallsort19bidirectional_mergeNtNvCsgq90m4oCT4f_13phf_generator17try_generate_hash6BucketNCINvMNtCse1nGBsou5OW_5alloc5sliceSB1g_7sort_byNCIB1i_ReEs0_0E0ECseI6s6vG8qtM_18build_script_build, symObjAddr: 0x650, symBinAddr: 0x100003148, symSize: 0x55C }
  - { offset: 0xA406, size: 0x8, addend: 0x0, symName: __RINvNtNtNtNtCsfvfooZQ3Axs_4core5slice4sort6shared9smallsort25insertion_sort_shift_leftNtNvCsgq90m4oCT4f_13phf_generator17try_generate_hash6BucketNCINvMNtCse1nGBsou5OW_5alloc5sliceSB1m_7sort_byNCIB1o_ReEs0_0E0ECseI6s6vG8qtM_18build_script_build, symObjAddr: 0xBAC, symBinAddr: 0x1000036A4, symSize: 0xC4 }
  - { offset: 0xA540, size: 0x8, addend: 0x0, symName: __RINvNtNtNtNtCsfvfooZQ3Axs_4core5slice4sort6shared9smallsort31small_sort_general_with_scratchNtNvCsgq90m4oCT4f_13phf_generator17try_generate_hash6BucketNCINvMNtCse1nGBsou5OW_5alloc5sliceSB1s_7sort_byNCIB1u_ReEs0_0E0ECseI6s6vG8qtM_18build_script_build, symObjAddr: 0xC70, symBinAddr: 0x100003768, symSize: 0x480 }
  - { offset: 0xA95E, size: 0x8, addend: 0x0, symName: __RNvXs5_NtNtNtNtCsfvfooZQ3Axs_4core5slice4sort6shared9smallsortINtB5_10CopyOnDropNtNvCsgq90m4oCT4f_13phf_generator17try_generate_hash6BucketENtNtNtBd_3ops4drop4Drop4dropCseI6s6vG8qtM_18build_script_build, symObjAddr: 0x1E98, symBinAddr: 0x100004990, symSize: 0x80 }
  - { offset: 0xAAA9, size: 0x8, addend: 0x0, symName: __RINvNtNtNtNtCsfvfooZQ3Axs_4core5slice4sort6stable9quicksort16stable_partitionNtNvCsgq90m4oCT4f_13phf_generator17try_generate_hash6BucketNCINvB2_9quicksortB1d_NCINvMNtCse1nGBsou5OW_5alloc5sliceSB1d_7sort_byNCIB1f_ReEs0_0E0E0ECseI6s6vG8qtM_18build_script_build, symObjAddr: 0x10F0, symBinAddr: 0x100003BE8, symSize: 0x398 }
  - { offset: 0xAED3, size: 0x8, addend: 0x0, symName: __RINvNtNtNtNtCsfvfooZQ3Axs_4core5slice4sort6stable9quicksort16stable_partitionNtNvCsgq90m4oCT4f_13phf_generator17try_generate_hash6BucketNCINvMNtCse1nGBsou5OW_5alloc5sliceSB1d_7sort_byNCIB1f_ReEs0_0E0ECseI6s6vG8qtM_18build_script_build, symObjAddr: 0x1488, symBinAddr: 0x100003F80, symSize: 0x398 }
  - { offset: 0xB2FD, size: 0x8, addend: 0x0, symName: __RINvNtNtNtNtCsfvfooZQ3Axs_4core5slice4sort6stable9quicksort9quicksortNtNvCsgq90m4oCT4f_13phf_generator17try_generate_hash6BucketNCINvMNtCse1nGBsou5OW_5alloc5sliceSB15_7sort_byNCIB17_ReEs0_0E0ECseI6s6vG8qtM_18build_script_build, symObjAddr: 0x1820, symBinAddr: 0x100004318, symSize: 0x3B8 }
  - { offset: 0xB595, size: 0x8, addend: 0x0, symName: __RNCINvNtNtNtNtCsfvfooZQ3Axs_4core5slice4sort6stable9quicksort9quicksortNtNvCsgq90m4oCT4f_13phf_generator17try_generate_hash6BucketNCINvMNtCse1nGBsou5OW_5alloc5sliceSB17_7sort_byNCIB19_ReEs0_0E0E0CseI6s6vG8qtM_18build_script_build, symObjAddr: 0x1BD8, symBinAddr: 0x1000046D0, symSize: 0x48 }
  - { offset: 0xBDBF, size: 0x8, addend: 0x0, symName: __RNvNtNtNtNtCsfvfooZQ3Axs_4core9core_arch10arm_shared4neon9generated18vreinterpret_s8_u8CseI6s6vG8qtM_18build_script_build, symObjAddr: 0x1E18, symBinAddr: 0x100004910, symSize: 0xC }
  - { offset: 0xBDED, size: 0x8, addend: 0x0, symName: __RNvNtNtNtNtCsfvfooZQ3Axs_4core9core_arch10arm_shared4neon9generated19vreinterpret_u64_u8CseI6s6vG8qtM_18build_script_build, symObjAddr: 0x1E24, symBinAddr: 0x10000491C, symSize: 0xC }
  - { offset: 0xBE1B, size: 0x8, addend: 0x0, symName: __RNvNtNtNtNtCsfvfooZQ3Axs_4core9core_arch10arm_shared4neon9generated7vceq_u8CseI6s6vG8qtM_18build_script_build, symObjAddr: 0x1E30, symBinAddr: 0x100004928, symSize: 0x14 }
  - { offset: 0xBE58, size: 0x8, addend: 0x0, symName: __RNvNtNtNtNtCsfvfooZQ3Axs_4core9core_arch10arm_shared4neon9generated7vorr_u8CseI6s6vG8qtM_18build_script_build, symObjAddr: 0x1E44, symBinAddr: 0x10000493C, symSize: 0x14 }
  - { offset: 0xC3A2, size: 0x8, addend: 0x0, symName: __RNvMNtNtNtNtCsfvfooZQ3Axs_4core5slice4sort6stable9quicksortINtB2_14PartitionStateNtNvCsgq90m4oCT4f_13phf_generator17try_generate_hash6BucketE13partition_oneCseI6s6vG8qtM_18build_script_build, symObjAddr: 0x1C20, symBinAddr: 0x100004718, symSize: 0x130 }
  - { offset: 0xC4DE, size: 0x8, addend: 0x0, symName: __RNvNtNtNtNtCscOYdFFY2T5N_3std3sys3pal4unix2fs23debug_assert_fd_is_openCseI6s6vG8qtM_18build_script_build, symObjAddr: 0x1D50, symBinAddr: 0x100004848, symSize: 0xC8 }
  - { offset: 0xC56E, size: 0x8, addend: 0x0, symName: __RNvXs5_NtNtNtCscOYdFFY2T5N_3std2os2fd5ownedNtB5_7OwnedFdNtNtNtCsfvfooZQ3Axs_4core3ops4drop4Drop4dropCseI6s6vG8qtM_18build_script_build, symObjAddr: 0x1E58, symBinAddr: 0x100004950, symSize: 0x40 }
  - { offset: 0xC62A, size: 0x8, addend: 0x0, symName: __RINvMsi_NtCse1nGBsou5OW_5alloc3vecINtB6_3VecNtCsbvn0pgfta96_10phf_shared6HashesE14extend_trustedINtNtNtNtCsfvfooZQ3Axs_4core4iter8adapters3map3MapINtNtNtB1F_5slice4iter4IterReENCINvCsgq90m4oCT4f_13phf_generator17try_generate_hashB2L_E0EECseI6s6vG8qtM_18build_script_build, symObjAddr: 0x0, symBinAddr: 0x100004A10, symSize: 0x17C }
  - { offset: 0xF964, size: 0x8, addend: 0x0, symName: __RINvNtCse1nGBsou5OW_5alloc3vec9from_elemINtNtCsfvfooZQ3Axs_4core6option6OptionjEECseI6s6vG8qtM_18build_script_build, symObjAddr: 0x2EC, symBinAddr: 0x100004CFC, symSize: 0x28 }
  - { offset: 0xF9AA, size: 0x8, addend: 0x0, symName: __RINvNtCse1nGBsou5OW_5alloc3vec9from_elemTmmEECseI6s6vG8qtM_18build_script_build, symObjAddr: 0x314, symBinAddr: 0x100004D24, symSize: 0x28 }
  - { offset: 0xF9F0, size: 0x8, addend: 0x0, symName: __RINvNtCse1nGBsou5OW_5alloc3vec9from_elemyECseI6s6vG8qtM_18build_script_build, symObjAddr: 0x33C, symBinAddr: 0x100004D4C, symSize: 0x24 }
  - { offset: 0xFA3B, size: 0x8, addend: 0x0, symName: __RINvXsd_NtCse1nGBsou5OW_5alloc3vecINtB6_3VecNtCsbvn0pgfta96_10phf_shared6HashesEINtNtNtNtCsfvfooZQ3Axs_4core4iter6traits7collect12FromIteratorBG_E9from_iterINtNtNtB1n_8adapters3map3MapINtNtNtB1p_5slice4iter4IterReENCINvCsgq90m4oCT4f_13phf_generator17try_generate_hashB3n_E0EECseI6s6vG8qtM_18build_script_build, symObjAddr: 0x360, symBinAddr: 0x100004D70, symSize: 0x3C }
  - { offset: 0xFA7C, size: 0x8, addend: 0x0, symName: __RINvXsd_NtCse1nGBsou5OW_5alloc3vecINtB6_3VecNtNvCsgq90m4oCT4f_13phf_generator17try_generate_hash6BucketEINtNtNtNtCsfvfooZQ3Axs_4core4iter6traits7collect12FromIteratorBG_E9from_iterINtNtNtB1L_8adapters3map3MapINtNtNtB1N_3ops5range5RangejENCIBI_ReEs_0EECseI6s6vG8qtM_18build_script_build, symObjAddr: 0x39C, symBinAddr: 0x100004DAC, symSize: 0x38 }
  - { offset: 0xFABC, size: 0x8, addend: 0x0, symName: __RINvXsd_NtCse1nGBsou5OW_5alloc3vecINtB6_3VecjEINtNtNtNtCsfvfooZQ3Axs_4core4iter6traits7collect12FromIteratorjE9from_iterINtNtNtBP_8adapters3map3MapINtNtB6_9into_iter8IntoIterINtNtBR_6option6OptionjEENCINvCsgq90m4oCT4f_13phf_generator17try_generate_hashReEs1_0EECseI6s6vG8qtM_18build_script_build, symObjAddr: 0x3D4, symBinAddr: 0x100004DE4, symSize: 0x3C }
  - { offset: 0xFB08, size: 0x8, addend: 0x0, symName: __RNCINvMsi_NtCse1nGBsou5OW_5alloc3vecINtB8_3VecNtCsbvn0pgfta96_10phf_shared6HashesE14extend_trustedINtNtNtNtCsfvfooZQ3Axs_4core4iter8adapters3map3MapINtNtNtB1H_5slice4iter4IterReENCINvCsgq90m4oCT4f_13phf_generator17try_generate_hashB2N_E0EE0CseI6s6vG8qtM_18build_script_build, symObjAddr: 0x410, symBinAddr: 0x100004E20, symSize: 0x44 }
  - { offset: 0xFBB5, size: 0x8, addend: 0x0, symName: __RNCINvMsi_NtCse1nGBsou5OW_5alloc3vecINtB8_3VecNtNvCsgq90m4oCT4f_13phf_generator17try_generate_hash6BucketE14extend_trustedINtNtNtNtCsfvfooZQ3Axs_4core4iter8adapters3map3MapINtNtNtB25_3ops5range5RangejENCIBK_ReEs_0EE0CseI6s6vG8qtM_18build_script_build, symObjAddr: 0x454, symBinAddr: 0x100004E64, symSize: 0x3C }
  - { offset: 0x103E2, size: 0x8, addend: 0x0, symName: __RNvXNtNtCse1nGBsou5OW_5alloc3vec14spec_from_iterINtB4_3VecNtCsbvn0pgfta96_10phf_shared6HashesEINtB2_12SpecFromIterBU_INtNtNtNtCsfvfooZQ3Axs_4core4iter8adapters3map3MapINtNtNtB20_5slice4iter4IterReENCINvCsgq90m4oCT4f_13phf_generator17try_generate_hashB36_E0EE9from_iterCseI6s6vG8qtM_18build_script_build, symObjAddr: 0x1510, symBinAddr: 0x100005F20, symSize: 0x14 }
  - { offset: 0x10421, size: 0x8, addend: 0x0, symName: __RNvXNtNtCse1nGBsou5OW_5alloc3vec14spec_from_iterINtB4_3VecNtNvCsgq90m4oCT4f_13phf_generator17try_generate_hash6BucketEINtB2_12SpecFromIterBU_INtNtNtNtCsfvfooZQ3Axs_4core4iter8adapters3map3MapINtNtNtB2o_3ops5range5RangejENCIBW_ReEs_0EE9from_iterCseI6s6vG8qtM_18build_script_build, symObjAddr: 0x1524, symBinAddr: 0x100005F34, symSize: 0x24 }
  - { offset: 0x10466, size: 0x8, addend: 0x0, symName: __RNvXs6_NtCse1nGBsou5OW_5alloc3vecINtB5_3VecNtCsbvn0pgfta96_10phf_shared6HashesENtNtNtCsfvfooZQ3Axs_4core3ops5deref5Deref5derefCseI6s6vG8qtM_18build_script_build, symObjAddr: 0x1548, symBinAddr: 0x100005F58, symSize: 0x24 }
  - { offset: 0x104A6, size: 0x8, addend: 0x0, symName: __RNvXs6_NtCse1nGBsou5OW_5alloc3vecINtB5_3VecNtNtB7_6string6StringENtNtNtCsfvfooZQ3Axs_4core3ops5deref5Deref5derefCseI6s6vG8qtM_18build_script_build, symObjAddr: 0x156C, symBinAddr: 0x100005F7C, symSize: 0x24 }
  - { offset: 0x104E6, size: 0x8, addend: 0x0, symName: __RNvXs6_NtCse1nGBsou5OW_5alloc3vecINtB5_3VecReENtNtNtCsfvfooZQ3Axs_4core3ops5deref5Deref5derefCseI6s6vG8qtM_18build_script_build, symObjAddr: 0x1590, symBinAddr: 0x100005FA0, symSize: 0x24 }
  - { offset: 0x106AC, size: 0x8, addend: 0x0, symName: __RNvXs7_NtCse1nGBsou5OW_5alloc3vecINtB5_3VecNtNvCsgq90m4oCT4f_13phf_generator17try_generate_hash6BucketENtNtNtCsfvfooZQ3Axs_4core3ops5deref8DerefMut9deref_mutCseI6s6vG8qtM_18build_script_build, symObjAddr: 0x15B4, symBinAddr: 0x100005FC4, symSize: 0x24 }
  - { offset: 0x107B7, size: 0x8, addend: 0x0, symName: __RNvXs_NtNtCse1nGBsou5OW_5alloc3vec11spec_extendINtB6_3VecNtCsbvn0pgfta96_10phf_shared6HashesEINtB4_10SpecExtendBT_INtNtNtNtCsfvfooZQ3Axs_4core4iter8adapters3map3MapINtNtNtB1X_5slice4iter4IterReENCINvCsgq90m4oCT4f_13phf_generator17try_generate_hashB33_E0EE11spec_extendCseI6s6vG8qtM_18build_script_build, symObjAddr: 0x16EC, symBinAddr: 0x1000060FC, symSize: 0x24 }
  - { offset: 0x10809, size: 0x8, addend: 0x0, symName: __RNvXs_NtNtCse1nGBsou5OW_5alloc3vec11spec_extendINtB6_3VecNtNvCsgq90m4oCT4f_13phf_generator17try_generate_hash6BucketEINtB4_10SpecExtendBT_INtNtNtNtCsfvfooZQ3Axs_4core4iter8adapters3map3MapINtNtNtB2l_3ops5range5RangejENCIBV_ReEs_0EE11spec_extendCseI6s6vG8qtM_18build_script_build, symObjAddr: 0x1710, symBinAddr: 0x100006120, symSize: 0x2C }
  - { offset: 0x10866, size: 0x8, addend: 0x0, symName: __RNvXs_NtNtCse1nGBsou5OW_5alloc3vec16in_place_collectINtB6_3VecjEINtNtB6_14spec_from_iter12SpecFromIterjINtNtNtNtCsfvfooZQ3Axs_4core4iter8adapters3map3MapINtNtB6_9into_iter8IntoIterINtNtB1M_6option6OptionjEENCINvCsgq90m4oCT4f_13phf_generator17try_generate_hashReEs1_0EE9from_iterCseI6s6vG8qtM_18build_script_build, symObjAddr: 0x173C, symBinAddr: 0x10000614C, symSize: 0x28 }
  - { offset: 0x108CE, size: 0x8, addend: 0x0, symName: __RNvXs_NtNtCse1nGBsou5OW_5alloc3vec21spec_from_iter_nestedINtB6_3VecNtCsbvn0pgfta96_10phf_shared6HashesEINtB4_18SpecFromIterNestedB13_INtNtNtNtCsfvfooZQ3Axs_4core4iter8adapters3map3MapINtNtNtB2g_5slice4iter4IterReENCINvCsgq90m4oCT4f_13phf_generator17try_generate_hashB3m_E0EE9from_iterCseI6s6vG8qtM_18build_script_build, symObjAddr: 0x1764, symBinAddr: 0x100006174, symSize: 0x16C }
  - { offset: 0x109A5, size: 0x8, addend: 0x0, symName: __RNvXs_NtNtCse1nGBsou5OW_5alloc3vec21spec_from_iter_nestedINtB6_3VecNtNvCsgq90m4oCT4f_13phf_generator17try_generate_hash6BucketEINtB4_18SpecFromIterNestedB13_INtNtNtNtCsfvfooZQ3Axs_4core4iter8adapters3map3MapINtNtNtB2E_3ops5range5RangejENCIB15_ReEs_0EE9from_iterCseI6s6vG8qtM_18build_script_build, symObjAddr: 0x18D0, symBinAddr: 0x1000062E0, symSize: 0x168 }
  - { offset: 0x10A82, size: 0x8, addend: 0x0, symName: __RNvXsb_NtCse1nGBsou5OW_5alloc3vecINtB5_3VecINtNtCsfvfooZQ3Axs_4core6option6OptionjEEINtNtNtBK_3ops5index5IndexjE5indexCseI6s6vG8qtM_18build_script_build, symObjAddr: 0x1A38, symBinAddr: 0x100006448, symSize: 0x84 }
  - { offset: 0x10C04, size: 0x8, addend: 0x0, symName: __RNvXsb_NtCse1nGBsou5OW_5alloc3vecINtB5_3VecNtCsbvn0pgfta96_10phf_shared6HashesEINtNtNtCsfvfooZQ3Axs_4core3ops5index5IndexjE5indexCseI6s6vG8qtM_18build_script_build, symObjAddr: 0x1ABC, symBinAddr: 0x1000064CC, symSize: 0x84 }
  - { offset: 0x10D86, size: 0x8, addend: 0x0, symName: __RNvXsb_NtCse1nGBsou5OW_5alloc3vecINtB5_3VecyEINtNtNtCsfvfooZQ3Axs_4core3ops5index5IndexjE5indexCseI6s6vG8qtM_18build_script_build, symObjAddr: 0x1B40, symBinAddr: 0x100006550, symSize: 0x80 }
  - { offset: 0x10F0E, size: 0x8, addend: 0x0, symName: __RNvXsc_NtCse1nGBsou5OW_5alloc3vecINtB5_3VecINtNtCsfvfooZQ3Axs_4core6option6OptionjEEINtNtNtBK_3ops5index8IndexMutjE9index_mutCseI6s6vG8qtM_18build_script_build, symObjAddr: 0x1BC0, symBinAddr: 0x1000065D0, symSize: 0x84 }
  - { offset: 0x11062, size: 0x8, addend: 0x0, symName: __RNvXsc_NtCse1nGBsou5OW_5alloc3vecINtB5_3VecNtNvCsgq90m4oCT4f_13phf_generator17try_generate_hash6BucketEINtNtNtCsfvfooZQ3Axs_4core3ops5index8IndexMutjE9index_mutCseI6s6vG8qtM_18build_script_build, symObjAddr: 0x1C44, symBinAddr: 0x100006654, symSize: 0x84 }
  - { offset: 0x111B6, size: 0x8, addend: 0x0, symName: __RNvXsc_NtCse1nGBsou5OW_5alloc3vecINtB5_3VecTmmEEINtNtNtCsfvfooZQ3Axs_4core3ops5index8IndexMutjE9index_mutCseI6s6vG8qtM_18build_script_build, symObjAddr: 0x1CC8, symBinAddr: 0x1000066D8, symSize: 0x84 }
  - { offset: 0x1130A, size: 0x8, addend: 0x0, symName: __RNvXsc_NtCse1nGBsou5OW_5alloc3vecINtB5_3VecyEINtNtNtCsfvfooZQ3Axs_4core3ops5index8IndexMutjE9index_mutCseI6s6vG8qtM_18build_script_build, symObjAddr: 0x1D4C, symBinAddr: 0x10000675C, symSize: 0x80 }
  - { offset: 0x11464, size: 0x8, addend: 0x0, symName: __RNvXse_NtCse1nGBsou5OW_5alloc3vecINtB5_3VecINtNtCsfvfooZQ3Axs_4core6option6OptionjEENtNtNtNtBK_4iter6traits7collect12IntoIterator9into_iterCseI6s6vG8qtM_18build_script_build, symObjAddr: 0x1DCC, symBinAddr: 0x1000067DC, symSize: 0xDC }
  - { offset: 0x116FC, size: 0x8, addend: 0x0, symName: __RNvXsf_NtCse1nGBsou5OW_5alloc3vecRINtB5_3VecNtNvCsgq90m4oCT4f_13phf_generator17try_generate_hash6BucketENtNtNtNtCsfvfooZQ3Axs_4core4iter6traits7collect12IntoIterator9into_iterCseI6s6vG8qtM_18build_script_build, symObjAddr: 0x1EA8, symBinAddr: 0x1000068B8, symSize: 0x9C }
  - { offset: 0x11958, size: 0x8, addend: 0x0, symName: __RNvXsf_NtCse1nGBsou5OW_5alloc3vecRINtB5_3VecReENtNtNtNtCsfvfooZQ3Axs_4core4iter6traits7collect12IntoIterator9into_iterCseI6s6vG8qtM_18build_script_build, symObjAddr: 0x1F44, symBinAddr: 0x100006954, symSize: 0x9C }
  - { offset: 0x11BB4, size: 0x8, addend: 0x0, symName: __RNvXsf_NtCse1nGBsou5OW_5alloc3vecRINtB5_3VecTjjEENtNtNtNtCsfvfooZQ3Axs_4core4iter6traits7collect12IntoIterator9into_iterCseI6s6vG8qtM_18build_script_build, symObjAddr: 0x1FE0, symBinAddr: 0x1000069F0, symSize: 0x9C }
  - { offset: 0x11E10, size: 0x8, addend: 0x0, symName: __RNvXsf_NtCse1nGBsou5OW_5alloc3vecRINtB5_3VecTmmEENtNtNtNtCsfvfooZQ3Axs_4core4iter6traits7collect12IntoIterator9into_iterCseI6s6vG8qtM_18build_script_build, symObjAddr: 0x207C, symBinAddr: 0x100006A8C, symSize: 0x9C }
  - { offset: 0x1206C, size: 0x8, addend: 0x0, symName: __RNvXsf_NtCse1nGBsou5OW_5alloc3vecRINtB5_3VecjENtNtNtNtCsfvfooZQ3Axs_4core4iter6traits7collect12IntoIterator9into_iterCseI6s6vG8qtM_18build_script_build, symObjAddr: 0x2118, symBinAddr: 0x100006B28, symSize: 0x98 }
  - { offset: 0x122CE, size: 0x8, addend: 0x0, symName: __RNvXsn_NtCse1nGBsou5OW_5alloc3vecINtB5_3VecINtNtCsfvfooZQ3Axs_4core6option6OptionjEENtNtNtBK_3ops4drop4Drop4dropCseI6s6vG8qtM_18build_script_build, symObjAddr: 0x21B0, symBinAddr: 0x100006BC0, symSize: 0x24 }
  - { offset: 0x1237E, size: 0x8, addend: 0x0, symName: __RNvXsn_NtCse1nGBsou5OW_5alloc3vecINtB5_3VecNtCsbvn0pgfta96_10phf_shared6HashesENtNtNtCsfvfooZQ3Axs_4core3ops4drop4Drop4dropCseI6s6vG8qtM_18build_script_build, symObjAddr: 0x21D4, symBinAddr: 0x100006BE4, symSize: 0x24 }
  - { offset: 0x1242E, size: 0x8, addend: 0x0, symName: __RNvXsn_NtCse1nGBsou5OW_5alloc3vecINtB5_3VecNtNtB7_6string6StringENtNtNtCsfvfooZQ3Axs_4core3ops4drop4Drop4dropCseI6s6vG8qtM_18build_script_build, symObjAddr: 0x21F8, symBinAddr: 0x100006C08, symSize: 0x38 }
  - { offset: 0x124DE, size: 0x8, addend: 0x0, symName: __RNvXsn_NtCse1nGBsou5OW_5alloc3vecINtB5_3VecNtNvCsgq90m4oCT4f_13phf_generator17try_generate_hash6BucketENtNtNtCsfvfooZQ3Axs_4core3ops4drop4Drop4dropCseI6s6vG8qtM_18build_script_build, symObjAddr: 0x2230, symBinAddr: 0x100006C40, symSize: 0x38 }
  - { offset: 0x1258E, size: 0x8, addend: 0x0, symName: __RNvXsn_NtCse1nGBsou5OW_5alloc3vecINtB5_3VecReENtNtNtCsfvfooZQ3Axs_4core3ops4drop4Drop4dropCseI6s6vG8qtM_18build_script_build, symObjAddr: 0x2268, symBinAddr: 0x100006C78, symSize: 0x24 }
  - { offset: 0x1263E, size: 0x8, addend: 0x0, symName: __RNvXsn_NtCse1nGBsou5OW_5alloc3vecINtB5_3VecTjjEENtNtNtCsfvfooZQ3Axs_4core3ops4drop4Drop4dropCseI6s6vG8qtM_18build_script_build, symObjAddr: 0x228C, symBinAddr: 0x100006C9C, symSize: 0x24 }
  - { offset: 0x126EE, size: 0x8, addend: 0x0, symName: __RNvXsn_NtCse1nGBsou5OW_5alloc3vecINtB5_3VecTmmEENtNtNtCsfvfooZQ3Axs_4core3ops4drop4Drop4dropCseI6s6vG8qtM_18build_script_build, symObjAddr: 0x22B0, symBinAddr: 0x100006CC0, symSize: 0x24 }
  - { offset: 0x1279E, size: 0x8, addend: 0x0, symName: __RNvXsn_NtCse1nGBsou5OW_5alloc3vecINtB5_3VecjENtNtNtCsfvfooZQ3Axs_4core3ops4drop4Drop4dropCseI6s6vG8qtM_18build_script_build, symObjAddr: 0x22D4, symBinAddr: 0x100006CE4, symSize: 0x24 }
  - { offset: 0x1284E, size: 0x8, addend: 0x0, symName: __RNvXsn_NtCse1nGBsou5OW_5alloc3vecINtB5_3VecyENtNtNtCsfvfooZQ3Axs_4core3ops4drop4Drop4dropCseI6s6vG8qtM_18build_script_build, symObjAddr: 0x22F8, symBinAddr: 0x100006D08, symSize: 0x24 }
  - { offset: 0x1298E, size: 0x8, addend: 0x0, symName: __RNvXs8_NtCse1nGBsou5OW_5alloc5sliceINtNtB7_3vec3VecNtNvCsgq90m4oCT4f_13phf_generator17try_generate_hash6BucketEINtNtNtNtCsfvfooZQ3Axs_4core5slice4sort6stable8BufGuardBN_E13with_capacityCseI6s6vG8qtM_18build_script_build, symObjAddr: 0x15D8, symBinAddr: 0x100005FE8, symSize: 0x4C }
  - { offset: 0x12A2F, size: 0x8, addend: 0x0, symName: __RNvXs8_NtCse1nGBsou5OW_5alloc5sliceINtNtB7_3vec3VecNtNvCsgq90m4oCT4f_13phf_generator17try_generate_hash6BucketEINtNtNtNtCsfvfooZQ3Axs_4core5slice4sort6stable8BufGuardBN_E19as_uninit_slice_mutCseI6s6vG8qtM_18build_script_build, symObjAddr: 0x1624, symBinAddr: 0x100006034, symSize: 0xC8 }
  - { offset: 0x12D50, size: 0x8, addend: 0x0, symName: __RINvMsi_NtCse1nGBsou5OW_5alloc3vecINtB6_3VecNtCsbvn0pgfta96_10phf_shared6HashesE14extend_trustedINtNtNtNtCsfvfooZQ3Axs_4core4iter8adapters3map3MapINtNtNtB1F_5slice4iter4IterReENCINvCsgq90m4oCT4f_13phf_generator17try_generate_hashB2L_E0EECseI6s6vG8qtM_18build_script_build, symObjAddr: 0x0, symBinAddr: 0x100004A10, symSize: 0x17C }
  - { offset: 0x13022, size: 0x8, addend: 0x0, symName: __RINvMsi_NtCse1nGBsou5OW_5alloc3vecINtB6_3VecNtNvCsgq90m4oCT4f_13phf_generator17try_generate_hash6BucketE14extend_trustedINtNtNtNtCsfvfooZQ3Axs_4core4iter8adapters3map3MapINtNtNtB23_3ops5range5RangejENCIBI_ReEs_0EECseI6s6vG8qtM_18build_script_build, symObjAddr: 0x17C, symBinAddr: 0x100004B8C, symSize: 0x170 }
  - { offset: 0x1322B, size: 0x8, addend: 0x0, symName: __RNvMNtCse1nGBsou5OW_5alloc3vecINtB2_3VecNtNtB4_6string6StringE3newCseI6s6vG8qtM_18build_script_build, symObjAddr: 0x490, symBinAddr: 0x100004EA0, symSize: 0x14 }
  - { offset: 0x13248, size: 0x8, addend: 0x0, symName: __RNvMNtCse1nGBsou5OW_5alloc3vecINtB2_3VecReE3newCseI6s6vG8qtM_18build_script_build, symObjAddr: 0x4A4, symBinAddr: 0x100004EB4, symSize: 0x14 }
  - { offset: 0x13283, size: 0x8, addend: 0x0, symName: __RNvMNtCse1nGBsou5OW_5alloc3vecINtB2_3VecTjjEE3newCseI6s6vG8qtM_18build_script_build, symObjAddr: 0x4B8, symBinAddr: 0x100004EC8, symSize: 0x14 }
  - { offset: 0x132A0, size: 0x8, addend: 0x0, symName: __RNvMNtCse1nGBsou5OW_5alloc3vecINtB2_3VecjE3newCseI6s6vG8qtM_18build_script_build, symObjAddr: 0x4CC, symBinAddr: 0x100004EDC, symSize: 0x14 }
  - { offset: 0x133F4, size: 0x8, addend: 0x0, symName: __RNvMs2_NtCse1nGBsou5OW_5alloc3vecINtB5_3VecINtNtCsfvfooZQ3Axs_4core6option6OptionjEE11extend_withCseI6s6vG8qtM_18build_script_build, symObjAddr: 0x4E0, symBinAddr: 0x100004EF0, symSize: 0x22C }
  - { offset: 0x137AE, size: 0x8, addend: 0x0, symName: __RNvMs2_NtCse1nGBsou5OW_5alloc3vecINtB5_3VecTmmEE11extend_withCseI6s6vG8qtM_18build_script_build, symObjAddr: 0x70C, symBinAddr: 0x10000511C, symSize: 0x22C }
  - { offset: 0x13B48, size: 0x8, addend: 0x0, symName: __RNvMs2_NtCse1nGBsou5OW_5alloc3vecINtB5_3VecyE11extend_withCseI6s6vG8qtM_18build_script_build, symObjAddr: 0x938, symBinAddr: 0x100005348, symSize: 0x210 }
  - { offset: 0x13F1A, size: 0x8, addend: 0x0, symName: __RNvMs_NtCse1nGBsou5OW_5alloc3vecINtB4_3VecINtNtCsfvfooZQ3Axs_4core6option6OptionjEE7reserveCseI6s6vG8qtM_18build_script_build, symObjAddr: 0xB48, symBinAddr: 0x100005558, symSize: 0xC8 }
  - { offset: 0x1408E, size: 0x8, addend: 0x0, symName: __RNvMs_NtCse1nGBsou5OW_5alloc3vecINtB4_3VecNtCsbvn0pgfta96_10phf_shared6HashesE3lenCseI6s6vG8qtM_18build_script_build, symObjAddr: 0xC10, symBinAddr: 0x100005620, symSize: 0x18 }
  - { offset: 0x141D9, size: 0x8, addend: 0x0, symName: __RNvMs_NtCse1nGBsou5OW_5alloc3vecINtB4_3VecNtCsbvn0pgfta96_10phf_shared6HashesE7reserveCseI6s6vG8qtM_18build_script_build, symObjAddr: 0xC28, symBinAddr: 0x100005638, symSize: 0xC8 }
  - { offset: 0x143D7, size: 0x8, addend: 0x0, symName: __RNvMs_NtCse1nGBsou5OW_5alloc3vecINtB4_3VecNtCsbvn0pgfta96_10phf_shared6HashesE8as_sliceCseI6s6vG8qtM_18build_script_build, symObjAddr: 0xCF0, symBinAddr: 0x100005700, symSize: 0x64 }
  - { offset: 0x145A4, size: 0x8, addend: 0x0, symName: __RNvMs_NtCse1nGBsou5OW_5alloc3vecINtB4_3VecNtNtB6_6string6StringE4pushCseI6s6vG8qtM_18build_script_build, symObjAddr: 0xD54, symBinAddr: 0x100005764, symSize: 0x108 }
  - { offset: 0x147FC, size: 0x8, addend: 0x0, symName: __RNvMs_NtCse1nGBsou5OW_5alloc3vecINtB4_3VecNtNtB6_6string6StringE8as_sliceCseI6s6vG8qtM_18build_script_build, symObjAddr: 0xE5C, symBinAddr: 0x10000586C, symSize: 0x64 }
  - { offset: 0x1495D, size: 0x8, addend: 0x0, symName: __RNvMs_NtCse1nGBsou5OW_5alloc3vecINtB4_3VecNtNvCsgq90m4oCT4f_13phf_generator17try_generate_hash6BucketE12as_mut_sliceCseI6s6vG8qtM_18build_script_build, symObjAddr: 0xEC0, symBinAddr: 0x1000058D0, symSize: 0x64 }
  - { offset: 0x14B42, size: 0x8, addend: 0x0, symName: __RNvMs_NtCse1nGBsou5OW_5alloc3vecINtB4_3VecNtNvCsgq90m4oCT4f_13phf_generator17try_generate_hash6BucketE7reserveCseI6s6vG8qtM_18build_script_build, symObjAddr: 0xF24, symBinAddr: 0x100005934, symSize: 0xC8 }
  - { offset: 0x14DAF, size: 0x8, addend: 0x0, symName: __RNvMs_NtCse1nGBsou5OW_5alloc3vecINtB4_3VecReE4pushCseI6s6vG8qtM_18build_script_build, symObjAddr: 0xFEC, symBinAddr: 0x1000059FC, symSize: 0xF4 }
  - { offset: 0x14FDF, size: 0x8, addend: 0x0, symName: __RNvMs_NtCse1nGBsou5OW_5alloc3vecINtB4_3VecReE8as_sliceCseI6s6vG8qtM_18build_script_build, symObjAddr: 0x10E0, symBinAddr: 0x100005AF0, symSize: 0x64 }
  - { offset: 0x151AC, size: 0x8, addend: 0x0, symName: __RNvMs_NtCse1nGBsou5OW_5alloc3vecINtB4_3VecTjjEE4pushCseI6s6vG8qtM_18build_script_build, symObjAddr: 0x1144, symBinAddr: 0x100005B54, symSize: 0xF0 }
  - { offset: 0x15449, size: 0x8, addend: 0x0, symName: __RNvMs_NtCse1nGBsou5OW_5alloc3vecINtB4_3VecTjjEE5clearCseI6s6vG8qtM_18build_script_build, symObjAddr: 0x1234, symBinAddr: 0x100005C44, symSize: 0x78 }
  - { offset: 0x156A4, size: 0x8, addend: 0x0, symName: __RNvMs_NtCse1nGBsou5OW_5alloc3vecINtB4_3VecTmmEE7reserveCseI6s6vG8qtM_18build_script_build, symObjAddr: 0x12AC, symBinAddr: 0x100005CBC, symSize: 0xC8 }
  - { offset: 0x1591E, size: 0x8, addend: 0x0, symName: __RNvMs_NtCse1nGBsou5OW_5alloc3vecINtB4_3VecjE4pushCseI6s6vG8qtM_18build_script_build, symObjAddr: 0x1374, symBinAddr: 0x100005D84, symSize: 0xE0 }
  - { offset: 0x15BE6, size: 0x8, addend: 0x0, symName: __RNvMs_NtCse1nGBsou5OW_5alloc3vecINtB4_3VecyE7reserveCseI6s6vG8qtM_18build_script_build, symObjAddr: 0x1454, symBinAddr: 0x100005E64, symSize: 0xBC }
  - { offset: 0x17339, size: 0x8, addend: 0x0, symName: __RINvMNtNtNtNtCsfvfooZQ3Axs_4core5slice4sort6stable5mergeINtB3_10MergeStateNtNvCsgq90m4oCT4f_13phf_generator17try_generate_hash6BucketE10merge_downNCINvMNtCse1nGBsou5OW_5alloc5sliceSB1a_7sort_byNCIB1c_ReEs0_0E0ECseI6s6vG8qtM_18build_script_build, symObjAddr: 0x0, symBinAddr: 0x100006D2C, symSize: 0x1D4 }
  - { offset: 0x17370, size: 0x8, addend: 0x0, symName: __RNCINvNtCscOYdFFY2T5N_3std2rt10lang_startuE0CseI6s6vG8qtM_18build_script_build, symObjAddr: 0xEC4, symBinAddr: 0x100007B78, symSize: 0x34 }
  - { offset: 0x173DA, size: 0x8, addend: 0x0, symName: __RINvNtCscOYdFFY2T5N_3std2rt10lang_startuECseI6s6vG8qtM_18build_script_build, symObjAddr: 0x40C, symBinAddr: 0x100007138, symSize: 0x60 }
  - { offset: 0x17478, size: 0x8, addend: 0x0, symName: __RNvXNvNtNtCscOYdFFY2T5N_3std2io5Write9write_fmtINtB2_7AdapterINtNtNtB6_8buffered9bufwriter9BufWriterNtNtB8_2fs4FileEENtNtCsfvfooZQ3Axs_4core3fmt5Write9write_strCseI6s6vG8qtM_18build_script_build, symObjAddr: 0x1C30, symBinAddr: 0x1000088E0, symSize: 0xB8 }
  - { offset: 0x178DA, size: 0x8, addend: 0x0, symName: __RNvXs1d_NtCscOYdFFY2T5N_3std4pathNtB6_4PathINtNtCsfvfooZQ3Axs_4core7convert5AsRefBv_E6as_refCseI6s6vG8qtM_18build_script_build, symObjAddr: 0x1D18, symBinAddr: 0x1000089C8, symSize: 0x18 }
  - { offset: 0x1790E, size: 0x8, addend: 0x0, symName: __RNvXs1h_NtCscOYdFFY2T5N_3std4patheINtNtCsfvfooZQ3Axs_4core7convert5AsRefNtB6_4PathE6as_refCseI6s6vG8qtM_18build_script_build, symObjAddr: 0x1D30, symBinAddr: 0x1000089E0, symSize: 0x18 }
  - { offset: 0x17966, size: 0x8, addend: 0x0, symName: __RNvXs1j_NtCscOYdFFY2T5N_3std4pathNtB6_7PathBufINtNtCsfvfooZQ3Axs_4core7convert5AsRefNtB6_4PathE6as_refCseI6s6vG8qtM_18build_script_build, symObjAddr: 0x1D48, symBinAddr: 0x1000089F8, symSize: 0x34 }
  - { offset: 0x17B3D, size: 0x8, addend: 0x0, symName: __RNvMs7_NtCsfvfooZQ3Axs_4core3numy13from_le_bytesCseI6s6vG8qtM_18build_script_build, symObjAddr: 0x1038, symBinAddr: 0x100007CEC, symSize: 0x1C }
  - { offset: 0x17C09, size: 0x8, addend: 0x0, symName: __RNvNvMs9_NtCsfvfooZQ3Axs_4core3numj13unchecked_add18precondition_checkCseI6s6vG8qtM_18build_script_build, symObjAddr: 0x1744, symBinAddr: 0x1000083F4, symSize: 0x44 }
  - { offset: 0x17C95, size: 0x8, addend: 0x0, symName: __RNvNvMs9_NtCsfvfooZQ3Axs_4core3numj13unchecked_mul18precondition_checkCseI6s6vG8qtM_18build_script_build, symObjAddr: 0x1788, symBinAddr: 0x100008438, symSize: 0x40 }
  - { offset: 0x1802F, size: 0x8, addend: 0x0, symName: __RNvNvMNtNtCsfvfooZQ3Axs_4core3ptr9const_ptrPp7sub_ptr18precondition_checkCseI6s6vG8qtM_18build_script_build, symObjAddr: 0x1704, symBinAddr: 0x1000083B4, symSize: 0x40 }
  - { offset: 0x18594, size: 0x8, addend: 0x0, symName: __RNvXs_NvNtNtCsfvfooZQ3Axs_4core3fmt5Write9write_fmtQINtNvNtNtCscOYdFFY2T5N_3std2io5Write9write_fmt7AdapterINtNtNtBV_8buffered9bufwriter9BufWriterNtNtBX_2fs4FileEENtB4_12SpecWriteFmt14spec_write_fmtCseI6s6vG8qtM_18build_script_build, symObjAddr: 0x2088, symBinAddr: 0x100008D38, symSize: 0x164 }
  - { offset: 0x18643, size: 0x8, addend: 0x0, symName: __RNvYINtNvNtNtCscOYdFFY2T5N_3std2io5Write9write_fmt7AdapterINtNtNtB9_8buffered9bufwriter9BufWriterNtNtBb_2fs4FileEENtNtCsfvfooZQ3Axs_4core3fmt5Write10write_charCseI6s6vG8qtM_18build_script_build, symObjAddr: 0x2D34, symBinAddr: 0x1000099E4, symSize: 0x70 }
  - { offset: 0x186AB, size: 0x8, addend: 0x0, symName: __RNvYINtNvNtNtCscOYdFFY2T5N_3std2io5Write9write_fmt7AdapterINtNtNtB9_8buffered9bufwriter9BufWriterNtNtBb_2fs4FileEENtNtCsfvfooZQ3Axs_4core3fmt5Write9write_fmtCseI6s6vG8qtM_18build_script_build, symObjAddr: 0x2DA4, symBinAddr: 0x100009A54, symSize: 0x24 }
  - { offset: 0x18751, size: 0x8, addend: 0x0, symName: __RNvXs7_NtNtCsfvfooZQ3Axs_4core3cmp5implsRReNtB7_9PartialEq2eqCseI6s6vG8qtM_18build_script_build, symObjAddr: 0x1DD8, symBinAddr: 0x100008A88, symSize: 0x34 }
  - { offset: 0x187A0, size: 0x8, addend: 0x0, symName: __RNvXs7_NtNtCsfvfooZQ3Axs_4core3cmp5implsReNtB7_9PartialEq2eqCseI6s6vG8qtM_18build_script_build, symObjAddr: 0x1E0C, symBinAddr: 0x100008ABC, symSize: 0x44 }
  - { offset: 0x187F5, size: 0x8, addend: 0x0, symName: __RNvXsV_NtNtCsfvfooZQ3Axs_4core3cmp5implsjNtB7_3Ord3cmpCseI6s6vG8qtM_18build_script_build, symObjAddr: 0x1E90, symBinAddr: 0x100008B40, symSize: 0x38 }
  - { offset: 0x1892D, size: 0x8, addend: 0x0, symName: __RNvNvNtCsfvfooZQ3Axs_4core10intrinsics19copy_nonoverlapping18precondition_checkCseI6s6vG8qtM_18build_script_build, symObjAddr: 0x17C8, symBinAddr: 0x100008478, symSize: 0x2E4 }
  - { offset: 0x18C8F, size: 0x8, addend: 0x0, symName: __RINvNtNtNtNtCsfvfooZQ3Axs_4core5slice4sort6stable5merge5mergeNtNvCsgq90m4oCT4f_13phf_generator17try_generate_hash6BucketNCINvMNtCse1nGBsou5OW_5alloc5sliceSBX_7sort_byNCIBZ_ReEs0_0E0ECseI6s6vG8qtM_18build_script_build, symObjAddr: 0x8A8, symBinAddr: 0x10000755C, symSize: 0x2F8 }
  - { offset: 0x18EF9, size: 0x8, addend: 0x0, symName: __RNvXs_NtNtNtNtCsfvfooZQ3Axs_4core5slice4sort6stable5mergeINtB4_10MergeStateNtNvCsgq90m4oCT4f_13phf_generator17try_generate_hash6BucketENtNtNtBc_3ops4drop4Drop4dropCseI6s6vG8qtM_18build_script_build, symObjAddr: 0x1FA8, symBinAddr: 0x100008C58, symSize: 0xE0 }
  - { offset: 0x19071, size: 0x8, addend: 0x0, symName: __RINvNtNtNtNtCsfvfooZQ3Axs_4core5slice4sort6shared5pivot11median3_recNtNvCsgq90m4oCT4f_13phf_generator17try_generate_hash6BucketNCINvMNtCse1nGBsou5OW_5alloc5sliceSB14_7sort_byNCIB16_ReEs0_0E0ECseI6s6vG8qtM_18build_script_build, symObjAddr: 0x4E4, symBinAddr: 0x100007198, symSize: 0x1CC }
  - { offset: 0x1926B, size: 0x8, addend: 0x0, symName: __RINvNtNtNtNtCsfvfooZQ3Axs_4core5slice4sort6shared5pivot12choose_pivotNtNvCsgq90m4oCT4f_13phf_generator17try_generate_hash6BucketNCINvMNtCse1nGBsou5OW_5alloc5sliceSB15_7sort_byNCIB17_ReEs0_0E0ECseI6s6vG8qtM_18build_script_build, symObjAddr: 0x6B0, symBinAddr: 0x100007364, symSize: 0x1F8 }
  - { offset: 0x197E1, size: 0x8, addend: 0x0, symName: __RINvXs0_NtNtCsfvfooZQ3Axs_4core4hash5implseNtB8_4Hash4hashNtNtNtCscOYdFFY2T5N_3std4hash6random13DefaultHasherECseI6s6vG8qtM_18build_script_build, symObjAddr: 0xBA0, symBinAddr: 0x100007854, symSize: 0x48 }
  - { offset: 0x19829, size: 0x8, addend: 0x0, symName: __RINvXs3_NtNtCsfvfooZQ3Axs_4core4hash5implsRRReNtB8_4Hash4hashNtNtNtCscOYdFFY2T5N_3std4hash6random13DefaultHasherECseI6s6vG8qtM_18build_script_build, symObjAddr: 0xBE8, symBinAddr: 0x10000789C, symSize: 0x30 }
  - { offset: 0x19874, size: 0x8, addend: 0x0, symName: __RINvXs3_NtNtCsfvfooZQ3Axs_4core4hash5implsRReNtB8_4Hash4hashNtNtNtCscOYdFFY2T5N_3std4hash6random13DefaultHasherECseI6s6vG8qtM_18build_script_build, symObjAddr: 0xC18, symBinAddr: 0x1000078CC, symSize: 0x30 }
  - { offset: 0x198BF, size: 0x8, addend: 0x0, symName: __RINvXs3_NtNtCsfvfooZQ3Axs_4core4hash5implsReNtB8_4Hash4hashNtNtNtCscOYdFFY2T5N_3std4hash6random13DefaultHasherECseI6s6vG8qtM_18build_script_build, symObjAddr: 0xC48, symBinAddr: 0x1000078FC, symSize: 0x3C }
  - { offset: 0x19B09, size: 0x8, addend: 0x0, symName: __RNvXs1_NtNtNtCsfvfooZQ3Axs_4core3ops8function5implsQNtNtBb_3str10IsNotEmptyINtB7_5FnMutTRReEE8call_mutCseI6s6vG8qtM_18build_script_build, symObjAddr: 0x1CE8, symBinAddr: 0x100008998, symSize: 0x30 }
  - { offset: 0x19E13, size: 0x8, addend: 0x0, symName: __RINvYINtNtNtCsg10Tkzhqh8d_4rand13distributions12distribution8DistIterNtB8_8StandardNtNtNtBa_4rngs5small8SmallRngyENtNtNtNtCsfvfooZQ3Axs_4core4iter6traits8iterator8Iterator8find_mapNtCsgq90m4oCT4f_13phf_generator9HashStateNCINvB2U_13generate_hashReE0ECseI6s6vG8qtM_18build_script_build, symObjAddr: 0xC84, symBinAddr: 0x100007938, symSize: 0xB4 }
  - { offset: 0x19E98, size: 0x8, addend: 0x0, symName: __RINvYINtNtNtCsg10Tkzhqh8d_4rand13distributions12distribution8DistIterNtB8_8StandardNtNtNtBa_4rngs5small8SmallRngyENtNtNtNtCsfvfooZQ3Axs_4core4iter6traits8iterator8Iterator8try_folduNCINvNvB1O_8find_map5checkyNtCsgq90m4oCT4f_13phf_generator9HashStateNCINvB3m_13generate_hashReE0E0INtNtNtB1W_3ops12control_flow11ControlFlowB3k_EECseI6s6vG8qtM_18build_script_build, symObjAddr: 0xD38, symBinAddr: 0x1000079EC, symSize: 0x18C }
  - { offset: 0x1A0DD, size: 0x8, addend: 0x0, symName: __RNvXs3_NtNtCsfvfooZQ3Axs_4core3str7patternNtB7_12IsWhitespaceNtB5_11MultiCharEq7matchesCseI6s6vG8qtM_18build_script_build, symObjAddr: 0x1DB0, symBinAddr: 0x100008A60, symSize: 0x28 }
  - { offset: 0x1A223, size: 0x8, addend: 0x0, symName: __RNvMNtCsfvfooZQ3Axs_4core3stre16split_whitespaceCseI6s6vG8qtM_18build_script_build, symObjAddr: 0xEF8, symBinAddr: 0x100007BAC, symSize: 0xCC }
  - { offset: 0x1A2D9, size: 0x8, addend: 0x0, symName: __RNvMNtCsfvfooZQ3Axs_4core3stre5charsCseI6s6vG8qtM_18build_script_build, symObjAddr: 0xFC4, symBinAddr: 0x100007C78, symSize: 0x20 }
  - { offset: 0x1A365, size: 0x8, addend: 0x0, symName: __RNvXsf_NtCsfvfooZQ3Axs_4core3strNtB5_12IsWhitespaceINtNtNtB7_3ops8function2FnTcEE4callCseI6s6vG8qtM_18build_script_build, symObjAddr: 0x2C30, symBinAddr: 0x1000098E0, symSize: 0x2C }
  - { offset: 0x1A3BE, size: 0x8, addend: 0x0, symName: __RNvXsg_NtCsfvfooZQ3Axs_4core3strNtB5_12IsWhitespaceINtNtNtB7_3ops8function5FnMutTcEE8call_mutCseI6s6vG8qtM_18build_script_build, symObjAddr: 0x2C5C, symBinAddr: 0x10000990C, symSize: 0x30 }
  - { offset: 0x1A417, size: 0x8, addend: 0x0, symName: __RNvXsl_NtCsfvfooZQ3Axs_4core3strNtB5_10IsNotEmptyINtNtNtB7_3ops8function2FnTRReEE4callCseI6s6vG8qtM_18build_script_build, symObjAddr: 0x2C8C, symBinAddr: 0x10000993C, symSize: 0x24 }
  - { offset: 0x1A468, size: 0x8, addend: 0x0, symName: __RNvXsm_NtCsfvfooZQ3Axs_4core3strNtB5_10IsNotEmptyINtNtNtB7_3ops8function5FnMutTRReEE8call_mutCseI6s6vG8qtM_18build_script_build, symObjAddr: 0x2CB0, symBinAddr: 0x100009960, symSize: 0x30 }
  - { offset: 0x1A4C7, size: 0x8, addend: 0x0, symName: __RNvXNtCsfvfooZQ3Axs_4core7convertRNtNtCscOYdFFY2T5N_3std4path4PathINtB2_5AsRefBw_E6as_refCseI6s6vG8qtM_18build_script_build, symObjAddr: 0x1AAC, symBinAddr: 0x10000875C, symSize: 0x30 }
  - { offset: 0x1A507, size: 0x8, addend: 0x0, symName: __RNvXNtCsfvfooZQ3Axs_4core7convertRNtNtCscOYdFFY2T5N_3std4path7PathBufINtB2_5AsRefNtBy_4PathE6as_refCseI6s6vG8qtM_18build_script_build, symObjAddr: 0x1ADC, symBinAddr: 0x10000878C, symSize: 0x28 }
  - { offset: 0x1A547, size: 0x8, addend: 0x0, symName: __RNvXNtCsfvfooZQ3Axs_4core7convertReINtB2_5AsRefNtNtCscOYdFFY2T5N_3std4path4PathE6as_refCseI6s6vG8qtM_18build_script_build, symObjAddr: 0x1B04, symBinAddr: 0x1000087B4, symSize: 0x30 }
  - { offset: 0x1A587, size: 0x8, addend: 0x0, symName: __RNvXNtCsfvfooZQ3Axs_4core7convertReINtB2_5AsRefNtNtNtCscOYdFFY2T5N_3std3ffi6os_str5OsStrE6as_refCseI6s6vG8qtM_18build_script_build, symObjAddr: 0x1B34, symBinAddr: 0x1000087E4, symSize: 0x30 }
  - { offset: 0x1A5DD, size: 0x8, addend: 0x0, symName: __RNvXsd_NtCsfvfooZQ3Axs_4core5arrayAhj4_INtNtNtB7_3ops5index5IndexINtNtBG_5range7RangeTojEE5indexCseI6s6vG8qtM_18build_script_build, symObjAddr: 0x25EC, symBinAddr: 0x10000929C, symSize: 0xAC }
  - { offset: 0x1A6E2, size: 0x8, addend: 0x0, symName: __RNvXso_NtCsfvfooZQ3Axs_4core5arrayNtB5_17TryFromSliceErrorNtNtB7_3fmt5Debug3fmtCseI6s6vG8qtM_18build_script_build, symObjAddr: 0x2CE0, symBinAddr: 0x100009990, symSize: 0x54 }
  - { offset: 0x1AAB2, size: 0x8, addend: 0x0, symName: __RINvMNtNtNtNtCsfvfooZQ3Axs_4core5slice4sort6stable5mergeINtB3_10MergeStateNtNvCsgq90m4oCT4f_13phf_generator17try_generate_hash6BucketE10merge_downNCINvMNtCse1nGBsou5OW_5alloc5sliceSB1a_7sort_byNCIB1c_ReEs0_0E0ECseI6s6vG8qtM_18build_script_build, symObjAddr: 0x0, symBinAddr: 0x100006D2C, symSize: 0x1D4 }
  - { offset: 0x1AC48, size: 0x8, addend: 0x0, symName: __RINvMNtNtNtNtCsfvfooZQ3Axs_4core5slice4sort6stable5mergeINtB3_10MergeStateNtNvCsgq90m4oCT4f_13phf_generator17try_generate_hash6BucketE8merge_upNCINvMNtCse1nGBsou5OW_5alloc5sliceSB1a_7sort_byNCIB1c_ReEs0_0E0ECseI6s6vG8qtM_18build_script_build, symObjAddr: 0x1D4, symBinAddr: 0x100006F00, symSize: 0x194 }
  - { offset: 0x1ADC2, size: 0x8, addend: 0x0, symName: __RINvMs12_NtCscOYdFFY2T5N_3std4pathNtB7_4Path3newNtNtNtB9_3ffi6os_str8OsStringECseI6s6vG8qtM_18build_script_build, symObjAddr: 0x368, symBinAddr: 0x100007094, symSize: 0x24 }
  - { offset: 0x1ADEE, size: 0x8, addend: 0x0, symName: __RINvMs12_NtCscOYdFFY2T5N_3std4pathNtB7_4Path4joinReECseI6s6vG8qtM_18build_script_build, symObjAddr: 0x38C, symBinAddr: 0x1000070B8, symSize: 0x80 }
  - { offset: 0x1AFF2, size: 0x8, addend: 0x0, symName: __RNvXNtNtCsg10Tkzhqh8d_4rand4rngs18xoshiro256plusplusNtB2_18Xoshiro256PlusPlusNtCsc9oQL4R8Sxl_9rand_core11SeedableRng9from_seedCseI6s6vG8qtM_18build_script_build, symObjAddr: 0x1B64, symBinAddr: 0x100008814, symSize: 0xCC }
  - { offset: 0x1B042, size: 0x8, addend: 0x0, symName: __RNvXs_NtNtCsg10Tkzhqh8d_4rand4rngs18xoshiro256plusplusNtB4_18Xoshiro256PlusPlusNtCsc9oQL4R8Sxl_9rand_core7RngCore8next_u64CseI6s6vG8qtM_18build_script_build, symObjAddr: 0x1EC8, symBinAddr: 0x100008B78, symSize: 0xE0 }
  - { offset: 0x1B306, size: 0x8, addend: 0x0, symName: __RNvNtCslgz3eGxzwqz_9siphasher6sip1289u8to64_leCseI6s6vG8qtM_18build_script_build, symObjAddr: 0x1150, symBinAddr: 0x100007E00, symSize: 0x5B4 }
  - { offset: 0x1B4AC, size: 0x8, addend: 0x0, symName: __RNvXs3_NtCslgz3eGxzwqz_9siphasher6sip128NtB5_11SipHasher13NtB5_9Hasher1289finish128CseI6s6vG8qtM_18build_script_build, symObjAddr: 0x1D7C, symBinAddr: 0x100008A2C, symSize: 0x34 }
  - { offset: 0x1B4E0, size: 0x8, addend: 0x0, symName: __RNvXs9_NtCslgz3eGxzwqz_9siphasher6sip128NtB5_11SipHasher13NtNtCsfvfooZQ3Axs_4core4hash6Hasher5writeCseI6s6vG8qtM_18build_script_build, symObjAddr: 0x1E50, symBinAddr: 0x100008B00, symSize: 0x40 }
  - { offset: 0x1B51F, size: 0x8, addend: 0x0, symName: __RNvXsb_NtCslgz3eGxzwqz_9siphasher6sip128INtB5_6HasherNtB5_11Sip13RoundsENtNtCsfvfooZQ3Axs_4core4hash6Hasher5writeCseI6s6vG8qtM_18build_script_build, symObjAddr: 0x21EC, symBinAddr: 0x100008E9C, symSize: 0x400 }
  - { offset: 0x1B665, size: 0x8, addend: 0x0, symName: __RNvXse_NtCslgz3eGxzwqz_9siphasher6sip128NtB5_11Sip13RoundsNtB5_3Sip8c_roundsCseI6s6vG8qtM_18build_script_build, symObjAddr: 0x2698, symBinAddr: 0x100009348, symSize: 0x180 }
  - { offset: 0x1B811, size: 0x8, addend: 0x0, symName: __RNvXse_NtCslgz3eGxzwqz_9siphasher6sip128NtB5_11Sip13RoundsNtB5_3Sip8d_roundsCseI6s6vG8qtM_18build_script_build, symObjAddr: 0x2818, symBinAddr: 0x1000094C8, symSize: 0x418 }
  - { offset: 0x1BCCC, size: 0x8, addend: 0x0, symName: __RNvMs2_NtCslgz3eGxzwqz_9siphasher6sip128NtB5_11SipHasher1313new_with_keysCseI6s6vG8qtM_18build_script_build, symObjAddr: 0xFE4, symBinAddr: 0x100007C98, symSize: 0x54 }
  - { offset: 0x1BD09, size: 0x8, addend: 0x0, symName: __RNvMs7_NtCslgz3eGxzwqz_9siphasher6sip128INtB5_6HasherNtB5_11Sip13RoundsE9finish128CseI6s6vG8qtM_18build_script_build, symObjAddr: 0x1054, symBinAddr: 0x100007D08, symSize: 0xF8 }
  - { offset: 0x1C14F, size: 0x8, addend: 0x0, symName: __RINvMs0_NtNtNtNtCscOYdFFY2T5N_3std3sys12thread_local6native4lazyINtB6_7StorageINtNtCsfvfooZQ3Axs_4core4cell4CellTyyEEzE10initializeNvNvNvMNtNtBe_4hash6randomNtB2c_11RandomState3new4KEYS6___initECseI6s6vG8qtM_18build_script_build, symObjAddr: 0x0, symBinAddr: 0x100053058, symSize: 0x264 }
  - { offset: 0x1C5D6, size: 0x8, addend: 0x0, symName: __RINvXNtNtNtNtCscOYdFFY2T5N_3std3sys12thread_local6native4lazyzNtB3_14DestroyedState13register_dtorINtNtCsfvfooZQ3Axs_4core4cell4CellTyyEEECseI6s6vG8qtM_18build_script_build, symObjAddr: 0x11CC, symBinAddr: 0x10000A990, symSize: 0x10 }
  - { offset: 0x1C670, size: 0x8, addend: 0x0, symName: __RINvNtCscOYdFFY2T5N_3std3env6var_osReECseI6s6vG8qtM_18build_script_build, symObjAddr: 0x328, symBinAddr: 0x100009B3C, symSize: 0x68 }
  - { offset: 0x1D4B6, size: 0x8, addend: 0x0, symName: __RINvNtCsfvfooZQ3Axs_4core3ptr13drop_in_placeINtCsavgYnAsOLFI_11phf_codegen10DisplayMapReEECseI6s6vG8qtM_18build_script_build, symObjAddr: 0x458, symBinAddr: 0x100009C6C, symSize: 0x24 }
  - { offset: 0x1D4E5, size: 0x8, addend: 0x0, symName: __RINvNtCsfvfooZQ3Axs_4core3ptr13drop_in_placeINtCsavgYnAsOLFI_11phf_codegen10DisplaySetReEECseI6s6vG8qtM_18build_script_build, symObjAddr: 0x47C, symBinAddr: 0x100009C90, symSize: 0x24 }
  - { offset: 0x1D514, size: 0x8, addend: 0x0, symName: __RINvNtCsfvfooZQ3Axs_4core3ptr13drop_in_placeINtCsavgYnAsOLFI_11phf_codegen3MapReEECseI6s6vG8qtM_18build_script_build, symObjAddr: 0x4A0, symBinAddr: 0x100009CB4, symSize: 0x90 }
  - { offset: 0x1D543, size: 0x8, addend: 0x0, symName: __RINvNtCsfvfooZQ3Axs_4core3ptr13drop_in_placeINtCsavgYnAsOLFI_11phf_codegen3SetReEECseI6s6vG8qtM_18build_script_build, symObjAddr: 0x530, symBinAddr: 0x100009D44, symSize: 0x24 }
  - { offset: 0x1D572, size: 0x8, addend: 0x0, symName: __RINvNtCsfvfooZQ3Axs_4core3ptr13drop_in_placeINtNtCse1nGBsou5OW_5alloc3vec3VecINtNtB4_6option6OptionjEEECseI6s6vG8qtM_18build_script_build, symObjAddr: 0x554, symBinAddr: 0x100009D68, symSize: 0x5C }
  - { offset: 0x1D5A1, size: 0x8, addend: 0x0, symName: __RINvNtCsfvfooZQ3Axs_4core3ptr13drop_in_placeINtNtCse1nGBsou5OW_5alloc3vec3VecNtCsbvn0pgfta96_10phf_shared6HashesEECseI6s6vG8qtM_18build_script_build, symObjAddr: 0x5B0, symBinAddr: 0x100009DC4, symSize: 0x5C }
  - { offset: 0x1D5D0, size: 0x8, addend: 0x0, symName: __RINvNtCsfvfooZQ3Axs_4core3ptr13drop_in_placeINtNtCse1nGBsou5OW_5alloc3vec3VecNtNtBL_6string6StringEECseI6s6vG8qtM_18build_script_build, symObjAddr: 0x60C, symBinAddr: 0x100009E20, symSize: 0x5C }
  - { offset: 0x1D5FF, size: 0x8, addend: 0x0, symName: __RINvNtCsfvfooZQ3Axs_4core3ptr13drop_in_placeINtNtCse1nGBsou5OW_5alloc3vec3VecNtNvCsgq90m4oCT4f_13phf_generator17try_generate_hash6BucketEECseI6s6vG8qtM_18build_script_build, symObjAddr: 0x668, symBinAddr: 0x100009E7C, symSize: 0x5C }
  - { offset: 0x1D62E, size: 0x8, addend: 0x0, symName: __RINvNtCsfvfooZQ3Axs_4core3ptr13drop_in_placeINtNtCse1nGBsou5OW_5alloc3vec3VecReEECseI6s6vG8qtM_18build_script_build, symObjAddr: 0x6C4, symBinAddr: 0x100009ED8, symSize: 0x5C }
  - { offset: 0x1D65D, size: 0x8, addend: 0x0, symName: __RINvNtCsfvfooZQ3Axs_4core3ptr13drop_in_placeINtNtCse1nGBsou5OW_5alloc3vec3VecTjjEEECseI6s6vG8qtM_18build_script_build, symObjAddr: 0x720, symBinAddr: 0x100009F34, symSize: 0x5C }
  - { offset: 0x1D68C, size: 0x8, addend: 0x0, symName: __RINvNtCsfvfooZQ3Axs_4core3ptr13drop_in_placeINtNtCse1nGBsou5OW_5alloc3vec3VecTmmEEECseI6s6vG8qtM_18build_script_build, symObjAddr: 0x77C, symBinAddr: 0x100009F90, symSize: 0x5C }
  - { offset: 0x1D6BB, size: 0x8, addend: 0x0, symName: __RINvNtCsfvfooZQ3Axs_4core3ptr13drop_in_placeINtNtCse1nGBsou5OW_5alloc3vec3VechEECseI6s6vG8qtM_18build_script_build, symObjAddr: 0x7D8, symBinAddr: 0x100009FEC, symSize: 0x5C }
  - { offset: 0x1D6EA, size: 0x8, addend: 0x0, symName: __RINvNtCsfvfooZQ3Axs_4core3ptr13drop_in_placeINtNtCse1nGBsou5OW_5alloc3vec3VecjEECseI6s6vG8qtM_18build_script_build, symObjAddr: 0x834, symBinAddr: 0x10000A048, symSize: 0x5C }
  - { offset: 0x1D719, size: 0x8, addend: 0x0, symName: __RINvNtCsfvfooZQ3Axs_4core3ptr13drop_in_placeINtNtCse1nGBsou5OW_5alloc3vec3VecyEECseI6s6vG8qtM_18build_script_build, symObjAddr: 0x890, symBinAddr: 0x10000A0A4, symSize: 0x5C }
  - { offset: 0x1D748, size: 0x8, addend: 0x0, symName: __RINvNtCsfvfooZQ3Axs_4core3ptr13drop_in_placeINtNtCse1nGBsou5OW_5alloc7raw_vec6RawVecINtNtB4_6option6OptionjEEECseI6s6vG8qtM_18build_script_build, symObjAddr: 0x8EC, symBinAddr: 0x10000A100, symSize: 0x24 }
  - { offset: 0x1D777, size: 0x8, addend: 0x0, symName: __RINvNtCsfvfooZQ3Axs_4core3ptr13drop_in_placeINtNtCse1nGBsou5OW_5alloc7raw_vec6RawVecNtCsbvn0pgfta96_10phf_shared6HashesEECseI6s6vG8qtM_18build_script_build, symObjAddr: 0x910, symBinAddr: 0x10000A124, symSize: 0x24 }
  - { offset: 0x1D7A6, size: 0x8, addend: 0x0, symName: __RINvNtCsfvfooZQ3Axs_4core3ptr13drop_in_placeINtNtCse1nGBsou5OW_5alloc7raw_vec6RawVecNtNtBL_6string6StringEECseI6s6vG8qtM_18build_script_build, symObjAddr: 0x934, symBinAddr: 0x10000A148, symSize: 0x24 }
  - { offset: 0x1D7D5, size: 0x8, addend: 0x0, symName: __RINvNtCsfvfooZQ3Axs_4core3ptr13drop_in_placeINtNtCse1nGBsou5OW_5alloc7raw_vec6RawVecNtNvCsgq90m4oCT4f_13phf_generator17try_generate_hash6BucketEECseI6s6vG8qtM_18build_script_build, symObjAddr: 0x958, symBinAddr: 0x10000A16C, symSize: 0x24 }
  - { offset: 0x1D804, size: 0x8, addend: 0x0, symName: __RINvNtCsfvfooZQ3Axs_4core3ptr13drop_in_placeINtNtCse1nGBsou5OW_5alloc7raw_vec6RawVecReEECseI6s6vG8qtM_18build_script_build, symObjAddr: 0x97C, symBinAddr: 0x10000A190, symSize: 0x24 }
  - { offset: 0x1D833, size: 0x8, addend: 0x0, symName: __RINvNtCsfvfooZQ3Axs_4core3ptr13drop_in_placeINtNtCse1nGBsou5OW_5alloc7raw_vec6RawVecTjjEEECseI6s6vG8qtM_18build_script_build, symObjAddr: 0x9A0, symBinAddr: 0x10000A1B4, symSize: 0x24 }
  - { offset: 0x1D862, size: 0x8, addend: 0x0, symName: __RINvNtCsfvfooZQ3Axs_4core3ptr13drop_in_placeINtNtCse1nGBsou5OW_5alloc7raw_vec6RawVecTmmEEECseI6s6vG8qtM_18build_script_build, symObjAddr: 0x9C4, symBinAddr: 0x10000A1D8, symSize: 0x24 }
  - { offset: 0x1D891, size: 0x8, addend: 0x0, symName: __RINvNtCsfvfooZQ3Axs_4core3ptr13drop_in_placeINtNtCse1nGBsou5OW_5alloc7raw_vec6RawVechEECseI6s6vG8qtM_18build_script_build, symObjAddr: 0x9E8, symBinAddr: 0x10000A1FC, symSize: 0x24 }
  - { offset: 0x1D8C0, size: 0x8, addend: 0x0, symName: __RINvNtCsfvfooZQ3Axs_4core3ptr13drop_in_placeINtNtCse1nGBsou5OW_5alloc7raw_vec6RawVecjEECseI6s6vG8qtM_18build_script_build, symObjAddr: 0xA0C, symBinAddr: 0x10000A220, symSize: 0x24 }
  - { offset: 0x1D8EF, size: 0x8, addend: 0x0, symName: __RINvNtCsfvfooZQ3Axs_4core3ptr13drop_in_placeINtNtCse1nGBsou5OW_5alloc7raw_vec6RawVecyEECseI6s6vG8qtM_18build_script_build, symObjAddr: 0xA30, symBinAddr: 0x10000A244, symSize: 0x24 }
  - { offset: 0x1D91E, size: 0x8, addend: 0x0, symName: __RINvNtCsfvfooZQ3Axs_4core3ptr13drop_in_placeINtNtCsloNvcHxBCre_9hashbrown10scopeguard10ScopeGuardNtNtBL_3raw13RawTableInnerNCINvMsa_B1z_B1x_14prepare_resizeNtNtCse1nGBsou5OW_5alloc5alloc6GlobalE0EECseI6s6vG8qtM_18build_script_build, symObjAddr: 0xA54, symBinAddr: 0x10000A268, symSize: 0x24 }
  - { offset: 0x1D94D, size: 0x8, addend: 0x0, symName: __RINvNtCsfvfooZQ3Axs_4core3ptr13drop_in_placeINtNtCsloNvcHxBCre_9hashbrown10scopeguard10ScopeGuardQNtNtBL_3raw13RawTableInnerNCNvMsa_B1A_B1y_15rehash_in_place0EECseI6s6vG8qtM_18build_script_build, symObjAddr: 0xA78, symBinAddr: 0x10000A28C, symSize: 0x24 }
  - { offset: 0x1D97C, size: 0x8, addend: 0x0, symName: __RINvNtCsfvfooZQ3Axs_4core3ptr13drop_in_placeINtNtCsloNvcHxBCre_9hashbrown3map7HashMapRReuNtNtNtCscOYdFFY2T5N_3std4hash6random11RandomStateEECseI6s6vG8qtM_18build_script_build, symObjAddr: 0xA9C, symBinAddr: 0x10000A2B0, symSize: 0x24 }
  - { offset: 0x1D9AB, size: 0x8, addend: 0x0, symName: __RINvNtCsfvfooZQ3Axs_4core3ptr13drop_in_placeINtNtCsloNvcHxBCre_9hashbrown3raw8RawTableTRReuEEECseI6s6vG8qtM_18build_script_build, symObjAddr: 0xAC0, symBinAddr: 0x10000A2D4, symSize: 0x24 }
  - { offset: 0x1D9DA, size: 0x8, addend: 0x0, symName: __RINvNtCsfvfooZQ3Axs_4core3ptr13drop_in_placeINtNtCsloNvcHxBCre_9hashbrown3set7HashSetRReNtNtNtCscOYdFFY2T5N_3std4hash6random11RandomStateEECseI6s6vG8qtM_18build_script_build, symObjAddr: 0xAE4, symBinAddr: 0x10000A2F8, symSize: 0x24 }
  - { offset: 0x1DA09, size: 0x8, addend: 0x0, symName: __RINvNtCsfvfooZQ3Axs_4core3ptr13drop_in_placeINtNtNtB4_3ops12control_flow11ControlFlowNtCsgq90m4oCT4f_13phf_generator9HashStateEECseI6s6vG8qtM_18build_script_build, symObjAddr: 0xB08, symBinAddr: 0x10000A31C, symSize: 0x48 }
  - { offset: 0x1DA38, size: 0x8, addend: 0x0, symName: __RINvNtCsfvfooZQ3Axs_4core3ptr13drop_in_placeINtNtNtB4_5array4iter8IntoIterjKj2_EECseI6s6vG8qtM_18build_script_build, symObjAddr: 0xB50, symBinAddr: 0x10000A364, symSize: 0x24 }
  - { offset: 0x1DA67, size: 0x8, addend: 0x0, symName: __RINvNtCsfvfooZQ3Axs_4core3ptr13drop_in_placeINtNtNtCse1nGBsou5OW_5alloc3vec13in_place_drop11InPlaceDropjEECseI6s6vG8qtM_18build_script_build, symObjAddr: 0xB74, symBinAddr: 0x10000A388, symSize: 0x24 }
  - { offset: 0x1DA96, size: 0x8, addend: 0x0, symName: __RINvNtCsfvfooZQ3Axs_4core3ptr13drop_in_placeINtNtNtCse1nGBsou5OW_5alloc3vec13in_place_drop24InPlaceDstDataSrcBufDropINtNtB4_6option6OptionjEjEECseI6s6vG8qtM_18build_script_build, symObjAddr: 0xB98, symBinAddr: 0x10000A3AC, symSize: 0x24 }
  - { offset: 0x1DAC5, size: 0x8, addend: 0x0, symName: __RINvNtCsfvfooZQ3Axs_4core3ptr13drop_in_placeINtNtNtCse1nGBsou5OW_5alloc3vec9into_iter8IntoIterINtNtB4_6option6OptionjEEECseI6s6vG8qtM_18build_script_build, symObjAddr: 0xBBC, symBinAddr: 0x10000A3D0, symSize: 0x24 }
  - { offset: 0x1DAF4, size: 0x8, addend: 0x0, symName: __RINvNtCsfvfooZQ3Axs_4core3ptr13drop_in_placeINtNtNtNtB4_4iter8adapters3map3MapINtNtNtCse1nGBsou5OW_5alloc3vec9into_iter8IntoIterINtNtB4_6option6OptionjEENCINvCsgq90m4oCT4f_13phf_generator17try_generate_hashReEs1_0EECseI6s6vG8qtM_18build_script_build, symObjAddr: 0xBE0, symBinAddr: 0x10000A3F4, symSize: 0x24 }
  - { offset: 0x1DB23, size: 0x8, addend: 0x0, symName: __RINvNtCsfvfooZQ3Axs_4core3ptr13drop_in_placeINtNtNtNtCscOYdFFY2T5N_3std11collections4hash3set7HashSetRReEECseI6s6vG8qtM_18build_script_build, symObjAddr: 0xC04, symBinAddr: 0x10000A418, symSize: 0x24 }
  - { offset: 0x1DB52, size: 0x8, addend: 0x0, symName: __RINvNtCsfvfooZQ3Axs_4core3ptr13drop_in_placeINtNtNtNtCscOYdFFY2T5N_3std2io8buffered9bufwriter9BufWriterNtNtBP_2fs4FileEECseI6s6vG8qtM_18build_script_build, symObjAddr: 0xC28, symBinAddr: 0x10000A43C, symSize: 0x88 }
  - { offset: 0x1DB81, size: 0x8, addend: 0x0, symName: __RINvNtCsfvfooZQ3Axs_4core3ptr13drop_in_placeINtNtNtNtNtB4_5slice4sort6shared9smallsort10CopyOnDropNtNvCsgq90m4oCT4f_13phf_generator17try_generate_hash6BucketEECseI6s6vG8qtM_18build_script_build, symObjAddr: 0xCB0, symBinAddr: 0x10000A4C4, symSize: 0x24 }
  - { offset: 0x1DBB0, size: 0x8, addend: 0x0, symName: __RINvNtCsfvfooZQ3Axs_4core3ptr13drop_in_placeINtNtNtNtNtB4_5slice4sort6stable5merge10MergeStateNtNvCsgq90m4oCT4f_13phf_generator17try_generate_hash6BucketEECseI6s6vG8qtM_18build_script_build, symObjAddr: 0xCD4, symBinAddr: 0x10000A4E8, symSize: 0x24 }
  - { offset: 0x1DBDF, size: 0x8, addend: 0x0, symName: __RINvNtCsfvfooZQ3Axs_4core3ptr13drop_in_placeINtNvNtNtCscOYdFFY2T5N_3std2io5Write9write_fmt7AdapterINtNtNtBN_8buffered9bufwriter9BufWriterNtNtBP_2fs4FileEEECseI6s6vG8qtM_18build_script_build, symObjAddr: 0xCF8, symBinAddr: 0x10000A50C, symSize: 0x24 }
  - { offset: 0x1DC0E, size: 0x8, addend: 0x0, symName: __RINvNtCsfvfooZQ3Axs_4core3ptr13drop_in_placeINtNvXsd_NtNtCse1nGBsou5OW_5alloc3vec9into_iterINtBP_8IntoIterppENtNtNtB4_3ops4drop4Drop4drop9DropGuardINtNtB4_6option6OptionjENtNtBT_5alloc6GlobalEECseI6s6vG8qtM_18build_script_build, symObjAddr: 0xD1C, symBinAddr: 0x10000A530, symSize: 0x24 }
  - { offset: 0x1DC3D, size: 0x8, addend: 0x0, symName: __RINvNtCsfvfooZQ3Axs_4core3ptr13drop_in_placeNCINvMsi_NtCse1nGBsou5OW_5alloc3vecINtBP_3VecNtCsbvn0pgfta96_10phf_shared6HashesE14extend_trustedINtNtNtNtB4_4iter8adapters3map3MapINtNtNtB4_5slice4iter4IterReENCINvCsgq90m4oCT4f_13phf_generator17try_generate_hashB3d_E0EE0ECseI6s6vG8qtM_18build_script_build, symObjAddr: 0xD60, symBinAddr: 0x10000A554, symSize: 0x24 }
  - { offset: 0x1DC6C, size: 0x8, addend: 0x0, symName: __RINvNtCsfvfooZQ3Axs_4core3ptr13drop_in_placeNCINvMsi_NtCse1nGBsou5OW_5alloc3vecINtBP_3VecNtNvCsgq90m4oCT4f_13phf_generator17try_generate_hash6BucketE14extend_trustedINtNtNtNtB4_4iter8adapters3map3MapINtNtNtB4_3ops5range5RangejENCIB1r_ReEs_0EE0ECseI6s6vG8qtM_18build_script_build, symObjAddr: 0xD84, symBinAddr: 0x10000A578, symSize: 0x24 }
  - { offset: 0x1DC9B, size: 0x8, addend: 0x0, symName: __RINvNtCsfvfooZQ3Axs_4core3ptr13drop_in_placeNCINvNtNtNtB4_4iter8adapters3map8map_foldRReNtCsbvn0pgfta96_10phf_shared6HashesuNCINvCsgq90m4oCT4f_13phf_generator17try_generate_hashB1m_E0NCINvNvNtNtNtBP_6traits8iterator8Iterator8for_each4callB1o_NCINvMsi_NtCse1nGBsou5OW_5alloc3vecINtB41_3VecB1o_E14extend_trustedINtBL_3MapINtNtNtB4_5slice4iter4IterB1m_EB1Y_EE0E0E0ECseI6s6vG8qtM_18build_script_build, symObjAddr: 0xDB8, symBinAddr: 0x10000A59C, symSize: 0x24 }
  - { offset: 0x1DCCA, size: 0x8, addend: 0x0, symName: __RINvNtCsfvfooZQ3Axs_4core3ptr13drop_in_placeNCINvNtNtNtB4_4iter8adapters3map8map_foldjNtNvCsgq90m4oCT4f_13phf_generator17try_generate_hash6BucketuNCIB1o_ReEs_0NCINvNvNtNtNtBP_6traits8iterator8Iterator8for_each4callB1m_NCINvMsi_NtCse1nGBsou5OW_5alloc3vecINtB3D_3VecB1m_E14extend_trustedINtBL_3MapINtNtNtB4_3ops5range5RangejEB2k_EE0E0E0ECseI6s6vG8qtM_18build_script_build, symObjAddr: 0xDDC, symBinAddr: 0x10000A5C0, symSize: 0x24 }
  - { offset: 0x1DCF9, size: 0x8, addend: 0x0, symName: __RINvNtCsfvfooZQ3Axs_4core3ptr13drop_in_placeNCINvNvNtNtNtNtB4_4iter6traits8iterator8Iterator8for_each4callNtCsbvn0pgfta96_10phf_shared6HashesNCINvMsi_NtCse1nGBsou5OW_5alloc3vecINtB2o_3VecB1G_E14extend_trustedINtNtNtBT_8adapters3map3MapINtNtNtB4_5slice4iter4IterReENCINvCsgq90m4oCT4f_13phf_generator17try_generate_hashB4b_E0EE0E0ECseI6s6vG8qtM_18build_script_build, symObjAddr: 0xE00, symBinAddr: 0x10000A5E4, symSize: 0x24 }
  - { offset: 0x1DD28, size: 0x8, addend: 0x0, symName: __RINvNtCsfvfooZQ3Axs_4core3ptr13drop_in_placeNCINvNvNtNtNtNtB4_4iter6traits8iterator8Iterator8for_each4callNtNvCsgq90m4oCT4f_13phf_generator17try_generate_hash6BucketNCINvMsi_NtCse1nGBsou5OW_5alloc3vecINtB2M_3VecB1G_E14extend_trustedINtNtNtBT_8adapters3map3MapINtNtNtB4_3ops5range5RangejENCIB1I_ReEs_0EE0E0ECseI6s6vG8qtM_18build_script_build, symObjAddr: 0xE24, symBinAddr: 0x10000A608, symSize: 0x24 }
  - { offset: 0x1DD57, size: 0x8, addend: 0x0, symName: __RINvNtCsfvfooZQ3Axs_4core3ptr13drop_in_placeNtCsgq90m4oCT4f_13phf_generator9HashStateECseI6s6vG8qtM_18build_script_build, symObjAddr: 0xE48, symBinAddr: 0x10000A62C, symSize: 0x60 }
  - { offset: 0x1DD86, size: 0x8, addend: 0x0, symName: __RINvNtCsfvfooZQ3Axs_4core3ptr13drop_in_placeNtNtCscOYdFFY2T5N_3std2fs4FileECseI6s6vG8qtM_18build_script_build, symObjAddr: 0xEB8, symBinAddr: 0x10000A68C, symSize: 0x24 }
  - { offset: 0x1DDB5, size: 0x8, addend: 0x0, symName: __RINvNtCsfvfooZQ3Axs_4core3ptr13drop_in_placeNtNtCscOYdFFY2T5N_3std4path7PathBufECseI6s6vG8qtM_18build_script_build, symObjAddr: 0xEDC, symBinAddr: 0x10000A6B0, symSize: 0x24 }
  - { offset: 0x1DDE4, size: 0x8, addend: 0x0, symName: __RINvNtCsfvfooZQ3Axs_4core3ptr13drop_in_placeNtNtCse1nGBsou5OW_5alloc6string6StringECseI6s6vG8qtM_18build_script_build, symObjAddr: 0xF00, symBinAddr: 0x10000A6D4, symSize: 0x24 }
  - { offset: 0x1DE13, size: 0x8, addend: 0x0, symName: __RINvNtCsfvfooZQ3Axs_4core3ptr13drop_in_placeNtNtNtCscOYdFFY2T5N_3std3ffi6os_str8OsStringECseI6s6vG8qtM_18build_script_build, symObjAddr: 0xF24, symBinAddr: 0x10000A6F8, symSize: 0x24 }
  - { offset: 0x1DE42, size: 0x8, addend: 0x0, symName: __RINvNtCsfvfooZQ3Axs_4core3ptr13drop_in_placeNtNtNtCse1nGBsou5OW_5alloc3vec15set_len_on_drop12SetLenOnDropECseI6s6vG8qtM_18build_script_build, symObjAddr: 0xF48, symBinAddr: 0x10000A71C, symSize: 0x24 }
  - { offset: 0x1DE71, size: 0x8, addend: 0x0, symName: __RINvNtCsfvfooZQ3Axs_4core3ptr13drop_in_placeNtNtNtNtCscOYdFFY2T5N_3std2os2fd5owned7OwnedFdECseI6s6vG8qtM_18build_script_build, symObjAddr: 0xF6C, symBinAddr: 0x10000A740, symSize: 0x24 }
  - { offset: 0x1DEA0, size: 0x8, addend: 0x0, symName: __RINvNtCsfvfooZQ3Axs_4core3ptr13drop_in_placeNtNtNtNtCscOYdFFY2T5N_3std3sys6os_str5bytes3BufECseI6s6vG8qtM_18build_script_build, symObjAddr: 0xF90, symBinAddr: 0x10000A764, symSize: 0x24 }
  - { offset: 0x1DECF, size: 0x8, addend: 0x0, symName: __RINvNtCsfvfooZQ3Axs_4core3ptr13drop_in_placeNtNtNtNtNtCscOYdFFY2T5N_3std3sys3pal4unix2fd8FileDescECseI6s6vG8qtM_18build_script_build, symObjAddr: 0xFB4, symBinAddr: 0x10000A788, symSize: 0x24 }
  - { offset: 0x1DEFE, size: 0x8, addend: 0x0, symName: __RINvNtCsfvfooZQ3Axs_4core3ptr13drop_in_placeNtNtNtNtNtCscOYdFFY2T5N_3std3sys3pal4unix2fs4FileECseI6s6vG8qtM_18build_script_build, symObjAddr: 0xFD8, symBinAddr: 0x10000A7AC, symSize: 0x24 }
  - { offset: 0x1DF2D, size: 0x8, addend: 0x0, symName: __RINvNtCsfvfooZQ3Axs_4core3ptr13drop_in_placeNtNvCsgq90m4oCT4f_13phf_generator17try_generate_hash6BucketECseI6s6vG8qtM_18build_script_build, symObjAddr: 0xFFC, symBinAddr: 0x10000A7D0, symSize: 0x24 }
  - { offset: 0x1DF5C, size: 0x8, addend: 0x0, symName: __RINvNtCsfvfooZQ3Axs_4core3ptr13drop_in_placeNtNvMs_NtNtNtCscOYdFFY2T5N_3std2io8buffered9bufwriterINtBN_9BufWriterpE9flush_buf8BufGuardECseI6s6vG8qtM_18build_script_build, symObjAddr: 0x1020, symBinAddr: 0x10000A7F4, symSize: 0x24 }
  - { offset: 0x1DF8B, size: 0x8, addend: 0x0, symName: __RINvNtCsfvfooZQ3Axs_4core3ptr13drop_in_placeSNtNtCse1nGBsou5OW_5alloc6string6StringECseI6s6vG8qtM_18build_script_build, symObjAddr: 0x1054, symBinAddr: 0x10000A818, symSize: 0xC4 }
  - { offset: 0x1DFBA, size: 0x8, addend: 0x0, symName: __RINvNtCsfvfooZQ3Axs_4core3ptr13drop_in_placeSNtNvCsgq90m4oCT4f_13phf_generator17try_generate_hash6BucketECseI6s6vG8qtM_18build_script_build, symObjAddr: 0x1118, symBinAddr: 0x10000A8DC, symSize: 0xB4 }
  - { offset: 0x1E571, size: 0x8, addend: 0x0, symName: __RNvXs3_NtCsfvfooZQ3Axs_4core6optionINtB5_6OptionjENtNtB7_5clone5Clone5cloneCseI6s6vG8qtM_18build_script_build, symObjAddr: 0x231C, symBinAddr: 0x10000BAE0, symSize: 0x5C }
  - { offset: 0x1EC8B, size: 0x8, addend: 0x0, symName: __RINvXs2U_NtNtCsfvfooZQ3Axs_4core5slice4iterINtB7_4IterReENtNtNtNtBb_4iter6traits8iterator8Iterator4folduNCINvNtNtBZ_8adapters3map8map_foldRBQ_NtCsbvn0pgfta96_10phf_shared6HashesuNCINvCsgq90m4oCT4f_13phf_generator17try_generate_hashBQ_E0NCINvNvBT_8for_each4callB2g_NCINvMsi_NtCse1nGBsou5OW_5alloc3vecINtB4n_3VecB2g_E14extend_trustedINtB1J_3MapBF_B2Q_EE0E0E0ECseI6s6vG8qtM_18build_script_build, symObjAddr: 0x11DC, symBinAddr: 0x10000A9A0, symSize: 0x1B0 }
  - { offset: 0x1EDDF, size: 0x8, addend: 0x0, symName: __RNvXs2U_NtNtCsfvfooZQ3Axs_4core5slice4iterINtB6_4IterNtCsbvn0pgfta96_10phf_shared6HashesENtNtNtNtBa_4iter6traits8iterator8Iterator4nextCseI6s6vG8qtM_18build_script_build, symObjAddr: 0x1DF4, symBinAddr: 0x10000B5B8, symSize: 0xBC }
  - { offset: 0x1EF2D, size: 0x8, addend: 0x0, symName: __RNvXs2U_NtNtCsfvfooZQ3Axs_4core5slice4iterINtB6_4IterNtNvCsgq90m4oCT4f_13phf_generator17try_generate_hash6BucketENtNtNtNtBa_4iter6traits8iterator8Iterator4nextCseI6s6vG8qtM_18build_script_build, symObjAddr: 0x1EB0, symBinAddr: 0x10000B674, symSize: 0xBC }
  - { offset: 0x1F07B, size: 0x8, addend: 0x0, symName: __RNvXs2U_NtNtCsfvfooZQ3Axs_4core5slice4iterINtB6_4IterReENtNtNtNtBa_4iter6traits8iterator8Iterator4nextCseI6s6vG8qtM_18build_script_build, symObjAddr: 0x1F6C, symBinAddr: 0x10000B730, symSize: 0xBC }
  - { offset: 0x1F1C9, size: 0x8, addend: 0x0, symName: __RNvXs2U_NtNtCsfvfooZQ3Axs_4core5slice4iterINtB6_4IterReENtNtNtNtBa_4iter6traits8iterator8Iterator9size_hintCseI6s6vG8qtM_18build_script_build, symObjAddr: 0x2028, symBinAddr: 0x10000B7EC, symSize: 0x70 }
  - { offset: 0x1F238, size: 0x8, addend: 0x0, symName: __RNvXs2U_NtNtCsfvfooZQ3Axs_4core5slice4iterINtB6_4IterTjjEENtNtNtNtBa_4iter6traits8iterator8Iterator4nextCseI6s6vG8qtM_18build_script_build, symObjAddr: 0x2098, symBinAddr: 0x10000B85C, symSize: 0xBC }
  - { offset: 0x1F386, size: 0x8, addend: 0x0, symName: __RNvXs2U_NtNtCsfvfooZQ3Axs_4core5slice4iterINtB6_4IterTmmEENtNtNtNtBa_4iter6traits8iterator8Iterator4nextCseI6s6vG8qtM_18build_script_build, symObjAddr: 0x2154, symBinAddr: 0x10000B918, symSize: 0xBC }
  - { offset: 0x1F4D4, size: 0x8, addend: 0x0, symName: __RNvXs2U_NtNtCsfvfooZQ3Axs_4core5slice4iterINtB6_4IterjENtNtNtNtBa_4iter6traits8iterator8Iterator4nextCseI6s6vG8qtM_18build_script_build, symObjAddr: 0x2210, symBinAddr: 0x10000B9D4, symSize: 0xBC }
  - { offset: 0x1FC1B, size: 0x8, addend: 0x0, symName: __RNvXsh_NtNtNtCsfvfooZQ3Axs_4core4iter8adapters3zipINtNtNtCse1nGBsou5OW_5alloc3vec9into_iter8IntoIterINtNtBb_6option6OptionjEENtB5_23SpecTrustedRandomAccess17try_get_uncheckedCseI6s6vG8qtM_18build_script_build, symObjAddr: 0x25AC, symBinAddr: 0x10000BD70, symSize: 0x28 }
  - { offset: 0x1FCFA, size: 0x8, addend: 0x0, symName: __RINvYINtNtNtCse1nGBsou5OW_5alloc3vec9into_iter8IntoIterINtNtCsfvfooZQ3Axs_4core6option6OptionjEENtNtNtNtBW_4iter6traits8iterator8Iterator3mapjNCINvCsgq90m4oCT4f_13phf_generator17try_generate_hashReEs1_0ECseI6s6vG8qtM_18build_script_build, symObjAddr: 0x1548, symBinAddr: 0x10000AD0C, symSize: 0x1C }
  - { offset: 0x1FD67, size: 0x8, addend: 0x0, symName: __RINvYINtNtNtCsfvfooZQ3Axs_4core5slice4iter4IterReENtNtNtNtBa_4iter6traits8iterator8Iterator3mapNtCsbvn0pgfta96_10phf_shared6HashesNCINvCsgq90m4oCT4f_13phf_generator17try_generate_hashBJ_E0ECseI6s6vG8qtM_18build_script_build, symObjAddr: 0x1564, symBinAddr: 0x10000AD28, symSize: 0x30 }
  - { offset: 0x1FDD4, size: 0x8, addend: 0x0, symName: __RNvYINtNtNtCsfvfooZQ3Axs_4core5slice4iter4IterNtCsbvn0pgfta96_10phf_shared6HashesENtNtNtNtB9_4iter6traits8iterator8Iterator9enumerateCseI6s6vG8qtM_18build_script_build, symObjAddr: 0x26E8, symBinAddr: 0x10000BEAC, symSize: 0x28 }
  - { offset: 0x1FE58, size: 0x8, addend: 0x0, symName: __RNvXNtNtNtCsfvfooZQ3Axs_4core4iter6traits8iteratorQINtNtNtB8_5slice4iter14ChunksExactMuthENtB2_8Iterator4nextCseI6s6vG8qtM_18build_script_build, symObjAddr: 0x1CC4, symBinAddr: 0x10000B488, symSize: 0x28 }
  - { offset: 0x1FEEB, size: 0x8, addend: 0x0, symName: __RNvYINtNtNtCse1nGBsou5OW_5alloc3vec9into_iter8IntoIterINtNtCsfvfooZQ3Axs_4core6option6OptionjEENtNtNtNtBV_4iter6traits10exact_size17ExactSizeIterator3lenCseI6s6vG8qtM_18build_script_build, symObjAddr: 0x25F4, symBinAddr: 0x10000BDB8, symSize: 0xF4 }
  - { offset: 0x1FFEA, size: 0x8, addend: 0x0, symName: __RNvXNtNtNtCsfvfooZQ3Axs_4core4iter6traits7collectQINtNtNtB8_5slice4iter14ChunksExactMuthENtB2_12IntoIterator9into_iterCseI6s6vG8qtM_18build_script_build, symObjAddr: 0x1CB0, symBinAddr: 0x10000B474, symSize: 0x14 }
  - { offset: 0x20034, size: 0x8, addend: 0x0, symName: __RNSNvYNCINvMs6_NtCsloNvcHxBCre_9hashbrown3rawINtBd_8RawTableTRReuEE14reserve_rehashNCINvNtBf_3map11make_hasherBX_uNtNtNtCscOYdFFY2T5N_3std4hash6random11RandomStateE0E0INtNtNtCsfvfooZQ3Axs_4core3ops8function6FnOnceTQNtBd_13RawTableInnerjEE9call_once6vtableCseI6s6vG8qtM_18build_script_build, symObjAddr: 0x1640, symBinAddr: 0x10000AE04, symSize: 0x38 }
  - { offset: 0x20078, size: 0x8, addend: 0x0, symName: __RNSNvYNCINvMs6_NtCsloNvcHxBCre_9hashbrown3rawINtBd_8RawTableTRReuEE24find_or_find_insert_slotNCINvNtBf_3map14equivalent_keyBX_BX_uE0NCINvB1y_11make_hasherBX_uNtNtNtCscOYdFFY2T5N_3std4hash6random11RandomStateE0E0INtNtNtCsfvfooZQ3Axs_4core3ops8function6FnOnceTjEE9call_once6vtableCseI6s6vG8qtM_18build_script_build, symObjAddr: 0x1678, symBinAddr: 0x10000AE3C, symSize: 0x38 }
  - { offset: 0x200BC, size: 0x8, addend: 0x0, symName: __RNSNvYNCINvNtCscOYdFFY2T5N_3std2rt10lang_startuE0INtNtNtCsfvfooZQ3Axs_4core3ops8function6FnOnceuE9call_once6vtableCseI6s6vG8qtM_18build_script_build, symObjAddr: 0x16B0, symBinAddr: 0x10000AE74, symSize: 0x28 }
  - { offset: 0x20100, size: 0x8, addend: 0x0, symName: __RNvYFEuINtNtNtCsfvfooZQ3Axs_4core3ops8function6FnOnceuE9call_onceCseI6s6vG8qtM_18build_script_build, symObjAddr: 0x25D4, symBinAddr: 0x10000BD98, symSize: 0x20 }
  - { offset: 0x20140, size: 0x8, addend: 0x0, symName: __RNvYNCINvMs6_NtCsloNvcHxBCre_9hashbrown3rawINtBb_8RawTableTRReuEE14reserve_rehashNCINvNtBd_3map11make_hasherBV_uNtNtNtCscOYdFFY2T5N_3std4hash6random11RandomStateE0E0INtNtNtCsfvfooZQ3Axs_4core3ops8function6FnOnceTQNtBb_13RawTableInnerjEE9call_onceCseI6s6vG8qtM_18build_script_build, symObjAddr: 0x2710, symBinAddr: 0x10000BED4, symSize: 0x5C }
  - { offset: 0x20184, size: 0x8, addend: 0x0, symName: __RNvYNCINvMs6_NtCsloNvcHxBCre_9hashbrown3rawINtBb_8RawTableTRReuEE24find_or_find_insert_slotNCINvNtBd_3map14equivalent_keyBV_BV_uE0NCINvB1w_11make_hasherBV_uNtNtNtCscOYdFFY2T5N_3std4hash6random11RandomStateE0E0INtNtNtCsfvfooZQ3Axs_4core3ops8function6FnOnceTjEE9call_onceCseI6s6vG8qtM_18build_script_build, symObjAddr: 0x276C, symBinAddr: 0x10000BF30, symSize: 0x58 }
  - { offset: 0x201C8, size: 0x8, addend: 0x0, symName: __RNvYNCINvNtCscOYdFFY2T5N_3std2rt10lang_startuE0INtNtNtCsfvfooZQ3Axs_4core3ops8function6FnOnceuE9call_onceCseI6s6vG8qtM_18build_script_build, symObjAddr: 0x27C4, symBinAddr: 0x10000BF88, symSize: 0x4C }
  - { offset: 0x2020C, size: 0x8, addend: 0x0, symName: __RNvYNCNkNvNvMNtNtCscOYdFFY2T5N_3std4hash6randomNtBb_11RandomState3new4KEYS0s_0INtNtNtCsfvfooZQ3Axs_4core3ops8function6FnOnceTINtNtB1l_6option6OptionQIB20_INtNtB1l_4cell4CellTyyEEEEEE9call_onceCseI6s6vG8qtM_18build_script_build, symObjAddr: 0x2810, symBinAddr: 0x10000BFD4, symSize: 0x4C }
  - { offset: 0x20250, size: 0x8, addend: 0x0, symName: __RNvYNvMNtCsfvfooZQ3Axs_4core6optionINtB5_6OptionINtNtB7_4cell4CellTyyEEE4takeINtNtNtB7_3ops8function6FnOnceTQBx_EE9call_onceCseI6s6vG8qtM_18build_script_build, symObjAddr: 0x2B2C, symBinAddr: 0x10000C2F0, symSize: 0x24 }
  - { offset: 0x20294, size: 0x8, addend: 0x0, symName: __RNvYNvNvNvMNtNtCscOYdFFY2T5N_3std4hash6randomNtB9_11RandomState3new4KEYS6___initINtNtNtCsfvfooZQ3Axs_4core3ops8function6FnOnceuE9call_onceCseI6s6vG8qtM_18build_script_build, symObjAddr: 0x2B50, symBinAddr: 0x10000C314, symSize: 0x1C }
  - { offset: 0x202E4, size: 0x8, addend: 0x0, symName: __RNvXNtNtCsfvfooZQ3Axs_4core3ops12control_flowINtB2_11ControlFlowNtCsgq90m4oCT4f_13phf_generator9HashStateENtNtB4_9try_trait3Try11from_outputCseI6s6vG8qtM_18build_script_build, symObjAddr: 0x1B90, symBinAddr: 0x10000B354, symSize: 0x18 }
  - { offset: 0x20322, size: 0x8, addend: 0x0, symName: __RNvXNtNtCsfvfooZQ3Axs_4core3ops12control_flowINtB2_11ControlFlowNtCsgq90m4oCT4f_13phf_generator9HashStateENtNtB4_9try_trait3Try6branchCseI6s6vG8qtM_18build_script_build, symObjAddr: 0x1BA8, symBinAddr: 0x10000B36C, symSize: 0x8C }
  - { offset: 0x2039B, size: 0x8, addend: 0x0, symName: __RNvXNtNtCsfvfooZQ3Axs_4core3ops12control_flowINtB2_11ControlFlowReENtNtB4_9try_trait3Try11from_outputCseI6s6vG8qtM_18build_script_build, symObjAddr: 0x1C34, symBinAddr: 0x10000B3F8, symSize: 0x18 }
  - { offset: 0x203D9, size: 0x8, addend: 0x0, symName: __RNvXNtNtCsfvfooZQ3Axs_4core3ops12control_flowINtB2_11ControlFlowReENtNtB4_9try_trait3Try6branchCseI6s6vG8qtM_18build_script_build, symObjAddr: 0x1C4C, symBinAddr: 0x10000B410, symSize: 0x64 }
  - { offset: 0x20458, size: 0x8, addend: 0x0, symName: __RNvXs_NtNtCsfvfooZQ3Axs_4core3ops12control_flowINtB4_11ControlFlowNtCsgq90m4oCT4f_13phf_generator9HashStateEINtNtB6_9try_trait12FromResidualIBK_B12_NtNtB8_7convert10InfallibleEE13from_residualCseI6s6vG8qtM_18build_script_build, symObjAddr: 0x2484, symBinAddr: 0x10000BC48, symSize: 0x48 }
  - { offset: 0x20497, size: 0x8, addend: 0x0, symName: __RNvXs_NtNtCsfvfooZQ3Axs_4core3ops12control_flowINtB4_11ControlFlowReEINtNtB6_9try_trait12FromResidualIBK_B12_NtNtB8_7convert10InfallibleEE13from_residualCseI6s6vG8qtM_18build_script_build, symObjAddr: 0x24CC, symBinAddr: 0x10000BC90, symSize: 0x2C }
  - { offset: 0x207FE, size: 0x8, addend: 0x0, symName: __RNvNtNtNtCsfvfooZQ3Axs_4core7unicode12unicode_data11white_space6lookupCseI6s6vG8qtM_18build_script_build, symObjAddr: 0x1974, symBinAddr: 0x10000B138, symSize: 0x14C }
  - { offset: 0x20896, size: 0x8, addend: 0x0, symName: __RNvNtNtNtNtCsfvfooZQ3Axs_4core9core_arch7aarch644neon9generated8vcgez_s8CseI6s6vG8qtM_18build_script_build, symObjAddr: 0x1AC0, symBinAddr: 0x10000B284, symSize: 0x68 }
  - { offset: 0x20938, size: 0x8, addend: 0x0, symName: __RNvNtNtNtNtCsfvfooZQ3Axs_4core9core_arch7aarch644neon9generated8vcltz_s8CseI6s6vG8qtM_18build_script_build, symObjAddr: 0x1B28, symBinAddr: 0x10000B2EC, symSize: 0x68 }
  - { offset: 0x20B99, size: 0x8, addend: 0x0, symName: __RNvYTmmENtNtCsfvfooZQ3Axs_4core5clone5Clone5cloneCseI6s6vG8qtM_18build_script_build, symObjAddr: 0x2B6C, symBinAddr: 0x10000C330, symSize: 0x2C }
  - { offset: 0x20E1E, size: 0x8, addend: 0x0, symName: __RNvCseI6s6vG8qtM_18build_script_build38ASCII_CASE_INSENSITIVE_HTML_ATTRIBUTES, symObjAddr: 0x3A28, symBinAddr: 0x100074618, symSize: 0x0 }
  - { offset: 0x20E2B, size: 0x8, addend: 0x0, symName: __RNvCseI6s6vG8qtM_18build_script_build4main, symObjAddr: 0x2B98, symBinAddr: 0x10000C35C, symSize: 0x404 }
  - { offset: 0x21092, size: 0x8, addend: 0x0, symName: __RINvMs0_NtNtNtNtCscOYdFFY2T5N_3std3sys12thread_local6native4lazyINtB6_7StorageINtNtCsfvfooZQ3Axs_4core4cell4CellTyyEEzE10initializeNvNvNvMNtNtBe_4hash6randomNtB2c_11RandomState3new4KEYS6___initECseI6s6vG8qtM_18build_script_build, symObjAddr: 0x0, symBinAddr: 0x100053058, symSize: 0x264 }
  - { offset: 0x212E6, size: 0x8, addend: 0x0, symName: __RINvMs0_NtNtNtNtCscOYdFFY2T5N_3std3sys12thread_local6native4lazyINtB6_7StorageINtNtCsfvfooZQ3Axs_4core4cell4CellTyyEEzE11get_or_initNvNvNvMNtNtBe_4hash6randomNtB2d_11RandomState3new4KEYS6___initECseI6s6vG8qtM_18build_script_build, symObjAddr: 0x264, symBinAddr: 0x100009A78, symSize: 0xC4 }
  - { offset: 0x21519, size: 0x8, addend: 0x0, symName: __RINvXs_NtNtCse1nGBsou5OW_5alloc3vec14spec_from_elemINtNtCsfvfooZQ3Axs_4core6option6OptionjENtB5_12SpecFromElem9from_elemNtNtB9_5alloc6GlobalECseI6s6vG8qtM_18build_script_build, symObjAddr: 0x138C, symBinAddr: 0x10000AB50, symSize: 0x1BC }
  - { offset: 0x216F1, size: 0x8, addend: 0x0, symName: __RNvXNvXsd_NtNtCse1nGBsou5OW_5alloc3vec9into_iterINtB8_8IntoIterppENtNtNtCsfvfooZQ3Axs_4core3ops4drop4Drop4dropINtB2_9DropGuardINtNtB18_6option6OptionjENtNtBc_5alloc6GlobalEB12_4dropCseI6s6vG8qtM_18build_script_build, symObjAddr: 0x1CEC, symBinAddr: 0x10000B4B0, symSize: 0x7C }
  - { offset: 0x21827, size: 0x8, addend: 0x0, symName: __RNvXsd_NtNtCse1nGBsou5OW_5alloc3vec9into_iterINtB5_8IntoIterINtNtCsfvfooZQ3Axs_4core6option6OptionjEENtNtNtB11_3ops4drop4Drop4dropCseI6s6vG8qtM_18build_script_build, symObjAddr: 0x24F8, symBinAddr: 0x10000BCBC, symSize: 0x8C }
  - { offset: 0x218C7, size: 0x8, addend: 0x0, symName: __RNvXs3_NtNtCse1nGBsou5OW_5alloc3vec9into_iterINtB5_8IntoIterINtNtCsfvfooZQ3Axs_4core6option6OptionjEENtNtNtNtB11_4iter6traits8iterator8Iterator24___iterator_get_uncheckedCseI6s6vG8qtM_18build_script_build, symObjAddr: 0x2378, symBinAddr: 0x10000BB3C, symSize: 0x28 }
  - { offset: 0x21956, size: 0x8, addend: 0x0, symName: __RNvXs3_NtNtCse1nGBsou5OW_5alloc3vec9into_iterINtB5_8IntoIterINtNtCsfvfooZQ3Axs_4core6option6OptionjEENtNtNtNtB11_4iter6traits8iterator8Iterator9size_hintCseI6s6vG8qtM_18build_script_build, symObjAddr: 0x23A0, symBinAddr: 0x10000BB64, symSize: 0x6C }
  - { offset: 0x219B7, size: 0x8, addend: 0x0, symName: __RNvXsf_NtNtCse1nGBsou5OW_5alloc3vec9into_iterINtB5_8IntoIterINtNtCsfvfooZQ3Axs_4core6option6OptionjEENtNtNtB11_4iter8adapters10SourceIter8as_innerCseI6s6vG8qtM_18build_script_build, symObjAddr: 0x2584, symBinAddr: 0x10000BD48, symSize: 0x14 }
  - { offset: 0x219FD, size: 0x8, addend: 0x0, symName: __RNvXsg_NtNtCse1nGBsou5OW_5alloc3vec9into_iterINtB5_8IntoIterINtNtCsfvfooZQ3Axs_4core6option6OptionjEENtNtB7_16in_place_collect13AsVecIntoIter12as_into_iterCseI6s6vG8qtM_18build_script_build, symObjAddr: 0x2598, symBinAddr: 0x10000BD5C, symSize: 0x14 }
  - { offset: 0x21A3B, size: 0x8, addend: 0x0, symName: __RNSINvNtNtCse1nGBsou5OW_5alloc3vec16in_place_collect18from_iter_in_placeINtNtNtNtCsfvfooZQ3Axs_4core4iter8adapters3map3MapINtNtB6_9into_iter8IntoIterINtNtB1h_6option6OptionjEENCINvCsgq90m4oCT4f_13phf_generator17try_generate_hashReEs1_0EjE5reifyCseI6s6vG8qtM_18build_script_build, symObjAddr: 0x1624, symBinAddr: 0x10000ADE8, symSize: 0x1C }
  - { offset: 0x21AFC, size: 0x8, addend: 0x0, symName: __RNvXs0_NtNtCse1nGBsou5OW_5alloc3vec13in_place_dropINtB5_24InPlaceDstDataSrcBufDropINtNtCsfvfooZQ3Axs_4core6option6OptionjEjENtNtNtB1n_3ops4drop4Drop4dropCseI6s6vG8qtM_18build_script_build, symObjAddr: 0x1D68, symBinAddr: 0x10000B52C, symSize: 0x8C }
  - { offset: 0x21C48, size: 0x8, addend: 0x0, symName: __RNvXs_NtNtCse1nGBsou5OW_5alloc3vec13in_place_dropINtB4_11InPlaceDropjENtNtNtCsfvfooZQ3Axs_4core3ops4drop4Drop4dropCseI6s6vG8qtM_18build_script_build, symObjAddr: 0x242C, symBinAddr: 0x10000BBF0, symSize: 0x58 }
  - { offset: 0x21D28, size: 0x8, addend: 0x0, symName: __RNvXsN_NtNtCse1nGBsou5OW_5alloc3vec7is_zeroINtNtCsfvfooZQ3Axs_4core6option6OptionjENtB5_6IsZero7is_zeroCseI6s6vG8qtM_18build_script_build, symObjAddr: 0x240C, symBinAddr: 0x10000BBD0, symSize: 0x20 }
  - { offset: 0x22306, size: 0x8, addend: 0x0, symName: __RNCINvMNtCse1nGBsou5OW_5alloc5sliceSNtNvCsgq90m4oCT4f_13phf_generator17try_generate_hash6Bucket7sort_byNCIBA_ReEs0_0E0CseI6s6vG8qtM_18build_script_build, symObjAddr: 0x15C0, symBinAddr: 0x10000AD84, symSize: 0x64 }
  - { offset: 0x223F3, size: 0x8, addend: 0x0, symName: __RINvNtCse1nGBsou5OW_5alloc5slice11stable_sortNtNvCsgq90m4oCT4f_13phf_generator17try_generate_hash6BucketNCINvMB2_SBH_7sort_byNCIBJ_ReEs0_0E0ECseI6s6vG8qtM_18build_script_build, symObjAddr: 0x390, symBinAddr: 0x100009BA4, symSize: 0xC8 }
  - { offset: 0x225C2, size: 0x8, addend: 0x0, symName: __RNvXs2_NtCse1nGBsou5OW_5alloc3streNtNtB7_6borrow7ToOwned8to_ownedCseI6s6vG8qtM_18build_script_build, symObjAddr: 0x22CC, symBinAddr: 0x10000BA90, symSize: 0x50 }
  - { offset: 0x228BC, size: 0x8, addend: 0x0, symName: __RINvYNtNtNtCsg10Tkzhqh8d_4rand4rngs5small8SmallRngNtNtB9_3rng3Rng11sample_iteryNtNtB9_13distributions8StandardECseI6s6vG8qtM_18build_script_build, symObjAddr: 0x1594, symBinAddr: 0x10000AD58, symSize: 0x2C }
  - { offset: 0x229DC, size: 0x8, addend: 0x0, symName: __RNvMNtCsfvfooZQ3Axs_4core6optionINtB2_6OptionINtNtB4_4cell4CellTyyEEE4takeCseI6s6vG8qtM_18build_script_build, symObjAddr: 0x16D8, symBinAddr: 0x10000AE9C, symSize: 0x3C }
  - { offset: 0x22A80, size: 0x8, addend: 0x0, symName: __RNvMNtCsfvfooZQ3Axs_4core6optionINtB2_6OptionNtCsgq90m4oCT4f_13phf_generator9HashStateE6expectCseI6s6vG8qtM_18build_script_build, symObjAddr: 0x1714, symBinAddr: 0x10000AED8, symSize: 0x70 }
  - { offset: 0x22AC9, size: 0x8, addend: 0x0, symName: __RNvMNtCsfvfooZQ3Axs_4core6optionINtB2_6OptionjE7is_someCseI6s6vG8qtM_18build_script_build, symObjAddr: 0x1784, symBinAddr: 0x10000AF48, symSize: 0x20 }
  - { offset: 0x22B1C, size: 0x8, addend: 0x0, symName: __RNvMNtNtCse1nGBsou5OW_5alloc3vec13in_place_dropINtB2_11InPlaceDropjE3lenCseI6s6vG8qtM_18build_script_build, symObjAddr: 0x17A4, symBinAddr: 0x10000AF68, symSize: 0x7C }
  - { offset: 0x22C06, size: 0x8, addend: 0x0, symName: __RNvMs1x_NtNtCsfvfooZQ3Axs_4core5slice4iterINtB6_14ChunksExactMuthE14into_remainderCseI6s6vG8qtM_18build_script_build, symObjAddr: 0x1820, symBinAddr: 0x10000AFE4, symSize: 0x10 }
  - { offset: 0x22D2E, size: 0x8, addend: 0x0, symName: __RNvMs4_NtNtCsfvfooZQ3Axs_4core5slice4iterINtB5_4IterNtCsbvn0pgfta96_10phf_shared6HashesE3newCseI6s6vG8qtM_18build_script_build, symObjAddr: 0x1830, symBinAddr: 0x10000AFF4, symSize: 0x58 }
  - { offset: 0x22EEF, size: 0x8, addend: 0x0, symName: __RNvMs4_NtNtCsfvfooZQ3Axs_4core5slice4iterINtB5_4IterReE3newCseI6s6vG8qtM_18build_script_build, symObjAddr: 0x1888, symBinAddr: 0x10000B04C, symSize: 0x50 }
  - { offset: 0x2311D, size: 0x8, addend: 0x0, symName: __RNvMs_NtNtCse1nGBsou5OW_5alloc3vec9into_iterINtB4_8IntoIterINtNtCsfvfooZQ3Axs_4core6option6OptionjEE32forget_allocation_drop_remainingCseI6s6vG8qtM_18build_script_build, symObjAddr: 0x18D8, symBinAddr: 0x10000B09C, symSize: 0x9C }
  - { offset: 0x23AFF, size: 0x8, addend: 0x0, symName: __RNvYNtNtNtCsg10Tkzhqh8d_4rand4rngs5small8SmallRngNtCsc9oQL4R8Sxl_9rand_core11SeedableRng13seed_from_u64CseI6s6vG8qtM_18build_script_build, symObjAddr: 0x285C, symBinAddr: 0x10000C020, symSize: 0x2D0 }
  - { offset: 0x24507, size: 0x8, addend: 0x0, symName: __RINvMs2_NtNtCscOYdFFY2T5N_3std6thread5localINtB6_8LocalKeyINtNtCsfvfooZQ3Axs_4core4cell4CellTyyEEE4withNCNvMNtNtBa_4hash6randomNtB1I_11RandomState3new0B21_ECseI6s6vG8qtM_18build_script_build, symObjAddr: 0x0, symBinAddr: 0x10000C78C, symSize: 0x50 }
  - { offset: 0x24BFE, size: 0x8, addend: 0x0, symName: __RNvYjNtNtCsfvfooZQ3Axs_4core3cmp3Ord3maxCseI6s6vG8qtM_18build_script_build, symObjAddr: 0x2434, symBinAddr: 0x10000EBC0, symSize: 0x80 }
  - { offset: 0x24D2D, size: 0x8, addend: 0x0, symName: __RNvXs1n_NtNtCsfvfooZQ3Axs_4core3fmt3numyNtB8_5Debug3fmtCseI6s6vG8qtM_18build_script_build, symObjAddr: 0x1530, symBinAddr: 0x10000DCBC, symSize: 0x90 }
  - { offset: 0x25C5D, size: 0x8, addend: 0x0, symName: __RINvYINtNtNtCsfvfooZQ3Axs_4core3ops5range5RangejENtNtNtNtBa_4iter6traits8iterator8Iterator3mapNtNvCsgq90m4oCT4f_13phf_generator17try_generate_hash6BucketNCIB1w_ReEs_0ECseI6s6vG8qtM_18build_script_build, symObjAddr: 0x49C, symBinAddr: 0x10000CC28, symSize: 0x14 }
  - { offset: 0x25CB5, size: 0x8, addend: 0x0, symName: __RINvYINtNtNtCsfvfooZQ3Axs_4core3ops5range5RangejENtNtNtNtBa_4iter6traits8iterator8Iterator4folduNCINvNtNtBR_8adapters3map8map_foldjNtNvCsgq90m4oCT4f_13phf_generator17try_generate_hash6BucketuNCIB27_ReEs_0NCINvNvBL_8for_each4callB25_NCINvMsi_NtCse1nGBsou5OW_5alloc3vecINtB3R_3VecB25_E14extend_trustedINtB1B_3MapB3_B33_EE0E0E0ECseI6s6vG8qtM_18build_script_build, symObjAddr: 0x4B0, symBinAddr: 0x10000CC3C, symSize: 0xE0 }
  - { offset: 0x25D4F, size: 0x8, addend: 0x0, symName: __RNCINvNvNtNtNtNtCsfvfooZQ3Axs_4core4iter6traits8iterator8Iterator4find5checkReQNtNtBe_3str10IsNotEmptyE0CseI6s6vG8qtM_18build_script_build, symObjAddr: 0x5FC, symBinAddr: 0x10000CD88, symSize: 0x84 }
  - { offset: 0x25DB7, size: 0x8, addend: 0x0, symName: __RNCINvNvNtNtNtNtCsfvfooZQ3Axs_4core4iter6traits8iterator8Iterator8find_map5checkyNtCsgq90m4oCT4f_13phf_generator9HashStateNCINvB1j_13generate_hashReE0E0CseI6s6vG8qtM_18build_script_build, symObjAddr: 0x680, symBinAddr: 0x10000CE0C, symSize: 0x88 }
  - { offset: 0x25E47, size: 0x8, addend: 0x0, symName: __RNCINvNvNtNtNtNtCsfvfooZQ3Axs_4core4iter6traits8iterator8Iterator8for_each4callNtCsbvn0pgfta96_10phf_shared6HashesNCINvMsi_NtCse1nGBsou5OW_5alloc3vecINtB1X_3VecB1f_E14extend_trustedINtNtNtBc_8adapters3map3MapINtNtNtBe_5slice4iter4IterReENCINvCsgq90m4oCT4f_13phf_generator17try_generate_hashB3K_E0EE0E0CseI6s6vG8qtM_18build_script_build, symObjAddr: 0x708, symBinAddr: 0x10000CE94, symSize: 0x3C }
  - { offset: 0x25EA0, size: 0x8, addend: 0x0, symName: __RNCINvNvNtNtNtNtCsfvfooZQ3Axs_4core4iter6traits8iterator8Iterator8for_each4callNtNvCsgq90m4oCT4f_13phf_generator17try_generate_hash6BucketNCINvMsi_NtCse1nGBsou5OW_5alloc3vecINtB2l_3VecB1f_E14extend_trustedINtNtNtBc_8adapters3map3MapINtNtNtBe_3ops5range5RangejENCIB1h_ReEs_0EE0E0CseI6s6vG8qtM_18build_script_build, symObjAddr: 0x744, symBinAddr: 0x10000CED0, symSize: 0x3C }
  - { offset: 0x25F1B, size: 0x8, addend: 0x0, symName: __RNvXs3_NtNtCsfvfooZQ3Axs_4core4iter5rangeINtNtNtB9_3ops5range5RangejENtB5_17RangeIteratorImpl9spec_nextCseI6s6vG8qtM_18build_script_build, symObjAddr: 0x19B0, symBinAddr: 0x10000E13C, symSize: 0x94 }
  - { offset: 0x25F9C, size: 0x8, addend: 0x0, symName: __RNvXs4_NtNtCsfvfooZQ3Axs_4core4iter5rangeINtNtNtB9_3ops5range5RangejENtNtNtB7_6traits8iterator8Iterator4nextCseI6s6vG8qtM_18build_script_build, symObjAddr: 0x1A44, symBinAddr: 0x10000E1D0, symSize: 0x24 }
  - { offset: 0x25FD3, size: 0x8, addend: 0x0, symName: __RNvXs4_NtNtCsfvfooZQ3Axs_4core4iter5rangeINtNtNtB9_3ops5range5RangejENtNtNtB7_6traits8iterator8Iterator9size_hintCseI6s6vG8qtM_18build_script_build, symObjAddr: 0x1A68, symBinAddr: 0x10000E1F4, symSize: 0x88 }
  - { offset: 0x26068, size: 0x8, addend: 0x0, symName: __RNvXsh_NtNtNtCsfvfooZQ3Axs_4core4iter8adapters7step_byINtNtNtBb_3ops5range5RangejEINtB5_14SpecRangeSetupBQ_E5setupCseI6s6vG8qtM_18build_script_build, symObjAddr: 0x22A8, symBinAddr: 0x10000EA34, symSize: 0x12C }
  - { offset: 0x262F1, size: 0x8, addend: 0x0, symName: __RNvNtNtCsfvfooZQ3Axs_4core4hash3sip9u8to64_leCseI6s6vG8qtM_18build_script_build, symObjAddr: 0xEA0, symBinAddr: 0x10000D62C, symSize: 0x228 }
  - { offset: 0x264AE, size: 0x8, addend: 0x0, symName: __RNvXs3_NtNtCsfvfooZQ3Axs_4core4hash3sipINtB5_6HasherNtB5_11Sip13RoundsENtB7_6Hasher5writeCseI6s6vG8qtM_18build_script_build, symObjAddr: 0x1684, symBinAddr: 0x10000DE10, symSize: 0x230 }
  - { offset: 0x26624, size: 0x8, addend: 0x0, symName: __RNvXs3_NtNtCsfvfooZQ3Axs_4core4hash3sipINtB5_6HasherNtB5_11Sip13RoundsENtB7_6Hasher6finishCseI6s6vG8qtM_18build_script_build, symObjAddr: 0x18B4, symBinAddr: 0x10000E040, symSize: 0xA0 }
  - { offset: 0x26697, size: 0x8, addend: 0x0, symName: __RNvXs3_NtNtCsfvfooZQ3Axs_4core4hash3sipINtB5_6HasherNtB5_11Sip13RoundsENtB7_6Hasher9write_strCseI6s6vG8qtM_18build_script_build, symObjAddr: 0x1954, symBinAddr: 0x10000E0E0, symSize: 0x5C }
  - { offset: 0x266FD, size: 0x8, addend: 0x0, symName: __RNvXs6_NtNtCsfvfooZQ3Axs_4core4hash3sipNtB5_11Sip13RoundsNtB5_3Sip8c_roundsCseI6s6vG8qtM_18build_script_build, symObjAddr: 0x1C14, symBinAddr: 0x10000E3A0, symSize: 0x170 }
  - { offset: 0x26873, size: 0x8, addend: 0x0, symName: __RNvXs6_NtNtCsfvfooZQ3Axs_4core4hash3sipNtB5_11Sip13RoundsNtB5_3Sip8d_roundsCseI6s6vG8qtM_18build_script_build, symObjAddr: 0x1D84, symBinAddr: 0x10000E510, symSize: 0x408 }
  - { offset: 0x26E30, size: 0x8, addend: 0x0, symName: __RNvNvXs0_NtNtCsfvfooZQ3Axs_4core5slice5indexjINtB7_10SliceIndexSpE13get_unchecked18precondition_checkCseI6s6vG8qtM_18build_script_build, symObjAddr: 0x111C, symBinAddr: 0x10000D8A8, symSize: 0x40 }
  - { offset: 0x26E67, size: 0x8, addend: 0x0, symName: __RNvXs0_NtNtCsfvfooZQ3Axs_4core5slice5indexjINtB5_10SliceIndexSINtNtB9_6option6OptionjEE5indexCseI6s6vG8qtM_18build_script_build, symObjAddr: 0x11FC, symBinAddr: 0x10000D988, symSize: 0x5C }
  - { offset: 0x26EAD, size: 0x8, addend: 0x0, symName: __RNvXs0_NtNtCsfvfooZQ3Axs_4core5slice5indexjINtB5_10SliceIndexSINtNtB9_6option6OptionjEE9index_mutCseI6s6vG8qtM_18build_script_build, symObjAddr: 0x1258, symBinAddr: 0x10000D9E4, symSize: 0x5C }
  - { offset: 0x26EF3, size: 0x8, addend: 0x0, symName: __RNvXs0_NtNtCsfvfooZQ3Axs_4core5slice5indexjINtB5_10SliceIndexSNtCsbvn0pgfta96_10phf_shared6HashesE5indexCseI6s6vG8qtM_18build_script_build, symObjAddr: 0x12B4, symBinAddr: 0x10000DA40, symSize: 0x64 }
  - { offset: 0x26F39, size: 0x8, addend: 0x0, symName: __RNvXs0_NtNtCsfvfooZQ3Axs_4core5slice5indexjINtB5_10SliceIndexSNtNvCsgq90m4oCT4f_13phf_generator17try_generate_hash6BucketE9index_mutCseI6s6vG8qtM_18build_script_build, symObjAddr: 0x1318, symBinAddr: 0x10000DAA4, symSize: 0x5C }
  - { offset: 0x26F7F, size: 0x8, addend: 0x0, symName: __RNvXs0_NtNtCsfvfooZQ3Axs_4core5slice5indexjINtB5_10SliceIndexSTmmEE9index_mutCseI6s6vG8qtM_18build_script_build, symObjAddr: 0x1374, symBinAddr: 0x10000DB00, symSize: 0x5C }
  - { offset: 0x26FC5, size: 0x8, addend: 0x0, symName: __RNvXs0_NtNtCsfvfooZQ3Axs_4core5slice5indexjINtB5_10SliceIndexShE13get_uncheckedCseI6s6vG8qtM_18build_script_build, symObjAddr: 0x13D0, symBinAddr: 0x10000DB5C, symSize: 0x50 }
  - { offset: 0x2702E, size: 0x8, addend: 0x0, symName: __RNvXs0_NtNtCsfvfooZQ3Axs_4core5slice5indexjINtB5_10SliceIndexSyE5indexCseI6s6vG8qtM_18build_script_build, symObjAddr: 0x1420, symBinAddr: 0x10000DBAC, symSize: 0x5C }
  - { offset: 0x27074, size: 0x8, addend: 0x0, symName: __RNvXs0_NtNtCsfvfooZQ3Axs_4core5slice5indexjINtB5_10SliceIndexSyE9index_mutCseI6s6vG8qtM_18build_script_build, symObjAddr: 0x147C, symBinAddr: 0x10000DC08, symSize: 0x5C }
  - { offset: 0x270C5, size: 0x8, addend: 0x0, symName: __RNvNvXs1_NtNtCsfvfooZQ3Axs_4core5slice5indexNtNtNtBb_3ops11index_range10IndexRangeINtB7_10SliceIndexSpE17get_unchecked_mut18precondition_checkCseI6s6vG8qtM_18build_script_build, symObjAddr: 0x115C, symBinAddr: 0x10000D8E8, symSize: 0x40 }
  - { offset: 0x27107, size: 0x8, addend: 0x0, symName: __RNvNvXs2_NtNtCsfvfooZQ3Axs_4core5slice5indexINtNtNtBb_3ops5range5RangejEINtB7_10SliceIndexSpE17get_unchecked_mut18precondition_checkCseI6s6vG8qtM_18build_script_build, symObjAddr: 0x119C, symBinAddr: 0x10000D928, symSize: 0x60 }
  - { offset: 0x2714C, size: 0x8, addend: 0x0, symName: __RNvXs2_NtNtCsfvfooZQ3Axs_4core5slice5indexINtNtNtB9_3ops5range5RangejEINtB5_10SliceIndexSNtNvCsgq90m4oCT4f_13phf_generator17try_generate_hash6BucketE9index_mutCseI6s6vG8qtM_18build_script_build, symObjAddr: 0x15C4, symBinAddr: 0x10000DD50, symSize: 0xC0 }
  - { offset: 0x27313, size: 0x8, addend: 0x0, symName: __RNvXs5_NtNtCsfvfooZQ3Axs_4core5slice5indexINtNtNtB9_3ops5range9RangeFromjEINtB5_10SliceIndexSNtNvCsgq90m4oCT4f_13phf_generator17try_generate_hash6BucketE9index_mutCseI6s6vG8qtM_18build_script_build, symObjAddr: 0x1B7C, symBinAddr: 0x10000E308, symSize: 0x98 }
  - { offset: 0x274C7, size: 0x8, addend: 0x0, symName: __RNvNvNtCsfvfooZQ3Axs_4core4hint16assert_unchecked18precondition_checkCseI6s6vG8qtM_18build_script_build, symObjAddr: 0x10C8, symBinAddr: 0x10000D854, symSize: 0x38 }
  - { offset: 0x274F5, size: 0x8, addend: 0x0, symName: __RNvNvNtCsfvfooZQ3Axs_4core4hint21unreachable_unchecked18precondition_checkCseI6s6vG8qtM_18build_script_build, symObjAddr: 0x1100, symBinAddr: 0x10000D88C, symSize: 0x1C }
  - { offset: 0x27675, size: 0x8, addend: 0x0, symName: __RINvMs2_NtNtCscOYdFFY2T5N_3std6thread5localINtB6_8LocalKeyINtNtCsfvfooZQ3Axs_4core4cell4CellTyyEEE4withNCNvMNtNtBa_4hash6randomNtB1I_11RandomState3new0B21_ECseI6s6vG8qtM_18build_script_build, symObjAddr: 0x0, symBinAddr: 0x10000C78C, symSize: 0x50 }
  - { offset: 0x2772E, size: 0x8, addend: 0x0, symName: __RINvMs2_NtNtCscOYdFFY2T5N_3std6thread5localINtB6_8LocalKeyINtNtCsfvfooZQ3Axs_4core4cell4CellTyyEEE8try_withNCNvMNtNtBa_4hash6randomNtB1M_11RandomState3new0B25_ECseI6s6vG8qtM_18build_script_build, symObjAddr: 0x50, symBinAddr: 0x10000C7DC, symSize: 0xE8 }
  - { offset: 0x27A5C, size: 0x8, addend: 0x0, symName: __RNvNtCse1nGBsou5OW_5alloc5alloc12alloc_zeroedCseI6s6vG8qtM_18build_script_build, symObjAddr: 0xD98, symBinAddr: 0x10000D524, symSize: 0x84 }
  - { offset: 0x27AF3, size: 0x8, addend: 0x0, symName: __RNvNtCse1nGBsou5OW_5alloc5alloc5allocCseI6s6vG8qtM_18build_script_build, symObjAddr: 0xE1C, symBinAddr: 0x10000D5A8, symSize: 0x84 }
  - { offset: 0x27B8F, size: 0x8, addend: 0x0, symName: __RNvXs2_NtCse1nGBsou5OW_5alloc5allocNtB5_6GlobalNtNtCsfvfooZQ3Axs_4core7default7Default7defaultCseI6s6vG8qtM_18build_script_build, symObjAddr: 0x15C0, symBinAddr: 0x10000DD4C, symSize: 0x4 }
  - { offset: 0x27BD1, size: 0x8, addend: 0x0, symName: __RNvXs_NtCse1nGBsou5OW_5alloc5allocNtB4_6GlobalNtNtCsfvfooZQ3Axs_4core5alloc9Allocator10deallocateCseI6s6vG8qtM_18build_script_build, symObjAddr: 0x218C, symBinAddr: 0x10000E918, symSize: 0x88 }
  - { offset: 0x27CAC, size: 0x8, addend: 0x0, symName: __RNvXs_NtCse1nGBsou5OW_5alloc5allocNtB4_6GlobalNtNtCsfvfooZQ3Axs_4core5alloc9Allocator8allocateCseI6s6vG8qtM_18build_script_build, symObjAddr: 0x2214, symBinAddr: 0x10000E9A0, symSize: 0x34 }
  - { offset: 0x27DD1, size: 0x8, addend: 0x0, symName: __RINvXs_NtNtCse1nGBsou5OW_5alloc3vec14spec_from_elemTmmENtB5_12SpecFromElem9from_elemNtNtB9_5alloc6GlobalECseI6s6vG8qtM_18build_script_build, symObjAddr: 0x138, symBinAddr: 0x10000C8C4, symSize: 0x1BC }
  - { offset: 0x27EE5, size: 0x8, addend: 0x0, symName: __RINvXs_NtNtCse1nGBsou5OW_5alloc3vec14spec_from_elemyNtB5_12SpecFromElem9from_elemNtNtB9_5alloc6GlobalECseI6s6vG8qtM_18build_script_build, symObjAddr: 0x2F4, symBinAddr: 0x10000CA80, symSize: 0x1A8 }
  - { offset: 0x2809D, size: 0x8, addend: 0x0, symName: __RNvXs_NtNtCse1nGBsou5OW_5alloc3vec15set_len_on_dropNtB4_12SetLenOnDropNtNtNtCsfvfooZQ3Axs_4core3ops4drop4Drop4dropCseI6s6vG8qtM_18build_script_build, symObjAddr: 0x2248, symBinAddr: 0x10000E9D4, symSize: 0x20 }
  - { offset: 0x28108, size: 0x8, addend: 0x0, symName: __RNvXsb_NtNtCse1nGBsou5OW_5alloc3vec7is_zeromNtB5_6IsZero7is_zeroCseI6s6vG8qtM_18build_script_build, symObjAddr: 0x2268, symBinAddr: 0x10000E9F4, symSize: 0x20 }
  - { offset: 0x28164, size: 0x8, addend: 0x0, symName: __RNvXsc_NtNtCse1nGBsou5OW_5alloc3vec7is_zeroyNtB5_6IsZero7is_zeroCseI6s6vG8qtM_18build_script_build, symObjAddr: 0x2288, symBinAddr: 0x10000EA14, symSize: 0x20 }
  - { offset: 0x281AA, size: 0x8, addend: 0x0, symName: __RNvXsp_NtNtCse1nGBsou5OW_5alloc3vec7is_zeroTmmENtB5_6IsZero7is_zeroCseI6s6vG8qtM_18build_script_build, symObjAddr: 0x23D4, symBinAddr: 0x10000EB60, symSize: 0x60 }
  - { offset: 0x284CA, size: 0x8, addend: 0x0, symName: __RNCINvNtCsloNvcHxBCre_9hashbrown3map11make_hasherRReuNtNtNtCscOYdFFY2T5N_3std4hash6random11RandomStateE0CseI6s6vG8qtM_18build_script_build, symObjAddr: 0x590, symBinAddr: 0x10000CD1C, symSize: 0x3C }
  - { offset: 0x2854C, size: 0x8, addend: 0x0, symName: __RNCINvNtCsloNvcHxBCre_9hashbrown3map14equivalent_keyRReBO_uE0CseI6s6vG8qtM_18build_script_build, symObjAddr: 0x5CC, symBinAddr: 0x10000CD58, symSize: 0x30 }
  - { offset: 0x286F7, size: 0x8, addend: 0x0, symName: __RNvXs5_NtCsloNvcHxBCre_9hashbrown3mapINtB5_7HashMapRReuNtNtNtCscOYdFFY2T5N_3std4hash6random11RandomStateENtNtCsfvfooZQ3Axs_4core7default7Default7defaultCseI6s6vG8qtM_18build_script_build, symObjAddr: 0x1AF0, symBinAddr: 0x10000E27C, symSize: 0x8C }
  - { offset: 0x28907, size: 0x8, addend: 0x0, symName: __RNvXs1_NtCsloNvcHxBCre_9hashbrown10scopeguardINtB5_10ScopeGuardNtNtB7_3raw13RawTableInnerNCINvMsa_B11_BZ_14prepare_resizeNtNtCse1nGBsou5OW_5alloc5alloc6GlobalE0ENtNtNtCsfvfooZQ3Axs_4core3ops4drop4Drop4dropCseI6s6vG8qtM_18build_script_build, symObjAddr: 0x14D8, symBinAddr: 0x10000DC64, symSize: 0x2C }
  - { offset: 0x28941, size: 0x8, addend: 0x0, symName: __RNvXs1_NtCsloNvcHxBCre_9hashbrown10scopeguardINtB5_10ScopeGuardQNtNtB7_3raw13RawTableInnerNCNvMsa_B12_B10_15rehash_in_place0ENtNtNtCsfvfooZQ3Axs_4core3ops4drop4Drop4dropCseI6s6vG8qtM_18build_script_build, symObjAddr: 0x1504, symBinAddr: 0x10000DC90, symSize: 0x2C }
  - { offset: 0x28B8D, size: 0x8, addend: 0x0, symName: __RNvMNtCse1nGBsou5OW_5alloc5allocNtB2_6Global10alloc_implCseI6s6vG8qtM_18build_script_build, symObjAddr: 0x780, symBinAddr: 0x10000CF0C, symSize: 0x194 }
  - { offset: 0x28E9A, size: 0x8, addend: 0x0, symName: __RNvMNtCsfvfooZQ3Axs_4core3cmpNtB2_8Ordering7reverseCseI6s6vG8qtM_18build_script_build, symObjAddr: 0x914, symBinAddr: 0x10000D0A0, symSize: 0x58 }
  - { offset: 0x28ECA, size: 0x8, addend: 0x0, symName: __RNvMs0_NtNtCsfvfooZQ3Axs_4core4hash3sipINtB5_6HasherNtB5_11Sip13RoundsE5resetCseI6s6vG8qtM_18build_script_build, symObjAddr: 0x96C, symBinAddr: 0x10000D0F8, symSize: 0x8C }
  - { offset: 0x29000, size: 0x8, addend: 0x0, symName: __RNvMs1_NtCsloNvcHxBCre_9hashbrown3mapINtB5_7HashMapRReuNtNtNtCscOYdFFY2T5N_3std4hash6random11RandomStateE6insertCseI6s6vG8qtM_18build_script_build, symObjAddr: 0x9F8, symBinAddr: 0x10000D184, symSize: 0x17C }
  - { offset: 0x291C3, size: 0x8, addend: 0x0, symName: __RNvNtCsc9oQL4R8Sxl_9rand_core2le13read_u64_intoCseI6s6vG8qtM_18build_script_build, symObjAddr: 0xB74, symBinAddr: 0x10000D300, symSize: 0x224 }
  - { offset: 0x297BF, size: 0x8, addend: 0x0, symName: __RINvCsgq90m4oCT4f_13phf_generator13generate_hashReECseI6s6vG8qtM_18build_script_build, symObjAddr: 0x0, symBinAddr: 0x10000EC40, symSize: 0x9C }
  - { offset: 0x29AA6, size: 0x8, addend: 0x0, symName: __RINvNtCsfvfooZQ3Axs_4core3ptr14read_unalignedNtNtNtNtB4_9core_arch10arm_shared4neon9uint8x8_tECseI6s6vG8qtM_18build_script_build, symObjAddr: 0xBC4, symBinAddr: 0x10000F804, symSize: 0x8C }
  - { offset: 0x29B7A, size: 0x8, addend: 0x0, symName: __RINvNtCsfvfooZQ3Axs_4core3ptr15write_unalignedNtNtNtNtB4_9core_arch10arm_shared4neon9uint8x8_tECseI6s6vG8qtM_18build_script_build, symObjAddr: 0xC50, symBinAddr: 0x10000F890, symSize: 0x70 }
  - { offset: 0x29DDB, size: 0x8, addend: 0x0, symName: __RINvNvNtCsfvfooZQ3Axs_4core3ptr19swap_nonoverlapping7runtimehECseI6s6vG8qtM_18build_script_build, symObjAddr: 0xFE0, symBinAddr: 0x10000F918, symSize: 0x1B4 }
  - { offset: 0x2A5E8, size: 0x8, addend: 0x0, symName: __RNvNvNtCsfvfooZQ3Axs_4core3ptr13read_volatile18precondition_checkCseI6s6vG8qtM_18build_script_build, symObjAddr: 0x1A34, symBinAddr: 0x10001036C, symSize: 0x100 }
  - { offset: 0x2A6FD, size: 0x8, addend: 0x0, symName: __RNvNvNtCsfvfooZQ3Axs_4core3ptr7replace18precondition_checkCseI6s6vG8qtM_18build_script_build, symObjAddr: 0x1E34, symBinAddr: 0x10001046C, symSize: 0x100 }
  - { offset: 0x2ABDB, size: 0x8, addend: 0x0, symName: __RINvNtNtNtCsfvfooZQ3Axs_4core9core_arch10arm_shared4neon13vget_lane_u64Kl0_ECseI6s6vG8qtM_18build_script_build, symObjAddr: 0xD90, symBinAddr: 0x10000F900, symSize: 0x18 }
  - { offset: 0x2AC2B, size: 0x8, addend: 0x0, symName: __RNvNtNtNtCsfvfooZQ3Axs_4core9core_arch10arm_shared4neon9vdup_n_u8CseI6s6vG8qtM_18build_script_build, symObjAddr: 0x199C, symBinAddr: 0x1000102D4, symSize: 0x34 }
  - { offset: 0x2ACAE, size: 0x8, addend: 0x0, symName: __RNvNtNtNtCsfvfooZQ3Axs_4core9core_arch7aarch644neon7vld1_u8CseI6s6vG8qtM_18build_script_build, symObjAddr: 0x19D0, symBinAddr: 0x100010308, symSize: 0x2C }
  - { offset: 0x2ACDC, size: 0x8, addend: 0x0, symName: __RNvNtNtNtCsfvfooZQ3Axs_4core9core_arch7aarch644neon7vst1_u8CseI6s6vG8qtM_18build_script_build, symObjAddr: 0x19FC, symBinAddr: 0x100010334, symSize: 0x38 }
  - { offset: 0x2B0B0, size: 0x8, addend: 0x0, symName: __RINvYNtNtNtCscOYdFFY2T5N_3std4hash6random11RandomStateNtNtCsfvfooZQ3Axs_4core4hash11BuildHasher8hash_oneRRReECseI6s6vG8qtM_18build_script_build, symObjAddr: 0x1194, symBinAddr: 0x10000FACC, symSize: 0x84 }
  - { offset: 0x2B7BE, size: 0x8, addend: 0x0, symName: __RNvMNtCsfvfooZQ3Axs_4core5sliceSNtNvCsgq90m4oCT4f_13phf_generator17try_generate_hash6Bucket22split_at_mut_uncheckedCseI6s6vG8qtM_18build_script_build, symObjAddr: 0x1440, symBinAddr: 0x10000FD78, symSize: 0xF0 }
  - { offset: 0x2B95E, size: 0x8, addend: 0x0, symName: __RNvMNtCsfvfooZQ3Axs_4core5sliceSNtNvCsgq90m4oCT4f_13phf_generator17try_generate_hash6Bucket7reverseCseI6s6vG8qtM_18build_script_build, symObjAddr: 0x1530, symBinAddr: 0x10000FE68, symSize: 0x104 }
  - { offset: 0x2BB59, size: 0x8, addend: 0x0, symName: __RNvNvNtNtCsfvfooZQ3Axs_4core5slice3raw14from_raw_parts18precondition_checkCseI6s6vG8qtM_18build_script_build, symObjAddr: 0x1F34, symBinAddr: 0x10001056C, symSize: 0x168 }
  - { offset: 0x2BC9F, size: 0x8, addend: 0x0, symName: __RNvNvNtNtCsfvfooZQ3Axs_4core5slice3raw18from_raw_parts_mut18precondition_checkCseI6s6vG8qtM_18build_script_build, symObjAddr: 0x209C, symBinAddr: 0x1000106D4, symSize: 0x168 }
  - { offset: 0x2BE25, size: 0x8, addend: 0x0, symName: __RNvXs0_NtNtNtNtCsfvfooZQ3Axs_4core5slice4sort6stable9quicksortNtNvCsgq90m4oCT4f_13phf_generator17try_generate_hash6BucketNtB5_8IsFreeze9is_freezeCseI6s6vG8qtM_18build_script_build, symObjAddr: 0x2254, symBinAddr: 0x10001088C, symSize: 0xC }
  - { offset: 0x2C186, size: 0x8, addend: 0x0, symName: __RNvXso_NtCsfvfooZQ3Axs_4core6resultINtB5_6ResultuNtNtB7_3fmt5ErrorENtNtNtB7_3ops9try_trait3Try6branchCseI6s6vG8qtM_18build_script_build, symObjAddr: 0x2714, symBinAddr: 0x100010D4C, symSize: 0x38 }
  - { offset: 0x2C208, size: 0x8, addend: 0x0, symName: __RNvXsp_NtCsfvfooZQ3Axs_4core6resultINtB5_6ResultuNtNtB7_3fmt5ErrorEINtNtNtB7_3ops9try_trait12FromResidualIBy_NtNtB7_7convert10InfallibleBL_EE13from_residualCseI6s6vG8qtM_18build_script_build, symObjAddr: 0x274C, symBinAddr: 0x100010D84, symSize: 0x1C }
  - { offset: 0x2C508, size: 0x8, addend: 0x0, symName: __RNvXNtCsfvfooZQ3Axs_4core6borrowRReINtB2_6BorrowBu_E6borrowCseI6s6vG8qtM_18build_script_build, symObjAddr: 0x2228, symBinAddr: 0x100010860, symSize: 0x14 }
  - { offset: 0x2C553, size: 0x8, addend: 0x0, symName: __RNvXNtNtNtCsfvfooZQ3Axs_4core4iter6traits7collectINtNtNtB6_8adapters9enumerate9EnumerateINtNtNtB8_5slice4iter4IterNtCsbvn0pgfta96_10phf_shared6HashesEENtB2_12IntoIterator9into_iterCseI6s6vG8qtM_18build_script_build, symObjAddr: 0x223C, symBinAddr: 0x100010874, symSize: 0x18 }
  - { offset: 0x2C59C, size: 0x8, addend: 0x0, symName: __RNvXs_NtNtNtCsfvfooZQ3Axs_4core4iter8adapters9enumerateINtB4_9EnumerateINtNtNtBa_5slice4iter4IterNtCsbvn0pgfta96_10phf_shared6HashesEENtNtNtB8_6traits8iterator8Iterator4nextCseI6s6vG8qtM_18build_script_build, symObjAddr: 0x2634, symBinAddr: 0x100010C6C, symSize: 0xE0 }
  - { offset: 0x2C6CF, size: 0x8, addend: 0x0, symName: __RINvCsgq90m4oCT4f_13phf_generator13generate_hashReECseI6s6vG8qtM_18build_script_build, symObjAddr: 0x0, symBinAddr: 0x10000EC40, symSize: 0x9C }
  - { offset: 0x2C704, size: 0x8, addend: 0x0, symName: __RINvCsgq90m4oCT4f_13phf_generator17try_generate_hashReECseI6s6vG8qtM_18build_script_build, symObjAddr: 0x9C, symBinAddr: 0x10000ECDC, symSize: 0xAE0 }
  - { offset: 0x2C975, size: 0x8, addend: 0x0, symName: __RNCINvCsgq90m4oCT4f_13phf_generator17try_generate_hashReE0CseI6s6vG8qtM_18build_script_build, symObjAddr: 0x1260, symBinAddr: 0x10000FB98, symSize: 0x48 }
  - { offset: 0x2C9BB, size: 0x8, addend: 0x0, symName: __RNCINvCsgq90m4oCT4f_13phf_generator17try_generate_hashReEs0_0CseI6s6vG8qtM_18build_script_build, symObjAddr: 0x12A8, symBinAddr: 0x10000FBE0, symSize: 0x78 }
  - { offset: 0x2CA08, size: 0x8, addend: 0x0, symName: __RNCINvCsgq90m4oCT4f_13phf_generator17try_generate_hashReEs1_0CseI6s6vG8qtM_18build_script_build, symObjAddr: 0x1320, symBinAddr: 0x10000FC58, symSize: 0x5C }
  - { offset: 0x2CA64, size: 0x8, addend: 0x0, symName: __RNCINvCsgq90m4oCT4f_13phf_generator17try_generate_hashReEs_0CseI6s6vG8qtM_18build_script_build, symObjAddr: 0x137C, symBinAddr: 0x10000FCB4, symSize: 0x5C }
  - { offset: 0x2CABE, size: 0x8, addend: 0x0, symName: __RNCINvCsgq90m4oCT4f_13phf_generator13generate_hashReE0CseI6s6vG8qtM_18build_script_build, symObjAddr: 0x1218, symBinAddr: 0x10000FB50, symSize: 0x48 }
  - { offset: 0x2CB42, size: 0x8, addend: 0x0, symName: __RINvMNtCse1nGBsou5OW_5alloc5sliceSNtNvCsgq90m4oCT4f_13phf_generator17try_generate_hash6Bucket7sort_byNCIBy_ReEs0_0ECseI6s6vG8qtM_18build_script_build, symObjAddr: 0xB7C, symBinAddr: 0x10000F7BC, symSize: 0x48 }
  - { offset: 0x2D00A, size: 0x8, addend: 0x0, symName: __RNvXs1_NtCse1nGBsou5OW_5alloc7raw_vecINtB5_6RawVecINtNtCsfvfooZQ3Axs_4core6option6OptionjEENtNtNtBR_3ops4drop4Drop4dropCseI6s6vG8qtM_18build_script_build, symObjAddr: 0x2260, symBinAddr: 0x100010898, symSize: 0x34 }
  - { offset: 0x2D046, size: 0x8, addend: 0x0, symName: __RNvXs1_NtCse1nGBsou5OW_5alloc7raw_vecINtB5_6RawVecNtCsbvn0pgfta96_10phf_shared6HashesENtNtNtCsfvfooZQ3Axs_4core3ops4drop4Drop4dropCseI6s6vG8qtM_18build_script_build, symObjAddr: 0x2294, symBinAddr: 0x1000108CC, symSize: 0x34 }
  - { offset: 0x2D082, size: 0x8, addend: 0x0, symName: __RNvXs1_NtCse1nGBsou5OW_5alloc7raw_vecINtB5_6RawVecNtNtB7_6string6StringENtNtNtCsfvfooZQ3Axs_4core3ops4drop4Drop4dropCseI6s6vG8qtM_18build_script_build, symObjAddr: 0x22C8, symBinAddr: 0x100010900, symSize: 0x34 }
  - { offset: 0x2D0BE, size: 0x8, addend: 0x0, symName: __RNvXs1_NtCse1nGBsou5OW_5alloc7raw_vecINtB5_6RawVecNtNvCsgq90m4oCT4f_13phf_generator17try_generate_hash6BucketENtNtNtCsfvfooZQ3Axs_4core3ops4drop4Drop4dropCseI6s6vG8qtM_18build_script_build, symObjAddr: 0x22FC, symBinAddr: 0x100010934, symSize: 0x34 }
  - { offset: 0x2D0FA, size: 0x8, addend: 0x0, symName: __RNvXs1_NtCse1nGBsou5OW_5alloc7raw_vecINtB5_6RawVecReENtNtNtCsfvfooZQ3Axs_4core3ops4drop4Drop4dropCseI6s6vG8qtM_18build_script_build, symObjAddr: 0x2330, symBinAddr: 0x100010968, symSize: 0x34 }
  - { offset: 0x2D136, size: 0x8, addend: 0x0, symName: __RNvXs1_NtCse1nGBsou5OW_5alloc7raw_vecINtB5_6RawVecTjjEENtNtNtCsfvfooZQ3Axs_4core3ops4drop4Drop4dropCseI6s6vG8qtM_18build_script_build, symObjAddr: 0x2364, symBinAddr: 0x10001099C, symSize: 0x34 }
  - { offset: 0x2D172, size: 0x8, addend: 0x0, symName: __RNvXs1_NtCse1nGBsou5OW_5alloc7raw_vecINtB5_6RawVecTmmEENtNtNtCsfvfooZQ3Axs_4core3ops4drop4Drop4dropCseI6s6vG8qtM_18build_script_build, symObjAddr: 0x2398, symBinAddr: 0x1000109D0, symSize: 0x34 }
  - { offset: 0x2D1AE, size: 0x8, addend: 0x0, symName: __RNvXs1_NtCse1nGBsou5OW_5alloc7raw_vecINtB5_6RawVecjENtNtNtCsfvfooZQ3Axs_4core3ops4drop4Drop4dropCseI6s6vG8qtM_18build_script_build, symObjAddr: 0x23CC, symBinAddr: 0x100010A04, symSize: 0x30 }
  - { offset: 0x2D1EA, size: 0x8, addend: 0x0, symName: __RNvXs1_NtCse1nGBsou5OW_5alloc7raw_vecINtB5_6RawVecyENtNtNtCsfvfooZQ3Axs_4core3ops4drop4Drop4dropCseI6s6vG8qtM_18build_script_build, symObjAddr: 0x23FC, symBinAddr: 0x100010A34, symSize: 0x30 }
  - { offset: 0x2D6DE, size: 0x8, addend: 0x0, symName: __RNCNkNvNvMNtNtCscOYdFFY2T5N_3std4hash6randomNtB8_11RandomState3new4KEYS0s_0CseI6s6vG8qtM_18build_script_build, symObjAddr: 0x13D8, symBinAddr: 0x10000FD10, symSize: 0x3C }
  - { offset: 0x2D71C, size: 0x8, addend: 0x0, symName: __RNvNvNvMNtNtCscOYdFFY2T5N_3std4hash6randomNtB6_11RandomState3new4KEYS6___initCseI6s6vG8qtM_18build_script_build, symObjAddr: 0x2204, symBinAddr: 0x10001083C, symSize: 0x24 }
  - { offset: 0x2D73A, size: 0x8, addend: 0x0, symName: __RNCNvMNtNtCscOYdFFY2T5N_3std4hash6randomNtB4_11RandomState3new0CseI6s6vG8qtM_18build_script_build, symObjAddr: 0x1414, symBinAddr: 0x10000FD4C, symSize: 0x2C }
  - { offset: 0x2D845, size: 0x8, addend: 0x0, symName: __RNvXs2_NtNtCscOYdFFY2T5N_3std4hash6randomNtB5_13DefaultHasherNtNtCsfvfooZQ3Axs_4core4hash6Hasher6finishCseI6s6vG8qtM_18build_script_build, symObjAddr: 0x242C, symBinAddr: 0x100010A64, symSize: 0x2C }
  - { offset: 0x2D88E, size: 0x8, addend: 0x0, symName: __RNvXs2_NtNtCscOYdFFY2T5N_3std4hash6randomNtB5_13DefaultHasherNtNtCsfvfooZQ3Axs_4core4hash6Hasher9write_strCseI6s6vG8qtM_18build_script_build, symObjAddr: 0x2458, symBinAddr: 0x100010A90, symSize: 0x38 }
  - { offset: 0x2D8EF, size: 0x8, addend: 0x0, symName: __RNvXs3_NtNtCscOYdFFY2T5N_3std4hash6randomNtB5_11RandomStateNtNtCsfvfooZQ3Axs_4core7default7Default7defaultCseI6s6vG8qtM_18build_script_build, symObjAddr: 0x2508, symBinAddr: 0x100010B40, symSize: 0x1C }
  - { offset: 0x2D927, size: 0x8, addend: 0x0, symName: __RNvXs_NtNtCscOYdFFY2T5N_3std4hash6randomNtB4_11RandomStateNtNtCsfvfooZQ3Axs_4core4hash11BuildHasher12build_hasherCseI6s6vG8qtM_18build_script_build, symObjAddr: 0x2568, symBinAddr: 0x100010BA0, symSize: 0xCC }
  - { offset: 0x2DAD5, size: 0x8, addend: 0x0, symName: __RNvXs3_NtNtCscOYdFFY2T5N_3std3ffi6os_strNtB5_8OsStringINtNtNtCsfvfooZQ3Axs_4core3ops5index5IndexNtNtBV_5range9RangeFullE5indexCseI6s6vG8qtM_18build_script_build, symObjAddr: 0x2490, symBinAddr: 0x100010AC8, symSize: 0x78 }
  - { offset: 0x2DC50, size: 0x8, addend: 0x0, symName: __RNvXsV_NtNtCscOYdFFY2T5N_3std3ffi6os_strNtB5_8OsStringINtNtCsfvfooZQ3Axs_4core7convert5AsRefNtB5_5OsStrE6as_refCseI6s6vG8qtM_18build_script_build, symObjAddr: 0x2524, symBinAddr: 0x100010B5C, symSize: 0x2C }
  - { offset: 0x2DCA2, size: 0x8, addend: 0x0, symName: __RNvXsW_NtNtCscOYdFFY2T5N_3std3ffi6os_streINtNtCsfvfooZQ3Axs_4core7convert5AsRefNtB5_5OsStrE6as_refCseI6s6vG8qtM_18build_script_build, symObjAddr: 0x2550, symBinAddr: 0x100010B88, symSize: 0x18 }
  - { offset: 0x2DDC3, size: 0x8, addend: 0x0, symName: __RNvMNtNtNtCscOYdFFY2T5N_3std11collections4hash3setINtB2_7HashSetRReE3newCseI6s6vG8qtM_18build_script_build, symObjAddr: 0x1634, symBinAddr: 0x10000FF6C, symSize: 0x54 }
  - { offset: 0x2DE5C, size: 0x8, addend: 0x0, symName: __RNvMs0_NtCse1nGBsou5OW_5alloc7raw_vecINtB5_6RawVecReE8grow_oneCseI6s6vG8qtM_18build_script_build, symObjAddr: 0x1688, symBinAddr: 0x10000FFC0, symSize: 0x94 }
  - { offset: 0x2DF28, size: 0x8, addend: 0x0, symName: __RNvMs0_NtCse1nGBsou5OW_5alloc7raw_vecINtB5_6RawVecTjjEE8grow_oneCseI6s6vG8qtM_18build_script_build, symObjAddr: 0x171C, symBinAddr: 0x100010054, symSize: 0x94 }
  - { offset: 0x2DFD6, size: 0x8, addend: 0x0, symName: __RNvMs0_NtCse1nGBsou5OW_5alloc7raw_vecINtB5_6RawVecjE8grow_oneCseI6s6vG8qtM_18build_script_build, symObjAddr: 0x17B0, symBinAddr: 0x1000100E8, symSize: 0x90 }
  - { offset: 0x2E0D8, size: 0x8, addend: 0x0, symName: __RNvMs0_NtNtNtCscOYdFFY2T5N_3std11collections4hash3setINtB5_7HashSetRReE6insertCseI6s6vG8qtM_18build_script_build, symObjAddr: 0x1840, symBinAddr: 0x100010178, symSize: 0x50 }
  - { offset: 0x2E225, size: 0x8, addend: 0x0, symName: __RNvMs2_NtCse1nGBsou5OW_5alloc7raw_vecNtB5_11RawVecInner16with_capacity_inCseI6s6vG8qtM_18build_script_build, symObjAddr: 0x1890, symBinAddr: 0x1000101C8, symSize: 0x10C }
  - { offset: 0x2E8EA, size: 0x8, addend: 0x0, symName: __RINvCsbvn0pgfta96_10phf_shared4hashReECseI6s6vG8qtM_18build_script_build, symObjAddr: 0x0, symBinAddr: 0x100010DA0, symSize: 0x88 }
  - { offset: 0x2E951, size: 0x8, addend: 0x0, symName: __RNvYINtNtNtNtCscOYdFFY2T5N_3std2io8buffered9bufwriter9BufWriterNtNtBb_2fs4FileENtB9_5Write9write_fmtCseI6s6vG8qtM_18build_script_build, symObjAddr: 0x2400, symBinAddr: 0x100013070, symSize: 0x128 }
  - { offset: 0x2EA00, size: 0x8, addend: 0x0, symName: __RNvYNtNtCscOYdFFY2T5N_3std2fs4FileNtNtB6_2io5Write9write_allCseI6s6vG8qtM_18build_script_build, symObjAddr: 0x2554, symBinAddr: 0x1000131C4, symSize: 0x180 }
  - { offset: 0x2EC35, size: 0x8, addend: 0x0, symName: __RNvXs4_NtNtNtCscOYdFFY2T5N_3std2io8buffered9bufwriterINtB5_9BufWriterNtNtBb_2fs4FileENtB9_5Write9write_allCseI6s6vG8qtM_18build_script_build, symObjAddr: 0x1F08, symBinAddr: 0x100012B78, symSize: 0x80 }
  - { offset: 0x2ECF5, size: 0x8, addend: 0x0, symName: __RNvXs7_NtNtNtCscOYdFFY2T5N_3std2io8buffered9bufwriterINtB5_9BufWriterNtNtBb_2fs4FileENtNtNtCsfvfooZQ3Axs_4core3ops4drop4Drop4dropCseI6s6vG8qtM_18build_script_build, symObjAddr: 0x2018, symBinAddr: 0x100012C88, symSize: 0x4C }
  - { offset: 0x2F1DE, size: 0x8, addend: 0x0, symName: __RINvNtNtCscOYdFFY2T5N_3std3sys9backtrace28___rust_begin_short_backtraceFEuuECseI6s6vG8qtM_18build_script_build, symObjAddr: 0x1BC, symBinAddr: 0x100010F5C, symSize: 0x24 }
  - { offset: 0x2F2EB, size: 0x8, addend: 0x0, symName: __RNvXsT_NtCscOYdFFY2T5N_3std7processuNtB5_11Termination6reportCseI6s6vG8qtM_18build_script_build, symObjAddr: 0x2214, symBinAddr: 0x100012E84, symSize: 0x10 }
  - { offset: 0x2FF9B, size: 0x8, addend: 0x0, symName: __RNvXs1c_NtCsfvfooZQ3Axs_4core3fmtRNtNtCse1nGBsou5OW_5alloc6string6StringNtB6_7Display3fmtCseI6s6vG8qtM_18build_script_build, symObjAddr: 0x1E4C, symBinAddr: 0x100012ABC, symSize: 0x30 }
  - { offset: 0x301D6, size: 0x8, addend: 0x0, symName: __RINvNtNtNtCsfvfooZQ3Axs_4core5slice4sort6stable14driftsort_mainNtNvCsgq90m4oCT4f_13phf_generator17try_generate_hash6BucketNCINvMNtCse1nGBsou5OW_5alloc5sliceSBZ_7sort_byNCIB11_ReEs0_0E0INtNtB24_3vec3VecBZ_EECseI6s6vG8qtM_18build_script_build, symObjAddr: 0x1E0, symBinAddr: 0x100010F80, symSize: 0x2AC }
  - { offset: 0x303F1, size: 0x8, addend: 0x0, symName: __RINvNtNtNtNtCsfvfooZQ3Axs_4core5slice4sort6stable5drift10create_runNtNvCsgq90m4oCT4f_13phf_generator17try_generate_hash6BucketNCINvMNtCse1nGBsou5OW_5alloc5sliceSB13_7sort_byNCIB15_ReEs0_0E0ECseI6s6vG8qtM_18build_script_build, symObjAddr: 0x48C, symBinAddr: 0x10001122C, symSize: 0x3A8 }
  - { offset: 0x308FC, size: 0x8, addend: 0x0, symName: __RINvNtNtNtNtCsfvfooZQ3Axs_4core5slice4sort6stable5drift16stable_quicksortNtNvCsgq90m4oCT4f_13phf_generator17try_generate_hash6BucketNCINvMNtCse1nGBsou5OW_5alloc5sliceSB19_7sort_byNCIB1b_ReEs0_0E0ECseI6s6vG8qtM_18build_script_build, symObjAddr: 0x834, symBinAddr: 0x1000115D4, symSize: 0xB4 }
  - { offset: 0x30B11, size: 0x8, addend: 0x0, symName: __RINvNtNtNtNtCsfvfooZQ3Axs_4core5slice4sort6stable5drift4sortNtNvCsgq90m4oCT4f_13phf_generator17try_generate_hash6BucketNCINvMNtCse1nGBsou5OW_5alloc5sliceSBW_7sort_byNCIBY_ReEs0_0E0ECseI6s6vG8qtM_18build_script_build, symObjAddr: 0x8E8, symBinAddr: 0x100011688, symSize: 0x520 }
  - { offset: 0x31334, size: 0x8, addend: 0x0, symName: __RNvMNtCsfvfooZQ3Axs_4core5sliceSNtCsbvn0pgfta96_10phf_shared6Hashes4iterCseI6s6vG8qtM_18build_script_build, symObjAddr: 0x1390, symBinAddr: 0x100012130, symSize: 0x28 }
  - { offset: 0x31DCA, size: 0x8, addend: 0x0, symName: __RNCINvNtNtNtCsfvfooZQ3Axs_4core4iter8adapters3map8map_foldRReNtCsbvn0pgfta96_10phf_shared6HashesuNCINvCsgq90m4oCT4f_13phf_generator17try_generate_hashBV_E0NCINvNvNtNtNtB8_6traits8iterator8Iterator8for_each4callBX_NCINvMsi_NtCse1nGBsou5OW_5alloc3vecINtB3y_3VecBX_E14extend_trustedINtB4_3MapINtNtNtBa_5slice4iter4IterBV_EB1x_EE0E0E0CseI6s6vG8qtM_18build_script_build, symObjAddr: 0x11AC, symBinAddr: 0x100011F4C, symSize: 0x8C }
  - { offset: 0x31E4F, size: 0x8, addend: 0x0, symName: __RNCINvNtNtNtCsfvfooZQ3Axs_4core4iter8adapters3map8map_foldjNtNvCsgq90m4oCT4f_13phf_generator17try_generate_hash6BucketuNCIBX_ReEs_0NCINvNvNtNtNtB8_6traits8iterator8Iterator8for_each4callBV_NCINvMsi_NtCse1nGBsou5OW_5alloc3vecINtB3a_3VecBV_E14extend_trustedINtB4_3MapINtNtNtBa_3ops5range5RangejEB1T_EE0E0E0CseI6s6vG8qtM_18build_script_build, symObjAddr: 0x1238, symBinAddr: 0x100011FD8, symSize: 0x88 }
  - { offset: 0x31EDA, size: 0x8, addend: 0x0, symName: __RINvXs0_NtNtNtCsfvfooZQ3Axs_4core4iter8adapters3mapINtB6_3MapINtNtNtBc_3ops5range5RangejENCINvCsgq90m4oCT4f_13phf_generator17try_generate_hashReEs_0ENtNtNtBa_6traits8iterator8Iterator4folduNCINvNvB2n_8for_each4callNtB1s_6BucketNCINvMsi_NtCse1nGBsou5OW_5alloc3vecINtB3M_3VecB3q_E14extend_trustedBN_E0E0ECseI6s6vG8qtM_18build_script_build, symObjAddr: 0xE08, symBinAddr: 0x100011BA8, symSize: 0x3C }
  - { offset: 0x31F72, size: 0x8, addend: 0x0, symName: __RINvXs0_NtNtNtCsfvfooZQ3Axs_4core4iter8adapters3mapINtB6_3MapINtNtNtBc_5slice4iter4IterReENCINvCsgq90m4oCT4f_13phf_generator17try_generate_hashB1n_E0ENtNtNtBa_6traits8iterator8Iterator4folduNCINvNvB2o_8for_each4callNtCsbvn0pgfta96_10phf_shared6HashesNCINvMsi_NtCse1nGBsou5OW_5alloc3vecINtB49_3VecB3r_E14extend_trustedBN_E0E0ECseI6s6vG8qtM_18build_script_build, symObjAddr: 0xE44, symBinAddr: 0x100011BE4, symSize: 0x4C }
  - { offset: 0x3200B, size: 0x8, addend: 0x0, symName: __RNvXs0_NtNtNtCsfvfooZQ3Axs_4core4iter8adapters3mapINtB5_3MapINtNtNtBb_3ops5range5RangejENCINvCsgq90m4oCT4f_13phf_generator17try_generate_hashReEs_0ENtNtNtB9_6traits8iterator8Iterator9size_hintCseI6s6vG8qtM_18build_script_build, symObjAddr: 0x1C28, symBinAddr: 0x100012898, symSize: 0x24 }
  - { offset: 0x32052, size: 0x8, addend: 0x0, symName: __RNvXs0_NtNtNtCsfvfooZQ3Axs_4core4iter8adapters3mapINtB5_3MapINtNtNtBb_5slice4iter4IterReENCINvCsgq90m4oCT4f_13phf_generator17try_generate_hashB1m_E0ENtNtNtB9_6traits8iterator8Iterator9size_hintCseI6s6vG8qtM_18build_script_build, symObjAddr: 0x1C4C, symBinAddr: 0x1000128BC, symSize: 0x24 }
  - { offset: 0x32099, size: 0x8, addend: 0x0, symName: __RNvXs0_NtNtNtCsfvfooZQ3Axs_4core4iter8adapters3mapINtB5_3MapINtNtNtCse1nGBsou5OW_5alloc3vec9into_iter8IntoIterINtNtBb_6option6OptionjEENCINvCsgq90m4oCT4f_13phf_generator17try_generate_hashReEs1_0ENtNtNtB9_6traits8iterator8Iterator24___iterator_get_uncheckedCseI6s6vG8qtM_18build_script_build, symObjAddr: 0x1C70, symBinAddr: 0x1000128E0, symSize: 0x48 }
  - { offset: 0x32113, size: 0x8, addend: 0x0, symName: __RNvXs0_NtNtNtCsfvfooZQ3Axs_4core4iter8adapters3mapINtB5_3MapINtNtNtCse1nGBsou5OW_5alloc3vec9into_iter8IntoIterINtNtBb_6option6OptionjEENCINvCsgq90m4oCT4f_13phf_generator17try_generate_hashReEs1_0ENtNtNtB9_6traits8iterator8Iterator9size_hintCseI6s6vG8qtM_18build_script_build, symObjAddr: 0x1CB8, symBinAddr: 0x100012928, symSize: 0x24 }
  - { offset: 0x321B4, size: 0x8, addend: 0x0, symName: __RNvXs9_NtNtNtCsfvfooZQ3Axs_4core4iter8adapters3mapINtB5_3MapINtNtNtCse1nGBsou5OW_5alloc3vec9into_iter8IntoIterINtNtBb_6option6OptionjEENCINvCsgq90m4oCT4f_13phf_generator17try_generate_hashReEs1_0ENtB7_10SourceIter8as_innerCseI6s6vG8qtM_18build_script_build, symObjAddr: 0x21A0, symBinAddr: 0x100012E10, symSize: 0x24 }
  - { offset: 0x322CA, size: 0x8, addend: 0x0, symName: __RNvYINtNtNtNtCsfvfooZQ3Axs_4core4iter8adapters3map3MapINtNtNtCse1nGBsou5OW_5alloc3vec9into_iter8IntoIterINtNtBb_6option6OptionjEENCINvCsgq90m4oCT4f_13phf_generator17try_generate_hashReEs1_0ENtNtB7_3zip27TrustedRandomAccessNoCoerce4sizeCseI6s6vG8qtM_18build_script_build, symObjAddr: 0x2528, symBinAddr: 0x100013198, symSize: 0x2C }
  - { offset: 0x323A5, size: 0x8, addend: 0x0, symName: __RINvYINtNtNtNtCsfvfooZQ3Axs_4core4iter8adapters3map3MapINtNtNtBc_3ops5range5RangejENCINvCsgq90m4oCT4f_13phf_generator17try_generate_hashReEs_0ENtNtNtBa_6traits8iterator8Iterator7collectINtNtCse1nGBsou5OW_5alloc3vec3VecNtB1m_6BucketEECseI6s6vG8qtM_18build_script_build, symObjAddr: 0x10AC, symBinAddr: 0x100011E4C, symSize: 0x2C }
  - { offset: 0x323E5, size: 0x8, addend: 0x0, symName: __RINvYINtNtNtNtCsfvfooZQ3Axs_4core4iter8adapters3map3MapINtNtNtBc_3ops5range5RangejENCINvCsgq90m4oCT4f_13phf_generator17try_generate_hashReEs_0ENtNtNtBa_6traits8iterator8Iterator8for_eachNCINvMsi_NtCse1nGBsou5OW_5alloc3vecINtB37_3VecNtB1m_6BucketE14extend_trustedB3_E0ECseI6s6vG8qtM_18build_script_build, symObjAddr: 0x10D8, symBinAddr: 0x100011E78, symSize: 0x3C }
  - { offset: 0x32450, size: 0x8, addend: 0x0, symName: __RINvYINtNtNtNtCsfvfooZQ3Axs_4core4iter8adapters3map3MapINtNtNtBc_5slice4iter4IterReENCINvCsgq90m4oCT4f_13phf_generator17try_generate_hashB1h_E0ENtNtNtBa_6traits8iterator8Iterator7collectINtNtCse1nGBsou5OW_5alloc3vec3VecNtCsbvn0pgfta96_10phf_shared6HashesEECseI6s6vG8qtM_18build_script_build, symObjAddr: 0x1114, symBinAddr: 0x100011EB4, symSize: 0x1C }
  - { offset: 0x32491, size: 0x8, addend: 0x0, symName: __RINvYINtNtNtNtCsfvfooZQ3Axs_4core4iter8adapters3map3MapINtNtNtBc_5slice4iter4IterReENCINvCsgq90m4oCT4f_13phf_generator17try_generate_hashB1h_E0ENtNtNtBa_6traits8iterator8Iterator8for_eachNCINvMsi_NtCse1nGBsou5OW_5alloc3vecINtB38_3VecNtCsbvn0pgfta96_10phf_shared6HashesE14extend_trustedB3_E0ECseI6s6vG8qtM_18build_script_build, symObjAddr: 0x1130, symBinAddr: 0x100011ED0, symSize: 0x34 }
  - { offset: 0x324FD, size: 0x8, addend: 0x0, symName: __RINvYINtNtNtNtCsfvfooZQ3Axs_4core4iter8adapters3map3MapINtNtNtCse1nGBsou5OW_5alloc3vec9into_iter8IntoIterINtNtBc_6option6OptionjEENCINvCsgq90m4oCT4f_13phf_generator17try_generate_hashReEs1_0ENtNtNtBa_6traits8iterator8Iterator7collectINtBW_3VecjEECseI6s6vG8qtM_18build_script_build, symObjAddr: 0x1164, symBinAddr: 0x100011F04, symSize: 0x1C }
  - { offset: 0x3254A, size: 0x8, addend: 0x0, symName: __RNvXNtNtNtCsfvfooZQ3Axs_4core4iter6traits7collectINtNtNtB6_8adapters3map3MapINtNtNtB8_3ops5range5RangejENCINvCsgq90m4oCT4f_13phf_generator17try_generate_hashReEs_0ENtB2_12IntoIterator9into_iterCseI6s6vG8qtM_18build_script_build, symObjAddr: 0x1BE8, symBinAddr: 0x100012858, symSize: 0x14 }
  - { offset: 0x32581, size: 0x8, addend: 0x0, symName: __RNvXNtNtNtCsfvfooZQ3Axs_4core4iter6traits7collectINtNtNtB6_8adapters3map3MapINtNtNtB8_5slice4iter4IterReENCINvCsgq90m4oCT4f_13phf_generator17try_generate_hashB1C_E0ENtB2_12IntoIterator9into_iterCseI6s6vG8qtM_18build_script_build, symObjAddr: 0x1BFC, symBinAddr: 0x10001286C, symSize: 0x18 }
  - { offset: 0x325B8, size: 0x8, addend: 0x0, symName: __RNvXNtNtNtCsfvfooZQ3Axs_4core4iter6traits7collectINtNtNtB6_8adapters3map3MapINtNtNtCse1nGBsou5OW_5alloc3vec9into_iter8IntoIterINtNtB8_6option6OptionjEENCINvCsgq90m4oCT4f_13phf_generator17try_generate_hashReEs1_0ENtB2_12IntoIterator9into_iterCseI6s6vG8qtM_18build_script_build, symObjAddr: 0x1C14, symBinAddr: 0x100012884, symSize: 0x14 }
  - { offset: 0x3278E, size: 0x8, addend: 0x0, symName: __RNvNvNtNtCsfvfooZQ3Axs_4core4char7convert18from_u32_unchecked18precondition_checkCseI6s6vG8qtM_18build_script_build, symObjAddr: 0x1AF0, symBinAddr: 0x100012760, symSize: 0x98 }
  - { offset: 0x32824, size: 0x8, addend: 0x0, symName: __RNvNvXs5_NtNtCsfvfooZQ3Axs_4core3str6traitsINtNtNtBb_3ops5range5RangejEINtNtNtBb_5slice5index10SliceIndexeE13get_unchecked18precondition_checkCseI6s6vG8qtM_18build_script_build, symObjAddr: 0x1B88, symBinAddr: 0x1000127F8, symSize: 0x60 }
  - { offset: 0x3286F, size: 0x8, addend: 0x0, symName: __RNvXs_NtNtCsfvfooZQ3Axs_4core3str6traitseNtNtB8_3cmp9PartialEq2eqCseI6s6vG8qtM_18build_script_build, symObjAddr: 0x2224, symBinAddr: 0x100012E94, symSize: 0x64 }
  - { offset: 0x329D6, size: 0x8, addend: 0x0, symName: __RNvXs7_NtNtCsfvfooZQ3Axs_4core3str7patternINtB5_18MultiCharEqPatternNtB7_12IsWhitespaceENtB5_7Pattern13into_searcherCseI6s6vG8qtM_18build_script_build, symObjAddr: 0x1F88, symBinAddr: 0x100012BF8, symSize: 0x90 }
  - { offset: 0x32A38, size: 0x8, addend: 0x0, symName: __RNvXs8_NtNtCsfvfooZQ3Axs_4core3str7patternINtB5_19MultiCharEqSearcherNtB7_12IsWhitespaceENtB5_8Searcher4nextCseI6s6vG8qtM_18build_script_build, symObjAddr: 0x2064, symBinAddr: 0x100012CD4, symSize: 0x13C }
  - { offset: 0x32B79, size: 0x8, addend: 0x0, symName: __RNvXso_NtNtCsfvfooZQ3Axs_4core3str7patternINtB5_21CharPredicateSearcherNtB7_12IsWhitespaceENtB5_8Searcher10next_matchCseI6s6vG8qtM_18build_script_build, symObjAddr: 0x2308, symBinAddr: 0x100012F78, symSize: 0x24 }
  - { offset: 0x32BB0, size: 0x8, addend: 0x0, symName: __RNvXso_NtNtCsfvfooZQ3Axs_4core3str7patternINtB5_21CharPredicateSearcherNtB7_12IsWhitespaceENtB5_8Searcher8haystackCseI6s6vG8qtM_18build_script_build, symObjAddr: 0x232C, symBinAddr: 0x100012F9C, symSize: 0x20 }
  - { offset: 0x32C02, size: 0x8, addend: 0x0, symName: __RNvYINtNtNtCsfvfooZQ3Axs_4core3str7pattern19MultiCharEqSearcherNtB7_12IsWhitespaceENtB5_8Searcher10next_matchCseI6s6vG8qtM_18build_script_build, symObjAddr: 0x2370, symBinAddr: 0x100012FE0, symSize: 0x90 }
  - { offset: 0x3300B, size: 0x8, addend: 0x0, symName: __RNvXs1_NtNtCse1nGBsou5OW_5alloc3vec16in_place_collectINtNtNtNtCsfvfooZQ3Axs_4core4iter8adapters3map3MapINtNtB7_9into_iter8IntoIterINtNtBY_6option6OptionjEENCINvCsgq90m4oCT4f_13phf_generator17try_generate_hashReEs1_0EINtB5_18SpecInPlaceCollectjBP_E16collect_in_placeCseI6s6vG8qtM_18build_script_build, symObjAddr: 0x1CDC, symBinAddr: 0x10001294C, symSize: 0x170 }
  - { offset: 0x33503, size: 0x8, addend: 0x0, symName: __RINvXs_NtNtCse1nGBsou5OW_5alloc5slice4hackhNtB5_10ConvertVec6to_vecNtNtB9_5alloc6GlobalECseI6s6vG8qtM_18build_script_build, symObjAddr: 0xFD4, symBinAddr: 0x100011D74, symSize: 0xD8 }
  - { offset: 0x3377E, size: 0x8, addend: 0x0, symName: __RNvXsJ_NtCse1nGBsou5OW_5alloc6stringNtB5_6StringINtNtCsfvfooZQ3Axs_4core7convert4FromReE4fromCseI6s6vG8qtM_18build_script_build, symObjAddr: 0x21C4, symBinAddr: 0x100012E34, symSize: 0x50 }
  - { offset: 0x338AF, size: 0x8, addend: 0x0, symName: __RNvXss_NtCse1nGBsou5OW_5alloc6stringNtB5_6StringNtNtNtCsfvfooZQ3Axs_4core3ops5deref5Deref5derefCseI6s6vG8qtM_18build_script_build, symObjAddr: 0x234C, symBinAddr: 0x100012FBC, symSize: 0x24 }
  - { offset: 0x338E3, size: 0x8, addend: 0x0, symName: __RNvXsl_NtCse1nGBsou5OW_5alloc6stringNtB5_6StringNtNtCsfvfooZQ3Axs_4core3fmt7Display3fmtCseI6s6vG8qtM_18build_script_build, symObjAddr: 0x2288, symBinAddr: 0x100012EF8, symSize: 0x80 }
  - { offset: 0x33B31, size: 0x8, addend: 0x0, symName: __RINvCsbvn0pgfta96_10phf_shared4hashReECseI6s6vG8qtM_18build_script_build, symObjAddr: 0x0, symBinAddr: 0x100010DA0, symSize: 0x88 }
  - { offset: 0x33BEF, size: 0x8, addend: 0x0, symName: __RINvXs2_Csbvn0pgfta96_10phf_sharedReNtB6_7PhfHash8phf_hashNtNtCslgz3eGxzwqz_9siphasher6sip12811SipHasher13ECseI6s6vG8qtM_18build_script_build, symObjAddr: 0xEE4, symBinAddr: 0x100011C84, symSize: 0x4C }
  - { offset: 0x33C3D, size: 0x8, addend: 0x0, symName: __RINvXs6_Csbvn0pgfta96_10phf_sharedeNtB6_7PhfHash8phf_hashNtNtCslgz3eGxzwqz_9siphasher6sip12811SipHasher13ECseI6s6vG8qtM_18build_script_build, symObjAddr: 0xF30, symBinAddr: 0x100011CD0, symSize: 0x4C }
  - { offset: 0x33C82, size: 0x8, addend: 0x0, symName: __RINvXs7_Csbvn0pgfta96_10phf_sharedShNtB6_7PhfHash8phf_hashNtNtCslgz3eGxzwqz_9siphasher6sip12811SipHasher13ECseI6s6vG8qtM_18build_script_build, symObjAddr: 0xF7C, symBinAddr: 0x100011D1C, symSize: 0x58 }
  - { offset: 0x33CC2, size: 0x8, addend: 0x0, symName: __RNvCsbvn0pgfta96_10phf_shared8displaceCseI6s6vG8qtM_18build_script_build, symObjAddr: 0x12C0, symBinAddr: 0x100012060, symSize: 0x60 }
  - { offset: 0x33D1D, size: 0x8, addend: 0x0, symName: __RNvXs3_Csbvn0pgfta96_10phf_sharedRReNtB5_8FmtConst9fmt_constCseI6s6vG8qtM_18build_script_build, symObjAddr: 0x1E7C, symBinAddr: 0x100012AEC, symSize: 0x40 }
  - { offset: 0x33D60, size: 0x8, addend: 0x0, symName: __RNvXs3_Csbvn0pgfta96_10phf_sharedReNtB5_8FmtConst9fmt_constCseI6s6vG8qtM_18build_script_build, symObjAddr: 0x1EBC, symBinAddr: 0x100012B2C, symSize: 0x4C }
  - { offset: 0x33E58, size: 0x8, addend: 0x0, symName: __RINvMNtCscOYdFFY2T5N_3std2fsNtB3_4File6createRNtNtB5_4path7PathBufECseI6s6vG8qtM_18build_script_build, symObjAddr: 0x88, symBinAddr: 0x100010E28, symSize: 0xC0 }
  - { offset: 0x33F7C, size: 0x8, addend: 0x0, symName: __RINvMsc_NtCscOYdFFY2T5N_3std2fsNtB6_11OpenOptions4openRNtNtB8_4path4PathECseI6s6vG8qtM_18build_script_build, symObjAddr: 0x148, symBinAddr: 0x100010EE8, symSize: 0x74 }
  - { offset: 0x34481, size: 0x8, addend: 0x0, symName: __RINvXs1_NtNtCsg10Tkzhqh8d_4rand13distributions7integerNtB8_8StandardINtNtB8_12distribution12DistributionyE6sampleNtNtNtBa_4rngs5small8SmallRngECseI6s6vG8qtM_18build_script_build, symObjAddr: 0xE90, symBinAddr: 0x100011C30, symSize: 0x54 }
  - { offset: 0x344ED, size: 0x8, addend: 0x0, symName: __RINvYNtNtCsg10Tkzhqh8d_4rand13distributions8StandardINtNtB5_12distribution12DistributionyE11sample_iterNtNtNtB7_4rngs5small8SmallRngECseI6s6vG8qtM_18build_script_build, symObjAddr: 0x1180, symBinAddr: 0x100011F20, symSize: 0x2C }
  - { offset: 0x347E0, size: 0x8, addend: 0x0, symName: __RNvMNtCse1nGBsou5OW_5alloc6stringNtB2_6String6as_strCseI6s6vG8qtM_18build_script_build, symObjAddr: 0x1320, symBinAddr: 0x1000120C0, symSize: 0x70 }
  - { offset: 0x34967, size: 0x8, addend: 0x0, symName: __RNvMNtNtNtCscOYdFFY2T5N_3std2io8buffered9bufwriterINtB2_9BufWriterNtNtB8_2fs4FileE13with_capacityCseI6s6vG8qtM_18build_script_build, symObjAddr: 0x13B8, symBinAddr: 0x100012158, symSize: 0xA8 }
  - { offset: 0x349F9, size: 0x8, addend: 0x0, symName: __RNvMNtNtNtCscOYdFFY2T5N_3std2io8buffered9bufwriterINtB2_9BufWriterNtNtB8_2fs4FileE3newCseI6s6vG8qtM_18build_script_build, symObjAddr: 0x1460, symBinAddr: 0x100012200, symSize: 0x2C }
  - { offset: 0x34A72, size: 0x8, addend: 0x0, symName: __RNvMNtNtNtCsfvfooZQ3Axs_4core5slice4sort6stableINtB2_14AlignedStorageNtNvCsgq90m4oCT4f_13phf_generator17try_generate_hash6BucketKj1000_E19as_uninit_slice_mutCseI6s6vG8qtM_18build_script_build, symObjAddr: 0x148C, symBinAddr: 0x10001222C, symSize: 0x7C }
  - { offset: 0x34BE2, size: 0x8, addend: 0x0, symName: __RNvMNtNtNtCsloNvcHxBCre_9hashbrown7control5group4neonNtB2_5Group10match_fullCseI6s6vG8qtM_18build_script_build, symObjAddr: 0x1508, symBinAddr: 0x1000122A8, symSize: 0x68 }
  - { offset: 0x34C1A, size: 0x8, addend: 0x0, symName: __RNvMNtNtNtCsloNvcHxBCre_9hashbrown7control5group4neonNtB2_5Group22match_empty_or_deletedCseI6s6vG8qtM_18build_script_build, symObjAddr: 0x1570, symBinAddr: 0x100012310, symSize: 0x68 }
  - { offset: 0x34C52, size: 0x8, addend: 0x0, symName: __RNvMNtNtNtCsloNvcHxBCre_9hashbrown7control5group4neonNtB2_5Group44convert_special_to_empty_and_full_to_deletedCseI6s6vG8qtM_18build_script_build, symObjAddr: 0x15D8, symBinAddr: 0x100012378, symSize: 0x88 }
  - { offset: 0x34C8A, size: 0x8, addend: 0x0, symName: __RNvMNtNtNtCsloNvcHxBCre_9hashbrown7control5group4neonNtB2_5Group9match_tagCseI6s6vG8qtM_18build_script_build, symObjAddr: 0x1660, symBinAddr: 0x100012400, symSize: 0x7C }
  - { offset: 0x34DB6, size: 0x8, addend: 0x0, symName: __RNvMs_NtNtNtCscOYdFFY2T5N_3std2io8buffered9bufwriterINtB4_9BufWriterNtNtBa_2fs4FileE14write_all_coldCseI6s6vG8qtM_18build_script_build, symObjAddr: 0x16DC, symBinAddr: 0x1000532BC, symSize: 0x130 }
  - { offset: 0x35046, size: 0x8, addend: 0x0, symName: __RNvMs_NtNtNtCscOYdFFY2T5N_3std2io8buffered9bufwriterINtB4_9BufWriterNtNtBa_2fs4FileE25write_to_buffer_uncheckedCseI6s6vG8qtM_18build_script_build, symObjAddr: 0x180C, symBinAddr: 0x10001247C, symSize: 0xD8 }
  - { offset: 0x352CD, size: 0x8, addend: 0x0, symName: __RNvMs_NtNtNtCscOYdFFY2T5N_3std2io8buffered9bufwriterINtB4_9BufWriterNtNtBa_2fs4FileE9flush_bufCseI6s6vG8qtM_18build_script_build, symObjAddr: 0x18E4, symBinAddr: 0x100012554, symSize: 0x20C }
  - { offset: 0x35886, size: 0x8, addend: 0x0, symName: __RINvMNtCsfvfooZQ3Axs_4core5sliceSh13get_uncheckedjECseI6s6vG8qtM_18build_script_build, symObjAddr: 0x0, symBinAddr: 0x100013344, symSize: 0x44 }
  - { offset: 0x35CCE, size: 0x8, addend: 0x0, symName: __RNvXs1c_NtCsfvfooZQ3Axs_4core3fmtReNtB6_7Display3fmtCseI6s6vG8qtM_18build_script_build, symObjAddr: 0x2174, symBinAddr: 0x1000154B8, symSize: 0x3C }
  - { offset: 0x35F37, size: 0x8, addend: 0x0, symName: __RNvNvMs1_NtNtCsfvfooZQ3Axs_4core3ptr8non_nullINtB7_7NonNullpE13new_unchecked18precondition_checkCseI6s6vG8qtM_18build_script_build, symObjAddr: 0x1A4C, symBinAddr: 0x100014D90, symSize: 0x38 }
  - { offset: 0x3620E, size: 0x8, addend: 0x0, symName: __RINvMNtCsfvfooZQ3Axs_4core5sliceSh13get_uncheckedjECseI6s6vG8qtM_18build_script_build, symObjAddr: 0x0, symBinAddr: 0x100013344, symSize: 0x44 }
  - { offset: 0x362E6, size: 0x8, addend: 0x0, symName: __RINvNvMNtCsfvfooZQ3Axs_4core5sliceSp7reverse7revswapNtNvCsgq90m4oCT4f_13phf_generator17try_generate_hash6BucketECseI6s6vG8qtM_18build_script_build, symObjAddr: 0x608, symBinAddr: 0x10001394C, symSize: 0x280 }
  - { offset: 0x36456, size: 0x8, addend: 0x0, symName: __RNvMNtCsfvfooZQ3Axs_4core5sliceSRe4iterCseI6s6vG8qtM_18build_script_build, symObjAddr: 0xAB0, symBinAddr: 0x100013DF4, symSize: 0x28 }
  - { offset: 0x3648D, size: 0x8, addend: 0x0, symName: __RNvMNtCsfvfooZQ3Axs_4core5sliceSh8is_emptyCseI6s6vG8qtM_18build_script_build, symObjAddr: 0xAD8, symBinAddr: 0x100013E1C, symSize: 0x1C }
  - { offset: 0x3652A, size: 0x8, addend: 0x0, symName: __RNvNvMNtCsfvfooZQ3Axs_4core5sliceSp22split_at_mut_unchecked18precondition_checkCseI6s6vG8qtM_18build_script_build, symObjAddr: 0x1A0C, symBinAddr: 0x100014D50, symSize: 0x40 }
  - { offset: 0x37038, size: 0x8, addend: 0x0, symName: __RNvXs3N_NtNtCsfvfooZQ3Axs_4core3num8wrappingINtB6_8WrappingmENtNtNtBa_3ops5arith3Add3addCseI6s6vG8qtM_18build_script_build, symObjAddr: 0x2258, symBinAddr: 0x10001559C, symSize: 0x18 }
  - { offset: 0x3708C, size: 0x8, addend: 0x0, symName: __RNvXs3T_NtNtCsfvfooZQ3Axs_4core3num8wrappingINtB6_8WrappingmENtNtNtBa_3ops5arith3Mul3mulCseI6s6vG8qtM_18build_script_build, symObjAddr: 0x2270, symBinAddr: 0x1000155B4, symSize: 0x18 }
  - { offset: 0x37290, size: 0x8, addend: 0x0, symName: __RINvNtNtCsfvfooZQ3Axs_4core3str11validations15next_code_pointINtNtNtB6_5slice4iter4IterhEECseI6s6vG8qtM_18build_script_build, symObjAddr: 0x3FC, symBinAddr: 0x100013740, symSize: 0x20C }
  - { offset: 0x376F9, size: 0x8, addend: 0x0, symName: __RNvXs3_NtNtCsfvfooZQ3Axs_4core3str4iterNtB5_11CharIndicesNtNtNtNtB9_4iter6traits8iterator8Iterator4nextCseI6s6vG8qtM_18build_script_build, symObjAddr: 0x2288, symBinAddr: 0x1000155CC, symSize: 0x120 }
  - { offset: 0x37881, size: 0x8, addend: 0x0, symName: __RNvXsX_NtNtCsfvfooZQ3Axs_4core3str4iterINtB5_5SplitNtB7_12IsWhitespaceENtNtNtNtB9_4iter6traits8iterator8Iterator4nextCseI6s6vG8qtM_18build_script_build, symObjAddr: 0x2494, symBinAddr: 0x1000157D8, symSize: 0x24 }
  - { offset: 0x378DC, size: 0x8, addend: 0x0, symName: __RNvXsz_NtNtCsfvfooZQ3Axs_4core3str4iterNtB5_15SplitWhitespaceNtNtNtNtB9_4iter6traits8iterator8Iterator4nextCseI6s6vG8qtM_18build_script_build, symObjAddr: 0x24B8, symBinAddr: 0x1000157FC, symSize: 0x30 }
  - { offset: 0x37CA4, size: 0x8, addend: 0x0, symName: __RINvYINtNtNtCsfvfooZQ3Axs_4core3str4iter5SplitNtB8_12IsWhitespaceENtNtNtNtBa_4iter6traits8iterator8Iterator4findQNtB8_10IsNotEmptyECseI6s6vG8qtM_18build_script_build, symObjAddr: 0x888, symBinAddr: 0x100013BCC, symSize: 0x90 }
  - { offset: 0x37D1F, size: 0x8, addend: 0x0, symName: __RINvYINtNtNtCsfvfooZQ3Axs_4core3str4iter5SplitNtB8_12IsWhitespaceENtNtNtNtBa_4iter6traits8iterator8Iterator8try_folduNCINvNvB12_4find5checkReQNtB8_10IsNotEmptyE0INtNtNtBa_3ops12control_flow11ControlFlowB2d_EECseI6s6vG8qtM_18build_script_build, symObjAddr: 0x918, symBinAddr: 0x100013C5C, symSize: 0x198 }
  - { offset: 0x37E08, size: 0x8, addend: 0x0, symName: __RNvXNtNtNtCsfvfooZQ3Axs_4core4iter6traits7collectNtNtNtB8_3str4iter15SplitWhitespaceNtB2_12IntoIterator9into_iterCseI6s6vG8qtM_18build_script_build, symObjAddr: 0x1BE8, symBinAddr: 0x100014F2C, symSize: 0x30 }
  - { offset: 0x37F89, size: 0x8, addend: 0x0, symName: __RNvXsF_NtNtCsfvfooZQ3Axs_4core4iter5rangejNtB5_4Step13steps_betweenCseI6s6vG8qtM_18build_script_build, symObjAddr: 0x23A8, symBinAddr: 0x1000156EC, symSize: 0xA4 }
  - { offset: 0x37FE4, size: 0x8, addend: 0x0, symName: __RNvXsF_NtNtCsfvfooZQ3Axs_4core4iter5rangejNtB5_4Step17forward_uncheckedCseI6s6vG8qtM_18build_script_build, symObjAddr: 0x244C, symBinAddr: 0x100015790, symSize: 0x48 }
  - { offset: 0x38055, size: 0x8, addend: 0x0, symName: __RNvMNtNtCsfvfooZQ3Axs_4core4char7methodsc13is_whitespaceCseI6s6vG8qtM_18build_script_build, symObjAddr: 0xAF4, symBinAddr: 0x100013E38, symSize: 0x90 }
  - { offset: 0x38108, size: 0x8, addend: 0x0, symName: __RNvNtNtCsfvfooZQ3Axs_4core4char7methods15encode_utf8_rawCseI6s6vG8qtM_18build_script_build, symObjAddr: 0x17E4, symBinAddr: 0x100014B28, symSize: 0x228 }
  - { offset: 0x3837D, size: 0x8, addend: 0x0, symName: __RNvXs0_NtNtCsfvfooZQ3Axs_4core5array4iterINtB5_8IntoIterjKj2_ENtNtNtNtB9_4iter6traits8iterator8Iterator4nextCseI6s6vG8qtM_18build_script_build, symObjAddr: 0x2020, symBinAddr: 0x100015364, symSize: 0x154 }
  - { offset: 0x385AD, size: 0x8, addend: 0x0, symName: __RNvXs2_NtNtCsfvfooZQ3Axs_4core5array4iterINtB5_8IntoIterjKj2_ENtNtNtB9_3ops4drop4Drop4dropCseI6s6vG8qtM_18build_script_build, symObjAddr: 0x2234, symBinAddr: 0x100015578, symSize: 0x24 }
  - { offset: 0x38611, size: 0x8, addend: 0x0, symName: __RNvNvNtCsfvfooZQ3Axs_4core9ub_checks23maybe_is_nonoverlapping7runtimeCseI6s6vG8qtM_18build_script_build, symObjAddr: 0x1A84, symBinAddr: 0x100014DC8, symSize: 0xD8 }
  - { offset: 0x38D5F, size: 0x8, addend: 0x0, symName: __RINvMs3_NtCsfvfooZQ3Axs_4core3fmtNtB6_9Arguments6new_v1Kj3_Kj2_ECseI6s6vG8qtM_18build_script_build, symObjAddr: 0x44, symBinAddr: 0x100013388, symSize: 0x54 }
  - { offset: 0x38F29, size: 0x8, addend: 0x0, symName: __RNvXCsavgYnAsOLFI_11phf_codegenINtB2_8DelegateRReENtNtCsfvfooZQ3Axs_4core3fmt7Display3fmtCseI6s6vG8qtM_18build_script_build, symObjAddr: 0x1B5C, symBinAddr: 0x100014EA0, symSize: 0x3C }
  - { offset: 0x38F72, size: 0x8, addend: 0x0, symName: __RNvXs0_CsavgYnAsOLFI_11phf_codegenINtB5_10DisplayMapReENtNtCsfvfooZQ3Axs_4core3fmt7Display3fmtCseI6s6vG8qtM_18build_script_build, symObjAddr: 0x1C18, symBinAddr: 0x100014F5C, symSize: 0x408 }
  - { offset: 0x39096, size: 0x8, addend: 0x0, symName: __RNvXs2_CsavgYnAsOLFI_11phf_codegenINtB5_10DisplaySetReENtNtCsfvfooZQ3Axs_4core3fmt7Display3fmtCseI6s6vG8qtM_18build_script_build, symObjAddr: 0x21B0, symBinAddr: 0x1000154F4, symSize: 0x84 }
  - { offset: 0x39280, size: 0x8, addend: 0x0, symName: __RINvNtNtCse1nGBsou5OW_5alloc3vec16in_place_collect18from_iter_in_placeINtNtNtNtCsfvfooZQ3Axs_4core4iter8adapters3map3MapINtNtB4_9into_iter8IntoIterINtNtB1f_6option6OptionjEENCINvCsgq90m4oCT4f_13phf_generator17try_generate_hashReEs1_0EjECseI6s6vG8qtM_18build_script_build, symObjAddr: 0x1A0, symBinAddr: 0x1000134E4, symSize: 0x25C }
  - { offset: 0x39A4A, size: 0x8, addend: 0x0, symName: __RINvMs_NtNtCsfvfooZQ3Axs_4core3fmt2rtNtB5_8Argument11new_displayINtCsavgYnAsOLFI_11phf_codegen10DisplayMapReEECseI6s6vG8qtM_18build_script_build, symObjAddr: 0x98, symBinAddr: 0x1000133DC, symSize: 0x2C }
  - { offset: 0x39AD7, size: 0x8, addend: 0x0, symName: __RINvMs_NtNtCsfvfooZQ3Axs_4core3fmt2rtNtB5_8Argument11new_displayINtCsavgYnAsOLFI_11phf_codegen10DisplaySetReEECseI6s6vG8qtM_18build_script_build, symObjAddr: 0xC4, symBinAddr: 0x100013408, symSize: 0x2C }
  - { offset: 0x39B71, size: 0x8, addend: 0x0, symName: __RINvMs_NtNtCsfvfooZQ3Axs_4core3fmt2rtNtB5_8Argument11new_displayINtCsavgYnAsOLFI_11phf_codegen8DelegateRReEECseI6s6vG8qtM_18build_script_build, symObjAddr: 0xF0, symBinAddr: 0x100013434, symSize: 0x2C }
  - { offset: 0x39C0B, size: 0x8, addend: 0x0, symName: __RINvMs_NtNtCsfvfooZQ3Axs_4core3fmt2rtNtB5_8Argument11new_displayRNtNtCse1nGBsou5OW_5alloc6string6StringECseI6s6vG8qtM_18build_script_build, symObjAddr: 0x11C, symBinAddr: 0x100013460, symSize: 0x2C }
  - { offset: 0x39C8B, size: 0x8, addend: 0x0, symName: __RINvMs_NtNtCsfvfooZQ3Axs_4core3fmt2rtNtB5_8Argument11new_displayReECseI6s6vG8qtM_18build_script_build, symObjAddr: 0x148, symBinAddr: 0x10001348C, symSize: 0x2C }
  - { offset: 0x39D18, size: 0x8, addend: 0x0, symName: __RINvMs_NtNtCsfvfooZQ3Axs_4core3fmt2rtNtB5_8Argument9new_debugyECseI6s6vG8qtM_18build_script_build, symObjAddr: 0x174, symBinAddr: 0x1000134B8, symSize: 0x2C }
  - { offset: 0x39FC8, size: 0x8, addend: 0x0, symName: __RNvMNtNtNtCsfvfooZQ3Axs_4core4iter8adapters7step_byINtB2_6StepByINtNtNtB8_3ops5range5RangejEE3newCseI6s6vG8qtM_18build_script_build, symObjAddr: 0xB84, symBinAddr: 0x100013EC8, symSize: 0xE0 }
  - { offset: 0x3A01E, size: 0x8, addend: 0x0, symName: __RNvMs1_CsavgYnAsOLFI_11phf_codegenINtB5_3SetReE3newCseI6s6vG8qtM_18build_script_build, symObjAddr: 0xC64, symBinAddr: 0x100013FA8, symSize: 0x4C }
  - { offset: 0x3A048, size: 0x8, addend: 0x0, symName: __RNvMs1_CsavgYnAsOLFI_11phf_codegenINtB5_3SetReE5buildCseI6s6vG8qtM_18build_script_build, symObjAddr: 0xCB0, symBinAddr: 0x100013FF4, symSize: 0x54 }
  - { offset: 0x3A081, size: 0x8, addend: 0x0, symName: __RNvMs1_CsavgYnAsOLFI_11phf_codegenINtB5_3SetReE5entryCseI6s6vG8qtM_18build_script_build, symObjAddr: 0xD04, symBinAddr: 0x100014048, symSize: 0x58 }
  - { offset: 0x3A0E5, size: 0x8, addend: 0x0, symName: __RNvMs1_NtNtCsfvfooZQ3Axs_4core3ptr8non_nullINtB5_7NonNullINtNtB9_6option6OptionjEE7sub_ptrCseI6s6vG8qtM_18build_script_build, symObjAddr: 0xD5C, symBinAddr: 0x1000140A0, symSize: 0x74 }
  - { offset: 0x3A1EB, size: 0x8, addend: 0x0, symName: __RNvMs1_NtNtCsfvfooZQ3Axs_4core3ptr8non_nullINtB5_7NonNullReE7sub_ptrCseI6s6vG8qtM_18build_script_build, symObjAddr: 0xDD0, symBinAddr: 0x100014114, symSize: 0x74 }
  - { offset: 0x3A36A, size: 0x8, addend: 0x0, symName: __RNvMs5_NtNtCscOYdFFY2T5N_3std2io5errorNtB5_5Error14is_interruptedCseI6s6vG8qtM_18build_script_build, symObjAddr: 0xE44, symBinAddr: 0x100014188, symSize: 0x138 }
  - { offset: 0x3A4B4, size: 0x8, addend: 0x0, symName: __RNvMs_CsavgYnAsOLFI_11phf_codegenINtB4_3MapReE3newCseI6s6vG8qtM_18build_script_build, symObjAddr: 0xF7C, symBinAddr: 0x1000142C0, symSize: 0xD8 }
  - { offset: 0x3A4DE, size: 0x8, addend: 0x0, symName: __RNvMs_CsavgYnAsOLFI_11phf_codegenINtB4_3MapReE5buildCseI6s6vG8qtM_18build_script_build, symObjAddr: 0x1054, symBinAddr: 0x100014398, symSize: 0x280 }
  - { offset: 0x3A56D, size: 0x8, addend: 0x0, symName: __RNvMs_CsavgYnAsOLFI_11phf_codegenINtB4_3MapReE5entryCseI6s6vG8qtM_18build_script_build, symObjAddr: 0x12D4, symBinAddr: 0x100014618, symSize: 0x88 }
  - { offset: 0x3A666, size: 0x8, addend: 0x0, symName: __RNvMs_NtNtCsfvfooZQ3Axs_4core5array4iterINtB4_8IntoIterjKj2_E12as_mut_sliceCseI6s6vG8qtM_18build_script_build, symObjAddr: 0x135C, symBinAddr: 0x1000146A0, symSize: 0xB0 }
  - { offset: 0x3A7AC, size: 0x8, addend: 0x0, symName: __RNvMsa_NtCsfvfooZQ3Axs_4core3fmtNtB5_9Formatter9write_fmtCseI6s6vG8qtM_18build_script_build, symObjAddr: 0x140C, symBinAddr: 0x100014750, symSize: 0x180 }
  - { offset: 0x3A893, size: 0x8, addend: 0x0, symName: __RNvMsf_NtNtCsfvfooZQ3Axs_4core3str4iterINtB5_13SplitInternalNtB7_12IsWhitespaceE4nextCseI6s6vG8qtM_18build_script_build, symObjAddr: 0x158C, symBinAddr: 0x1000148D0, symSize: 0x138 }
  - { offset: 0x3A9CF, size: 0x8, addend: 0x0, symName: __RNvMsf_NtNtCsfvfooZQ3Axs_4core3str4iterINtB5_13SplitInternalNtB7_12IsWhitespaceE7get_endCseI6s6vG8qtM_18build_script_build, symObjAddr: 0x16C4, symBinAddr: 0x100014A08, symSize: 0x120 }
  - { offset: 0x3AB3A, size: 0x8, addend: 0x0, symName: __RNvXCsloNvcHxBCre_9hashbrownRReINtB2_10EquivalentBq_E10equivalentCseI6s6vG8qtM_18build_script_build, symObjAddr: 0x1B98, symBinAddr: 0x100014EDC, symSize: 0x50 }
  - { offset: 0x3AF55, size: 0x8, addend: 0x0, symName: __RNvNvMs_CsavgYnAsOLFI_11phf_codegenINtB6_3MappE3new18noop_fix_for_27438, symObjAddr: 0x0, symBinAddr: 0x100015840, symSize: 0x14 }
  - { offset: 0x3AF71, size: 0x8, addend: 0x0, symName: __RNvNvMs_CsavgYnAsOLFI_11phf_codegenINtB6_3MappE3new18noop_fix_for_27438, symObjAddr: 0x0, symBinAddr: 0x100015840, symSize: 0x14 }
  - { offset: 0x3B016, size: 0x8, addend: 0x0, symName: __RNvXNvNtNtCscOYdFFY2T5N_3std2io5Write9write_fmtINtB2_7AdapterNtNtNtNtNtB8_3sys3pal4unix5stdio6StderrENtNtCsfvfooZQ3Axs_4core3fmt5Write9write_strCsg10Tkzhqh8d_4rand, symObjAddr: 0x319C, symBinAddr: 0x1000170A4, symSize: 0xB8 }
  - { offset: 0x3B074, size: 0x8, addend: 0x0, symName: __RNvYNtNtNtNtNtCscOYdFFY2T5N_3std3sys3pal4unix5stdio6StderrNtNtBc_2io5Write9write_allCsg10Tkzhqh8d_4rand, symObjAddr: 0x4510, symBinAddr: 0x1000179E8, symSize: 0x180 }
  - { offset: 0x3B115, size: 0x8, addend: 0x0, symName: __RNvYNtNtNtNtNtCscOYdFFY2T5N_3std3sys3pal4unix5stdio6StderrNtNtBc_2io5Write9write_fmtCsg10Tkzhqh8d_4rand, symObjAddr: 0x4690, symBinAddr: 0x100017B68, symSize: 0x128 }
  - { offset: 0x3B28B, size: 0x8, addend: 0x0, symName: __RNCNvXs1_NtNtNtCscOYdFFY2T5N_3std2io5error14repr_bitpackedNtB7_4ReprNtNtNtCsfvfooZQ3Axs_4core3ops4drop4Drop4drop0Csg10Tkzhqh8d_4rand, symObjAddr: 0x11B4, symBinAddr: 0x100015D4C, symSize: 0x34 }
  - { offset: 0x3B340, size: 0x8, addend: 0x0, symName: __RNvXs1_NtNtNtCscOYdFFY2T5N_3std2io5error14repr_bitpackedNtB5_4ReprNtNtNtCsfvfooZQ3Axs_4core3ops4drop4Drop4dropCsg10Tkzhqh8d_4rand, symObjAddr: 0x34C4, symBinAddr: 0x10001715C, symSize: 0x38 }
  - { offset: 0x3B369, size: 0x8, addend: 0x0, symName: __RINvNtNtNtCscOYdFFY2T5N_3std2io5error14repr_bitpacked11decode_reprINtNtCse1nGBsou5OW_5alloc5boxed3BoxNtB4_6CustomENCNvXs1_B2_NtB2_4ReprNtNtNtCsfvfooZQ3Axs_4core3ops4drop4Drop4drop0ECsg10Tkzhqh8d_4rand, symObjAddr: 0x87C, symBinAddr: 0x1000159D0, symSize: 0x230 }
  - { offset: 0x3B60E, size: 0x8, addend: 0x0, symName: __RNvNtNtNtCscOYdFFY2T5N_3std2io5error14repr_bitpacked14kind_from_primCsg10Tkzhqh8d_4rand, symObjAddr: 0x22DC, symBinAddr: 0x100016668, symSize: 0x608 }
  - { offset: 0x3CDBE, size: 0x8, addend: 0x0, symName: __RINvNtCsfvfooZQ3Axs_4core3ptr13drop_in_placeINtNtB4_6result6ResultuNtNtNtCscOYdFFY2T5N_3std2io5error5ErrorEECsg10Tkzhqh8d_4rand, symObjAddr: 0x288, symBinAddr: 0x100015854, symSize: 0x44 }
  - { offset: 0x3CDED, size: 0x8, addend: 0x0, symName: __RINvNtCsfvfooZQ3Axs_4core3ptr13drop_in_placeINtNtCse1nGBsou5OW_5alloc5boxed3BoxNtNtNtCscOYdFFY2T5N_3std2io5error6CustomEECsg10Tkzhqh8d_4rand, symObjAddr: 0x314, symBinAddr: 0x100015898, symSize: 0x60 }
  - { offset: 0x3CE1C, size: 0x8, addend: 0x0, symName: __RINvNtCsfvfooZQ3Axs_4core3ptr13drop_in_placeINtNtNtCscOYdFFY2T5N_3std2io5error9ErrorDataINtNtCse1nGBsou5OW_5alloc5boxed3BoxNtBJ_6CustomEEECsg10Tkzhqh8d_4rand, symObjAddr: 0x394, symBinAddr: 0x1000158F8, symSize: 0x48 }
  - { offset: 0x3CE4B, size: 0x8, addend: 0x0, symName: __RINvNtCsfvfooZQ3Axs_4core3ptr13drop_in_placeINtNvNtNtCscOYdFFY2T5N_3std2io5Write9write_fmt7AdapterNtNtNtNtNtBP_3sys3pal4unix5stdio6StderrEECsg10Tkzhqh8d_4rand, symObjAddr: 0x4B0, symBinAddr: 0x100015940, symSize: 0x24 }
  - { offset: 0x3CE7A, size: 0x8, addend: 0x0, symName: __RINvNtCsfvfooZQ3Axs_4core3ptr13drop_in_placeNtNtNtCscOYdFFY2T5N_3std2io5error5ErrorECsg10Tkzhqh8d_4rand, symObjAddr: 0x4F4, symBinAddr: 0x100015964, symSize: 0x24 }
  - { offset: 0x3CEA9, size: 0x8, addend: 0x0, symName: __RINvNtCsfvfooZQ3Axs_4core3ptr13drop_in_placeNtNtNtCscOYdFFY2T5N_3std2io5error6CustomECsg10Tkzhqh8d_4rand, symObjAddr: 0x518, symBinAddr: 0x100015988, symSize: 0x24 }
  - { offset: 0x3CED8, size: 0x8, addend: 0x0, symName: __RINvNtCsfvfooZQ3Axs_4core3ptr13drop_in_placeNtNtNtNtCscOYdFFY2T5N_3std2io5error14repr_bitpacked4ReprECsg10Tkzhqh8d_4rand, symObjAddr: 0x53C, symBinAddr: 0x1000159AC, symSize: 0x24 }
  - { offset: 0x3D2B7, size: 0x8, addend: 0x0, symName: __RNvNvMNtNtCsfvfooZQ3Axs_4core3ptr9const_ptrPp7sub_ptr18precondition_checkCsg10Tkzhqh8d_4rand, symObjAddr: 0x2924, symBinAddr: 0x100016CB0, symSize: 0x40 }
  - { offset: 0x3D77C, size: 0x8, addend: 0x0, symName: __RNvXs_NvNtNtCsfvfooZQ3Axs_4core3fmt5Write9write_fmtQINtNvNtNtCscOYdFFY2T5N_3std2io5Write9write_fmt7AdapterNtNtNtNtNtBX_3sys3pal4unix5stdio6StderrENtB4_12SpecWriteFmt14spec_write_fmtCsg10Tkzhqh8d_4rand, symObjAddr: 0x4120, symBinAddr: 0x100017798, symSize: 0x164 }
  - { offset: 0x3D82B, size: 0x8, addend: 0x0, symName: __RNvYINtNvNtNtCscOYdFFY2T5N_3std2io5Write9write_fmt7AdapterNtNtNtNtNtBb_3sys3pal4unix5stdio6StderrENtNtCsfvfooZQ3Axs_4core3fmt5Write10write_charCsg10Tkzhqh8d_4rand, symObjAddr: 0x4374, symBinAddr: 0x100017954, symSize: 0x70 }
  - { offset: 0x3D893, size: 0x8, addend: 0x0, symName: __RNvYINtNvNtNtCscOYdFFY2T5N_3std2io5Write9write_fmt7AdapterNtNtNtNtNtBb_3sys3pal4unix5stdio6StderrENtNtCsfvfooZQ3Axs_4core3fmt5Write9write_fmtCsg10Tkzhqh8d_4rand, symObjAddr: 0x43E4, symBinAddr: 0x1000179C4, symSize: 0x24 }
  - { offset: 0x3D9A6, size: 0x8, addend: 0x0, symName: __RNvMs7_NtCsfvfooZQ3Axs_4core3numy11to_le_bytesCsg10Tkzhqh8d_4rand, symObjAddr: 0x19D0, symBinAddr: 0x100016180, symSize: 0x18 }
  - { offset: 0x3D9FA, size: 0x8, addend: 0x0, symName: __RNvMs7_NtCsfvfooZQ3Axs_4core3numy13from_le_bytesCsg10Tkzhqh8d_4rand, symObjAddr: 0x19E8, symBinAddr: 0x100016198, symSize: 0x1C }
  - { offset: 0x3DACF, size: 0x8, addend: 0x0, symName: __RNvNvNtCsfvfooZQ3Axs_4core4hint21unreachable_unchecked18precondition_checkCsg10Tkzhqh8d_4rand, symObjAddr: 0x2BEC, symBinAddr: 0x100016D40, symSize: 0x1C }
  - { offset: 0x3DAF9, size: 0x8, addend: 0x0, symName: __RINvXs2U_NtNtCsfvfooZQ3Axs_4core5slice4iterINtB7_4IterhENtNtNtNtBb_4iter6traits8iterator8Iterator3allNCNvXNtNtCsg10Tkzhqh8d_4rand4rngs18xoshiro256plusplusNtB1G_18Xoshiro256PlusPlusNtCsc9oQL4R8Sxl_9rand_core11SeedableRng9from_seed0EB1K_, symObjAddr: 0xAAC, symBinAddr: 0x100015C00, symSize: 0xB0 }
  - { offset: 0x3DC6C, size: 0x8, addend: 0x0, symName: __RNvXs1f_NtNtCsfvfooZQ3Axs_4core5slice4iterINtB6_9ChunksMuthENtNtNtNtBa_4iter6traits8iterator8Iterator4nextCsg10Tkzhqh8d_4rand, symObjAddr: 0x34FC, symBinAddr: 0x100017194, symSize: 0x110 }
  - { offset: 0x3DDF9, size: 0x8, addend: 0x0, symName: __RNvXs1q_NtNtCsfvfooZQ3Axs_4core5slice4iterINtB6_11ChunksExacthENtNtNtNtBa_4iter6traits8iterator8Iterator24___iterator_get_uncheckedCsg10Tkzhqh8d_4rand, symObjAddr: 0x360C, symBinAddr: 0x1000172A4, symSize: 0x98 }
  - { offset: 0x3DEB7, size: 0x8, addend: 0x0, symName: __RNvXs1q_NtNtCsfvfooZQ3Axs_4core5slice4iterINtB6_11ChunksExacthENtNtNtNtBa_4iter6traits8iterator8Iterator9size_hintCsg10Tkzhqh8d_4rand, symObjAddr: 0x36A4, symBinAddr: 0x10001733C, symSize: 0x7C }
  - { offset: 0x3DF12, size: 0x8, addend: 0x0, symName: __RNvXs32_NtNtCsfvfooZQ3Axs_4core5slice4iterINtB6_7IterMutyENtNtNtNtBa_4iter6traits8iterator8Iterator24___iterator_get_uncheckedCsg10Tkzhqh8d_4rand, symObjAddr: 0x3840, symBinAddr: 0x1000173B8, symSize: 0x20 }
  - { offset: 0x3DF6D, size: 0x8, addend: 0x0, symName: __RNvXs32_NtNtCsfvfooZQ3Axs_4core5slice4iterINtB6_7IterMutyENtNtNtNtBa_4iter6traits8iterator8Iterator9size_hintCsg10Tkzhqh8d_4rand, symObjAddr: 0x3860, symBinAddr: 0x1000173D8, symSize: 0x70 }
  - { offset: 0x3E019, size: 0x8, addend: 0x0, symName: __RNvMNtCsfvfooZQ3Axs_4core5sliceSh10chunks_mutCsg10Tkzhqh8d_4rand, symObjAddr: 0x13AC, symBinAddr: 0x100015D80, symSize: 0xB0 }
  - { offset: 0x3E09B, size: 0x8, addend: 0x0, symName: __RNvMNtCsfvfooZQ3Axs_4core5sliceSh12chunks_exactCsg10Tkzhqh8d_4rand, symObjAddr: 0x145C, symBinAddr: 0x100015E30, symSize: 0x114 }
  - { offset: 0x3E188, size: 0x8, addend: 0x0, symName: __RNvMNtCsfvfooZQ3Axs_4core5sliceSh18split_at_uncheckedCsg10Tkzhqh8d_4rand, symObjAddr: 0x1570, symBinAddr: 0x100015F44, symSize: 0xDC }
  - { offset: 0x3E2E1, size: 0x8, addend: 0x0, symName: __RNvMNtCsfvfooZQ3Axs_4core5sliceSy8iter_mutCsg10Tkzhqh8d_4rand, symObjAddr: 0x169C, symBinAddr: 0x100016020, symSize: 0x28 }
  - { offset: 0x3E344, size: 0x8, addend: 0x0, symName: __RNvNvMNtCsfvfooZQ3Axs_4core5sliceSp18split_at_unchecked18precondition_checkCsg10Tkzhqh8d_4rand, symObjAddr: 0x28E4, symBinAddr: 0x100016C70, symSize: 0x40 }
  - { offset: 0x3E40D, size: 0x8, addend: 0x0, symName: __RNvNvNtNtCsfvfooZQ3Axs_4core5slice3raw14from_raw_parts18precondition_checkCsg10Tkzhqh8d_4rand, symObjAddr: 0x2C08, symBinAddr: 0x100016D5C, symSize: 0x168 }
  - { offset: 0x3E553, size: 0x8, addend: 0x0, symName: __RNvNvNtNtCsfvfooZQ3Axs_4core5slice3raw18from_raw_parts_mut18precondition_checkCsg10Tkzhqh8d_4rand, symObjAddr: 0x2D70, symBinAddr: 0x100016EC4, symSize: 0x168 }
  - { offset: 0x3E7A2, size: 0x8, addend: 0x0, symName: __RNvXs3_NtNtNtCsfvfooZQ3Axs_4core4iter8adapters3zipINtB5_3ZipINtNtNtBb_5slice4iter7IterMutyEINtBZ_11ChunksExacthEEINtB5_7ZipImplBW_B1r_E3newCsg10Tkzhqh8d_4rand, symObjAddr: 0x3CD8, symBinAddr: 0x100017448, symSize: 0xF4 }
  - { offset: 0x3E855, size: 0x8, addend: 0x0, symName: __RNvXs3_NtNtNtCsfvfooZQ3Axs_4core4iter8adapters3zipINtB5_3ZipINtNtNtBb_5slice4iter7IterMutyEINtBZ_11ChunksExacthEEINtB5_7ZipImplBW_B1r_E4nextCsg10Tkzhqh8d_4rand, symObjAddr: 0x3DCC, symBinAddr: 0x10001753C, symSize: 0xD8 }
  - { offset: 0x3E8B1, size: 0x8, addend: 0x0, symName: __RNvXs_NtNtNtCsfvfooZQ3Axs_4core4iter8adapters3zipINtB4_3ZipINtNtNtBa_5slice4iter7IterMutyEINtBY_11ChunksExacthEENtNtNtB8_6traits8iterator8Iterator4nextCsg10Tkzhqh8d_4rand, symObjAddr: 0x40FC, symBinAddr: 0x100017774, symSize: 0x24 }
  - { offset: 0x3E8F5, size: 0x8, addend: 0x0, symName: __RNvYINtNtNtCsfvfooZQ3Axs_4core5slice4iter11ChunksExacthENtNtNtNtB9_4iter8adapters3zip27TrustedRandomAccessNoCoerce4sizeCsg10Tkzhqh8d_4rand, symObjAddr: 0x42C4, symBinAddr: 0x1000178FC, symSize: 0x2C }
  - { offset: 0x3E92C, size: 0x8, addend: 0x0, symName: __RNvYINtNtNtCsfvfooZQ3Axs_4core5slice4iter7IterMutyENtNtNtNtB9_4iter8adapters3zip27TrustedRandomAccessNoCoerce4sizeCsg10Tkzhqh8d_4rand, symObjAddr: 0x4348, symBinAddr: 0x100017928, symSize: 0x2C }
  - { offset: 0x3E975, size: 0x8, addend: 0x0, symName: __RINvYINtNtNtCsfvfooZQ3Axs_4core5slice4iter7IterMutyENtNtNtNtBa_4iter6traits8iterator8Iterator3zipINtB6_11ChunksExacthEECsg10Tkzhqh8d_4rand, symObjAddr: 0xCF4, symBinAddr: 0x100015CB0, symSize: 0x9C }
  - { offset: 0x3E9F7, size: 0x8, addend: 0x0, symName: __RNvXNtNtNtCsfvfooZQ3Axs_4core4iter6traits7collectINtNtNtB6_8adapters3zip3ZipINtNtNtB8_5slice4iter7IterMutyEINtB1f_11ChunksExacthEENtB2_12IntoIterator9into_iterCsg10Tkzhqh8d_4rand, symObjAddr: 0x30EC, symBinAddr: 0x10001702C, symSize: 0x30 }
  - { offset: 0x3EA2F, size: 0x8, addend: 0x0, symName: __RNvXNtNtNtCsfvfooZQ3Axs_4core4iter6traits7collectINtNtNtB8_5slice4iter11ChunksExacthENtB2_12IntoIterator9into_iterCsg10Tkzhqh8d_4rand, symObjAddr: 0x311C, symBinAddr: 0x10001705C, symSize: 0x30 }
  - { offset: 0x3EA67, size: 0x8, addend: 0x0, symName: __RNvXNtNtNtCsfvfooZQ3Axs_4core4iter6traits7collectINtNtNtB8_5slice4iter9ChunksMuthENtB2_12IntoIterator9into_iterCsg10Tkzhqh8d_4rand, symObjAddr: 0x3184, symBinAddr: 0x10001708C, symSize: 0x18 }
  - { offset: 0x3EBCC, size: 0x8, addend: 0x0, symName: __RNvNvMNtNtCsfvfooZQ3Axs_4core5alloc6layoutNtB4_6Layout25from_size_align_unchecked18precondition_checkCsg10Tkzhqh8d_4rand, symObjAddr: 0x2964, symBinAddr: 0x100016CF0, symSize: 0x50 }
  - { offset: 0x3EC18, size: 0x8, addend: 0x0, symName: __RNvXs4_NtCsfvfooZQ3Axs_4core7convertRShINtB5_7TryIntoAhj8_E8try_intoCsg10Tkzhqh8d_4rand, symObjAddr: 0x3EA4, symBinAddr: 0x100017614, symSize: 0x28 }
  - { offset: 0x3ECB6, size: 0x8, addend: 0x0, symName: __RNvNtNtCsfvfooZQ3Axs_4core4char7methods15encode_utf8_rawCsg10Tkzhqh8d_4rand, symObjAddr: 0x20B4, symBinAddr: 0x100016440, symSize: 0x228 }
  - { offset: 0x3F16A, size: 0x8, addend: 0x0, symName: __RNvXs_NtCse1nGBsou5OW_5alloc5allocNtB4_6GlobalNtNtCsfvfooZQ3Axs_4core5alloc9Allocator10deallocateCsg10Tkzhqh8d_4rand, symObjAddr: 0x402C, symBinAddr: 0x1000176EC, symSize: 0x88 }
  - { offset: 0x3F2E4, size: 0x8, addend: 0x0, symName: __RNvXs6_NtCse1nGBsou5OW_5alloc5boxedINtB5_3BoxNtNtNtCscOYdFFY2T5N_3std2io5error6CustomENtNtNtCsfvfooZQ3Axs_4core3ops4drop4Drop4dropCsg10Tkzhqh8d_4rand, symObjAddr: 0x3F14, symBinAddr: 0x10001763C, symSize: 0xB0 }
  - { offset: 0x3F617, size: 0x8, addend: 0x0, symName: __RNvNtCsc9oQL4R8Sxl_9rand_core2le13read_u64_intoCsg10Tkzhqh8d_4rand, symObjAddr: 0x1CE0, symBinAddr: 0x10001621C, symSize: 0x224 }
  - { offset: 0x3FBCE, size: 0x8, addend: 0x0, symName: __RNvMs5_NtNtCscOYdFFY2T5N_3std2io5errorNtB5_5Error14is_interruptedCsg10Tkzhqh8d_4rand, symObjAddr: 0x1898, symBinAddr: 0x100016048, symSize: 0x138 }
  - { offset: 0x3FD32, size: 0x8, addend: 0x0, symName: __RNvMs_NtCse1nGBsou5OW_5alloc3vecINtB4_3VecjE3lenCsg10Tkzhqh8d_4rand, symObjAddr: 0x1BA0, symBinAddr: 0x1000161B4, symSize: 0x18 }
  - { offset: 0x3FE23, size: 0x8, addend: 0x0, symName: __RNvMsa_NtNtCsfvfooZQ3Axs_4core5slice4iterINtB5_7IterMutyE3newCsg10Tkzhqh8d_4rand, symObjAddr: 0x1C90, symBinAddr: 0x1000161CC, symSize: 0x50 }
  - { offset: 0x40424, size: 0x8, addend: 0x0, symName: __RNvNvMs1_NtNtCsfvfooZQ3Axs_4core3ptr8non_nullINtB7_7NonNullpE13new_unchecked18precondition_checkCsg10Tkzhqh8d_4rand, symObjAddr: 0xC64, symBinAddr: 0x100017D04, symSize: 0x38 }
  - { offset: 0x4075C, size: 0x8, addend: 0x0, symName: __RNvXs1a_NtCsfvfooZQ3Axs_4core3fmtRuNtB6_5Debug3fmtCsg10Tkzhqh8d_4rand, symObjAddr: 0xE34, symBinAddr: 0x100017D3C, symSize: 0x30 }
  - { offset: 0x407A8, size: 0x8, addend: 0x0, symName: __RNvXss_NtCsfvfooZQ3Axs_4core3fmtuNtB5_5Debug3fmtCsg10Tkzhqh8d_4rand, symObjAddr: 0xD800, symBinAddr: 0x100017F68, symSize: 0x40 }
  - { offset: 0x40BD8, size: 0x8, addend: 0x0, symName: __RNvXs2_NtCsfvfooZQ3Axs_4core5arrayAhj20_INtNtB7_7convert5AsMutShE6as_mutCsg10Tkzhqh8d_4rand, symObjAddr: 0xE64, symBinAddr: 0x100017D6C, symSize: 0x1C }
  - { offset: 0x40C55, size: 0x8, addend: 0x0, symName: __RNvXs5_NtCsfvfooZQ3Axs_4core5arrayAhj8_INtNtB7_7convert7TryFromRShE8try_fromCsg10Tkzhqh8d_4rand, symObjAddr: 0xE80, symBinAddr: 0x100017D88, symSize: 0x7C }
  - { offset: 0x40D5F, size: 0x8, addend: 0x0, symName: __RNvXso_NtCsfvfooZQ3Axs_4core5arrayNtB5_17TryFromSliceErrorNtNtB7_3fmt5Debug3fmtCsg10Tkzhqh8d_4rand, symObjAddr: 0xD69C, symBinAddr: 0x100017E04, symSize: 0x54 }
  - { offset: 0x40D9F, size: 0x8, addend: 0x0, symName: __RNvXsr_NtCsfvfooZQ3Axs_4core5arrayAhj20_NtNtB7_7default7Default7defaultCsg10Tkzhqh8d_4rand, symObjAddr: 0xD6F0, symBinAddr: 0x100017E58, symSize: 0x110 }
  - { offset: 0x411C9, size: 0x8, addend: 0x0, symName: __RNvXNtNtCsg10Tkzhqh8d_4rand4rngs18xoshiro256plusplusNtB2_18Xoshiro256PlusPlusNtCsc9oQL4R8Sxl_9rand_core11SeedableRng9from_seedB6_, symObjAddr: 0xDC80, symBinAddr: 0x100017FA8, symSize: 0xCC }
  - { offset: 0x41218, size: 0x8, addend: 0x0, symName: __RNCNvXNtNtCsg10Tkzhqh8d_4rand4rngs18xoshiro256plusplusNtB4_18Xoshiro256PlusPlusNtCsc9oQL4R8Sxl_9rand_core11SeedableRng9from_seed0B8_, symObjAddr: 0xDD4C, symBinAddr: 0x100018074, symSize: 0x38 }
  - { offset: 0x4126F, size: 0x8, addend: 0x0, symName: __RNvXNtNtCsg10Tkzhqh8d_4rand4rngs18xoshiro256plusplusNtB2_18Xoshiro256PlusPlusNtCsc9oQL4R8Sxl_9rand_core11SeedableRng13seed_from_u64, symObjAddr: 0xDD84, symBinAddr: 0x1000180AC, symSize: 0x1F0 }
  - { offset: 0x413C9, size: 0x8, addend: 0x0, symName: __RNvMs1_NtNtCsfvfooZQ3Axs_4core3ptr8non_nullINtB5_7NonNullyE7sub_ptrCsg10Tkzhqh8d_4rand, symObjAddr: 0x974, symBinAddr: 0x100017C90, symSize: 0x74 }
  - { offset: 0x41E83, size: 0x8, addend: 0x0, symName: __RNvXNtNtNtCsfvfooZQ3Axs_4core4iter6traits7collectINtNtNtB8_3ops5range5RangemENtB2_12IntoIterator9into_iterCs5OApa5yEEfO_11rand_chacha, symObjAddr: 0x1CF4, symBinAddr: 0x10001872C, symSize: 0x14 }
  - { offset: 0x41EC7, size: 0x8, addend: 0x0, symName: __RNvXs3_NtNtCsfvfooZQ3Axs_4core4iter5rangeINtNtNtB9_3ops5range5RangemENtB5_17RangeIteratorImpl9spec_nextCs5OApa5yEEfO_11rand_chacha, symObjAddr: 0x22D8, symBinAddr: 0x100018838, symSize: 0x90 }
  - { offset: 0x41F48, size: 0x8, addend: 0x0, symName: __RNvXs4_NtNtCsfvfooZQ3Axs_4core4iter5rangeINtNtNtB9_3ops5range5RangemENtNtNtB7_6traits8iterator8Iterator4nextCs5OApa5yEEfO_11rand_chacha, symObjAddr: 0x288C, symBinAddr: 0x1000188C8, symSize: 0x24 }
  - { offset: 0x41F85, size: 0x8, addend: 0x0, symName: __RNvXsB_NtNtCsfvfooZQ3Axs_4core4iter5rangemNtB5_4Step17forward_uncheckedCs5OApa5yEEfO_11rand_chacha, symObjAddr: 0x2AD8, symBinAddr: 0x100018974, symSize: 0x54 }
  - { offset: 0x4205C, size: 0x8, addend: 0x0, symName: __RNvXs1y_NtNtCsfvfooZQ3Axs_4core5slice4iterINtB6_14ChunksExactMuthENtNtNtNtBa_4iter6traits8iterator8Iterator4nextCs5OApa5yEEfO_11rand_chacha, symObjAddr: 0x1EEC, symBinAddr: 0x100018740, symSize: 0xF8 }
  - { offset: 0x42178, size: 0x8, addend: 0x0, symName: __RNvMNtCsfvfooZQ3Axs_4core5sliceSh16chunks_exact_mutCs5OApa5yEEfO_11rand_chacha, symObjAddr: 0x888, symBinAddr: 0x1000182E4, symSize: 0x114 }
  - { offset: 0x42265, size: 0x8, addend: 0x0, symName: __RNvMNtCsfvfooZQ3Axs_4core5sliceSh22split_at_mut_uncheckedCs5OApa5yEEfO_11rand_chacha, symObjAddr: 0x99C, symBinAddr: 0x1000183F8, symSize: 0xE8 }
  - { offset: 0x423BC, size: 0x8, addend: 0x0, symName: __RNvNvMNtCsfvfooZQ3Axs_4core5sliceSp22split_at_mut_unchecked18precondition_checkCs5OApa5yEEfO_11rand_chacha, symObjAddr: 0x15B4, symBinAddr: 0x1000184E0, symSize: 0x40 }
  - { offset: 0x4242E, size: 0x8, addend: 0x0, symName: __RNvNvNtNtCsfvfooZQ3Axs_4core5slice3raw18from_raw_parts_mut18precondition_checkCs5OApa5yEEfO_11rand_chacha, symObjAddr: 0x1A50, symBinAddr: 0x100018564, symSize: 0x168 }
  - { offset: 0x4257F, size: 0x8, addend: 0x0, symName: __RNvNvXs2_NtNtCsfvfooZQ3Axs_4core5slice5indexINtNtNtBb_3ops5range5RangejEINtB7_10SliceIndexSpE13get_unchecked18precondition_checkCs5OApa5yEEfO_11rand_chacha, symObjAddr: 0x1BB8, symBinAddr: 0x1000186CC, symSize: 0x60 }
  - { offset: 0x42641, size: 0x8, addend: 0x0, symName: __RNvXs5_NtNtCsfvfooZQ3Axs_4core5slice5indexINtNtNtB9_3ops5range9RangeFromjEINtB5_10SliceIndexShE5indexCs5OApa5yEEfO_11rand_chacha, symObjAddr: 0x28B0, symBinAddr: 0x1000188EC, symSize: 0x88 }
  - { offset: 0x427C6, size: 0x8, addend: 0x0, symName: __RNvNvMs6_NtCsfvfooZQ3Axs_4core3numm13unchecked_add18precondition_checkCs5OApa5yEEfO_11rand_chacha, symObjAddr: 0x1634, symBinAddr: 0x100018520, symSize: 0x44 }
  - { offset: 0x42B86, size: 0x8, addend: 0x0, symName: __RINvMs3_NtCsfvfooZQ3Axs_4core3fmtNtB6_9Arguments9new_constKj1_ECs5OApa5yEEfO_11rand_chacha, symObjAddr: 0x94, symBinAddr: 0x10001829C, symSize: 0x48 }
  - { offset: 0x42DF7, size: 0x8, addend: 0x0, symName: __RNvNvNtCsc9oQL4R8Sxl_9rand_core11SeedableRng13seed_from_u645pcg32, symObjAddr: 0x3370, symBinAddr: 0x10001993C, symSize: 0xE0 }
  - { offset: 0x43075, size: 0x8, addend: 0x0, symName: __RNvMs6_NtCsfvfooZQ3Axs_4core3numm11to_le_bytesCsc9oQL4R8Sxl_9rand_core, symObjAddr: 0xE10, symBinAddr: 0x100018DA8, symSize: 0x18 }
  - { offset: 0x43A99, size: 0x8, addend: 0x0, symName: __RINvNtCsfvfooZQ3Axs_4core3ptr13drop_in_placeINtNtCse1nGBsou5OW_5alloc5boxed3BoxDNtNtB4_5error5ErrorNtNtB4_6marker4SendNtB1B_4SyncEL_EECsc9oQL4R8Sxl_9rand_core, symObjAddr: 0x53C, symBinAddr: 0x100018A40, symSize: 0x80 }
  - { offset: 0x44306, size: 0x8, addend: 0x0, symName: __RINvNtCsfvfooZQ3Axs_4core3cmp3minjECsc9oQL4R8Sxl_9rand_core, symObjAddr: 0x48C, symBinAddr: 0x100018A1C, symSize: 0x24 }
  - { offset: 0x443A5, size: 0x8, addend: 0x0, symName: __RNvMNtCsfvfooZQ3Axs_4core5sliceSh15copy_from_sliceCsc9oQL4R8Sxl_9rand_core, symObjAddr: 0xBF0, symBinAddr: 0x100018D04, symSize: 0xA4 }
  - { offset: 0x4449A, size: 0x8, addend: 0x0, symName: __RNvNvNtCsfvfooZQ3Axs_4core4hint21unreachable_unchecked18precondition_checkCsc9oQL4R8Sxl_9rand_core, symObjAddr: 0x1C38, symBinAddr: 0x1000196FC, symSize: 0x1C }
  - { offset: 0x445B5, size: 0x8, addend: 0x0, symName: __RNvNvMNtNtCsfvfooZQ3Axs_4core5alloc6layoutNtB4_6Layout25from_size_align_unchecked18precondition_checkCsc9oQL4R8Sxl_9rand_core, symObjAddr: 0x17B0, symBinAddr: 0x1000193C8, symSize: 0x50 }
  - { offset: 0x4463C, size: 0x8, addend: 0x0, symName: __RNvNvNtCsfvfooZQ3Axs_4core10intrinsics19copy_nonoverlapping18precondition_checkCsc9oQL4R8Sxl_9rand_core, symObjAddr: 0x1854, symBinAddr: 0x100019418, symSize: 0x2E4 }
  - { offset: 0x44983, size: 0x8, addend: 0x0, symName: __RNvNvNtCsfvfooZQ3Axs_4core9ub_checks23maybe_is_nonoverlapping7runtimeCsc9oQL4R8Sxl_9rand_core, symObjAddr: 0x1C54, symBinAddr: 0x100019718, symSize: 0xD8 }
  - { offset: 0x44CAB, size: 0x8, addend: 0x0, symName: __RNCNvMs0_NtNtNtCscOYdFFY2T5N_3std2io5error14repr_bitpackedNtB7_4Repr4data0Csc9oQL4R8Sxl_9rand_core, symObjAddr: 0x870, symBinAddr: 0x100018CF0, symSize: 0x14 }
  - { offset: 0x44CE3, size: 0x8, addend: 0x0, symName: __RINvNtNtNtCscOYdFFY2T5N_3std2io5error14repr_bitpacked11decode_reprRNtB4_6CustomNCNvMs0_B2_NtB2_4Repr4data0ECsc9oQL4R8Sxl_9rand_core, symObjAddr: 0x640, symBinAddr: 0x100018AC0, symSize: 0x230 }
  - { offset: 0x44F88, size: 0x8, addend: 0x0, symName: __RNvNtNtNtCscOYdFFY2T5N_3std2io5error14repr_bitpacked14kind_from_primCsc9oQL4R8Sxl_9rand_core, symObjAddr: 0x11A8, symBinAddr: 0x100018DC0, symSize: 0x608 }
  - { offset: 0x459EA, size: 0x8, addend: 0x0, symName: __RINvMs3_NtCsfvfooZQ3Axs_4core3fmtNtB6_9Arguments6new_v1Kj2_Kj1_ECsc9oQL4R8Sxl_9rand_core, symObjAddr: 0x110, symBinAddr: 0x1000189C8, symSize: 0x54 }
  - { offset: 0x45C86, size: 0x8, addend: 0x0, symName: __RNvXs_NtCse1nGBsou5OW_5alloc5allocNtB4_6GlobalNtNtCsfvfooZQ3Axs_4core5alloc9Allocator10deallocateCsc9oQL4R8Sxl_9rand_core, symObjAddr: 0x20E4, symBinAddr: 0x1000198B4, symSize: 0x88 }
  - { offset: 0x45D90, size: 0x8, addend: 0x0, symName: __RNvXs6_NtCse1nGBsou5OW_5alloc5boxedINtB5_3BoxDNtNtCsfvfooZQ3Axs_4core5error5ErrorNtNtBM_6marker4SendNtB1j_4SyncEL_ENtNtNtBM_3ops4drop4Drop4dropCsc9oQL4R8Sxl_9rand_core, symObjAddr: 0x1FD4, symBinAddr: 0x1000197F0, symSize: 0xC4 }
  - { offset: 0x46809, size: 0x8, addend: 0x0, symName: __RNvNvMNtNtCsfvfooZQ3Axs_4core3ptr9const_ptrPp7sub_ptr18precondition_checkCsjVWQ9BORNxh_9getrandom, symObjAddr: 0xAD0, symBinAddr: 0x100019B34, symSize: 0x40 }
  - { offset: 0x46C80, size: 0x8, addend: 0x0, symName: __RNvXs2U_NtNtCsfvfooZQ3Axs_4core5slice4iterINtB6_4IterhENtNtNtNtBa_4iter6traits8iterator8Iterator4nextCsjVWQ9BORNxh_9getrandom, symObjAddr: 0xF90, symBinAddr: 0x100019B74, symSize: 0xBC }
  - { offset: 0x46E79, size: 0x8, addend: 0x0, symName: __RNvMNtCsfvfooZQ3Axs_4core5sliceSh4iterCsjVWQ9BORNxh_9getrandom, symObjAddr: 0x514, symBinAddr: 0x100019A48, symSize: 0x28 }
  - { offset: 0x46F21, size: 0x8, addend: 0x0, symName: __RNvYjNtNtCsfvfooZQ3Axs_4core3cmp3Ord3minCsjVWQ9BORNxh_9getrandom, symObjAddr: 0x1188, symBinAddr: 0x100019C30, symSize: 0x80 }
  - { offset: 0x4717A, size: 0x8, addend: 0x0, symName: __RINvMs_NtNtCsfvfooZQ3Axs_4core3fmt2rtNtB5_8Argument11new_displaymECsjVWQ9BORNxh_9getrandom, symObjAddr: 0xCC, symBinAddr: 0x100019A1C, symSize: 0x2C }
  - { offset: 0x4723B, size: 0x8, addend: 0x0, symName: __RNvMs1_NtNtCsfvfooZQ3Axs_4core3ptr8non_nullINtB5_7NonNullhE7sub_ptrCsjVWQ9BORNxh_9getrandom, symObjAddr: 0x658, symBinAddr: 0x100019A70, symSize: 0x74 }
  - { offset: 0x47393, size: 0x8, addend: 0x0, symName: __RNvMs4_NtNtCsfvfooZQ3Axs_4core5slice4iterINtB5_4IterhE3newCsjVWQ9BORNxh_9getrandom, symObjAddr: 0x6CC, symBinAddr: 0x100019AE4, symSize: 0x50 }
  - { offset: 0x475F3, size: 0x8, addend: 0x0, symName: __RINvMs3_NtCsfvfooZQ3Axs_4core3fmtNtB6_9Arguments6new_v1Kj1_KBS_ECsbvn0pgfta96_10phf_shared, symObjAddr: 0x0, symBinAddr: 0x100019CB0, symSize: 0x50 }
  - { offset: 0x47CDF, size: 0x8, addend: 0x0, symName: __RNvXs1a_NtCsfvfooZQ3Axs_4core3fmtReNtB6_5Debug3fmtCsbvn0pgfta96_10phf_shared, symObjAddr: 0x8AC, symBinAddr: 0x100019EAC, symSize: 0x3C }
  - { offset: 0x481EF, size: 0x8, addend: 0x0, symName: __RNvXs2U_NtNtCsfvfooZQ3Axs_4core5slice4iterINtB6_4IterhENtNtNtNtBa_4iter6traits8iterator8Iterator4nextCsbvn0pgfta96_10phf_shared, symObjAddr: 0xEB8, symBinAddr: 0x100019EE8, symSize: 0xBC }
  - { offset: 0x484CD, size: 0x8, addend: 0x0, symName: __RINvMs3_NtCsfvfooZQ3Axs_4core3fmtNtB6_9Arguments6new_v1Kj1_KBS_ECsbvn0pgfta96_10phf_shared, symObjAddr: 0x0, symBinAddr: 0x100019CB0, symSize: 0x50 }
  - { offset: 0x48838, size: 0x8, addend: 0x0, symName: __RINvMs_NtNtCsfvfooZQ3Axs_4core3fmt2rtNtB5_8Argument9new_debugReECsbvn0pgfta96_10phf_shared, symObjAddr: 0x1FC, symBinAddr: 0x100019D00, symSize: 0x2C }
  - { offset: 0x48B11, size: 0x8, addend: 0x0, symName: __RNvMsa_NtCsfvfooZQ3Axs_4core3fmtNtB5_9Formatter9write_fmtCsbvn0pgfta96_10phf_shared, symObjAddr: 0x4AC, symBinAddr: 0x100019D2C, symSize: 0x180 }
  - { offset: 0x48CAD, size: 0x8, addend: 0x0, symName: __RNvXsa_Csbvn0pgfta96_10phf_sharedeNtB5_8FmtConst9fmt_const, symObjAddr: 0x122C, symBinAddr: 0x100019FA4, symSize: 0x74 }
  - { offset: 0x48E5C, size: 0x8, addend: 0x0, symName: __RNvMs6_NtCslgz3eGxzwqz_9siphasher6sip128INtB5_6HasherNtB5_11Sip13RoundsE13new_with_keysB7_, symObjAddr: 0x18EC, symBinAddr: 0x10001A018, symSize: 0x90 }
  - { offset: 0x48EBA, size: 0x8, addend: 0x0, symName: __RNvMs6_NtCslgz3eGxzwqz_9siphasher6sip128INtB5_6HasherNtB5_11Sip13RoundsE5resetB7_, symObjAddr: 0x1A0C, symBinAddr: 0x10001A0A8, symSize: 0x9C }
  - { offset: 0x48F3E, size: 0x8, addend: 0x0, symName: ___llvm_profile_get_magic, symObjAddr: 0x28, symBinAddr: 0x10001A144, symSize: 0x14 }
  - { offset: 0x48F5F, size: 0x8, addend: 0x0, symName: ___llvm_profile_get_num_padding_bytes, symObjAddr: 0x44, symBinAddr: 0x10001A158, symSize: 0xC }
  - { offset: 0x48F67, size: 0x8, addend: 0x0, symName: ___llvm_profile_get_version, symObjAddr: 0x50, symBinAddr: 0x10001A164, symSize: 0xC }
  - { offset: 0x48F90, size: 0x8, addend: 0x0, symName: ___llvm_profile_get_version, symObjAddr: 0x50, symBinAddr: 0x10001A164, symSize: 0xC }
  - { offset: 0x49005, size: 0x8, addend: 0x0, symName: ___llvm_profile_is_continuous_mode_enabled, symObjAddr: 0x0, symBinAddr: 0x10001A170, symSize: 0x20 }
  - { offset: 0x49022, size: 0x8, addend: 0x0, symName: __MergedGlobals, symObjAddr: 0x3E20, symBinAddr: 0x10007CFF0, symSize: 0x0 }
  - { offset: 0x49044, size: 0x8, addend: 0x0, symName: __MergedGlobals, symObjAddr: 0x3E20, symBinAddr: 0x10007CFF0, symSize: 0x0 }
  - { offset: 0x49074, size: 0x8, addend: 0x0, symName: ___llvm_profile_is_continuous_mode_enabled, symObjAddr: 0x0, symBinAddr: 0x10001A170, symSize: 0x20 }
  - { offset: 0x4907C, size: 0x8, addend: 0x0, symName: ___llvm_profile_enable_continuous_mode, symObjAddr: 0x20, symBinAddr: 0x10001A190, symSize: 0x10 }
  - { offset: 0x4908C, size: 0x8, addend: 0x0, symName: ___llvm_profile_enable_continuous_mode, symObjAddr: 0x20, symBinAddr: 0x10001A190, symSize: 0x10 }
  - { offset: 0x49094, size: 0x8, addend: 0x0, symName: ___llvm_profile_disable_continuous_mode, symObjAddr: 0x30, symBinAddr: 0x10001A1A0, symSize: 0xC }
  - { offset: 0x490A9, size: 0x8, addend: 0x0, symName: ___llvm_profile_disable_continuous_mode, symObjAddr: 0x30, symBinAddr: 0x10001A1A0, symSize: 0xC }
  - { offset: 0x490B1, size: 0x8, addend: 0x0, symName: ___llvm_profile_set_page_size, symObjAddr: 0x3C, symBinAddr: 0x10001A1AC, symSize: 0xC }
  - { offset: 0x490C6, size: 0x8, addend: 0x0, symName: ___llvm_profile_set_page_size, symObjAddr: 0x3C, symBinAddr: 0x10001A1AC, symSize: 0xC }
  - { offset: 0x490CE, size: 0x8, addend: 0x0, symName: ___llvm_profile_get_size_for_buffer, symObjAddr: 0x48, symBinAddr: 0x10001A1B8, symSize: 0xC4 }
  - { offset: 0x490F1, size: 0x8, addend: 0x0, symName: ___llvm_profile_get_size_for_buffer, symObjAddr: 0x48, symBinAddr: 0x10001A1B8, symSize: 0xC4 }
  - { offset: 0x490F9, size: 0x8, addend: 0x0, symName: ___llvm_profile_get_size_for_buffer_internal, symObjAddr: 0x10C, symBinAddr: 0x10001A27C, symSize: 0x1C0 }
  - { offset: 0x4955C, size: 0x8, addend: 0x0, symName: ___llvm_profile_get_size_for_buffer_internal, symObjAddr: 0x10C, symBinAddr: 0x10001A27C, symSize: 0x1C0 }
  - { offset: 0x49564, size: 0x8, addend: 0x0, symName: ___llvm_profile_get_num_data, symObjAddr: 0x2CC, symBinAddr: 0x10001A43C, symSize: 0x10 }
  - { offset: 0x49964, size: 0x8, addend: 0x0, symName: ___llvm_profile_get_num_data, symObjAddr: 0x2CC, symBinAddr: 0x10001A43C, symSize: 0x10 }
  - { offset: 0x4996C, size: 0x8, addend: 0x0, symName: ___llvm_profile_get_data_size, symObjAddr: 0x2DC, symBinAddr: 0x10001A44C, symSize: 0x10 }
  - { offset: 0x499A0, size: 0x8, addend: 0x0, symName: ___llvm_profile_get_data_size, symObjAddr: 0x2DC, symBinAddr: 0x10001A44C, symSize: 0x10 }
  - { offset: 0x499A8, size: 0x8, addend: 0x0, symName: ___llvm_profile_get_num_vtable, symObjAddr: 0x2EC, symBinAddr: 0x10001A45C, symSize: 0x18 }
  - { offset: 0x499CD, size: 0x8, addend: 0x0, symName: ___llvm_profile_get_data_size, symObjAddr: 0x2DC, symBinAddr: 0x10001A44C, symSize: 0x10 }
  - { offset: 0x499FF, size: 0x8, addend: 0x0, symName: ___llvm_profile_get_num_vtable, symObjAddr: 0x2EC, symBinAddr: 0x10001A45C, symSize: 0x18 }
  - { offset: 0x49A07, size: 0x8, addend: 0x0, symName: ___llvm_profile_get_vtable_section_size, symObjAddr: 0x304, symBinAddr: 0x10001A474, symSize: 0x8 }
  - { offset: 0x49A5B, size: 0x8, addend: 0x0, symName: ___llvm_profile_get_vtable_section_size, symObjAddr: 0x304, symBinAddr: 0x10001A474, symSize: 0x8 }
  - { offset: 0x49A63, size: 0x8, addend: 0x0, symName: ___llvm_profile_counter_entry_size, symObjAddr: 0x30C, symBinAddr: 0x10001A47C, symSize: 0x1C }
  - { offset: 0x49A85, size: 0x8, addend: 0x0, symName: ___llvm_profile_counter_entry_size, symObjAddr: 0x30C, symBinAddr: 0x10001A47C, symSize: 0x1C }
  - { offset: 0x49A8D, size: 0x8, addend: 0x0, symName: ___llvm_profile_get_num_counters, symObjAddr: 0x328, symBinAddr: 0x10001A498, symSize: 0x48 }
  - { offset: 0x49A9E, size: 0x8, addend: 0x0, symName: ___llvm_profile_get_num_counters, symObjAddr: 0x328, symBinAddr: 0x10001A498, symSize: 0x48 }
  - { offset: 0x49AA6, size: 0x8, addend: 0x0, symName: ___llvm_profile_get_counters_size, symObjAddr: 0x370, symBinAddr: 0x10001A4E0, symSize: 0x5C }
  - { offset: 0x49B12, size: 0x8, addend: 0x0, symName: ___llvm_profile_get_counters_size, symObjAddr: 0x370, symBinAddr: 0x10001A4E0, symSize: 0x5C }
  - { offset: 0x49B1A, size: 0x8, addend: 0x0, symName: ___llvm_profile_get_num_bitmap_bytes, symObjAddr: 0x3CC, symBinAddr: 0x10001A53C, symSize: 0x8 }
  - { offset: 0x49BC6, size: 0x8, addend: 0x0, symName: ___llvm_profile_get_num_bitmap_bytes, symObjAddr: 0x3CC, symBinAddr: 0x10001A53C, symSize: 0x8 }
  - { offset: 0x49BCE, size: 0x8, addend: 0x0, symName: ___llvm_profile_get_name_size, symObjAddr: 0x3D4, symBinAddr: 0x10001A544, symSize: 0x8 }
  - { offset: 0x49BF1, size: 0x8, addend: 0x0, symName: ___llvm_profile_get_name_size, symObjAddr: 0x3D4, symBinAddr: 0x10001A544, symSize: 0x8 }
  - { offset: 0x49BF9, size: 0x8, addend: 0x0, symName: ___llvm_profile_get_padding_sizes_for_counters, symObjAddr: 0x3DC, symBinAddr: 0x10001A54C, symSize: 0x15C }
  - { offset: 0x49C1C, size: 0x8, addend: 0x0, symName: ___llvm_profile_get_padding_sizes_for_counters, symObjAddr: 0x3DC, symBinAddr: 0x10001A54C, symSize: 0x15C }
  - { offset: 0x49C24, size: 0x8, addend: 0x0, symName: _initBufferWriter, symObjAddr: 0x538, symBinAddr: 0x10001A6A8, symSize: 0x10 }
  - { offset: 0x49D87, size: 0x8, addend: 0x0, symName: _initBufferWriter, symObjAddr: 0x538, symBinAddr: 0x10001A6A8, symSize: 0x10 }
  - { offset: 0x49EF6, size: 0x8, addend: 0x0, symName: __MergedGlobals, symObjAddr: 0xA4F0, symBinAddr: 0x10007D000, symSize: 0x0 }
  - { offset: 0x4A015, size: 0x8, addend: 0x0, symName: __MergedGlobals, symObjAddr: 0xA4F0, symBinAddr: 0x10007D000, symSize: 0x0 }
  - { offset: 0x4A24C, size: 0x8, addend: 0x0, symName: __MergedGlobals, symObjAddr: 0xA4F0, symBinAddr: 0x10007D000, symSize: 0x0 }
  - { offset: 0x4A377, size: 0x8, addend: 0x0, symName: _getCurFilenameLength, symObjAddr: 0x1C8, symBinAddr: 0x10001A6B8, symSize: 0x108 }
  - { offset: 0x4A37F, size: 0x8, addend: 0x0, symName: _getCurFilename, symObjAddr: 0x2D0, symBinAddr: 0x10001A7C0, symSize: 0x2B8 }
  - { offset: 0x4A402, size: 0x8, addend: 0x0, symName: _getCurFilename, symObjAddr: 0x2D0, symBinAddr: 0x10001A7C0, symSize: 0x2B8 }
  - { offset: 0x4A635, size: 0x8, addend: 0x0, symName: _parseAndSetFilename, symObjAddr: 0x688, symBinAddr: 0x10001AA78, symSize: 0x4B8 }
  - { offset: 0x4A63D, size: 0x8, addend: 0x0, symName: ___llvm_profile_initialize, symObjAddr: 0xB40, symBinAddr: 0x10001AF30, symSize: 0xB8 }
  - { offset: 0x4A834, size: 0x8, addend: 0x0, symName: ___llvm_profile_initialize, symObjAddr: 0xB40, symBinAddr: 0x10001AF30, symSize: 0xB8 }
  - { offset: 0x4A8B4, size: 0x8, addend: 0x0, symName: ___llvm_profile_write_file, symObjAddr: 0xC74, symBinAddr: 0x10001AFE8, symSize: 0x1B4 }
  - { offset: 0x4A8BC, size: 0x8, addend: 0x0, symName: _writeFile, symObjAddr: 0xE28, symBinAddr: 0x10001B19C, symSize: 0x294 }
  - { offset: 0x4AA17, size: 0x8, addend: 0x0, symName: _writeFile, symObjAddr: 0xE28, symBinAddr: 0x10001B19C, symSize: 0x294 }
  - { offset: 0x4AB91, size: 0x8, addend: 0x0, symName: _writeFileWithoutReturn, symObjAddr: 0x138C, symBinAddr: 0x10001B430, symSize: 0x4 }
  - { offset: 0x4ABC8, size: 0x8, addend: 0x0, symName: _getProfileFileSizeForMerging, symObjAddr: 0x1574, symBinAddr: 0x10001B434, symSize: 0x110 }
  - { offset: 0x4ABD0, size: 0x8, addend: 0x0, symName: _mmapProfileForMerging, symObjAddr: 0x1684, symBinAddr: 0x10001B544, symSize: 0xBC }
  - { offset: 0x4AC0D, size: 0x8, addend: 0x0, symName: _mmapProfileForMerging, symObjAddr: 0x1684, symBinAddr: 0x10001B544, symSize: 0xBC }
  - { offset: 0x4AC15, size: 0x8, addend: 0x0, symName: _mmapForContinuousMode, symObjAddr: 0x1740, symBinAddr: 0x10001B600, symSize: 0x264 }
  - { offset: 0x4AC63, size: 0x8, addend: 0x0, symName: _mmapForContinuousMode, symObjAddr: 0x1740, symBinAddr: 0x10001B600, symSize: 0x264 }
  - { offset: 0x4AC6B, size: 0x8, addend: 0x0, symName: _fileWriter, symObjAddr: 0x19A4, symBinAddr: 0x10001B864, symSize: 0x140 }
  - { offset: 0x4AE2A, size: 0x8, addend: 0x0, symName: _fileWriter, symObjAddr: 0x19A4, symBinAddr: 0x10001B864, symSize: 0x140 }
  - { offset: 0x4AE32, size: 0x8, addend: 0x0, symName: _truncateCurrentFile, symObjAddr: 0x1AE4, symBinAddr: 0x10001B9A4, symSize: 0xD8 }
  - { offset: 0x4AEFA, size: 0x8, addend: 0x0, symName: _truncateCurrentFile, symObjAddr: 0x1AE4, symBinAddr: 0x10001B9A4, symSize: 0xD8 }
  - { offset: 0x4AF02, size: 0x8, addend: 0x0, symName: _initializeProfileForContinuousMode, symObjAddr: 0x1BBC, symBinAddr: 0x10001BA7C, symSize: 0x25C }
  - { offset: 0x4AFA0, size: 0x8, addend: 0x0, symName: _initializeProfileForContinuousMode, symObjAddr: 0x1BBC, symBinAddr: 0x10001BA7C, symSize: 0x25C }
  - { offset: 0x4AFA8, size: 0x8, addend: 0x0, symName: _createProfileDir, symObjAddr: 0x1E18, symBinAddr: 0x10001BCD8, symSize: 0xA4 }
  - { offset: 0x4B17D, size: 0x8, addend: 0x0, symName: _createProfileDir, symObjAddr: 0x1E18, symBinAddr: 0x10001BCD8, symSize: 0xA4 }
  - { offset: 0x4B185, size: 0x8, addend: 0x0, symName: _parseAndSetFilename.cold.1, symObjAddr: 0x1EBC, symBinAddr: 0x1000533EC, symSize: 0x24 }
  - { offset: 0x4B1E2, size: 0x8, addend: 0x0, symName: _parseAndSetFilename.cold.1, symObjAddr: 0x1EBC, symBinAddr: 0x1000533EC, symSize: 0x24 }
  - { offset: 0x4B1EA, size: 0x8, addend: 0x0, symName: _parseAndSetFilename.cold.2, symObjAddr: 0x1EE0, symBinAddr: 0x100053410, symSize: 0x24 }
  - { offset: 0x4B20C, size: 0x8, addend: 0x0, symName: _parseAndSetFilename.cold.2, symObjAddr: 0x1EE0, symBinAddr: 0x100053410, symSize: 0x24 }
  - { offset: 0x4B226, size: 0x8, addend: 0x0, symName: _parseAndSetFilename.cold.2, symObjAddr: 0x1EE0, symBinAddr: 0x100053410, symSize: 0x24 }
  - { offset: 0x4B236, size: 0x8, addend: 0x0, symName: _parseAndSetFilename.cold.2, symObjAddr: 0x1EE0, symBinAddr: 0x100053410, symSize: 0x24 }
  - { offset: 0x4B39B, size: 0x8, addend: 0x0, symName: _lprofProfileDumped, symObjAddr: 0x0, symBinAddr: 0x10001BD7C, symSize: 0xC }
  - { offset: 0x4B3B8, size: 0x8, addend: 0x0, symName: _ProfileDumped, symObjAddr: 0x4E0, symBinAddr: 0x10007D0D0, symSize: 0x0 }
  - { offset: 0x4B3C8, size: 0x8, addend: 0x0, symName: _lprofProfileDumped, symObjAddr: 0x0, symBinAddr: 0x10001BD7C, symSize: 0xC }
  - { offset: 0x4B410, size: 0x8, addend: 0x0, symName: _lprofGetLoadModuleSignature, symObjAddr: 0x0, symBinAddr: 0x10001BD88, symSize: 0xD0 }
  - { offset: 0x4B43D, size: 0x8, addend: 0x0, symName: _VPMergeHook, symBinAddr: 0x10007CFE8, symSize: 0x0 }
  - { offset: 0x4B6A2, size: 0x8, addend: 0x0, symName: _lprofGetLoadModuleSignature, symObjAddr: 0x0, symBinAddr: 0x10001BD88, symSize: 0xD0 }
  - { offset: 0x4B6AA, size: 0x8, addend: 0x0, symName: ___llvm_profile_check_compatibility, symObjAddr: 0xD0, symBinAddr: 0x10001BE58, symSize: 0x1CC }
  - { offset: 0x4B719, size: 0x8, addend: 0x0, symName: ___llvm_profile_check_compatibility, symObjAddr: 0xD0, symBinAddr: 0x10001BE58, symSize: 0x1CC }
  - { offset: 0x4B721, size: 0x8, addend: 0x0, symName: ___llvm_profile_merge_from_buffer, symObjAddr: 0x29C, symBinAddr: 0x10001C024, symSize: 0x48C }
  - { offset: 0x4B7F9, size: 0x8, addend: 0x0, symName: ___llvm_profile_merge_from_buffer, symObjAddr: 0x29C, symBinAddr: 0x10001C024, symSize: 0x48C }
  - { offset: 0x4BA62, size: 0x8, addend: 0x0, symName: _lprofMergeValueProfData, symObjAddr: 0x0, symBinAddr: 0x10001C4B0, symSize: 0xF0 }
  - { offset: 0x4BA73, size: 0x8, addend: 0x0, symName: _lprofMergeValueProfData, symObjAddr: 0x0, symBinAddr: 0x10001C4B0, symSize: 0xF0 }
  - { offset: 0x4BD3E, size: 0x8, addend: 0x0, symName: ___llvm_profile_begin_data, symObjAddr: 0x0, symBinAddr: 0x10001C5A0, symSize: 0xC }
  - { offset: 0x4BD5D, size: 0x8, addend: 0x0, symName: _CurrentVNode, symObjAddr: 0xC0, symBinAddr: 0x10007C468, symSize: 0x0 }
  - { offset: 0x4BDDA, size: 0x8, addend: 0x0, symName: _EndVNode, symObjAddr: 0xC8, symBinAddr: 0x10007C470, symSize: 0x0 }
  - { offset: 0x4BDE3, size: 0x8, addend: 0x0, symName: ___llvm_profile_begin_data, symObjAddr: 0x0, symBinAddr: 0x10001C5A0, symSize: 0xC }
  - { offset: 0x4BDEB, size: 0x8, addend: 0x0, symName: ___llvm_profile_end_data, symObjAddr: 0xC, symBinAddr: 0x10001C5AC, symSize: 0xC }
  - { offset: 0x4BE04, size: 0x8, addend: 0x0, symName: ___llvm_profile_end_data, symObjAddr: 0xC, symBinAddr: 0x10001C5AC, symSize: 0xC }
  - { offset: 0x4BE0C, size: 0x8, addend: 0x0, symName: ___llvm_profile_begin_names, symObjAddr: 0x18, symBinAddr: 0x10001C5B8, symSize: 0xC }
  - { offset: 0x4BE25, size: 0x8, addend: 0x0, symName: ___llvm_profile_begin_names, symObjAddr: 0x18, symBinAddr: 0x10001C5B8, symSize: 0xC }
  - { offset: 0x4BE2D, size: 0x8, addend: 0x0, symName: ___llvm_profile_end_names, symObjAddr: 0x24, symBinAddr: 0x10001C5C4, symSize: 0xC }
  - { offset: 0x4BE46, size: 0x8, addend: 0x0, symName: ___llvm_profile_end_names, symObjAddr: 0x24, symBinAddr: 0x10001C5C4, symSize: 0xC }
  - { offset: 0x4BE4E, size: 0x8, addend: 0x0, symName: ___llvm_profile_begin_counters, symObjAddr: 0x30, symBinAddr: 0x10001C5D0, symSize: 0xC }
  - { offset: 0x4BE67, size: 0x8, addend: 0x0, symName: ___llvm_profile_begin_counters, symObjAddr: 0x30, symBinAddr: 0x10001C5D0, symSize: 0xC }
  - { offset: 0x4BE6F, size: 0x8, addend: 0x0, symName: ___llvm_profile_end_counters, symObjAddr: 0x3C, symBinAddr: 0x10001C5DC, symSize: 0xC }
  - { offset: 0x4BE88, size: 0x8, addend: 0x0, symName: ___llvm_profile_end_counters, symObjAddr: 0x3C, symBinAddr: 0x10001C5DC, symSize: 0xC }
  - { offset: 0x4BE90, size: 0x8, addend: 0x0, symName: ___llvm_profile_begin_bitmap, symObjAddr: 0x48, symBinAddr: 0x10001C5E8, symSize: 0xC }
  - { offset: 0x4BEA9, size: 0x8, addend: 0x0, symName: ___llvm_profile_begin_bitmap, symObjAddr: 0x48, symBinAddr: 0x10001C5E8, symSize: 0xC }
  - { offset: 0x4BEB1, size: 0x8, addend: 0x0, symName: ___llvm_profile_end_bitmap, symObjAddr: 0x54, symBinAddr: 0x10001C5F4, symSize: 0xC }
  - { offset: 0x4BECA, size: 0x8, addend: 0x0, symName: ___llvm_profile_end_bitmap, symObjAddr: 0x54, symBinAddr: 0x10001C5F4, symSize: 0xC }
  - { offset: 0x4BED2, size: 0x8, addend: 0x0, symName: ___llvm_profile_begin_vtables, symObjAddr: 0x60, symBinAddr: 0x10001C600, symSize: 0xC }
  - { offset: 0x4BEEC, size: 0x8, addend: 0x0, symName: ___llvm_profile_begin_vtables, symObjAddr: 0x60, symBinAddr: 0x10001C600, symSize: 0xC }
  - { offset: 0x4BEF4, size: 0x8, addend: 0x0, symName: ___llvm_profile_end_vtables, symObjAddr: 0x6C, symBinAddr: 0x10001C60C, symSize: 0xC }
  - { offset: 0x4BF0D, size: 0x8, addend: 0x0, symName: ___llvm_profile_end_vtables, symObjAddr: 0x6C, symBinAddr: 0x10001C60C, symSize: 0xC }
  - { offset: 0x4BF15, size: 0x8, addend: 0x0, symName: ___llvm_profile_begin_vtabnames, symObjAddr: 0x78, symBinAddr: 0x10001C618, symSize: 0xC }
  - { offset: 0x4BF2D, size: 0x8, addend: 0x0, symName: ___llvm_profile_begin_vtabnames, symObjAddr: 0x78, symBinAddr: 0x10001C618, symSize: 0xC }
  - { offset: 0x4BF35, size: 0x8, addend: 0x0, symName: ___llvm_profile_end_vtabnames, symObjAddr: 0x84, symBinAddr: 0x10001C624, symSize: 0xC }
  - { offset: 0x4BF4E, size: 0x8, addend: 0x0, symName: ___llvm_profile_end_vtabnames, symObjAddr: 0x84, symBinAddr: 0x10001C624, symSize: 0xC }
  - { offset: 0x4BF70, size: 0x8, addend: 0x0, symName: ___llvm_profile_begin_vnodes, symObjAddr: 0x9C, symBinAddr: 0x10001C630, symSize: 0xC }
  - { offset: 0x4BF78, size: 0x8, addend: 0x0, symName: ___llvm_profile_end_vnodes, symObjAddr: 0xA8, symBinAddr: 0x10001C63C, symSize: 0xC }
  - { offset: 0x4BF91, size: 0x8, addend: 0x0, symName: ___llvm_profile_end_vnodes, symObjAddr: 0xA8, symBinAddr: 0x10001C63C, symSize: 0xC }
  - { offset: 0x4BF99, size: 0x8, addend: 0x0, symName: ___llvm_write_binary_ids, symObjAddr: 0xB4, symBinAddr: 0x10001C648, symSize: 0x8 }
  - { offset: 0x4BFB1, size: 0x8, addend: 0x0, symName: ___llvm_write_binary_ids, symObjAddr: 0xB4, symBinAddr: 0x10001C648, symSize: 0x8 }
  - { offset: 0x4C23B, size: 0x8, addend: 0x0, symName: __GLOBAL__sub_I_InstrProfilingRuntime.cpp, symObjAddr: 0x0, symBinAddr: 0x10001C650, symSize: 0x18 }
  - { offset: 0x4C25E, size: 0x8, addend: 0x0, symName: ___llvm_profile_runtime, symObjAddr: 0x590, symBinAddr: 0x10007CFA4, symSize: 0x0 }
  - { offset: 0x4C28E, size: 0x8, addend: 0x0, symName: __GLOBAL__sub_I_InstrProfilingRuntime.cpp, symObjAddr: 0x0, symBinAddr: 0x10001C650, symSize: 0x18 }
  - { offset: 0x4C30A, size: 0x8, addend: 0x0, symName: ___llvm_profile_recursive_mkdir, symObjAddr: 0x0, symBinAddr: 0x10001C668, symSize: 0x58 }
  - { offset: 0x4C312, size: 0x8, addend: 0x0, symName: _lprofDirMode, symObjAddr: 0x5A8, symBinAddr: 0x10007C478, symSize: 0x0 }
  - { offset: 0x4C329, size: 0x8, addend: 0x0, symName: _lprofDirMode, symObjAddr: 0x5A8, symBinAddr: 0x10007C478, symSize: 0x0 }
  - { offset: 0x4C35E, size: 0x8, addend: 0x0, symName: ___llvm_profile_recursive_mkdir, symObjAddr: 0x0, symBinAddr: 0x10001C668, symSize: 0x58 }
  - { offset: 0x4C3DE, size: 0x8, addend: 0x0, symName: _lprofGetHostName, symObjAddr: 0x70, symBinAddr: 0x10001C6C0, symSize: 0x80 }
  - { offset: 0x4C514, size: 0x8, addend: 0x0, symName: _lprofLockFileHandle, symObjAddr: 0x208, symBinAddr: 0x10001C740, symSize: 0x90 }
  - { offset: 0x4C51C, size: 0x8, addend: 0x0, symName: _lprofUnlockFileHandle, symObjAddr: 0x298, symBinAddr: 0x10001C7D0, symSize: 0x90 }
  - { offset: 0x4C5A2, size: 0x8, addend: 0x0, symName: _lprofUnlockFileHandle, symObjAddr: 0x298, symBinAddr: 0x10001C7D0, symSize: 0x90 }
  - { offset: 0x4C5AA, size: 0x8, addend: 0x0, symName: _lprofOpenFileEx, symObjAddr: 0x328, symBinAddr: 0x10001C860, symSize: 0xD0 }
  - { offset: 0x4C60A, size: 0x8, addend: 0x0, symName: _lprofOpenFileEx, symObjAddr: 0x328, symBinAddr: 0x10001C860, symSize: 0xD0 }
  - { offset: 0x4C682, size: 0x8, addend: 0x0, symName: _lprofFindFirstDirSeparator, symObjAddr: 0x538, symBinAddr: 0x10001C930, symSize: 0x8 }
  - { offset: 0x4C6C2, size: 0x8, addend: 0x0, symName: _lprofSuspendSigKill, symObjAddr: 0x548, symBinAddr: 0x10001C938, symSize: 0x8 }
  - { offset: 0x4C6CA, size: 0x8, addend: 0x0, symName: _lprofRestoreSigKill, symObjAddr: 0x550, symBinAddr: 0x10001C940, symSize: 0x4 }
  - { offset: 0x4C6E4, size: 0x8, addend: 0x0, symName: _lprofRestoreSigKill, symObjAddr: 0x550, symBinAddr: 0x10001C940, symSize: 0x4 }
  - { offset: 0x4C995, size: 0x8, addend: 0x0, symName: _getValueProfRecordHeaderSize, symObjAddr: 0x0, symBinAddr: 0x10001C944, symSize: 0xC }
  - { offset: 0x4C9B4, size: 0x8, addend: 0x0, symName: _VPMaxNumValsPerSite, symObjAddr: 0x1740, symBinAddr: 0x10007C480, symSize: 0x0 }
  - { offset: 0x4CA4A, size: 0x8, addend: 0x0, symName: __MergedGlobals, symObjAddr: 0xEF68, symBinAddr: 0x10007D100, symSize: 0x0 }
  - { offset: 0x4CA71, size: 0x8, addend: 0x0, symName: __MergedGlobals, symObjAddr: 0xEF68, symBinAddr: 0x10007D100, symSize: 0x0 }
  - { offset: 0x4CA88, size: 0x8, addend: 0x0, symName: __MergedGlobals, symObjAddr: 0xEF68, symBinAddr: 0x10007D100, symSize: 0x0 }
  - { offset: 0x4CAA8, size: 0x8, addend: 0x0, symName: _TheVPDataReader, symObjAddr: 0x1748, symBinAddr: 0x10007C488, symSize: 0x0 }
  - { offset: 0x4CD4F, size: 0x8, addend: 0x0, symName: _RTRecord, symObjAddr: 0xEF40, symBinAddr: 0x10007D0D8, symSize: 0x0 }
  - { offset: 0x4CF4A, size: 0x8, addend: 0x0, symName: _getValueProfRecordHeaderSize, symObjAddr: 0x0, symBinAddr: 0x10001C944, symSize: 0xC }
  - { offset: 0x4CFA3, size: 0x8, addend: 0x0, symName: _getValueProfRecordValueData, symObjAddr: 0x1C, symBinAddr: 0x10001C950, symSize: 0x14 }
  - { offset: 0x4D054, size: 0x8, addend: 0x0, symName: _getValueProfRecordNext, symObjAddr: 0x1B4, symBinAddr: 0x10001C964, symSize: 0x1A4 }
  - { offset: 0x4D05C, size: 0x8, addend: 0x0, symName: _getFirstValueProfRecord, symObjAddr: 0x358, symBinAddr: 0x10001CB08, symSize: 0x8 }
  - { offset: 0x4D0C8, size: 0x8, addend: 0x0, symName: _getFirstValueProfRecord, symObjAddr: 0x358, symBinAddr: 0x10001CB08, symSize: 0x8 }
  - { offset: 0x4D1AC, size: 0x8, addend: 0x0, symName: _lprofSetupValueProfiler, symObjAddr: 0xB38, symBinAddr: 0x10001CB10, symSize: 0x64 }
  - { offset: 0x4D2BD, size: 0x8, addend: 0x0, symName: ___llvm_profile_instrument_target_value, symObjAddr: 0xE30, symBinAddr: 0x10001CB74, symSize: 0x290 }
  - { offset: 0x4D3EC, size: 0x8, addend: 0x0, symName: _lprofGetVPDataReader, symObjAddr: 0x1108, symBinAddr: 0x10001CE04, symSize: 0xC }
  - { offset: 0x4D3F4, size: 0x8, addend: 0x0, symName: _initializeValueProfRuntimeRecord, symObjAddr: 0x1114, symBinAddr: 0x10001CE10, symSize: 0x210 }
  - { offset: 0x4D40E, size: 0x8, addend: 0x0, symName: _initializeValueProfRuntimeRecord, symObjAddr: 0x1114, symBinAddr: 0x10001CE10, symSize: 0x210 }
  - { offset: 0x4D416, size: 0x8, addend: 0x0, symName: _getNumValueDataForSiteWrapper, symObjAddr: 0x1324, symBinAddr: 0x10001D020, symSize: 0x14 }
  - { offset: 0x4D531, size: 0x8, addend: 0x0, symName: _getNumValueDataForSiteWrapper, symObjAddr: 0x1324, symBinAddr: 0x10001D020, symSize: 0x14 }
  - { offset: 0x4D539, size: 0x8, addend: 0x0, symName: _getValueProfDataSizeWrapper, symObjAddr: 0x1338, symBinAddr: 0x10001D034, symSize: 0xDC }
  - { offset: 0x4D577, size: 0x8, addend: 0x0, symName: _getNumValueDataForSiteWrapper, symObjAddr: 0x1324, symBinAddr: 0x10001D020, symSize: 0x14 }
  - { offset: 0x4D59D, size: 0x8, addend: 0x0, symName: _getValueProfDataSizeWrapper, symObjAddr: 0x1338, symBinAddr: 0x10001D034, symSize: 0xDC }
  - { offset: 0x4D5A5, size: 0x8, addend: 0x0, symName: _getNextNValueData, symObjAddr: 0x1414, symBinAddr: 0x10001D110, symSize: 0x44 }
  - { offset: 0x4D644, size: 0x8, addend: 0x0, symName: _getNextNValueData, symObjAddr: 0x1414, symBinAddr: 0x10001D110, symSize: 0x44 }
  - { offset: 0x4D64C, size: 0x8, addend: 0x0, symName: _getNumValueSitesRT, symObjAddr: 0x1458, symBinAddr: 0x10001D154, symSize: 0x10 }
  - { offset: 0x4D6DA, size: 0x8, addend: 0x0, symName: _getNumValueSitesRT, symObjAddr: 0x1458, symBinAddr: 0x10001D154, symSize: 0x10 }
  - { offset: 0x4D6E2, size: 0x8, addend: 0x0, symName: _getNumValueDataRT, symObjAddr: 0x1468, symBinAddr: 0x10001D164, symSize: 0x190 }
  - { offset: 0x4D71D, size: 0x8, addend: 0x0, symName: _getNumValueDataRT, symObjAddr: 0x1468, symBinAddr: 0x10001D164, symSize: 0x190 }
  - { offset: 0x4D793, size: 0x8, addend: 0x0, symName: ___llvm_profile_instrument_target_value.cold.1, symObjAddr: 0x161C, symBinAddr: 0x100053434, symSize: 0x24 }
  - { offset: 0x4D824, size: 0x8, addend: 0x0, symName: ___llvm_profile_raw_version, symObjAddr: 0x0, symBinAddr: 0x10007C4B8, symSize: 0x0 }
  - { offset: 0x4D866, size: 0x8, addend: 0x0, symName: _lprofBufferWriter, symObjAddr: 0x0, symBinAddr: 0x10001D2F4, symSize: 0x6C }
  - { offset: 0x4D885, size: 0x8, addend: 0x0, symName: _FreeHook, symObjAddr: 0x4F30, symBinAddr: 0x10007CFA8, symSize: 0x0 }
  - { offset: 0x4D8AB, size: 0x8, addend: 0x0, symName: _DynamicBufferIOBuffer, symObjAddr: 0x4F38, symBinAddr: 0x10007CFB0, symSize: 0x0 }
  - { offset: 0x4D8D9, size: 0x8, addend: 0x0, symName: _VPBufferSize, symObjAddr: 0x4F40, symBinAddr: 0x10007CFB8, symSize: 0x0 }
  - { offset: 0x4D900, size: 0x8, addend: 0x0, symName: __MergedGlobals, symObjAddr: 0x6F48, symBinAddr: 0x10007F110, symSize: 0x0 }
  - { offset: 0x4DA4F, size: 0x8, addend: 0x0, symName: _BufferIOBuffer, symObjAddr: 0x4F48, symBinAddr: 0x10007D110, symSize: 0x0 }
  - { offset: 0x4DA79, size: 0x8, addend: 0x0, symName: __MergedGlobals, symObjAddr: 0x6F48, symBinAddr: 0x10007F110, symSize: 0x0 }
  - { offset: 0x4DAF6, size: 0x8, addend: 0x0, symName: _lprofBufferWriter, symObjAddr: 0x0, symBinAddr: 0x10001D2F4, symSize: 0x6C }
  - { offset: 0x4DC13, size: 0x8, addend: 0x0, symName: _lprofBufferIOWrite, symObjAddr: 0x100, symBinAddr: 0x10001D360, symSize: 0x134 }
  - { offset: 0x4DD19, size: 0x8, addend: 0x0, symName: _lprofWriteData, symObjAddr: 0x2F4, symBinAddr: 0x10001D494, symSize: 0xD4 }
  - { offset: 0x4DD21, size: 0x8, addend: 0x0, symName: _lprofWriteDataImpl, symObjAddr: 0x3C8, symBinAddr: 0x10001D568, symSize: 0x46C }
  - { offset: 0x4E14F, size: 0x8, addend: 0x0, symName: _lprofWriteDataImpl, symObjAddr: 0x3C8, symBinAddr: 0x10001D568, symSize: 0x46C }
  - { offset: 0x4E481, size: 0x8, addend: 0x0, symName: _writeOneValueProfData, symObjAddr: 0x8C0, symBinAddr: 0x10001D9D4, symSize: 0x4A8 }
  - { offset: 0x4EBCF, size: 0x8, addend: 0x0, symName: '__ZN5alloc11collections5btree3map25IntoIter$LT$K$C$V$C$A$GT$10dying_next17h1d88f957430bad1dE', symObjAddr: 0xECA8, symBinAddr: 0x100028EE8, symSize: 0x224 }
  - { offset: 0x4EFB7, size: 0x8, addend: 0x0, symName: '__ZN5alloc11collections5btree3map25IntoIter$LT$K$C$V$C$A$GT$10dying_next17hfaa5a005d7e39d8eE', symObjAddr: 0xF0F0, symBinAddr: 0x10002910C, symSize: 0x224 }
  - { offset: 0x4FCA5, size: 0x8, addend: 0x0, symName: '__ZN5alloc7raw_vec19RawVec$LT$T$C$A$GT$8grow_one17h095dc4f4c91ff6b9E', symObjAddr: 0x114B8, symBinAddr: 0x10002971C, symSize: 0xD0 }
  - { offset: 0x4FDFA, size: 0x8, addend: 0x0, symName: '__ZN5alloc7raw_vec19RawVec$LT$T$C$A$GT$8grow_one17h3a19a4ab2b92359dE', symObjAddr: 0x11658, symBinAddr: 0x1000297EC, symSize: 0xC0 }
  - { offset: 0x4FF4F, size: 0x8, addend: 0x0, symName: '__ZN5alloc7raw_vec19RawVec$LT$T$C$A$GT$8grow_one17h40071feec6bbd372E', symObjAddr: 0x11718, symBinAddr: 0x1000298AC, symSize: 0xD0 }
  - { offset: 0x500A4, size: 0x8, addend: 0x0, symName: '__ZN5alloc7raw_vec19RawVec$LT$T$C$A$GT$8grow_one17h4a39c02819ac1667E', symObjAddr: 0x117E8, symBinAddr: 0x10002997C, symSize: 0xD0 }
  - { offset: 0x501F9, size: 0x8, addend: 0x0, symName: '__ZN5alloc7raw_vec19RawVec$LT$T$C$A$GT$8grow_one17h4a92fc1fe476e477E', symObjAddr: 0x118B8, symBinAddr: 0x100029A4C, symSize: 0xC0 }
  - { offset: 0x5034E, size: 0x8, addend: 0x0, symName: '__ZN5alloc7raw_vec19RawVec$LT$T$C$A$GT$8grow_one17h4fe34a41a9b5eb13E', symObjAddr: 0x11978, symBinAddr: 0x100029B0C, symSize: 0xC0 }
  - { offset: 0x504A3, size: 0x8, addend: 0x0, symName: '__ZN5alloc7raw_vec19RawVec$LT$T$C$A$GT$8grow_one17h51ebdaf7922ccb0fE', symObjAddr: 0x11A38, symBinAddr: 0x100029BCC, symSize: 0xD0 }
  - { offset: 0x505F8, size: 0x8, addend: 0x0, symName: '__ZN5alloc7raw_vec19RawVec$LT$T$C$A$GT$8grow_one17h5fa1addd75b9c473E', symObjAddr: 0x11B08, symBinAddr: 0x100029C9C, symSize: 0xC0 }
  - { offset: 0x5074D, size: 0x8, addend: 0x0, symName: '__ZN5alloc7raw_vec19RawVec$LT$T$C$A$GT$8grow_one17h86dfd012ac0923eeE', symObjAddr: 0x11BC8, symBinAddr: 0x100029D5C, symSize: 0xCC }
  - { offset: 0x508A2, size: 0x8, addend: 0x0, symName: '__ZN5alloc7raw_vec19RawVec$LT$T$C$A$GT$8grow_one17h94e52b7d38af74feE', symObjAddr: 0x11C94, symBinAddr: 0x100029E28, symSize: 0xCC }
  - { offset: 0x509F7, size: 0x8, addend: 0x0, symName: '__ZN5alloc7raw_vec19RawVec$LT$T$C$A$GT$8grow_one17hbaffb1ea2421dae5E', symObjAddr: 0x11D60, symBinAddr: 0x100029EF4, symSize: 0xCC }
  - { offset: 0x51150, size: 0x8, addend: 0x0, symName: __ZN5alloc7raw_vec11finish_grow17hd37f20dcfa74548bE, symObjAddr: 0x11430, symBinAddr: 0x1000535D0, symSize: 0x88 }
  - { offset: 0x511EB, size: 0x8, addend: 0x0, symName: '__ZN5alloc7raw_vec20RawVecInner$LT$A$GT$7reserve21do_reserve_and_handle17h59c9ec03f2a10329E', symObjAddr: 0x11E2C, symBinAddr: 0x100053658, symSize: 0xF0 }
  - { offset: 0x52431, size: 0x8, addend: 0x0, symName: '__ZN5alloc4sync16Arc$LT$T$C$A$GT$9drop_slow17h382cff577ce4ab40E', symObjAddr: 0x10FD0, symBinAddr: 0x100029330, symSize: 0x100 }
  - { offset: 0x52761, size: 0x8, addend: 0x0, symName: '__ZN5alloc4sync16Arc$LT$T$C$A$GT$9drop_slow17h5608352b196d8cb3E', symObjAddr: 0x110D0, symBinAddr: 0x100029430, symSize: 0xA0 }
  - { offset: 0x52A85, size: 0x8, addend: 0x0, symName: '__ZN5alloc4sync16Arc$LT$T$C$A$GT$9drop_slow17h5ede859a095ca78aE', symObjAddr: 0x111E4, symBinAddr: 0x1000294D0, symSize: 0x78 }
  - { offset: 0x52C51, size: 0x8, addend: 0x0, symName: '__ZN5alloc4sync16Arc$LT$T$C$A$GT$9drop_slow17h7cf1d5f987884bcfE', symObjAddr: 0x1125C, symBinAddr: 0x100029548, symSize: 0xC0 }
  - { offset: 0x52F76, size: 0x8, addend: 0x0, symName: '__ZN5alloc4sync16Arc$LT$T$C$A$GT$9drop_slow17h90e2e762cfbfaa1eE', symObjAddr: 0x1131C, symBinAddr: 0x100029608, symSize: 0x44 }
  - { offset: 0x53053, size: 0x8, addend: 0x0, symName: '__ZN5alloc4sync16Arc$LT$T$C$A$GT$9drop_slow17h9659d3e2cd59fce8E', symObjAddr: 0x11360, symBinAddr: 0x10002964C, symSize: 0xD0 }
  - { offset: 0x535BB, size: 0x8, addend: 0x0, symName: '__ZN64_$LT$alloc..ffi..c_str..NulError$u20$as$u20$core..fmt..Debug$GT$3fmt17h18ce3d950e35fa91E', symObjAddr: 0x18D64, symBinAddr: 0x100030E08, symSize: 0x4C }
  - { offset: 0x5399E, size: 0x8, addend: 0x0, symName: '__ZN58_$LT$alloc..string..String$u20$as$u20$core..fmt..Debug$GT$3fmt17hdbacb71d50eff926E', symObjAddr: 0xD6B8, symBinAddr: 0x100028CF4, symSize: 0x1C }
  - { offset: 0x53A59, size: 0x8, addend: 0x0, symName: '__ZN58_$LT$alloc..string..String$u20$as$u20$core..fmt..Write$GT$10write_char17h67c485e816708459E', symObjAddr: 0xD6D4, symBinAddr: 0x100028D10, symSize: 0x158 }
  - { offset: 0x53CBD, size: 0x8, addend: 0x0, symName: '__ZN58_$LT$alloc..string..String$u20$as$u20$core..fmt..Write$GT$9write_str17h4bc2793cacc1d696E', symObjAddr: 0xD82C, symBinAddr: 0x100028E68, symSize: 0x80 }
  - { offset: 0x53E16, size: 0x8, addend: 0x0, symName: '__ZN60_$LT$alloc..string..String$u20$as$u20$core..fmt..Display$GT$3fmt17ha0099383a97e68c2E', symObjAddr: 0x18D48, symBinAddr: 0x100030DEC, symSize: 0x1C }
  - { offset: 0x55235, size: 0x8, addend: 0x0, symName: '__ZN4core3ptr107drop_in_place$LT$core..pin..Pin$LT$alloc..boxed..Box$LT$std..sys..pal..unix..sync..mutex..Mutex$GT$$GT$$GT$17hc07c140671e79445E', symObjAddr: 0x1CB0, symBinAddr: 0x10001E710, symSize: 0x2C }
  - { offset: 0x5532E, size: 0x8, addend: 0x0, symName: '__ZN4core3ptr108drop_in_place$LT$alloc..collections..btree..map..BTreeMap$LT$u64$C$gimli..read..abbrev..Abbreviation$GT$$GT$17haa74a0211d9ed923E', symObjAddr: 0x1CDC, symBinAddr: 0x10001E73C, symSize: 0xB0 }
  - { offset: 0x554FF, size: 0x8, addend: 0x0, symName: '__ZN4core3ptr109drop_in_place$LT$alloc..sync..Arc$LT$std..sync..poison..mutex..Mutex$LT$alloc..vec..Vec$LT$u8$GT$$GT$$GT$$GT$17h61b1cac8a1fede90E', symObjAddr: 0x1D8C, symBinAddr: 0x10001E7EC, symSize: 0x30 }
  - { offset: 0x55594, size: 0x8, addend: 0x0, symName: '__ZN4core3ptr118drop_in_place$LT$std..io..Write..write_fmt..Adapter$LT$std..io..cursor..Cursor$LT$$RF$mut$u20$$u5b$u8$u5d$$GT$$GT$$GT$17h5c63d0c0bee45058E', symObjAddr: 0x1E54, symBinAddr: 0x10001E81C, symSize: 0x20 }
  - { offset: 0x555CC, size: 0x8, addend: 0x0, symName: '__ZN4core3ptr123drop_in_place$LT$addr2line..Context$LT$gimli..read..endian_slice..EndianSlice$LT$gimli..endianity..LittleEndian$GT$$GT$$GT$17hc6d5be859abd218dE', symObjAddr: 0x1E74, symBinAddr: 0x10001E83C, symSize: 0x70 }
  - { offset: 0x5572D, size: 0x8, addend: 0x0, symName: '__ZN4core3ptr129drop_in_place$LT$addr2line..unit..ResUnit$LT$gimli..read..endian_slice..EndianSlice$LT$gimli..endianity..LittleEndian$GT$$GT$$GT$17h3200663a94d9b140E', symObjAddr: 0x202C, symBinAddr: 0x10001E8AC, symSize: 0xE4 }
  - { offset: 0x5594B, size: 0x8, addend: 0x0, symName: '__ZN4core3ptr129drop_in_place$LT$addr2line..unit..SupUnit$LT$gimli..read..endian_slice..EndianSlice$LT$gimli..endianity..LittleEndian$GT$$GT$$GT$17hea048140b03f01afE', symObjAddr: 0x2110, symBinAddr: 0x10001E990, symSize: 0x54 }
  - { offset: 0x55A26, size: 0x8, addend: 0x0, symName: '__ZN4core3ptr130drop_in_place$LT$addr2line..unit..ResUnits$LT$gimli..read..endian_slice..EndianSlice$LT$gimli..endianity..LittleEndian$GT$$GT$$GT$17he56c193886414dbaE', symObjAddr: 0x2164, symBinAddr: 0x10001E9E4, symSize: 0xD0 }
  - { offset: 0x55BCE, size: 0x8, addend: 0x0, symName: '__ZN4core3ptr130drop_in_place$LT$addr2line..unit..SupUnits$LT$gimli..read..endian_slice..EndianSlice$LT$gimli..endianity..LittleEndian$GT$$GT$$GT$17h74d4d2bc946c0774E', symObjAddr: 0x2234, symBinAddr: 0x10001EAB4, symSize: 0xE4 }
  - { offset: 0x55D8C, size: 0x8, addend: 0x0, symName: '__ZN4core3ptr130drop_in_place$LT$gimli..read..dwarf..Dwarf$LT$gimli..read..endian_slice..EndianSlice$LT$gimli..endianity..LittleEndian$GT$$GT$$GT$17h733659cc5e33a4cbE', symObjAddr: 0x2318, symBinAddr: 0x10001EB98, symSize: 0x58 }
  - { offset: 0x55E5A, size: 0x8, addend: 0x0, symName: '__ZN4core3ptr131drop_in_place$LT$$u5b$core..option..Option$LT$core..option..Option$LT$std..backtrace_rs..symbolize..gimli..Mapping$GT$$GT$$u5d$$GT$17h1b55ae3732cae68aE', symObjAddr: 0x2370, symBinAddr: 0x10001EBF0, symSize: 0xCC }
  - { offset: 0x55F04, size: 0x8, addend: 0x0, symName: '__ZN4core3ptr137drop_in_place$LT$gimli..read..dwarf..Unit$LT$gimli..read..endian_slice..EndianSlice$LT$gimli..endianity..LittleEndian$GT$$C$usize$GT$$GT$17h90351d6bab11b82cE', symObjAddr: 0x2500, symBinAddr: 0x10001ECBC, symSize: 0x54 }
  - { offset: 0x56001, size: 0x8, addend: 0x0, symName: '__ZN4core3ptr138drop_in_place$LT$addr2line..function..LazyFunction$LT$gimli..read..endian_slice..EndianSlice$LT$gimli..endianity..LittleEndian$GT$$GT$$GT$17h0f9458c797bd90e9E', symObjAddr: 0x2554, symBinAddr: 0x10001ED10, symSize: 0x64 }
  - { offset: 0x56018, size: 0x8, addend: 0x0, symName: '__ZN4core3ptr138drop_in_place$LT$addr2line..function..LazyFunction$LT$gimli..read..endian_slice..EndianSlice$LT$gimli..endianity..LittleEndian$GT$$GT$$GT$17h0f9458c797bd90e9E', symObjAddr: 0x2554, symBinAddr: 0x10001ED10, symSize: 0x64 }
  - { offset: 0x5602D, size: 0x8, addend: 0x0, symName: '__ZN4core3ptr138drop_in_place$LT$addr2line..function..LazyFunction$LT$gimli..read..endian_slice..EndianSlice$LT$gimli..endianity..LittleEndian$GT$$GT$$GT$17h0f9458c797bd90e9E', symObjAddr: 0x2554, symBinAddr: 0x10001ED10, symSize: 0x64 }
  - { offset: 0x56042, size: 0x8, addend: 0x0, symName: '__ZN4core3ptr138drop_in_place$LT$addr2line..function..LazyFunction$LT$gimli..read..endian_slice..EndianSlice$LT$gimli..endianity..LittleEndian$GT$$GT$$GT$17h0f9458c797bd90e9E', symObjAddr: 0x2554, symBinAddr: 0x10001ED10, symSize: 0x64 }
  - { offset: 0x56184, size: 0x8, addend: 0x0, symName: '__ZN4core3ptr144drop_in_place$LT$alloc..vec..Vec$LT$core..option..Option$LT$core..option..Option$LT$std..backtrace_rs..symbolize..gimli..Mapping$GT$$GT$$GT$$GT$17hd5b41028903956eeE', symObjAddr: 0x25B8, symBinAddr: 0x10001ED74, symSize: 0x78 }
  - { offset: 0x562EC, size: 0x8, addend: 0x0, symName: '__ZN4core3ptr152drop_in_place$LT$alloc..vec..Vec$LT$addr2line..unit..ResUnit$LT$gimli..read..endian_slice..EndianSlice$LT$gimli..endianity..LittleEndian$GT$$GT$$GT$$GT$17hdd35552c1680b2ebE', symObjAddr: 0x26FC, symBinAddr: 0x10001EDEC, symSize: 0xC4 }
  - { offset: 0x5645A, size: 0x8, addend: 0x0, symName: '__ZN4core3ptr152drop_in_place$LT$alloc..vec..Vec$LT$addr2line..unit..SupUnit$LT$gimli..read..endian_slice..EndianSlice$LT$gimli..endianity..LittleEndian$GT$$GT$$GT$$GT$17h6431a2f92897bef0E', symObjAddr: 0x27C0, symBinAddr: 0x10001EEB0, symSize: 0xF4 }
  - { offset: 0x56672, size: 0x8, addend: 0x0, symName: '__ZN4core3ptr156drop_in_place$LT$alloc..boxed..Box$LT$$u5b$core..option..Option$LT$core..option..Option$LT$std..backtrace_rs..symbolize..gimli..Mapping$GT$$GT$$u5d$$GT$$GT$17h61627ecd782bd92dE', symObjAddr: 0x28B4, symBinAddr: 0x10001EFA4, symSize: 0xF8 }
  - { offset: 0x5679B, size: 0x8, addend: 0x0, symName: '__ZN4core3ptr159drop_in_place$LT$alloc..sync..ArcInner$LT$gimli..read..dwarf..Dwarf$LT$gimli..read..endian_slice..EndianSlice$LT$gimli..endianity..LittleEndian$GT$$GT$$GT$$GT$17h71c073e2ea863d36E', symObjAddr: 0x29AC, symBinAddr: 0x10001F09C, symSize: 0x58 }
  - { offset: 0x56878, size: 0x8, addend: 0x0, symName: '__ZN4core3ptr161drop_in_place$LT$alloc..vec..Vec$LT$addr2line..function..LazyFunction$LT$gimli..read..endian_slice..EndianSlice$LT$gimli..endianity..LittleEndian$GT$$GT$$GT$$GT$17h938f97b5a308fc3cE', symObjAddr: 0x2A04, symBinAddr: 0x10001F0F4, symSize: 0xAC }
  - { offset: 0x56AB5, size: 0x8, addend: 0x0, symName: '__ZN4core3ptr172drop_in_place$LT$core..result..Result$LT$addr2line..Context$LT$gimli..read..endian_slice..EndianSlice$LT$gimli..endianity..LittleEndian$GT$$GT$$C$gimli..read..Error$GT$$GT$17h8205db00afecd676E', symObjAddr: 0x2B5C, symBinAddr: 0x10001F1A0, symSize: 0x80 }
  - { offset: 0x56B4A, size: 0x8, addend: 0x0, symName: '__ZN4core3ptr173drop_in_place$LT$alloc..boxed..Box$LT$$u5b$addr2line..function..LazyFunction$LT$gimli..read..endian_slice..EndianSlice$LT$gimli..endianity..LittleEndian$GT$$GT$$u5d$$GT$$GT$17h141b901e37828fa3E', symObjAddr: 0x2BDC, symBinAddr: 0x10001F220, symSize: 0x9C }
  - { offset: 0x56B61, size: 0x8, addend: 0x0, symName: '__ZN4core3ptr173drop_in_place$LT$alloc..boxed..Box$LT$$u5b$addr2line..function..LazyFunction$LT$gimli..read..endian_slice..EndianSlice$LT$gimli..endianity..LittleEndian$GT$$GT$$u5d$$GT$$GT$17h141b901e37828fa3E', symObjAddr: 0x2BDC, symBinAddr: 0x10001F220, symSize: 0x9C }
  - { offset: 0x56DA6, size: 0x8, addend: 0x0, symName: '__ZN4core3ptr181drop_in_place$LT$core..option..Option$LT$gimli..read..line..IncompleteLineProgram$LT$gimli..read..endian_slice..EndianSlice$LT$gimli..endianity..LittleEndian$GT$$C$usize$GT$$GT$$GT$17h0ce7bfce5e4abb6bE', symObjAddr: 0x2CE8, symBinAddr: 0x10001F2BC, symSize: 0x98 }
  - { offset: 0x57061, size: 0x8, addend: 0x0, symName: '__ZN4core3ptr181drop_in_place$LT$core..result..Result$LT$addr2line..frame..FrameIter$LT$gimli..read..endian_slice..EndianSlice$LT$gimli..endianity..LittleEndian$GT$$GT$$C$gimli..read..Error$GT$$GT$17hc32763af75cf70e4E', symObjAddr: 0x2D80, symBinAddr: 0x10001F354, symSize: 0x44 }
  - { offset: 0x5719F, size: 0x8, addend: 0x0, symName: '__ZN4core3ptr184drop_in_place$LT$core..result..Result$LT$addr2line..function..Functions$LT$gimli..read..endian_slice..EndianSlice$LT$gimli..endianity..LittleEndian$GT$$GT$$C$gimli..read..Error$GT$$GT$17hae974801a783d12aE', symObjAddr: 0x2DC4, symBinAddr: 0x10001F398, symSize: 0xD8 }
  - { offset: 0x57BE2, size: 0x8, addend: 0x0, symName: '__ZN4core3ptr223drop_in_place$LT$std..sys..thread_local..native..lazy..State$LT$core..cell..Cell$LT$core..option..Option$LT$alloc..sync..Arc$LT$std..sync..poison..mutex..Mutex$LT$alloc..vec..Vec$LT$u8$GT$$GT$$GT$$GT$$GT$$C$$LP$$RP$$GT$$GT$17h8e1dbbdc8aa6e2b2E', symObjAddr: 0x2F10, symBinAddr: 0x10001F470, symSize: 0x40 }
  - { offset: 0x57CCE, size: 0x8, addend: 0x0, symName: '__ZN4core3ptr231drop_in_place$LT$core..result..Result$LT$core..option..Option$LT$alloc..boxed..Box$LT$addr2line..unit..DwoUnit$LT$gimli..read..endian_slice..EndianSlice$LT$gimli..endianity..LittleEndian$GT$$GT$$GT$$GT$$C$gimli..read..Error$GT$$GT$17h48abe14940fae1d7E', symObjAddr: 0x2F50, symBinAddr: 0x10001F4B0, symSize: 0xD4 }
  - { offset: 0x57EB6, size: 0x8, addend: 0x0, symName: '__ZN4core3ptr275drop_in_place$LT$gimli..read..line..LineRows$LT$gimli..read..endian_slice..EndianSlice$LT$gimli..endianity..LittleEndian$GT$$C$gimli..read..line..IncompleteLineProgram$LT$gimli..read..endian_slice..EndianSlice$LT$gimli..endianity..LittleEndian$GT$$C$usize$GT$$C$usize$GT$$GT$17h1fb49ddc3575d792E', symObjAddr: 0x304C, symBinAddr: 0x10001F584, symSize: 0x8C }
  - { offset: 0x5812B, size: 0x8, addend: 0x0, symName: '__ZN4core3ptr280drop_in_place$LT$$LT$alloc..collections..btree..map..IntoIter$LT$K$C$V$C$A$GT$$u20$as$u20$core..ops..drop..Drop$GT$..drop..DropGuard$LT$u64$C$core..result..Result$LT$alloc..sync..Arc$LT$gimli..read..abbrev..Abbreviations$GT$$C$gimli..read..Error$GT$$C$alloc..alloc..Global$GT$$GT$17h412edb4cf40f508aE', symObjAddr: 0x30D8, symBinAddr: 0x10001F610, symSize: 0x84 }
  - { offset: 0x582C0, size: 0x8, addend: 0x0, symName: '__ZN4core3ptr42drop_in_place$LT$alloc..string..String$GT$17h49e49416d7fc736bE', symObjAddr: 0x3330, symBinAddr: 0x10001F694, symSize: 0x28 }
  - { offset: 0x5839B, size: 0x8, addend: 0x0, symName: '__ZN4core3ptr42drop_in_place$LT$std..io..error..Error$GT$17h2076e24185186a1eE', symObjAddr: 0x3358, symBinAddr: 0x10001F6BC, symSize: 0xAC }
  - { offset: 0x585B5, size: 0x8, addend: 0x0, symName: '__ZN4core3ptr44drop_in_place$LT$object..read..ObjectMap$GT$17hefa7b8970618855fE', symObjAddr: 0x3404, symBinAddr: 0x10001F768, symSize: 0x58 }
  - { offset: 0x586E4, size: 0x8, addend: 0x0, symName: '__ZN4core3ptr46drop_in_place$LT$alloc..vec..Vec$LT$u8$GT$$GT$17he05f3434a0e55321E', symObjAddr: 0x350C, symBinAddr: 0x10001F7C0, symSize: 0x28 }
  - { offset: 0x58771, size: 0x8, addend: 0x0, symName: '__ZN4core3ptr46drop_in_place$LT$std..io..stdio..StdinLock$GT$17h7f23f0068af34be6E', symObjAddr: 0x3534, symBinAddr: 0x10001F7E8, symSize: 0x54 }
  - { offset: 0x58788, size: 0x8, addend: 0x0, symName: '__ZN4core3ptr46drop_in_place$LT$std..io..stdio..StdinLock$GT$17h7f23f0068af34be6E', symObjAddr: 0x3534, symBinAddr: 0x10001F7E8, symSize: 0x54 }
  - { offset: 0x5879D, size: 0x8, addend: 0x0, symName: '__ZN4core3ptr46drop_in_place$LT$std..io..stdio..StdinLock$GT$17h7f23f0068af34be6E', symObjAddr: 0x3534, symBinAddr: 0x10001F7E8, symSize: 0x54 }
  - { offset: 0x5887F, size: 0x8, addend: 0x0, symName: '__ZN4core3ptr48drop_in_place$LT$alloc..ffi..c_str..NulError$GT$17hf807e8c3d992613aE', symObjAddr: 0x35E0, symBinAddr: 0x10001F83C, symSize: 0x28 }
  - { offset: 0x5893E, size: 0x8, addend: 0x0, symName: '__ZN4core3ptr55drop_in_place$LT$gimli..read..abbrev..Abbreviations$GT$17h5028fd7f23a66a5dE', symObjAddr: 0x38D4, symBinAddr: 0x10001F864, symSize: 0x84 }
  - { offset: 0x58AF9, size: 0x8, addend: 0x0, symName: '__ZN4core3ptr60drop_in_place$LT$gimli..read..abbrev..AbbreviationsCache$GT$17h109635aebb38ad94E', symObjAddr: 0x39E8, symBinAddr: 0x10001F8E8, symSize: 0xCC }
  - { offset: 0x58CB9, size: 0x8, addend: 0x0, symName: '__ZN4core3ptr62drop_in_place$LT$std..sys..sync..rwlock..queue..PanicGuard$GT$17ha6ff6fed8f58b75aE', symObjAddr: 0x3AB4, symBinAddr: 0x10001F9B4, symSize: 0x44 }
  - { offset: 0x58D00, size: 0x8, addend: 0x0, symName: '__ZN4core3ptr64drop_in_place$LT$std..sys..pal..unix..sync..mutex..AttrGuard$GT$17hfae1c338ebc17455E', symObjAddr: 0x3AF8, symBinAddr: 0x10001F9F8, symSize: 0x48 }
  - { offset: 0x58D3E, size: 0x8, addend: 0x0, symName: '__ZN4core3ptr65drop_in_place$LT$alloc..vec..Vec$LT$alloc..string..String$GT$$GT$17h0e8d3320a68b6c20E', symObjAddr: 0x3B40, symBinAddr: 0x10001FA40, symSize: 0x80 }
  - { offset: 0x58EDB, size: 0x8, addend: 0x0, symName: '__ZN4core3ptr65drop_in_place$LT$std..backtrace_rs..symbolize..gimli..Context$GT$17he1a9681aa2b789c5E', symObjAddr: 0x3BC0, symBinAddr: 0x10001FAC0, symSize: 0xE8 }
  - { offset: 0x5916D, size: 0x8, addend: 0x0, symName: '__ZN4core3ptr65drop_in_place$LT$std..backtrace_rs..symbolize..gimli..Mapping$GT$17h1ad26fdf3d4d883aE', symObjAddr: 0x3CA8, symBinAddr: 0x10001FBA8, symSize: 0x50 }
  - { offset: 0x591D8, size: 0x8, addend: 0x0, symName: '__ZN4core3ptr66drop_in_place$LT$std..backtrace_rs..backtrace..libunwind..Bomb$GT$17hcf55bbc6e2408f91E', symObjAddr: 0x3D50, symBinAddr: 0x10001FBF8, symSize: 0x40 }
  - { offset: 0x59286, size: 0x8, addend: 0x0, symName: '__ZN4core3ptr70drop_in_place$LT$std..backtrace_rs..symbolize..gimli..stash..Stash$GT$17h823b9ed5294710a1E', symObjAddr: 0x3E8C, symBinAddr: 0x10001FC38, symSize: 0xB8 }
  - { offset: 0x5952B, size: 0x8, addend: 0x0, symName: '__ZN4core3ptr71drop_in_place$LT$std..backtrace_rs..symbolize..gimli..macho..Object$GT$17h7d766a5d50e6fcdbE', symObjAddr: 0x3F44, symBinAddr: 0x10001FCF0, symSize: 0xD8 }
  - { offset: 0x597FE, size: 0x8, addend: 0x0, symName: '__ZN4core3ptr72drop_in_place$LT$core..option..Option$LT$object..read..ObjectMap$GT$$GT$17hc34cda9cf8984625E', symObjAddr: 0x4088, symBinAddr: 0x10001FDC8, symSize: 0x64 }
  - { offset: 0x5997B, size: 0x8, addend: 0x0, symName: '__ZN4core3ptr73drop_in_place$LT$alloc..vec..Vec$LT$addr2line..line..LineSequence$GT$$GT$17h0feaef6467c5bb06E', symObjAddr: 0x40EC, symBinAddr: 0x10001FE2C, symSize: 0x84 }
  - { offset: 0x59AD3, size: 0x8, addend: 0x0, symName: '__ZN4core3ptr77drop_in_place$LT$alloc..boxed..Box$LT$$u5b$alloc..string..String$u5d$$GT$$GT$17h8657c1556d878703E', symObjAddr: 0x41C8, symBinAddr: 0x10001FEB0, symSize: 0x70 }
  - { offset: 0x59AEA, size: 0x8, addend: 0x0, symName: '__ZN4core3ptr77drop_in_place$LT$alloc..boxed..Box$LT$$u5b$alloc..string..String$u5d$$GT$$GT$17h8657c1556d878703E', symObjAddr: 0x41C8, symBinAddr: 0x10001FEB0, symSize: 0x70 }
  - { offset: 0x59BF5, size: 0x8, addend: 0x0, symName: '__ZN4core3ptr77drop_in_place$LT$std..panicking..begin_panic_handler..FormatStringPayload$GT$17h1141e34cc3e1cd8cE', symObjAddr: 0x4238, symBinAddr: 0x10001FF20, symSize: 0x34 }
  - { offset: 0x59CB1, size: 0x8, addend: 0x0, symName: '__ZN4core3ptr79drop_in_place$LT$std..sync..poison..rwlock..RwLockReadGuard$LT$$LP$$RP$$GT$$GT$17h3c7acdfaefb6864dE', symObjAddr: 0x435C, symBinAddr: 0x10001FF54, symSize: 0x68 }
  - { offset: 0x59D4B, size: 0x8, addend: 0x0, symName: '__ZN4core3ptr81drop_in_place$LT$$LP$usize$C$std..backtrace_rs..symbolize..gimli..Mapping$RP$$GT$17h0fc60d1e178e2af3E', symObjAddr: 0x4458, symBinAddr: 0x10001FFBC, symSize: 0x54 }
  - { offset: 0x59DCC, size: 0x8, addend: 0x0, symName: '__ZN4core3ptr81drop_in_place$LT$core..result..Result$LT$$LP$$RP$$C$std..io..error..Error$GT$$GT$17h32d66e7d6b4290f9E', symObjAddr: 0x44AC, symBinAddr: 0x100020010, symSize: 0x20 }
  - { offset: 0x59DEE, size: 0x8, addend: 0x0, symName: '__ZN4core3ptr84drop_in_place$LT$alloc..sync..ArcInner$LT$gimli..read..abbrev..Abbreviations$GT$$GT$17hc1742a6ee5f4f5c4E', symObjAddr: 0x455C, symBinAddr: 0x100020030, symSize: 0x84 }
  - { offset: 0x59FB8, size: 0x8, addend: 0x0, symName: '__ZN4core3ptr87drop_in_place$LT$alloc..sync..ArcInner$LT$std..sys..pal..unix..fs..InnerReadDir$GT$$GT$17h22f7f5fc9c3aa8bdE', symObjAddr: 0x45E0, symBinAddr: 0x1000200B4, symSize: 0x60 }
  - { offset: 0x5A1A1, size: 0x8, addend: 0x0, symName: '__ZN4core3ptr88drop_in_place$LT$alloc..vec..Vec$LT$std..backtrace_rs..symbolize..gimli..Library$GT$$GT$17heda6be67225cff8cE', symObjAddr: 0x4674, symBinAddr: 0x100020114, symSize: 0x98 }
  - { offset: 0x5A3B6, size: 0x8, addend: 0x0, symName: '__ZN4core3ptr90drop_in_place$LT$std..io..buffered..bufwriter..BufWriter$LT$W$GT$..flush_buf..BufGuard$GT$17h18eab3e558793eacE', symObjAddr: 0x470C, symBinAddr: 0x1000201AC, symSize: 0x60 }
  - { offset: 0x5A576, size: 0x8, addend: 0x0, symName: '__ZN4core3ptr92drop_in_place$LT$core..result..Result$LT$addr2line..line..Lines$C$gimli..read..Error$GT$$GT$17h75873180c89d56d0E', symObjAddr: 0x47E8, symBinAddr: 0x10002020C, symSize: 0xE4 }
  - { offset: 0x5A7BB, size: 0x8, addend: 0x0, symName: '__ZN4core3ptr93drop_in_place$LT$core..option..Option$LT$std..backtrace_rs..symbolize..gimli..Mapping$GT$$GT$17h8ea9f8655928f4fcE', symObjAddr: 0x48CC, symBinAddr: 0x1000202F0, symSize: 0x6C }
  - { offset: 0x5A858, size: 0x8, addend: 0x0, symName: '__ZN4core3ptr95drop_in_place$LT$core..option..IntoIter$LT$std..backtrace_rs..symbolize..gimli..Library$GT$$GT$17he46fad7f279ea952E', symObjAddr: 0x4938, symBinAddr: 0x10002035C, symSize: 0x5C }
  - { offset: 0x5A876, size: 0x8, addend: 0x0, symName: '__ZN4core3ptr95drop_in_place$LT$core..option..IntoIter$LT$std..backtrace_rs..symbolize..gimli..Library$GT$$GT$17he46fad7f279ea952E', symObjAddr: 0x4938, symBinAddr: 0x10002035C, symSize: 0x5C }
  - { offset: 0x5A88B, size: 0x8, addend: 0x0, symName: '__ZN4core3ptr95drop_in_place$LT$core..option..IntoIter$LT$std..backtrace_rs..symbolize..gimli..Library$GT$$GT$17he46fad7f279ea952E', symObjAddr: 0x4938, symBinAddr: 0x10002035C, symSize: 0x5C }
  - { offset: 0x5A9F4, size: 0x8, addend: 0x0, symName: '__ZN4core3ptr95drop_in_place$LT$std..io..buffered..linewriter..LineWriter$LT$std..io..stdio..StdoutRaw$GT$$GT$17h3bd57fa990556d59E', symObjAddr: 0x4994, symBinAddr: 0x1000203B8, symSize: 0xF0 }
  - { offset: 0x5CC80, size: 0x8, addend: 0x0, symName: __ZN4core5slice4sort6shared5pivot11median3_rec17h025645fbfb2d8cd1E, symObjAddr: 0x4D90, symBinAddr: 0x1000204BC, symSize: 0x134 }
  - { offset: 0x5CEA5, size: 0x8, addend: 0x0, symName: __ZN4core5slice4sort6shared5pivot11median3_rec17h246a4f2d911688a1E, symObjAddr: 0x4EC4, symBinAddr: 0x1000205F0, symSize: 0xD0 }
  - { offset: 0x5CF9E, size: 0x8, addend: 0x0, symName: __ZN4core5slice4sort6shared5pivot11median3_rec17h6ce4cdb71517d19eE, symObjAddr: 0x4F94, symBinAddr: 0x1000206C0, symSize: 0xCC }
  - { offset: 0x5D097, size: 0x8, addend: 0x0, symName: __ZN4core5slice4sort6shared5pivot11median3_rec17h6e4fd85017a3f5e4E, symObjAddr: 0x5060, symBinAddr: 0x10002078C, symSize: 0xD0 }
  - { offset: 0x5D190, size: 0x8, addend: 0x0, symName: __ZN4core5slice4sort6shared5pivot11median3_rec17ha3c898ebd570d9a9E, symObjAddr: 0x5130, symBinAddr: 0x10002085C, symSize: 0xCC }
  - { offset: 0x5D2DF, size: 0x8, addend: 0x0, symName: __ZN4core5slice4sort6shared5pivot11median3_rec17hbe3f226301cd071dE, symObjAddr: 0x51FC, symBinAddr: 0x100020928, symSize: 0xCC }
  - { offset: 0x5D3D8, size: 0x8, addend: 0x0, symName: __ZN4core5slice4sort6shared5pivot11median3_rec17hc3d7c76f255c304aE, symObjAddr: 0x52C8, symBinAddr: 0x1000209F4, symSize: 0xD0 }
  - { offset: 0x5D4D1, size: 0x8, addend: 0x0, symName: __ZN4core5slice4sort6shared5pivot11median3_rec17heb13e39171436e07E, symObjAddr: 0x5398, symBinAddr: 0x100020AC4, symSize: 0x11C }
  - { offset: 0x5D6A3, size: 0x8, addend: 0x0, symName: __ZN4core5slice4sort6shared9smallsort12sort4_stable17h29d5ecfff8d25808E, symObjAddr: 0x54B4, symBinAddr: 0x100020BE0, symSize: 0x1B4 }
  - { offset: 0x5D847, size: 0x8, addend: 0x0, symName: __ZN4core5slice4sort6shared9smallsort12sort4_stable17he2b82e95c0946cc4E, symObjAddr: 0x5668, symBinAddr: 0x100020D94, symSize: 0x180 }
  - { offset: 0x5DC68, size: 0x8, addend: 0x0, symName: __ZN4core5slice4sort6shared9smallsort12sort8_stable17h40f301b851efa79fE, symObjAddr: 0x57E8, symBinAddr: 0x100020F14, symSize: 0x2B8 }
  - { offset: 0x5E1F9, size: 0x8, addend: 0x0, symName: __ZN4core5slice4sort6shared9smallsort18small_sort_general17h8f0f2bfe6ac37bfbE, symObjAddr: 0x5AA0, symBinAddr: 0x1000211CC, symSize: 0x490 }
  - { offset: 0x5E905, size: 0x8, addend: 0x0, symName: __ZN4core5slice4sort6shared9smallsort18small_sort_general17h9886ba35fa9ddf7bE, symObjAddr: 0x5F30, symBinAddr: 0x10002165C, symSize: 0x3E0 }
  - { offset: 0x5EE16, size: 0x8, addend: 0x0, symName: __ZN4core5slice4sort6shared9smallsort25insertion_sort_shift_left17h001473db42a80264E, symObjAddr: 0x6310, symBinAddr: 0x100021A3C, symSize: 0xB0 }
  - { offset: 0x5EEB8, size: 0x8, addend: 0x0, symName: __ZN4core5slice4sort6shared9smallsort25insertion_sort_shift_left17h1e1ea2c4d7503f74E, symObjAddr: 0x63C0, symBinAddr: 0x100021AEC, symSize: 0xCC }
  - { offset: 0x5EFB7, size: 0x8, addend: 0x0, symName: __ZN4core5slice4sort6shared9smallsort25insertion_sort_shift_left17h4c238536f310567cE, symObjAddr: 0x648C, symBinAddr: 0x100021BB8, symSize: 0xFC }
  - { offset: 0x5F14D, size: 0x8, addend: 0x0, symName: __ZN4core5slice4sort6shared9smallsort25insertion_sort_shift_left17h5ae8ea909444dc00E, symObjAddr: 0x6588, symBinAddr: 0x100021CB4, symSize: 0xAC }
  - { offset: 0x5F1EF, size: 0x8, addend: 0x0, symName: __ZN4core5slice4sort6shared9smallsort25insertion_sort_shift_left17h677848d84e66ea2aE, symObjAddr: 0x6634, symBinAddr: 0x100021D60, symSize: 0xA8 }
  - { offset: 0x5F291, size: 0x8, addend: 0x0, symName: __ZN4core5slice4sort6shared9smallsort25insertion_sort_shift_left17h753c2c33d7211ceaE, symObjAddr: 0x66DC, symBinAddr: 0x100021E08, symSize: 0xBC }
  - { offset: 0x5F333, size: 0x8, addend: 0x0, symName: __ZN4core5slice4sort6shared9smallsort25insertion_sort_shift_left17hceef73df05978c22E, symObjAddr: 0x6798, symBinAddr: 0x100021EC4, symSize: 0x90 }
  - { offset: 0x5F3D5, size: 0x8, addend: 0x0, symName: __ZN4core5slice4sort6shared9smallsort25insertion_sort_shift_left17hfb494d5f79707c02E, symObjAddr: 0x6828, symBinAddr: 0x100021F54, symSize: 0xAC }
  - { offset: 0x5F6C4, size: 0x8, addend: 0x0, symName: __ZN4core5slice4sort6stable14driftsort_main17h103ff636fd5ab89dE, symObjAddr: 0x68D4, symBinAddr: 0x100022000, symSize: 0x148 }
  - { offset: 0x5F967, size: 0x8, addend: 0x0, symName: __ZN4core5slice4sort6stable14driftsort_main17h1e88dc2727ad5c37E, symObjAddr: 0x6A1C, symBinAddr: 0x100022148, symSize: 0x16C }
  - { offset: 0x5FC60, size: 0x8, addend: 0x0, symName: __ZN4core5slice4sort6stable14driftsort_main17h54d923433181cd8aE, symObjAddr: 0x6B88, symBinAddr: 0x1000222B4, symSize: 0x16C }
  - { offset: 0x5FF59, size: 0x8, addend: 0x0, symName: __ZN4core5slice4sort6stable14driftsort_main17h76405073938de01eE, symObjAddr: 0x6CF4, symBinAddr: 0x100022420, symSize: 0x148 }
  - { offset: 0x601FC, size: 0x8, addend: 0x0, symName: __ZN4core5slice4sort6stable14driftsort_main17h9cb82a8482cd4f53E, symObjAddr: 0x6E3C, symBinAddr: 0x100022568, symSize: 0x148 }
  - { offset: 0x6049F, size: 0x8, addend: 0x0, symName: __ZN4core5slice4sort6stable14driftsort_main17hf9ea8a01734384bdE, symObjAddr: 0x6F84, symBinAddr: 0x1000226B0, symSize: 0x148 }
  - { offset: 0x608B1, size: 0x8, addend: 0x0, symName: __ZN4core5slice4sort6stable5drift4sort17h00ab1c6180ac4055E, symObjAddr: 0x70CC, symBinAddr: 0x1000227F8, symSize: 0x4E0 }
  - { offset: 0x60EE2, size: 0x8, addend: 0x0, symName: __ZN4core5slice4sort6stable5drift4sort17h0aa4aacce1cc6d7cE, symObjAddr: 0x75AC, symBinAddr: 0x100022CD8, symSize: 0x5E8 }
  - { offset: 0x61562, size: 0x8, addend: 0x0, symName: __ZN4core5slice4sort6stable5drift4sort17h343dbae25f37733bE, symObjAddr: 0x7B94, symBinAddr: 0x1000232C0, symSize: 0x538 }
  - { offset: 0x61C2E, size: 0x8, addend: 0x0, symName: __ZN4core5slice4sort6stable5drift4sort17h4258b1bc2caa3ec0E, symObjAddr: 0x80CC, symBinAddr: 0x1000237F8, symSize: 0x6F0 }
  - { offset: 0x622F9, size: 0x8, addend: 0x0, symName: __ZN4core5slice4sort6stable5drift4sort17h9cf8228521243839E, symObjAddr: 0x87BC, symBinAddr: 0x100023EE8, symSize: 0x5E8 }
  - { offset: 0x62979, size: 0x8, addend: 0x0, symName: __ZN4core5slice4sort6stable5drift4sort17he5c0348fca8b4ee7E, symObjAddr: 0x8DA4, symBinAddr: 0x1000244D0, symSize: 0x63C }
  - { offset: 0x631E9, size: 0x8, addend: 0x0, symName: __ZN4core5slice4sort6stable9quicksort9quicksort17h115e1a8136b6fa84E, symObjAddr: 0x93E0, symBinAddr: 0x100024B0C, symSize: 0x820 }
  - { offset: 0x63DAB, size: 0x8, addend: 0x0, symName: __ZN4core5slice4sort6stable9quicksort9quicksort17h270cbea95e7bc0c9E, symObjAddr: 0x9C00, symBinAddr: 0x10002532C, symSize: 0x73C }
  - { offset: 0x644B5, size: 0x8, addend: 0x0, symName: __ZN4core5slice4sort6stable9quicksort9quicksort17h3e7b305b5c7976baE, symObjAddr: 0xA33C, symBinAddr: 0x100025A68, symSize: 0x6C8 }
  - { offset: 0x64F33, size: 0x8, addend: 0x0, symName: __ZN4core5slice4sort6stable9quicksort9quicksort17hc1d95435bd0f54c5E, symObjAddr: 0xAA04, symBinAddr: 0x100026130, symSize: 0x828 }
  - { offset: 0x65FDF, size: 0x8, addend: 0x0, symName: __ZN4core5slice4sort6stable9quicksort9quicksort17hcf4fb219382f768bE, symObjAddr: 0xB22C, symBinAddr: 0x100026958, symSize: 0x7FC }
  - { offset: 0x66B9F, size: 0x8, addend: 0x0, symName: __ZN4core5slice4sort6stable9quicksort9quicksort17hfd59b4f11a472dd5E, symObjAddr: 0xBA28, symBinAddr: 0x100027154, symSize: 0x6D0 }
  - { offset: 0x67658, size: 0x8, addend: 0x0, symName: __ZN4core5slice4sort8unstable7ipnsort17h519db9bb88c7d2c0E, symObjAddr: 0xC0F8, symBinAddr: 0x100027824, symSize: 0x1E4 }
  - { offset: 0x6776A, size: 0x8, addend: 0x0, symName: __ZN4core5slice4sort8unstable7ipnsort17hc49a474c49f61d9aE, symObjAddr: 0xC2DC, symBinAddr: 0x100027A08, symSize: 0x290 }
  - { offset: 0x67A0F, size: 0x8, addend: 0x0, symName: __ZN4core5slice4sort8unstable8heapsort8heapsort17h6b7b52018c9f5da0E, symObjAddr: 0xC56C, symBinAddr: 0x100027C98, symSize: 0x10C }
  - { offset: 0x67C12, size: 0x8, addend: 0x0, symName: __ZN4core5slice4sort8unstable8heapsort8heapsort17h719a9553e129d672E, symObjAddr: 0xC678, symBinAddr: 0x100027DA4, symSize: 0x160 }
  - { offset: 0x67FAE, size: 0x8, addend: 0x0, symName: __ZN4core5slice4sort8unstable9quicksort9quicksort17h96e7db41672c501eE, symObjAddr: 0xC7D8, symBinAddr: 0x100027F04, symSize: 0x448 }
  - { offset: 0x68863, size: 0x8, addend: 0x0, symName: __ZN4core5slice4sort8unstable9quicksort9quicksort17ha039472c97b018d8E, symObjAddr: 0xCC20, symBinAddr: 0x10002834C, symSize: 0x5BC }
  - { offset: 0x69566, size: 0x8, addend: 0x0, symName: '__ZN36_$LT$T$u20$as$u20$core..any..Any$GT$7type_id17h225d92188c8db6c3E', symObjAddr: 0x13C, symBinAddr: 0x10001DE7C, symSize: 0x30 }
  - { offset: 0x69580, size: 0x8, addend: 0x0, symName: '__ZN36_$LT$T$u20$as$u20$core..any..Any$GT$7type_id17h22a55d7ebb819ea6E', symObjAddr: 0x16C, symBinAddr: 0x10001DEAC, symSize: 0x30 }
  - { offset: 0x695EE, size: 0x8, addend: 0x0, symName: '__ZN42_$LT$$RF$T$u20$as$u20$core..fmt..Debug$GT$3fmt17h229631da8bdd67acE', symObjAddr: 0x464, symBinAddr: 0x10001DEDC, symSize: 0x1C }
  - { offset: 0x69602, size: 0x8, addend: 0x0, symName: '__ZN42_$LT$$RF$T$u20$as$u20$core..fmt..Debug$GT$3fmt17h45300256e973f494E', symObjAddr: 0x4F8, symBinAddr: 0x10001DEF8, symSize: 0x30 }
  - { offset: 0x69648, size: 0x8, addend: 0x0, symName: '__ZN42_$LT$$RF$T$u20$as$u20$core..fmt..Debug$GT$3fmt17h6cf282856d53ef8fE', symObjAddr: 0x66C, symBinAddr: 0x10001DF28, symSize: 0x74 }
  - { offset: 0x6978A, size: 0x8, addend: 0x0, symName: '__ZN42_$LT$$RF$T$u20$as$u20$core..fmt..Debug$GT$3fmt17h832369a0cde054d2E', symObjAddr: 0x77C, symBinAddr: 0x10001DF9C, symSize: 0x30 }
  - { offset: 0x697D0, size: 0x8, addend: 0x0, symName: '__ZN42_$LT$$RF$T$u20$as$u20$core..fmt..Debug$GT$3fmt17h99ba184c1a5db1eaE', symObjAddr: 0x91C, symBinAddr: 0x10001DFCC, symSize: 0x1C }
  - { offset: 0x69878, size: 0x8, addend: 0x0, symName: '__ZN4core3fmt3num50_$LT$impl$u20$core..fmt..Debug$u20$for$u20$i32$GT$3fmt17h15c50277390862aeE', symObjAddr: 0xCF0, symBinAddr: 0x10001E06C, symSize: 0x2C }
  - { offset: 0x698A7, size: 0x8, addend: 0x0, symName: '__ZN4core3fmt3num52_$LT$impl$u20$core..fmt..Debug$u20$for$u20$usize$GT$3fmt17h6def11b803266407E', symObjAddr: 0xDA0, symBinAddr: 0x10001E098, symSize: 0x2C }
  - { offset: 0x69912, size: 0x8, addend: 0x0, symName: '__ZN44_$LT$$RF$T$u20$as$u20$core..fmt..Display$GT$3fmt17h3bfca5eae23b0d69E', symObjAddr: 0xC20, symBinAddr: 0x10001DFE8, symSize: 0x1C }
  - { offset: 0x6992D, size: 0x8, addend: 0x0, symName: '__ZN44_$LT$$RF$T$u20$as$u20$core..fmt..Display$GT$3fmt17ha43e2829162aef39E', symObjAddr: 0xC3C, symBinAddr: 0x10001E004, symSize: 0x68 }
  - { offset: 0x69D24, size: 0x8, addend: 0x0, symName: __ZN4core3fmt5Write10write_char17h2bd2da6422df0c04E, symObjAddr: 0xDCC, symBinAddr: 0x10001E0C4, symSize: 0x128 }
  - { offset: 0x69EBB, size: 0x8, addend: 0x0, symName: __ZN4core3fmt5Write10write_char17h375232e784da95c3E, symObjAddr: 0xEF4, symBinAddr: 0x10001E1EC, symSize: 0x174 }
  - { offset: 0x6A0BB, size: 0x8, addend: 0x0, symName: __ZN4core3fmt5Write10write_char17h7453f2c039370a9dE, symObjAddr: 0x1328, symBinAddr: 0x10001E360, symSize: 0x180 }
  - { offset: 0x6A299, size: 0x8, addend: 0x0, symName: __ZN4core3fmt5Write9write_fmt17h2a0fceba8367f855E, symObjAddr: 0x1620, symBinAddr: 0x10001E4E0, symSize: 0x1C }
  - { offset: 0x6A2C8, size: 0x8, addend: 0x0, symName: __ZN4core3fmt5Write9write_fmt17h7b0eee5bb9fc5859E, symObjAddr: 0x163C, symBinAddr: 0x10001E4FC, symSize: 0x1C }
  - { offset: 0x6A2F7, size: 0x8, addend: 0x0, symName: __ZN4core3fmt5Write9write_fmt17hb212afec46fd02ecE, symObjAddr: 0x1658, symBinAddr: 0x10001E518, symSize: 0x1C }
  - { offset: 0x6A326, size: 0x8, addend: 0x0, symName: __ZN4core3fmt5Write9write_fmt17he153d8ed26875afeE, symObjAddr: 0x1690, symBinAddr: 0x10001E534, symSize: 0x1C }
  - { offset: 0x6A383, size: 0x8, addend: 0x0, symName: '__ZN50_$LT$$BP$mut$u20$T$u20$as$u20$core..fmt..Debug$GT$3fmt17he39465caf33bcc4eE', symObjAddr: 0xD258, symBinAddr: 0x100028908, symSize: 0x14 }
  - { offset: 0x6A3D0, size: 0x8, addend: 0x0, symName: '__ZN52_$LT$$RF$mut$u20$T$u20$as$u20$core..fmt..Display$GT$3fmt17hc6db9c4561bb0640E', symObjAddr: 0xD2E0, symBinAddr: 0x10002891C, symSize: 0x1C }
  - { offset: 0x6AE1C, size: 0x8, addend: 0x0, symName: '__ZN55_$LT$$RF$str$u20$as$u20$core..str..pattern..Pattern$GT$15is_contained_in17h07538af93eae73f4E', symObjAddr: 0xD2FC, symBinAddr: 0x100028938, symSize: 0x3BC }
  - { offset: 0x6B237, size: 0x8, addend: 0x0, symName: __ZN4core5panic12PanicPayload6as_str17h5cdc46f655586ed2E, symObjAddr: 0x4D7C, symBinAddr: 0x1000204A8, symSize: 0x14 }
  - { offset: 0x6C188, size: 0x8, addend: 0x0, symName: '__ZN4core3ops8function6FnOnce40call_once$u7b$$u7b$vtable.shim$u7d$$u7d$17h372dd670162a11a3E', symObjAddr: 0x1714, symBinAddr: 0x10001E550, symSize: 0x18 }
  - { offset: 0x6C1D9, size: 0x8, addend: 0x0, symName: '__ZN4core3ops8function6FnOnce40call_once$u7b$$u7b$vtable.shim$u7d$$u7d$17h49be7b3161c92e51E', symObjAddr: 0x172C, symBinAddr: 0x10001E568, symSize: 0x28 }
  - { offset: 0x6C215, size: 0x8, addend: 0x0, symName: '__ZN4core3ops8function6FnOnce40call_once$u7b$$u7b$vtable.shim$u7d$$u7d$17h4dbfbb5401248555E', symObjAddr: 0x1754, symBinAddr: 0x10001E590, symSize: 0xA4 }
  - { offset: 0x6C35B, size: 0x8, addend: 0x0, symName: '__ZN4core3ops8function6FnOnce40call_once$u7b$$u7b$vtable.shim$u7d$$u7d$17h59664865ad50834bE', symObjAddr: 0x17F8, symBinAddr: 0x10001E634, symSize: 0x10 }
  - { offset: 0x6C397, size: 0x8, addend: 0x0, symName: '__ZN4core3ops8function6FnOnce40call_once$u7b$$u7b$vtable.shim$u7d$$u7d$17hb8f0a3a311886dd1E', symObjAddr: 0x194C, symBinAddr: 0x10001E644, symSize: 0x18 }
  - { offset: 0x6C3E8, size: 0x8, addend: 0x0, symName: '__ZN4core3ops8function6FnOnce40call_once$u7b$$u7b$vtable.shim$u7d$$u7d$17hc37bdb1ed22c5dd7E', symObjAddr: 0x19E0, symBinAddr: 0x10001E65C, symSize: 0x10 }
  - { offset: 0x6C424, size: 0x8, addend: 0x0, symName: '__ZN4core3ops8function6FnOnce40call_once$u7b$$u7b$vtable.shim$u7d$$u7d$17heb56308df1374649E', symObjAddr: 0x19F0, symBinAddr: 0x10001E66C, symSize: 0x60 }
  - { offset: 0x6C525, size: 0x8, addend: 0x0, symName: __ZN4core3ops8function6FnOnce9call_once17he5d2535e31b739dcE, symObjAddr: 0x1A78, symBinAddr: 0x10001E6CC, symSize: 0x44 }
  - { offset: 0x6E96D, size: 0x8, addend: 0x0, symName: '__ZN4core4cell4once17OnceCell$LT$T$GT$8try_init17he4193c4098c349bdE', symObjAddr: 0x4A84, symBinAddr: 0x100053458, symSize: 0x154 }
  - { offset: 0x6EE24, size: 0x8, addend: 0x0, symName: __ZN4core9panicking13assert_failed17he664f25a4eeebf5cE, symObjAddr: 0xD234, symBinAddr: 0x1000535AC, symSize: 0x24 }
  - { offset: 0x6F207, size: 0x8, addend: 0x0, symName: __ZN3std9panicking11panic_count8increase17h1d24b79d4790a8a8E, symObjAddr: 0x3A9E8, symBinAddr: 0x10003B8A4, symSize: 0x80 }
  - { offset: 0x6F2FD, size: 0x8, addend: 0x0, symName: __ZN3std9panicking11panic_count17is_zero_slow_path17hbb753c2ecca816a8E, symObjAddr: 0x3AB00, symBinAddr: 0x100053CAC, symSize: 0x2C }
  - { offset: 0x6F433, size: 0x8, addend: 0x0, symName: ___rust_drop_panic, symObjAddr: 0x39FEC, symBinAddr: 0x10003B11C, symSize: 0xB8 }
  - { offset: 0x6F625, size: 0x8, addend: 0x0, symName: ___rust_foreign_exception, symObjAddr: 0x3A0A4, symBinAddr: 0x10003B1D4, symSize: 0xB8 }
  - { offset: 0x6F817, size: 0x8, addend: 0x0, symName: __ZN3std9panicking12default_hook17ha0b223ccc4379930E, symObjAddr: 0x3A3D0, symBinAddr: 0x10003B28C, symSize: 0x1EC }
  - { offset: 0x6FAB5, size: 0x8, addend: 0x0, symName: '__ZN3std9panicking12default_hook28_$u7b$$u7b$closure$u7d$$u7d$17h5c3a234feebd11a5E', symObjAddr: 0x3A5BC, symBinAddr: 0x10003B478, symSize: 0x1A8 }
  - { offset: 0x6FC99, size: 0x8, addend: 0x0, symName: '__ZN3std9panicking12default_hook28_$u7b$$u7b$closure$u7d$$u7d$28_$u7b$$u7b$closure$u7d$$u7d$17h2cb359aea37a8eccE', symObjAddr: 0x3A764, symBinAddr: 0x10003B620, symSize: 0x284 }
  - { offset: 0x7010B, size: 0x8, addend: 0x0, symName: _rust_begin_unwind, symObjAddr: 0x3AB80, symBinAddr: 0x10003B924, symSize: 0x20 }
  - { offset: 0x70174, size: 0x8, addend: 0x0, symName: '__ZN102_$LT$std..panicking..begin_panic_handler..FormatStringPayload$u20$as$u20$core..panic..PanicPayload$GT$8take_box17hf9936339f9bb3e6eE', symObjAddr: 0x3ABA0, symBinAddr: 0x10003B944, symSize: 0x110 }
  - { offset: 0x70408, size: 0x8, addend: 0x0, symName: '__ZN102_$LT$std..panicking..begin_panic_handler..FormatStringPayload$u20$as$u20$core..panic..PanicPayload$GT$3get17h671f5c789103ccc6E', symObjAddr: 0x3ACB0, symBinAddr: 0x10003BA54, symSize: 0xB0 }
  - { offset: 0x70541, size: 0x8, addend: 0x0, symName: '__ZN95_$LT$std..panicking..begin_panic_handler..FormatStringPayload$u20$as$u20$core..fmt..Display$GT$3fmt17h1a7e141a9fd2e841E', symObjAddr: 0x3AD60, symBinAddr: 0x10003BB04, symSize: 0x5C }
  - { offset: 0x7063E, size: 0x8, addend: 0x0, symName: '__ZN99_$LT$std..panicking..begin_panic_handler..StaticStrPayload$u20$as$u20$core..panic..PanicPayload$GT$8take_box17hfde794f38dfdff84E', symObjAddr: 0x3ADBC, symBinAddr: 0x10003BB60, symSize: 0x50 }
  - { offset: 0x706B5, size: 0x8, addend: 0x0, symName: '__ZN99_$LT$std..panicking..begin_panic_handler..StaticStrPayload$u20$as$u20$core..panic..PanicPayload$GT$3get17h40c5dcbca42c5d43E', symObjAddr: 0x3AE0C, symBinAddr: 0x10003BBB0, symSize: 0x18 }
  - { offset: 0x706D0, size: 0x8, addend: 0x0, symName: '__ZN99_$LT$std..panicking..begin_panic_handler..StaticStrPayload$u20$as$u20$core..panic..PanicPayload$GT$6as_str17h36252a21ddc56c9bE', symObjAddr: 0x3AE24, symBinAddr: 0x10003BBC8, symSize: 0x18 }
  - { offset: 0x706F1, size: 0x8, addend: 0x0, symName: '__ZN92_$LT$std..panicking..begin_panic_handler..StaticStrPayload$u20$as$u20$core..fmt..Display$GT$3fmt17hd84ef799566d4562E', symObjAddr: 0x3AE3C, symBinAddr: 0x10003BBE0, symSize: 0x1C }
  - { offset: 0x7070D, size: 0x8, addend: 0x0, symName: '__ZN3std9panicking19begin_panic_handler28_$u7b$$u7b$closure$u7d$$u7d$17hcc8f653f753c0254E', symObjAddr: 0x3AE58, symBinAddr: 0x10003BBFC, symSize: 0xC4 }
  - { offset: 0x70875, size: 0x8, addend: 0x0, symName: __ZN3std9panicking14payload_as_str17h326c21158c3ccbd7E, symObjAddr: 0x3B008, symBinAddr: 0x10003BCC0, symSize: 0xB0 }
  - { offset: 0x70959, size: 0x8, addend: 0x0, symName: __ZN3std9panicking20rust_panic_with_hook17h203f96c93e7ac62dE, symObjAddr: 0x3B0B8, symBinAddr: 0x10003BD70, symSize: 0x3F8 }
  - { offset: 0x71164, size: 0x8, addend: 0x0, symName: _rust_panic, symObjAddr: 0x3B5E4, symBinAddr: 0x10003C168, symSize: 0x60 }
  - { offset: 0x711A5, size: 0x8, addend: 0x0, symName: __ZN3std7process5abort17h5bdab09773b2c592E, symObjAddr: 0x35D9C, symBinAddr: 0x100053940, symSize: 0xC }
  - { offset: 0x71233, size: 0x8, addend: 0x0, symName: __ZN3std4path4Path13_strip_prefix17h55294dff41b26308E, symObjAddr: 0x33B38, symBinAddr: 0x100039E2C, symSize: 0x21C }
  - { offset: 0x71373, size: 0x8, addend: 0x0, symName: __ZN3std4path4Path5_join17h516bc57fe1e4225dE, symObjAddr: 0x34358, symBinAddr: 0x10003A048, symSize: 0x1AC }
  - { offset: 0x7191A, size: 0x8, addend: 0x0, symName: __ZN3std4path10Components15len_before_body17ha7ee2271a8a6c6d9E, symObjAddr: 0x31DBC, symBinAddr: 0x100038FE4, symSize: 0x188 }
  - { offset: 0x71931, size: 0x8, addend: 0x0, symName: __ZN3std4path10Components15len_before_body17ha7ee2271a8a6c6d9E, symObjAddr: 0x31DBC, symBinAddr: 0x100038FE4, symSize: 0x188 }
  - { offset: 0x71946, size: 0x8, addend: 0x0, symName: __ZN3std4path10Components15len_before_body17ha7ee2271a8a6c6d9E, symObjAddr: 0x31DBC, symBinAddr: 0x100038FE4, symSize: 0x188 }
  - { offset: 0x71B26, size: 0x8, addend: 0x0, symName: __ZN3std4path10Components7as_path17h6e25608fa8cb9557E, symObjAddr: 0x31F44, symBinAddr: 0x10003916C, symSize: 0x530 }
  - { offset: 0x71FF1, size: 0x8, addend: 0x0, symName: __ZN3std4path10Components25parse_next_component_back17h5239b6f3b65d70c8E, symObjAddr: 0x32474, symBinAddr: 0x10003969C, symSize: 0x120 }
  - { offset: 0x721FA, size: 0x8, addend: 0x0, symName: '__ZN80_$LT$std..path..Components$u20$as$u20$core..iter..traits..iterator..Iterator$GT$4next17h6e8b0f281526c929E', symObjAddr: 0x3272C, symBinAddr: 0x1000397BC, symSize: 0x340 }
  - { offset: 0x72544, size: 0x8, addend: 0x0, symName: '__ZN95_$LT$std..path..Components$u20$as$u20$core..iter..traits..double_ended..DoubleEndedIterator$GT$9next_back17h15500b5b5dde7decE', symObjAddr: 0x32A6C, symBinAddr: 0x100039AFC, symSize: 0x330 }
  - { offset: 0x726F5, size: 0x8, addend: 0x0, symName: '__ZN61_$LT$std..path..Component$u20$as$u20$core..cmp..PartialEq$GT$2eq17h238f4f8a8cc29bb2E', symObjAddr: 0x3C0CC, symBinAddr: 0x10003C8B0, symSize: 0x138 }
  - { offset: 0x728CA, size: 0x8, addend: 0x0, symName: __ZN3std3sys3pal4unix2fs4File6open_c17h0a400570de534b0aE, symObjAddr: 0x3D220, symBinAddr: 0x10003CBEC, symSize: 0x1B0 }
  - { offset: 0x72A30, size: 0x8, addend: 0x0, symName: '__ZN91_$LT$std..sys..pal..unix..fs..ReadDir$u20$as$u20$core..iter..traits..iterator..Iterator$GT$4next17he1b3299a727d70eaE', symObjAddr: 0x3CD90, symBinAddr: 0x10003C9E8, symSize: 0x138 }
  - { offset: 0x72CD7, size: 0x8, addend: 0x0, symName: '__ZN70_$LT$std..sys..pal..unix..fs..Dir$u20$as$u20$core..ops..drop..Drop$GT$4drop17h2f7cbb54b209bd1fE', symObjAddr: 0x3CEC8, symBinAddr: 0x10003CB20, symSize: 0xCC }
  - { offset: 0x72DCA, size: 0x8, addend: 0x0, symName: __ZN3std3sys3pal4unix2fs7readdir17h52c204b360126013E, symObjAddr: 0x3DAF4, symBinAddr: 0x10003CD9C, symSize: 0x1A4 }
  - { offset: 0x730E0, size: 0x8, addend: 0x0, symName: __ZN3std3sys3pal4unix2os5errno17h1e687568046dfc01E, symObjAddr: 0x3FC68, symBinAddr: 0x10003CF40, symSize: 0x18 }
  - { offset: 0x730F4, size: 0x8, addend: 0x0, symName: __ZN3std3sys3pal4unix2os13env_read_lock17h1370e80127ab09adE, symObjAddr: 0x400EC, symBinAddr: 0x10003CF58, symSize: 0x2EC }
  - { offset: 0x7379C, size: 0x8, addend: 0x0, symName: '__ZN3std3sys3pal4unix2os6getenv28_$u7b$$u7b$closure$u7d$$u7d$17h09d09dd30efbeda3E', symObjAddr: 0x403D8, symBinAddr: 0x10003D244, symSize: 0x150 }
  - { offset: 0x739DD, size: 0x8, addend: 0x0, symName: '__ZN69_$LT$std..sys..pal..unix..stdio..Stderr$u20$as$u20$std..io..Write$GT$5write17hf7eb28e2e3a5bd7dE', symObjAddr: 0x43178, symBinAddr: 0x10003D724, symSize: 0x4C }
  - { offset: 0x73A9E, size: 0x8, addend: 0x0, symName: '__ZN69_$LT$std..sys..pal..unix..stdio..Stderr$u20$as$u20$std..io..Write$GT$14write_vectored17h6899437ee14ad0e1E', symObjAddr: 0x431C4, symBinAddr: 0x10003D770, symSize: 0x4C }
  - { offset: 0x73B5F, size: 0x8, addend: 0x0, symName: '__ZN69_$LT$std..sys..pal..unix..stdio..Stderr$u20$as$u20$std..io..Write$GT$17is_write_vectored17h9b2366713f7e1db9E', symObjAddr: 0x43210, symBinAddr: 0x10003D7BC, symSize: 0x14 }
  - { offset: 0x73B79, size: 0x8, addend: 0x0, symName: '__ZN69_$LT$std..sys..pal..unix..stdio..Stderr$u20$as$u20$std..io..Write$GT$5flush17hd9b43cd37b405524E', symObjAddr: 0x43224, symBinAddr: 0x10003D7D0, symSize: 0x14 }
  - { offset: 0x73BEB, size: 0x8, addend: 0x0, symName: __ZN3std3sys3pal4unix4sync5mutex5Mutex4init17hdf1c4f248d85eb16E, symObjAddr: 0x43238, symBinAddr: 0x10003D7E4, symSize: 0x16C }
  - { offset: 0x73C9E, size: 0x8, addend: 0x0, symName: __ZN3std3sys3pal4unix4sync5mutex5Mutex4lock4fail17h6819c36a4f036f8cE, symObjAddr: 0x433C0, symBinAddr: 0x100053CD8, symSize: 0xDC }
  - { offset: 0x73F5E, size: 0x8, addend: 0x0, symName: __ZN3std3sys3pal4unix14stack_overflow3imp14signal_handler17h2fa8e10590380ab0E, symObjAddr: 0x42C40, symBinAddr: 0x10003D394, symSize: 0xB0 }
  - { offset: 0x7400F, size: 0x8, addend: 0x0, symName: '__ZN3std3sys3pal4unix14stack_overflow3imp14signal_handler28_$u7b$$u7b$closure$u7d$$u7d$17h58562be330c5529fE', symObjAddr: 0x42CF0, symBinAddr: 0x10003D444, symSize: 0x100 }
  - { offset: 0x74235, size: 0x8, addend: 0x0, symName: __ZN3std3sys3pal4unix14stack_overflow3imp12make_handler17ha0e2e74c0ff811adE, symObjAddr: 0x42DF0, symBinAddr: 0x10003D544, symSize: 0x1E0 }
  - { offset: 0x745D7, size: 0x8, addend: 0x0, symName: __ZN3std3sys3pal4unix17decode_error_kind17h7a8628d240588c97E, symObjAddr: 0x43C48, symBinAddr: 0x10003D950, symSize: 0x30 }
  - { offset: 0x745F1, size: 0x8, addend: 0x0, symName: __ZN3std3sys3pal4unix14abort_internal17h1f437a045e84c0acE, symObjAddr: 0x43C78, symBinAddr: 0x10003D980, symSize: 0xC }
  - { offset: 0x74658, size: 0x8, addend: 0x0, symName: __ZN3std3sys3pal6common14small_c_string24run_with_cstr_allocating17h0222687f57b5b8d8E, symObjAddr: 0x378C4, symBinAddr: 0x1000539B4, symSize: 0xAC }
  - { offset: 0x747B4, size: 0x8, addend: 0x0, symName: __ZN3std3sys3pal6common14small_c_string24run_with_cstr_allocating17h89545bf18b96ebe8E, symObjAddr: 0x37BC8, symBinAddr: 0x100053A60, symSize: 0x9C }
  - { offset: 0x74923, size: 0x8, addend: 0x0, symName: __ZN3std3sys3pal6common14small_c_string24run_with_cstr_allocating17hf540475ca51d3e7bE, symObjAddr: 0x37DE8, symBinAddr: 0x100053AFC, symSize: 0xC4 }
  - { offset: 0x74B8E, size: 0x8, addend: 0x0, symName: '__ZN69_$LT$std..sys..os_str..bytes..Slice$u20$as$u20$core..fmt..Display$GT$3fmt17h9ac75767c8ed01b2E', symObjAddr: 0x466F4, symBinAddr: 0x10003DD24, symSize: 0xA0 }
  - { offset: 0x74BFF, size: 0x8, addend: 0x0, symName: '__ZN3std3sys11personality3gcc14find_eh_action28_$u7b$$u7b$closure$u7d$$u7d$17heb526fe46b317879E', symObjAddr: 0x44DB8, symBinAddr: 0x10003D98C, symSize: 0x18 }
  - { offset: 0x74C13, size: 0x8, addend: 0x0, symName: '__ZN3std3sys11personality3gcc14find_eh_action28_$u7b$$u7b$closure$u7d$$u7d$17hdfacf1f5ab590eb6E', symObjAddr: 0x44DD0, symBinAddr: 0x10003D9A4, symSize: 0x18 }
  - { offset: 0x74C43, size: 0x8, addend: 0x0, symName: _rust_eh_personality, symObjAddr: 0x44DE8, symBinAddr: 0x10003D9BC, symSize: 0x368 }
  - { offset: 0x74F78, size: 0x8, addend: 0x0, symName: __ZN3std3sys11personality5dwarf2eh19read_encoded_offset17he9cb5faabb9c188bE, symObjAddr: 0x3801C, symBinAddr: 0x10003A4B0, symSize: 0x150 }
  - { offset: 0x750DB, size: 0x8, addend: 0x0, symName: '__ZN3std3sys9backtrace10_print_fmt28_$u7b$$u7b$closure$u7d$$u7d$17h1863ed5b66499a89E', symObjAddr: 0x38458, symBinAddr: 0x10003A8EC, symSize: 0x30 }
  - { offset: 0x75104, size: 0x8, addend: 0x0, symName: '__ZN3std3sys9backtrace10_print_fmt28_$u7b$$u7b$closure$u7d$$u7d$17h49125cd88324db11E', symObjAddr: 0x38488, symBinAddr: 0x10003A91C, symSize: 0x134 }
  - { offset: 0x75218, size: 0x8, addend: 0x0, symName: '__ZN3std3sys9backtrace10_print_fmt28_$u7b$$u7b$closure$u7d$$u7d$28_$u7b$$u7b$closure$u7d$$u7d$17heb5be01c54158345E', symObjAddr: 0x385BC, symBinAddr: 0x10003AA50, symSize: 0x25C }
  - { offset: 0x75454, size: 0x8, addend: 0x0, symName: __ZN3std3sys9backtrace4lock17h6e02177f0f3558baE, symObjAddr: 0x3816C, symBinAddr: 0x10003A600, symSize: 0x70 }
  - { offset: 0x7559C, size: 0x8, addend: 0x0, symName: __ZN3std3sys9backtrace13BacktraceLock5print17h115149c0b879e5c3E, symObjAddr: 0x381DC, symBinAddr: 0x10003A670, symSize: 0x54 }
  - { offset: 0x755E9, size: 0x8, addend: 0x0, symName: '__ZN98_$LT$std..sys..backtrace..BacktraceLock..print..DisplayBacktrace$u20$as$u20$core..fmt..Display$GT$3fmt17h217270392019d164E', symObjAddr: 0x38230, symBinAddr: 0x10003A6C4, symSize: 0x228 }
  - { offset: 0x75B6B, size: 0x8, addend: 0x0, symName: __ZN3std3sys9backtrace26__rust_end_short_backtrace17h911de07218b69a6cE, symObjAddr: 0x38818, symBinAddr: 0x10003ACAC, symSize: 0xC }
  - { offset: 0x75B85, size: 0x8, addend: 0x0, symName: __ZN3std3sys9backtrace15output_filename17h988a0b5399b264d6E, symObjAddr: 0x38830, symBinAddr: 0x10003ACB8, symSize: 0xFC }
  - { offset: 0x75D3B, size: 0x8, addend: 0x0, symName: '__ZN3std3sys4sync8once_box16OnceBox$LT$T$GT$10initialize17h482967fb77aa636aE', symObjAddr: 0x3899C, symBinAddr: 0x100053BC0, symSize: 0xEC }
  - { offset: 0x75FFD, size: 0x8, addend: 0x0, symName: __ZN3std3sys4sync6rwlock5queue6RwLock21read_unlock_contended17ha1da939695eb68a4E, symObjAddr: 0x479D0, symBinAddr: 0x100053F14, symSize: 0x50 }
  - { offset: 0x7616C, size: 0x8, addend: 0x0, symName: __ZN3std3sys4sync6rwlock5queue6RwLock16unlock_contended17hb1bda0f6c9583d94E, symObjAddr: 0x47A20, symBinAddr: 0x100053F64, symSize: 0x50 }
  - { offset: 0x76248, size: 0x8, addend: 0x0, symName: __ZN3std3sys4sync6rwlock5queue6RwLock12unlock_queue17h1e38a16940d3a0e6E, symObjAddr: 0x47B84, symBinAddr: 0x10003E070, symSize: 0x1D8 }
  - { offset: 0x76991, size: 0x8, addend: 0x0, symName: __ZN3std3sys4sync6rwlock5queue9read_lock17h02feed94edb2ee18E, symObjAddr: 0x47710, symBinAddr: 0x10003E044, symSize: 0x2C }
  - { offset: 0x76A5F, size: 0x8, addend: 0x0, symName: __ZN3std3sys4sync4once5queue4Once4call17hc1cbcad9bb87275cE, symObjAddr: 0x47310, symBinAddr: 0x100053DB4, symSize: 0x160 }
  - { offset: 0x76B83, size: 0x8, addend: 0x0, symName: __ZN3std3sys4sync4once5queue4wait17h58ee39f231bfccb9E, symObjAddr: 0x47470, symBinAddr: 0x10003DDC4, symSize: 0x198 }
  - { offset: 0x770FE, size: 0x8, addend: 0x0, symName: '__ZN82_$LT$std..sys..sync..once..queue..WaiterQueue$u20$as$u20$core..ops..drop..Drop$GT$4drop17h45f863b67fd27f71E', symObjAddr: 0x47608, symBinAddr: 0x10003DF5C, symSize: 0xE8 }
  - { offset: 0x7735A, size: 0x8, addend: 0x0, symName: '__ZN3std3sys12thread_local6native4lazy20Storage$LT$T$C$D$GT$10initialize17h61fa4697cd48c6f6E', symObjAddr: 0x47E24, symBinAddr: 0x100053FB4, symSize: 0xC0 }
  - { offset: 0x77550, size: 0x8, addend: 0x0, symName: __ZN3std3sys12thread_local6native4lazy7destroy17h26d4ae6c1bac34fbE, symObjAddr: 0x47EE4, symBinAddr: 0x10003E248, symSize: 0x54 }
  - { offset: 0x776BE, size: 0x8, addend: 0x0, symName: __ZN3std3sys12thread_local5guard5apple6enable9run_dtors17h15022dedc81e5063E, symObjAddr: 0x4807C, symBinAddr: 0x10003E3E0, symSize: 0x13C }
  - { offset: 0x77C17, size: 0x8, addend: 0x0, symName: __ZN3std3sys12thread_local11destructors4list8register17h51fb0c77f8b321e6E, symObjAddr: 0x47F38, symBinAddr: 0x10003E29C, symSize: 0x144 }
  - { offset: 0x78009, size: 0x8, addend: 0x0, symName: __ZN3std3sys6random19hashmap_random_keys17h3b9528076369d374E, symObjAddr: 0x3892C, symBinAddr: 0x10003ADB4, symSize: 0x70 }
  - { offset: 0x782C1, size: 0x8, addend: 0x0, symName: '__ZN80_$LT$std..io..Write..write_fmt..Adapter$LT$T$GT$$u20$as$u20$core..fmt..Write$GT$9write_str17h0698cdf4cfa713e8E', symObjAddr: 0x2D538, symBinAddr: 0x100038CB0, symSize: 0xD8 }
  - { offset: 0x78414, size: 0x8, addend: 0x0, symName: '__ZN80_$LT$std..io..Write..write_fmt..Adapter$LT$T$GT$$u20$as$u20$core..fmt..Write$GT$9write_str17h58a4ca428f95c900E', symObjAddr: 0x2D738, symBinAddr: 0x100038D88, symSize: 0xD0 }
  - { offset: 0x785C9, size: 0x8, addend: 0x0, symName: '__ZN80_$LT$std..io..Write..write_fmt..Adapter$LT$T$GT$$u20$as$u20$core..fmt..Write$GT$9write_str17h6eb5a36b1832c95eE', symObjAddr: 0x2D808, symBinAddr: 0x100038E58, symSize: 0x80 }
  - { offset: 0x78733, size: 0x8, addend: 0x0, symName: __ZN3std2io5Write9write_all17h87bc481c06d6b6c7E, symObjAddr: 0x2CC10, symBinAddr: 0x100038388, symSize: 0xB8 }
  - { offset: 0x78863, size: 0x8, addend: 0x0, symName: __ZN3std2io5Write18write_all_vectored17h0d3be626dc41da2eE, symObjAddr: 0x2CCC8, symBinAddr: 0x100038440, symSize: 0x264 }
  - { offset: 0x78D09, size: 0x8, addend: 0x0, symName: __ZN3std2io5Write18write_all_vectored17h0f11e99192ac0da3E, symObjAddr: 0x2CF2C, symBinAddr: 0x1000386A4, symSize: 0x2A0 }
  - { offset: 0x791A5, size: 0x8, addend: 0x0, symName: __ZN3std2io5Write9write_fmt17h6564db7565ec4928E, symObjAddr: 0x2D1CC, symBinAddr: 0x100038944, symSize: 0x124 }
  - { offset: 0x793B8, size: 0x8, addend: 0x0, symName: __ZN3std2io5Write9write_fmt17h6e471a53cbe47e27E, symObjAddr: 0x2D2F0, symBinAddr: 0x100038A68, symSize: 0x124 }
  - { offset: 0x795CB, size: 0x8, addend: 0x0, symName: __ZN3std2io5Write9write_fmt17hb32eaafcfd249a19E, symObjAddr: 0x2D414, symBinAddr: 0x100038B8C, symSize: 0x124 }
  - { offset: 0x797F7, size: 0x8, addend: 0x0, symName: '__ZN3std2io5impls74_$LT$impl$u20$std..io..Write$u20$for$u20$alloc..vec..Vec$LT$u8$C$A$GT$$GT$5write17hf1a6df91b3a9c331E', symObjAddr: 0x2731C, symBinAddr: 0x100037FF4, symSize: 0x84 }
  - { offset: 0x7993C, size: 0x8, addend: 0x0, symName: '__ZN3std2io5impls74_$LT$impl$u20$std..io..Write$u20$for$u20$alloc..vec..Vec$LT$u8$C$A$GT$$GT$14write_vectored17h935681c1f031c204E', symObjAddr: 0x273A0, symBinAddr: 0x100038078, symSize: 0x174 }
  - { offset: 0x79B88, size: 0x8, addend: 0x0, symName: '__ZN3std2io5impls74_$LT$impl$u20$std..io..Write$u20$for$u20$alloc..vec..Vec$LT$u8$C$A$GT$$GT$17is_write_vectored17h4055b148f544ec6cE', symObjAddr: 0x27514, symBinAddr: 0x1000381EC, symSize: 0x14 }
  - { offset: 0x79BA3, size: 0x8, addend: 0x0, symName: '__ZN3std2io5impls74_$LT$impl$u20$std..io..Write$u20$for$u20$alloc..vec..Vec$LT$u8$C$A$GT$$GT$9write_all17h8667482891c5bc01E', symObjAddr: 0x27528, symBinAddr: 0x100038200, symSize: 0x80 }
  - { offset: 0x79CE1, size: 0x8, addend: 0x0, symName: '__ZN3std2io5impls74_$LT$impl$u20$std..io..Write$u20$for$u20$alloc..vec..Vec$LT$u8$C$A$GT$$GT$5flush17h1aa70c4ce0391c44E', symObjAddr: 0x275A8, symBinAddr: 0x100038280, symSize: 0x14 }
  - { offset: 0x79E66, size: 0x8, addend: 0x0, symName: '__ZN58_$LT$std..io..error..Error$u20$as$u20$core..fmt..Debug$GT$3fmt17h4ed4286e752207faE', symObjAddr: 0x26AE0, symBinAddr: 0x100037B4C, symSize: 0x10 }
  - { offset: 0x79E99, size: 0x8, addend: 0x0, symName: '__ZN3std2io5error83_$LT$impl$u20$core..fmt..Debug$u20$for$u20$std..io..error..repr_bitpacked..Repr$GT$3fmt17h65ae83bc7dc9681bE', symObjAddr: 0x26D88, symBinAddr: 0x100037B5C, symSize: 0x294 }
  - { offset: 0x7A0E4, size: 0x8, addend: 0x0, symName: '__ZN60_$LT$std..io..error..Error$u20$as$u20$core..fmt..Display$GT$3fmt17h9bd80ee0c1811a25E', symObjAddr: 0x2701C, symBinAddr: 0x100037DF0, symSize: 0x204 }
  - { offset: 0x7A343, size: 0x8, addend: 0x0, symName: '__ZN62_$LT$std..io..error..ErrorKind$u20$as$u20$core..fmt..Debug$GT$3fmt17h219a5c9d2c7eda43E', symObjAddr: 0x3C098, symBinAddr: 0x10003C87C, symSize: 0x34 }
  - { offset: 0x7A36E, size: 0x8, addend: 0x0, symName: '__ZN3std2io8buffered9bufwriter18BufWriter$LT$W$GT$9flush_buf17h4bdccd2184fd8b56E', symObjAddr: 0x25FE4, symBinAddr: 0x1000378B4, symSize: 0x204 }
  - { offset: 0x7A921, size: 0x8, addend: 0x0, symName: '__ZN111_$LT$std..io..buffered..bufwriter..BufWriter$LT$W$GT$..flush_buf..BufGuard$u20$as$u20$core..ops..drop..Drop$GT$4drop17hf4fab513e29b005cE', symObjAddr: 0x2621C, symBinAddr: 0x100037AEC, symSize: 0x60 }
  - { offset: 0x7AAD6, size: 0x8, addend: 0x0, symName: '__ZN3std2io8buffered9bufwriter18BufWriter$LT$W$GT$9flush_buf8BufGuard9remaining17h11b3a2941a56919aE', symObjAddr: 0x261E8, symBinAddr: 0x100037AB8, symSize: 0x34 }
  - { offset: 0x7AC82, size: 0x8, addend: 0x0, symName: __ZN3std2io5stdio22try_set_output_capture17h3c34954bc62c0e61E, symObjAddr: 0x2BA8C, symBinAddr: 0x100038294, symSize: 0xF4 }
  - { offset: 0x7AF26, size: 0x8, addend: 0x0, symName: '__ZN3std4sync6poison4once4Once15call_once_force28_$u7b$$u7b$closure$u7d$$u7d$17hb663b4fc9d65cdd9E', symObjAddr: 0x36574, symBinAddr: 0x10003A450, symSize: 0x60 }
  - { offset: 0x7B00D, size: 0x8, addend: 0x0, symName: '__ZN3std4sync6poison4once4Once9call_once28_$u7b$$u7b$closure$u7d$$u7d$17h972e10e961241d2eE', symObjAddr: 0x36114, symBinAddr: 0x10003A1F4, symSize: 0x25C }
  - { offset: 0x7B9FC, size: 0x8, addend: 0x0, symName: '__ZN3std4sync9once_lock17OnceLock$LT$T$GT$10initialize17hde8bf60cb9cf1a08E', symObjAddr: 0x3706C, symBinAddr: 0x10005394C, symSize: 0x68 }
  - { offset: 0x7BA27, size: 0x8, addend: 0x0, symName: '__ZN3std4sync9once_lock17OnceLock$LT$T$GT$10initialize17hde8bf60cb9cf1a08E', symObjAddr: 0x3706C, symBinAddr: 0x10005394C, symSize: 0x68 }
  - { offset: 0x7BA3B, size: 0x8, addend: 0x0, symName: '__ZN3std4sync9once_lock17OnceLock$LT$T$GT$10initialize17hde8bf60cb9cf1a08E', symObjAddr: 0x3706C, symBinAddr: 0x10005394C, symSize: 0x68 }
  - { offset: 0x7BA4F, size: 0x8, addend: 0x0, symName: '__ZN3std4sync9once_lock17OnceLock$LT$T$GT$10initialize17hde8bf60cb9cf1a08E', symObjAddr: 0x3706C, symBinAddr: 0x10005394C, symSize: 0x68 }
  - { offset: 0x7BB50, size: 0x8, addend: 0x0, symName: __ZN3std2rt19lang_start_internal17h95cf27b851151b9cE, symObjAddr: 0x1EEA4, symBinAddr: 0x100036934, symSize: 0x684 }
  - { offset: 0x7C777, size: 0x8, addend: 0x0, symName: __ZN3std12backtrace_rs9symbolize5gimli7Context3new17h596fdfe772dc2bb6E, symObjAddr: 0x482F4, symBinAddr: 0x10003E5A8, symSize: 0x2410 }
  - { offset: 0x80622, size: 0x8, addend: 0x0, symName: __ZN3std12backtrace_rs9symbolize5gimli7Context11find_frames17h5933b96d93a6487fE, symObjAddr: 0x4A704, symBinAddr: 0x1000409B8, symSize: 0x37C }
  - { offset: 0x80AB4, size: 0x8, addend: 0x0, symName: __ZN3std12backtrace_rs9symbolize5gimli5macho6Object5parse17h7c99ba302784e02bE, symObjAddr: 0x4D518, symBinAddr: 0x10004379C, symSize: 0xBD0 }
  - { offset: 0x82969, size: 0x8, addend: 0x0, symName: __ZN3std12backtrace_rs9symbolize5gimli5macho6Object7section17h7775decf80db3f1dE, symObjAddr: 0x4E0E8, symBinAddr: 0x10004436C, symSize: 0x3A0 }
  - { offset: 0x82E2C, size: 0x8, addend: 0x0, symName: __ZN3std12backtrace_rs9symbolize5gimli5macho11find_header17hcafb8c4177e72185E, symObjAddr: 0x4D344, symBinAddr: 0x1000435C8, symSize: 0x1D4 }
  - { offset: 0x8352C, size: 0x8, addend: 0x0, symName: __ZN3std12backtrace_rs9symbolize5gimli4mmap17h52426abb42b033dbE, symObjAddr: 0x4AA80, symBinAddr: 0x100040D34, symSize: 0x160 }
  - { offset: 0x83B41, size: 0x8, addend: 0x0, symName: __ZN3std12backtrace_rs9symbolize5gimli7resolve17h4e500df68d74bbd0E, symObjAddr: 0x4ABE0, symBinAddr: 0x100040E94, symSize: 0x2734 }
  - { offset: 0x89B30, size: 0x8, addend: 0x0, symName: __ZN3std12backtrace_rs9symbolize6Symbol4name17hfe1d12d8092fe441E, symObjAddr: 0x3B724, symBinAddr: 0x10003C1C8, symSize: 0xE4 }
  - { offset: 0x89C6A, size: 0x8, addend: 0x0, symName: '__ZN79_$LT$std..backtrace_rs..symbolize..SymbolName$u20$as$u20$core..fmt..Display$GT$3fmt17hebc8fecc1f34ea4cE', symObjAddr: 0x3B948, symBinAddr: 0x10003C2AC, symSize: 0x100 }
  - { offset: 0x89DA8, size: 0x8, addend: 0x0, symName: __ZN3std12backtrace_rs9backtrace9libunwind5trace8trace_fn17h8dbf4a7a3c414c4fE, symObjAddr: 0x482AC, symBinAddr: 0x10003E560, symSize: 0x48 }
  - { offset: 0x89E87, size: 0x8, addend: 0x0, symName: __ZN3std12backtrace_rs5print17BacktraceFrameFmt21print_raw_with_column17h4b2c8f5f934c00c0E, symObjAddr: 0x3BB48, symBinAddr: 0x10003C3AC, symSize: 0x4D0 }
  - { offset: 0x8A171, size: 0x8, addend: 0x0, symName: __ZN3std6thread7current16try_with_current17h38cb00b0189d4132E, symObjAddr: 0x1F754, symBinAddr: 0x100036FB8, symSize: 0x98 }
  - { offset: 0x8A2A5, size: 0x8, addend: 0x0, symName: __ZN3std6thread7current12init_current17hb7b435bd17801980E, symObjAddr: 0x1F900, symBinAddr: 0x100053748, symSize: 0x17C }
  - { offset: 0x8A664, size: 0x8, addend: 0x0, symName: __ZN3std6thread6Thread3new17h37ed5d6af114daceE, symObjAddr: 0x20814, symBinAddr: 0x100037184, symSize: 0x164 }
  - { offset: 0x8AAC3, size: 0x8, addend: 0x0, symName: '__ZN68_$LT$std..thread..local..AccessError$u20$as$u20$core..fmt..Debug$GT$3fmt17hadafb6691b43fd9bE', symObjAddr: 0x20080, symBinAddr: 0x100037050, symSize: 0x38 }
  - { offset: 0x8AADE, size: 0x8, addend: 0x0, symName: __ZN3std6thread5local18panic_access_error17h9c565d65be312c10E, symObjAddr: 0x200D8, symBinAddr: 0x1000538C4, symSize: 0x44 }
  - { offset: 0x8AB71, size: 0x8, addend: 0x0, symName: '__ZN118_$LT$std..thread..thread_name_string..ThreadNameString$u20$as$u20$core..convert..From$LT$alloc..string..String$GT$$GT$4from17h83ebc56d52812e83E', symObjAddr: 0x20718, symBinAddr: 0x100037088, symSize: 0xFC }
  - { offset: 0x8AD5C, size: 0x8, addend: 0x0, symName: __ZN3std6thread8ThreadId3new9exhausted17h1c0c206286c216f1E, symObjAddr: 0x206E0, symBinAddr: 0x100053908, symSize: 0x38 }
  - { offset: 0x8AE45, size: 0x8, addend: 0x0, symName: __ZN3std5panic19get_backtrace_style17hb0947c7d43e173b3E, symObjAddr: 0x31B78, symBinAddr: 0x100038ED8, symSize: 0x10C }
  - { offset: 0x8AE63, size: 0x8, addend: 0x0, symName: __ZN3std5panic19get_backtrace_style17hb0947c7d43e173b3E, symObjAddr: 0x31B78, symBinAddr: 0x100038ED8, symSize: 0x10C }
  - { offset: 0x8AE78, size: 0x8, addend: 0x0, symName: __ZN3std5panic19get_backtrace_style17hb0947c7d43e173b3E, symObjAddr: 0x31B78, symBinAddr: 0x100038ED8, symSize: 0x10C }
  - { offset: 0x8B263, size: 0x8, addend: 0x0, symName: __ZN3std3env11current_dir17h378d2e00353b8c55E, symObjAddr: 0x21D9C, symBinAddr: 0x1000372E8, symSize: 0x1D0 }
  - { offset: 0x8B5DA, size: 0x8, addend: 0x0, symName: __ZN3std3env7_var_os17h91cf52b19c1ae9d5E, symObjAddr: 0x22698, symBinAddr: 0x1000374B8, symSize: 0x160 }
  - { offset: 0x8B89D, size: 0x8, addend: 0x0, symName: __ZN3std2fs11OpenOptions5_open17h060c4979cd359a16E, symObjAddr: 0x24BC4, symBinAddr: 0x100037664, symSize: 0x250 }
  - { offset: 0x8BA56, size: 0x8, addend: 0x0, symName: '__ZN48_$LT$std..fs..File$u20$as$u20$std..io..Write$GT$5write17hae8351bd5e30937bE', symObjAddr: 0x2486C, symBinAddr: 0x100037618, symSize: 0x4C }
  - { offset: 0x8BBA3, size: 0x8, addend: 0x0, symName: __ZN3std5alloc24default_alloc_error_hook17h2ab9053c5916c535E, symObjAddr: 0x39CF4, symBinAddr: 0x10003AE24, symSize: 0x13C }
  - { offset: 0x8BDE6, size: 0x8, addend: 0x0, symName: ___rdl_alloc, symObjAddr: 0x39E30, symBinAddr: 0x10003AF60, symSize: 0x6C }
  - { offset: 0x8BE62, size: 0x8, addend: 0x0, symName: ___rdl_dealloc, symObjAddr: 0x39E9C, symBinAddr: 0x10003AFCC, symSize: 0x10 }
  - { offset: 0x8BE92, size: 0x8, addend: 0x0, symName: ___rdl_realloc, symObjAddr: 0x39EAC, symBinAddr: 0x10003AFDC, symSize: 0xB0 }
  - { offset: 0x8BF64, size: 0x8, addend: 0x0, symName: ___rdl_alloc_zeroed, symObjAddr: 0x39F5C, symBinAddr: 0x10003B08C, symSize: 0x90 }
  - { offset: 0x8C002, size: 0x8, addend: 0x0, symName: __ZN3std5alloc8rust_oom17hb46c5aeb63fa3cb5E, symObjAddr: 0x481B8, symBinAddr: 0x10003E51C, symSize: 0x2C }
  - { offset: 0x8C051, size: 0x8, addend: 0x0, symName: ___rg_oom, symObjAddr: 0x481E4, symBinAddr: 0x10003E548, symSize: 0x18 }
  - { offset: 0x8C198, size: 0x8, addend: 0x0, symName: '__ZN5gimli4read4unit32AttributeValue$LT$R$C$Offset$GT$11udata_value17h2b61cc9b6a98fb32E', symObjAddr: 0x14DE0, symBinAddr: 0x10002CE84, symSize: 0x90 }
  - { offset: 0x8C1F3, size: 0x8, addend: 0x0, symName: __ZN5gimli4read4unit15parse_attribute17h49f957a62d462029E, symObjAddr: 0x130AC, symBinAddr: 0x10002B150, symSize: 0xF74 }
  - { offset: 0x8EED7, size: 0x8, addend: 0x0, symName: __ZN5gimli4read4unit15skip_attributes17h31562773efeee2f1E, symObjAddr: 0x14020, symBinAddr: 0x10002C0C4, symSize: 0x52C }
  - { offset: 0x8F8EF, size: 0x8, addend: 0x0, symName: '__ZN5gimli4read4unit18Attribute$LT$R$GT$5value17hbc90a819c686a39aE', symObjAddr: 0x1454C, symBinAddr: 0x10002C5F0, symSize: 0x5DC }
  - { offset: 0x8FE8F, size: 0x8, addend: 0x0, symName: '__ZN5gimli4read4unit22EntriesCursor$LT$R$GT$10next_entry17hdf28d3cec3327cb6E', symObjAddr: 0x14B28, symBinAddr: 0x10002CBCC, symSize: 0x2B8 }
  - { offset: 0x90483, size: 0x8, addend: 0x0, symName: '__ZN5gimli4read4unit33DebugInfoUnitHeadersIter$LT$R$GT$4next17h34712ebaabdffee4E', symObjAddr: 0x14E70, symBinAddr: 0x10002CF14, symSize: 0x524 }
  - { offset: 0x915B9, size: 0x8, addend: 0x0, symName: '__ZN90_$LT$gimli..read..unit..AttributeValue$LT$R$C$Offset$GT$$u20$as$u20$core..clone..Clone$GT$5clone17h20eda0c245e8425dE', symObjAddr: 0x19914, symBinAddr: 0x1000314C0, symSize: 0x68 }
  - { offset: 0x9180A, size: 0x8, addend: 0x0, symName: __ZN5gimli4read6reader6Reader11read_offset17hb66bf69f998efb74E, symObjAddr: 0x179B8, symBinAddr: 0x10002FA5C, symSize: 0xBC }
  - { offset: 0x91A45, size: 0x8, addend: 0x0, symName: __ZN5gimli4read6reader6Reader12read_sleb12817hd93e25793436fd15E, symObjAddr: 0x17A74, symBinAddr: 0x10002FB18, symSize: 0x21C }
  - { offset: 0x91B32, size: 0x8, addend: 0x0, symName: __ZN5gimli4read6reader6Reader12read_uleb12817ha415c724c08e32b4E, symObjAddr: 0x17C90, symBinAddr: 0x10002FD34, symSize: 0xB0 }
  - { offset: 0x91BE7, size: 0x8, addend: 0x0, symName: __ZN5gimli4read6reader6Reader17read_sized_offset17hbf387c98074d1971E, symObjAddr: 0x17D40, symBinAddr: 0x10002FDE4, symSize: 0xEC }
  - { offset: 0x91FFA, size: 0x8, addend: 0x0, symName: __ZN5gimli4read4line13parse_file_v517hcd59a31a0bc27fa9E, symObjAddr: 0x11F1C, symBinAddr: 0x100029FC0, symSize: 0x2B4 }
  - { offset: 0x92171, size: 0x8, addend: 0x0, symName: __ZN5gimli4read4line15FileEntryFormat5parse17he68be02eb21a6f6cE, symObjAddr: 0x121D0, symBinAddr: 0x10002A274, symSize: 0x370 }
  - { offset: 0x92996, size: 0x8, addend: 0x0, symName: __ZN5gimli4read4line15parse_attribute17h6dcb28bb0d8f0d55E, symObjAddr: 0x12540, symBinAddr: 0x10002A5E4, symSize: 0x86C }
  - { offset: 0x9412D, size: 0x8, addend: 0x0, symName: __ZN5gimli4read4line18parse_directory_v517h7ed9e48bb2fa518bE, symObjAddr: 0x12DAC, symBinAddr: 0x10002AE50, symSize: 0xE8 }
  - { offset: 0x941BD, size: 0x8, addend: 0x0, symName: '__ZN5gimli4read4line27FileEntry$LT$R$C$Offset$GT$5parse17h0cf5e73c1698de2fE', symObjAddr: 0x12E94, symBinAddr: 0x10002AF38, symSize: 0x218 }
  - { offset: 0x948E0, size: 0x8, addend: 0x0, symName: '__ZN5gimli4read5dwarf14Dwarf$LT$R$GT$11attr_string17hc40cc697c7ad324fE', symObjAddr: 0x17104, symBinAddr: 0x10002F1A8, symSize: 0x1E8 }
  - { offset: 0x9512A, size: 0x8, addend: 0x0, symName: '__ZN5gimli4read5dwarf13Unit$LT$R$GT$3new17h9c8abef5d8c50a6dE', symObjAddr: 0x15394, symBinAddr: 0x10002D438, symSize: 0x1D70 }
  - { offset: 0x98D25, size: 0x8, addend: 0x0, symName: '__ZN5gimli4read5index18UnitIndex$LT$R$GT$5parse17haa9f95b067464b66E', symObjAddr: 0x172EC, symBinAddr: 0x10002F390, symSize: 0x6CC }
  - { offset: 0x992E9, size: 0x8, addend: 0x0, symName: '__ZN5gimli4read7aranges30ArangeHeader$LT$R$C$Offset$GT$5parse17h20619b15205da501E', symObjAddr: 0x17E2C, symBinAddr: 0x10002FED0, symSize: 0x2A8 }
  - { offset: 0x99B9F, size: 0x8, addend: 0x0, symName: '__ZN5gimli4read8rnglists20RngListIter$LT$R$GT$4next17h7e27fd598c933045E', symObjAddr: 0x180D4, symBinAddr: 0x100030178, symSize: 0xC74 }
  - { offset: 0x9CAD5, size: 0x8, addend: 0x0, symName: '__ZN9addr2line8function17Function$LT$R$GT$14parse_children17he1d2dd4eaf8a7357E', symObjAddr: 0x1DDF8, symBinAddr: 0x1000358EC, symSize: 0xE88 }
  - { offset: 0x9E307, size: 0x8, addend: 0x0, symName: __ZN9addr2line8function10name_entry17hd712c6a5749c0b0eE, symObjAddr: 0x1DA8C, symBinAddr: 0x100035580, symSize: 0x36C }
  - { offset: 0x9E7CF, size: 0x8, addend: 0x0, symName: __ZN9addr2line8function9name_attr17h41adbb1d91e81904E, symObjAddr: 0x1EC80, symBinAddr: 0x100036774, symSize: 0x1C0 }
  - { offset: 0x9E9F1, size: 0x8, addend: 0x0, symName: '__ZN9addr2line4unit16ResUnit$LT$R$GT$25find_function_or_location17h353b18e237b7b2c9E', symObjAddr: 0x1BBAC, symBinAddr: 0x1000336A0, symSize: 0x39C }
  - { offset: 0x9EF52, size: 0x8, addend: 0x0, symName: '__ZN9addr2line4unit16ResUnit$LT$R$GT$25find_function_or_location28_$u7b$$u7b$closure$u7d$$u7d$17h6a4d5a45c96dd11cE', symObjAddr: 0x1BF48, symBinAddr: 0x100033A3C, symSize: 0x1490 }
  - { offset: 0xA187F, size: 0x8, addend: 0x0, symName: '__ZN9addr2line16Context$LT$R$GT$9find_unit17h672f8cef0a6cef5fE', symObjAddr: 0x19A34, symBinAddr: 0x100031528, symSize: 0x168 }
  - { offset: 0xA1A14, size: 0x8, addend: 0x0, symName: __ZN9addr2line4line11render_file17h56c7df47359e37daE, symObjAddr: 0x19B9C, symBinAddr: 0x100031690, symSize: 0x4C0 }
  - { offset: 0xA2325, size: 0x8, addend: 0x0, symName: __ZN9addr2line4line9LazyLines6borrow17ha6d975a019e23e93E, symObjAddr: 0x1A05C, symBinAddr: 0x100031B50, symSize: 0x1B50 }
  - { offset: 0xA5759, size: 0x8, addend: 0x0, symName: '__ZN9addr2line6lookup30LoopingLookup$LT$T$C$L$C$F$GT$10new_lookup17h590d4f5c6451cf3cE', symObjAddr: 0x1D654, symBinAddr: 0x100035148, symSize: 0x438 }
  - { offset: 0xA5CF7, size: 0x8, addend: 0x0, symName: '__ZN9addr2line5frame18FrameIter$LT$R$GT$4next17h4512ac685f8f4647E', symObjAddr: 0x1D3D8, symBinAddr: 0x100034ECC, symSize: 0x27C }
  - { offset: 0xA6195, size: 0x8, addend: 0x0, symName: __ZN6object4read7archive13ArchiveMember5parse17he23e9c7a2dcdb639E, symObjAddr: 0x19204, symBinAddr: 0x100030E54, symSize: 0x41C }
  - { offset: 0xA6D22, size: 0x8, addend: 0x0, symName: __ZN6object4read7archive23parse_bsd_extended_name17hc2b3d25eef9eeec9E, symObjAddr: 0x19620, symBinAddr: 0x100031270, symSize: 0x250 }
  - { offset: 0xA7B45, size: 0x8, addend: 0x0, symName: _OUTLINED_FUNCTION_0, symObjAddr: 0x4E488, symBinAddr: 0x10004470C, symSize: 0x24 }
  - { offset: 0xA7B5D, size: 0x8, addend: 0x0, symName: _OUTLINED_FUNCTION_1, symObjAddr: 0x4E4AC, symBinAddr: 0x100044730, symSize: 0x8 }
  - { offset: 0xA7B75, size: 0x8, addend: 0x0, symName: _OUTLINED_FUNCTION_2, symObjAddr: 0x4E4B4, symBinAddr: 0x100044738, symSize: 0x10 }
  - { offset: 0xA7B8D, size: 0x8, addend: 0x0, symName: _OUTLINED_FUNCTION_3, symObjAddr: 0x4E4C4, symBinAddr: 0x100044748, symSize: 0x8 }
  - { offset: 0xA7BA5, size: 0x8, addend: 0x0, symName: _OUTLINED_FUNCTION_4, symObjAddr: 0x4E4CC, symBinAddr: 0x100044750, symSize: 0x8 }
  - { offset: 0xA7BBD, size: 0x8, addend: 0x0, symName: _OUTLINED_FUNCTION_5, symObjAddr: 0x4E4D4, symBinAddr: 0x100044758, symSize: 0xC }
  - { offset: 0xA7BF3, size: 0x8, addend: 0x0, symName: '__ZN4core3ptr49drop_in_place$LT$panic_unwind..imp..Exception$GT$17h82c2656372694058E', symObjAddr: 0x0, symBinAddr: 0x100044764, symSize: 0x78 }
  - { offset: 0xA7C19, size: 0x8, addend: 0x0, symName: '__ZN4core3ptr49drop_in_place$LT$panic_unwind..imp..Exception$GT$17h82c2656372694058E', symObjAddr: 0x0, symBinAddr: 0x100044764, symSize: 0x78 }
  - { offset: 0xA7D20, size: 0x8, addend: 0x0, symName: '__ZN4core3ptr74drop_in_place$LT$alloc..boxed..Box$LT$panic_unwind..imp..Exception$GT$$GT$17h401304109b323233E', symObjAddr: 0x78, symBinAddr: 0x1000447DC, symSize: 0x8C }
  - { offset: 0xA7FF6, size: 0x8, addend: 0x0, symName: __ZN12panic_unwind3imp5panic17exception_cleanup17h71dcf2e4fc4aa769E, symObjAddr: 0x214, symBinAddr: 0x100044978, symSize: 0x18 }
  - { offset: 0xA8012, size: 0x8, addend: 0x0, symName: ___rust_panic_cleanup, symObjAddr: 0x104, symBinAddr: 0x100044868, symSize: 0x68 }
  - { offset: 0xA80B4, size: 0x8, addend: 0x0, symName: ___rust_start_panic, symObjAddr: 0x16C, symBinAddr: 0x1000448D0, symSize: 0xA8 }
  - { offset: 0xA81AB, size: 0x8, addend: 0x0, symName: __ZN9hashbrown3raw11Fallibility17capacity_overflow17h33a5876e92dc1319E, symObjAddr: 0xC8, symBinAddr: 0x10004D148, symSize: 0x44 }
  - { offset: 0xA81DA, size: 0x8, addend: 0x0, symName: __ZN9hashbrown3raw11Fallibility9alloc_err17h5d107b542d4ae344E, symObjAddr: 0x10C, symBinAddr: 0x10004D18C, symSize: 0x24 }
  - { offset: 0xA8215, size: 0x8, addend: 0x0, symName: '__ZN42_$LT$$RF$T$u20$as$u20$core..fmt..Debug$GT$3fmt17hd0ab4e0c95fc0278E', symObjAddr: 0x0, symBinAddr: 0x10004D1B0, symSize: 0x30 }
  - { offset: 0xA825F, size: 0x8, addend: 0x0, symName: '__ZN42_$LT$$RF$T$u20$as$u20$core..fmt..Debug$GT$3fmt17hd0ab4e0c95fc0278E', symObjAddr: 0x0, symBinAddr: 0x10004D1B0, symSize: 0x30 }
  - { offset: 0xA82A5, size: 0x8, addend: 0x0, symName: '__ZN42_$LT$$RF$T$u20$as$u20$core..fmt..Debug$GT$3fmt17hf848de7b5d82925fE', symObjAddr: 0x4C, symBinAddr: 0x10004D1E0, symSize: 0x64 }
  - { offset: 0xA83B0, size: 0x8, addend: 0x0, symName: __ZN4core9panicking13assert_failed17h029558b6dec8cb1fE, symObjAddr: 0x170, symBinAddr: 0x100054128, symSize: 0x30 }
  - { offset: 0xA83DB, size: 0x8, addend: 0x0, symName: '__ZN69_$LT$core..alloc..layout..LayoutError$u20$as$u20$core..fmt..Debug$GT$3fmt17h847390e718c251f1E', symObjAddr: 0x1C0, symBinAddr: 0x10004D244, symSize: 0x20 }
  - { offset: 0xA871B, size: 0x8, addend: 0x0, symName: __ZN5alloc7raw_vec17capacity_overflow17hf0a187d8de84083bE, symObjAddr: 0x1E0, symBinAddr: 0x10004D264, symSize: 0x34 }
  - { offset: 0xA875D, size: 0x8, addend: 0x0, symName: '__ZN5alloc7raw_vec19RawVec$LT$T$C$A$GT$8grow_one17h207f2a977af11d07E', symObjAddr: 0x214, symBinAddr: 0x10004D298, symSize: 0xAC }
  - { offset: 0xA88D2, size: 0x8, addend: 0x0, symName: '__ZN5alloc7raw_vec20RawVecInner$LT$A$GT$7reserve21do_reserve_and_handle17hf907109019113e80E', symObjAddr: 0x2C0, symBinAddr: 0x100054158, symSize: 0xB0 }
  - { offset: 0xA89D2, size: 0x8, addend: 0x0, symName: __ZN5alloc7raw_vec11finish_grow17h91993be477efd13cE, symObjAddr: 0x370, symBinAddr: 0x100054208, symSize: 0x88 }
  - { offset: 0xA8A48, size: 0x8, addend: 0x0, symName: __ZN5alloc7raw_vec12handle_error17h7f0cbdf2396d2d52E, symObjAddr: 0x3F8, symBinAddr: 0x100054290, symSize: 0x18 }
  - { offset: 0xA8B42, size: 0x8, addend: 0x0, symName: __ZN5alloc5alloc18handle_alloc_error17h14470fb7117d6c37E, symObjAddr: 0x410, symBinAddr: 0x1000542A8, symSize: 0x18 }
  - { offset: 0xA8BCD, size: 0x8, addend: 0x0, symName: '__ZN93_$LT$alloc..collections..btree..mem..replace..PanicGuard$u20$as$u20$core..ops..drop..Drop$GT$4drop17h4dbb92e5b56c174aE', symObjAddr: 0xE10, symBinAddr: 0x10004D344, symSize: 0xC }
  - { offset: 0xA8D1D, size: 0x8, addend: 0x0, symName: __ZN5alloc6string6String15from_utf8_lossy17h7d31b366d97043dfE, symObjAddr: 0x2F28, symBinAddr: 0x10004D5CC, symSize: 0x238 }
  - { offset: 0xA9269, size: 0x8, addend: 0x0, symName: '__ZN98_$LT$alloc..string..String$u20$as$u20$core..convert..From$LT$alloc..borrow..Cow$LT$str$GT$$GT$$GT$4from17hde800050cd4f6a42E', symObjAddr: 0x4D48, symBinAddr: 0x10004D804, symSize: 0xBC }
  - { offset: 0xA9497, size: 0x8, addend: 0x0, symName: '__ZN72_$LT$$RF$str$u20$as$u20$alloc..ffi..c_str..CString..new..SpecNewImpl$GT$13spec_new_impl17h37cb9b6572c7448bE', symObjAddr: 0xEA8, symBinAddr: 0x10004D350, symSize: 0x11C }
  - { offset: 0xA96D8, size: 0x8, addend: 0x0, symName: __ZN5alloc3ffi5c_str7CString19_from_vec_unchecked17h8dccb886daea0b28E, symObjAddr: 0x1110, symBinAddr: 0x10004D46C, symSize: 0x160 }
  - { offset: 0xA9A02, size: 0x8, addend: 0x0, symName: __ZN5alloc4sync32arcinner_layout_for_value_layout17h83c76efa9058bc15E, symObjAddr: 0x516C, symBinAddr: 0x10004D8C0, symSize: 0x74 }
  - { offset: 0xA9CF4, size: 0x8, addend: 0x0, symName: __ZN4core3num9int_log1030panic_for_nonpositive_argument17hd8e455206e67d4fdE, symObjAddr: 0x408C, symBinAddr: 0x1000542C0, symSize: 0x34 }
  - { offset: 0xAA05F, size: 0x8, addend: 0x0, symName: __ZN4core5slice5index26slice_start_index_len_fail8do_panic7runtime17h9ddc6a7ecebba1e9E, symObjAddr: 0x1B12C, symBinAddr: 0x100052548, symSize: 0x50 }
  - { offset: 0xAA092, size: 0x8, addend: 0x0, symName: __ZN4core5slice5index26slice_start_index_len_fail17hbef4cde757a23982E, symObjAddr: 0xEAAC, symBinAddr: 0x100054708, symSize: 0xC }
  - { offset: 0xAA0D8, size: 0x8, addend: 0x0, symName: __ZN4core5slice5index24slice_end_index_len_fail8do_panic7runtime17h385f2d9d99153a75E, symObjAddr: 0x1B17C, symBinAddr: 0x100052598, symSize: 0x50 }
  - { offset: 0xAA10B, size: 0x8, addend: 0x0, symName: __ZN4core5slice5index24slice_end_index_len_fail17ha150b75f771021fbE, symObjAddr: 0xEAB8, symBinAddr: 0x100054714, symSize: 0xC }
  - { offset: 0xAA151, size: 0x8, addend: 0x0, symName: __ZN4core5slice5index22slice_index_order_fail8do_panic7runtime17he0b28f8ab2cd970eE, symObjAddr: 0x1B1CC, symBinAddr: 0x1000525E8, symSize: 0x50 }
  - { offset: 0xAA184, size: 0x8, addend: 0x0, symName: __ZN4core5slice5index22slice_index_order_fail17h7613890af586566aE, symObjAddr: 0xEAC4, symBinAddr: 0x100054720, symSize: 0xC }
  - { offset: 0xAA40A, size: 0x8, addend: 0x0, symName: '__ZN4core5slice29_$LT$impl$u20$$u5b$T$u5d$$GT$15copy_from_slice17len_mismatch_fail8do_panic7runtime17h32155aa7baf5bd1dE', symObjAddr: 0x1B21C, symBinAddr: 0x100052638, symSize: 0x54 }
  - { offset: 0xAA43D, size: 0x8, addend: 0x0, symName: '__ZN4core5slice29_$LT$impl$u20$$u5b$T$u5d$$GT$15copy_from_slice17len_mismatch_fail17h9236ad3844e86423E', symObjAddr: 0xEC10, symBinAddr: 0x10005472C, symSize: 0x18 }
  - { offset: 0xAA5CB, size: 0x8, addend: 0x0, symName: __ZN4core5slice6memchr14memchr_aligned17h6296e9c99467795dE, symObjAddr: 0xE3FC, symBinAddr: 0x10004FD7C, symSize: 0xE8 }
  - { offset: 0xAA6F0, size: 0x8, addend: 0x0, symName: __ZN4core5slice4sort6stable5drift11sqrt_approx17hea6fce954f57e78dE, symObjAddr: 0xE604, symBinAddr: 0x10004FE64, symSize: 0x38 }
  - { offset: 0xAA76D, size: 0x8, addend: 0x0, symName: __ZN4core5slice4sort6shared9smallsort22panic_on_ord_violation17h87158ad44664865dE, symObjAddr: 0xE63C, symBinAddr: 0x1000546D0, symSize: 0x38 }
  - { offset: 0xAA91A, size: 0x8, addend: 0x0, symName: '__ZN42_$LT$str$u20$as$u20$core..fmt..Display$GT$3fmt17hf009c24fe723987dE', symObjAddr: 0xE0B4, symBinAddr: 0x10004FAFC, symSize: 0x20 }
  - { offset: 0xAAB32, size: 0x8, addend: 0x0, symName: __ZN4core3fmt9Formatter12pad_integral17hc0a697f6bef9bc99E, symObjAddr: 0xB878, symBinAddr: 0x10004E98C, symSize: 0x3E8 }
  - { offset: 0xAAE26, size: 0x8, addend: 0x0, symName: __ZN4core3fmt9Formatter3pad17hc45fb048fd353932E, symObjAddr: 0xBCDC, symBinAddr: 0x10004EDF0, symSize: 0x370 }
  - { offset: 0xAB2DD, size: 0x8, addend: 0x0, symName: __ZN4core3fmt9Formatter9write_str17h325369b1c335017bE, symObjAddr: 0xC49C, symBinAddr: 0x10004F160, symSize: 0x1C }
  - { offset: 0xAB2F1, size: 0x8, addend: 0x0, symName: __ZN4core3fmt9Formatter12debug_struct17h01892abf43f6400aE, symObjAddr: 0xC4B8, symBinAddr: 0x10004F17C, symSize: 0x3C }
  - { offset: 0xAB330, size: 0x8, addend: 0x0, symName: __ZN4core3fmt9Formatter26debug_struct_field1_finish17h9a6aad483cd91d8bE, symObjAddr: 0xC4F4, symBinAddr: 0x10004F1B8, symSize: 0xD0 }
  - { offset: 0xAB407, size: 0x8, addend: 0x0, symName: __ZN4core3fmt9Formatter26debug_struct_field2_finish17h50e0aebce8a58786E, symObjAddr: 0xC5C4, symBinAddr: 0x10004F288, symSize: 0x104 }
  - { offset: 0xAB4DE, size: 0x8, addend: 0x0, symName: __ZN4core3fmt9Formatter11debug_tuple17hc10fd19a9736e89bE, symObjAddr: 0xCBD8, symBinAddr: 0x10004F38C, symSize: 0x50 }
  - { offset: 0xAB532, size: 0x8, addend: 0x0, symName: __ZN4core3fmt9Formatter25debug_tuple_field1_finish17ha7de20751beabbe9E, symObjAddr: 0xCC28, symBinAddr: 0x10004F3DC, symSize: 0x168 }
  - { offset: 0xAB734, size: 0x8, addend: 0x0, symName: __ZN4core3fmt9Formatter25debug_tuple_field2_finish17h4e3f51f71b24019cE, symObjAddr: 0xCD90, symBinAddr: 0x10004F544, symSize: 0x1E0 }
  - { offset: 0xAB9EC, size: 0x8, addend: 0x0, symName: __ZN4core3fmt9Formatter10debug_list17h017ce85e0805b545E, symObjAddr: 0xDB70, symBinAddr: 0x10004F724, symSize: 0x48 }
  - { offset: 0xABA94, size: 0x8, addend: 0x0, symName: __ZN4core3fmt8builders11DebugStruct5field17h2f0dca0d2df6974aE, symObjAddr: 0x84A0, symBinAddr: 0x10004E184, symSize: 0x1B8 }
  - { offset: 0xABC93, size: 0x8, addend: 0x0, symName: __ZN4core3fmt8builders11DebugStruct6finish17he06e5b5d674203a3E, symObjAddr: 0x871C, symBinAddr: 0x10004E33C, symSize: 0x80 }
  - { offset: 0xABD94, size: 0x8, addend: 0x0, symName: '__ZN68_$LT$core..fmt..builders..PadAdapter$u20$as$u20$core..fmt..Write$GT$9write_str17hfaa313c4119f7ed4E', symObjAddr: 0x81D0, symBinAddr: 0x10004DEB4, symSize: 0x250 }
  - { offset: 0xAC03F, size: 0x8, addend: 0x0, symName: '__ZN68_$LT$core..fmt..builders..PadAdapter$u20$as$u20$core..fmt..Write$GT$10write_char17hde86c020ea7d2eadE', symObjAddr: 0x8420, symBinAddr: 0x10004E104, symSize: 0x80 }
  - { offset: 0xAC0C4, size: 0x8, addend: 0x0, symName: __ZN4core3fmt8builders10DebugTuple5field17hd1be49f816fc5cc6E, symObjAddr: 0x879C, symBinAddr: 0x10004E3BC, symSize: 0x14C }
  - { offset: 0xAC250, size: 0x8, addend: 0x0, symName: __ZN4core3fmt8builders10DebugTuple6finish17h27cf27fbab1a8a2aE, symObjAddr: 0x89A8, symBinAddr: 0x10004E508, symSize: 0xB0 }
  - { offset: 0xAC39F, size: 0x8, addend: 0x0, symName: __ZN4core3fmt8builders8DebugSet5entry17h30a73ad81f14a0f2E, symObjAddr: 0x8A58, symBinAddr: 0x10004E5B8, symSize: 0x14C }
  - { offset: 0xAC544, size: 0x8, addend: 0x0, symName: __ZN4core3fmt8builders9DebugList6finish17h106b57f1a22a675eE, symObjAddr: 0x8D7C, symBinAddr: 0x10004E704, symSize: 0x4C }
  - { offset: 0xAC600, size: 0x8, addend: 0x0, symName: '__ZN4core3fmt3num3imp52_$LT$impl$u20$core..fmt..Display$u20$for$u20$u32$GT$3fmt17hbf1c5d9b6583f29fE', symObjAddr: 0x19B78, symBinAddr: 0x10005208C, symSize: 0x1C }
  - { offset: 0xAC627, size: 0x8, addend: 0x0, symName: '__ZN4core3fmt3num3imp52_$LT$impl$u20$core..fmt..Display$u20$for$u20$u64$GT$3fmt17h339ac4429cb37bf0E', symObjAddr: 0x19CE0, symBinAddr: 0x1000521F4, symSize: 0x1C }
  - { offset: 0xAC64E, size: 0x8, addend: 0x0, symName: '__ZN4core3fmt3num3imp52_$LT$impl$u20$core..fmt..Display$u20$for$u20$i32$GT$3fmt17hf55f78073eda7290E', symObjAddr: 0x19B94, symBinAddr: 0x1000520A8, symSize: 0x28 }
  - { offset: 0xAC6B3, size: 0x8, addend: 0x0, symName: '__ZN4core3fmt3num3imp51_$LT$impl$u20$core..fmt..Display$u20$for$u20$u8$GT$3fmt17h4f4911bf2ed93697E', symObjAddr: 0x198A4, symBinAddr: 0x100051FDC, symSize: 0xB0 }
  - { offset: 0xAC779, size: 0x8, addend: 0x0, symName: '__ZN4core3fmt3num3imp21_$LT$impl$u20$u32$GT$4_fmt17h2969b048172ebb80E', symObjAddr: 0x19BBC, symBinAddr: 0x1000520D0, symSize: 0x124 }
  - { offset: 0xAC85A, size: 0x8, addend: 0x0, symName: '__ZN4core3fmt3num3imp21_$LT$impl$u20$u64$GT$4_fmt17h99108e3731ddbd8bE', symObjAddr: 0x19D24, symBinAddr: 0x100052210, symSize: 0x130 }
  - { offset: 0xACA75, size: 0x8, addend: 0x0, symName: '__ZN4core3fmt3num53_$LT$impl$u20$core..fmt..LowerHex$u20$for$u20$i32$GT$3fmt17ha0cbda09c03c5041E', symObjAddr: 0x18C80, symBinAddr: 0x100051DDC, symSize: 0x80 }
  - { offset: 0xACB1A, size: 0x8, addend: 0x0, symName: '__ZN4core3fmt3num53_$LT$impl$u20$core..fmt..UpperHex$u20$for$u20$i32$GT$3fmt17heb47dcda93036a36E', symObjAddr: 0x18D00, symBinAddr: 0x100051E5C, symSize: 0x80 }
  - { offset: 0xACBBF, size: 0x8, addend: 0x0, symName: '__ZN4core3fmt3num53_$LT$impl$u20$core..fmt..LowerHex$u20$for$u20$i64$GT$3fmt17hf3c2c8f0bf48439fE', symObjAddr: 0x18E60, symBinAddr: 0x100051EDC, symSize: 0x80 }
  - { offset: 0xACC64, size: 0x8, addend: 0x0, symName: '__ZN4core3fmt3num53_$LT$impl$u20$core..fmt..UpperHex$u20$for$u20$i64$GT$3fmt17h4be4db71703d1dabE', symObjAddr: 0x18EE0, symBinAddr: 0x100051F5C, symSize: 0x80 }
  - { offset: 0xACCFC, size: 0x8, addend: 0x0, symName: '__ZN4core3fmt3num52_$LT$impl$u20$core..fmt..LowerHex$u20$for$u20$i8$GT$3fmt17h7bff1931c71ac012E', symObjAddr: 0x188C0, symBinAddr: 0x100051CDC, symSize: 0x80 }
  - { offset: 0xACDA9, size: 0x8, addend: 0x0, symName: '__ZN4core3fmt3num52_$LT$impl$u20$core..fmt..UpperHex$u20$for$u20$i8$GT$3fmt17h8dba84f19f74308cE', symObjAddr: 0x18940, symBinAddr: 0x100051D5C, symSize: 0x80 }
  - { offset: 0xACE65, size: 0x8, addend: 0x0, symName: '__ZN57_$LT$core..fmt..Formatter$u20$as$u20$core..fmt..Write$GT$10write_char17h712a7a5b14df20b9E', symObjAddr: 0xDCC0, symBinAddr: 0x10004F76C, symSize: 0x1C }
  - { offset: 0xACE98, size: 0x8, addend: 0x0, symName: __ZN4core3fmt5Write9write_fmt17h3451af32630eef07E, symObjAddr: 0xB4E4, symBinAddr: 0x10004E750, symSize: 0x1C }
  - { offset: 0xACF01, size: 0x8, addend: 0x0, symName: '__ZN59_$LT$core..fmt..Arguments$u20$as$u20$core..fmt..Display$GT$3fmt17h5a31f19e8734f16eE', symObjAddr: 0xB658, symBinAddr: 0x10004E76C, symSize: 0x18 }
  - { offset: 0xACF32, size: 0x8, addend: 0x0, symName: __ZN4core3fmt5write17he22fcab56bd3ec61E, symObjAddr: 0xB670, symBinAddr: 0x10004E784, symSize: 0x208 }
  - { offset: 0xAD143, size: 0x8, addend: 0x0, symName: __ZN4core3fmt9Formatter12pad_integral12write_prefix17h37c97ab3a7046bd2E, symObjAddr: 0xBC60, symBinAddr: 0x10004ED74, symSize: 0x7C }
  - { offset: 0xAD189, size: 0x8, addend: 0x0, symName: '__ZN42_$LT$$RF$T$u20$as$u20$core..fmt..Debug$GT$3fmt17h3133fac5ab5169ddE', symObjAddr: 0x1AE44, symBinAddr: 0x100052340, symSize: 0xEC }
  - { offset: 0xAD2B7, size: 0x8, addend: 0x0, symName: '__ZN42_$LT$$RF$T$u20$as$u20$core..fmt..Debug$GT$3fmt17h54e81ade5e5de57dE', symObjAddr: 0x1AF30, symBinAddr: 0x10005242C, symSize: 0x1C }
  - { offset: 0xAD2CB, size: 0x8, addend: 0x0, symName: '__ZN42_$LT$$RF$T$u20$as$u20$core..fmt..Debug$GT$3fmt17h91eecf8d28a7cefeE', symObjAddr: 0x1AF4C, symBinAddr: 0x100052448, symSize: 0xE4 }
  - { offset: 0xAD421, size: 0x8, addend: 0x0, symName: '__ZN40_$LT$str$u20$as$u20$core..fmt..Debug$GT$3fmt17hd8879d369458d53aE', symObjAddr: 0xDD40, symBinAddr: 0x10004F788, symSize: 0x374 }
  - { offset: 0xAD877, size: 0x8, addend: 0x0, symName: '__ZN41_$LT$char$u20$as$u20$core..fmt..Debug$GT$3fmt17ha35a21095fe6b2aeE', symObjAddr: 0xE0D4, symBinAddr: 0x10004FB1C, symSize: 0xAC }
  - { offset: 0xAD97C, size: 0x8, addend: 0x0, symName: '__ZN43_$LT$char$u20$as$u20$core..fmt..Display$GT$3fmt17h3667dcfbeb89f1b7E', symObjAddr: 0xE180, symBinAddr: 0x10004FBC8, symSize: 0xF0 }
  - { offset: 0xADA02, size: 0x8, addend: 0x0, symName: __ZN4core3fmt17pointer_fmt_inner17ha05a056f67b250baE, symObjAddr: 0xE270, symBinAddr: 0x10004FCB8, symSize: 0xC4 }
  - { offset: 0xADABD, size: 0x8, addend: 0x0, symName: '__ZN44_$LT$$RF$T$u20$as$u20$core..fmt..Display$GT$3fmt17h09a056bd82e73243E', symObjAddr: 0x1B044, symBinAddr: 0x10005252C, symSize: 0x1C }
  - { offset: 0xADC65, size: 0x8, addend: 0x0, symName: __ZN4core6option13unwrap_failed17h84f662fc2717d129E, symObjAddr: 0x7B40, symBinAddr: 0x100054338, symSize: 0x1C }
  - { offset: 0xADC80, size: 0x8, addend: 0x0, symName: __ZN4core6option13expect_failed17h064f2cf84916882aE, symObjAddr: 0x7B5C, symBinAddr: 0x100054354, symSize: 0x48 }
  - { offset: 0xADCD8, size: 0x8, addend: 0x0, symName: '__ZN71_$LT$core..ops..range..Range$LT$Idx$GT$$u20$as$u20$core..fmt..Debug$GT$3fmt17h8610e207370f6ef7E', symObjAddr: 0x442C, symBinAddr: 0x10004D934, symSize: 0x1FC }
  - { offset: 0xAE1C5, size: 0x8, addend: 0x0, symName: __ZN4core6result13unwrap_failed17h2bf1684417afbe6bE, symObjAddr: 0x80FC, symBinAddr: 0x100054674, symSize: 0x5C }
  - { offset: 0xAE48C, size: 0x8, addend: 0x0, symName: __ZN4core3str7pattern11StrSearcher3new17habaad989c72fb7a8E, symObjAddr: 0x10248, symBinAddr: 0x100050AB4, symSize: 0x904 }
  - { offset: 0xAE733, size: 0x8, addend: 0x0, symName: __ZN4core3str5count14do_count_chars17hc555c670c9b10e3bE, symObjAddr: 0xF128, symBinAddr: 0x1000500E0, symSize: 0x724 }
  - { offset: 0xAEA7D, size: 0x8, addend: 0x0, symName: __ZN4core3str5count23char_count_general_case17h0a6ef21a4825751aE, symObjAddr: 0xF84C, symBinAddr: 0x100050804, symSize: 0x2B0 }
  - { offset: 0xAEBE2, size: 0x8, addend: 0x0, symName: __ZN4core3str6traits23str_index_overflow_fail17h6ba0069023d715bdE, symObjAddr: 0x10214, symBinAddr: 0x100054744, symSize: 0x34 }
  - { offset: 0xAEC17, size: 0x8, addend: 0x0, symName: __ZN4core3str8converts9from_utf817h5b7081f8e3c98111E, symObjAddr: 0xECA0, symBinAddr: 0x10004FE9C, symSize: 0x244 }
  - { offset: 0xAEC99, size: 0x8, addend: 0x0, symName: '__ZN87_$LT$core..str..lossy..Utf8Chunks$u20$as$u20$core..iter..traits..iterator..Iterator$GT$4next17hc0bb2f8797014ed2E', symObjAddr: 0x10F30, symBinAddr: 0x1000513B8, symSize: 0x1DC }
  - { offset: 0xAEE9C, size: 0x8, addend: 0x0, symName: __ZN4core3str16slice_error_fail17h8b847e853482f553E, symObjAddr: 0x111D8, symBinAddr: 0x100054778, symSize: 0xC }
  - { offset: 0xAEEB6, size: 0x8, addend: 0x0, symName: __ZN4core3str19slice_error_fail_rt17hd494714b9640772bE, symObjAddr: 0x11218, symBinAddr: 0x100051594, symSize: 0x390 }
  - { offset: 0xAF15A, size: 0x8, addend: 0x0, symName: '__ZN4core4char7methods22_$LT$impl$u20$char$GT$16escape_debug_ext17hbfb443f01c84243eE', symObjAddr: 0x50B8, symBinAddr: 0x10004DB54, symSize: 0x260 }
  - { offset: 0xAF352, size: 0x8, addend: 0x0, symName: __ZN4core4char7methods15encode_utf8_raw8do_panic7runtime17h78f2c250983698c5E, symObjAddr: 0x171EC, symBinAddr: 0x100051C14, symSize: 0xC8 }
  - { offset: 0xAF3E9, size: 0x8, addend: 0x0, symName: '__ZN63_$LT$core..cell..BorrowMutError$u20$as$u20$core..fmt..Debug$GT$3fmt17h4f632190c10a8f91E', symObjAddr: 0x4F3C, symBinAddr: 0x10004DB30, symSize: 0x24 }
  - { offset: 0xAF446, size: 0x8, addend: 0x0, symName: __ZN4core4cell22panic_already_borrowed17ha893d1f06b8b63deE, symObjAddr: 0x4F80, symBinAddr: 0x1000542F4, symSize: 0x44 }
  - { offset: 0xAF496, size: 0x8, addend: 0x0, symName: __ZN4core7unicode12unicode_data15grapheme_extend11lookup_slow17hbcdf8b5a821a33ffE, symObjAddr: 0x1C978, symBinAddr: 0x1000526B0, symSize: 0x174 }
  - { offset: 0xAF67E, size: 0x8, addend: 0x0, symName: __ZN4core7unicode12unicode_data2cc6lookup17he25d7ab2d2fa0f97E, symObjAddr: 0x1C954, symBinAddr: 0x10005268C, symSize: 0x24 }
  - { offset: 0xAF6EA, size: 0x8, addend: 0x0, symName: __ZN4core7unicode9printable12is_printable17haae76351f6525626E, symObjAddr: 0x12144, symBinAddr: 0x100051924, symSize: 0x2C0 }
  - { offset: 0xAFB28, size: 0x8, addend: 0x0, symName: __ZN4core3ffi5c_str4CStr19from_bytes_with_nul17h10506affebd054b1E, symObjAddr: 0x5700, symBinAddr: 0x10004DDB4, symSize: 0x100 }
  - { offset: 0xAFC15, size: 0x8, addend: 0x0, symName: __ZN4core9panicking9panic_fmt17h6a4014bec58fba4fE, symObjAddr: 0x7C94, symBinAddr: 0x10005439C, symSize: 0x20 }
  - { offset: 0xAFC58, size: 0x8, addend: 0x0, symName: __ZN4core9panicking18panic_nounwind_fmt17hc1d4bd06ab2bbbabE, symObjAddr: 0x7CB4, symBinAddr: 0x1000543BC, symSize: 0x3C }
  - { offset: 0xAFC9D, size: 0x8, addend: 0x0, symName: __ZN4core9panicking5panic17h3ce9043ca357f318E, symObjAddr: 0x7CF0, symBinAddr: 0x1000543F8, symSize: 0x34 }
  - { offset: 0xAFCCC, size: 0x8, addend: 0x0, symName: __ZN4core9panicking14panic_nounwind17h96b8083b1a8e2dbdE, symObjAddr: 0x7D24, symBinAddr: 0x10005442C, symSize: 0x3C }
  - { offset: 0xAFCFB, size: 0x8, addend: 0x0, symName: __ZN4core9panicking26panic_nounwind_nobacktrace17h984deb6b7d0bc614E, symObjAddr: 0x7D60, symBinAddr: 0x100054468, symSize: 0x3C }
  - { offset: 0xAFD2A, size: 0x8, addend: 0x0, symName: __ZN4core9panicking18panic_bounds_check17h1ecfa3d00f46f81cE, symObjAddr: 0x7DE4, symBinAddr: 0x1000544A4, symSize: 0x50 }
  - { offset: 0xAFD5C, size: 0x8, addend: 0x0, symName: __ZN4core9panicking19panic_cannot_unwind17ha5edf28dd2569dc8E, symObjAddr: 0x7EF8, symBinAddr: 0x1000544F4, symSize: 0x18 }
  - { offset: 0xAFD77, size: 0x8, addend: 0x0, symName: __ZN4core9panicking16panic_in_cleanup17hb960b8c5dea287d4E, symObjAddr: 0x7F10, symBinAddr: 0x10005450C, symSize: 0x18 }
  - { offset: 0xAFD92, size: 0x8, addend: 0x0, symName: __ZN4core9panicking13assert_failed17h2af7932842d934b6E, symObjAddr: 0x7F8C, symBinAddr: 0x100054524, symSize: 0x24 }
  - { offset: 0xAFDAD, size: 0x8, addend: 0x0, symName: __ZN4core9panicking13assert_failed17hc7c9e0269eebc316E, symObjAddr: 0x7FB0, symBinAddr: 0x100054548, symSize: 0x24 }
  - { offset: 0xAFDC8, size: 0x8, addend: 0x0, symName: __ZN4core9panicking19assert_failed_inner17hafd35c69af0230bfE, symObjAddr: 0x7FF4, symBinAddr: 0x10005456C, symSize: 0x108 }
  - { offset: 0xAFE15, size: 0x8, addend: 0x0, symName: __ZN4core9panicking11panic_const24panic_const_add_overflow17h0235fd41b8202631E, symObjAddr: 0x17818, symBinAddr: 0x100054784, symSize: 0x34 }
  - { offset: 0xAFE44, size: 0x8, addend: 0x0, symName: __ZN4core9panicking11panic_const24panic_const_sub_overflow17he3ea69daf215d9b4E, symObjAddr: 0x1784C, symBinAddr: 0x1000547B8, symSize: 0x34 }
  - { offset: 0xAFE73, size: 0x8, addend: 0x0, symName: __ZN4core9panicking11panic_const24panic_const_mul_overflow17h7b04b84f6b95f62fE, symObjAddr: 0x17880, symBinAddr: 0x1000547EC, symSize: 0x34 }
  - { offset: 0xAFEA2, size: 0x8, addend: 0x0, symName: __ZN4core9panicking11panic_const24panic_const_shl_overflow17hd449c63c8723920cE, symObjAddr: 0x17984, symBinAddr: 0x100054820, symSize: 0x34 }
  - { offset: 0xAFED1, size: 0x8, addend: 0x0, symName: __ZN4core9panicking11panic_const23panic_const_div_by_zero17h0422238fbdaad2d7E, symObjAddr: 0x179B8, symBinAddr: 0x100054854, symSize: 0x34 }
  - { offset: 0xAFF00, size: 0x8, addend: 0x0, symName: __ZN4core9panicking11panic_const23panic_const_rem_by_zero17h723f338bbd7af040E, symObjAddr: 0x179EC, symBinAddr: 0x100054888, symSize: 0x34 }
  - { offset: 0xAFF79, size: 0x8, addend: 0x0, symName: __ZN4core5alloc6layout6Layout19is_size_align_valid17h054933e8a3b2a17cE, symObjAddr: 0x126A0, symBinAddr: 0x100051BE4, symSize: 0x30 }
  - { offset: 0xAFFD1, size: 0x8, addend: 0x0, symName: _OUTLINED_FUNCTION_0, symObjAddr: 0x1D194, symBinAddr: 0x100052824, symSize: 0x10 }
...
