---
triple:          'arm64-apple-darwin'
binary-path:     '/Users/cedric/orange/ran-llm-claude-flow/src/rust-pipeline/target/debug/deps/libfax_derive-d19daae25eab3c59.dylib'
relocations:
  - { offset: 0x1E, size: 0x8, addend: 0x0, symName: __RINvMNtCsfvfooZQ3Axs_4core6optionINtB3_6OptionINtNtCs5AlOhPCr03V_3syn10punctuated4PairNtCs3QdX7iRpTt9_10fax_derive11BitMapEntryNtNtBN_5token5CommaEE7or_elseNCNvXsj_BL_INtBL_9IntoPairsB1m_B21_ENtNtNtNtB5_4iter6traits8iterator8Iterator4nexts_0EB1o_, symObjAddr: 0x0, symBinAddr: 0xC50, symSize: 0xE4 }
  - { offset: 0x40, size: 0x8, addend: 0x0, symName: ___rustc_proc_macro_decls_2cc10d19137f8175__, symObjAddr: 0x9468, symBinAddr: 0x1CC5E8, symSize: 0x0 }
  - { offset: 0x391, size: 0x8, addend: 0x0, symName: __RNCNCNvMs9_Cs3QdX7iRpTt9_10fax_deriveINtB9_9PrefixLutjE4cost00B9_, symObjAddr: 0x7820, symBinAddr: 0x8470, symSize: 0x34 }
  - { offset: 0x3D4, size: 0x8, addend: 0x0, symName: __RNCNvMs9_Cs3QdX7iRpTt9_10fax_deriveINtB7_9PrefixLutjE4cost0B7_, symObjAddr: 0x77DC, symBinAddr: 0x842C, symSize: 0x44 }
  - { offset: 0x423, size: 0x8, addend: 0x0, symName: __RNCNvMs9_Cs3QdX7iRpTt9_10fax_deriveINtB7_9PrefixLutjE5build0B7_, symObjAddr: 0x7B78, symBinAddr: 0x87C8, symSize: 0x34 }
  - { offset: 0x48C, size: 0x8, addend: 0x0, symName: __RNCNvMs9_Cs3QdX7iRpTt9_10fax_deriveINtB7_9PrefixLutjE11build_width0B7_, symObjAddr: 0x7FE0, symBinAddr: 0x8C30, symSize: 0x54 }
  - { offset: 0x4D7, size: 0x8, addend: 0x0, symName: __RNvCs3QdX7iRpTt9_10fax_derive7bitmaps, symObjAddr: 0x3128, symBinAddr: 0x3D78, symSize: 0x2C8 }
  - { offset: 0x61E, size: 0x8, addend: 0x0, symName: __RNCNvCs3QdX7iRpTt9_10fax_derive7bitmaps0B3_, symObjAddr: 0x33F0, symBinAddr: 0x4040, symSize: 0xEDC }
  - { offset: 0x959, size: 0x8, addend: 0x0, symName: __RNCNCNvCs3QdX7iRpTt9_10fax_derive7bitmaps00B5_, symObjAddr: 0x42CC, symBinAddr: 0x4F1C, symSize: 0x120 }
  - { offset: 0x9E3, size: 0x8, addend: 0x0, symName: __RNCNCNvCs3QdX7iRpTt9_10fax_derive7bitmaps0s_0B5_, symObjAddr: 0x43EC, symBinAddr: 0x503C, symSize: 0xC8 }
  - { offset: 0xA74, size: 0x8, addend: 0x0, symName: __RNvXCs3QdX7iRpTt9_10fax_deriveNtB2_7BitMapsNtNtCs5AlOhPCr03V_3syn5parse5Parse5parse, symObjAddr: 0x44B4, symBinAddr: 0x5104, symSize: 0x188 }
  - { offset: 0xAF6, size: 0x8, addend: 0x0, symName: __RNCNvXCs3QdX7iRpTt9_10fax_deriveNtB4_7BitMapsNtNtCs5AlOhPCr03V_3syn5parse5Parse5parse0B4_, symObjAddr: 0x463C, symBinAddr: 0x528C, symSize: 0x38 }
  - { offset: 0xB3B, size: 0x8, addend: 0x0, symName: __RNvXs_Cs3QdX7iRpTt9_10fax_deriveNtB4_6BitMapNtNtCs5AlOhPCr03V_3syn5parse5Parse5parse, symObjAddr: 0x4674, symBinAddr: 0x52C4, symSize: 0x690 }
  - { offset: 0xCB3, size: 0x8, addend: 0x0, symName: __RNCNvXs_Cs3QdX7iRpTt9_10fax_deriveNtB6_6BitMapNtNtCs5AlOhPCr03V_3syn5parse5Parse5parse0B6_, symObjAddr: 0x4D04, symBinAddr: 0x5954, symSize: 0x38 }
  - { offset: 0xCFD, size: 0x8, addend: 0x0, symName: __RNCNvMs0_Cs3QdX7iRpTt9_10fax_deriveNtB7_6BitMap5build0B7_, symObjAddr: 0x4FF8, symBinAddr: 0x5C48, symSize: 0x50 }
  - { offset: 0xD68, size: 0x8, addend: 0x0, symName: __RNCNvMs0_Cs3QdX7iRpTt9_10fax_deriveNtB7_6BitMap4walk0B7_, symObjAddr: 0x5FB4, symBinAddr: 0x6C04, symSize: 0x250 }
  - { offset: 0xE37, size: 0x8, addend: 0x0, symName: __RNCNvMs0_Cs3QdX7iRpTt9_10fax_deriveNtB7_6BitMap4walks_0B7_, symObjAddr: 0x6204, symBinAddr: 0x6E54, symSize: 0x19C }
  - { offset: 0xF33, size: 0x8, addend: 0x0, symName: __RNvXs1_Cs3QdX7iRpTt9_10fax_deriveNtB5_11BitMapEntryNtNtCs5AlOhPCr03V_3syn5parse5Parse5parse, symObjAddr: 0x63A0, symBinAddr: 0x6FF0, symSize: 0x218 }
  - { offset: 0xFF2, size: 0x8, addend: 0x0, symName: __RNvXs3_Cs3QdX7iRpTt9_10fax_deriveNtB5_4BitsNtNtCsfvfooZQ3Axs_4core3fmt7Display3fmt, symObjAddr: 0x6A1C, symBinAddr: 0x766C, symSize: 0x11C }
  - { offset: 0x1032, size: 0x8, addend: 0x0, symName: __RNvXs5_Cs3QdX7iRpTt9_10fax_deriveNtB5_4BitsNtNtCs2cqEZUIJimJ_5quote9to_tokens8ToTokens9to_tokens, symObjAddr: 0x6B38, symBinAddr: 0x7788, symSize: 0x19C }
  - { offset: 0x10BD, size: 0x8, addend: 0x0, symName: __RNvXs6_Cs3QdX7iRpTt9_10fax_deriveNtB5_4BitsNtNtCs5AlOhPCr03V_3syn5parse5Parse5parse, symObjAddr: 0x6CD4, symBinAddr: 0x7924, symSize: 0x328 }
  - { offset: 0x11CE, size: 0x8, addend: 0x0, symName: __RNCNvMs8_Cs3QdX7iRpTt9_10fax_deriveINtB7_4NodejE12build_prefix0B7_, symObjAddr: 0x7718, symBinAddr: 0x8368, symSize: 0x34 }
  - { offset: 0x14B5, size: 0x8, addend: 0x0, symName: __RNCINvNtNtCs9i5KxIbZ5ph_10proc_macro6bridge6client10run_clientNtB4_11TokenStreamINtNtCsfvfooZQ3Axs_4core6option6OptionBY_ENCNCINvMs7_B4_INtB4_6ClientNtB8_11TokenStreamB2n_E7expand1NvCs3QdX7iRpTt9_10fax_derive7bitmapsE00E0B2U_, symObjAddr: 0xEB0, symBinAddr: 0x1B00, symSize: 0x324 }
  - { offset: 0x171D, size: 0x8, addend: 0x0, symName: __RNCNCINvNtNtCs9i5KxIbZ5ph_10proc_macro6bridge6client10run_clientNtB6_11TokenStreamINtNtCsfvfooZQ3Axs_4core6option6OptionB10_ENCNCINvMs7_B6_INtB6_6ClientNtBa_11TokenStreamB2q_E7expand1NvCs3QdX7iRpTt9_10fax_derive7bitmapsE00E00B2X_, symObjAddr: 0x137C, symBinAddr: 0x1FCC, symSize: 0x28 }
  - { offset: 0x179B, size: 0x8, addend: 0x0, symName: __RNCNCINvMs7_NtNtCs9i5KxIbZ5ph_10proc_macro6bridge6clientINtBa_6ClientNtBe_11TokenStreamB15_E7expand1NvCs3QdX7iRpTt9_10fax_derive7bitmapsE00B1C_, symObjAddr: 0x134C, symBinAddr: 0x1F9C, symSize: 0x30 }
  - { offset: 0x17E4, size: 0x8, addend: 0x0, symName: __RNCINvMs7_NtNtCs9i5KxIbZ5ph_10proc_macro6bridge6clientINtB8_6ClientNtBc_11TokenStreamB13_E7expand1NvCs3QdX7iRpTt9_10fax_derive7bitmapsE0B1A_, symObjAddr: 0xE80, symBinAddr: 0x1AD0, symSize: 0x30 }
  - { offset: 0x182F, size: 0x8, addend: 0x0, symName: __RINvNtNtCs9i5KxIbZ5ph_10proc_macro6bridge6client10run_clientNtB2_11TokenStreamINtNtCsfvfooZQ3Axs_4core6option6OptionBW_ENCNCINvMs7_B2_INtB2_6ClientNtB6_11TokenStreamB2l_E7expand1NvCs3QdX7iRpTt9_10fax_derive7bitmapsE00EB2S_, symObjAddr: 0x67C, symBinAddr: 0x12CC, symSize: 0x21C }
  - { offset: 0x1A21, size: 0x8, addend: 0x0, symName: __RNvXsg_NtNtCs9i5KxIbZ5ph_10proc_macro6bridge6clientNtB5_11TokenStreamINtNtB7_3rpc6EncodeuE6encodeCs3QdX7iRpTt9_10fax_derive, symObjAddr: 0x2CB0, symBinAddr: 0x3900, symSize: 0x50 }
  - { offset: 0x1B32, size: 0x8, addend: 0x0, symName: __RNvXsj_NtNtCs9i5KxIbZ5ph_10proc_macro6bridge6clientNtB5_11TokenStreamINtNtB7_3rpc9DecodeMutuE6decodeCs3QdX7iRpTt9_10fax_derive, symObjAddr: 0x2D00, symBinAddr: 0x3950, symSize: 0x2C }
  - { offset: 0x1B7B, size: 0x8, addend: 0x0, symName: __RNvXsq_NtNtCs9i5KxIbZ5ph_10proc_macro6bridge6clientNtB5_4SpanINtNtB7_3rpc9DecodeMutuE6decodeCs3QdX7iRpTt9_10fax_derive, symObjAddr: 0x2D2C, symBinAddr: 0x397C, symSize: 0x2C }
  - { offset: 0x200D, size: 0x8, addend: 0x0, symName: __RNvXs7_NtNtCs9i5KxIbZ5ph_10proc_macro6bridge3rpcINtNtNtCsfvfooZQ3Axs_4core3num7nonzero7NonZeromEINtB5_9DecodeMutuE6decodeCs3QdX7iRpTt9_10fax_derive, symObjAddr: 0x2A60, symBinAddr: 0x36B0, symSize: 0x5C }
  - { offset: 0x2196, size: 0x8, addend: 0x0, symName: __RNvXsR_NtCs9i5KxIbZ5ph_10proc_macro6bridgeINtNtCsfvfooZQ3Axs_4core6option6OptionNtNtB5_6client11TokenStreamEINtNtB5_3rpc6EncodeuE6encodeCs3QdX7iRpTt9_10fax_derive, symObjAddr: 0x2ABC, symBinAddr: 0x370C, symSize: 0xCC }
  - { offset: 0x223C, size: 0x8, addend: 0x0, symName: __RNvXsR_NtCs9i5KxIbZ5ph_10proc_macro6bridgeINtNtCsfvfooZQ3Axs_4core6option6OptionReEINtNtB5_3rpc6EncodeuE6encodeCs3QdX7iRpTt9_10fax_derive, symObjAddr: 0x2B88, symBinAddr: 0x37D8, symSize: 0xD8 }
  - { offset: 0x49A7, size: 0x8, addend: 0x0, symName: __RNvXs3_NtCsfvfooZQ3Axs_4core6optionINtB5_6OptionTjhEENtNtB7_5clone5Clone5cloneCs3QdX7iRpTt9_10fax_derive, symObjAddr: 0x2680, symBinAddr: 0x32D0, symSize: 0x6C }
  - { offset: 0x4A02, size: 0x8, addend: 0x0, symName: __RNvXs5_NtCsfvfooZQ3Axs_4core6optionINtB5_6OptionNtCs3QdX7iRpTt9_10fax_derive11BitMapEntryENtNtNtNtB7_4iter6traits7collect12IntoIterator9into_iterBM_, symObjAddr: 0x26EC, symBinAddr: 0x333C, symSize: 0x50 }
  - { offset: 0x4A3A, size: 0x8, addend: 0x0, symName: __RNvXs5_NtCsfvfooZQ3Axs_4core6optionINtB5_6OptionNtCs3QdX7iRpTt9_10fax_derive6BitMapENtNtNtNtB7_4iter6traits7collect12IntoIterator9into_iterBM_, symObjAddr: 0x273C, symBinAddr: 0x338C, symSize: 0x50 }
  - { offset: 0x4B6F, size: 0x8, addend: 0x0, symName: __RNvXsv_NtCsfvfooZQ3Axs_4core6optionINtB5_8IntoIterNtCs3QdX7iRpTt9_10fax_derive11BitMapEntryENtNtNtNtB7_4iter6traits8iterator8Iterator4nextBO_, symObjAddr: 0x2D58, symBinAddr: 0x39A8, symSize: 0x6C }
  - { offset: 0x4C12, size: 0x8, addend: 0x0, symName: __RNvXsv_NtCsfvfooZQ3Axs_4core6optionINtB5_8IntoIterNtCs3QdX7iRpTt9_10fax_derive11BitMapEntryENtNtNtNtB7_4iter6traits8iterator8Iterator9size_hintBO_, symObjAddr: 0x2DC4, symBinAddr: 0x3A14, symSize: 0x4C }
  - { offset: 0x4C8A, size: 0x8, addend: 0x0, symName: __RNvXsv_NtCsfvfooZQ3Axs_4core6optionINtB5_8IntoIterNtCs3QdX7iRpTt9_10fax_derive6BitMapENtNtNtNtB7_4iter6traits8iterator8Iterator4nextBO_, symObjAddr: 0x2E10, symBinAddr: 0x3A60, symSize: 0x68 }
  - { offset: 0x4D2D, size: 0x8, addend: 0x0, symName: __RNvXsv_NtCsfvfooZQ3Axs_4core6optionINtB5_8IntoIterNtCs3QdX7iRpTt9_10fax_derive6BitMapENtNtNtNtB7_4iter6traits8iterator8Iterator9size_hintBO_, symObjAddr: 0x2E78, symBinAddr: 0x3AC8, symSize: 0x48 }
  - { offset: 0x573E, size: 0x8, addend: 0x0, symName: __RINvNtCsfvfooZQ3Axs_4core3cmp6max_byhQNvYhNtB2_3Ord3cmpECs3QdX7iRpTt9_10fax_derive, symObjAddr: 0x5BC, symBinAddr: 0x120C, symSize: 0xC0 }
  - { offset: 0x584F, size: 0x8, addend: 0x0, symName: __RNvYhNtNtCsfvfooZQ3Axs_4core3cmp3Ord3minCs3QdX7iRpTt9_10fax_derive, symObjAddr: 0x30A8, symBinAddr: 0x3CF8, symSize: 0x80 }
  - { offset: 0x7022, size: 0x8, addend: 0x0, symName: __RINvXs0_NtNtNtCsfvfooZQ3Axs_4core4iter8adapters10filter_mapINtB6_9FilterMapINtNtNtBc_5slice4iter4IterINtNtBc_6option6OptionINtCs3QdX7iRpTt9_10fax_derive4NodejEEENCNvMs9_B20_INtB20_9PrefixLutjE4cost0ENtNtNtBa_6traits8iterator8Iterator4folddNCINvXs1E_NtB3f_5accumdNtB3Z_3Sum3sumBV_E0EB20_, symObjAddr: 0xC84, symBinAddr: 0x18D4, symSize: 0x30 }
  - { offset: 0x709D, size: 0x8, addend: 0x0, symName: __RNCINvNtNtNtCsfvfooZQ3Axs_4core4iter8adapters10filter_map15filter_map_foldRINtNtBa_6option6OptionINtCs3QdX7iRpTt9_10fax_derive4NodejEEddNCNvMs9_B1A_INtB1A_9PrefixLutjE4cost0NCINvXs1E_NtNtB8_6traits5accumdNtB2V_3Sum3sumINtB4_9FilterMapINtNtNtBa_5slice4iter4IterB1b_EB2a_EE0E0B1A_, symObjAddr: 0x11D4, symBinAddr: 0x1E24, symSize: 0xCC }
  - { offset: 0x7250, size: 0x8, addend: 0x0, symName: __RINvYINtNtNtNtCsfvfooZQ3Axs_4core4iter8adapters10filter_map9FilterMapINtNtNtBc_5slice4iter4IterINtNtBc_6option6OptionINtCs3QdX7iRpTt9_10fax_derive4NodejEEENCNvMs9_B1U_INtB1U_9PrefixLutjE4cost0ENtNtNtBa_6traits8iterator8Iterator3sumdEB1U_, symObjAddr: 0xE54, symBinAddr: 0x1AA4, symSize: 0x2C }
  - { offset: 0x729C, size: 0x8, addend: 0x0, symName: __RNvYINtNtCsfvfooZQ3Axs_4core6option8IntoIterNtCs3QdX7iRpTt9_10fax_derive11BitMapEntryENtNtNtNtB7_4iter6traits10exact_size17ExactSizeIterator3lenBI_, symObjAddr: 0x2EC0, symBinAddr: 0x3B10, symSize: 0xF4 }
  - { offset: 0x738F, size: 0x8, addend: 0x0, symName: __RNvYINtNtCsfvfooZQ3Axs_4core6option8IntoIterNtCs3QdX7iRpTt9_10fax_derive6BitMapENtNtNtNtB7_4iter6traits10exact_size17ExactSizeIterator3lenBI_, symObjAddr: 0x2FB4, symBinAddr: 0x3C04, symSize: 0xF4 }
  - { offset: 0x74EB, size: 0x8, addend: 0x0, symName: __RNvMNtCsfvfooZQ3Axs_4core5sliceSINtNtB4_6option6OptionINtCs3QdX7iRpTt9_10fax_derive4NodejEE4iterBT_, symObjAddr: 0x13F8, symBinAddr: 0x2048, symSize: 0x28 }
  - { offset: 0x7522, size: 0x8, addend: 0x0, symName: __RNvMNtCsfvfooZQ3Axs_4core5sliceSINtNtB4_6option6OptionTjhEE4iterCs3QdX7iRpTt9_10fax_derive, symObjAddr: 0x1420, symBinAddr: 0x2070, symSize: 0x28 }
  - { offset: 0x7559, size: 0x8, addend: 0x0, symName: __RNvMNtCsfvfooZQ3Axs_4core5sliceSNtCs3QdX7iRpTt9_10fax_derive11BitMapEntry4iterBw_, symObjAddr: 0x1448, symBinAddr: 0x2098, symSize: 0x28 }
  - { offset: 0x7590, size: 0x8, addend: 0x0, symName: __RNvMNtCsfvfooZQ3Axs_4core5sliceSNtCs3QdX7iRpTt9_10fax_derive6BitMap4iterBw_, symObjAddr: 0x1470, symBinAddr: 0x20C0, symSize: 0x28 }
  - { offset: 0x75C7, size: 0x8, addend: 0x0, symName: __RNvMNtCsfvfooZQ3Axs_4core5sliceSTjNtCs3QdX7iRpTt9_10fax_derive4BitsE4iterBy_, symObjAddr: 0x1498, symBinAddr: 0x20E8, symSize: 0x28 }
  - { offset: 0x76F8, size: 0x8, addend: 0x0, symName: __RNvXs_NtNtCsfvfooZQ3Axs_4core5slice4iterRSTjNtCs3QdX7iRpTt9_10fax_derive4BitsENtNtNtNtB8_4iter6traits7collect12IntoIterator9into_iterBI_, symObjAddr: 0x2C60, symBinAddr: 0x38B0, symSize: 0x50 }
  - { offset: 0x7961, size: 0x8, addend: 0x0, symName: __RNvXs0_NtNtCsfvfooZQ3Axs_4core5slice5indexjINtB5_10SliceIndexSINtNtB9_6option6OptionTjhEEE9index_mutCs3QdX7iRpTt9_10fax_derive, symObjAddr: 0x216C, symBinAddr: 0x2DBC, symSize: 0x64 }
  - { offset: 0x79A7, size: 0x8, addend: 0x0, symName: __RNvXs0_NtNtCsfvfooZQ3Axs_4core5slice5indexjINtB5_10SliceIndexSINtNtCse1nGBsou5OW_5alloc3vec3VecTjNtCs3QdX7iRpTt9_10fax_derive4BitsEEE9index_mutB1z_, symObjAddr: 0x21D0, symBinAddr: 0x2E20, symSize: 0x64 }
  - { offset: 0x79ED, size: 0x8, addend: 0x0, symName: __RNvXs0_NtNtCsfvfooZQ3Axs_4core5slice5indexjINtB5_10SliceIndexSNtCs3QdX7iRpTt9_10fax_derive11BitMapEntryE5indexB10_, symObjAddr: 0x2234, symBinAddr: 0x2E84, symSize: 0x5C }
  - { offset: 0x7A81, size: 0x8, addend: 0x0, symName: __RNvMNtCsfvfooZQ3Axs_4core3stre5charsCs3QdX7iRpTt9_10fax_derive, symObjAddr: 0x13D8, symBinAddr: 0x2028, symSize: 0x20 }
  - { offset: 0x7C0B, size: 0x8, addend: 0x0, symName: __RNvNvNtNtCsfvfooZQ3Axs_4core4char7convert18from_u32_unchecked18precondition_checkCs3QdX7iRpTt9_10fax_derive, symObjAddr: 0x20A0, symBinAddr: 0x2CF0, symSize: 0x98 }
  - { offset: 0x7CA1, size: 0x8, addend: 0x0, symName: __RNvXs2_NtNtNtCsfvfooZQ3Axs_4core3ops8function5implsQNCNCNvCs3QdX7iRpTt9_10fax_derive7bitmaps00INtB7_6FnOnceTRNtBU_11BitMapEntryEE9call_onceBU_, symObjAddr: 0x249C, symBinAddr: 0x30EC, symSize: 0x2C }
  - { offset: 0x7CF0, size: 0x8, addend: 0x0, symName: __RNvXs2_NtNtNtCsfvfooZQ3Axs_4core3ops8function5implsQNCNCNvCs3QdX7iRpTt9_10fax_derive7bitmaps0s_0INtB7_6FnOnceTRNtBU_11BitMapEntryEE9call_onceBU_, symObjAddr: 0x24C8, symBinAddr: 0x3118, symSize: 0x2C }
  - { offset: 0x7D3F, size: 0x8, addend: 0x0, symName: __RNvXs2_NtNtNtCsfvfooZQ3Axs_4core3ops8function5implsQNCNvCs3QdX7iRpTt9_10fax_derive7bitmaps0INtB7_6FnOnceTRNtBS_6BitMapEE9call_onceBS_, symObjAddr: 0x24F4, symBinAddr: 0x3144, symSize: 0x2C }
  - { offset: 0x7D8E, size: 0x8, addend: 0x0, symName: __RNvXs2_NtNtNtCsfvfooZQ3Axs_4core3ops8function5implsQNCNvMs0_Cs3QdX7iRpTt9_10fax_deriveNtBW_6BitMap4walk0INtB7_6FnOnceTRINtNtBb_6option6OptionTjhEEEE9call_onceBW_, symObjAddr: 0x2520, symBinAddr: 0x3170, symSize: 0x2C }
  - { offset: 0x7DDD, size: 0x8, addend: 0x0, symName: __RNvXs2_NtNtNtCsfvfooZQ3Axs_4core3ops8function5implsQNCNvMs8_Cs3QdX7iRpTt9_10fax_deriveINtBW_4NodejE12build_prefix0INtB7_6FnOnceTRTjNtBW_4BitsEEE9call_onceBW_, symObjAddr: 0x254C, symBinAddr: 0x319C, symSize: 0x2C }
  - { offset: 0x7E2C, size: 0x8, addend: 0x0, symName: __RNvXs2_NtNtNtCsfvfooZQ3Axs_4core3ops8function5implsQNCNvMs9_Cs3QdX7iRpTt9_10fax_deriveINtBW_9PrefixLutjE5build0INtB7_6FnOnceTRTjNtBW_4BitsEEE9call_onceBW_, symObjAddr: 0x2578, symBinAddr: 0x31C8, symSize: 0x2C }
  - { offset: 0x7E7B, size: 0x8, addend: 0x0, symName: __RNvXs2_NtNtNtCsfvfooZQ3Axs_4core3ops8function5implsQNCNvXCs3QdX7iRpTt9_10fax_deriveNtBT_7BitMapsNtNtCs5AlOhPCr03V_3syn5parse5Parse5parse0INtB7_6FnOnceTINtNtB1A_10punctuated4PairNtBT_6BitMapNtNtB1A_5token5CommaEEE9call_onceBT_, symObjAddr: 0x25A4, symBinAddr: 0x31F4, symSize: 0x54 }
  - { offset: 0x7ECA, size: 0x8, addend: 0x0, symName: __RNvXs2_NtNtNtCsfvfooZQ3Axs_4core3ops8function5implsQNCNvXs_Cs3QdX7iRpTt9_10fax_deriveNtBV_6BitMapNtNtCs5AlOhPCr03V_3syn5parse5Parse5parse0INtB7_6FnOnceTINtNtB1B_10punctuated4PairNtBV_11BitMapEntryNtNtB1B_5token5CommaEEE9call_onceBV_, symObjAddr: 0x25F8, symBinAddr: 0x3248, symSize: 0x54 }
  - { offset: 0x7F19, size: 0x8, addend: 0x0, symName: __RNvXs2_NtNtNtCsfvfooZQ3Axs_4core3ops8function5implsQNvYhNtNtBb_3cmp3Ord3cmpINtB7_6FnOnceTRhB1p_EE9call_onceCs3QdX7iRpTt9_10fax_derive, symObjAddr: 0x264C, symBinAddr: 0x329C, symSize: 0x34 }
  - { offset: 0x8418, size: 0x8, addend: 0x0, symName: __RINvXsa_NtCs3cP53eQoTwO_11proc_macro28fallbackNtB6_11TokenStreamINtNtNtNtCsfvfooZQ3Axs_4core4iter6traits7collect6ExtendNtB8_9TokenTreeE6extendNtB8_11TokenStreamECs3QdX7iRpTt9_10fax_derive, symObjAddr: 0xD94, symBinAddr: 0x19E4, symSize: 0xC0 }
  - { offset: 0x847E, size: 0x8, addend: 0x0, symName: __RNCINvXsa_NtCs3cP53eQoTwO_11proc_macro28fallbackNtB8_11TokenStreamINtNtNtNtCsfvfooZQ3Axs_4core4iter6traits7collect6ExtendNtBa_9TokenTreeE6extendNtBa_11TokenStreamE0Cs3QdX7iRpTt9_10fax_derive, symObjAddr: 0x12A0, symBinAddr: 0x1EF0, symSize: 0xAC }
  - { offset: 0x87EA, size: 0x8, addend: 0x0, symName: __RNCNvXs1_NtNtNtCscOYdFFY2T5N_3std2io5error14repr_bitpackedNtB7_4ReprNtNtNtCsfvfooZQ3Axs_4core3ops4drop4Drop4drop0Cs3QdX7iRpTt9_10fax_derive, symObjAddr: 0x13A4, symBinAddr: 0x1FF4, symSize: 0x34 }
  - { offset: 0x889F, size: 0x8, addend: 0x0, symName: __RNvXs1_NtNtNtCscOYdFFY2T5N_3std2io5error14repr_bitpackedNtB5_4ReprNtNtNtCsfvfooZQ3Axs_4core3ops4drop4Drop4dropCs3QdX7iRpTt9_10fax_derive, symObjAddr: 0x2464, symBinAddr: 0x30B4, symSize: 0x38 }
  - { offset: 0x88C8, size: 0x8, addend: 0x0, symName: __RINvNtNtNtCscOYdFFY2T5N_3std2io5error14repr_bitpacked11decode_reprINtNtCse1nGBsou5OW_5alloc5boxed3BoxNtB4_6CustomENCNvXs1_B2_NtB2_4ReprNtNtNtCsfvfooZQ3Axs_4core3ops4drop4Drop4drop0ECs3QdX7iRpTt9_10fax_derive, symObjAddr: 0x898, symBinAddr: 0x14E8, symSize: 0x230 }
  - { offset: 0x8B6D, size: 0x8, addend: 0x0, symName: __RNvNtNtNtCscOYdFFY2T5N_3std2io5error14repr_bitpacked14kind_from_primCs3QdX7iRpTt9_10fax_derive, symObjAddr: 0x1A98, symBinAddr: 0x26E8, symSize: 0x608 }
  - { offset: 0x950A, size: 0x8, addend: 0x0, symName: __RINvNvNtCscOYdFFY2T5N_3std9panicking3try7do_callINtNtNtCsfvfooZQ3Axs_4core5panic11unwind_safe16AssertUnwindSafeNCINvNtNtCs9i5KxIbZ5ph_10proc_macro6bridge6client10run_clientNtB1Q_11TokenStreamINtNtBR_6option6OptionB2K_ENCNCINvMs7_B1Q_INtB1Q_6ClientNtB1U_11TokenStreamB3X_E7expand1NvCs3QdX7iRpTt9_10fax_derive7bitmapsE00E0EuEB4v_, symObjAddr: 0xAC8, symBinAddr: 0x1718, symSize: 0x50 }
  - { offset: 0x95D2, size: 0x8, addend: 0x0, symName: __RINvNvNtCscOYdFFY2T5N_3std9panicking3try8do_catchINtNtNtCsfvfooZQ3Axs_4core5panic11unwind_safe16AssertUnwindSafeNCINvNtNtCs9i5KxIbZ5ph_10proc_macro6bridge6client10run_clientNtB1R_11TokenStreamINtNtBS_6option6OptionB2L_ENCNCINvMs7_B1R_INtB1R_6ClientNtB1V_11TokenStreamB3Y_E7expand1NvCs3QdX7iRpTt9_10fax_derive7bitmapsE00E0EuEB4w_, symObjAddr: 0xB18, symBinAddr: 0x1768, symSize: 0x70 }
  - { offset: 0xE511, size: 0x8, addend: 0x0, symName: __RNvXNtCs5AlOhPCr03V_3syn17parse_macro_inputNtCs3QdX7iRpTt9_10fax_derive7BitMapsNtB2_15ParseMacroInput5parseBH_, symObjAddr: 0x2138, symBinAddr: 0x2D88, symSize: 0x34 }
  - { offset: 0xEF15, size: 0x8, addend: 0x0, symName: __RINvXNtNtCse1nGBsou5OW_5alloc3vec14spec_from_elemINtNtCsfvfooZQ3Axs_4core6option6OptionTjhEENtB3_12SpecFromElem9from_elemNtNtB7_5alloc6GlobalECs3QdX7iRpTt9_10fax_derive, symObjAddr: 0xB88, symBinAddr: 0x17D8, symSize: 0xFC }
  - { offset: 0xFC35, size: 0x8, addend: 0x0, symName: __RNvXs1_NtCse1nGBsou5OW_5alloc7raw_vecINtB5_6RawVecINtNtB7_3vec3VecTjNtCs3QdX7iRpTt9_10fax_derive4BitsEEENtNtNtCsfvfooZQ3Axs_4core3ops4drop4Drop4dropB16_, symObjAddr: 0x2290, symBinAddr: 0x2EE0, symSize: 0x34 }
  - { offset: 0xFC71, size: 0x8, addend: 0x0, symName: __RNvXs1_NtCse1nGBsou5OW_5alloc7raw_vecINtB5_6RawVecINtNtCsfvfooZQ3Axs_4core6option6OptionINtCs3QdX7iRpTt9_10fax_derive4NodejEEENtNtNtBR_3ops4drop4Drop4dropB1r_, symObjAddr: 0x22C4, symBinAddr: 0x2F14, symSize: 0x34 }
  - { offset: 0xFCAD, size: 0x8, addend: 0x0, symName: __RNvXs1_NtCse1nGBsou5OW_5alloc7raw_vecINtB5_6RawVecINtNtCsfvfooZQ3Axs_4core6option6OptionTjhEEENtNtNtBR_3ops4drop4Drop4dropCs3QdX7iRpTt9_10fax_derive, symObjAddr: 0x22F8, symBinAddr: 0x2F48, symSize: 0x34 }
  - { offset: 0xFCE9, size: 0x8, addend: 0x0, symName: __RNvXs1_NtCse1nGBsou5OW_5alloc7raw_vecINtB5_6RawVecNtCs3QdX7iRpTt9_10fax_derive11BitMapEntryENtNtNtCsfvfooZQ3Axs_4core3ops4drop4Drop4dropBO_, symObjAddr: 0x232C, symBinAddr: 0x2F7C, symSize: 0x34 }
  - { offset: 0xFD25, size: 0x8, addend: 0x0, symName: __RNvXs1_NtCse1nGBsou5OW_5alloc7raw_vecINtB5_6RawVecNtCs3QdX7iRpTt9_10fax_derive6BitMapENtNtNtCsfvfooZQ3Axs_4core3ops4drop4Drop4dropBO_, symObjAddr: 0x2360, symBinAddr: 0x2FB0, symSize: 0x34 }
  - { offset: 0xFD61, size: 0x8, addend: 0x0, symName: __RNvXs1_NtCse1nGBsou5OW_5alloc7raw_vecINtB5_6RawVecNtCs3cP53eQoTwO_11proc_macro211TokenStreamENtNtNtCsfvfooZQ3Axs_4core3ops4drop4Drop4dropCs3QdX7iRpTt9_10fax_derive, symObjAddr: 0x2394, symBinAddr: 0x2FE4, symSize: 0x34 }
  - { offset: 0xFD9D, size: 0x8, addend: 0x0, symName: __RNvXs1_NtCse1nGBsou5OW_5alloc7raw_vecINtB5_6RawVecTNtCs3QdX7iRpTt9_10fax_derive11BitMapEntryNtNtCs5AlOhPCr03V_3syn5token5CommaEENtNtNtCsfvfooZQ3Axs_4core3ops4drop4Drop4dropBP_, symObjAddr: 0x23C8, symBinAddr: 0x3018, symSize: 0x34 }
  - { offset: 0xFDD9, size: 0x8, addend: 0x0, symName: __RNvXs1_NtCse1nGBsou5OW_5alloc7raw_vecINtB5_6RawVecTNtCs3QdX7iRpTt9_10fax_derive6BitMapNtNtCs5AlOhPCr03V_3syn5token5CommaEENtNtNtCsfvfooZQ3Axs_4core3ops4drop4Drop4dropBP_, symObjAddr: 0x23FC, symBinAddr: 0x304C, symSize: 0x34 }
  - { offset: 0xFE15, size: 0x8, addend: 0x0, symName: __RNvXs1_NtCse1nGBsou5OW_5alloc7raw_vecINtB5_6RawVecTjNtCs3QdX7iRpTt9_10fax_derive4BitsEENtNtNtCsfvfooZQ3Axs_4core3ops4drop4Drop4dropBQ_, symObjAddr: 0x2430, symBinAddr: 0x3080, symSize: 0x34 }
  - { offset: 0xFF16, size: 0x8, addend: 0x0, symName: __RINvXs_NtNtCse1nGBsou5OW_5alloc5slice4hackTjNtCs3QdX7iRpTt9_10fax_derive4BitsENtB5_10ConvertVec6to_vecNtNtB9_5alloc6GlobalEBI_, symObjAddr: 0xCB4, symBinAddr: 0x1904, symSize: 0xE0 }
  - { offset: 0x10159, size: 0x8, addend: 0x0, symName: __RNvXs6_NtCse1nGBsou5OW_5alloc5boxedINtB5_3BoxDNtNtCsfvfooZQ3Axs_4core5error5ErrorNtNtBM_6marker4SendNtB1j_4SyncEL_ENtNtNtBM_3ops4drop4Drop4dropCs3QdX7iRpTt9_10fax_derive, symObjAddr: 0x278C, symBinAddr: 0x33DC, symSize: 0xC4 }
  - { offset: 0x10290, size: 0x8, addend: 0x0, symName: __RNvXs6_NtCse1nGBsou5OW_5alloc5boxedINtB5_3BoxNtCs3QdX7iRpTt9_10fax_derive11BitMapEntryENtNtNtCsfvfooZQ3Axs_4core3ops4drop4Drop4dropBJ_, symObjAddr: 0x2850, symBinAddr: 0x34A0, symSize: 0xB0 }
  - { offset: 0x103C7, size: 0x8, addend: 0x0, symName: __RNvXs6_NtCse1nGBsou5OW_5alloc5boxedINtB5_3BoxNtCs3QdX7iRpTt9_10fax_derive6BitMapENtNtNtCsfvfooZQ3Axs_4core3ops4drop4Drop4dropBJ_, symObjAddr: 0x2900, symBinAddr: 0x3550, symSize: 0xB0 }
  - { offset: 0x104FE, size: 0x8, addend: 0x0, symName: __RNvXs6_NtCse1nGBsou5OW_5alloc5boxedINtB5_3BoxNtNtNtCscOYdFFY2T5N_3std2io5error6CustomENtNtNtCsfvfooZQ3Axs_4core3ops4drop4Drop4dropCs3QdX7iRpTt9_10fax_derive, symObjAddr: 0x29B0, symBinAddr: 0x3600, symSize: 0xB0 }
  - { offset: 0x10C3D, size: 0x8, addend: 0x0, symName: __RINvMNtCsfvfooZQ3Axs_4core6optionINtB3_6OptionINtNtCs5AlOhPCr03V_3syn10punctuated4PairNtCs3QdX7iRpTt9_10fax_derive11BitMapEntryNtNtBN_5token5CommaEE7or_elseNCNvXsj_BL_INtBL_9IntoPairsB1m_B21_ENtNtNtNtB5_4iter6traits8iterator8Iterator4nexts_0EB1o_, symObjAddr: 0x0, symBinAddr: 0xC50, symSize: 0xE4 }
  - { offset: 0x10CE7, size: 0x8, addend: 0x0, symName: __RINvMNtCsfvfooZQ3Axs_4core6optionINtB3_6OptionINtNtCs5AlOhPCr03V_3syn10punctuated4PairNtCs3QdX7iRpTt9_10fax_derive6BitMapNtNtBN_5token5CommaEE7or_elseNCNvXsj_BL_INtBL_9IntoPairsB1m_B1V_ENtNtNtNtB5_4iter6traits8iterator8Iterator4nexts_0EB1o_, symObjAddr: 0xE4, symBinAddr: 0xD34, symSize: 0xE0 }
  - { offset: 0x10D57, size: 0x8, addend: 0x0, symName: __RINvMNtCsfvfooZQ3Axs_4core6optionINtB3_6OptionINtNtCse1nGBsou5OW_5alloc5boxed3BoxNtCs3QdX7iRpTt9_10fax_derive11BitMapEntryEE3mapB1h_NCNvMNtCs5AlOhPCr03V_3syn10punctuatedINtB2b_10PunctuatedB1h_NtNtB2d_5token5CommaE10into_pairs0EB1j_, symObjAddr: 0x1C4, symBinAddr: 0xE14, symSize: 0x7C }
  - { offset: 0x10DCF, size: 0x8, addend: 0x0, symName: __RINvMNtCsfvfooZQ3Axs_4core6optionINtB3_6OptionINtNtCse1nGBsou5OW_5alloc5boxed3BoxNtCs3QdX7iRpTt9_10fax_derive6BitMapEE3mapB1h_NCNvMNtCs5AlOhPCr03V_3syn10punctuatedINtB25_10PunctuatedB1h_NtNtB27_5token5CommaE10into_pairs0EB1j_, symObjAddr: 0x240, symBinAddr: 0xE90, symSize: 0x78 }
  - { offset: 0x10E52, size: 0x8, addend: 0x0, symName: __RINvMNtCsfvfooZQ3Axs_4core6optionINtB3_6OptionNtCs3QdX7iRpTt9_10fax_derive11BitMapEntryE3mapINtNtCs5AlOhPCr03V_3syn10punctuated4PairBI_NtNtB1x_5token5CommaENcNtB1s_3End0EBK_, symObjAddr: 0x2B8, symBinAddr: 0xF08, symSize: 0xB0 }
  - { offset: 0x10ED6, size: 0x8, addend: 0x0, symName: __RINvMNtCsfvfooZQ3Axs_4core6optionINtB3_6OptionNtCs3QdX7iRpTt9_10fax_derive6BitMapE3mapINtNtCs5AlOhPCr03V_3syn10punctuated4PairBI_NtNtB1r_5token5CommaENcNtB1m_3End0EBK_, symObjAddr: 0x368, symBinAddr: 0xFB8, symSize: 0xA8 }
  - { offset: 0x10F74, size: 0x8, addend: 0x0, symName: __RINvMNtCsfvfooZQ3Axs_4core6optionINtB3_6OptionRINtCs3QdX7iRpTt9_10fax_derive4NodejEE3mapdNCNCNvMs9_BM_INtBM_9PrefixLutjE4cost00EBM_, symObjAddr: 0x410, symBinAddr: 0x1060, symSize: 0x5C }
  - { offset: 0x10FDF, size: 0x8, addend: 0x0, symName: __RINvMNtCsfvfooZQ3Axs_4core6optionINtB3_6OptionTNtCs3QdX7iRpTt9_10fax_derive11BitMapEntryNtNtCs5AlOhPCr03V_3syn5token5CommaEE3mapINtNtB1s_10punctuated4PairBJ_B1o_ENCNvXsj_B25_INtB25_9IntoPairsBJ_B1o_ENtNtNtNtB5_4iter6traits8iterator8Iterator4next0EBL_, symObjAddr: 0x46C, symBinAddr: 0x10BC, symSize: 0xAC }
  - { offset: 0x1104B, size: 0x8, addend: 0x0, symName: __RINvMNtCsfvfooZQ3Axs_4core6optionINtB3_6OptionTNtCs3QdX7iRpTt9_10fax_derive6BitMapNtNtCs5AlOhPCr03V_3syn5token5CommaEE3mapINtNtB1m_10punctuated4PairBJ_B1i_ENCNvXsj_B1Z_INtB1Z_9IntoPairsBJ_B1i_ENtNtNtNtB5_4iter6traits8iterator8Iterator4next0EBL_, symObjAddr: 0x518, symBinAddr: 0x1168, symSize: 0xA4 }
  - { offset: 0x116CC, size: 0x8, addend: 0x0, symName: __RNvMNtCsfvfooZQ3Axs_4core6optionINtB2_6OptionINtCs3QdX7iRpTt9_10fax_derive4NodejEE6as_refBK_, symObjAddr: 0x14C0, symBinAddr: 0x2110, symSize: 0x4C }
  - { offset: 0x11716, size: 0x8, addend: 0x0, symName: __RNvMNtCsfvfooZQ3Axs_4core6optionINtB2_6OptionINtCs3QdX7iRpTt9_10fax_derive9PrefixLutjEE6expectBK_, symObjAddr: 0x150C, symBinAddr: 0x215C, symSize: 0x74 }
  - { offset: 0x1175F, size: 0x8, addend: 0x0, symName: __RNvMNtCsfvfooZQ3Axs_4core6optionINtB2_6OptionINtNtCse1nGBsou5OW_5alloc5boxed3BoxNtCs3QdX7iRpTt9_10fax_derive11BitMapEntryEE4takeB1i_, symObjAddr: 0x1580, symBinAddr: 0x21D0, symSize: 0x28 }
  - { offset: 0x1180E, size: 0x8, addend: 0x0, symName: __RNvMNtCsfvfooZQ3Axs_4core6optionINtB2_6OptionINtNtCse1nGBsou5OW_5alloc5boxed3BoxNtCs3QdX7iRpTt9_10fax_derive11BitMapEntryEE7is_noneB1i_, symObjAddr: 0x15A8, symBinAddr: 0x21F8, symSize: 0x28 }
  - { offset: 0x11858, size: 0x8, addend: 0x0, symName: __RNvMNtCsfvfooZQ3Axs_4core6optionINtB2_6OptionINtNtCse1nGBsou5OW_5alloc5boxed3BoxNtCs3QdX7iRpTt9_10fax_derive11BitMapEntryEE7is_someB1i_, symObjAddr: 0x15D0, symBinAddr: 0x2220, symSize: 0x28 }
  - { offset: 0x11891, size: 0x8, addend: 0x0, symName: __RNvMNtCsfvfooZQ3Axs_4core6optionINtB2_6OptionINtNtCse1nGBsou5OW_5alloc5boxed3BoxNtCs3QdX7iRpTt9_10fax_derive6BitMapEE4takeB1i_, symObjAddr: 0x15F8, symBinAddr: 0x2248, symSize: 0x28 }
  - { offset: 0x11940, size: 0x8, addend: 0x0, symName: __RNvMNtCsfvfooZQ3Axs_4core6optionINtB2_6OptionINtNtCse1nGBsou5OW_5alloc5boxed3BoxNtCs3QdX7iRpTt9_10fax_derive6BitMapEE7is_noneB1i_, symObjAddr: 0x1620, symBinAddr: 0x2270, symSize: 0x28 }
  - { offset: 0x1198A, size: 0x8, addend: 0x0, symName: __RNvMNtCsfvfooZQ3Axs_4core6optionINtB2_6OptionINtNtCse1nGBsou5OW_5alloc5boxed3BoxNtCs3QdX7iRpTt9_10fax_derive6BitMapEE7is_someB1i_, symObjAddr: 0x1648, symBinAddr: 0x2298, symSize: 0x28 }
  - { offset: 0x11A08, size: 0x8, addend: 0x0, symName: __RNvMs0_NtCse1nGBsou5OW_5alloc7raw_vecINtB5_6RawVecNtCs3cP53eQoTwO_11proc_macro211TokenStreamE8grow_oneCs3QdX7iRpTt9_10fax_derive, symObjAddr: 0x1670, symBinAddr: 0x22C0, symSize: 0x94 }
  - { offset: 0x11AB6, size: 0x8, addend: 0x0, symName: __RNvMs0_NtCse1nGBsou5OW_5alloc7raw_vecINtB5_6RawVecTNtCs3QdX7iRpTt9_10fax_derive11BitMapEntryNtNtCs5AlOhPCr03V_3syn5token5CommaEE8grow_oneBP_, symObjAddr: 0x1704, symBinAddr: 0x2354, symSize: 0x94 }
  - { offset: 0x11B64, size: 0x8, addend: 0x0, symName: __RNvMs0_NtCse1nGBsou5OW_5alloc7raw_vecINtB5_6RawVecTNtCs3QdX7iRpTt9_10fax_derive6BitMapNtNtCs5AlOhPCr03V_3syn5token5CommaEE8grow_oneBP_, symObjAddr: 0x1798, symBinAddr: 0x23E8, symSize: 0x94 }
  - { offset: 0x11C12, size: 0x8, addend: 0x0, symName: __RNvMs0_NtCse1nGBsou5OW_5alloc7raw_vecINtB5_6RawVecTjNtCs3QdX7iRpTt9_10fax_derive4BitsEE8grow_oneBQ_, symObjAddr: 0x182C, symBinAddr: 0x247C, symSize: 0x94 }
  - { offset: 0x11D48, size: 0x8, addend: 0x0, symName: __RNvMs3_NtCsfvfooZQ3Axs_4core3fmtNtB5_9Arguments16new_v1_formattedCs3QdX7iRpTt9_10fax_derive, symObjAddr: 0x18C0, symBinAddr: 0x2510, symSize: 0x58 }
  - { offset: 0x11DF3, size: 0x8, addend: 0x0, symName: __RNvMsa_NtCsfvfooZQ3Axs_4core3fmtNtB5_9Formatter9write_fmtCs3QdX7iRpTt9_10fax_derive, symObjAddr: 0x1918, symBinAddr: 0x2568, symSize: 0x180 }
  - { offset: 0x12388, size: 0x8, addend: 0x0, symName: __RNvMs0_Cs3QdX7iRpTt9_10fax_deriveNtB5_6BitMap5build, symObjAddr: 0x4D3C, symBinAddr: 0x598C, symSize: 0x2BC }
  - { offset: 0x124C5, size: 0x8, addend: 0x0, symName: __RNvMs0_Cs3QdX7iRpTt9_10fax_deriveNtB5_6BitMap4walk, symObjAddr: 0x5048, symBinAddr: 0x5C98, symSize: 0xF6C }
  - { offset: 0x1293A, size: 0x8, addend: 0x0, symName: __RNvMs2_Cs3QdX7iRpTt9_10fax_deriveNtB5_4Bits3new, symObjAddr: 0x65B8, symBinAddr: 0x7208, symSize: 0x24 }
  - { offset: 0x1296A, size: 0x8, addend: 0x0, symName: __RNvMs2_Cs3QdX7iRpTt9_10fax_deriveNtB5_4Bits6concat, symObjAddr: 0x65DC, symBinAddr: 0x722C, symSize: 0xB0 }
  - { offset: 0x1299A, size: 0x8, addend: 0x0, symName: __RNvMs2_Cs3QdX7iRpTt9_10fax_deriveNtB5_4Bits6prefix, symObjAddr: 0x668C, symBinAddr: 0x72DC, symSize: 0xE0 }
  - { offset: 0x129CA, size: 0x8, addend: 0x0, symName: __RNvMs2_Cs3QdX7iRpTt9_10fax_deriveNtB5_4Bits12prefix_range, symObjAddr: 0x676C, symBinAddr: 0x73BC, symSize: 0x180 }
  - { offset: 0x12A39, size: 0x8, addend: 0x0, symName: __RNvMs2_Cs3QdX7iRpTt9_10fax_deriveNtB5_4Bits12strip_prefix, symObjAddr: 0x68EC, symBinAddr: 0x753C, symSize: 0x114 }
  - { offset: 0x12A7E, size: 0x8, addend: 0x0, symName: __RNvMs2_Cs3QdX7iRpTt9_10fax_deriveNtB5_4Bits5empty, symObjAddr: 0x6A00, symBinAddr: 0x7650, symSize: 0x1C }
  - { offset: 0x12A91, size: 0x8, addend: 0x0, symName: __RNvMs7_Cs3QdX7iRpTt9_10fax_deriveINtB5_7LeafLutjE5buildB5_, symObjAddr: 0x6FFC, symBinAddr: 0x7C4C, symSize: 0x3F0 }
  - { offset: 0x12B93, size: 0x8, addend: 0x0, symName: __RNvMs8_Cs3QdX7iRpTt9_10fax_deriveINtB5_4NodejE4costB5_, symObjAddr: 0x73EC, symBinAddr: 0x803C, symSize: 0xB8 }
  - { offset: 0x12BD5, size: 0x8, addend: 0x0, symName: __RNvMs8_Cs3QdX7iRpTt9_10fax_deriveINtB5_4NodejE5buildB5_, symObjAddr: 0x74A4, symBinAddr: 0x80F4, symSize: 0x3C }
  - { offset: 0x12C2C, size: 0x8, addend: 0x0, symName: __RNvMs8_Cs3QdX7iRpTt9_10fax_deriveINtB5_4NodejE12build_prefixB5_, symObjAddr: 0x74E0, symBinAddr: 0x8130, symSize: 0x238 }
  - { offset: 0x12CD6, size: 0x8, addend: 0x0, symName: __RNvMs9_Cs3QdX7iRpTt9_10fax_deriveINtB5_9PrefixLutjE4costB5_, symObjAddr: 0x774C, symBinAddr: 0x839C, symSize: 0x90 }
  - { offset: 0x12D02, size: 0x8, addend: 0x0, symName: __RNvMs9_Cs3QdX7iRpTt9_10fax_deriveINtB5_9PrefixLutjE5buildB5_, symObjAddr: 0x7854, symBinAddr: 0x84A4, symSize: 0x324 }
  - { offset: 0x12DFA, size: 0x8, addend: 0x0, symName: __RNvMs9_Cs3QdX7iRpTt9_10fax_deriveINtB5_9PrefixLutjE11build_widthB5_, symObjAddr: 0x7BAC, symBinAddr: 0x87FC, symSize: 0x434 }
  - { offset: 0x133DC, size: 0x8, addend: 0x0, symName: __RINvMs2_NtNtCscOYdFFY2T5N_3std6thread5localINtB6_8LocalKeyINtNtCsfvfooZQ3Axs_4core4cell4CellPuEE4withNCNvMs3_B6_BF_7replace0B1s_ECs3QdX7iRpTt9_10fax_derive, symObjAddr: 0x0, symBinAddr: 0x8CD8, symSize: 0x54 }
  - { offset: 0x13712, size: 0x8, addend: 0x0, symName: __RNCNvMs3_NtNtCscOYdFFY2T5N_3std6thread5localINtB7_8LocalKeyINtNtCsfvfooZQ3Axs_4core4cell4CellPuEE7replace0Cs3QdX7iRpTt9_10fax_derive, symObjAddr: 0x2A5C, symBinAddr: 0xB6EC, symSize: 0x28 }
  - { offset: 0x146CE, size: 0x8, addend: 0x0, symName: __RNvNvMNtNtCsfvfooZQ3Axs_4core3ptr9const_ptrPp7sub_ptr18precondition_checkCs3QdX7iRpTt9_10fax_derive, symObjAddr: 0x34BC, symBinAddr: 0xC14C, symSize: 0x40 }
  - { offset: 0x14BD6, size: 0x8, addend: 0x0, symName: __RINvNtCsfvfooZQ3Axs_4core3ptr13drop_in_placeINtCs3QdX7iRpTt9_10fax_derive4NodejEEBJ_, symObjAddr: 0x4C0, symBinAddr: 0x9150, symSize: 0x64 }
  - { offset: 0x14C05, size: 0x8, addend: 0x0, symName: __RINvNtCsfvfooZQ3Axs_4core3ptr13drop_in_placeINtCs3QdX7iRpTt9_10fax_derive7LeafLutjEEBJ_, symObjAddr: 0x524, symBinAddr: 0x91B4, symSize: 0x24 }
  - { offset: 0x14C34, size: 0x8, addend: 0x0, symName: __RINvNtCsfvfooZQ3Axs_4core3ptr13drop_in_placeINtCs3QdX7iRpTt9_10fax_derive9PrefixLutjEEBJ_, symObjAddr: 0x548, symBinAddr: 0x91D8, symSize: 0x24 }
  - { offset: 0x14C63, size: 0x8, addend: 0x0, symName: __RINvNtCsfvfooZQ3Axs_4core3ptr13drop_in_placeINtNtB4_4cell10UnsafeCellNtNtNtCs9i5KxIbZ5ph_10proc_macro6bridge6client6BridgeEECs3QdX7iRpTt9_10fax_derive, symObjAddr: 0x56C, symBinAddr: 0x91FC, symSize: 0x24 }
  - { offset: 0x14C92, size: 0x8, addend: 0x0, symName: __RINvNtCsfvfooZQ3Axs_4core3ptr13drop_in_placeINtNtB4_4cell7RefCellNtNtNtCs9i5KxIbZ5ph_10proc_macro6bridge6client6BridgeEECs3QdX7iRpTt9_10fax_derive, symObjAddr: 0x590, symBinAddr: 0x9220, symSize: 0x24 }
  - { offset: 0x14CC1, size: 0x8, addend: 0x0, symName: __RINvNtCsfvfooZQ3Axs_4core3ptr13drop_in_placeINtNtB4_6option4ItemNtCs3QdX7iRpTt9_10fax_derive11BitMapEntryEEB12_, symObjAddr: 0x5B4, symBinAddr: 0x9244, symSize: 0x24 }
  - { offset: 0x14CF0, size: 0x8, addend: 0x0, symName: __RINvNtCsfvfooZQ3Axs_4core3ptr13drop_in_placeINtNtB4_6option4ItemNtCs3QdX7iRpTt9_10fax_derive6BitMapEEB12_, symObjAddr: 0x5D8, symBinAddr: 0x9268, symSize: 0x24 }
  - { offset: 0x14D1F, size: 0x8, addend: 0x0, symName: __RINvNtCsfvfooZQ3Axs_4core3ptr13drop_in_placeINtNtB4_6option6OptionINtCs3QdX7iRpTt9_10fax_derive4NodejEEEB15_, symObjAddr: 0x5FC, symBinAddr: 0x928C, symSize: 0x44 }
  - { offset: 0x14D4E, size: 0x8, addend: 0x0, symName: __RINvNtCsfvfooZQ3Axs_4core3ptr13drop_in_placeINtNtB4_6option6OptionINtCs3QdX7iRpTt9_10fax_derive9PrefixLutjEEEB15_, symObjAddr: 0x640, symBinAddr: 0x92D0, symSize: 0x48 }
  - { offset: 0x14D7D, size: 0x8, addend: 0x0, symName: __RINvNtCsfvfooZQ3Axs_4core3ptr13drop_in_placeINtNtB4_6option6OptionINtNtCs5AlOhPCr03V_3syn10punctuated4PairNtCs3QdX7iRpTt9_10fax_derive11BitMapEntryNtNtB17_5token5CommaEEEB1I_, symObjAddr: 0x688, symBinAddr: 0x9318, symSize: 0x4C }
  - { offset: 0x14DAC, size: 0x8, addend: 0x0, symName: __RINvNtCsfvfooZQ3Axs_4core3ptr13drop_in_placeINtNtB4_6option6OptionINtNtCs5AlOhPCr03V_3syn10punctuated4PairNtCs3QdX7iRpTt9_10fax_derive6BitMapNtNtB17_5token5CommaEEEB1I_, symObjAddr: 0x6D4, symBinAddr: 0x9364, symSize: 0x48 }
  - { offset: 0x14DDB, size: 0x8, addend: 0x0, symName: __RINvNtCsfvfooZQ3Axs_4core3ptr13drop_in_placeINtNtB4_6option6OptionINtNtCse1nGBsou5OW_5alloc5boxed3BoxNtCs3QdX7iRpTt9_10fax_derive11BitMapEntryEEEB1D_, symObjAddr: 0x71C, symBinAddr: 0x93AC, symSize: 0x44 }
  - { offset: 0x14E0A, size: 0x8, addend: 0x0, symName: __RINvNtCsfvfooZQ3Axs_4core3ptr13drop_in_placeINtNtB4_6option6OptionINtNtCse1nGBsou5OW_5alloc5boxed3BoxNtCs3QdX7iRpTt9_10fax_derive6BitMapEEEB1D_, symObjAddr: 0x760, symBinAddr: 0x93F0, symSize: 0x44 }
  - { offset: 0x14E39, size: 0x8, addend: 0x0, symName: __RINvNtCsfvfooZQ3Axs_4core3ptr13drop_in_placeINtNtB4_6option6OptionNtCs3QdX7iRpTt9_10fax_derive11BitMapEntryEEB14_, symObjAddr: 0x7A4, symBinAddr: 0x9434, symSize: 0x4C }
  - { offset: 0x14E68, size: 0x8, addend: 0x0, symName: __RINvNtCsfvfooZQ3Axs_4core3ptr13drop_in_placeINtNtB4_6option6OptionNtCs3QdX7iRpTt9_10fax_derive6BitMapEEB14_, symObjAddr: 0x7F0, symBinAddr: 0x9480, symSize: 0x48 }
  - { offset: 0x14E97, size: 0x8, addend: 0x0, symName: __RINvNtCsfvfooZQ3Axs_4core3ptr13drop_in_placeINtNtB4_6option8IntoIterNtCs3QdX7iRpTt9_10fax_derive11BitMapEntryEEB16_, symObjAddr: 0x838, symBinAddr: 0x94C8, symSize: 0x24 }
  - { offset: 0x14EC6, size: 0x8, addend: 0x0, symName: __RINvNtCsfvfooZQ3Axs_4core3ptr13drop_in_placeINtNtB4_6option8IntoIterNtCs3QdX7iRpTt9_10fax_derive6BitMapEEB16_, symObjAddr: 0x85C, symBinAddr: 0x94EC, symSize: 0x24 }
  - { offset: 0x14EF5, size: 0x8, addend: 0x0, symName: __RINvNtCsfvfooZQ3Axs_4core3ptr13drop_in_placeINtNtCs2cqEZUIJimJ_5quote9___private9RepInterpNtCs3cP53eQoTwO_11proc_macro211TokenStreamEECs3QdX7iRpTt9_10fax_derive, symObjAddr: 0x880, symBinAddr: 0x9510, symSize: 0x24 }
  - { offset: 0x14F24, size: 0x8, addend: 0x0, symName: __RINvNtCsfvfooZQ3Axs_4core3ptr13drop_in_placeINtNtCs5AlOhPCr03V_3syn10punctuated10PunctuatedNtCs3QdX7iRpTt9_10fax_derive11BitMapEntryNtNtBL_5token5CommaEEB1t_, symObjAddr: 0x8A4, symBinAddr: 0x9534, symSize: 0x60 }
  - { offset: 0x14F53, size: 0x8, addend: 0x0, symName: __RINvNtCsfvfooZQ3Axs_4core3ptr13drop_in_placeINtNtCs5AlOhPCr03V_3syn10punctuated10PunctuatedNtCs3QdX7iRpTt9_10fax_derive6BitMapNtNtBL_5token5CommaEEB1t_, symObjAddr: 0x904, symBinAddr: 0x9594, symSize: 0x60 }
  - { offset: 0x14F82, size: 0x8, addend: 0x0, symName: __RINvNtCsfvfooZQ3Axs_4core3ptr13drop_in_placeINtNtCs5AlOhPCr03V_3syn10punctuated4PairNtCs3QdX7iRpTt9_10fax_derive11BitMapEntryNtNtBL_5token5CommaEEB1m_, symObjAddr: 0x964, symBinAddr: 0x95F4, symSize: 0x60 }
  - { offset: 0x14FB1, size: 0x8, addend: 0x0, symName: __RINvNtCsfvfooZQ3Axs_4core3ptr13drop_in_placeINtNtCs5AlOhPCr03V_3syn10punctuated4PairNtCs3QdX7iRpTt9_10fax_derive6BitMapNtNtBL_5token5CommaEEB1m_, symObjAddr: 0x9C4, symBinAddr: 0x9654, symSize: 0x5C }
  - { offset: 0x14FE0, size: 0x8, addend: 0x0, symName: __RINvNtCsfvfooZQ3Axs_4core3ptr13drop_in_placeINtNtCs5AlOhPCr03V_3syn10punctuated9IntoPairsNtCs3QdX7iRpTt9_10fax_derive11BitMapEntryNtNtBL_5token5CommaEEB1r_, symObjAddr: 0xA20, symBinAddr: 0x96B0, symSize: 0x5C }
  - { offset: 0x1500F, size: 0x8, addend: 0x0, symName: __RINvNtCsfvfooZQ3Axs_4core3ptr13drop_in_placeINtNtCs5AlOhPCr03V_3syn10punctuated9IntoPairsNtCs3QdX7iRpTt9_10fax_derive6BitMapNtNtBL_5token5CommaEEB1r_, symObjAddr: 0xA7C, symBinAddr: 0x970C, symSize: 0x5C }
  - { offset: 0x1503E, size: 0x8, addend: 0x0, symName: __RINvNtCsfvfooZQ3Axs_4core3ptr13drop_in_placeINtNtCse1nGBsou5OW_5alloc3vec3VecIBH_TjNtCs3QdX7iRpTt9_10fax_derive4BitsEEEEB1l_, symObjAddr: 0xAD8, symBinAddr: 0x9768, symSize: 0x5C }
  - { offset: 0x1506D, size: 0x8, addend: 0x0, symName: __RINvNtCsfvfooZQ3Axs_4core3ptr13drop_in_placeINtNtCse1nGBsou5OW_5alloc3vec3VecINtNtB4_6option6OptionINtCs3QdX7iRpTt9_10fax_derive4NodejEEEEB1C_, symObjAddr: 0xB34, symBinAddr: 0x97C4, symSize: 0x5C }
  - { offset: 0x1509C, size: 0x8, addend: 0x0, symName: __RINvNtCsfvfooZQ3Axs_4core3ptr13drop_in_placeINtNtCse1nGBsou5OW_5alloc3vec3VecINtNtB4_6option6OptionTjhEEEECs3QdX7iRpTt9_10fax_derive, symObjAddr: 0xB90, symBinAddr: 0x9820, symSize: 0x5C }
  - { offset: 0x150CB, size: 0x8, addend: 0x0, symName: __RINvNtCsfvfooZQ3Axs_4core3ptr13drop_in_placeINtNtCse1nGBsou5OW_5alloc3vec3VecNtCs3QdX7iRpTt9_10fax_derive11BitMapEntryEEB1f_, symObjAddr: 0xBEC, symBinAddr: 0x987C, symSize: 0x5C }
  - { offset: 0x150FA, size: 0x8, addend: 0x0, symName: __RINvNtCsfvfooZQ3Axs_4core3ptr13drop_in_placeINtNtCse1nGBsou5OW_5alloc3vec3VecNtCs3QdX7iRpTt9_10fax_derive6BitMapEEB1f_, symObjAddr: 0xC48, symBinAddr: 0x98D8, symSize: 0x5C }
  - { offset: 0x15129, size: 0x8, addend: 0x0, symName: __RINvNtCsfvfooZQ3Axs_4core3ptr13drop_in_placeINtNtCse1nGBsou5OW_5alloc3vec3VecNtCs3cP53eQoTwO_11proc_macro211TokenStreamEECs3QdX7iRpTt9_10fax_derive, symObjAddr: 0xCA4, symBinAddr: 0x9934, symSize: 0x5C }
  - { offset: 0x15158, size: 0x8, addend: 0x0, symName: __RINvNtCsfvfooZQ3Axs_4core3ptr13drop_in_placeINtNtCse1nGBsou5OW_5alloc3vec3VecTNtCs3QdX7iRpTt9_10fax_derive11BitMapEntryNtNtCs5AlOhPCr03V_3syn5token5CommaEEEB1g_, symObjAddr: 0xD00, symBinAddr: 0x9990, symSize: 0x5C }
  - { offset: 0x15187, size: 0x8, addend: 0x0, symName: __RINvNtCsfvfooZQ3Axs_4core3ptr13drop_in_placeINtNtCse1nGBsou5OW_5alloc3vec3VecTNtCs3QdX7iRpTt9_10fax_derive6BitMapNtNtCs5AlOhPCr03V_3syn5token5CommaEEEB1g_, symObjAddr: 0xD5C, symBinAddr: 0x99EC, symSize: 0x5C }
  - { offset: 0x151B6, size: 0x8, addend: 0x0, symName: __RINvNtCsfvfooZQ3Axs_4core3ptr13drop_in_placeINtNtCse1nGBsou5OW_5alloc3vec3VecTjNtCs3QdX7iRpTt9_10fax_derive4BitsEEEB1h_, symObjAddr: 0xDB8, symBinAddr: 0x9A48, symSize: 0x5C }
  - { offset: 0x151E5, size: 0x8, addend: 0x0, symName: __RINvNtCsfvfooZQ3Axs_4core3ptr13drop_in_placeINtNtCse1nGBsou5OW_5alloc5boxed3BoxDNtNtB4_5error5ErrorNtNtB4_6marker4SendNtB1B_4SyncEL_EECs3QdX7iRpTt9_10fax_derive, symObjAddr: 0xE14, symBinAddr: 0x9AA4, symSize: 0x80 }
  - { offset: 0x15214, size: 0x8, addend: 0x0, symName: __RINvNtCsfvfooZQ3Axs_4core3ptr13drop_in_placeINtNtCse1nGBsou5OW_5alloc5boxed3BoxNtCs3QdX7iRpTt9_10fax_derive11BitMapEntryEEB1h_, symObjAddr: 0xE94, symBinAddr: 0x9B24, symSize: 0x60 }
  - { offset: 0x15243, size: 0x8, addend: 0x0, symName: __RINvNtCsfvfooZQ3Axs_4core3ptr13drop_in_placeINtNtCse1nGBsou5OW_5alloc5boxed3BoxNtCs3QdX7iRpTt9_10fax_derive6BitMapEEB1h_, symObjAddr: 0xEF4, symBinAddr: 0x9B84, symSize: 0x60 }
  - { offset: 0x15272, size: 0x8, addend: 0x0, symName: __RINvNtCsfvfooZQ3Axs_4core3ptr13drop_in_placeINtNtCse1nGBsou5OW_5alloc5boxed3BoxNtNtNtCscOYdFFY2T5N_3std2io5error6CustomEECs3QdX7iRpTt9_10fax_derive, symObjAddr: 0xF54, symBinAddr: 0x9BE4, symSize: 0x60 }
  - { offset: 0x152A1, size: 0x8, addend: 0x0, symName: __RINvNtCsfvfooZQ3Axs_4core3ptr13drop_in_placeINtNtCse1nGBsou5OW_5alloc7raw_vec6RawVecINtNtB4_6option6OptionINtCs3QdX7iRpTt9_10fax_derive4NodejEEEEB1J_, symObjAddr: 0xFB4, symBinAddr: 0x9C44, symSize: 0x24 }
  - { offset: 0x152D0, size: 0x8, addend: 0x0, symName: __RINvNtCsfvfooZQ3Axs_4core3ptr13drop_in_placeINtNtCse1nGBsou5OW_5alloc7raw_vec6RawVecINtNtB4_6option6OptionTjhEEEECs3QdX7iRpTt9_10fax_derive, symObjAddr: 0xFD8, symBinAddr: 0x9C68, symSize: 0x24 }
  - { offset: 0x152FF, size: 0x8, addend: 0x0, symName: __RINvNtCsfvfooZQ3Axs_4core3ptr13drop_in_placeINtNtCse1nGBsou5OW_5alloc7raw_vec6RawVecINtNtBL_3vec3VecTjNtCs3QdX7iRpTt9_10fax_derive4BitsEEEEB1E_, symObjAddr: 0xFFC, symBinAddr: 0x9C8C, symSize: 0x24 }
  - { offset: 0x1532E, size: 0x8, addend: 0x0, symName: __RINvNtCsfvfooZQ3Axs_4core3ptr13drop_in_placeINtNtCse1nGBsou5OW_5alloc7raw_vec6RawVecNtCs3QdX7iRpTt9_10fax_derive11BitMapEntryEEB1m_, symObjAddr: 0x1020, symBinAddr: 0x9CB0, symSize: 0x24 }
  - { offset: 0x1535D, size: 0x8, addend: 0x0, symName: __RINvNtCsfvfooZQ3Axs_4core3ptr13drop_in_placeINtNtCse1nGBsou5OW_5alloc7raw_vec6RawVecNtCs3QdX7iRpTt9_10fax_derive6BitMapEEB1m_, symObjAddr: 0x1044, symBinAddr: 0x9CD4, symSize: 0x24 }
  - { offset: 0x1538C, size: 0x8, addend: 0x0, symName: __RINvNtCsfvfooZQ3Axs_4core3ptr13drop_in_placeINtNtCse1nGBsou5OW_5alloc7raw_vec6RawVecNtCs3cP53eQoTwO_11proc_macro211TokenStreamEECs3QdX7iRpTt9_10fax_derive, symObjAddr: 0x1068, symBinAddr: 0x9CF8, symSize: 0x24 }
  - { offset: 0x153BB, size: 0x8, addend: 0x0, symName: __RINvNtCsfvfooZQ3Axs_4core3ptr13drop_in_placeINtNtCse1nGBsou5OW_5alloc7raw_vec6RawVecTNtCs3QdX7iRpTt9_10fax_derive11BitMapEntryNtNtCs5AlOhPCr03V_3syn5token5CommaEEEB1n_, symObjAddr: 0x108C, symBinAddr: 0x9D1C, symSize: 0x24 }
  - { offset: 0x153EA, size: 0x8, addend: 0x0, symName: __RINvNtCsfvfooZQ3Axs_4core3ptr13drop_in_placeINtNtCse1nGBsou5OW_5alloc7raw_vec6RawVecTNtCs3QdX7iRpTt9_10fax_derive6BitMapNtNtCs5AlOhPCr03V_3syn5token5CommaEEEB1n_, symObjAddr: 0x10B0, symBinAddr: 0x9D40, symSize: 0x24 }
  - { offset: 0x15419, size: 0x8, addend: 0x0, symName: __RINvNtCsfvfooZQ3Axs_4core3ptr13drop_in_placeINtNtCse1nGBsou5OW_5alloc7raw_vec6RawVecTjNtCs3QdX7iRpTt9_10fax_derive4BitsEEEB1o_, symObjAddr: 0x10D4, symBinAddr: 0x9D64, symSize: 0x24 }
  - { offset: 0x15448, size: 0x8, addend: 0x0, symName: __RINvNtCsfvfooZQ3Axs_4core3ptr13drop_in_placeINtNtNtCscOYdFFY2T5N_3std2io5error9ErrorDataINtNtCse1nGBsou5OW_5alloc5boxed3BoxNtBJ_6CustomEEECs3QdX7iRpTt9_10fax_derive, symObjAddr: 0x10F8, symBinAddr: 0x9D88, symSize: 0x48 }
  - { offset: 0x15477, size: 0x8, addend: 0x0, symName: __RINvNtCsfvfooZQ3Axs_4core3ptr13drop_in_placeINtNtNtCse1nGBsou5OW_5alloc3vec9into_iter8IntoIterTNtCs3QdX7iRpTt9_10fax_derive11BitMapEntryNtNtCs5AlOhPCr03V_3syn5token5CommaEEEB1x_, symObjAddr: 0x1140, symBinAddr: 0x9DD0, symSize: 0x24 }
  - { offset: 0x154A6, size: 0x8, addend: 0x0, symName: __RINvNtCsfvfooZQ3Axs_4core3ptr13drop_in_placeINtNtNtCse1nGBsou5OW_5alloc3vec9into_iter8IntoIterTNtCs3QdX7iRpTt9_10fax_derive6BitMapNtNtCs5AlOhPCr03V_3syn5token5CommaEEEB1x_, symObjAddr: 0x1164, symBinAddr: 0x9DF4, symSize: 0x24 }
  - { offset: 0x154D5, size: 0x8, addend: 0x0, symName: __RINvNtCsfvfooZQ3Axs_4core3ptr13drop_in_placeINtNtNtNtB4_4iter8adapters3map3MapINtNtCs5AlOhPCr03V_3syn10punctuated9IntoPairsNtCs3QdX7iRpTt9_10fax_derive11BitMapEntryNtNtB1j_5token5CommaENCNvXs_B1Z_NtB1Z_6BitMapNtNtB1j_5parse5Parse5parse0EEB1Z_, symObjAddr: 0x1188, symBinAddr: 0x9E18, symSize: 0x24 }
  - { offset: 0x15504, size: 0x8, addend: 0x0, symName: __RINvNtCsfvfooZQ3Axs_4core3ptr13drop_in_placeINtNtNtNtB4_4iter8adapters3map3MapINtNtCs5AlOhPCr03V_3syn10punctuated9IntoPairsNtCs3QdX7iRpTt9_10fax_derive6BitMapNtNtB1j_5token5CommaENCNvXB1Z_NtB1Z_7BitMapsNtNtB1j_5parse5Parse5parse0EEB1Z_, symObjAddr: 0x11AC, symBinAddr: 0x9E3C, symSize: 0x24 }
  - { offset: 0x15533, size: 0x8, addend: 0x0, symName: __RINvNtCsfvfooZQ3Axs_4core3ptr13drop_in_placeINtNvXsd_NtNtCse1nGBsou5OW_5alloc3vec9into_iterINtBP_8IntoIterppENtNtNtB4_3ops4drop4Drop4drop9DropGuardTNtCs3QdX7iRpTt9_10fax_derive11BitMapEntryNtNtCs5AlOhPCr03V_3syn5token5CommaENtNtBT_5alloc6GlobalEEB2o_, symObjAddr: 0x11D0, symBinAddr: 0x9E60, symSize: 0x24 }
  - { offset: 0x15562, size: 0x8, addend: 0x0, symName: __RINvNtCsfvfooZQ3Axs_4core3ptr13drop_in_placeINtNvXsd_NtNtCse1nGBsou5OW_5alloc3vec9into_iterINtBP_8IntoIterppENtNtNtB4_3ops4drop4Drop4drop9DropGuardTNtCs3QdX7iRpTt9_10fax_derive6BitMapNtNtCs5AlOhPCr03V_3syn5token5CommaENtNtBT_5alloc6GlobalEEB2o_, symObjAddr: 0x11F4, symBinAddr: 0x9E84, symSize: 0x24 }
  - { offset: 0x15591, size: 0x8, addend: 0x0, symName: __RINvNtCsfvfooZQ3Axs_4core3ptr13drop_in_placeNCINvMsi_NtCse1nGBsou5OW_5alloc3vecINtBP_3VecINtNtB4_6option6OptionINtCs3QdX7iRpTt9_10fax_derive4NodejEEE14extend_trustedINtNtNtNtB4_4iter8adapters3map3MapINtNtNtB4_5slice4iter4IterIB1g_TjNtB1O_4BitsEEENCNvMs9_B1O_INtB1O_9PrefixLutjE11build_width0EE0EB1O_, symObjAddr: 0x1218, symBinAddr: 0x9EA8, symSize: 0x24 }
  - { offset: 0x155C0, size: 0x8, addend: 0x0, symName: __RINvNtCsfvfooZQ3Axs_4core3ptr13drop_in_placeNCINvMsi_NtCse1nGBsou5OW_5alloc3vecINtBP_3VecNtCs3cP53eQoTwO_11proc_macro211TokenStreamE14extend_trustedINtNtNtNtB4_4iter8adapters3map3MapINtNtB2r_9enumerate9EnumerateINtNtNtB4_5slice4iter4IterINtNtB4_6option6OptionINtCs3QdX7iRpTt9_10fax_derive4NodejEEEENCNvMs0_B4c_NtB4c_6BitMap4walks_0EE0EB4c_, symObjAddr: 0x123C, symBinAddr: 0x9ECC, symSize: 0x24 }
  - { offset: 0x155EF, size: 0x8, addend: 0x0, symName: __RINvNtCsfvfooZQ3Axs_4core3ptr13drop_in_placeNCINvMsi_NtCse1nGBsou5OW_5alloc3vecINtBP_3VecTjNtCs3QdX7iRpTt9_10fax_derive4BitsEE14extend_trustedINtNtNtNtB4_4iter8adapters3map3MapINtNtB2l_9enumerate9EnumerateINtNtNtB4_5slice4iter4IterNtB1t_11BitMapEntryEENCNvMs0_B1t_NtB1t_6BitMap5build0EE0EB1t_, symObjAddr: 0x1260, symBinAddr: 0x9EF0, symSize: 0x24 }
  - { offset: 0x1561E, size: 0x8, addend: 0x0, symName: __RINvNtCsfvfooZQ3Axs_4core3ptr13drop_in_placeNCINvNtNtNtB4_4iter8adapters3map8map_foldRINtNtCse1nGBsou5OW_5alloc3vec3VecTjNtCs3QdX7iRpTt9_10fax_derive4BitsEEINtNtB4_6option6OptionINtB1X_4NodejEEuNCNvMs9_B1X_INtB1X_9PrefixLutjE11build_width0NCINvNvNtNtNtBP_6traits8iterator8Iterator8for_each4callB2u_NCINvMsi_B1p_IB1n_B2u_E14extend_trustedINtBL_3MapINtNtNtB4_5slice4iter4IterB1m_EB36_EE0E0E0EB1X_, symObjAddr: 0x1284, symBinAddr: 0x9F14, symSize: 0x24 }
  - { offset: 0x1564D, size: 0x8, addend: 0x0, symName: __RINvNtCsfvfooZQ3Axs_4core3ptr13drop_in_placeNCINvNtNtNtB4_4iter8adapters3map8map_foldTjRINtNtB4_6option6OptionINtCs3QdX7iRpTt9_10fax_derive4NodejEEENtCs3cP53eQoTwO_11proc_macro211TokenStreamuNCNvMs0_B1N_NtB1N_6BitMap4walks_0NCINvNvNtNtNtBP_6traits8iterator8Iterator8for_each4callB2m_NCINvMsi_NtCse1nGBsou5OW_5alloc3vecINtB4G_3VecB2m_E14extend_trustedINtBL_3MapINtNtBN_9enumerate9EnumerateINtNtNtB4_5slice4iter4IterB1o_EEB33_EE0E0E0EB1N_, symObjAddr: 0x12A8, symBinAddr: 0x9F38, symSize: 0x24 }
  - { offset: 0x1567C, size: 0x8, addend: 0x0, symName: __RINvNtCsfvfooZQ3Axs_4core3ptr13drop_in_placeNCINvNtNtNtB4_4iter8adapters3map8map_foldTjRNtCs3QdX7iRpTt9_10fax_derive11BitMapEntryETjNtB1q_4BitsEuNCNvMs0_B1q_NtB1q_6BitMap5build0NCINvNvNtNtNtBP_6traits8iterator8Iterator8for_each4callB24_NCINvMsi_NtCse1nGBsou5OW_5alloc3vecINtB3V_3VecB24_E14extend_trustedINtBL_3MapINtNtBN_9enumerate9EnumerateINtNtNtB4_5slice4iter4IterB1o_EEB2j_EE0E0E0EB1q_, symObjAddr: 0x12CC, symBinAddr: 0x9F5C, symSize: 0x24 }
  - { offset: 0x156AB, size: 0x8, addend: 0x0, symName: __RINvNtCsfvfooZQ3Axs_4core3ptr13drop_in_placeNCINvNvNtNtNtNtB4_4iter6traits8iterator8Iterator8for_each4callINtNtB4_6option6OptionINtCs3QdX7iRpTt9_10fax_derive4NodejEENCINvMsi_NtCse1nGBsou5OW_5alloc3vecINtB2M_3VecB1G_E14extend_trustedINtNtNtBT_8adapters3map3MapINtNtNtB4_5slice4iter4IterIB3d_TjNtB25_4BitsEEENCNvMs9_B25_INtB25_9PrefixLutjE11build_width0EE0E0EB25_, symObjAddr: 0x12F0, symBinAddr: 0x9F80, symSize: 0x24 }
  - { offset: 0x156DA, size: 0x8, addend: 0x0, symName: __RINvNtCsfvfooZQ3Axs_4core3ptr13drop_in_placeNCINvNvNtNtNtNtB4_4iter6traits8iterator8Iterator8for_each4callNtCs3cP53eQoTwO_11proc_macro211TokenStreamNCINvMsi_NtCse1nGBsou5OW_5alloc3vecINtB2v_3VecB1G_E14extend_trustedINtNtNtBT_8adapters3map3MapINtNtB3w_9enumerate9EnumerateINtNtNtB4_5slice4iter4IterINtNtB4_6option6OptionINtCs3QdX7iRpTt9_10fax_derive4NodejEEEENCNvMs0_B5a_NtB5a_6BitMap4walks_0EE0E0EB5a_, symObjAddr: 0x1314, symBinAddr: 0x9FA4, symSize: 0x24 }
  - { offset: 0x15709, size: 0x8, addend: 0x0, symName: __RINvNtCsfvfooZQ3Axs_4core3ptr13drop_in_placeNCINvNvNtNtNtNtB4_4iter6traits8iterator8Iterator8for_each4callTjNtCs3QdX7iRpTt9_10fax_derive4BitsENCINvMsi_NtCse1nGBsou5OW_5alloc3vecINtB2p_3VecB1G_E14extend_trustedINtNtNtBT_8adapters3map3MapINtNtB3q_9enumerate9EnumerateINtNtNtB4_5slice4iter4IterNtB1K_11BitMapEntryEENCNvMs0_B1K_NtB1K_6BitMap5build0EE0E0EB1K_, symObjAddr: 0x1338, symBinAddr: 0x9FC8, symSize: 0x24 }
  - { offset: 0x15738, size: 0x8, addend: 0x0, symName: __RINvNtCsfvfooZQ3Axs_4core3ptr13drop_in_placeNCINvNvXs_NtNtNtB4_4iter8adapters9enumerateINtBQ_9EnumeratepENtNtNtBU_6traits8iterator8Iterator4fold9enumerateRINtNtB4_6option6OptionINtCs3QdX7iRpTt9_10fax_derive4NodejEEuNCINvNtBS_3map8map_foldTjB2s_ENtCs3cP53eQoTwO_11proc_macro211TokenStreamuNCNvMs0_B2S_NtB2S_6BitMap4walks_0NCINvNvB1F_8for_each4callB3V_NCINvMsi_NtCse1nGBsou5OW_5alloc3vecINtB5L_3VecB3V_E14extend_trustedINtB3w_3MapIB1o_INtNtNtB4_5slice4iter4IterB2t_EEB4C_EE0E0E0E0EB2S_, symObjAddr: 0x135C, symBinAddr: 0x9FEC, symSize: 0x24 }
  - { offset: 0x15767, size: 0x8, addend: 0x0, symName: __RINvNtCsfvfooZQ3Axs_4core3ptr13drop_in_placeNCINvNvXs_NtNtNtB4_4iter8adapters9enumerateINtBQ_9EnumeratepENtNtNtBU_6traits8iterator8Iterator4fold9enumerateRNtCs3QdX7iRpTt9_10fax_derive11BitMapEntryuNCINvNtBS_3map8map_foldTjB2s_ETjNtB2v_4BitsEuNCNvMs0_B2v_NtB2v_6BitMap5build0NCINvNvB1F_8for_each4callB3D_NCINvMsi_NtCse1nGBsou5OW_5alloc3vecINtB50_3VecB3D_E14extend_trustedINtB3e_3MapIB1o_INtNtNtB4_5slice4iter4IterB2t_EEB3S_EE0E0E0E0EB2v_, symObjAddr: 0x1380, symBinAddr: 0xA010, symSize: 0x24 }
  - { offset: 0x15796, size: 0x8, addend: 0x0, symName: __RINvNtCsfvfooZQ3Axs_4core3ptr13drop_in_placeNCNCINvNtNtCs9i5KxIbZ5ph_10proc_macro6bridge6client10run_clientNtBN_11TokenStreamINtNtB4_6option6OptionB1H_ENCNCINvMs7_BN_INtBN_6ClientNtBR_11TokenStreamB2R_E7expand1NvCs3QdX7iRpTt9_10fax_derive7bitmapsE00E00EB3o_, symObjAddr: 0x13A4, symBinAddr: 0xA034, symSize: 0x24 }
  - { offset: 0x157C5, size: 0x8, addend: 0x0, symName: __RINvNtCsfvfooZQ3Axs_4core3ptr13drop_in_placeNtCs3QdX7iRpTt9_10fax_derive11BitMapEntryEBI_, symObjAddr: 0x13C8, symBinAddr: 0xA058, symSize: 0x24 }
  - { offset: 0x157F4, size: 0x8, addend: 0x0, symName: __RINvNtCsfvfooZQ3Axs_4core3ptr13drop_in_placeNtCs3QdX7iRpTt9_10fax_derive6BitMapEBI_, symObjAddr: 0x13EC, symBinAddr: 0xA07C, symSize: 0x8C }
  - { offset: 0x15823, size: 0x8, addend: 0x0, symName: __RINvNtCsfvfooZQ3Axs_4core3ptr13drop_in_placeNtCs3QdX7iRpTt9_10fax_derive7BitMapsEBI_, symObjAddr: 0x1478, symBinAddr: 0xA108, symSize: 0x24 }
  - { offset: 0x15852, size: 0x8, addend: 0x0, symName: __RINvNtCsfvfooZQ3Axs_4core3ptr13drop_in_placeNtNtNtCs9i5KxIbZ5ph_10proc_macro6bridge3rpc12PanicMessageECs3QdX7iRpTt9_10fax_derive, symObjAddr: 0x149C, symBinAddr: 0xA12C, symSize: 0x50 }
  - { offset: 0x15881, size: 0x8, addend: 0x0, symName: __RINvNtCsfvfooZQ3Axs_4core3ptr13drop_in_placeNtNtNtCs9i5KxIbZ5ph_10proc_macro6bridge6buffer6BufferECs3QdX7iRpTt9_10fax_derive, symObjAddr: 0x14EC, symBinAddr: 0xA17C, symSize: 0x24 }
  - { offset: 0x158B0, size: 0x8, addend: 0x0, symName: __RINvNtCsfvfooZQ3Axs_4core3ptr13drop_in_placeNtNtNtCs9i5KxIbZ5ph_10proc_macro6bridge6client6BridgeECs3QdX7iRpTt9_10fax_derive, symObjAddr: 0x1510, symBinAddr: 0xA1A0, symSize: 0x24 }
  - { offset: 0x158DF, size: 0x8, addend: 0x0, symName: __RINvNtCsfvfooZQ3Axs_4core3ptr13drop_in_placeNtNtNtCscOYdFFY2T5N_3std2io5error5ErrorECs3QdX7iRpTt9_10fax_derive, symObjAddr: 0x1534, symBinAddr: 0xA1C4, symSize: 0x24 }
  - { offset: 0x1590E, size: 0x8, addend: 0x0, symName: __RINvNtCsfvfooZQ3Axs_4core3ptr13drop_in_placeNtNtNtCscOYdFFY2T5N_3std2io5error6CustomECs3QdX7iRpTt9_10fax_derive, symObjAddr: 0x1558, symBinAddr: 0xA1E8, symSize: 0x24 }
  - { offset: 0x1593D, size: 0x8, addend: 0x0, symName: __RINvNtCsfvfooZQ3Axs_4core3ptr13drop_in_placeNtNtNtNtCscOYdFFY2T5N_3std2io5error14repr_bitpacked4ReprECs3QdX7iRpTt9_10fax_derive, symObjAddr: 0x157C, symBinAddr: 0xA20C, symSize: 0x24 }
  - { offset: 0x1596C, size: 0x8, addend: 0x0, symName: __RINvNtCsfvfooZQ3Axs_4core3ptr13drop_in_placeNtNvNtNtNtCs9i5KxIbZ5ph_10proc_macro6bridge6client5state3set13RestoreOnDropECs3QdX7iRpTt9_10fax_derive, symObjAddr: 0x15A0, symBinAddr: 0xA230, symSize: 0x24 }
  - { offset: 0x1599B, size: 0x8, addend: 0x0, symName: __RINvNtCsfvfooZQ3Axs_4core3ptr13drop_in_placeSINtNtB4_6option6OptionINtCs3QdX7iRpTt9_10fax_derive4NodejEEEB16_, symObjAddr: 0x15C4, symBinAddr: 0xA254, symSize: 0xC4 }
  - { offset: 0x159CA, size: 0x8, addend: 0x0, symName: __RINvNtCsfvfooZQ3Axs_4core3ptr13drop_in_placeSINtNtCse1nGBsou5OW_5alloc3vec3VecTjNtCs3QdX7iRpTt9_10fax_derive4BitsEEEB1i_, symObjAddr: 0x1688, symBinAddr: 0xA318, symSize: 0xC4 }
  - { offset: 0x159F9, size: 0x8, addend: 0x0, symName: __RINvNtCsfvfooZQ3Axs_4core3ptr13drop_in_placeSNtCs3QdX7iRpTt9_10fax_derive11BitMapEntryEBJ_, symObjAddr: 0x174C, symBinAddr: 0xA3DC, symSize: 0xB4 }
  - { offset: 0x15A28, size: 0x8, addend: 0x0, symName: __RINvNtCsfvfooZQ3Axs_4core3ptr13drop_in_placeSNtCs3QdX7iRpTt9_10fax_derive6BitMapEBJ_, symObjAddr: 0x1800, symBinAddr: 0xA490, symSize: 0xC4 }
  - { offset: 0x15A57, size: 0x8, addend: 0x0, symName: __RINvNtCsfvfooZQ3Axs_4core3ptr13drop_in_placeSNtCs3cP53eQoTwO_11proc_macro211TokenStreamECs3QdX7iRpTt9_10fax_derive, symObjAddr: 0x18C4, symBinAddr: 0xA554, symSize: 0xB4 }
  - { offset: 0x15A86, size: 0x8, addend: 0x0, symName: __RINvNtCsfvfooZQ3Axs_4core3ptr13drop_in_placeSTNtCs3QdX7iRpTt9_10fax_derive11BitMapEntryNtNtCs5AlOhPCr03V_3syn5token5CommaEEBK_, symObjAddr: 0x1978, symBinAddr: 0xA608, symSize: 0xC4 }
  - { offset: 0x15AB5, size: 0x8, addend: 0x0, symName: __RINvNtCsfvfooZQ3Axs_4core3ptr13drop_in_placeSTNtCs3QdX7iRpTt9_10fax_derive6BitMapNtNtCs5AlOhPCr03V_3syn5token5CommaEEBK_, symObjAddr: 0x1A3C, symBinAddr: 0xA6CC, symSize: 0xC4 }
  - { offset: 0x15AE4, size: 0x8, addend: 0x0, symName: __RINvNtCsfvfooZQ3Axs_4core3ptr13drop_in_placeTNtCs3QdX7iRpTt9_10fax_derive11BitMapEntryNtNtCs5AlOhPCr03V_3syn5token5CommaEEBJ_, symObjAddr: 0x1B00, symBinAddr: 0xA790, symSize: 0x24 }
  - { offset: 0x15B13, size: 0x8, addend: 0x0, symName: __RINvNtCsfvfooZQ3Axs_4core3ptr13drop_in_placeTNtCs3QdX7iRpTt9_10fax_derive6BitMapNtNtCs5AlOhPCr03V_3syn5token5CommaEEBJ_, symObjAddr: 0x1B24, symBinAddr: 0xA7B4, symSize: 0x24 }
  - { offset: 0x15D70, size: 0x8, addend: 0x0, symName: __RNvNvNtCsfvfooZQ3Axs_4core3ptr13read_volatile18precondition_checkCs3QdX7iRpTt9_10fax_derive, symObjAddr: 0x3620, symBinAddr: 0xC2B0, symSize: 0x100 }
  - { offset: 0x19456, size: 0x8, addend: 0x0, symName: __RNvXs1_NtCsfvfooZQ3Axs_4core7convertNtCs3cP53eQoTwO_11proc_macro211TokenStreamINtB5_4IntoBy_E4intoCs3QdX7iRpTt9_10fax_derive, symObjAddr: 0x3BDC, symBinAddr: 0xC86C, symSize: 0x14 }
  - { offset: 0x19487, size: 0x8, addend: 0x0, symName: __RNvXs1_NtCsfvfooZQ3Axs_4core7convertNtCs3cP53eQoTwO_11proc_macro211TokenStreamINtB5_4IntoBy_E4intoCs3QdX7iRpTt9_10fax_derive, symObjAddr: 0x3BDC, symBinAddr: 0xC86C, symSize: 0x14 }
  - { offset: 0x19689, size: 0x8, addend: 0x0, symName: __RNvYNCNkNvNtNtNtCs9i5KxIbZ5ph_10proc_macro6bridge6client5state12BRIDGE_STATE0s_0INtNtNtCsfvfooZQ3Axs_4core3ops8function6FnOnceTINtNtB1n_6option6OptionQIB22_INtNtB1n_4cell4CellPuEEEEE9call_onceCs3QdX7iRpTt9_10fax_derive, symObjAddr: 0x4820, symBinAddr: 0xD4B0, symSize: 0x4C }
  - { offset: 0x196CD, size: 0x8, addend: 0x0, symName: __RNvYNcNtINtNtCs5AlOhPCr03V_3syn10punctuated4PairNtCs3QdX7iRpTt9_10fax_derive11BitMapEntryNtNtBb_5token5CommaE3End0INtNtNtCsfvfooZQ3Axs_4core3ops8function6FnOnceTBK_EE9call_onceBM_, symObjAddr: 0x486C, symBinAddr: 0xD4FC, symSize: 0x48 }
  - { offset: 0x19711, size: 0x8, addend: 0x0, symName: __RNvYNcNtINtNtCs5AlOhPCr03V_3syn10punctuated4PairNtCs3QdX7iRpTt9_10fax_derive6BitMapNtNtBb_5token5CommaE3End0INtNtNtCsfvfooZQ3Axs_4core3ops8function6FnOnceTBK_EE9call_onceBM_, symObjAddr: 0x48B4, symBinAddr: 0xD544, symSize: 0x48 }
  - { offset: 0x19755, size: 0x8, addend: 0x0, symName: __RNvYNvYNtCs3QdX7iRpTt9_10fax_derive7BitMapsNtNtCs5AlOhPCr03V_3syn17parse_macro_input15ParseMacroInput5parseINtNtNtCsfvfooZQ3Axs_4core3ops8function6FnOnceTRNtNtBJ_5parse11ParseBufferEE9call_onceB7_, symObjAddr: 0x4924, symBinAddr: 0xD5B4, symSize: 0x24 }
  - { offset: 0x19799, size: 0x8, addend: 0x0, symName: __RNvYNvYNtNtNtCs9i5KxIbZ5ph_10proc_macro6bridge3rpc12PanicMessageINtNtCsfvfooZQ3Axs_4core7convert4FromINtNtCse1nGBsou5OW_5alloc5boxed3BoxDNtNtB15_3any3AnyNtNtB15_6marker4SendEL_EE4fromINtNtNtB15_3ops8function6FnOnceTB1B_EE9call_onceCs3QdX7iRpTt9_10fax_derive, symObjAddr: 0x4948, symBinAddr: 0xD5D8, symSize: 0x2C }
  - { offset: 0x197E3, size: 0x8, addend: 0x0, symName: __RNvYNvCs3QdX7iRpTt9_10fax_derive7bitmapsINtNtNtCsfvfooZQ3Axs_4core3ops8function2FnTNtCs9i5KxIbZ5ph_10proc_macro11TokenStreamEE4callB4_, symObjAddr: 0x48FC, symBinAddr: 0xD58C, symSize: 0x28 }
  - { offset: 0x1982D, size: 0x8, addend: 0x0, symName: __RNvYNvYhNtNtCsfvfooZQ3Axs_4core3cmp3Ord3cmpINtNtNtBa_3ops8function5FnMutTRhB19_EE8call_mutCs3QdX7iRpTt9_10fax_derive, symObjAddr: 0x4974, symBinAddr: 0xD604, symSize: 0x30 }
  - { offset: 0x19B8B, size: 0x8, addend: 0x0, symName: __RNvMNtCsfvfooZQ3Axs_4core5sliceSNtCs3cP53eQoTwO_11proc_macro211TokenStream4iterCs3QdX7iRpTt9_10fax_derive, symObjAddr: 0x2C88, symBinAddr: 0xB918, symSize: 0x28 }
  - { offset: 0x19C10, size: 0x8, addend: 0x0, symName: __RNvMNtCsfvfooZQ3Axs_4core5sliceSh15copy_from_sliceCs3QdX7iRpTt9_10fax_derive, symObjAddr: 0x2CB0, symBinAddr: 0xB940, symSize: 0xA4 }
  - { offset: 0x19CE6, size: 0x8, addend: 0x0, symName: __RINvXs2U_NtNtCsfvfooZQ3Axs_4core5slice4iterINtB7_4IterINtNtBb_6option6OptionINtCs3QdX7iRpTt9_10fax_derive4NodejEEENtNtNtNtBb_4iter6traits8iterator8Iterator4folddNCINvNtNtB1U_8adapters10filter_map15filter_map_foldRBQ_ddNCNvMs9_B1f_INtB1f_9PrefixLutjE4cost0NCINvXs1E_NtB1S_5accumdNtB4f_3Sum3sumINtB2E_9FilterMapBF_B3u_EE0E0EB1f_, symObjAddr: 0x1BA4, symBinAddr: 0xA834, symSize: 0x1BC }
  - { offset: 0x19E3E, size: 0x8, addend: 0x0, symName: __RINvXs2U_NtNtCsfvfooZQ3Axs_4core5slice4iterINtB7_4IterINtNtBb_6option6OptionINtCs3QdX7iRpTt9_10fax_derive4NodejEEENtNtNtNtBb_4iter6traits8iterator8Iterator4folduNCINvNvXs_NtNtB1U_8adapters9enumerateINtB2J_9EnumeratepEB1O_4fold9enumerateRBQ_uNCINvNtB2L_3map8map_foldTjB3M_ENtCs3cP53eQoTwO_11proc_macro211TokenStreamuNCNvMs0_B1f_NtB1f_6BitMap4walks_0NCINvNvB1O_8for_each4callB4m_NCINvMsi_NtCse1nGBsou5OW_5alloc3vecINtB6c_3VecB4m_E14extend_trustedINtB3W_3MapIB3b_BF_EB53_EE0E0E0E0EB1f_, symObjAddr: 0x1D60, symBinAddr: 0xA9F0, symSize: 0x1B8 }
  - { offset: 0x19F92, size: 0x8, addend: 0x0, symName: __RINvXs2U_NtNtCsfvfooZQ3Axs_4core5slice4iterINtB7_4IterINtNtCse1nGBsou5OW_5alloc3vec3VecTjNtCs3QdX7iRpTt9_10fax_derive4BitsEEENtNtNtNtBb_4iter6traits8iterator8Iterator4folduNCINvNtNtB25_8adapters3map8map_foldRBQ_INtNtBb_6option6OptionINtB1r_4NodejEEuNCNvMs9_B1r_INtB1r_9PrefixLutjE11build_width0NCINvNvB1Z_8for_each4callB3n_NCINvMsi_BT_IBR_B3n_E14extend_trustedINtB2P_3MapBF_B3Z_EE0E0E0EB1r_, symObjAddr: 0x1F18, symBinAddr: 0xABA8, symSize: 0x1B8 }
  - { offset: 0x1A0E6, size: 0x8, addend: 0x0, symName: __RINvXs2U_NtNtCsfvfooZQ3Axs_4core5slice4iterINtB7_4IterNtCs3QdX7iRpTt9_10fax_derive11BitMapEntryENtNtNtNtBb_4iter6traits8iterator8Iterator4folduNCINvNvXs_NtNtB1C_8adapters9enumerateINtB2r_9EnumeratepEB1w_4fold9enumerateRBQ_uNCINvNtB2t_3map8map_foldTjB3u_ETjNtBS_4BitsEuNCNvMs0_BS_NtBS_6BitMap5build0NCINvNvB1w_8for_each4callB44_NCINvMsi_NtCse1nGBsou5OW_5alloc3vecINtB5o_3VecB44_E14extend_trustedINtB3E_3MapIB2T_BF_EB4i_EE0E0E0E0EBS_, symObjAddr: 0x20D0, symBinAddr: 0xAD60, symSize: 0x1B0 }
  - { offset: 0x1A23A, size: 0x8, addend: 0x0, symName: __RINvXs2U_NtNtCsfvfooZQ3Axs_4core5slice4iterINtB7_4IterTjNtCs3QdX7iRpTt9_10fax_derive4BitsEENtNtNtNtBb_4iter6traits8iterator8Iterator4foldhNCINvNtNtB1x_8adapters3map8map_foldRBQ_hhNCNvMs8_BU_INtBU_4NodejE12build_prefix0NCINvNvB1r_6max_by4foldhNvYhNtNtBb_3cmp3Ord3cmpE0E0EBU_, symObjAddr: 0x2280, symBinAddr: 0xAF10, symSize: 0x1B4 }
  - { offset: 0x1A392, size: 0x8, addend: 0x0, symName: __RINvXs2U_NtNtCsfvfooZQ3Axs_4core5slice4iterINtB7_4IterTjNtCs3QdX7iRpTt9_10fax_derive4BitsEENtNtNtNtBb_4iter6traits8iterator8Iterator4foldhNCINvNtNtB1x_8adapters3map8map_foldRBQ_hhNCNvMs9_BU_INtBU_9PrefixLutjE5build0NCINvNvB1r_6max_by4foldhNvYhNtNtBb_3cmp3Ord3cmpE0E0EBU_, symObjAddr: 0x2434, symBinAddr: 0xB0C4, symSize: 0x1B4 }
  - { offset: 0x1A4EA, size: 0x8, addend: 0x0, symName: __RNvXs2U_NtNtCsfvfooZQ3Axs_4core5slice4iterINtB6_4IterINtNtBa_6option6OptionINtCs3QdX7iRpTt9_10fax_derive4NodejEEENtNtNtNtBa_4iter6traits8iterator8Iterator9size_hintB1e_, symObjAddr: 0x3BF0, symBinAddr: 0xC880, symSize: 0x70 }
  - { offset: 0x1A559, size: 0x8, addend: 0x0, symName: __RNvXs2U_NtNtCsfvfooZQ3Axs_4core5slice4iterINtB6_4IterINtNtBa_6option6OptionTjhEEENtNtNtNtBa_4iter6traits8iterator8Iterator4nextCs3QdX7iRpTt9_10fax_derive, symObjAddr: 0x3C60, symBinAddr: 0xC8F0, symSize: 0xBC }
  - { offset: 0x1A6A7, size: 0x8, addend: 0x0, symName: __RNvXs2U_NtNtCsfvfooZQ3Axs_4core5slice4iterINtB6_4IterINtNtCse1nGBsou5OW_5alloc3vec3VecTjNtCs3QdX7iRpTt9_10fax_derive4BitsEEENtNtNtNtBa_4iter6traits8iterator8Iterator9size_hintB1q_, symObjAddr: 0x3D1C, symBinAddr: 0xC9AC, symSize: 0x70 }
  - { offset: 0x1A716, size: 0x8, addend: 0x0, symName: __RNvXs2U_NtNtCsfvfooZQ3Axs_4core5slice4iterINtB6_4IterNtCs3QdX7iRpTt9_10fax_derive11BitMapEntryENtNtNtNtBa_4iter6traits8iterator8Iterator4nextBR_, symObjAddr: 0x3D8C, symBinAddr: 0xCA1C, symSize: 0xBC }
  - { offset: 0x1A864, size: 0x8, addend: 0x0, symName: __RNvXs2U_NtNtCsfvfooZQ3Axs_4core5slice4iterINtB6_4IterNtCs3QdX7iRpTt9_10fax_derive11BitMapEntryENtNtNtNtBa_4iter6traits8iterator8Iterator9size_hintBR_, symObjAddr: 0x3E48, symBinAddr: 0xCAD8, symSize: 0x70 }
  - { offset: 0x1A8D3, size: 0x8, addend: 0x0, symName: __RNvXs2U_NtNtCsfvfooZQ3Axs_4core5slice4iterINtB6_4IterNtCs3QdX7iRpTt9_10fax_derive6BitMapENtNtNtNtBa_4iter6traits8iterator8Iterator4nextBR_, symObjAddr: 0x3EB8, symBinAddr: 0xCB48, symSize: 0xBC }
  - { offset: 0x1AA21, size: 0x8, addend: 0x0, symName: __RNvXs2U_NtNtCsfvfooZQ3Axs_4core5slice4iterINtB6_4IterNtCs3cP53eQoTwO_11proc_macro211TokenStreamENtNtNtNtBa_4iter6traits8iterator8Iterator4nextCs3QdX7iRpTt9_10fax_derive, symObjAddr: 0x3F74, symBinAddr: 0xCC04, symSize: 0xBC }
  - { offset: 0x1AB6F, size: 0x8, addend: 0x0, symName: __RNvXs2U_NtNtCsfvfooZQ3Axs_4core5slice4iterINtB6_4IterTjNtCs3QdX7iRpTt9_10fax_derive4BitsEENtNtNtNtBa_4iter6traits8iterator8Iterator4nextBT_, symObjAddr: 0x4030, symBinAddr: 0xCCC0, symSize: 0xBC }
  - { offset: 0x1B0F3, size: 0x8, addend: 0x0, symName: __RNvNvNtNtCsfvfooZQ3Axs_4core5slice3raw14from_raw_parts18precondition_checkCs3QdX7iRpTt9_10fax_derive, symObjAddr: 0x3720, symBinAddr: 0xC3B0, symSize: 0x168 }
  - { offset: 0x1B239, size: 0x8, addend: 0x0, symName: __RNvNvNtNtCsfvfooZQ3Axs_4core5slice3raw18from_raw_parts_mut18precondition_checkCs3QdX7iRpTt9_10fax_derive, symObjAddr: 0x3888, symBinAddr: 0xC518, symSize: 0x168 }
  - { offset: 0x1B6A3, size: 0x8, addend: 0x0, symName: __RNvNvMs9_NtCsfvfooZQ3Axs_4core3numj13unchecked_add18precondition_checkCs3QdX7iRpTt9_10fax_derive, symObjAddr: 0x35DC, symBinAddr: 0xC26C, symSize: 0x44 }
  - { offset: 0x1B83C, size: 0x8, addend: 0x0, symName: __RNvNvMs4_NtCsfvfooZQ3Axs_4core3numh13unchecked_add18precondition_checkCs3QdX7iRpTt9_10fax_derive, symObjAddr: 0x354C, symBinAddr: 0xC1DC, symSize: 0x48 }
  - { offset: 0x1B8CE, size: 0x8, addend: 0x0, symName: __RNvNvMs5_NtCsfvfooZQ3Axs_4core3numt13unchecked_add18precondition_checkCs3QdX7iRpTt9_10fax_derive, symObjAddr: 0x3594, symBinAddr: 0xC224, symSize: 0x48 }
  - { offset: 0x1B9FE, size: 0x8, addend: 0x0, symName: __RNCINvNvXs_NtNtNtCsfvfooZQ3Axs_4core4iter8adapters9enumerateINtB9_9EnumeratepENtNtNtBd_6traits8iterator8Iterator4fold9enumerateRINtNtBf_6option6OptionINtCs3QdX7iRpTt9_10fax_derive4NodejEEuNCINvNtBb_3map8map_foldTjB21_ENtCs3cP53eQoTwO_11proc_macro211TokenStreamuNCNvMs0_B2r_NtB2r_6BitMap4walks_0NCINvNvB1e_8for_each4callB3u_NCINvMsi_NtCse1nGBsou5OW_5alloc3vecINtB5k_3VecB3u_E14extend_trustedINtB35_3MapIBX_INtNtNtBf_5slice4iter4IterB22_EEB4b_EE0E0E0E0B2r_, symObjAddr: 0x2944, symBinAddr: 0xB5D4, symSize: 0x8C }
  - { offset: 0x1BA86, size: 0x8, addend: 0x0, symName: __RNCINvNvXs_NtNtNtCsfvfooZQ3Axs_4core4iter8adapters9enumerateINtB9_9EnumeratepENtNtNtBd_6traits8iterator8Iterator4fold9enumerateRNtCs3QdX7iRpTt9_10fax_derive11BitMapEntryuNCINvNtBb_3map8map_foldTjB21_ETjNtB24_4BitsEuNCNvMs0_B24_NtB24_6BitMap5build0NCINvNvB1e_8for_each4callB3c_NCINvMsi_NtCse1nGBsou5OW_5alloc3vecINtB4z_3VecB3c_E14extend_trustedINtB2N_3MapIBX_INtNtNtBf_5slice4iter4IterB22_EEB3r_EE0E0E0E0B24_, symObjAddr: 0x29D0, symBinAddr: 0xB660, symSize: 0x8C }
  - { offset: 0x1BB52, size: 0x8, addend: 0x0, symName: __RINvXs_NtNtNtCsfvfooZQ3Axs_4core4iter8adapters9enumerateINtB5_9EnumerateINtNtNtBb_5slice4iter4IterINtNtBb_6option6OptionINtCs3QdX7iRpTt9_10fax_derive4NodejEEEENtNtNtB9_6traits8iterator8Iterator4folduNCINvNtB7_3map8map_foldTjRB1y_ENtCs3cP53eQoTwO_11proc_macro211TokenStreamuNCNvMs0_B1X_NtB1X_6BitMap4walks_0NCINvNvB2x_8for_each4callB3G_NCINvMsi_NtCse1nGBsou5OW_5alloc3vecINtB5w_3VecB3G_E14extend_trustedINtB3g_3MapBS_B4n_EE0E0E0EB1X_, symObjAddr: 0x261C, symBinAddr: 0xB2AC, symSize: 0x60 }
  - { offset: 0x1BBD9, size: 0x8, addend: 0x0, symName: __RINvXs_NtNtNtCsfvfooZQ3Axs_4core4iter8adapters9enumerateINtB5_9EnumerateINtNtNtBb_5slice4iter4IterNtCs3QdX7iRpTt9_10fax_derive11BitMapEntryEENtNtNtB9_6traits8iterator8Iterator4folduNCINvNtB7_3map8map_foldTjRB1y_ETjNtB1A_4BitsEuNCNvMs0_B1A_NtB1A_6BitMap5build0NCINvNvB2f_8for_each4callB3o_NCINvMsi_NtCse1nGBsou5OW_5alloc3vecINtB4L_3VecB3o_E14extend_trustedINtB2Y_3MapBS_B3D_EE0E0E0EB1A_, symObjAddr: 0x267C, symBinAddr: 0xB30C, symSize: 0x4C }
  - { offset: 0x1BC60, size: 0x8, addend: 0x0, symName: __RNvXs_NtNtNtCsfvfooZQ3Axs_4core4iter8adapters9enumerateINtB4_9EnumerateINtNtNtBa_5slice4iter4IterINtNtBa_6option6OptionINtCs3QdX7iRpTt9_10fax_derive4NodejEEEENtNtNtB8_6traits8iterator8Iterator9size_hintB1W_, symObjAddr: 0x43F4, symBinAddr: 0xD084, symSize: 0x24 }
  - { offset: 0x1BC95, size: 0x8, addend: 0x0, symName: __RNvXs_NtNtNtCsfvfooZQ3Axs_4core4iter8adapters9enumerateINtB4_9EnumerateINtNtNtBa_5slice4iter4IterNtCs3QdX7iRpTt9_10fax_derive11BitMapEntryEENtNtNtB8_6traits8iterator8Iterator9size_hintB1z_, symObjAddr: 0x4418, symBinAddr: 0xD0A8, symSize: 0x24 }
  - { offset: 0x1C1A8, size: 0x8, addend: 0x0, symName: __RINvYINtNtNtCsfvfooZQ3Axs_4core5slice4iter4IterINtNtBa_6option6OptionINtCs3QdX7iRpTt9_10fax_derive4NodejEEENtNtNtNtBa_4iter6traits8iterator8Iterator10filter_mapdNCNvMs9_B18_INtB18_9PrefixLutjE4cost0EB18_, symObjAddr: 0x26C8, symBinAddr: 0xB358, symSize: 0x1C }
  - { offset: 0x1C200, size: 0x8, addend: 0x0, symName: __RINvYINtNtNtCsfvfooZQ3Axs_4core5slice4iter4IterINtNtBa_6option6OptionTjhEEENtNtNtNtBa_4iter6traits8iterator8Iterator3mapNtCs3cP53eQoTwO_11proc_macro211TokenStreamNCNvMs0_Cs3QdX7iRpTt9_10fax_deriveNtB2I_6BitMap4walk0EB2I_, symObjAddr: 0x26E4, symBinAddr: 0xB374, symSize: 0x30 }
  - { offset: 0x1C26D, size: 0x8, addend: 0x0, symName: __RINvYINtNtNtCsfvfooZQ3Axs_4core5slice4iter4IterINtNtCse1nGBsou5OW_5alloc3vec3VecTjNtCs3QdX7iRpTt9_10fax_derive4BitsEEENtNtNtNtBa_4iter6traits8iterator8Iterator3mapINtNtBa_6option6OptionINtB1k_4NodejEENCNvMs9_B1k_INtB1k_9PrefixLutjE11build_width0EB1k_, symObjAddr: 0x2714, symBinAddr: 0xB3A4, symSize: 0x30 }
  - { offset: 0x1C2DA, size: 0x8, addend: 0x0, symName: __RINvYINtNtNtCsfvfooZQ3Axs_4core5slice4iter4IterNtCs3QdX7iRpTt9_10fax_derive11BitMapEntryENtNtNtNtBa_4iter6traits8iterator8Iterator3mapNtCs3cP53eQoTwO_11proc_macro211TokenStreamNCNCNvBL_7bitmaps00EBL_, symObjAddr: 0x2744, symBinAddr: 0xB3D4, symSize: 0x1C }
  - { offset: 0x1C332, size: 0x8, addend: 0x0, symName: __RINvYINtNtNtCsfvfooZQ3Axs_4core5slice4iter4IterNtCs3QdX7iRpTt9_10fax_derive11BitMapEntryENtNtNtNtBa_4iter6traits8iterator8Iterator3mapNtCs3cP53eQoTwO_11proc_macro211TokenStreamNCNCNvBL_7bitmaps0s_0EBL_, symObjAddr: 0x2760, symBinAddr: 0xB3F0, symSize: 0x1C }
  - { offset: 0x1C38A, size: 0x8, addend: 0x0, symName: __RINvYINtNtNtCsfvfooZQ3Axs_4core5slice4iter4IterNtCs3QdX7iRpTt9_10fax_derive6BitMapENtNtNtNtBa_4iter6traits8iterator8Iterator3mapNtCs3cP53eQoTwO_11proc_macro211TokenStreamNCNvBL_7bitmaps0EBL_, symObjAddr: 0x277C, symBinAddr: 0xB40C, symSize: 0x1C }
  - { offset: 0x1C3E2, size: 0x8, addend: 0x0, symName: __RINvYINtNtNtCsfvfooZQ3Axs_4core5slice4iter4IterTjNtCs3QdX7iRpTt9_10fax_derive4BitsEENtNtNtNtBa_4iter6traits8iterator8Iterator3maphNCNvMs8_BN_INtBN_4NodejE12build_prefix0EBN_, symObjAddr: 0x2798, symBinAddr: 0xB428, symSize: 0x1C }
  - { offset: 0x1C43A, size: 0x8, addend: 0x0, symName: __RINvYINtNtNtCsfvfooZQ3Axs_4core5slice4iter4IterTjNtCs3QdX7iRpTt9_10fax_derive4BitsEENtNtNtNtBa_4iter6traits8iterator8Iterator3maphNCNvMs9_BN_INtBN_9PrefixLutjE5build0EBN_, symObjAddr: 0x27B4, symBinAddr: 0xB444, symSize: 0x1C }
  - { offset: 0x1C492, size: 0x8, addend: 0x0, symName: __RINvYINtNtNtNtCsfvfooZQ3Axs_4core4iter8adapters9enumerate9EnumerateINtNtNtBc_5slice4iter4IterINtNtBc_6option6OptionINtCs3QdX7iRpTt9_10fax_derive4NodejEEEENtNtNtBa_6traits8iterator8Iterator3mapNtCs3cP53eQoTwO_11proc_macro211TokenStreamNCNvMs0_B1S_NtB1S_6BitMap4walks_0EB1S_, symObjAddr: 0x27D0, symBinAddr: 0xB460, symSize: 0x24 }
  - { offset: 0x1C4D2, size: 0x8, addend: 0x0, symName: __RINvYINtNtNtNtCsfvfooZQ3Axs_4core4iter8adapters9enumerate9EnumerateINtNtNtBc_5slice4iter4IterINtNtBc_6option6OptionINtCs3QdX7iRpTt9_10fax_derive4NodejEEEENtNtNtBa_6traits8iterator8Iterator3mapNtCs3cP53eQoTwO_11proc_macro211TokenStreamNCNvMs0_B1S_NtB1S_6BitMap4walks_0EB1S_, symObjAddr: 0x27D0, symBinAddr: 0xB460, symSize: 0x24 }
  - { offset: 0x1C4FF, size: 0x8, addend: 0x0, symName: __RINvYINtNtNtNtCsfvfooZQ3Axs_4core4iter8adapters9enumerate9EnumerateINtNtNtBc_5slice4iter4IterNtCs3QdX7iRpTt9_10fax_derive11BitMapEntryEENtNtNtBa_6traits8iterator8Iterator3mapTjNtB1v_4BitsENCNvMs0_B1v_NtB1v_6BitMap5build0EB1v_, symObjAddr: 0x27F4, symBinAddr: 0xB484, symSize: 0x20 }
  - { offset: 0x1C56C, size: 0x8, addend: 0x0, symName: __RINvYNtNtCs3cP53eQoTwO_11proc_macro212token_stream8IntoIterNtNtNtNtCsfvfooZQ3Axs_4core4iter6traits8iterator8Iterator4folduNCINvNvBV_8for_each4callNtB7_9TokenTreeNCINvXsa_NtB7_8fallbackNtB2I_11TokenStreamINtNtBZ_7collect6ExtendB2k_E6extendNtB7_11TokenStreamE0E0ECs3QdX7iRpTt9_10fax_derive, symObjAddr: 0x2814, symBinAddr: 0xB4A4, symSize: 0x10C }
  - { offset: 0x1C5FD, size: 0x8, addend: 0x0, symName: __RINvYNtNtCs3cP53eQoTwO_11proc_macro212token_stream8IntoIterNtNtNtNtCsfvfooZQ3Axs_4core4iter6traits8iterator8Iterator8for_eachNCINvXsa_NtB7_8fallbackNtB28_11TokenStreamINtNtBZ_7collect6ExtendNtB7_9TokenTreeE6extendNtB7_11TokenStreamE0ECs3QdX7iRpTt9_10fax_derive, symObjAddr: 0x2920, symBinAddr: 0xB5B0, symSize: 0x24 }
  - { offset: 0x1C649, size: 0x8, addend: 0x0, symName: __RNvYINtNtNtCsfvfooZQ3Axs_4core5slice4iter4IterINtNtB9_6option6OptionINtCs3QdX7iRpTt9_10fax_derive4NodejEEENtNtNtNtB9_4iter6traits8iterator8Iterator9enumerateB17_, symObjAddr: 0x47D0, symBinAddr: 0xD460, symSize: 0x28 }
  - { offset: 0x1C695, size: 0x8, addend: 0x0, symName: __RNvYINtNtNtCsfvfooZQ3Axs_4core5slice4iter4IterNtCs3QdX7iRpTt9_10fax_derive11BitMapEntryENtNtNtNtB9_4iter6traits8iterator8Iterator9enumerateBK_, symObjAddr: 0x47F8, symBinAddr: 0xD488, symSize: 0x28 }
  - { offset: 0x1C70C, size: 0x8, addend: 0x0, symName: __RNvXNtNtNtCsfvfooZQ3Axs_4core4iter6traits7collectINtNtNtB8_3ops5range5RangehENtB2_12IntoIterator9into_iterCs3QdX7iRpTt9_10fax_derive, symObjAddr: 0x3AF4, symBinAddr: 0xC784, symSize: 0x14 }
  - { offset: 0x1C743, size: 0x8, addend: 0x0, symName: __RNvXNtNtNtCsfvfooZQ3Axs_4core4iter6traits7collectINtNtNtB8_3ops5range5RangetENtB2_12IntoIterator9into_iterCs3QdX7iRpTt9_10fax_derive, symObjAddr: 0x3B08, symBinAddr: 0xC798, symSize: 0x14 }
  - { offset: 0x1C7A0, size: 0x8, addend: 0x0, symName: __RNvXs3_NtNtCsfvfooZQ3Axs_4core4iter5rangeINtNtNtB9_3ops5range5RangehENtB5_17RangeIteratorImpl9spec_nextCs3QdX7iRpTt9_10fax_derive, symObjAddr: 0x40EC, symBinAddr: 0xCD7C, symSize: 0x94 }
  - { offset: 0x1C81B, size: 0x8, addend: 0x0, symName: __RNvXs3_NtNtCsfvfooZQ3Axs_4core4iter5rangeINtNtNtB9_3ops5range5RangetENtB5_17RangeIteratorImpl9spec_nextCs3QdX7iRpTt9_10fax_derive, symObjAddr: 0x4180, symBinAddr: 0xCE10, symSize: 0x90 }
  - { offset: 0x1C89C, size: 0x8, addend: 0x0, symName: __RNvXs4_NtNtCsfvfooZQ3Axs_4core4iter5rangeINtNtNtB9_3ops5range5RangehENtNtNtB7_6traits8iterator8Iterator4nextCs3QdX7iRpTt9_10fax_derive, symObjAddr: 0x4210, symBinAddr: 0xCEA0, symSize: 0x28 }
  - { offset: 0x1C8D3, size: 0x8, addend: 0x0, symName: __RNvXs4_NtNtCsfvfooZQ3Axs_4core4iter5rangeINtNtNtB9_3ops5range5RangetENtNtNtB7_6traits8iterator8Iterator4nextCs3QdX7iRpTt9_10fax_derive, symObjAddr: 0x4238, symBinAddr: 0xCEC8, symSize: 0x24 }
  - { offset: 0x1C99B, size: 0x8, addend: 0x0, symName: __RNvNvMNtNtCsfvfooZQ3Axs_4core5alloc6layoutNtB4_6Layout25from_size_align_unchecked18precondition_checkCs3QdX7iRpTt9_10fax_derive, symObjAddr: 0x34FC, symBinAddr: 0xC18C, symSize: 0x50 }
  - { offset: 0x1CBC7, size: 0x8, addend: 0x0, symName: __RNvXNtNtCsfvfooZQ3Axs_4core3str4iterNtB2_5CharsNtNtNtNtB6_4iter6traits8iterator8Iterator4nextCs3QdX7iRpTt9_10fax_derive, symObjAddr: 0x3A84, symBinAddr: 0xC714, symSize: 0x70 }
  - { offset: 0x1CD08, size: 0x8, addend: 0x0, symName: __RNvXsn_NtNtCsfvfooZQ3Axs_4core5panic11unwind_safeINtB5_16AssertUnwindSafeNCINvNtNtCs9i5KxIbZ5ph_10proc_macro6bridge6client10run_clientNtB1e_11TokenStreamINtNtB9_6option6OptionB28_ENCNCINvMs7_B1e_INtB1e_6ClientNtB1i_11TokenStreamB3l_E7expand1NvCs3QdX7iRpTt9_10fax_derive7bitmapsE00E0EINtNtNtB9_3ops8function6FnOnceuE9call_onceB3T_, symObjAddr: 0x466C, symBinAddr: 0xD2FC, symSize: 0x38 }
  - { offset: 0x1CD8B, size: 0x8, addend: 0x0, symName: __RNvYTjhENtNtCsfvfooZQ3Axs_4core5clone5Clone5cloneCs3QdX7iRpTt9_10fax_derive, symObjAddr: 0x49A4, symBinAddr: 0xD634, symSize: 0x2C }
  - { offset: 0x1CFF3, size: 0x8, addend: 0x0, symName: __RNvXs5_NtNtCs9i5KxIbZ5ph_10proc_macro6bridge6bufferNtB5_6BufferNtNtNtCsfvfooZQ3Axs_4core3ops4drop4Drop4dropCs3QdX7iRpTt9_10fax_derive, symObjAddr: 0x425C, symBinAddr: 0xCEEC, symSize: 0x8C }
  - { offset: 0x1D4B7, size: 0x8, addend: 0x0, symName: __RINvNvNtNtCs9i5KxIbZ5ph_10proc_macro6bridge14selfless_reify31reify_to_extern_c_fn_hrt_bridge7wrapperNtNtB6_6buffer6BufferNCINvMs7_NtB6_6clientINtB24_6ClientNtB8_11TokenStreamB2u_E7expand1NvCs3QdX7iRpTt9_10fax_derive7bitmapsE0EB31_, symObjAddr: 0x1B48, symBinAddr: 0xA7D8, symSize: 0x5C }
  - { offset: 0x1D555, size: 0x8, addend: 0x0, symName: __RNvXNtNtCs9i5KxIbZ5ph_10proc_macro6bridge3rpcuINtB2_6EncodeuE6encodeCs3QdX7iRpTt9_10fax_derive, symObjAddr: 0x3A70, symBinAddr: 0xC700, symSize: 0x14 }
  - { offset: 0x1D59C, size: 0x8, addend: 0x0, symName: __RNvXs9_NtNtCs9i5KxIbZ5ph_10proc_macro6bridge3rpcTINtB7_11ExpnGlobalsNtNtB7_6client4SpanENtB16_11TokenStreamEINtB5_9DecodeMutuE6decodeCs3QdX7iRpTt9_10fax_derive, symObjAddr: 0x42E8, symBinAddr: 0xCF78, symSize: 0x84 }
  - { offset: 0x1D629, size: 0x8, addend: 0x0, symName: __RNvXsa_NtNtCs9i5KxIbZ5ph_10proc_macro6bridge3rpcRShINtB5_6EncodeuE6encodeCs3QdX7iRpTt9_10fax_derive, symObjAddr: 0x443C, symBinAddr: 0xD0CC, symSize: 0xD0 }
  - { offset: 0x1D72B, size: 0x8, addend: 0x0, symName: __RNvXsc_NtNtCs9i5KxIbZ5ph_10proc_macro6bridge3rpcReINtB5_6EncodeuE6encodeCs3QdX7iRpTt9_10fax_derive, symObjAddr: 0x450C, symBinAddr: 0xD19C, symSize: 0x38 }
  - { offset: 0x1D813, size: 0x8, addend: 0x0, symName: __RNvXsl_NtNtCs9i5KxIbZ5ph_10proc_macro6bridge3rpcNtB5_12PanicMessageINtB5_6EncodeuE6encodeCs3QdX7iRpTt9_10fax_derive, symObjAddr: 0x4544, symBinAddr: 0xD1D4, symSize: 0x128 }
  - { offset: 0x1D9D9, size: 0x8, addend: 0x0, symName: __RNvXso_NtNtCs9i5KxIbZ5ph_10proc_macro6bridge3rpcmINtB5_9DecodeMutuE6decodeCs3QdX7iRpTt9_10fax_derive, symObjAddr: 0x46A4, symBinAddr: 0xD334, symSize: 0x108 }
  - { offset: 0x1DB27, size: 0x8, addend: 0x0, symName: __RNvXs1J_NtCs9i5KxIbZ5ph_10proc_macro6bridgeINtB6_11ExpnGlobalsNtNtB6_6client4SpanEINtNtB6_3rpc9DecodeMutuE6decodeCs3QdX7iRpTt9_10fax_derive, symObjAddr: 0x3B1C, symBinAddr: 0xC7AC, symSize: 0xB0 }
  - { offset: 0x1E3B8, size: 0x8, addend: 0x0, symName: __RINvXs4_Cs3cP53eQoTwO_11proc_macro2NtB6_11TokenStreamINtNtNtNtCsfvfooZQ3Axs_4core4iter6traits7collect6ExtendNtB6_9TokenTreeE6extendBx_ECs3QdX7iRpTt9_10fax_derive, symObjAddr: 0x25E8, symBinAddr: 0xB278, symSize: 0x34 }
  - { offset: 0x1E471, size: 0x8, addend: 0x0, symName: __RINvMs2_NtNtCscOYdFFY2T5N_3std6thread5localINtB6_8LocalKeyINtNtCsfvfooZQ3Axs_4core4cell4CellPuEE4withNCNvMs3_B6_BF_7replace0B1s_ECs3QdX7iRpTt9_10fax_derive, symObjAddr: 0x0, symBinAddr: 0x8CD8, symSize: 0x54 }
  - { offset: 0x1E52A, size: 0x8, addend: 0x0, symName: __RINvMs2_NtNtCscOYdFFY2T5N_3std6thread5localINtB6_8LocalKeyINtNtCsfvfooZQ3Axs_4core4cell4CellPuEE8try_withNCNvMs3_B6_BF_7replace0B1s_ECs3QdX7iRpTt9_10fax_derive, symObjAddr: 0x54, symBinAddr: 0x8D2C, symSize: 0xE4 }
  - { offset: 0x1E701, size: 0x8, addend: 0x0, symName: __RINvMs3_NtNtCs9i5KxIbZ5ph_10proc_macro6bridge6bufferNtB6_6Buffer17extend_from_arrayKj4_ECs3QdX7iRpTt9_10fax_derive, symObjAddr: 0x138, symBinAddr: 0x8E10, symSize: 0x16C }
  - { offset: 0x1E8C7, size: 0x8, addend: 0x0, symName: __RINvMs3_NtNtCs9i5KxIbZ5ph_10proc_macro6bridge6bufferNtB6_6Buffer17extend_from_arrayKj8_ECs3QdX7iRpTt9_10fax_derive, symObjAddr: 0x2A4, symBinAddr: 0x8F7C, symSize: 0x16C }
  - { offset: 0x23C62, size: 0x8, addend: 0x0, symName: __RNvNtCse1nGBsou5OW_5alloc5alloc12alloc_zeroedCs3QdX7iRpTt9_10fax_derive, symObjAddr: 0x3310, symBinAddr: 0xBFA0, symSize: 0x84 }
  - { offset: 0x23D26, size: 0x8, addend: 0x0, symName: __RNvXs_NtCse1nGBsou5OW_5alloc5allocNtB4_6GlobalNtNtCsfvfooZQ3Axs_4core5alloc9Allocator10deallocateCs3QdX7iRpTt9_10fax_derive, symObjAddr: 0x436C, symBinAddr: 0xCFFC, symSize: 0x88 }
  - { offset: 0x23E02, size: 0x8, addend: 0x0, symName: __RNvNtCse1nGBsou5OW_5alloc5alloc15exchange_mallocCs3QdX7iRpTt9_10fax_derive, symObjAddr: 0x3394, symBinAddr: 0xC024, symSize: 0xA4 }
  - { offset: 0x23E99, size: 0x8, addend: 0x0, symName: __RNvNtCse1nGBsou5OW_5alloc5alloc5allocCs3QdX7iRpTt9_10fax_derive, symObjAddr: 0x3438, symBinAddr: 0xC0C8, symSize: 0x84 }
  - { offset: 0x23F35, size: 0x8, addend: 0x0, symName: __RNvXs1_NtCse1nGBsou5OW_5alloc5allocNtB5_6GlobalNtNtCsfvfooZQ3Axs_4core5clone5Clone5cloneCs3QdX7iRpTt9_10fax_derive, symObjAddr: 0x3BCC, symBinAddr: 0xC85C, symSize: 0x10 }
  - { offset: 0x23FD5, size: 0x8, addend: 0x0, symName: __RNvXss_NtCse1nGBsou5OW_5alloc6stringNtB5_6StringNtNtNtCsfvfooZQ3Axs_4core3ops5deref5Deref5derefCs3QdX7iRpTt9_10fax_derive, symObjAddr: 0x47AC, symBinAddr: 0xD43C, symSize: 0x24 }
  - { offset: 0x25317, size: 0x8, addend: 0x0, symName: __RNvNtCse1nGBsou5OW_5alloc3fmt6formatCs3QdX7iRpTt9_10fax_derive, symObjAddr: 0x323C, symBinAddr: 0xBECC, symSize: 0xD4 }
  - { offset: 0x25676, size: 0x8, addend: 0x0, symName: __RINvMs7_NtCs5AlOhPCr03V_3syn5parseNtB6_11ParseBuffer5parseNtCs3QdX7iRpTt9_10fax_derive4BitsEBW_, symObjAddr: 0x410, symBinAddr: 0x90E8, symSize: 0x34 }
  - { offset: 0x256A2, size: 0x8, addend: 0x0, symName: __RINvMs7_NtCs5AlOhPCr03V_3syn5parseNtB6_11ParseBuffer5parseNtCs3cP53eQoTwO_11proc_macro27LiteralECs3QdX7iRpTt9_10fax_derive, symObjAddr: 0x444, symBinAddr: 0x911C, symSize: 0x34 }
  - { offset: 0x260E5, size: 0x8, addend: 0x0, symName: __RNvMNtCse1nGBsou5OW_5alloc5allocNtB2_6Global10alloc_implCs3QdX7iRpTt9_10fax_derive, symObjAddr: 0x2A84, symBinAddr: 0xB714, symSize: 0x194 }
  - { offset: 0x264BB, size: 0x8, addend: 0x0, symName: __RNvMNtCse1nGBsou5OW_5alloc6stringNtB2_6String6as_strCs3QdX7iRpTt9_10fax_derive, symObjAddr: 0x2C18, symBinAddr: 0xB8A8, symSize: 0x70 }
  - { offset: 0x265F4, size: 0x8, addend: 0x0, symName: __RNvMs3_NtNtCs9i5KxIbZ5ph_10proc_macro6bridge6bufferNtB5_6Buffer17extend_from_sliceCs3QdX7iRpTt9_10fax_derive, symObjAddr: 0x2D54, symBinAddr: 0xB9E4, symSize: 0x164 }
  - { offset: 0x267B0, size: 0x8, addend: 0x0, symName: __RNvMs3_NtNtCs9i5KxIbZ5ph_10proc_macro6bridge6bufferNtB5_6Buffer4pushCs3QdX7iRpTt9_10fax_derive, symObjAddr: 0x2EB8, symBinAddr: 0xBB48, symSize: 0x134 }
  - { offset: 0x26955, size: 0x8, addend: 0x0, symName: __RNvMs4_NtNtCsfvfooZQ3Axs_4core5slice4iterINtB5_4IterINtNtB9_6option6OptionINtCs3QdX7iRpTt9_10fax_derive4NodejEEE3newB1d_, symObjAddr: 0x2FEC, symBinAddr: 0xBC7C, symSize: 0x58 }
  - { offset: 0x26B23, size: 0x8, addend: 0x0, symName: __RNvMs4_NtNtCsfvfooZQ3Axs_4core5slice4iterINtB5_4IterINtNtB9_6option6OptionTjhEEE3newCs3QdX7iRpTt9_10fax_derive, symObjAddr: 0x3044, symBinAddr: 0xBCD4, symSize: 0x58 }
  - { offset: 0x26CE4, size: 0x8, addend: 0x0, symName: __RNvMs4_NtNtCsfvfooZQ3Axs_4core5slice4iterINtB5_4IterINtNtCse1nGBsou5OW_5alloc3vec3VecTjNtCs3QdX7iRpTt9_10fax_derive4BitsEEE3newB1p_, symObjAddr: 0x309C, symBinAddr: 0xBD2C, symSize: 0x58 }
  - { offset: 0x26EA5, size: 0x8, addend: 0x0, symName: __RNvMs4_NtNtCsfvfooZQ3Axs_4core5slice4iterINtB5_4IterNtCs3QdX7iRpTt9_10fax_derive11BitMapEntryE3newBQ_, symObjAddr: 0x30F4, symBinAddr: 0xBD84, symSize: 0x50 }
  - { offset: 0x27080, size: 0x8, addend: 0x0, symName: __RNvMs4_NtNtCsfvfooZQ3Axs_4core5slice4iterINtB5_4IterNtCs3QdX7iRpTt9_10fax_derive6BitMapE3newBQ_, symObjAddr: 0x3144, symBinAddr: 0xBDD4, symSize: 0x58 }
  - { offset: 0x2725B, size: 0x8, addend: 0x0, symName: __RNvMs4_NtNtCsfvfooZQ3Axs_4core5slice4iterINtB5_4IterNtCs3cP53eQoTwO_11proc_macro211TokenStreamE3newCs3QdX7iRpTt9_10fax_derive, symObjAddr: 0x319C, symBinAddr: 0xBE2C, symSize: 0x50 }
  - { offset: 0x27429, size: 0x8, addend: 0x0, symName: __RNvMs4_NtNtCsfvfooZQ3Axs_4core5slice4iterINtB5_4IterTjNtCs3QdX7iRpTt9_10fax_derive4BitsEE3newBS_, symObjAddr: 0x31EC, symBinAddr: 0xBE7C, symSize: 0x50 }
  - { offset: 0x277A8, size: 0x8, addend: 0x0, symName: __RNvXNtCs2cqEZUIJimJ_5quote9to_tokensRNtCs3cP53eQoTwO_11proc_macro211TokenStreamNtB2_8ToTokens9to_tokensCs3QdX7iRpTt9_10fax_derive, symObjAddr: 0x39F0, symBinAddr: 0xC680, symSize: 0x40 }
  - { offset: 0x277E7, size: 0x8, addend: 0x0, symName: __RNvXNtCs2cqEZUIJimJ_5quote9to_tokensRNtCs3cP53eQoTwO_11proc_macro25IdentNtB2_8ToTokens9to_tokensCs3QdX7iRpTt9_10fax_derive, symObjAddr: 0x3A30, symBinAddr: 0xC6C0, symSize: 0x40 }
  - { offset: 0x286D3, size: 0x8, addend: 0x0, symName: __RINvMs_NtNtCsfvfooZQ3Axs_4core3fmt2rtNtB5_8Argument10new_binarytECs3QdX7iRpTt9_10fax_derive, symObjAddr: 0x0, symBinAddr: 0xD660, symSize: 0x2C }
  - { offset: 0x28A41, size: 0x8, addend: 0x0, symName: __RNvXsX_NtNtCsfvfooZQ3Axs_4core3cmp5implshNtB7_3Ord3cmpCs3QdX7iRpTt9_10fax_derive, symObjAddr: 0x37BC, symBinAddr: 0x10E18, symSize: 0x3C }
  - { offset: 0x28EC5, size: 0x8, addend: 0x0, symName: __RNvNvMs1_NtNtCsfvfooZQ3Axs_4core3ptr8non_nullINtB7_7NonNullpE13new_unchecked18precondition_checkCs3QdX7iRpTt9_10fax_derive, symObjAddr: 0x26C0, symBinAddr: 0xFD1C, symSize: 0x38 }
  - { offset: 0x297D8, size: 0x8, addend: 0x0, symName: __RNvXso_NtCsfvfooZQ3Axs_4core6resultINtB5_6ResultINtNtCs5AlOhPCr03V_3syn10punctuated10PunctuatedNtCs3QdX7iRpTt9_10fax_derive11BitMapEntryNtNtBP_5token5CommaENtNtBP_5error5ErrorENtNtNtB7_3ops9try_trait3Try6branchB1x_, symObjAddr: 0x3F28, symBinAddr: 0x11584, symSize: 0xA0 }
  - { offset: 0x29855, size: 0x8, addend: 0x0, symName: __RNvXso_NtCsfvfooZQ3Axs_4core6resultINtB5_6ResultINtNtCs5AlOhPCr03V_3syn10punctuated10PunctuatedNtCs3QdX7iRpTt9_10fax_derive6BitMapNtNtBP_5token5CommaENtNtBP_5error5ErrorENtNtNtB7_3ops9try_trait3Try6branchB1x_, symObjAddr: 0x3FC8, symBinAddr: 0x11624, symSize: 0xA0 }
  - { offset: 0x298D2, size: 0x8, addend: 0x0, symName: __RNvXso_NtCsfvfooZQ3Axs_4core6resultINtB5_6ResultNtCs3QdX7iRpTt9_10fax_derive11BitMapEntryNtNtCs5AlOhPCr03V_3syn5error5ErrorENtNtNtB7_3ops9try_trait3Try6branchBM_, symObjAddr: 0x4068, symBinAddr: 0x116C4, symSize: 0xC0 }
  - { offset: 0x29950, size: 0x8, addend: 0x0, symName: __RNvXso_NtCsfvfooZQ3Axs_4core6resultINtB5_6ResultNtCs3QdX7iRpTt9_10fax_derive4BitsNtNtCs5AlOhPCr03V_3syn5error5ErrorENtNtNtB7_3ops9try_trait3Try6branchBM_, symObjAddr: 0x4128, symBinAddr: 0x11784, symSize: 0x94 }
  - { offset: 0x299CE, size: 0x8, addend: 0x0, symName: __RNvXso_NtCsfvfooZQ3Axs_4core6resultINtB5_6ResultNtCs3QdX7iRpTt9_10fax_derive6BitMapNtNtCs5AlOhPCr03V_3syn5error5ErrorENtNtNtB7_3ops9try_trait3Try6branchBM_, symObjAddr: 0x41BC, symBinAddr: 0x11818, symSize: 0xC4 }
  - { offset: 0x29A4C, size: 0x8, addend: 0x0, symName: __RNvXso_NtCsfvfooZQ3Axs_4core6resultINtB5_6ResultNtCs3QdX7iRpTt9_10fax_derive7BitMapsNtNtCs5AlOhPCr03V_3syn5error5ErrorENtNtNtB7_3ops9try_trait3Try6branchBM_, symObjAddr: 0x4280, symBinAddr: 0x118DC, symSize: 0x94 }
  - { offset: 0x29AC9, size: 0x8, addend: 0x0, symName: __RNvXso_NtCsfvfooZQ3Axs_4core6resultINtB5_6ResultNtCs3cP53eQoTwO_11proc_macro27LiteralNtNtCs5AlOhPCr03V_3syn5error5ErrorENtNtNtB7_3ops9try_trait3Try6branchCs3QdX7iRpTt9_10fax_derive, symObjAddr: 0x4314, symBinAddr: 0x11970, symSize: 0x94 }
  - { offset: 0x29B4C, size: 0x8, addend: 0x0, symName: __RNvXsp_NtCsfvfooZQ3Axs_4core6resultINtB5_6ResultINtNtCs5AlOhPCr03V_3syn10punctuated10PunctuatedNtCs3QdX7iRpTt9_10fax_derive11BitMapEntryNtNtBP_5token5CommaENtNtBP_5error5ErrorEINtNtNtB7_3ops9try_trait12FromResidualIBy_NtNtB7_7convert10InfallibleB2u_EE13from_residualB1x_, symObjAddr: 0x43A8, symBinAddr: 0x11A04, symSize: 0x48 }
  - { offset: 0x29BD1, size: 0x8, addend: 0x0, symName: __RNvXsp_NtCsfvfooZQ3Axs_4core6resultINtB5_6ResultINtNtCs5AlOhPCr03V_3syn10punctuated10PunctuatedNtCs3QdX7iRpTt9_10fax_derive6BitMapNtNtBP_5token5CommaENtNtBP_5error5ErrorEINtNtNtB7_3ops9try_trait12FromResidualIBy_NtNtB7_7convert10InfallibleB2o_EE13from_residualB1x_, symObjAddr: 0x43F0, symBinAddr: 0x11A4C, symSize: 0x48 }
  - { offset: 0x29C56, size: 0x8, addend: 0x0, symName: __RNvXsp_NtCsfvfooZQ3Axs_4core6resultINtB5_6ResultNtCs3QdX7iRpTt9_10fax_derive11BitMapEntryNtNtCs5AlOhPCr03V_3syn5error5ErrorEINtNtNtB7_3ops9try_trait12FromResidualIBy_NtNtB7_7convert10InfallibleB1p_EE13from_residualBM_, symObjAddr: 0x4438, symBinAddr: 0x11A94, symSize: 0x4C }
  - { offset: 0x29CDB, size: 0x8, addend: 0x0, symName: __RNvXsp_NtCsfvfooZQ3Axs_4core6resultINtB5_6ResultNtCs3QdX7iRpTt9_10fax_derive4BitsNtNtCs5AlOhPCr03V_3syn5error5ErrorEINtNtNtB7_3ops9try_trait12FromResidualIBy_NtNtB7_7convert10InfallibleB1h_EE13from_residualBM_, symObjAddr: 0x4484, symBinAddr: 0x11AE0, symSize: 0x40 }
  - { offset: 0x29D60, size: 0x8, addend: 0x0, symName: __RNvXsp_NtCsfvfooZQ3Axs_4core6resultINtB5_6ResultNtCs3QdX7iRpTt9_10fax_derive6BitMapNtNtCs5AlOhPCr03V_3syn5error5ErrorEINtNtNtB7_3ops9try_trait12FromResidualIBy_NtNtB7_7convert10InfallibleB1j_EE13from_residualBM_, symObjAddr: 0x44C4, symBinAddr: 0x11B20, symSize: 0x48 }
  - { offset: 0x29DE5, size: 0x8, addend: 0x0, symName: __RNvXsp_NtCsfvfooZQ3Axs_4core6resultINtB5_6ResultNtCs3QdX7iRpTt9_10fax_derive7BitMapsNtNtCs5AlOhPCr03V_3syn5error5ErrorEINtNtNtB7_3ops9try_trait12FromResidualIBy_NtNtB7_7convert10InfallibleB1k_EE13from_residualBM_, symObjAddr: 0x450C, symBinAddr: 0x11B68, symSize: 0x48 }
  - { offset: 0x2D0A0, size: 0x8, addend: 0x0, symName: __RNCINvNtNtNtCsfvfooZQ3Axs_4core4iter8adapters3map8map_foldRINtNtCse1nGBsou5OW_5alloc3vec3VecTjNtCs3QdX7iRpTt9_10fax_derive4BitsEEINtNtBa_6option6OptionINtB1w_4NodejEEuNCNvMs9_B1w_INtB1w_9PrefixLutjE11build_width0NCINvNvNtNtNtB8_6traits8iterator8Iterator8for_each4callB23_NCINvMsi_BY_IBW_B23_E14extend_trustedINtB4_3MapINtNtNtBa_5slice4iter4IterBV_EB2F_EE0E0E0B1w_, symObjAddr: 0x84C, symBinAddr: 0xDEAC, symSize: 0x94 }
  - { offset: 0x2D125, size: 0x8, addend: 0x0, symName: __RNCINvNtNtNtCsfvfooZQ3Axs_4core4iter8adapters3map8map_foldRTjNtCs3QdX7iRpTt9_10fax_derive4BitsEhhNCNvMs8_BZ_INtBZ_4NodejE12build_prefix0NCINvNvNtNtNtB8_6traits8iterator8Iterator6max_by4foldhNvYhNtNtBa_3cmp3Ord3cmpE0E0BZ_, symObjAddr: 0x8E0, symBinAddr: 0xDF40, symSize: 0x98 }
  - { offset: 0x2D1AC, size: 0x8, addend: 0x0, symName: __RNCINvNtNtNtCsfvfooZQ3Axs_4core4iter8adapters3map8map_foldRTjNtCs3QdX7iRpTt9_10fax_derive4BitsEhhNCNvMs9_BZ_INtBZ_9PrefixLutjE5build0NCINvNvNtNtNtB8_6traits8iterator8Iterator6max_by4foldhNvYhNtNtBa_3cmp3Ord3cmpE0E0BZ_, symObjAddr: 0x978, symBinAddr: 0xDFD8, symSize: 0x98 }
  - { offset: 0x2D233, size: 0x8, addend: 0x0, symName: __RNCINvNtNtNtCsfvfooZQ3Axs_4core4iter8adapters3map8map_foldTjRINtNtBa_6option6OptionINtCs3QdX7iRpTt9_10fax_derive4NodejEEENtCs3cP53eQoTwO_11proc_macro211TokenStreamuNCNvMs0_B1m_NtB1m_6BitMap4walks_0NCINvNvNtNtNtB8_6traits8iterator8Iterator8for_each4callB1V_NCINvMsi_NtCse1nGBsou5OW_5alloc3vecINtB4f_3VecB1V_E14extend_trustedINtB4_3MapINtNtB6_9enumerate9EnumerateINtNtNtBa_5slice4iter4IterBX_EEB2C_EE0E0E0B1m_, symObjAddr: 0xA10, symBinAddr: 0xE070, symSize: 0x90 }
  - { offset: 0x2D2B8, size: 0x8, addend: 0x0, symName: __RNCINvNtNtNtCsfvfooZQ3Axs_4core4iter8adapters3map8map_foldTjRNtCs3QdX7iRpTt9_10fax_derive11BitMapEntryETjNtBZ_4BitsEuNCNvMs0_BZ_NtBZ_6BitMap5build0NCINvNvNtNtNtB8_6traits8iterator8Iterator8for_each4callB1D_NCINvMsi_NtCse1nGBsou5OW_5alloc3vecINtB3r_3VecB1D_E14extend_trustedINtB4_3MapINtNtB6_9enumerate9EnumerateINtNtNtBa_5slice4iter4IterBX_EEB1R_EE0E0E0BZ_, symObjAddr: 0xAA0, symBinAddr: 0xE100, symSize: 0x88 }
  - { offset: 0x2D343, size: 0x8, addend: 0x0, symName: __RINvXs0_NtNtNtCsfvfooZQ3Axs_4core4iter8adapters3mapINtB6_3MapINtNtB8_9enumerate9EnumerateINtNtNtBc_5slice4iter4IterINtNtBc_6option6OptionINtCs3QdX7iRpTt9_10fax_derive4NodejEEEENCNvMs0_B2e_NtB2e_6BitMap4walks_0ENtNtNtBa_6traits8iterator8Iterator4folduNCINvNvB3m_8for_each4callNtCs3cP53eQoTwO_11proc_macro211TokenStreamNCINvMsi_NtCse1nGBsou5OW_5alloc3vecINtB5e_3VecB4p_E14extend_trustedBN_E0E0EB2e_, symObjAddr: 0x170, symBinAddr: 0xD7D0, symSize: 0x6C }
  - { offset: 0x2D3DC, size: 0x8, addend: 0x0, symName: __RINvXs0_NtNtNtCsfvfooZQ3Axs_4core4iter8adapters3mapINtB6_3MapINtNtB8_9enumerate9EnumerateINtNtNtBc_5slice4iter4IterNtCs3QdX7iRpTt9_10fax_derive11BitMapEntryEENCNvMs0_B1R_NtB1R_6BitMap5build0ENtNtNtBa_6traits8iterator8Iterator4folduNCINvNvB33_8for_each4callTjNtB1R_4BitsENCINvMsi_NtCse1nGBsou5OW_5alloc3vecINtB4t_3VecB46_E14extend_trustedBN_E0E0EB1R_, symObjAddr: 0x1DC, symBinAddr: 0xD83C, symSize: 0x4C }
  - { offset: 0x2D475, size: 0x8, addend: 0x0, symName: __RINvXs0_NtNtNtCsfvfooZQ3Axs_4core4iter8adapters3mapINtB6_3MapINtNtNtBc_5slice4iter4IterINtNtCse1nGBsou5OW_5alloc3vec3VecTjNtCs3QdX7iRpTt9_10fax_derive4BitsEEENCNvMs9_B1Y_INtB1Y_9PrefixLutjE11build_width0ENtNtNtBa_6traits8iterator8Iterator4folduNCINvNvB3g_8for_each4callINtNtBc_6option6OptionINtB1Y_4NodejEENCINvMsi_B1q_IB1o_B4j_E14extend_trustedBN_E0E0EB1Y_, symObjAddr: 0x228, symBinAddr: 0xD888, symSize: 0x4C }
  - { offset: 0x2D50E, size: 0x8, addend: 0x0, symName: __RINvXs0_NtNtNtCsfvfooZQ3Axs_4core4iter8adapters3mapINtB6_3MapINtNtNtBc_5slice4iter4IterTjNtCs3QdX7iRpTt9_10fax_derive4BitsEENCNvMs8_B1r_INtB1r_4NodejE12build_prefix0ENtNtNtBa_6traits8iterator8Iterator4foldhNCINvNvB2E_6max_by4foldhNvYhNtNtBc_3cmp3Ord3cmpE0EB1r_, symObjAddr: 0x274, symBinAddr: 0xD8D4, symSize: 0x30 }
  - { offset: 0x2D583, size: 0x8, addend: 0x0, symName: __RINvXs0_NtNtNtCsfvfooZQ3Axs_4core4iter8adapters3mapINtB6_3MapINtNtNtBc_5slice4iter4IterTjNtCs3QdX7iRpTt9_10fax_derive4BitsEENCNvMs9_B1r_INtB1r_9PrefixLutjE5build0ENtNtNtBa_6traits8iterator8Iterator4foldhNCINvNvB2B_6max_by4foldhNvYhNtNtBc_3cmp3Ord3cmpE0EB1r_, symObjAddr: 0x2A4, symBinAddr: 0xD904, symSize: 0x30 }
  - { offset: 0x2D5F8, size: 0x8, addend: 0x0, symName: __RNvXs0_NtNtNtCsfvfooZQ3Axs_4core4iter8adapters3mapINtB5_3MapINtNtB7_9enumerate9EnumerateINtNtNtBb_5slice4iter4IterINtNtBb_6option6OptionINtCs3QdX7iRpTt9_10fax_derive4NodejEEEENCNvMs0_B2d_NtB2d_6BitMap4walks_0ENtNtNtB9_6traits8iterator8Iterator9size_hintB2d_, symObjAddr: 0x2C88, symBinAddr: 0x102E4, symSize: 0x24 }
  - { offset: 0x2D63F, size: 0x8, addend: 0x0, symName: __RNvXs0_NtNtNtCsfvfooZQ3Axs_4core4iter8adapters3mapINtB5_3MapINtNtB7_9enumerate9EnumerateINtNtNtBb_5slice4iter4IterNtCs3QdX7iRpTt9_10fax_derive11BitMapEntryEENCNvMs0_B1Q_NtB1Q_6BitMap5build0ENtNtNtB9_6traits8iterator8Iterator9size_hintB1Q_, symObjAddr: 0x2CAC, symBinAddr: 0x10308, symSize: 0x24 }
  - { offset: 0x2D686, size: 0x8, addend: 0x0, symName: __RNvXs0_NtNtNtCsfvfooZQ3Axs_4core4iter8adapters3mapINtB5_3MapINtNtCs5AlOhPCr03V_3syn10punctuated9IntoPairsNtCs3QdX7iRpTt9_10fax_derive11BitMapEntryNtNtB11_5token5CommaENCNvXs_B1H_NtB1H_6BitMapNtNtB11_5parse5Parse5parse0ENtNtNtB9_6traits8iterator8Iterator4nextB1H_, symObjAddr: 0x2CD0, symBinAddr: 0x1032C, symSize: 0xD4 }
  - { offset: 0x2D6F9, size: 0x8, addend: 0x0, symName: __RNvXs0_NtNtNtCsfvfooZQ3Axs_4core4iter8adapters3mapINtB5_3MapINtNtCs5AlOhPCr03V_3syn10punctuated9IntoPairsNtCs3QdX7iRpTt9_10fax_derive11BitMapEntryNtNtB11_5token5CommaENCNvXs_B1H_NtB1H_6BitMapNtNtB11_5parse5Parse5parse0ENtNtNtB9_6traits8iterator8Iterator9size_hintB1H_, symObjAddr: 0x2DA4, symBinAddr: 0x10400, symSize: 0x24 }
  - { offset: 0x2D740, size: 0x8, addend: 0x0, symName: __RNvXs0_NtNtNtCsfvfooZQ3Axs_4core4iter8adapters3mapINtB5_3MapINtNtCs5AlOhPCr03V_3syn10punctuated9IntoPairsNtCs3QdX7iRpTt9_10fax_derive6BitMapNtNtB11_5token5CommaENCNvXB1H_NtB1H_7BitMapsNtNtB11_5parse5Parse5parse0ENtNtNtB9_6traits8iterator8Iterator4nextB1H_, symObjAddr: 0x2DC8, symBinAddr: 0x10424, symSize: 0xCC }
  - { offset: 0x2D7B3, size: 0x8, addend: 0x0, symName: __RNvXs0_NtNtNtCsfvfooZQ3Axs_4core4iter8adapters3mapINtB5_3MapINtNtCs5AlOhPCr03V_3syn10punctuated9IntoPairsNtCs3QdX7iRpTt9_10fax_derive6BitMapNtNtB11_5token5CommaENCNvXB1H_NtB1H_7BitMapsNtNtB11_5parse5Parse5parse0ENtNtNtB9_6traits8iterator8Iterator9size_hintB1H_, symObjAddr: 0x2E94, symBinAddr: 0x104F0, symSize: 0x24 }
  - { offset: 0x2D7FA, size: 0x8, addend: 0x0, symName: __RNvXs0_NtNtNtCsfvfooZQ3Axs_4core4iter8adapters3mapINtB5_3MapINtNtNtBb_5slice4iter4IterINtNtBb_6option6OptionTjhEEENCNvMs0_Cs3QdX7iRpTt9_10fax_deriveNtB1W_6BitMap4walk0ENtNtNtB9_6traits8iterator8Iterator4nextB1W_, symObjAddr: 0x2EB8, symBinAddr: 0x10514, symSize: 0x90 }
  - { offset: 0x2D874, size: 0x8, addend: 0x0, symName: __RNvXs0_NtNtNtCsfvfooZQ3Axs_4core4iter8adapters3mapINtB5_3MapINtNtNtBb_5slice4iter4IterINtNtCse1nGBsou5OW_5alloc3vec3VecTjNtCs3QdX7iRpTt9_10fax_derive4BitsEEENCNvMs9_B1X_INtB1X_9PrefixLutjE11build_width0ENtNtNtB9_6traits8iterator8Iterator9size_hintB1X_, symObjAddr: 0x2F48, symBinAddr: 0x105A4, symSize: 0x24 }
  - { offset: 0x2D8BB, size: 0x8, addend: 0x0, symName: __RNvXs0_NtNtNtCsfvfooZQ3Axs_4core4iter8adapters3mapINtB5_3MapINtNtNtBb_5slice4iter4IterNtCs3QdX7iRpTt9_10fax_derive11BitMapEntryENCNCNvB1o_7bitmaps00ENtNtNtB9_6traits8iterator8Iterator4nextB1o_, symObjAddr: 0x2F6C, symBinAddr: 0x105C8, symSize: 0x90 }
  - { offset: 0x2D935, size: 0x8, addend: 0x0, symName: __RNvXs0_NtNtNtCsfvfooZQ3Axs_4core4iter8adapters3mapINtB5_3MapINtNtNtBb_5slice4iter4IterNtCs3QdX7iRpTt9_10fax_derive11BitMapEntryENCNCNvB1o_7bitmaps0s_0ENtNtNtB9_6traits8iterator8Iterator4nextB1o_, symObjAddr: 0x2FFC, symBinAddr: 0x10658, symSize: 0x90 }
  - { offset: 0x2D9AF, size: 0x8, addend: 0x0, symName: __RNvXs0_NtNtNtCsfvfooZQ3Axs_4core4iter8adapters3mapINtB5_3MapINtNtNtBb_5slice4iter4IterNtCs3QdX7iRpTt9_10fax_derive6BitMapENCNvB1o_7bitmaps0ENtNtNtB9_6traits8iterator8Iterator4nextB1o_, symObjAddr: 0x308C, symBinAddr: 0x106E8, symSize: 0x90 }
  - { offset: 0x2DA29, size: 0x8, addend: 0x0, symName: __RNvXs0_NtNtNtCsfvfooZQ3Axs_4core4iter8adapters3mapINtB5_3MapINtNtNtBb_5slice4iter4IterTjNtCs3QdX7iRpTt9_10fax_derive4BitsEENCNvMs8_B1q_INtB1q_4NodejE12build_prefix0ENtNtNtB9_6traits8iterator8Iterator4nextB1q_, symObjAddr: 0x311C, symBinAddr: 0x10778, symSize: 0x84 }
  - { offset: 0x2DAA3, size: 0x8, addend: 0x0, symName: __RNvXs0_NtNtNtCsfvfooZQ3Axs_4core4iter8adapters3mapINtB5_3MapINtNtNtBb_5slice4iter4IterTjNtCs3QdX7iRpTt9_10fax_derive4BitsEENCNvMs9_B1q_INtB1q_9PrefixLutjE5build0ENtNtNtB9_6traits8iterator8Iterator4nextB1q_, symObjAddr: 0x31A0, symBinAddr: 0x107FC, symSize: 0x84 }
  - { offset: 0x2DF3A, size: 0x8, addend: 0x0, symName: __RNCINvNvNtNtNtNtCsfvfooZQ3Axs_4core4iter6traits8iterator8Iterator8for_each4callINtNtBe_6option6OptionINtCs3QdX7iRpTt9_10fax_derive4NodejEENCINvMsi_NtCse1nGBsou5OW_5alloc3vecINtB2l_3VecB1f_E14extend_trustedINtNtNtBc_8adapters3map3MapINtNtNtBe_5slice4iter4IterIB2M_TjNtB1E_4BitsEEENCNvMs9_B1E_INtB1E_9PrefixLutjE11build_width0EE0E0B1E_, symObjAddr: 0xB64, symBinAddr: 0xE1C4, symSize: 0x40 }
  - { offset: 0x2DF93, size: 0x8, addend: 0x0, symName: __RNCINvNvNtNtNtNtCsfvfooZQ3Axs_4core4iter6traits8iterator8Iterator8for_each4callNtCs3cP53eQoTwO_11proc_macro211TokenStreamNCINvMsi_NtCse1nGBsou5OW_5alloc3vecINtB24_3VecB1f_E14extend_trustedINtNtNtBc_8adapters3map3MapINtNtB35_9enumerate9EnumerateINtNtNtBe_5slice4iter4IterINtNtBe_6option6OptionINtCs3QdX7iRpTt9_10fax_derive4NodejEEEENCNvMs0_B4J_NtB4J_6BitMap4walks_0EE0E0B4J_, symObjAddr: 0xBA4, symBinAddr: 0xE204, symSize: 0x3C }
  - { offset: 0x2DFEC, size: 0x8, addend: 0x0, symName: __RNCINvNvNtNtNtNtCsfvfooZQ3Axs_4core4iter6traits8iterator8Iterator8for_each4callNtCs3cP53eQoTwO_11proc_macro29TokenTreeNCINvXsa_NtB1h_8fallbackNtB21_11TokenStreamINtNtBa_7collect6ExtendB1f_E6extendNtB1h_11TokenStreamE0E0Cs3QdX7iRpTt9_10fax_derive, symObjAddr: 0xBE0, symBinAddr: 0xE240, symSize: 0x3C }
  - { offset: 0x2E045, size: 0x8, addend: 0x0, symName: __RNCINvNvNtNtNtNtCsfvfooZQ3Axs_4core4iter6traits8iterator8Iterator8for_each4callTjNtCs3QdX7iRpTt9_10fax_derive4BitsENCINvMsi_NtCse1nGBsou5OW_5alloc3vecINtB1Y_3VecB1f_E14extend_trustedINtNtNtBc_8adapters3map3MapINtNtB2Z_9enumerate9EnumerateINtNtNtBe_5slice4iter4IterNtB1j_11BitMapEntryEENCNvMs0_B1j_NtB1j_6BitMap5build0EE0E0B1j_, symObjAddr: 0xC1C, symBinAddr: 0xE27C, symSize: 0x30 }
  - { offset: 0x2E130, size: 0x8, addend: 0x0, symName: __RINvYINtNtCs5AlOhPCr03V_3syn10punctuated9IntoPairsNtCs3QdX7iRpTt9_10fax_derive11BitMapEntryNtNtB8_5token5CommaENtNtNtNtCsfvfooZQ3Axs_4core4iter6traits8iterator8Iterator3mapBM_NCNvXs_BO_NtBO_6BitMapNtNtB8_5parse5Parse5parse0EBO_, symObjAddr: 0x46C, symBinAddr: 0xDACC, symSize: 0x30 }
  - { offset: 0x2E19E, size: 0x8, addend: 0x0, symName: __RINvYINtNtCs5AlOhPCr03V_3syn10punctuated9IntoPairsNtCs3QdX7iRpTt9_10fax_derive6BitMapNtNtB8_5token5CommaENtNtNtNtCsfvfooZQ3Axs_4core4iter6traits8iterator8Iterator3mapBM_NCNvXBO_NtBO_7BitMapsNtNtB8_5parse5Parse5parse0EBO_, symObjAddr: 0x49C, symBinAddr: 0xDAFC, symSize: 0x30 }
  - { offset: 0x2E20C, size: 0x8, addend: 0x0, symName: __RINvYINtNtNtNtCsfvfooZQ3Axs_4core4iter8adapters3map3MapINtNtB8_9enumerate9EnumerateINtNtNtBc_5slice4iter4IterINtNtBc_6option6OptionINtCs3QdX7iRpTt9_10fax_derive4NodejEEEENCNvMs0_B28_NtB28_6BitMap4walks_0ENtNtNtBa_6traits8iterator8Iterator7collectINtNtCse1nGBsou5OW_5alloc3vec3VecNtCs3cP53eQoTwO_11proc_macro211TokenStreamEEB28_, symObjAddr: 0x4CC, symBinAddr: 0xDB2C, symSize: 0x1C }
  - { offset: 0x2E24D, size: 0x8, addend: 0x0, symName: __RINvYINtNtNtNtCsfvfooZQ3Axs_4core4iter8adapters3map3MapINtNtB8_9enumerate9EnumerateINtNtNtBc_5slice4iter4IterINtNtBc_6option6OptionINtCs3QdX7iRpTt9_10fax_derive4NodejEEEENCNvMs0_B28_NtB28_6BitMap4walks_0ENtNtNtBa_6traits8iterator8Iterator8for_eachNCINvMsi_NtCse1nGBsou5OW_5alloc3vecINtB46_3VecNtCs3cP53eQoTwO_11proc_macro211TokenStreamE14extend_trustedB3_E0EB28_, symObjAddr: 0x4E8, symBinAddr: 0xDB48, symSize: 0x34 }
  - { offset: 0x2E2B9, size: 0x8, addend: 0x0, symName: __RINvYINtNtNtNtCsfvfooZQ3Axs_4core4iter8adapters3map3MapINtNtB8_9enumerate9EnumerateINtNtNtBc_5slice4iter4IterNtCs3QdX7iRpTt9_10fax_derive11BitMapEntryEENCNvMs0_B1L_NtB1L_6BitMap5build0ENtNtNtBa_6traits8iterator8Iterator7collectINtNtCse1nGBsou5OW_5alloc3vec3VecTjNtB1L_4BitsEEEB1L_, symObjAddr: 0x51C, symBinAddr: 0xDB7C, symSize: 0x1C }
  - { offset: 0x2E2FA, size: 0x8, addend: 0x0, symName: __RINvYINtNtNtNtCsfvfooZQ3Axs_4core4iter8adapters3map3MapINtNtB8_9enumerate9EnumerateINtNtNtBc_5slice4iter4IterNtCs3QdX7iRpTt9_10fax_derive11BitMapEntryEENCNvMs0_B1L_NtB1L_6BitMap5build0ENtNtNtBa_6traits8iterator8Iterator8for_eachNCINvMsi_NtCse1nGBsou5OW_5alloc3vecINtB3N_3VecTjNtB1L_4BitsEE14extend_trustedB3_E0EB1L_, symObjAddr: 0x538, symBinAddr: 0xDB98, symSize: 0x34 }
  - { offset: 0x2E366, size: 0x8, addend: 0x0, symName: __RINvYINtNtNtNtCsfvfooZQ3Axs_4core4iter8adapters3map3MapINtNtCs5AlOhPCr03V_3syn10punctuated9IntoPairsNtCs3QdX7iRpTt9_10fax_derive11BitMapEntryNtNtBW_5token5CommaENCNvXs_B1C_NtB1C_6BitMapNtNtBW_5parse5Parse5parse0ENtNtNtBa_6traits8iterator8Iterator7collectINtNtCse1nGBsou5OW_5alloc3vec3VecB1A_EEB1C_, symObjAddr: 0x56C, symBinAddr: 0xDBCC, symSize: 0x1C }
  - { offset: 0x2E3A7, size: 0x8, addend: 0x0, symName: __RINvYINtNtNtNtCsfvfooZQ3Axs_4core4iter8adapters3map3MapINtNtCs5AlOhPCr03V_3syn10punctuated9IntoPairsNtCs3QdX7iRpTt9_10fax_derive6BitMapNtNtBW_5token5CommaENCNvXB1C_NtB1C_7BitMapsNtNtBW_5parse5Parse5parse0ENtNtNtBa_6traits8iterator8Iterator7collectINtNtCse1nGBsou5OW_5alloc3vec3VecB1A_EEB1C_, symObjAddr: 0x588, symBinAddr: 0xDBE8, symSize: 0x1C }
  - { offset: 0x2E3E8, size: 0x8, addend: 0x0, symName: __RINvYINtNtNtNtCsfvfooZQ3Axs_4core4iter8adapters3map3MapINtNtNtBc_5slice4iter4IterINtNtCse1nGBsou5OW_5alloc3vec3VecTjNtCs3QdX7iRpTt9_10fax_derive4BitsEEENCNvMs9_B1S_INtB1S_9PrefixLutjE11build_width0ENtNtNtBa_6traits8iterator8Iterator7collectIB1i_INtNtBc_6option6OptionINtB1S_4NodejEEEEB1S_, symObjAddr: 0x5A4, symBinAddr: 0xDC04, symSize: 0x1C }
  - { offset: 0x2E429, size: 0x8, addend: 0x0, symName: __RINvYINtNtNtNtCsfvfooZQ3Axs_4core4iter8adapters3map3MapINtNtNtBc_5slice4iter4IterINtNtCse1nGBsou5OW_5alloc3vec3VecTjNtCs3QdX7iRpTt9_10fax_derive4BitsEEENCNvMs9_B1S_INtB1S_9PrefixLutjE11build_width0ENtNtNtBa_6traits8iterator8Iterator8for_eachNCINvMsi_B1k_IB1i_INtNtBc_6option6OptionINtB1S_4NodejEEE14extend_trustedB3_E0EB1S_, symObjAddr: 0x5C0, symBinAddr: 0xDC20, symSize: 0x34 }
  - { offset: 0x2E495, size: 0x8, addend: 0x0, symName: __RINvYINtNtNtNtCsfvfooZQ3Axs_4core4iter8adapters3map3MapINtNtNtBc_5slice4iter4IterTjNtCs3QdX7iRpTt9_10fax_derive4BitsEENCNvMs8_B1l_INtB1l_4NodejE12build_prefix0ENtNtNtBa_6traits8iterator8Iterator6max_byNvYhNtNtBc_3cmp3Ord3cmpEB1l_, symObjAddr: 0x5F4, symBinAddr: 0xDC54, symSize: 0x30 }
  - { offset: 0x2E4E4, size: 0x8, addend: 0x0, symName: __RINvYINtNtNtNtCsfvfooZQ3Axs_4core4iter8adapters3map3MapINtNtNtBc_5slice4iter4IterTjNtCs3QdX7iRpTt9_10fax_derive4BitsEENCNvMs8_B1l_INtB1l_4NodejE12build_prefix0ENtNtNtBa_6traits8iterator8Iterator6reduceNCINvNvB2y_6max_by4foldhNvYhNtNtBc_3cmp3Ord3cmpE0EB1l_, symObjAddr: 0x624, symBinAddr: 0xDC84, symSize: 0xFC }
  - { offset: 0x2E5A9, size: 0x8, addend: 0x0, symName: __RINvYINtNtNtNtCsfvfooZQ3Axs_4core4iter8adapters3map3MapINtNtNtBc_5slice4iter4IterTjNtCs3QdX7iRpTt9_10fax_derive4BitsEENCNvMs9_B1l_INtB1l_9PrefixLutjE5build0ENtNtNtBa_6traits8iterator8Iterator6max_byNvYhNtNtBc_3cmp3Ord3cmpEB1l_, symObjAddr: 0x720, symBinAddr: 0xDD80, symSize: 0x30 }
  - { offset: 0x2E5F8, size: 0x8, addend: 0x0, symName: __RINvYINtNtNtNtCsfvfooZQ3Axs_4core4iter8adapters3map3MapINtNtNtBc_5slice4iter4IterTjNtCs3QdX7iRpTt9_10fax_derive4BitsEENCNvMs9_B1l_INtB1l_9PrefixLutjE5build0ENtNtNtBa_6traits8iterator8Iterator6reduceNCINvNvB2v_6max_by4foldhNvYhNtNtBc_3cmp3Ord3cmpE0EB1l_, symObjAddr: 0x750, symBinAddr: 0xDDB0, symSize: 0xFC }
  - { offset: 0x2E6C7, size: 0x8, addend: 0x0, symName: __RNCINvNvNtNtNtNtCsfvfooZQ3Axs_4core4iter6traits8iterator8Iterator6max_by4foldhNvYhNtNtBe_3cmp3Ord3cmpE0Cs3QdX7iRpTt9_10fax_derive, symObjAddr: 0xB28, symBinAddr: 0xE188, symSize: 0x3C }
  - { offset: 0x2E73C, size: 0x8, addend: 0x0, symName: __RNvYINtNtNtNtCsfvfooZQ3Axs_4core4iter8adapters3map3MapINtNtNtBb_5slice4iter4IterTjNtCs3QdX7iRpTt9_10fax_derive4BitsEENCNvMs8_B1k_INtB1k_4NodejE12build_prefix0ENtNtNtB9_6traits8iterator8Iterator3maxB1k_, symObjAddr: 0x4890, symBinAddr: 0x11EEC, symSize: 0x30 }
  - { offset: 0x2E773, size: 0x8, addend: 0x0, symName: __RNvYINtNtNtNtCsfvfooZQ3Axs_4core4iter8adapters3map3MapINtNtNtBb_5slice4iter4IterTjNtCs3QdX7iRpTt9_10fax_derive4BitsEENCNvMs9_B1k_INtB1k_9PrefixLutjE5build0ENtNtNtB9_6traits8iterator8Iterator3maxB1k_, symObjAddr: 0x48C0, symBinAddr: 0x11F1C, symSize: 0x30 }
  - { offset: 0x2E7B6, size: 0x8, addend: 0x0, symName: __RINvXs1E_NtNtNtCsfvfooZQ3Axs_4core4iter6traits5accumdNtB7_3Sum3sumINtNtNtBb_8adapters10filter_map9FilterMapINtNtNtBd_5slice4iter4IterINtNtBd_6option6OptionINtCs3QdX7iRpTt9_10fax_derive4NodejEEENCNvMs9_B2w_INtB2w_9PrefixLutjE4cost0EEB2w_, symObjAddr: 0x2D4, symBinAddr: 0xD934, symSize: 0x34 }
  - { offset: 0x2E7F0, size: 0x8, addend: 0x0, symName: __RNCINvXs1E_NtNtNtCsfvfooZQ3Axs_4core4iter6traits5accumdNtB9_3Sum3sumINtNtNtBd_8adapters10filter_map9FilterMapINtNtNtBf_5slice4iter4IterINtNtBf_6option6OptionINtCs3QdX7iRpTt9_10fax_derive4NodejEEENCNvMs9_B2y_INtB2y_9PrefixLutjE4cost0EE0B2y_, symObjAddr: 0xC4C, symBinAddr: 0xE2AC, symSize: 0x1C }
  - { offset: 0x2E851, size: 0x8, addend: 0x0, symName: __RNvXNtNtNtCsfvfooZQ3Axs_4core4iter6traits7collectINtNtNtB6_8adapters3map3MapINtNtBQ_9enumerate9EnumerateINtNtNtB8_5slice4iter4IterINtNtB8_6option6OptionINtCs3QdX7iRpTt9_10fax_derive4NodejEEEENCNvMs0_B2t_NtB2t_6BitMap4walks_0ENtB2_12IntoIterator9into_iterB2t_, symObjAddr: 0x2AD0, symBinAddr: 0x1012C, symSize: 0x30 }
  - { offset: 0x2E889, size: 0x8, addend: 0x0, symName: __RNvXNtNtNtCsfvfooZQ3Axs_4core4iter6traits7collectINtNtNtB6_8adapters3map3MapINtNtBQ_9enumerate9EnumerateINtNtNtB8_5slice4iter4IterNtCs3QdX7iRpTt9_10fax_derive11BitMapEntryEENCNvMs0_B26_NtB26_6BitMap5build0ENtB2_12IntoIterator9into_iterB26_, symObjAddr: 0x2B00, symBinAddr: 0x1015C, symSize: 0x18 }
  - { offset: 0x2E8C0, size: 0x8, addend: 0x0, symName: __RNvXNtNtNtCsfvfooZQ3Axs_4core4iter6traits7collectINtNtNtB6_8adapters3map3MapINtNtCs5AlOhPCr03V_3syn10punctuated9IntoPairsNtCs3QdX7iRpTt9_10fax_derive11BitMapEntryNtNtB1h_5token5CommaENCNvXs_B1X_NtB1X_6BitMapNtNtB1h_5parse5Parse5parse0ENtB2_12IntoIterator9into_iterB1X_, symObjAddr: 0x2B18, symBinAddr: 0x10174, symSize: 0x30 }
  - { offset: 0x2E8F8, size: 0x8, addend: 0x0, symName: __RNvXNtNtNtCsfvfooZQ3Axs_4core4iter6traits7collectINtNtNtB6_8adapters3map3MapINtNtCs5AlOhPCr03V_3syn10punctuated9IntoPairsNtCs3QdX7iRpTt9_10fax_derive6BitMapNtNtB1h_5token5CommaENCNvXB1X_NtB1X_7BitMapsNtNtB1h_5parse5Parse5parse0ENtB2_12IntoIterator9into_iterB1X_, symObjAddr: 0x2B48, symBinAddr: 0x101A4, symSize: 0x30 }
  - { offset: 0x2E930, size: 0x8, addend: 0x0, symName: __RNvXNtNtNtCsfvfooZQ3Axs_4core4iter6traits7collectINtNtNtB6_8adapters3map3MapINtNtNtB8_5slice4iter4IterINtNtCse1nGBsou5OW_5alloc3vec3VecTjNtCs3QdX7iRpTt9_10fax_derive4BitsEEENCNvMs9_B2d_INtB2d_9PrefixLutjE11build_width0ENtB2_12IntoIterator9into_iterB2d_, symObjAddr: 0x2B78, symBinAddr: 0x101D4, symSize: 0x18 }
  - { offset: 0x2E9C3, size: 0x8, addend: 0x0, symName: __RNvYINtNtNtCse1nGBsou5OW_5alloc3vec9into_iter8IntoIterTNtCs3QdX7iRpTt9_10fax_derive11BitMapEntryNtNtCs5AlOhPCr03V_3syn5token5CommaEENtNtNtNtCsfvfooZQ3Axs_4core4iter6traits10exact_size17ExactSizeIterator3lenBT_, symObjAddr: 0x45FC, symBinAddr: 0x11C58, symSize: 0xF4 }
  - { offset: 0x2EAB6, size: 0x8, addend: 0x0, symName: __RNvYINtNtNtCse1nGBsou5OW_5alloc3vec9into_iter8IntoIterTNtCs3QdX7iRpTt9_10fax_derive6BitMapNtNtCs5AlOhPCr03V_3syn5token5CommaEENtNtNtNtCsfvfooZQ3Axs_4core4iter6traits10exact_size17ExactSizeIterator3lenBT_, symObjAddr: 0x46F0, symBinAddr: 0x11D4C, symSize: 0xF4 }
  - { offset: 0x2EBB6, size: 0x8, addend: 0x0, symName: __RNvXsF_NtNtCsfvfooZQ3Axs_4core4iter5rangejNtB5_4Step17forward_uncheckedCs3QdX7iRpTt9_10fax_derive, symObjAddr: 0x3540, symBinAddr: 0x10B9C, symSize: 0x48 }
  - { offset: 0x2EC1B, size: 0x8, addend: 0x0, symName: __RNvXsx_NtNtCsfvfooZQ3Axs_4core4iter5rangehNtB5_4Step17forward_uncheckedCs3QdX7iRpTt9_10fax_derive, symObjAddr: 0x4554, symBinAddr: 0x11BB0, symSize: 0x54 }
  - { offset: 0x2EC80, size: 0x8, addend: 0x0, symName: __RNvXsz_NtNtCsfvfooZQ3Axs_4core4iter5rangetNtB5_4Step17forward_uncheckedCs3QdX7iRpTt9_10fax_derive, symObjAddr: 0x45A8, symBinAddr: 0x11C04, symSize: 0x54 }
  - { offset: 0x2F25E, size: 0x8, addend: 0x0, symName: __RNvNvNtCsfvfooZQ3Axs_4core10intrinsics19copy_nonoverlapping18precondition_checkCs3QdX7iRpTt9_10fax_derive, symObjAddr: 0x26F8, symBinAddr: 0xFD54, symSize: 0x2E4 }
  - { offset: 0x2F5A5, size: 0x8, addend: 0x0, symName: __RNvNvNtCsfvfooZQ3Axs_4core9ub_checks23maybe_is_nonoverlapping7runtimeCs3QdX7iRpTt9_10fax_derive, symObjAddr: 0x29F8, symBinAddr: 0x10054, symSize: 0xD8 }
  - { offset: 0x2F758, size: 0x8, addend: 0x0, symName: __RNvNvNtCsfvfooZQ3Axs_4core4hint21unreachable_unchecked18precondition_checkCs3QdX7iRpTt9_10fax_derive, symObjAddr: 0x29DC, symBinAddr: 0x10038, symSize: 0x1C }
  - { offset: 0x2F951, size: 0x8, addend: 0x0, symName: __RINvNtNtNtCs9i5KxIbZ5ph_10proc_macro6bridge6client5state3setINtNtCsfvfooZQ3Axs_4core6option6OptionNtB4_11TokenStreamENCNCINvB4_10run_clientB1y_BW_NCNCINvMs7_B4_INtB4_6ClientNtB8_11TokenStreamB2L_E7expand1NvCs3QdX7iRpTt9_10fax_derive7bitmapsE00E00EB3i_, symObjAddr: 0x88, symBinAddr: 0xD6E8, symSize: 0xE8 }
  - { offset: 0x2FA30, size: 0x8, addend: 0x0, symName: __RNCNkNvNtNtNtCs9i5KxIbZ5ph_10proc_macro6bridge6client5state12BRIDGE_STATE0s_0Cs3QdX7iRpTt9_10fax_derive, symObjAddr: 0xC68, symBinAddr: 0xE2C8, symSize: 0x34 }
  - { offset: 0x2FF2F, size: 0x8, addend: 0x0, symName: __RNvXsV_NtCs9i5KxIbZ5ph_10proc_macro6bridgeINtNtCsfvfooZQ3Axs_4core6result6ResultINtNtBJ_6option6OptionNtNtB5_6client11TokenStreamEuEINtNtB5_3rpc6EncodeuE6encodeCs3QdX7iRpTt9_10fax_derive, symObjAddr: 0x3588, symBinAddr: 0x10BE4, symSize: 0x108 }
  - { offset: 0x2FFF3, size: 0x8, addend: 0x0, symName: __RNvXsV_NtCs9i5KxIbZ5ph_10proc_macro6bridgeINtNtCsfvfooZQ3Axs_4core6result6ResultuNtNtB5_3rpc12PanicMessageEINtB1j_6EncodeuE6encodeCs3QdX7iRpTt9_10fax_derive, symObjAddr: 0x3690, symBinAddr: 0x10CEC, symSize: 0x12C }
  - { offset: 0x30565, size: 0x8, addend: 0x0, symName: __RINvXs7_NtCs3cP53eQoTwO_11proc_macro23impNtB6_11TokenStreamINtNtNtNtCsfvfooZQ3Axs_4core4iter6traits7collect6ExtendNtB8_9TokenTreeE6extendNtB8_11TokenStreamECs3QdX7iRpTt9_10fax_derive, symObjAddr: 0x308, symBinAddr: 0xD968, symSize: 0x164 }
  - { offset: 0x30A09, size: 0x8, addend: 0x0, symName: __RINvMs_NtNtCsfvfooZQ3Axs_4core3fmt2rtNtB5_8Argument10new_binarytECs3QdX7iRpTt9_10fax_derive, symObjAddr: 0x0, symBinAddr: 0xD660, symSize: 0x2C }
  - { offset: 0x30D10, size: 0x8, addend: 0x0, symName: __RINvMs_NtNtCsfvfooZQ3Axs_4core3fmt2rtNtB5_8Argument11new_displayNtCs3QdX7iRpTt9_10fax_derive4BitsEB12_, symObjAddr: 0x2C, symBinAddr: 0xD68C, symSize: 0x2C }
  - { offset: 0x30D62, size: 0x8, addend: 0x0, symName: __RINvNtCs5AlOhPCr03V_3syn17parse_macro_input5parseNtCs3QdX7iRpTt9_10fax_derive7BitMapsEBN_, symObjAddr: 0x58, symBinAddr: 0xD6B8, symSize: 0x30 }
  - { offset: 0x32DF2, size: 0x8, addend: 0x0, symName: __RNCNvMNtCs5AlOhPCr03V_3syn10punctuatedINtB4_10PunctuatedNtCs3QdX7iRpTt9_10fax_derive11BitMapEntryNtNtB6_5token5CommaE10into_pairs0BU_, symObjAddr: 0xC9C, symBinAddr: 0xE2FC, symSize: 0x98 }
  - { offset: 0x32E3A, size: 0x8, addend: 0x0, symName: __RNCNvMNtCs5AlOhPCr03V_3syn10punctuatedINtB4_10PunctuatedNtCs3QdX7iRpTt9_10fax_derive6BitMapNtNtB6_5token5CommaE10into_pairs0BU_, symObjAddr: 0xD34, symBinAddr: 0xE394, symSize: 0x98 }
  - { offset: 0x32E9C, size: 0x8, addend: 0x0, symName: __RNCNvXsj_NtCs5AlOhPCr03V_3syn10punctuatedINtB7_9IntoPairsNtCs3QdX7iRpTt9_10fax_derive11BitMapEntryNtNtB9_5token5CommaENtNtNtNtCsfvfooZQ3Axs_4core4iter6traits8iterator8Iterator4next0BV_, symObjAddr: 0xDCC, symBinAddr: 0xE42C, symSize: 0x7C }
  - { offset: 0x32F0A, size: 0x8, addend: 0x0, symName: __RNCNvXsj_NtCs5AlOhPCr03V_3syn10punctuatedINtB7_9IntoPairsNtCs3QdX7iRpTt9_10fax_derive11BitMapEntryNtNtB9_5token5CommaENtNtNtNtCsfvfooZQ3Axs_4core4iter6traits8iterator8Iterator4nexts_0BV_, symObjAddr: 0xE48, symBinAddr: 0xE4A8, symSize: 0x58 }
  - { offset: 0x32F4C, size: 0x8, addend: 0x0, symName: __RNCNvXsj_NtCs5AlOhPCr03V_3syn10punctuatedINtB7_9IntoPairsNtCs3QdX7iRpTt9_10fax_derive6BitMapNtNtB9_5token5CommaENtNtNtNtCsfvfooZQ3Axs_4core4iter6traits8iterator8Iterator4next0BV_, symObjAddr: 0xEA0, symBinAddr: 0xE500, symSize: 0x7C }
  - { offset: 0x32FBA, size: 0x8, addend: 0x0, symName: __RNCNvXsj_NtCs5AlOhPCr03V_3syn10punctuatedINtB7_9IntoPairsNtCs3QdX7iRpTt9_10fax_derive6BitMapNtNtB9_5token5CommaENtNtNtNtCsfvfooZQ3Axs_4core4iter6traits8iterator8Iterator4nexts_0BV_, symObjAddr: 0xF1C, symBinAddr: 0xE57C, symSize: 0x58 }
  - { offset: 0x3300B, size: 0x8, addend: 0x0, symName: __RNvXsj_NtCs5AlOhPCr03V_3syn10punctuatedINtB5_9IntoPairsNtCs3QdX7iRpTt9_10fax_derive11BitMapEntryNtNtB7_5token5CommaENtNtNtNtCsfvfooZQ3Axs_4core4iter6traits8iterator8Iterator4nextBT_, symObjAddr: 0x3C60, symBinAddr: 0x112BC, symSize: 0x74 }
  - { offset: 0x3304B, size: 0x8, addend: 0x0, symName: __RNvXsj_NtCs5AlOhPCr03V_3syn10punctuatedINtB5_9IntoPairsNtCs3QdX7iRpTt9_10fax_derive11BitMapEntryNtNtB7_5token5CommaENtNtNtNtCsfvfooZQ3Axs_4core4iter6traits8iterator8Iterator9size_hintBT_, symObjAddr: 0x3CD4, symBinAddr: 0x11330, symSize: 0x7C }
  - { offset: 0x3308B, size: 0x8, addend: 0x0, symName: __RNvXsj_NtCs5AlOhPCr03V_3syn10punctuatedINtB5_9IntoPairsNtCs3QdX7iRpTt9_10fax_derive6BitMapNtNtB7_5token5CommaENtNtNtNtCsfvfooZQ3Axs_4core4iter6traits8iterator8Iterator4nextBT_, symObjAddr: 0x3D50, symBinAddr: 0x113AC, symSize: 0x74 }
  - { offset: 0x330CB, size: 0x8, addend: 0x0, symName: __RNvXsj_NtCs5AlOhPCr03V_3syn10punctuatedINtB5_9IntoPairsNtCs3QdX7iRpTt9_10fax_derive6BitMapNtNtB7_5token5CommaENtNtNtNtCsfvfooZQ3Axs_4core4iter6traits8iterator8Iterator9size_hintBT_, symObjAddr: 0x3DC4, symBinAddr: 0x11420, symSize: 0x7C }
  - { offset: 0x33116, size: 0x8, addend: 0x0, symName: __RNcNtINtNtCs5AlOhPCr03V_3syn10punctuated4PairNtCs3QdX7iRpTt9_10fax_derive11BitMapEntryNtNtB8_5token5CommaE3End0BJ_, symObjAddr: 0xF74, symBinAddr: 0xE5D4, symSize: 0x40 }
  - { offset: 0x33153, size: 0x8, addend: 0x0, symName: __RNcNtINtNtCs5AlOhPCr03V_3syn10punctuated4PairNtCs3QdX7iRpTt9_10fax_derive6BitMapNtNtB8_5token5CommaE3End0BJ_, symObjAddr: 0xFB4, symBinAddr: 0xE614, symSize: 0x3C }
  - { offset: 0x335A3, size: 0x8, addend: 0x0, symName: __RNvXsl_NtCs5AlOhPCr03V_3syn10punctuatedINtB5_9IntoPairsNtCs3QdX7iRpTt9_10fax_derive11BitMapEntryNtNtB7_5token5CommaENtNtNtNtCsfvfooZQ3Axs_4core4iter6traits10exact_size17ExactSizeIterator3lenBT_, symObjAddr: 0x3E40, symBinAddr: 0x1149C, symSize: 0x74 }
  - { offset: 0x335E3, size: 0x8, addend: 0x0, symName: __RNvXsl_NtCs5AlOhPCr03V_3syn10punctuatedINtB5_9IntoPairsNtCs3QdX7iRpTt9_10fax_derive6BitMapNtNtB7_5token5CommaENtNtNtNtCsfvfooZQ3Axs_4core4iter6traits10exact_size17ExactSizeIterator3lenBT_, symObjAddr: 0x3EB4, symBinAddr: 0x11510, symSize: 0x74 }
  - { offset: 0x36355, size: 0x8, addend: 0x0, symName: __RNvXsf_NtCs5AlOhPCr03V_3syn5parseNvYNtCs3QdX7iRpTt9_10fax_derive7BitMapsNtNtB7_17parse_macro_input15ParseMacroInput5parseNtB5_6Parser6parse2BA_, symObjAddr: 0x3928, symBinAddr: 0x10F84, symSize: 0x338 }
  - { offset: 0x3645A, size: 0x8, addend: 0x0, symName: __RNvYNvYNtCs3QdX7iRpTt9_10fax_derive7BitMapsNtNtCs5AlOhPCr03V_3syn17parse_macro_input15ParseMacroInput5parseNtNtBJ_5parse6Parser5parseB7_, symObjAddr: 0x48F0, symBinAddr: 0x11F4C, symSize: 0x88 }
  - { offset: 0x3662D, size: 0x8, addend: 0x0, symName: __RNvMNtCscOYdFFY2T5N_3std3f64d4powiCs3QdX7iRpTt9_10fax_derive, symObjAddr: 0x21B0, symBinAddr: 0xF810, symSize: 0x2C }
  - { offset: 0x37028, size: 0x8, addend: 0x0, symName: __RNvXNvXsd_NtNtCse1nGBsou5OW_5alloc3vec9into_iterINtB8_8IntoIterppENtNtNtCsfvfooZQ3Axs_4core3ops4drop4Drop4dropINtB2_9DropGuardTNtCs3QdX7iRpTt9_10fax_derive11BitMapEntryNtNtCs5AlOhPCr03V_3syn5token5CommaENtNtBc_5alloc6GlobalEB12_4dropB23_, symObjAddr: 0x2B90, symBinAddr: 0x101EC, symSize: 0x7C }
  - { offset: 0x37135, size: 0x8, addend: 0x0, symName: __RNvXNvXsd_NtNtCse1nGBsou5OW_5alloc3vec9into_iterINtB8_8IntoIterppENtNtNtCsfvfooZQ3Axs_4core3ops4drop4Drop4dropINtB2_9DropGuardTNtCs3QdX7iRpTt9_10fax_derive6BitMapNtNtCs5AlOhPCr03V_3syn5token5CommaENtNtBc_5alloc6GlobalEB12_4dropB23_, symObjAddr: 0x2C0C, symBinAddr: 0x10268, symSize: 0x7C }
  - { offset: 0x37292, size: 0x8, addend: 0x0, symName: __RNvXsd_NtNtCse1nGBsou5OW_5alloc3vec9into_iterINtB5_8IntoIterTNtCs3QdX7iRpTt9_10fax_derive11BitMapEntryNtNtCs5AlOhPCr03V_3syn5token5CommaEENtNtNtCsfvfooZQ3Axs_4core3ops4drop4Drop4dropBZ_, symObjAddr: 0x37F8, symBinAddr: 0x10E54, symSize: 0x98 }
  - { offset: 0x3732C, size: 0x8, addend: 0x0, symName: __RNvXsd_NtNtCse1nGBsou5OW_5alloc3vec9into_iterINtB5_8IntoIterTNtCs3QdX7iRpTt9_10fax_derive6BitMapNtNtCs5AlOhPCr03V_3syn5token5CommaEENtNtNtCsfvfooZQ3Axs_4core3ops4drop4Drop4dropBZ_, symObjAddr: 0x3890, symBinAddr: 0x10EEC, symSize: 0x98 }
  - { offset: 0x373CC, size: 0x8, addend: 0x0, symName: __RNvXs3_NtNtCse1nGBsou5OW_5alloc3vec9into_iterINtB5_8IntoIterTNtCs3QdX7iRpTt9_10fax_derive11BitMapEntryNtNtCs5AlOhPCr03V_3syn5token5CommaEENtNtNtNtCsfvfooZQ3Axs_4core4iter6traits8iterator8Iterator4nextBZ_, symObjAddr: 0x3224, symBinAddr: 0x10880, symSize: 0xE8 }
  - { offset: 0x37540, size: 0x8, addend: 0x0, symName: __RNvXs3_NtNtCse1nGBsou5OW_5alloc3vec9into_iterINtB5_8IntoIterTNtCs3QdX7iRpTt9_10fax_derive11BitMapEntryNtNtCs5AlOhPCr03V_3syn5token5CommaEENtNtNtNtCsfvfooZQ3Axs_4core4iter6traits8iterator8Iterator9size_hintBZ_, symObjAddr: 0x330C, symBinAddr: 0x10968, symSize: 0x6C }
  - { offset: 0x3759B, size: 0x8, addend: 0x0, symName: __RNvXs3_NtNtCse1nGBsou5OW_5alloc3vec9into_iterINtB5_8IntoIterTNtCs3QdX7iRpTt9_10fax_derive6BitMapNtNtCs5AlOhPCr03V_3syn5token5CommaEENtNtNtNtCsfvfooZQ3Axs_4core4iter6traits8iterator8Iterator4nextBZ_, symObjAddr: 0x3378, symBinAddr: 0x109D4, symSize: 0xE4 }
  - { offset: 0x3770F, size: 0x8, addend: 0x0, symName: __RNvXs3_NtNtCse1nGBsou5OW_5alloc3vec9into_iterINtB5_8IntoIterTNtCs3QdX7iRpTt9_10fax_derive6BitMapNtNtCs5AlOhPCr03V_3syn5token5CommaEENtNtNtNtCsfvfooZQ3Axs_4core4iter6traits8iterator8Iterator9size_hintBZ_, symObjAddr: 0x345C, symBinAddr: 0x10AB8, symSize: 0x6C }
  - { offset: 0x38A4B, size: 0x8, addend: 0x0, symName: __RNvMNtCs5AlOhPCr03V_3syn10punctuatedINtB2_10PunctuatedNtCs3QdX7iRpTt9_10fax_derive11BitMapEntryNtNtB4_5token5CommaE10into_pairsBS_, symObjAddr: 0xFF0, symBinAddr: 0xE650, symSize: 0x108 }
  - { offset: 0x38AE3, size: 0x8, addend: 0x0, symName: __RNvMNtCs5AlOhPCr03V_3syn10punctuatedINtB2_10PunctuatedNtCs3QdX7iRpTt9_10fax_derive11BitMapEntryNtNtB4_5token5CommaE10push_punctBS_, symObjAddr: 0x10F8, symBinAddr: 0xE758, symSize: 0x1F8 }
  - { offset: 0x38B61, size: 0x8, addend: 0x0, symName: __RNvMNtCs5AlOhPCr03V_3syn10punctuatedINtB2_10PunctuatedNtCs3QdX7iRpTt9_10fax_derive11BitMapEntryNtNtB4_5token5CommaE10push_valueBS_, symObjAddr: 0x12F0, symBinAddr: 0xE950, symSize: 0x1AC }
  - { offset: 0x38BF6, size: 0x8, addend: 0x0, symName: __RNvMNtCs5AlOhPCr03V_3syn10punctuatedINtB2_10PunctuatedNtCs3QdX7iRpTt9_10fax_derive11BitMapEntryNtNtB4_5token5CommaE16parse_terminatedBS_, symObjAddr: 0x149C, symBinAddr: 0xEAFC, symSize: 0x3C }
  - { offset: 0x38C38, size: 0x8, addend: 0x0, symName: __RNvMNtCs5AlOhPCr03V_3syn10punctuatedINtB2_10PunctuatedNtCs3QdX7iRpTt9_10fax_derive11BitMapEntryNtNtB4_5token5CommaE17empty_or_trailingBS_, symObjAddr: 0x14D8, symBinAddr: 0xEB38, symSize: 0x34 }
  - { offset: 0x38C84, size: 0x8, addend: 0x0, symName: __RNvMNtCs5AlOhPCr03V_3syn10punctuatedINtB2_10PunctuatedNtCs3QdX7iRpTt9_10fax_derive11BitMapEntryNtNtB4_5token5CommaE21parse_terminated_withBS_, symObjAddr: 0x150C, symBinAddr: 0xEB6C, symSize: 0x364 }
  - { offset: 0x38D89, size: 0x8, addend: 0x0, symName: __RNvMNtCs5AlOhPCr03V_3syn10punctuatedINtB2_10PunctuatedNtCs3QdX7iRpTt9_10fax_derive11BitMapEntryNtNtB4_5token5CommaE3newBS_, symObjAddr: 0x1870, symBinAddr: 0xEED0, symSize: 0x54 }
  - { offset: 0x38DBC, size: 0x8, addend: 0x0, symName: __RNvMNtCs5AlOhPCr03V_3syn10punctuatedINtB2_10PunctuatedNtCs3QdX7iRpTt9_10fax_derive6BitMapNtNtB4_5token5CommaE10into_pairsBS_, symObjAddr: 0x18C4, symBinAddr: 0xEF24, symSize: 0x110 }
  - { offset: 0x38E29, size: 0x8, addend: 0x0, symName: __RNvMNtCs5AlOhPCr03V_3syn10punctuatedINtB2_10PunctuatedNtCs3QdX7iRpTt9_10fax_derive6BitMapNtNtB4_5token5CommaE10push_punctBS_, symObjAddr: 0x19D4, symBinAddr: 0xF034, symSize: 0x1F8 }
  - { offset: 0x38EA7, size: 0x8, addend: 0x0, symName: __RNvMNtCs5AlOhPCr03V_3syn10punctuatedINtB2_10PunctuatedNtCs3QdX7iRpTt9_10fax_derive6BitMapNtNtB4_5token5CommaE10push_valueBS_, symObjAddr: 0x1BCC, symBinAddr: 0xF22C, symSize: 0x1AC }
  - { offset: 0x38F08, size: 0x8, addend: 0x0, symName: __RNvMNtCs5AlOhPCr03V_3syn10punctuatedINtB2_10PunctuatedNtCs3QdX7iRpTt9_10fax_derive6BitMapNtNtB4_5token5CommaE16parse_terminatedBS_, symObjAddr: 0x1D78, symBinAddr: 0xF3D8, symSize: 0x3C }
  - { offset: 0x38F4A, size: 0x8, addend: 0x0, symName: __RNvMNtCs5AlOhPCr03V_3syn10punctuatedINtB2_10PunctuatedNtCs3QdX7iRpTt9_10fax_derive6BitMapNtNtB4_5token5CommaE17empty_or_trailingBS_, symObjAddr: 0x1DB4, symBinAddr: 0xF414, symSize: 0x34 }
  - { offset: 0x38F96, size: 0x8, addend: 0x0, symName: __RNvMNtCs5AlOhPCr03V_3syn10punctuatedINtB2_10PunctuatedNtCs3QdX7iRpTt9_10fax_derive6BitMapNtNtB4_5token5CommaE21parse_terminated_withBS_, symObjAddr: 0x1DE8, symBinAddr: 0xF448, symSize: 0x374 }
  - { offset: 0x3909B, size: 0x8, addend: 0x0, symName: __RNvMNtCs5AlOhPCr03V_3syn10punctuatedINtB2_10PunctuatedNtCs3QdX7iRpTt9_10fax_derive6BitMapNtNtB4_5token5CommaE3newBS_, symObjAddr: 0x215C, symBinAddr: 0xF7BC, symSize: 0x54 }
  - { offset: 0x390C1, size: 0x8, addend: 0x0, symName: __RNvMNtNtCsfvfooZQ3Axs_4core3fmt2rtNtB2_11Placeholder3newCs3QdX7iRpTt9_10fax_derive, symObjAddr: 0x21DC, symBinAddr: 0xF83C, symSize: 0x4C }
  - { offset: 0x39129, size: 0x8, addend: 0x0, symName: __RNvMs0_NtNtCsfvfooZQ3Axs_4core3fmt2rtNtB5_9UnsafeArg3newCs3QdX7iRpTt9_10fax_derive, symObjAddr: 0x2228, symBinAddr: 0xF888, symSize: 0x4 }
  - { offset: 0x39165, size: 0x8, addend: 0x0, symName: __RNvMs1_NtNtCsfvfooZQ3Axs_4core3ptr8non_nullINtB5_7NonNullINtNtB9_6option6OptionINtCs3QdX7iRpTt9_10fax_derive4NodejEEE7sub_ptrB1i_, symObjAddr: 0x222C, symBinAddr: 0xF88C, symSize: 0x74 }
  - { offset: 0x3926B, size: 0x8, addend: 0x0, symName: __RNvMs1_NtNtCsfvfooZQ3Axs_4core3ptr8non_nullINtB5_7NonNullINtNtCse1nGBsou5OW_5alloc3vec3VecTjNtCs3QdX7iRpTt9_10fax_derive4BitsEEE7sub_ptrB1u_, symObjAddr: 0x22A0, symBinAddr: 0xF900, symSize: 0x74 }
  - { offset: 0x39371, size: 0x8, addend: 0x0, symName: __RNvMs1_NtNtCsfvfooZQ3Axs_4core3ptr8non_nullINtB5_7NonNullNtCs3QdX7iRpTt9_10fax_derive11BitMapEntryE7sub_ptrBV_, symObjAddr: 0x2314, symBinAddr: 0xF974, symSize: 0x74 }
  - { offset: 0x3946A, size: 0x8, addend: 0x0, symName: __RNvMs1_NtNtCsfvfooZQ3Axs_4core3ptr8non_nullINtB5_7NonNullTNtCs3QdX7iRpTt9_10fax_derive11BitMapEntryNtNtCs5AlOhPCr03V_3syn5token5CommaEE7sub_ptrBW_, symObjAddr: 0x2388, symBinAddr: 0xF9E8, symSize: 0x74 }
  - { offset: 0x39563, size: 0x8, addend: 0x0, symName: __RNvMs1_NtNtCsfvfooZQ3Axs_4core3ptr8non_nullINtB5_7NonNullTNtCs3QdX7iRpTt9_10fax_derive6BitMapNtNtCs5AlOhPCr03V_3syn5token5CommaEE7sub_ptrBW_, symObjAddr: 0x23FC, symBinAddr: 0xFA5C, symSize: 0x74 }
  - { offset: 0x3965C, size: 0x8, addend: 0x0, symName: __RNvMs1_NtNtCsfvfooZQ3Axs_4core3ptr8non_nullINtB5_7NonNullTjNtCs3QdX7iRpTt9_10fax_derive4BitsEE7sub_ptrBX_, symObjAddr: 0x2470, symBinAddr: 0xFAD0, symSize: 0x74 }
  - { offset: 0x3972C, size: 0x8, addend: 0x0, symName: __RNvMsJ_NtCs5AlOhPCr03V_3syn10punctuatedINtB5_4PairNtCs3QdX7iRpTt9_10fax_derive11BitMapEntryNtNtB7_5token5CommaE10into_valueBO_, symObjAddr: 0x24E4, symBinAddr: 0xFB44, symSize: 0xDC }
  - { offset: 0x39780, size: 0x8, addend: 0x0, symName: __RNvMsJ_NtCs5AlOhPCr03V_3syn10punctuatedINtB5_4PairNtCs3QdX7iRpTt9_10fax_derive6BitMapNtNtB7_5token5CommaE10into_valueBO_, symObjAddr: 0x25C0, symBinAddr: 0xFC20, symSize: 0xD4 }
  - { offset: 0x397E1, size: 0x8, addend: 0x0, symName: __RNvMs_NtNtCsfvfooZQ3Axs_4core3fmt2rtNtB4_8Argument10from_usizeCs3QdX7iRpTt9_10fax_derive, symObjAddr: 0x2694, symBinAddr: 0xFCF4, symSize: 0x28 }
  - { offset: 0x39D9D, size: 0x8, addend: 0x0, symName: __RNvXs4_NtCs2cqEZUIJimJ_5quote9___privateINtB5_9RepInterpNtCs3cP53eQoTwO_11proc_macro211TokenStreamENtNtB7_9to_tokens8ToTokens9to_tokensCs3QdX7iRpTt9_10fax_derive, symObjAddr: 0x34C8, symBinAddr: 0x10B24, symSize: 0x3C }
  - { offset: 0x39DDC, size: 0x8, addend: 0x0, symName: __RNvXs4_NtCs2cqEZUIJimJ_5quote9___privateINtB5_9RepInterpRNtCs3cP53eQoTwO_11proc_macro211TokenStreamENtNtB7_9to_tokens8ToTokens9to_tokensCs3QdX7iRpTt9_10fax_derive, symObjAddr: 0x3504, symBinAddr: 0x10B60, symSize: 0x3C }
  - { offset: 0x39E26, size: 0x8, addend: 0x0, symName: __RNvYINtNtNtNtCsfvfooZQ3Axs_4core4iter8adapters3map3MapINtNtNtBb_5slice4iter4IterINtNtBb_6option6OptionTjhEEENCNvMs0_Cs3QdX7iRpTt9_10fax_deriveNtB1Q_6BitMap4walk0ENtNtNtCs2cqEZUIJimJ_5quote9___private3ext14RepIteratorExt15quote_into_iterB1Q_, symObjAddr: 0x47E4, symBinAddr: 0x11E40, symSize: 0x28 }
  - { offset: 0x39E5B, size: 0x8, addend: 0x0, symName: __RNvYINtNtNtNtCsfvfooZQ3Axs_4core4iter8adapters3map3MapINtNtNtBb_5slice4iter4IterNtCs3QdX7iRpTt9_10fax_derive11BitMapEntryENCNCNvB1i_7bitmaps00ENtNtNtCs2cqEZUIJimJ_5quote9___private3ext14RepIteratorExt15quote_into_iterB1i_, symObjAddr: 0x480C, symBinAddr: 0x11E68, symSize: 0x2C }
  - { offset: 0x39E90, size: 0x8, addend: 0x0, symName: __RNvYINtNtNtNtCsfvfooZQ3Axs_4core4iter8adapters3map3MapINtNtNtBb_5slice4iter4IterNtCs3QdX7iRpTt9_10fax_derive11BitMapEntryENCNCNvB1i_7bitmaps0s_0ENtNtNtCs2cqEZUIJimJ_5quote9___private3ext14RepIteratorExt15quote_into_iterB1i_, symObjAddr: 0x4838, symBinAddr: 0x11E94, symSize: 0x2C }
  - { offset: 0x39EC5, size: 0x8, addend: 0x0, symName: __RNvYINtNtNtNtCsfvfooZQ3Axs_4core4iter8adapters3map3MapINtNtNtBb_5slice4iter4IterNtCs3QdX7iRpTt9_10fax_derive6BitMapENCNvB1i_7bitmaps0ENtNtNtCs2cqEZUIJimJ_5quote9___private3ext14RepIteratorExt15quote_into_iterB1i_, symObjAddr: 0x4864, symBinAddr: 0x11EC0, symSize: 0x2C }
  - { offset: 0x3A375, size: 0x8, addend: 0x0, symName: __RINvMsi_NtCse1nGBsou5OW_5alloc3vecINtB6_3VecINtNtCsfvfooZQ3Axs_4core6option6OptionINtCs3QdX7iRpTt9_10fax_derive4NodejEEE14extend_trustedINtNtNtNtBL_4iter8adapters3map3MapINtNtNtBL_5slice4iter4IterIBx_TjNtB1l_4BitsEEENCNvMs9_B1l_INtB1l_9PrefixLutjE11build_width0EEB1l_, symObjAddr: 0x0, symBinAddr: 0x11FD4, symSize: 0x17C }
  - { offset: 0x3D82A, size: 0x8, addend: 0x0, symName: __RNvMNtCsfvfooZQ3Axs_4core5sliceSINtNtCse1nGBsou5OW_5alloc3vec3VecTjNtCs3QdX7iRpTt9_10fax_derive4BitsEE4iterB15_, symObjAddr: 0xC14, symBinAddr: 0x12BE8, symSize: 0x28 }
  - { offset: 0x40B04, size: 0x8, addend: 0x0, symName: __RINvNtCse1nGBsou5OW_5alloc3vec9from_elemINtB2_3VecTjNtCs3QdX7iRpTt9_10fax_derive4BitsEEEBQ_, symObjAddr: 0x884, symBinAddr: 0x12858, symSize: 0x20 }
  - { offset: 0x40B4B, size: 0x8, addend: 0x0, symName: __RINvNtCse1nGBsou5OW_5alloc3vec9from_elemINtNtCsfvfooZQ3Axs_4core6option6OptionTjhEEECs3QdX7iRpTt9_10fax_derive, symObjAddr: 0x8A4, symBinAddr: 0x12878, symSize: 0x20 }
  - { offset: 0x40D2A, size: 0x8, addend: 0x0, symName: __RINvXNtNtCse1nGBsou5OW_5alloc3vec14spec_from_elemINtB5_3VecTjNtCs3QdX7iRpTt9_10fax_derive4BitsEENtB3_12SpecFromElem9from_elemNtNtB7_5alloc6GlobalEBZ_, symObjAddr: 0x8C4, symBinAddr: 0x12898, symSize: 0x104 }
  - { offset: 0x40DE4, size: 0x8, addend: 0x0, symName: __RINvXsd_NtCse1nGBsou5OW_5alloc3vecINtB6_3VecINtNtCsfvfooZQ3Axs_4core6option6OptionINtCs3QdX7iRpTt9_10fax_derive4NodejEEEINtNtNtNtBL_4iter6traits7collect12FromIteratorBG_E9from_iterINtNtNtB21_8adapters3map3MapINtNtNtBL_5slice4iter4IterIBx_TjNtB1l_4BitsEEENCNvMs9_B1l_INtB1l_9PrefixLutjE11build_width0EEB1l_, symObjAddr: 0x9C8, symBinAddr: 0x1299C, symSize: 0x3C }
  - { offset: 0x40E25, size: 0x8, addend: 0x0, symName: __RINvXsd_NtCse1nGBsou5OW_5alloc3vecINtB6_3VecNtCs3QdX7iRpTt9_10fax_derive11BitMapEntryEINtNtNtNtCsfvfooZQ3Axs_4core4iter6traits7collect12FromIteratorBG_E9from_iterINtNtNtB1t_8adapters3map3MapINtNtCs5AlOhPCr03V_3syn10punctuated9IntoPairsBG_NtNtB37_5token5CommaENCNvXs_BI_NtBI_6BitMapNtNtB37_5parse5Parse5parse0EEBI_, symObjAddr: 0xA04, symBinAddr: 0x129D8, symSize: 0x44 }
  - { offset: 0x40E66, size: 0x8, addend: 0x0, symName: __RINvXsd_NtCse1nGBsou5OW_5alloc3vecINtB6_3VecNtCs3QdX7iRpTt9_10fax_derive6BitMapEINtNtNtNtCsfvfooZQ3Axs_4core4iter6traits7collect12FromIteratorBG_E9from_iterINtNtNtB1n_8adapters3map3MapINtNtCs5AlOhPCr03V_3syn10punctuated9IntoPairsBG_NtNtB31_5token5CommaENCNvXBI_NtBI_7BitMapsNtNtB31_5parse5Parse5parse0EEBI_, symObjAddr: 0xA48, symBinAddr: 0x12A1C, symSize: 0x44 }
  - { offset: 0x40EA7, size: 0x8, addend: 0x0, symName: __RINvXsd_NtCse1nGBsou5OW_5alloc3vecINtB6_3VecNtCs3cP53eQoTwO_11proc_macro211TokenStreamEINtNtNtNtCsfvfooZQ3Axs_4core4iter6traits7collect12FromIteratorBG_E9from_iterINtNtNtB1u_8adapters3map3MapINtNtB2G_9enumerate9EnumerateINtNtNtB1w_5slice4iter4IterINtNtB1w_6option6OptionINtCs3QdX7iRpTt9_10fax_derive4NodejEEEENCNvMs0_B4n_NtB4n_6BitMap4walks_0EEB4n_, symObjAddr: 0xA8C, symBinAddr: 0x12A60, symSize: 0x3C }
  - { offset: 0x40EE8, size: 0x8, addend: 0x0, symName: __RINvXsd_NtCse1nGBsou5OW_5alloc3vecINtB6_3VecTjNtCs3QdX7iRpTt9_10fax_derive4BitsEEINtNtNtNtCsfvfooZQ3Axs_4core4iter6traits7collect12FromIteratorBG_E9from_iterINtNtNtB1o_8adapters3map3MapINtNtB2A_9enumerate9EnumerateINtNtNtB1q_5slice4iter4IterNtBK_11BitMapEntryEENCNvMs0_BK_NtBK_6BitMap5build0EEBK_, symObjAddr: 0xAC8, symBinAddr: 0x12A9C, symSize: 0x3C }
  - { offset: 0x40F34, size: 0x8, addend: 0x0, symName: __RNCINvMsi_NtCse1nGBsou5OW_5alloc3vecINtB8_3VecINtNtCsfvfooZQ3Axs_4core6option6OptionINtCs3QdX7iRpTt9_10fax_derive4NodejEEE14extend_trustedINtNtNtNtBN_4iter8adapters3map3MapINtNtNtBN_5slice4iter4IterIBz_TjNtB1n_4BitsEEENCNvMs9_B1n_INtB1n_9PrefixLutjE11build_width0EE0B1n_, symObjAddr: 0xB04, symBinAddr: 0x12AD8, symSize: 0x54 }
  - { offset: 0x40FF2, size: 0x8, addend: 0x0, symName: __RNCINvMsi_NtCse1nGBsou5OW_5alloc3vecINtB8_3VecNtCs3cP53eQoTwO_11proc_macro211TokenStreamE14extend_trustedINtNtNtNtCsfvfooZQ3Axs_4core4iter8adapters3map3MapINtNtB1K_9enumerate9EnumerateINtNtNtB1O_5slice4iter4IterINtNtB1O_6option6OptionINtCs3QdX7iRpTt9_10fax_derive4NodejEEEENCNvMs0_B3N_NtB3N_6BitMap4walks_0EE0B3N_, symObjAddr: 0xB58, symBinAddr: 0x12B2C, symSize: 0x3C }
  - { offset: 0x410A7, size: 0x8, addend: 0x0, symName: __RNCINvMsi_NtCse1nGBsou5OW_5alloc3vecINtB8_3VecTjNtCs3QdX7iRpTt9_10fax_derive4BitsEE14extend_trustedINtNtNtNtCsfvfooZQ3Axs_4core4iter8adapters3map3MapINtNtB1E_9enumerate9EnumerateINtNtNtB1I_5slice4iter4IterNtBM_11BitMapEntryEENCNvMs0_BM_NtBM_6BitMap5build0EE0BM_, symObjAddr: 0xB94, symBinAddr: 0x12B68, symSize: 0x30 }
  - { offset: 0x412F1, size: 0x8, addend: 0x0, symName: __RNvXNtNtCse1nGBsou5OW_5alloc3vec11spec_extendINtB4_3VecNtCs3QdX7iRpTt9_10fax_derive11BitMapEntryEINtB2_10SpecExtendBR_INtNtNtNtCsfvfooZQ3Axs_4core4iter8adapters3map3MapINtNtCs5AlOhPCr03V_3syn10punctuated9IntoPairsBR_NtNtB2L_5token5CommaENCNvXs_BT_NtBT_6BitMapNtNtB2L_5parse5Parse5parse0EE11spec_extendBT_, symObjAddr: 0x1D34, symBinAddr: 0x13D08, symSize: 0x24 }
  - { offset: 0x41343, size: 0x8, addend: 0x0, symName: __RNvXNtNtCse1nGBsou5OW_5alloc3vec11spec_extendINtB4_3VecNtCs3QdX7iRpTt9_10fax_derive6BitMapEINtB2_10SpecExtendBR_INtNtNtNtCsfvfooZQ3Axs_4core4iter8adapters3map3MapINtNtCs5AlOhPCr03V_3syn10punctuated9IntoPairsBR_NtNtB2F_5token5CommaENCNvXBT_NtBT_7BitMapsNtNtB2F_5parse5Parse5parse0EE11spec_extendBT_, symObjAddr: 0x1D58, symBinAddr: 0x13D2C, symSize: 0x24 }
  - { offset: 0x4139B, size: 0x8, addend: 0x0, symName: __RNvXs_NtNtCse1nGBsou5OW_5alloc3vec11spec_extendINtB6_3VecINtNtCsfvfooZQ3Axs_4core6option6OptionINtCs3QdX7iRpTt9_10fax_derive4NodejEEEINtB4_10SpecExtendBT_INtNtNtNtBY_4iter8adapters3map3MapINtNtNtBY_5slice4iter4IterIBK_TjNtB1y_4BitsEEENCNvMs9_B1y_INtB1y_9PrefixLutjE11build_width0EE11spec_extendB1y_, symObjAddr: 0x2440, symBinAddr: 0x14414, symSize: 0x24 }
  - { offset: 0x413ED, size: 0x8, addend: 0x0, symName: __RNvXs_NtNtCse1nGBsou5OW_5alloc3vec11spec_extendINtB6_3VecNtCs3cP53eQoTwO_11proc_macro211TokenStreamEINtB4_10SpecExtendBT_INtNtNtNtCsfvfooZQ3Axs_4core4iter8adapters3map3MapINtNtB20_9enumerate9EnumerateINtNtNtB24_5slice4iter4IterINtNtB24_6option6OptionINtCs3QdX7iRpTt9_10fax_derive4NodejEEEENCNvMs0_B43_NtB43_6BitMap4walks_0EE11spec_extendB43_, symObjAddr: 0x2464, symBinAddr: 0x14438, symSize: 0x24 }
  - { offset: 0x4143F, size: 0x8, addend: 0x0, symName: __RNvXs_NtNtCse1nGBsou5OW_5alloc3vec11spec_extendINtB6_3VecTjNtCs3QdX7iRpTt9_10fax_derive4BitsEEINtB4_10SpecExtendBT_INtNtNtNtCsfvfooZQ3Axs_4core4iter8adapters3map3MapINtNtB1U_9enumerate9EnumerateINtNtNtB1Y_5slice4iter4IterNtBX_11BitMapEntryEENCNvMs0_BX_NtBX_6BitMap5build0EE11spec_extendBX_, symObjAddr: 0x2488, symBinAddr: 0x1445C, symSize: 0x24 }
  - { offset: 0x4149D, size: 0x8, addend: 0x0, symName: __RNvXNtNtCse1nGBsou5OW_5alloc3vec14spec_from_iterINtB4_3VecINtNtCsfvfooZQ3Axs_4core6option6OptionINtCs3QdX7iRpTt9_10fax_derive4NodejEEEINtB2_12SpecFromIterBU_INtNtNtNtBZ_4iter8adapters3map3MapINtNtNtBZ_5slice4iter4IterIBL_TjNtB1z_4BitsEEENCNvMs9_B1z_INtB1z_9PrefixLutjE11build_width0EE9from_iterB1z_, symObjAddr: 0x1D7C, symBinAddr: 0x13D50, symSize: 0x14 }
  - { offset: 0x414DC, size: 0x8, addend: 0x0, symName: __RNvXNtNtCse1nGBsou5OW_5alloc3vec14spec_from_iterINtB4_3VecNtCs3QdX7iRpTt9_10fax_derive11BitMapEntryEINtB2_12SpecFromIterBU_INtNtNtNtCsfvfooZQ3Axs_4core4iter8adapters3map3MapINtNtCs5AlOhPCr03V_3syn10punctuated9IntoPairsBU_NtNtB2Q_5token5CommaENCNvXs_BW_NtBW_6BitMapNtNtB2Q_5parse5Parse5parse0EE9from_iterBW_, symObjAddr: 0x1D90, symBinAddr: 0x13D64, symSize: 0x14 }
  - { offset: 0x4151B, size: 0x8, addend: 0x0, symName: __RNvXNtNtCse1nGBsou5OW_5alloc3vec14spec_from_iterINtB4_3VecNtCs3QdX7iRpTt9_10fax_derive6BitMapEINtB2_12SpecFromIterBU_INtNtNtNtCsfvfooZQ3Axs_4core4iter8adapters3map3MapINtNtCs5AlOhPCr03V_3syn10punctuated9IntoPairsBU_NtNtB2K_5token5CommaENCNvXBW_NtBW_7BitMapsNtNtB2K_5parse5Parse5parse0EE9from_iterBW_, symObjAddr: 0x1DA4, symBinAddr: 0x13D78, symSize: 0x14 }
  - { offset: 0x4155A, size: 0x8, addend: 0x0, symName: __RNvXNtNtCse1nGBsou5OW_5alloc3vec14spec_from_iterINtB4_3VecNtCs3cP53eQoTwO_11proc_macro211TokenStreamEINtB2_12SpecFromIterBU_INtNtNtNtCsfvfooZQ3Axs_4core4iter8adapters3map3MapINtNtB23_9enumerate9EnumerateINtNtNtB27_5slice4iter4IterINtNtB27_6option6OptionINtCs3QdX7iRpTt9_10fax_derive4NodejEEEENCNvMs0_B46_NtB46_6BitMap4walks_0EE9from_iterB46_, symObjAddr: 0x1DB8, symBinAddr: 0x13D8C, symSize: 0x14 }
  - { offset: 0x41599, size: 0x8, addend: 0x0, symName: __RNvXNtNtCse1nGBsou5OW_5alloc3vec14spec_from_iterINtB4_3VecTjNtCs3QdX7iRpTt9_10fax_derive4BitsEEINtB2_12SpecFromIterBU_INtNtNtNtCsfvfooZQ3Axs_4core4iter8adapters3map3MapINtNtB1X_9enumerate9EnumerateINtNtNtB21_5slice4iter4IterNtBY_11BitMapEntryEENCNvMs0_BY_NtBY_6BitMap5build0EE9from_iterBY_, symObjAddr: 0x1DCC, symBinAddr: 0x13DA0, symSize: 0x14 }
  - { offset: 0x415E4, size: 0x8, addend: 0x0, symName: __RNvXNtNtCse1nGBsou5OW_5alloc3vec21spec_from_iter_nestedINtB4_3VecNtCs3QdX7iRpTt9_10fax_derive11BitMapEntryEINtB2_18SpecFromIterNestedB11_INtNtNtNtCsfvfooZQ3Axs_4core4iter8adapters3map3MapINtNtCs5AlOhPCr03V_3syn10punctuated9IntoPairsB11_NtNtB34_5token5CommaENCNvXs_B13_NtB13_6BitMapNtNtB34_5parse5Parse5parse0EE9from_iterB13_, symObjAddr: 0x1DE0, symBinAddr: 0x13DB4, symSize: 0x254 }
  - { offset: 0x41803, size: 0x8, addend: 0x0, symName: __RNvXNtNtCse1nGBsou5OW_5alloc3vec21spec_from_iter_nestedINtB4_3VecNtCs3QdX7iRpTt9_10fax_derive6BitMapEINtB2_18SpecFromIterNestedB11_INtNtNtNtCsfvfooZQ3Axs_4core4iter8adapters3map3MapINtNtCs5AlOhPCr03V_3syn10punctuated9IntoPairsB11_NtNtB2Y_5token5CommaENCNvXB13_NtB13_7BitMapsNtNtB2Y_5parse5Parse5parse0EE9from_iterB13_, symObjAddr: 0x2034, symBinAddr: 0x14008, symSize: 0x250 }
  - { offset: 0x41A28, size: 0x8, addend: 0x0, symName: __RNvXs_NtNtCse1nGBsou5OW_5alloc3vec21spec_from_iter_nestedINtB6_3VecINtNtCsfvfooZQ3Axs_4core6option6OptionINtCs3QdX7iRpTt9_10fax_derive4NodejEEEINtB4_18SpecFromIterNestedB13_INtNtNtNtB18_4iter8adapters3map3MapINtNtNtB18_5slice4iter4IterIBU_TjNtB1I_4BitsEEENCNvMs9_B1I_INtB1I_9PrefixLutjE11build_width0EE9from_iterB1I_, symObjAddr: 0x24AC, symBinAddr: 0x14480, symSize: 0x16C }
  - { offset: 0x41AFF, size: 0x8, addend: 0x0, symName: __RNvXs_NtNtCse1nGBsou5OW_5alloc3vec21spec_from_iter_nestedINtB6_3VecNtCs3cP53eQoTwO_11proc_macro211TokenStreamEINtB4_18SpecFromIterNestedB13_INtNtNtNtCsfvfooZQ3Axs_4core4iter8adapters3map3MapINtNtB2j_9enumerate9EnumerateINtNtNtB2n_5slice4iter4IterINtNtB2n_6option6OptionINtCs3QdX7iRpTt9_10fax_derive4NodejEEEENCNvMs0_B4m_NtB4m_6BitMap4walks_0EE9from_iterB4m_, symObjAddr: 0x2618, symBinAddr: 0x145EC, symSize: 0x180 }
  - { offset: 0x41BD6, size: 0x8, addend: 0x0, symName: __RNvXs_NtNtCse1nGBsou5OW_5alloc3vec21spec_from_iter_nestedINtB6_3VecTjNtCs3QdX7iRpTt9_10fax_derive4BitsEEINtB4_18SpecFromIterNestedB13_INtNtNtNtCsfvfooZQ3Axs_4core4iter8adapters3map3MapINtNtB2d_9enumerate9EnumerateINtNtNtB2h_5slice4iter4IterNtB17_11BitMapEntryEENCNvMs0_B17_NtB17_6BitMap5build0EE9from_iterB17_, symObjAddr: 0x2798, symBinAddr: 0x1476C, symSize: 0x16C }
  - { offset: 0x41CB4, size: 0x8, addend: 0x0, symName: __RNvXs6_NtCse1nGBsou5OW_5alloc3vecINtB5_3VecIBw_TjNtCs3QdX7iRpTt9_10fax_derive4BitsEEENtNtNtCsfvfooZQ3Axs_4core3ops5deref5Deref5derefBN_, symObjAddr: 0x22BC, symBinAddr: 0x14290, symSize: 0x24 }
  - { offset: 0x41CF4, size: 0x8, addend: 0x0, symName: __RNvXs6_NtCse1nGBsou5OW_5alloc3vecINtB5_3VecINtNtCsfvfooZQ3Axs_4core6option6OptionINtCs3QdX7iRpTt9_10fax_derive4NodejEEENtNtNtBK_3ops5deref5Deref5derefB1k_, symObjAddr: 0x22E0, symBinAddr: 0x142B4, symSize: 0x24 }
  - { offset: 0x41D34, size: 0x8, addend: 0x0, symName: __RNvXs6_NtCse1nGBsou5OW_5alloc3vecINtB5_3VecINtNtCsfvfooZQ3Axs_4core6option6OptionTjhEEENtNtNtBK_3ops5deref5Deref5derefCs3QdX7iRpTt9_10fax_derive, symObjAddr: 0x2304, symBinAddr: 0x142D8, symSize: 0x24 }
  - { offset: 0x41D74, size: 0x8, addend: 0x0, symName: __RNvXs6_NtCse1nGBsou5OW_5alloc3vecINtB5_3VecNtCs3QdX7iRpTt9_10fax_derive11BitMapEntryENtNtNtCsfvfooZQ3Axs_4core3ops5deref5Deref5derefBH_, symObjAddr: 0x2328, symBinAddr: 0x142FC, symSize: 0x24 }
  - { offset: 0x41DB4, size: 0x8, addend: 0x0, symName: __RNvXs6_NtCse1nGBsou5OW_5alloc3vecINtB5_3VecNtCs3QdX7iRpTt9_10fax_derive6BitMapENtNtNtCsfvfooZQ3Axs_4core3ops5deref5Deref5derefBH_, symObjAddr: 0x234C, symBinAddr: 0x14320, symSize: 0x24 }
  - { offset: 0x41DF4, size: 0x8, addend: 0x0, symName: __RNvXs6_NtCse1nGBsou5OW_5alloc3vecINtB5_3VecNtCs3cP53eQoTwO_11proc_macro211TokenStreamENtNtNtCsfvfooZQ3Axs_4core3ops5deref5Deref5derefCs3QdX7iRpTt9_10fax_derive, symObjAddr: 0x2370, symBinAddr: 0x14344, symSize: 0x24 }
  - { offset: 0x41E34, size: 0x8, addend: 0x0, symName: __RNvXs6_NtCse1nGBsou5OW_5alloc3vecINtB5_3VecTjNtCs3QdX7iRpTt9_10fax_derive4BitsEENtNtNtCsfvfooZQ3Axs_4core3ops5deref5Deref5derefBJ_, symObjAddr: 0x2394, symBinAddr: 0x14368, symSize: 0x24 }
  - { offset: 0x41EDA, size: 0x8, addend: 0x0, symName: __RNvXs9_NtCse1nGBsou5OW_5alloc3vecINtB5_3VecTjNtCs3QdX7iRpTt9_10fax_derive4BitsEENtNtCsfvfooZQ3Axs_4core5clone5Clone5cloneBJ_, symObjAddr: 0x23B8, symBinAddr: 0x1438C, symSize: 0x88 }
  - { offset: 0x420D7, size: 0x8, addend: 0x0, symName: __RNvXsb_NtCse1nGBsou5OW_5alloc3vecINtB5_3VecNtCs3QdX7iRpTt9_10fax_derive11BitMapEntryEINtNtNtCsfvfooZQ3Axs_4core3ops5index5IndexjE5indexBH_, symObjAddr: 0x2904, symBinAddr: 0x148D8, symSize: 0x84 }
  - { offset: 0x422C5, size: 0x8, addend: 0x0, symName: __RNvXsc_NtCse1nGBsou5OW_5alloc3vecINtB5_3VecIBw_TjNtCs3QdX7iRpTt9_10fax_derive4BitsEEEINtNtNtCsfvfooZQ3Axs_4core3ops5index8IndexMutjE9index_mutBN_, symObjAddr: 0x2988, symBinAddr: 0x1495C, symSize: 0x84 }
  - { offset: 0x42419, size: 0x8, addend: 0x0, symName: __RNvXsc_NtCse1nGBsou5OW_5alloc3vecINtB5_3VecINtNtCsfvfooZQ3Axs_4core6option6OptionTjhEEEINtNtNtBK_3ops5index8IndexMutjE9index_mutCs3QdX7iRpTt9_10fax_derive, symObjAddr: 0x2A0C, symBinAddr: 0x149E0, symSize: 0x84 }
  - { offset: 0x42573, size: 0x8, addend: 0x0, symName: __RNvXse_NtCse1nGBsou5OW_5alloc3vecINtB5_3VecTNtCs3QdX7iRpTt9_10fax_derive11BitMapEntryNtNtCs5AlOhPCr03V_3syn5token5CommaEENtNtNtNtCsfvfooZQ3Axs_4core4iter6traits7collect12IntoIterator9into_iterBI_, symObjAddr: 0x2A90, symBinAddr: 0x14A64, symSize: 0xE4 }
  - { offset: 0x42805, size: 0x8, addend: 0x0, symName: __RNvXse_NtCse1nGBsou5OW_5alloc3vecINtB5_3VecTNtCs3QdX7iRpTt9_10fax_derive6BitMapNtNtCs5AlOhPCr03V_3syn5token5CommaEENtNtNtNtCsfvfooZQ3Axs_4core4iter6traits7collect12IntoIterator9into_iterBI_, symObjAddr: 0x2B74, symBinAddr: 0x14B48, symSize: 0xE4 }
  - { offset: 0x42A9D, size: 0x8, addend: 0x0, symName: __RNvXsn_NtCse1nGBsou5OW_5alloc3vecINtB5_3VecIBw_TjNtCs3QdX7iRpTt9_10fax_derive4BitsEEENtNtNtCsfvfooZQ3Axs_4core3ops4drop4Drop4dropBN_, symObjAddr: 0x2C58, symBinAddr: 0x14C2C, symSize: 0x38 }
  - { offset: 0x42B4D, size: 0x8, addend: 0x0, symName: __RNvXsn_NtCse1nGBsou5OW_5alloc3vecINtB5_3VecINtNtCsfvfooZQ3Axs_4core6option6OptionINtCs3QdX7iRpTt9_10fax_derive4NodejEEENtNtNtBK_3ops4drop4Drop4dropB1k_, symObjAddr: 0x2C90, symBinAddr: 0x14C64, symSize: 0x38 }
  - { offset: 0x42BFD, size: 0x8, addend: 0x0, symName: __RNvXsn_NtCse1nGBsou5OW_5alloc3vecINtB5_3VecINtNtCsfvfooZQ3Axs_4core6option6OptionTjhEEENtNtNtBK_3ops4drop4Drop4dropCs3QdX7iRpTt9_10fax_derive, symObjAddr: 0x2CC8, symBinAddr: 0x14C9C, symSize: 0x24 }
  - { offset: 0x42CAD, size: 0x8, addend: 0x0, symName: __RNvXsn_NtCse1nGBsou5OW_5alloc3vecINtB5_3VecNtCs3QdX7iRpTt9_10fax_derive11BitMapEntryENtNtNtCsfvfooZQ3Axs_4core3ops4drop4Drop4dropBH_, symObjAddr: 0x2CEC, symBinAddr: 0x14CC0, symSize: 0x38 }
  - { offset: 0x42D5D, size: 0x8, addend: 0x0, symName: __RNvXsn_NtCse1nGBsou5OW_5alloc3vecINtB5_3VecNtCs3QdX7iRpTt9_10fax_derive6BitMapENtNtNtCsfvfooZQ3Axs_4core3ops4drop4Drop4dropBH_, symObjAddr: 0x2D24, symBinAddr: 0x14CF8, symSize: 0x38 }
  - { offset: 0x42E0D, size: 0x8, addend: 0x0, symName: __RNvXsn_NtCse1nGBsou5OW_5alloc3vecINtB5_3VecNtCs3cP53eQoTwO_11proc_macro211TokenStreamENtNtNtCsfvfooZQ3Axs_4core3ops4drop4Drop4dropCs3QdX7iRpTt9_10fax_derive, symObjAddr: 0x2D5C, symBinAddr: 0x14D30, symSize: 0x38 }
  - { offset: 0x42EBD, size: 0x8, addend: 0x0, symName: __RNvXsn_NtCse1nGBsou5OW_5alloc3vecINtB5_3VecTNtCs3QdX7iRpTt9_10fax_derive11BitMapEntryNtNtCs5AlOhPCr03V_3syn5token5CommaEENtNtNtCsfvfooZQ3Axs_4core3ops4drop4Drop4dropBI_, symObjAddr: 0x2D94, symBinAddr: 0x14D68, symSize: 0x38 }
  - { offset: 0x42F6D, size: 0x8, addend: 0x0, symName: __RNvXsn_NtCse1nGBsou5OW_5alloc3vecINtB5_3VecTNtCs3QdX7iRpTt9_10fax_derive6BitMapNtNtCs5AlOhPCr03V_3syn5token5CommaEENtNtNtCsfvfooZQ3Axs_4core3ops4drop4Drop4dropBI_, symObjAddr: 0x2DCC, symBinAddr: 0x14DA0, symSize: 0x38 }
  - { offset: 0x4301D, size: 0x8, addend: 0x0, symName: __RNvXsn_NtCse1nGBsou5OW_5alloc3vecINtB5_3VecTjNtCs3QdX7iRpTt9_10fax_derive4BitsEENtNtNtCsfvfooZQ3Axs_4core3ops4drop4Drop4dropBJ_, symObjAddr: 0x2E04, symBinAddr: 0x14DD8, symSize: 0x24 }
  - { offset: 0x435CA, size: 0x8, addend: 0x0, symName: __RINvMsi_NtCse1nGBsou5OW_5alloc3vecINtB6_3VecINtNtCsfvfooZQ3Axs_4core6option6OptionINtCs3QdX7iRpTt9_10fax_derive4NodejEEE14extend_trustedINtNtNtNtBL_4iter8adapters3map3MapINtNtNtBL_5slice4iter4IterIBx_TjNtB1l_4BitsEEENCNvMs9_B1l_INtB1l_9PrefixLutjE11build_width0EEB1l_, symObjAddr: 0x0, symBinAddr: 0x11FD4, symSize: 0x17C }
  - { offset: 0x48B06, size: 0x8, addend: 0x0, symName: __RINvMsi_NtCse1nGBsou5OW_5alloc3vecINtB6_3VecNtCs3QdX7iRpTt9_10fax_derive11BitMapEntryE16extend_desugaredINtNtNtNtCsfvfooZQ3Axs_4core4iter8adapters3map3MapINtNtCs5AlOhPCr03V_3syn10punctuated9IntoPairsBG_NtNtB2x_5token5CommaENCNvXs_BI_NtBI_6BitMapNtNtB2x_5parse5Parse5parse0EEBI_, symObjAddr: 0x17C, symBinAddr: 0x12150, symSize: 0x1F8 }
  - { offset: 0x48F0A, size: 0x8, addend: 0x0, symName: __RINvMsi_NtCse1nGBsou5OW_5alloc3vecINtB6_3VecNtCs3QdX7iRpTt9_10fax_derive6BitMapE16extend_desugaredINtNtNtNtCsfvfooZQ3Axs_4core4iter8adapters3map3MapINtNtCs5AlOhPCr03V_3syn10punctuated9IntoPairsBG_NtNtB2r_5token5CommaENCNvXBI_NtBI_7BitMapsNtNtB2r_5parse5Parse5parse0EEBI_, symObjAddr: 0x374, symBinAddr: 0x12348, symSize: 0x200 }
  - { offset: 0x4929B, size: 0x8, addend: 0x0, symName: __RINvMsi_NtCse1nGBsou5OW_5alloc3vecINtB6_3VecNtCs3cP53eQoTwO_11proc_macro211TokenStreamE14extend_trustedINtNtNtNtCsfvfooZQ3Axs_4core4iter8adapters3map3MapINtNtB1I_9enumerate9EnumerateINtNtNtB1M_5slice4iter4IterINtNtB1M_6option6OptionINtCs3QdX7iRpTt9_10fax_derive4NodejEEEENCNvMs0_B3L_NtB3L_6BitMap4walks_0EEB3L_, symObjAddr: 0x574, symBinAddr: 0x12548, symSize: 0x194 }
  - { offset: 0x4957B, size: 0x8, addend: 0x0, symName: __RINvMsi_NtCse1nGBsou5OW_5alloc3vecINtB6_3VecTjNtCs3QdX7iRpTt9_10fax_derive4BitsEE14extend_trustedINtNtNtNtCsfvfooZQ3Axs_4core4iter8adapters3map3MapINtNtB1C_9enumerate9EnumerateINtNtNtB1G_5slice4iter4IterNtBK_11BitMapEntryEENCNvMs0_BK_NtBK_6BitMap5build0EEBK_, symObjAddr: 0x708, symBinAddr: 0x126DC, symSize: 0x17C }
  - { offset: 0x497F1, size: 0x8, addend: 0x0, symName: __RNvMNtCse1nGBsou5OW_5alloc3vecINtB2_3VecNtCs3cP53eQoTwO_11proc_macro211TokenStreamE3newCs3QdX7iRpTt9_10fax_derive, symObjAddr: 0xBC4, symBinAddr: 0x12B98, symSize: 0x14 }
  - { offset: 0x4980E, size: 0x8, addend: 0x0, symName: __RNvMNtCse1nGBsou5OW_5alloc3vecINtB2_3VecTNtCs3QdX7iRpTt9_10fax_derive11BitMapEntryNtNtCs5AlOhPCr03V_3syn5token5CommaEE3newBF_, symObjAddr: 0xBD8, symBinAddr: 0x12BAC, symSize: 0x14 }
  - { offset: 0x4982B, size: 0x8, addend: 0x0, symName: __RNvMNtCse1nGBsou5OW_5alloc3vecINtB2_3VecTNtCs3QdX7iRpTt9_10fax_derive6BitMapNtNtCs5AlOhPCr03V_3syn5token5CommaEE3newBF_, symObjAddr: 0xBEC, symBinAddr: 0x12BC0, symSize: 0x14 }
  - { offset: 0x49848, size: 0x8, addend: 0x0, symName: __RNvMNtCse1nGBsou5OW_5alloc3vecINtB2_3VecTjNtCs3QdX7iRpTt9_10fax_derive4BitsEE3newBG_, symObjAddr: 0xC00, symBinAddr: 0x12BD4, symSize: 0x14 }
  - { offset: 0x49988, size: 0x8, addend: 0x0, symName: __RNvMs2_NtCse1nGBsou5OW_5alloc3vecINtB5_3VecIBw_TjNtCs3QdX7iRpTt9_10fax_derive4BitsEEE11extend_withBN_, symObjAddr: 0xC3C, symBinAddr: 0x12C10, symSize: 0x244 }
  - { offset: 0x49D22, size: 0x8, addend: 0x0, symName: __RNvMs2_NtCse1nGBsou5OW_5alloc3vecINtB5_3VecINtNtCsfvfooZQ3Axs_4core6option6OptionTjhEEE11extend_withCs3QdX7iRpTt9_10fax_derive, symObjAddr: 0xE80, symBinAddr: 0x12E54, symSize: 0x22C }
  - { offset: 0x4A0D6, size: 0x8, addend: 0x0, symName: __RNvMs_NtCse1nGBsou5OW_5alloc3vecINtB4_3VecIBv_TjNtCs3QdX7iRpTt9_10fax_derive4BitsEEE7reserveBM_, symObjAddr: 0x10AC, symBinAddr: 0x13080, symSize: 0xC8 }
  - { offset: 0x4A2D4, size: 0x8, addend: 0x0, symName: __RNvMs_NtCse1nGBsou5OW_5alloc3vecINtB4_3VecIBv_TjNtCs3QdX7iRpTt9_10fax_derive4BitsEEE8as_sliceBM_, symObjAddr: 0x1174, symBinAddr: 0x13148, symSize: 0x64 }
  - { offset: 0x4A4A4, size: 0x8, addend: 0x0, symName: __RNvMs_NtCse1nGBsou5OW_5alloc3vecINtB4_3VecINtNtCsfvfooZQ3Axs_4core6option6OptionINtCs3QdX7iRpTt9_10fax_derive4NodejEEE7reserveB1j_, symObjAddr: 0x11D8, symBinAddr: 0x131AC, symSize: 0xC8 }
  - { offset: 0x4A6AF, size: 0x8, addend: 0x0, symName: __RNvMs_NtCse1nGBsou5OW_5alloc3vecINtB4_3VecINtNtCsfvfooZQ3Axs_4core6option6OptionINtCs3QdX7iRpTt9_10fax_derive4NodejEEE8as_sliceB1j_, symObjAddr: 0x12A0, symBinAddr: 0x13274, symSize: 0x64 }
  - { offset: 0x4A769, size: 0x8, addend: 0x0, symName: __RNvMs_NtCse1nGBsou5OW_5alloc3vecINtB4_3VecINtNtCsfvfooZQ3Axs_4core6option6OptionTjhEEE3lenCs3QdX7iRpTt9_10fax_derive, symObjAddr: 0x1304, symBinAddr: 0x132D8, symSize: 0x18 }
  - { offset: 0x4A8B4, size: 0x8, addend: 0x0, symName: __RNvMs_NtCse1nGBsou5OW_5alloc3vecINtB4_3VecINtNtCsfvfooZQ3Axs_4core6option6OptionTjhEEE7reserveCs3QdX7iRpTt9_10fax_derive, symObjAddr: 0x131C, symBinAddr: 0x132F0, symSize: 0xC8 }
  - { offset: 0x4AAB2, size: 0x8, addend: 0x0, symName: __RNvMs_NtCse1nGBsou5OW_5alloc3vecINtB4_3VecINtNtCsfvfooZQ3Axs_4core6option6OptionTjhEEE8as_sliceCs3QdX7iRpTt9_10fax_derive, symObjAddr: 0x13E4, symBinAddr: 0x133B8, symSize: 0x64 }
  - { offset: 0x4AB6C, size: 0x8, addend: 0x0, symName: __RNvMs_NtCse1nGBsou5OW_5alloc3vecINtB4_3VecNtCs3QdX7iRpTt9_10fax_derive11BitMapEntryE3lenBG_, symObjAddr: 0x1448, symBinAddr: 0x1341C, symSize: 0x18 }
  - { offset: 0x4ACB7, size: 0x8, addend: 0x0, symName: __RNvMs_NtCse1nGBsou5OW_5alloc3vecINtB4_3VecNtCs3QdX7iRpTt9_10fax_derive11BitMapEntryE7reserveBG_, symObjAddr: 0x1460, symBinAddr: 0x13434, symSize: 0xC8 }
  - { offset: 0x4AEB5, size: 0x8, addend: 0x0, symName: __RNvMs_NtCse1nGBsou5OW_5alloc3vecINtB4_3VecNtCs3QdX7iRpTt9_10fax_derive11BitMapEntryE8as_sliceBG_, symObjAddr: 0x1528, symBinAddr: 0x134FC, symSize: 0x64 }
  - { offset: 0x4B085, size: 0x8, addend: 0x0, symName: __RNvMs_NtCse1nGBsou5OW_5alloc3vecINtB4_3VecNtCs3QdX7iRpTt9_10fax_derive6BitMapE7reserveBG_, symObjAddr: 0x158C, symBinAddr: 0x13560, symSize: 0xC8 }
  - { offset: 0x4B283, size: 0x8, addend: 0x0, symName: __RNvMs_NtCse1nGBsou5OW_5alloc3vecINtB4_3VecNtCs3QdX7iRpTt9_10fax_derive6BitMapE8as_sliceBG_, symObjAddr: 0x1654, symBinAddr: 0x13628, symSize: 0x64 }
  - { offset: 0x4B41C, size: 0x8, addend: 0x0, symName: __RNvMs_NtCse1nGBsou5OW_5alloc3vecINtB4_3VecNtCs3cP53eQoTwO_11proc_macro211TokenStreamE4pushCs3QdX7iRpTt9_10fax_derive, symObjAddr: 0x16B8, symBinAddr: 0x1368C, symSize: 0x100 }
  - { offset: 0x4B6E6, size: 0x8, addend: 0x0, symName: __RNvMs_NtCse1nGBsou5OW_5alloc3vecINtB4_3VecNtCs3cP53eQoTwO_11proc_macro211TokenStreamE7reserveCs3QdX7iRpTt9_10fax_derive, symObjAddr: 0x17B8, symBinAddr: 0x1378C, symSize: 0xC8 }
  - { offset: 0x4B8F1, size: 0x8, addend: 0x0, symName: __RNvMs_NtCse1nGBsou5OW_5alloc3vecINtB4_3VecNtCs3cP53eQoTwO_11proc_macro211TokenStreamE8as_sliceCs3QdX7iRpTt9_10fax_derive, symObjAddr: 0x1880, symBinAddr: 0x13854, symSize: 0x64 }
  - { offset: 0x4BAB1, size: 0x8, addend: 0x0, symName: __RNvMs_NtCse1nGBsou5OW_5alloc3vecINtB4_3VecTNtCs3QdX7iRpTt9_10fax_derive11BitMapEntryNtNtCs5AlOhPCr03V_3syn5token5CommaEE4pushBH_, symObjAddr: 0x18E4, symBinAddr: 0x138B8, symSize: 0x120 }
  - { offset: 0x4BD6E, size: 0x8, addend: 0x0, symName: __RNvMs_NtCse1nGBsou5OW_5alloc3vecINtB4_3VecTNtCs3QdX7iRpTt9_10fax_derive6BitMapNtNtCs5AlOhPCr03V_3syn5token5CommaEE4pushBH_, symObjAddr: 0x1A04, symBinAddr: 0x139D8, symSize: 0x120 }
  - { offset: 0x4C004, size: 0x8, addend: 0x0, symName: __RNvMs_NtCse1nGBsou5OW_5alloc3vecINtB4_3VecTjNtCs3QdX7iRpTt9_10fax_derive4BitsEE4pushBI_, symObjAddr: 0x1B24, symBinAddr: 0x13AF8, symSize: 0xE4 }
  - { offset: 0x4C2CE, size: 0x8, addend: 0x0, symName: __RNvMs_NtCse1nGBsou5OW_5alloc3vecINtB4_3VecTjNtCs3QdX7iRpTt9_10fax_derive4BitsEE7reserveBI_, symObjAddr: 0x1C08, symBinAddr: 0x13BDC, symSize: 0xC8 }
  - { offset: 0x4C4CC, size: 0x8, addend: 0x0, symName: __RNvMs_NtCse1nGBsou5OW_5alloc3vecINtB4_3VecTjNtCs3QdX7iRpTt9_10fax_derive4BitsEE8as_sliceBI_, symObjAddr: 0x1CD0, symBinAddr: 0x13CA4, symSize: 0x64 }
  - { offset: 0x4C81A, size: 0x8, addend: 0x0, symName: __RNvXs4_NtNtCs2cqEZUIJimJ_5quote9___private3extINtNtCse1nGBsou5OW_5alloc3vec3VecNtCs3cP53eQoTwO_11proc_macro211TokenStreamENtB5_16RepAsIteratorExt15quote_into_iterCs3QdX7iRpTt9_10fax_derive, symObjAddr: 0x2284, symBinAddr: 0x14258, symSize: 0x38 }
  - { offset: 0x4E668, size: 0x8, addend: 0x0, symName: __RNvXNtNtCs5AlOhPCr03V_3syn4item7parsingNtB4_4ItemNtNtB6_5parse5Parse5parse, symObjAddr: 0x34F4, symBinAddr: 0x15314, symSize: 0x4190 }
  - { offset: 0x4EFDF, size: 0x8, addend: 0x0, symName: __RNvXs0_NtNtCs5AlOhPCr03V_3syn4item7parsingNtB7_9ItemMacroNtNtB9_5parse5Parse5parse, symObjAddr: 0x7684, symBinAddr: 0x194A4, symSize: 0x5C4 }
  - { offset: 0x4F1AD, size: 0x8, addend: 0x0, symName: __RNvXs1_NtNtCs5AlOhPCr03V_3syn4item7parsingNtB7_10ItemMacro2NtNtB9_5parse5Parse5parse, symObjAddr: 0x7C48, symBinAddr: 0x19A68, symSize: 0xBAC }
  - { offset: 0x4F4C5, size: 0x8, addend: 0x0, symName: __RNvXs2_NtNtCs5AlOhPCr03V_3syn4item7parsingNtB7_15ItemExternCrateNtNtB9_5parse5Parse5parse, symObjAddr: 0x87F4, symBinAddr: 0x1A614, symSize: 0x934 }
  - { offset: 0x4F6CF, size: 0x8, addend: 0x0, symName: __RNvXs3_NtNtCs5AlOhPCr03V_3syn4item7parsingNtB7_7ItemUseNtNtB9_5parse5Parse5parse, symObjAddr: 0x9128, symBinAddr: 0x1AF48, symSize: 0x5FC }
  - { offset: 0x4F81A, size: 0x8, addend: 0x0, symName: __RNvXs4_NtNtCs5AlOhPCr03V_3syn4item7parsingNtB7_7UseTreeNtNtB9_5parse5Parse5parse, symObjAddr: 0x9724, symBinAddr: 0x1B544, symSize: 0xBF0 }
  - { offset: 0x4F9F5, size: 0x8, addend: 0x0, symName: __RNvXs7_NtNtCs5AlOhPCr03V_3syn4item7parsingNtB7_9SignatureNtNtB9_5parse5Parse5parse, symObjAddr: 0xB898, symBinAddr: 0x1C134, symSize: 0xA98 }
  - { offset: 0x4FD16, size: 0x8, addend: 0x0, symName: __RNvXs9_NtNtCs5AlOhPCr03V_3syn4item7parsingNtB7_5FnArgNtNtB9_5parse5Parse5parse, symObjAddr: 0xC68C, symBinAddr: 0x1CBCC, symSize: 0x4F4 }
  - { offset: 0x4FE1A, size: 0x8, addend: 0x0, symName: __RNvXsa_NtNtCs5AlOhPCr03V_3syn4item7parsingNtB7_8ReceiverNtNtB9_5parse5Parse5parse, symObjAddr: 0xCB80, symBinAddr: 0x1D0C0, symSize: 0x410 }
  - { offset: 0x4FEBA, size: 0x8, addend: 0x0, symName: __RNvXsb_NtNtCs5AlOhPCr03V_3syn4item7parsingNtB7_7ItemModNtNtB9_5parse5Parse5parse, symObjAddr: 0xCF90, symBinAddr: 0x1D4D0, symSize: 0xB0C }
  - { offset: 0x500EF, size: 0x8, addend: 0x0, symName: __RNvXsc_NtNtCs5AlOhPCr03V_3syn4item7parsingNtB7_14ItemForeignModNtNtB9_5parse5Parse5parse, symObjAddr: 0xDA9C, symBinAddr: 0x1DFDC, symSize: 0x564 }
  - { offset: 0x50272, size: 0x8, addend: 0x0, symName: __RNvXsd_NtNtCs5AlOhPCr03V_3syn4item7parsingNtB7_11ForeignItemNtNtB9_5parse5Parse5parse, symObjAddr: 0xE000, symBinAddr: 0x1E540, symSize: 0x1B80 }
  - { offset: 0x507C4, size: 0x8, addend: 0x0, symName: __RNvXsh_NtNtCs5AlOhPCr03V_3syn4item7parsingNtB7_16ForeignItemMacroNtNtB9_5parse5Parse5parse, symObjAddr: 0x10C50, symBinAddr: 0x200C0, symSize: 0x328 }
  - { offset: 0x508D8, size: 0x8, addend: 0x0, symName: __RNvXsj_NtNtCs5AlOhPCr03V_3syn4item7parsingNtB7_10ItemStructNtNtB9_5parse5Parse5parse, symObjAddr: 0x11948, symBinAddr: 0x203E8, symSize: 0x630 }
  - { offset: 0x50AD5, size: 0x8, addend: 0x0, symName: __RNvXsk_NtNtCs5AlOhPCr03V_3syn4item7parsingNtB7_8ItemEnumNtNtB9_5parse5Parse5parse, symObjAddr: 0x11F78, symBinAddr: 0x20A18, symSize: 0x624 }
  - { offset: 0x50CD1, size: 0x8, addend: 0x0, symName: __RNvXsl_NtNtCs5AlOhPCr03V_3syn4item7parsingNtB7_9ItemUnionNtNtB9_5parse5Parse5parse, symObjAddr: 0x1259C, symBinAddr: 0x2103C, symSize: 0x61C }
  - { offset: 0x50EBD, size: 0x8, addend: 0x0, symName: __RNvXsm_NtNtCs5AlOhPCr03V_3syn4item7parsingNtB7_9ItemTraitNtNtB9_5parse5Parse5parse, symObjAddr: 0x12BB8, symBinAddr: 0x21658, symSize: 0x62C }
  - { offset: 0x510C4, size: 0x8, addend: 0x0, symName: __RNvXso_NtNtCs5AlOhPCr03V_3syn4item7parsingNtB7_9TraitItemNtNtB9_5parse5Parse5parse, symObjAddr: 0x1345C, symBinAddr: 0x21C84, symSize: 0xD5C }
  - { offset: 0x51317, size: 0x8, addend: 0x0, symName: __RNvXsp_NtNtCs5AlOhPCr03V_3syn4item7parsingNtB7_14TraitItemConstNtNtB9_5parse5Parse5parse, symObjAddr: 0x141B8, symBinAddr: 0x229E0, symSize: 0x8E0 }
  - { offset: 0x514C5, size: 0x8, addend: 0x0, symName: __RNvXsq_NtNtCs5AlOhPCr03V_3syn4item7parsingNtB7_15TraitItemMethodNtNtB9_5parse5Parse5parse, symObjAddr: 0x14A98, symBinAddr: 0x232C0, symSize: 0x7D4 }
  - { offset: 0x516C7, size: 0x8, addend: 0x0, symName: __RNvXss_NtNtCs5AlOhPCr03V_3syn4item7parsingNtB7_14TraitItemMacroNtNtB9_5parse5Parse5parse, symObjAddr: 0x15D08, symBinAddr: 0x23A94, symSize: 0x328 }
  - { offset: 0x517DB, size: 0x8, addend: 0x0, symName: __RNvXsu_NtNtCs5AlOhPCr03V_3syn4item7parsingNtB7_8ImplItemNtNtB9_5parse5Parse5parse, symObjAddr: 0x16090, symBinAddr: 0x23DBC, symSize: 0x1648 }
  - { offset: 0x51BC5, size: 0x8, addend: 0x0, symName: __RNvXsw_NtNtCs5AlOhPCr03V_3syn4item7parsingNtB7_14ImplItemMethodNtNtB9_5parse5Parse5parse, symObjAddr: 0x18304, symBinAddr: 0x25404, symSize: 0x9C8 }
  - { offset: 0x51E28, size: 0x8, addend: 0x0, symName: __RNvXsy_NtNtCs5AlOhPCr03V_3syn4item7parsingNtB7_13ImplItemMacroNtNtB9_5parse5Parse5parse, symObjAddr: 0x1950C, symBinAddr: 0x25DCC, symSize: 0x328 }
  - { offset: 0x51F42, size: 0x8, addend: 0x0, symName: __RNvXNtNtCs5AlOhPCr03V_3syn4item8printingNtB4_15ItemExternCrateNtNtCs2cqEZUIJimJ_5quote9to_tokens8ToTokens9to_tokens, symObjAddr: 0x19834, symBinAddr: 0x260F4, symSize: 0x110 }
  - { offset: 0x51FAF, size: 0x8, addend: 0x0, symName: __RNvXs_NtNtCs5AlOhPCr03V_3syn4item8printingNtB6_7ItemUseNtNtCs2cqEZUIJimJ_5quote9to_tokens8ToTokens9to_tokens, symObjAddr: 0x19944, symBinAddr: 0x26204, symSize: 0xA4 }
  - { offset: 0x51FEE, size: 0x8, addend: 0x0, symName: __RNvXs0_NtNtCs5AlOhPCr03V_3syn4item8printingNtB7_10ItemStaticNtNtCs2cqEZUIJimJ_5quote9to_tokens8ToTokens9to_tokens, symObjAddr: 0x199E8, symBinAddr: 0x262A8, symSize: 0xE4 }
  - { offset: 0x5202D, size: 0x8, addend: 0x0, symName: __RNvXs1_NtNtCs5AlOhPCr03V_3syn4item8printingNtB7_9ItemConstNtNtCs2cqEZUIJimJ_5quote9to_tokens8ToTokens9to_tokens, symObjAddr: 0x19ACC, symBinAddr: 0x2638C, symSize: 0xD4 }
  - { offset: 0x5206C, size: 0x8, addend: 0x0, symName: __RNvXs2_NtNtCs5AlOhPCr03V_3syn4item8printingNtB7_6ItemFnNtNtCs2cqEZUIJimJ_5quote9to_tokens8ToTokens9to_tokens, symObjAddr: 0x19BA0, symBinAddr: 0x26460, symSize: 0xB0 }
  - { offset: 0x520AB, size: 0x8, addend: 0x0, symName: __RNvXs3_NtNtCs5AlOhPCr03V_3syn4item8printingNtB7_7ItemModNtNtCs2cqEZUIJimJ_5quote9to_tokens8ToTokens9to_tokens, symObjAddr: 0x19C50, symBinAddr: 0x26510, symSize: 0x104 }
  - { offset: 0x52118, size: 0x8, addend: 0x0, symName: __RNvXs4_NtNtCs5AlOhPCr03V_3syn4item8printingNtB7_14ItemForeignModNtNtCs2cqEZUIJimJ_5quote9to_tokens8ToTokens9to_tokens, symObjAddr: 0x19D54, symBinAddr: 0x26614, symSize: 0x80 }
  - { offset: 0x52157, size: 0x8, addend: 0x0, symName: __RNvXs5_NtNtCs5AlOhPCr03V_3syn4item8printingNtB7_8ItemTypeNtNtCs2cqEZUIJimJ_5quote9to_tokens8ToTokens9to_tokens, symObjAddr: 0x19DD4, symBinAddr: 0x26694, symSize: 0xD4 }
  - { offset: 0x52196, size: 0x8, addend: 0x0, symName: __RNvXs6_NtNtCs5AlOhPCr03V_3syn4item8printingNtB7_8ItemEnumNtNtCs2cqEZUIJimJ_5quote9to_tokens8ToTokens9to_tokens, symObjAddr: 0x19EA8, symBinAddr: 0x26768, symSize: 0xC0 }
  - { offset: 0x521D5, size: 0x8, addend: 0x0, symName: __RNvXs7_NtNtCs5AlOhPCr03V_3syn4item8printingNtB7_10ItemStructNtNtCs2cqEZUIJimJ_5quote9to_tokens8ToTokens9to_tokens, symObjAddr: 0x19F68, symBinAddr: 0x26828, symSize: 0x188 }
  - { offset: 0x52250, size: 0x8, addend: 0x0, symName: __RNvXs8_NtNtCs5AlOhPCr03V_3syn4item8printingNtB7_9ItemUnionNtNtCs2cqEZUIJimJ_5quote9to_tokens8ToTokens9to_tokens, symObjAddr: 0x1A0F0, symBinAddr: 0x269B0, symSize: 0xB4 }
  - { offset: 0x5228F, size: 0x8, addend: 0x0, symName: __RNvXs9_NtNtCs5AlOhPCr03V_3syn4item8printingNtB7_9ItemTraitNtNtCs2cqEZUIJimJ_5quote9to_tokens8ToTokens9to_tokens, symObjAddr: 0x1A1A4, symBinAddr: 0x26A64, symSize: 0x138 }
  - { offset: 0x522CE, size: 0x8, addend: 0x0, symName: __RNvXsa_NtNtCs5AlOhPCr03V_3syn4item8printingNtB7_14ItemTraitAliasNtNtCs2cqEZUIJimJ_5quote9to_tokens8ToTokens9to_tokens, symObjAddr: 0x1A2DC, symBinAddr: 0x26B9C, symSize: 0xD4 }
  - { offset: 0x5230D, size: 0x8, addend: 0x0, symName: __RNvXsb_NtNtCs5AlOhPCr03V_3syn4item8printingNtB7_8ItemImplNtNtCs2cqEZUIJimJ_5quote9to_tokens8ToTokens9to_tokens, symObjAddr: 0x1A3B0, symBinAddr: 0x26C70, symSize: 0x158 }
  - { offset: 0x5238A, size: 0x8, addend: 0x0, symName: __RNvXsc_NtNtCs5AlOhPCr03V_3syn4item8printingNtB7_9ItemMacroNtNtCs2cqEZUIJimJ_5quote9to_tokens8ToTokens9to_tokens, symObjAddr: 0x1A508, symBinAddr: 0x26DC8, symSize: 0x148 }
  - { offset: 0x5241B, size: 0x8, addend: 0x0, symName: __RNvXsd_NtNtCs5AlOhPCr03V_3syn4item8printingNtB7_10ItemMacro2NtNtCs2cqEZUIJimJ_5quote9to_tokens8ToTokens9to_tokens, symObjAddr: 0x1A650, symBinAddr: 0x26F10, symSize: 0x94 }
  - { offset: 0x5245A, size: 0x8, addend: 0x0, symName: __RNvXse_NtNtCs5AlOhPCr03V_3syn4item8printingNtB7_7UsePathNtNtCs2cqEZUIJimJ_5quote9to_tokens8ToTokens9to_tokens, symObjAddr: 0x1A6E4, symBinAddr: 0x26FA4, symSize: 0x60 }
  - { offset: 0x52499, size: 0x8, addend: 0x0, symName: __RNvXsf_NtNtCs5AlOhPCr03V_3syn4item8printingNtB7_7UseNameNtNtCs2cqEZUIJimJ_5quote9to_tokens8ToTokens9to_tokens, symObjAddr: 0x1A744, symBinAddr: 0x27004, symSize: 0x3C }
  - { offset: 0x524D8, size: 0x8, addend: 0x0, symName: __RNvXsg_NtNtCs5AlOhPCr03V_3syn4item8printingNtB7_9UseRenameNtNtCs2cqEZUIJimJ_5quote9to_tokens8ToTokens9to_tokens, symObjAddr: 0x1A780, symBinAddr: 0x27040, symSize: 0x60 }
  - { offset: 0x52517, size: 0x8, addend: 0x0, symName: __RNvXsh_NtNtCs5AlOhPCr03V_3syn4item8printingNtB7_7UseGlobNtNtCs2cqEZUIJimJ_5quote9to_tokens8ToTokens9to_tokens, symObjAddr: 0x1A7E0, symBinAddr: 0x270A0, symSize: 0x3C }
  - { offset: 0x52556, size: 0x8, addend: 0x0, symName: __RNvXsi_NtNtCs5AlOhPCr03V_3syn4item8printingNtB7_8UseGroupNtNtCs2cqEZUIJimJ_5quote9to_tokens8ToTokens9to_tokens, symObjAddr: 0x1A81C, symBinAddr: 0x270DC, symSize: 0x44 }
  - { offset: 0x52595, size: 0x8, addend: 0x0, symName: __RNvXsj_NtNtCs5AlOhPCr03V_3syn4item8printingNtB7_14TraitItemConstNtNtCs2cqEZUIJimJ_5quote9to_tokens8ToTokens9to_tokens, symObjAddr: 0x1A860, symBinAddr: 0x27120, symSize: 0x118 }
  - { offset: 0x52602, size: 0x8, addend: 0x0, symName: __RNvXsk_NtNtCs5AlOhPCr03V_3syn4item8printingNtB7_15TraitItemMethodNtNtCs2cqEZUIJimJ_5quote9to_tokens8ToTokens9to_tokens, symObjAddr: 0x1A978, symBinAddr: 0x27238, symSize: 0xDC }
  - { offset: 0x5265F, size: 0x8, addend: 0x0, symName: __RNvXsl_NtNtCs5AlOhPCr03V_3syn4item8printingNtB7_13TraitItemTypeNtNtCs2cqEZUIJimJ_5quote9to_tokens8ToTokens9to_tokens, symObjAddr: 0x1AA54, symBinAddr: 0x27314, symSize: 0x178 }
  - { offset: 0x526CC, size: 0x8, addend: 0x0, symName: __RNvXsm_NtNtCs5AlOhPCr03V_3syn4item8printingNtB7_14TraitItemMacroNtNtCs2cqEZUIJimJ_5quote9to_tokens8ToTokens9to_tokens, symObjAddr: 0x1ABCC, symBinAddr: 0x2748C, symSize: 0x74 }
  - { offset: 0x5270B, size: 0x8, addend: 0x0, symName: __RNvXsn_NtNtCs5AlOhPCr03V_3syn4item8printingNtB7_13ImplItemConstNtNtCs2cqEZUIJimJ_5quote9to_tokens8ToTokens9to_tokens, symObjAddr: 0x1AC40, symBinAddr: 0x27500, symSize: 0xE4 }
  - { offset: 0x5274A, size: 0x8, addend: 0x0, symName: __RNvXso_NtNtCs5AlOhPCr03V_3syn4item8printingNtB7_14ImplItemMethodNtNtCs2cqEZUIJimJ_5quote9to_tokens8ToTokens9to_tokens, symObjAddr: 0x1AD24, symBinAddr: 0x275E4, symSize: 0x1E8 }
  - { offset: 0x5279F, size: 0x8, addend: 0x0, symName: __RNvXsp_NtNtCs5AlOhPCr03V_3syn4item8printingNtB7_12ImplItemTypeNtNtCs2cqEZUIJimJ_5quote9to_tokens8ToTokens9to_tokens, symObjAddr: 0x1AF0C, symBinAddr: 0x277CC, symSize: 0xE4 }
  - { offset: 0x527DE, size: 0x8, addend: 0x0, symName: __RNvXsq_NtNtCs5AlOhPCr03V_3syn4item8printingNtB7_13ImplItemMacroNtNtCs2cqEZUIJimJ_5quote9to_tokens8ToTokens9to_tokens, symObjAddr: 0x1AFF0, symBinAddr: 0x278B0, symSize: 0x74 }
  - { offset: 0x5281D, size: 0x8, addend: 0x0, symName: __RNvXsr_NtNtCs5AlOhPCr03V_3syn4item8printingNtB7_13ForeignItemFnNtNtCs2cqEZUIJimJ_5quote9to_tokens8ToTokens9to_tokens, symObjAddr: 0x1B064, symBinAddr: 0x27924, symSize: 0x84 }
  - { offset: 0x5285C, size: 0x8, addend: 0x0, symName: __RNvXss_NtNtCs5AlOhPCr03V_3syn4item8printingNtB7_17ForeignItemStaticNtNtCs2cqEZUIJimJ_5quote9to_tokens8ToTokens9to_tokens, symObjAddr: 0x1B0E8, symBinAddr: 0x279A8, symSize: 0xC4 }
  - { offset: 0x5289B, size: 0x8, addend: 0x0, symName: __RNvXst_NtNtCs5AlOhPCr03V_3syn4item8printingNtB7_15ForeignItemTypeNtNtCs2cqEZUIJimJ_5quote9to_tokens8ToTokens9to_tokens, symObjAddr: 0x1B1AC, symBinAddr: 0x27A6C, symSize: 0x94 }
  - { offset: 0x528DA, size: 0x8, addend: 0x0, symName: __RNvXsu_NtNtCs5AlOhPCr03V_3syn4item8printingNtB7_16ForeignItemMacroNtNtCs2cqEZUIJimJ_5quote9to_tokens8ToTokens9to_tokens, symObjAddr: 0x1B240, symBinAddr: 0x27B00, symSize: 0x74 }
  - { offset: 0x52919, size: 0x8, addend: 0x0, symName: __RNvXsv_NtNtCs5AlOhPCr03V_3syn4item8printingNtB7_9SignatureNtNtCs2cqEZUIJimJ_5quote9to_tokens8ToTokens9to_tokens, symObjAddr: 0x1B2B4, symBinAddr: 0x27B74, symSize: 0xDC }
  - { offset: 0x52958, size: 0x8, addend: 0x0, symName: __RNvXsw_NtNtCs5AlOhPCr03V_3syn4item8printingNtB7_8ReceiverNtNtCs2cqEZUIJimJ_5quote9to_tokens8ToTokens9to_tokens, symObjAddr: 0x1B390, symBinAddr: 0x27C50, symSize: 0xE0 }
  - { offset: 0x529CB, size: 0x8, addend: 0x0, symName: __RNcNtNtNtCs5AlOhPCr03V_3syn4item4Item4Enum0B7_, symObjAddr: 0x1B470, symBinAddr: 0x27D30, symSize: 0x3C }
  - { offset: 0x529FA, size: 0x8, addend: 0x0, symName: __RNcNtNtNtCs5AlOhPCr03V_3syn4item4Item11ExternCrate0B7_, symObjAddr: 0x1B4AC, symBinAddr: 0x27D6C, symSize: 0x3C }
  - { offset: 0x52A29, size: 0x8, addend: 0x0, symName: __RNcNtNtNtCs5AlOhPCr03V_3syn4item4Item2Fn0B7_, symObjAddr: 0x1B4E8, symBinAddr: 0x27DA8, symSize: 0x30 }
  - { offset: 0x52A58, size: 0x8, addend: 0x0, symName: __RNcNtNtNtCs5AlOhPCr03V_3syn4item4Item10ForeignMod0B7_, symObjAddr: 0x1B518, symBinAddr: 0x27DD8, symSize: 0x3C }
  - { offset: 0x52A87, size: 0x8, addend: 0x0, symName: __RNcNtNtNtCs5AlOhPCr03V_3syn4item4Item5Macro0B7_, symObjAddr: 0x1B554, symBinAddr: 0x27E14, symSize: 0x3C }
  - { offset: 0x52AB6, size: 0x8, addend: 0x0, symName: __RNcNtNtNtCs5AlOhPCr03V_3syn4item4Item6Macro20B7_, symObjAddr: 0x1B590, symBinAddr: 0x27E50, symSize: 0x3C }
  - { offset: 0x52AE5, size: 0x8, addend: 0x0, symName: __RNcNtNtNtCs5AlOhPCr03V_3syn4item4Item3Mod0B7_, symObjAddr: 0x1B5CC, symBinAddr: 0x27E8C, symSize: 0x3C }
  - { offset: 0x52B14, size: 0x8, addend: 0x0, symName: __RNcNtNtNtCs5AlOhPCr03V_3syn4item4Item6Struct0B7_, symObjAddr: 0x1B608, symBinAddr: 0x27EC8, symSize: 0x3C }
  - { offset: 0x52B43, size: 0x8, addend: 0x0, symName: __RNcNtNtNtCs5AlOhPCr03V_3syn4item4Item5Trait0B7_, symObjAddr: 0x1B644, symBinAddr: 0x27F04, symSize: 0x3C }
  - { offset: 0x52B72, size: 0x8, addend: 0x0, symName: __RNcNtNtNtCs5AlOhPCr03V_3syn4item4Item10TraitAlias0B7_, symObjAddr: 0x1B680, symBinAddr: 0x27F40, symSize: 0x3C }
  - { offset: 0x52BA1, size: 0x8, addend: 0x0, symName: __RNcNtNtNtCs5AlOhPCr03V_3syn4item4Item5Union0B7_, symObjAddr: 0x1B6BC, symBinAddr: 0x27F7C, symSize: 0x3C }
  - { offset: 0x52BD0, size: 0x8, addend: 0x0, symName: __RNcNtNtNtCs5AlOhPCr03V_3syn4item4Item3Use0B7_, symObjAddr: 0x1B6F8, symBinAddr: 0x27FB8, symSize: 0x3C }
  - { offset: 0x52C00, size: 0x8, addend: 0x0, symName: __RNvXsl_NtCs5AlOhPCr03V_3syn4itemNtB5_4ItemNtNtCs2cqEZUIJimJ_5quote9to_tokens8ToTokens9to_tokens, symObjAddr: 0x1BBE8, symBinAddr: 0x27FF4, symSize: 0x24C }
  - { offset: 0x52E2F, size: 0x8, addend: 0x0, symName: __RNvXsr_NtCs5AlOhPCr03V_3syn4itemNtB5_7UseTreeNtNtCs2cqEZUIJimJ_5quote9to_tokens8ToTokens9to_tokens, symObjAddr: 0x1BF78, symBinAddr: 0x28240, symSize: 0x114 }
  - { offset: 0x52F01, size: 0x8, addend: 0x0, symName: __RNcNtNtNtCs5AlOhPCr03V_3syn4item11ForeignItem5Macro0B7_, symObjAddr: 0x1C08C, symBinAddr: 0x28354, symSize: 0x3C }
  - { offset: 0x52F33, size: 0x8, addend: 0x0, symName: __RNvXsw_NtCs5AlOhPCr03V_3syn4itemNtB5_11ForeignItemNtNtCs2cqEZUIJimJ_5quote9to_tokens8ToTokens9to_tokens, symObjAddr: 0x1C1EC, symBinAddr: 0x28390, symSize: 0x118 }
  - { offset: 0x53005, size: 0x8, addend: 0x0, symName: __RNcNtNtNtCs5AlOhPCr03V_3syn4item9TraitItem5Const0B7_, symObjAddr: 0x1C304, symBinAddr: 0x284A8, symSize: 0x30 }
  - { offset: 0x53036, size: 0x8, addend: 0x0, symName: __RNcNtNtNtCs5AlOhPCr03V_3syn4item9TraitItem6Method0B7_, symObjAddr: 0x1C334, symBinAddr: 0x284D8, symSize: 0x3C }
  - { offset: 0x53067, size: 0x8, addend: 0x0, symName: __RNcNtNtNtCs5AlOhPCr03V_3syn4item9TraitItem5Macro0B7_, symObjAddr: 0x1C370, symBinAddr: 0x28514, symSize: 0x40 }
  - { offset: 0x53099, size: 0x8, addend: 0x0, symName: __RNvXsB_NtCs5AlOhPCr03V_3syn4itemNtB5_9TraitItemNtNtCs2cqEZUIJimJ_5quote9to_tokens8ToTokens9to_tokens, symObjAddr: 0x1C4D8, symBinAddr: 0x28554, symSize: 0x11C }
  - { offset: 0x5316B, size: 0x8, addend: 0x0, symName: __RNcNtNtNtCs5AlOhPCr03V_3syn4item8ImplItem6Method0B7_, symObjAddr: 0x1C5F4, symBinAddr: 0x28670, symSize: 0x3C }
  - { offset: 0x5319C, size: 0x8, addend: 0x0, symName: __RNcNtNtNtCs5AlOhPCr03V_3syn4item8ImplItem5Macro0B7_, symObjAddr: 0x1C630, symBinAddr: 0x286AC, symSize: 0x40 }
  - { offset: 0x531CE, size: 0x8, addend: 0x0, symName: __RNvXsG_NtCs5AlOhPCr03V_3syn4itemNtB5_8ImplItemNtNtCs2cqEZUIJimJ_5quote9to_tokens8ToTokens9to_tokens, symObjAddr: 0x1C798, symBinAddr: 0x286EC, symSize: 0x11C }
  - { offset: 0x5B82C, size: 0x8, addend: 0x0, symName: __RNvMNtCsfvfooZQ3Axs_4core5sliceSTNtNtCs5AlOhPCr03V_3syn4item5FnArgNtNtBz_5token5CommaE4iterBz_, symObjAddr: 0x146C, symBinAddr: 0x14E10, symSize: 0x28 }
  - { offset: 0x5B863, size: 0x8, addend: 0x0, symName: __RNvMNtCsfvfooZQ3Axs_4core5sliceSTNtNtCs5AlOhPCr03V_3syn4item5FnArgNtNtBz_5token5CommaE8iter_mutBz_, symObjAddr: 0x1494, symBinAddr: 0x14E38, symSize: 0x28 }
  - { offset: 0x5B89A, size: 0x8, addend: 0x0, symName: __RNvMNtCsfvfooZQ3Axs_4core5sliceSTNtNtCs5AlOhPCr03V_3syn4item7UseTreeNtNtBz_5token5CommaE4iterBz_, symObjAddr: 0x14BC, symBinAddr: 0x14E60, symSize: 0x28 }
  - { offset: 0x5CEDC, size: 0x8, addend: 0x0, symName: __RNvXNtCs2cqEZUIJimJ_5quote9to_tokensRNtNtCs5AlOhPCr03V_3syn4item11ForeignItemNtB2_8ToTokens9to_tokensBD_, symObjAddr: 0x14E4, symBinAddr: 0x14E88, symSize: 0x40 }
  - { offset: 0x5CF1B, size: 0x8, addend: 0x0, symName: __RNvXNtCs2cqEZUIJimJ_5quote9to_tokensRNtNtCs5AlOhPCr03V_3syn4item4ItemNtB2_8ToTokens9to_tokensBD_, symObjAddr: 0x1524, symBinAddr: 0x14EC8, symSize: 0x40 }
  - { offset: 0x5CF5A, size: 0x8, addend: 0x0, symName: __RNvXNtCs2cqEZUIJimJ_5quote9to_tokensRNtNtCs5AlOhPCr03V_3syn4item7UseTreeNtB2_8ToTokens9to_tokensBD_, symObjAddr: 0x1564, symBinAddr: 0x14F08, symSize: 0x40 }
  - { offset: 0x5CF99, size: 0x8, addend: 0x0, symName: __RNvXNtCs2cqEZUIJimJ_5quote9to_tokensRNtNtCs5AlOhPCr03V_3syn4item8ImplItemNtB2_8ToTokens9to_tokensBD_, symObjAddr: 0x15A4, symBinAddr: 0x14F48, symSize: 0x40 }
  - { offset: 0x5CFD8, size: 0x8, addend: 0x0, symName: __RNvXNtCs2cqEZUIJimJ_5quote9to_tokensRNtNtCs5AlOhPCr03V_3syn4item9TraitItemNtB2_8ToTokens9to_tokensBD_, symObjAddr: 0x15E4, symBinAddr: 0x14F88, symSize: 0x40 }
  - { offset: 0x5D01A, size: 0x8, addend: 0x0, symName: __RNvMNtCs5AlOhPCr03V_3syn4itemNtB2_4Item13replace_attrs, symObjAddr: 0x2B90, symBinAddr: 0x14FC8, symSize: 0x34C }
  - { offset: 0x5D4CA, size: 0x8, addend: 0x0, symName: __RINvMsi_NtCse1nGBsou5OW_5alloc3vecINtB6_3VecNtCs3cP53eQoTwO_11proc_macro29TokenTreeE16extend_desugaredINtNtNtNtCsfvfooZQ3Axs_4core4iter8adapters7flatten7FlattenINtNtB1H_3map3MapIB2z_IB2z_INtNtNtB1L_5slice4iter4IterNtNtCs5AlOhPCr03V_3syn5error12ErrorMessageENvMs_B3s_B3q_16to_compile_errorENCINvXs7_BI_NtBI_11TokenStreamINtNtNtB1J_6traits7collect12FromIteratorB4P_E9from_iterB2U_E0ENCINvXs6_NtBI_3impNtB6g_11TokenStreamIB58_B6p_E9from_iterB2P_Es_0EEEB3u_, symObjAddr: 0x0, symBinAddr: 0x28808, symSize: 0x1D4 }
  - { offset: 0x6715C, size: 0x8, addend: 0x0, symName: __RINvXsh_NtCse1nGBsou5OW_5alloc3vecINtB6_3VecNtCs3cP53eQoTwO_11proc_macro29TokenTreeEINtNtNtNtCsfvfooZQ3Axs_4core4iter6traits7collect6ExtendBG_E6extendINtNtNtB1r_8adapters7flatten7FlattenINtNtB2t_3map3MapIB2Z_IB2Z_INtNtNtB1t_5slice4iter4IterNtNtCs5AlOhPCr03V_3syn5error12ErrorMessageENvMs_B3S_B3Q_16to_compile_errorENCINvXs7_BI_NtBI_11TokenStreamINtB1n_12FromIteratorB5f_E9from_iterB3k_E0ENCINvXs6_NtBI_3impNtB6n_11TokenStreamIB5y_B6w_E9from_iterB3f_Es_0EEEB3U_, symObjAddr: 0xBBC, symBinAddr: 0x28D04, symSize: 0x48 }
  - { offset: 0x671B1, size: 0x8, addend: 0x0, symName: __RINvXsh_NtCse1nGBsou5OW_5alloc3vecINtB6_3VecNtNtCs5AlOhPCr03V_3syn4attr9AttributeEINtNtNtNtCsfvfooZQ3Axs_4core4iter6traits7collect6ExtendBG_E6extendBw_EBK_, symObjAddr: 0xC04, symBinAddr: 0x28D4C, symSize: 0x48 }
  - { offset: 0x67206, size: 0x8, addend: 0x0, symName: __RINvXsh_NtCse1nGBsou5OW_5alloc3vecINtB6_3VecNtNtCs5AlOhPCr03V_3syn8generics14TypeParamBoundEINtNtNtNtCsfvfooZQ3Axs_4core4iter6traits7collect6ExtendBG_E6extendINtNtB1B_6option6OptionBG_EEBK_, symObjAddr: 0xD74, symBinAddr: 0x28D94, symSize: 0x48 }
  - { offset: 0x6725B, size: 0x8, addend: 0x0, symName: __RINvXsh_NtCse1nGBsou5OW_5alloc3vecINtB6_3VecNtNtCs5AlOhPCr03V_3syn8generics14TypeParamBoundEINtNtNtNtCsfvfooZQ3Axs_4core4iter6traits7collect6ExtendBG_E6extendINtNtNtB1z_8adapters3map3MapINtNtB6_9into_iter8IntoIterTBG_NtNtBK_5token3AddEENCNvXs8_NtBK_10punctuatedINtB3U_10PunctuatedBG_B3t_ENtB1v_12IntoIterator9into_iter0EEBK_, symObjAddr: 0xDBC, symBinAddr: 0x28DDC, symSize: 0x48 }
  - { offset: 0x672BB, size: 0x8, addend: 0x0, symName: __RNCINvMsi_NtCse1nGBsou5OW_5alloc3vecINtB8_3VecNtNtCs5AlOhPCr03V_3syn8generics14TypeParamBoundE14extend_trustedINtNtCsfvfooZQ3Axs_4core6option8IntoIterBI_EE0BM_, symObjAddr: 0xF00, symBinAddr: 0x28E24, symSize: 0x54 }
  - { offset: 0x67379, size: 0x8, addend: 0x0, symName: __RNCINvMsi_NtCse1nGBsou5OW_5alloc3vecINtB8_3VecNtNtCs5AlOhPCr03V_3syn8generics14TypeParamBoundE14extend_trustedINtNtNtNtCsfvfooZQ3Axs_4core4iter8adapters3map3MapINtNtB8_9into_iter8IntoIterTBI_NtNtBM_5token3AddEENCNvXs8_NtBM_10punctuatedINtB3u_10PunctuatedBI_B33_ENtNtNtB1R_6traits7collect12IntoIterator9into_iter0EE0BM_, symObjAddr: 0xF54, symBinAddr: 0x28E78, symSize: 0x54 }
  - { offset: 0x6793C, size: 0x8, addend: 0x0, symName: __RNvXs6_NtCse1nGBsou5OW_5alloc3vecINtB5_3VecNtNtCs5AlOhPCr03V_3syn4attr9AttributeENtNtNtCsfvfooZQ3Axs_4core3ops5deref5Deref5derefBJ_, symObjAddr: 0x6C70, symBinAddr: 0x2CB60, symSize: 0x24 }
  - { offset: 0x6797C, size: 0x8, addend: 0x0, symName: __RNvXs6_NtCse1nGBsou5OW_5alloc3vecINtB5_3VecNtNtCs5AlOhPCr03V_3syn4expr3ArmENtNtNtCsfvfooZQ3Axs_4core3ops5deref5Deref5derefBJ_, symObjAddr: 0x6C94, symBinAddr: 0x2CB84, symSize: 0x24 }
  - { offset: 0x679BC, size: 0x8, addend: 0x0, symName: __RNvXs6_NtCse1nGBsou5OW_5alloc3vecINtB5_3VecNtNtCs5AlOhPCr03V_3syn5error12ErrorMessageENtNtNtCsfvfooZQ3Axs_4core3ops5deref5Deref5derefBJ_, symObjAddr: 0x6CB8, symBinAddr: 0x2CBA8, symSize: 0x24 }
  - { offset: 0x679FC, size: 0x8, addend: 0x0, symName: __RNvXs6_NtCse1nGBsou5OW_5alloc3vecINtB5_3VecReENtNtNtCsfvfooZQ3Axs_4core3ops5deref5Deref5derefCs5AlOhPCr03V_3syn, symObjAddr: 0x6CDC, symBinAddr: 0x2CBCC, symSize: 0x24 }
  - { offset: 0x67A3C, size: 0x8, addend: 0x0, symName: __RNvXs6_NtCse1nGBsou5OW_5alloc3vecINtB5_3VecTNtNtCs5AlOhPCr03V_3syn2ty4TypeNtNtBK_5token5CommaEENtNtNtCsfvfooZQ3Axs_4core3ops5deref5Deref5derefBK_, symObjAddr: 0x6D00, symBinAddr: 0x2CBF0, symSize: 0x24 }
  - { offset: 0x67A7C, size: 0x8, addend: 0x0, symName: __RNvXs6_NtCse1nGBsou5OW_5alloc3vecINtB5_3VecTNtNtCs5AlOhPCr03V_3syn2ty9BareFnArgNtNtBK_5token5CommaEENtNtNtCsfvfooZQ3Axs_4core3ops5deref5Deref5derefBK_, symObjAddr: 0x6D24, symBinAddr: 0x2CC14, symSize: 0x24 }
  - { offset: 0x67ABC, size: 0x8, addend: 0x0, symName: __RNvXs6_NtCse1nGBsou5OW_5alloc3vecINtB5_3VecTNtNtCs5AlOhPCr03V_3syn3pat3PatNtNtBK_5token2OrEENtNtNtCsfvfooZQ3Axs_4core3ops5deref5Deref5derefBK_, symObjAddr: 0x6D48, symBinAddr: 0x2CC38, symSize: 0x24 }
  - { offset: 0x67AFC, size: 0x8, addend: 0x0, symName: __RNvXs6_NtCse1nGBsou5OW_5alloc3vecINtB5_3VecTNtNtCs5AlOhPCr03V_3syn3pat3PatNtNtBK_5token5CommaEENtNtNtCsfvfooZQ3Axs_4core3ops5deref5Deref5derefBK_, symObjAddr: 0x6D6C, symBinAddr: 0x2CC5C, symSize: 0x24 }
  - { offset: 0x67B3C, size: 0x8, addend: 0x0, symName: __RNvXs6_NtCse1nGBsou5OW_5alloc3vecINtB5_3VecTNtNtCs5AlOhPCr03V_3syn3pat8FieldPatNtNtBK_5token5CommaEENtNtNtCsfvfooZQ3Axs_4core3ops5deref5Deref5derefBK_, symObjAddr: 0x6D90, symBinAddr: 0x2CC80, symSize: 0x24 }
  - { offset: 0x67B7C, size: 0x8, addend: 0x0, symName: __RNvXs6_NtCse1nGBsou5OW_5alloc3vecINtB5_3VecTNtNtCs5AlOhPCr03V_3syn4data5FieldNtNtBK_5token5CommaEENtNtNtCsfvfooZQ3Axs_4core3ops5deref5Deref5derefBK_, symObjAddr: 0x6DD8, symBinAddr: 0x2CCA4, symSize: 0x24 }
  - { offset: 0x67BBC, size: 0x8, addend: 0x0, symName: __RNvXs6_NtCse1nGBsou5OW_5alloc3vecINtB5_3VecTNtNtCs5AlOhPCr03V_3syn4data7VariantNtNtBK_5token5CommaEENtNtNtCsfvfooZQ3Axs_4core3ops5deref5Deref5derefBK_, symObjAddr: 0x6DFC, symBinAddr: 0x2CCC8, symSize: 0x24 }
  - { offset: 0x67BFC, size: 0x8, addend: 0x0, symName: __RNvXs6_NtCse1nGBsou5OW_5alloc3vecINtB5_3VecTNtNtCs5AlOhPCr03V_3syn4expr10FieldValueNtNtBK_5token5CommaEENtNtNtCsfvfooZQ3Axs_4core3ops5deref5Deref5derefBK_, symObjAddr: 0x6E20, symBinAddr: 0x2CCEC, symSize: 0x24 }
  - { offset: 0x67C3C, size: 0x8, addend: 0x0, symName: __RNvXs6_NtCse1nGBsou5OW_5alloc3vecINtB5_3VecTNtNtCs5AlOhPCr03V_3syn4expr21GenericMethodArgumentNtNtBK_5token5CommaEENtNtNtCsfvfooZQ3Axs_4core3ops5deref5Deref5derefBK_, symObjAddr: 0x6E44, symBinAddr: 0x2CD10, symSize: 0x24 }
  - { offset: 0x67C7C, size: 0x8, addend: 0x0, symName: __RNvXs6_NtCse1nGBsou5OW_5alloc3vecINtB5_3VecTNtNtCs5AlOhPCr03V_3syn4expr4ExprNtNtBK_5token5CommaEENtNtNtCsfvfooZQ3Axs_4core3ops5deref5Deref5derefBK_, symObjAddr: 0x6E68, symBinAddr: 0x2CD34, symSize: 0x24 }
  - { offset: 0x67CBC, size: 0x8, addend: 0x0, symName: __RNvXs6_NtCse1nGBsou5OW_5alloc3vecINtB5_3VecTNtNtCs5AlOhPCr03V_3syn4item5FnArgNtNtBK_5token5CommaEENtNtNtCsfvfooZQ3Axs_4core3ops5deref5Deref5derefBK_, symObjAddr: 0x6E8C, symBinAddr: 0x2CD58, symSize: 0x24 }
  - { offset: 0x67CFC, size: 0x8, addend: 0x0, symName: __RNvXs6_NtCse1nGBsou5OW_5alloc3vecINtB5_3VecTNtNtCs5AlOhPCr03V_3syn4item7UseTreeNtNtBK_5token5CommaEENtNtNtCsfvfooZQ3Axs_4core3ops5deref5Deref5derefBK_, symObjAddr: 0x6EB0, symBinAddr: 0x2CD7C, symSize: 0x24 }
  - { offset: 0x67D3C, size: 0x8, addend: 0x0, symName: __RNvXs6_NtCse1nGBsou5OW_5alloc3vecINtB5_3VecTNtNtCs5AlOhPCr03V_3syn4path11PathSegmentNtNtBK_5token6Colon2EENtNtNtCsfvfooZQ3Axs_4core3ops5deref5Deref5derefBK_, symObjAddr: 0x6ED4, symBinAddr: 0x2CDA0, symSize: 0x24 }
  - { offset: 0x67D7C, size: 0x8, addend: 0x0, symName: __RNvXs6_NtCse1nGBsou5OW_5alloc3vecINtB5_3VecTNtNtCs5AlOhPCr03V_3syn4path15GenericArgumentNtNtBK_5token5CommaEENtNtNtCsfvfooZQ3Axs_4core3ops5deref5Deref5derefBK_, symObjAddr: 0x6EF8, symBinAddr: 0x2CDC4, symSize: 0x24 }
  - { offset: 0x67DBC, size: 0x8, addend: 0x0, symName: __RNvXs6_NtCse1nGBsou5OW_5alloc3vecINtB5_3VecTNtNtCs5AlOhPCr03V_3syn8generics11LifetimeDefNtNtBK_5token5CommaEENtNtNtCsfvfooZQ3Axs_4core3ops5deref5Deref5derefBK_, symObjAddr: 0x6F1C, symBinAddr: 0x2CDE8, symSize: 0x24 }
  - { offset: 0x67DFC, size: 0x8, addend: 0x0, symName: __RNvXs6_NtCse1nGBsou5OW_5alloc3vecINtB5_3VecTNtNtCs5AlOhPCr03V_3syn8generics12GenericParamNtNtBK_5token5CommaEENtNtNtCsfvfooZQ3Axs_4core3ops5deref5Deref5derefBK_, symObjAddr: 0x6F40, symBinAddr: 0x2CE0C, symSize: 0x24 }
  - { offset: 0x67E3C, size: 0x8, addend: 0x0, symName: __RNvXs6_NtCse1nGBsou5OW_5alloc3vecINtB5_3VecTNtNtCs5AlOhPCr03V_3syn8generics14TypeParamBoundNtNtBK_5token3AddEENtNtNtCsfvfooZQ3Axs_4core3ops5deref5Deref5derefBK_, symObjAddr: 0x6F64, symBinAddr: 0x2CE30, symSize: 0x24 }
  - { offset: 0x67E7C, size: 0x8, addend: 0x0, symName: __RNvXs6_NtCse1nGBsou5OW_5alloc3vecINtB5_3VecTNtNtCs5AlOhPCr03V_3syn8generics14WherePredicateNtNtBK_5token5CommaEENtNtNtCsfvfooZQ3Axs_4core3ops5deref5Deref5derefBK_, symObjAddr: 0x6F88, symBinAddr: 0x2CE54, symSize: 0x24 }
  - { offset: 0x67EBC, size: 0x8, addend: 0x0, symName: __RNvXs6_NtCse1nGBsou5OW_5alloc3vecINtB5_3VecTNtNtCs5AlOhPCr03V_3syn8lifetime8LifetimeNtNtBK_5token3AddEENtNtNtCsfvfooZQ3Axs_4core3ops5deref5Deref5derefBK_, symObjAddr: 0x6FAC, symBinAddr: 0x2CE78, symSize: 0x24 }
  - { offset: 0x67EFC, size: 0x8, addend: 0x0, symName: __RNvXs6_NtCse1nGBsou5OW_5alloc3vecINtB5_3VechENtNtNtCsfvfooZQ3Axs_4core3ops5deref5Deref5derefCs5AlOhPCr03V_3syn, symObjAddr: 0x6FD0, symBinAddr: 0x2CE9C, symSize: 0x24 }
  - { offset: 0x681B2, size: 0x8, addend: 0x0, symName: __RNvXsb_NtCse1nGBsou5OW_5alloc3vecINtB5_3VecNtNtCs5AlOhPCr03V_3syn4stmt4StmtEINtNtNtCsfvfooZQ3Axs_4core3ops5index5IndexjE5indexBJ_, symObjAddr: 0x8018, symBinAddr: 0x2CF50, symSize: 0x84 }
  - { offset: 0x68334, size: 0x8, addend: 0x0, symName: __RNvXsb_NtCse1nGBsou5OW_5alloc3vecINtB5_3VecNtNtCs5AlOhPCr03V_3syn5error12ErrorMessageEINtNtNtCsfvfooZQ3Axs_4core3ops5index5IndexjE5indexBJ_, symObjAddr: 0x809C, symBinAddr: 0x2CFD4, symSize: 0x84 }
  - { offset: 0x684B6, size: 0x8, addend: 0x0, symName: __RNvXsb_NtCse1nGBsou5OW_5alloc3vecINtB5_3VecReEINtNtNtCsfvfooZQ3Axs_4core3ops5index5IndexjE5indexCs5AlOhPCr03V_3syn, symObjAddr: 0x8120, symBinAddr: 0x2D058, symSize: 0x84 }
  - { offset: 0x68638, size: 0x8, addend: 0x0, symName: __RNvXsb_NtCse1nGBsou5OW_5alloc3vecINtB5_3VecTNtNtCs5AlOhPCr03V_3syn4path11PathSegmentNtNtBK_5token6Colon2EEINtNtNtCsfvfooZQ3Axs_4core3ops5index5IndexjE5indexBK_, symObjAddr: 0x81A4, symBinAddr: 0x2D0DC, symSize: 0x84 }
  - { offset: 0x687BA, size: 0x8, addend: 0x0, symName: __RNvXsb_NtCse1nGBsou5OW_5alloc3vecINtB5_3VechEINtNtNtCsfvfooZQ3Axs_4core3ops5index5IndexINtNtBM_5range9RangeFromjEE5indexCs5AlOhPCr03V_3syn, symObjAddr: 0x8228, symBinAddr: 0x2D160, symSize: 0x80 }
  - { offset: 0x6893C, size: 0x8, addend: 0x0, symName: __RNvXsb_NtCse1nGBsou5OW_5alloc3vecINtB5_3VechEINtNtNtCsfvfooZQ3Axs_4core3ops5index5IndexjE5indexCs5AlOhPCr03V_3syn, symObjAddr: 0x82A8, symBinAddr: 0x2D1E0, symSize: 0x80 }
  - { offset: 0x68AC9, size: 0x8, addend: 0x0, symName: __RNvXNtNtCse1nGBsou5OW_5alloc3vec11spec_extendINtB4_3VecNtCs3cP53eQoTwO_11proc_macro29TokenTreeEINtB2_10SpecExtendBR_INtNtNtNtCsfvfooZQ3Axs_4core4iter8adapters7flatten7FlattenINtNtB1V_3map3MapIB2N_IB2N_INtNtNtB1Z_5slice4iter4IterNtNtCs5AlOhPCr03V_3syn5error12ErrorMessageENvMs_B3G_B3E_16to_compile_errorENCINvXs7_BT_NtBT_11TokenStreamINtNtNtB1X_6traits7collect12FromIteratorB53_E9from_iterB38_E0ENCINvXs6_NtBT_3impNtB6u_11TokenStreamIB5m_B6D_E9from_iterB33_Es_0EEE11spec_extendB3I_, symObjAddr: 0x6884, symBinAddr: 0x2CAA4, symSize: 0x24 }
  - { offset: 0x68B21, size: 0x8, addend: 0x0, symName: __RNvXs0_NtNtCse1nGBsou5OW_5alloc3vec11spec_extendINtB7_3VecNtNtCs5AlOhPCr03V_3syn4attr9AttributeEINtB5_10SpecExtendBU_INtNtB7_9into_iter8IntoIterBU_EE11spec_extendBY_, symObjAddr: 0x6B10, symBinAddr: 0x2CAC8, symSize: 0x98 }
  - { offset: 0x68B8D, size: 0x8, addend: 0x0, symName: __RNvXs_NtNtCse1nGBsou5OW_5alloc3vec11spec_extendINtB6_3VecNtNtCs5AlOhPCr03V_3syn8generics14TypeParamBoundEINtB4_10SpecExtendBT_INtNtCsfvfooZQ3Axs_4core6option8IntoIterBT_EE11spec_extendBX_, symObjAddr: 0x7FD0, symBinAddr: 0x2CF08, symSize: 0x24 }
  - { offset: 0x68BDF, size: 0x8, addend: 0x0, symName: __RNvXs_NtNtCse1nGBsou5OW_5alloc3vec11spec_extendINtB6_3VecNtNtCs5AlOhPCr03V_3syn8generics14TypeParamBoundEINtB4_10SpecExtendBT_INtNtNtNtCsfvfooZQ3Axs_4core4iter8adapters3map3MapINtNtB6_9into_iter8IntoIterTBT_NtNtBX_5token3AddEENCNvXs8_NtBX_10punctuatedINtB3K_10PunctuatedBT_B3j_ENtNtNtB27_6traits7collect12IntoIterator9into_iter0EE11spec_extendBX_, symObjAddr: 0x7FF4, symBinAddr: 0x2CF2C, symSize: 0x24 }
  - { offset: 0x68C38, size: 0x8, addend: 0x0, symName: __RNvXs7_NtCse1nGBsou5OW_5alloc3vecINtB5_3VecTNtNtCs5AlOhPCr03V_3syn4item5FnArgNtNtBK_5token5CommaEENtNtNtCsfvfooZQ3Axs_4core3ops5deref8DerefMut9deref_mutBK_, symObjAddr: 0x7018, symBinAddr: 0x2CEC0, symSize: 0x24 }
  - { offset: 0x68C78, size: 0x8, addend: 0x0, symName: __RNvXs7_NtCse1nGBsou5OW_5alloc3vecINtB5_3VecTNtNtCs5AlOhPCr03V_3syn4path11PathSegmentNtNtBK_5token6Colon2EENtNtNtCsfvfooZQ3Axs_4core3ops5deref8DerefMut9deref_mutBK_, symObjAddr: 0x703C, symBinAddr: 0x2CEE4, symSize: 0x24 }
  - { offset: 0x68D4E, size: 0x8, addend: 0x0, symName: __RNvXsc_NtCse1nGBsou5OW_5alloc3vecINtB5_3VecNtNtCs5AlOhPCr03V_3syn6buffer5EntryEINtNtNtCsfvfooZQ3Axs_4core3ops5index8IndexMutjE9index_mutBJ_, symObjAddr: 0x8328, symBinAddr: 0x2D260, symSize: 0x84 }
  - { offset: 0x68EA2, size: 0x8, addend: 0x0, symName: __RNvXsc_NtCse1nGBsou5OW_5alloc3vecINtB5_3VechEINtNtNtCsfvfooZQ3Axs_4core3ops5index8IndexMutjE9index_mutCs5AlOhPCr03V_3syn, symObjAddr: 0x83AC, symBinAddr: 0x2D2E4, symSize: 0x80 }
  - { offset: 0x68FFC, size: 0x8, addend: 0x0, symName: __RNvXse_NtCse1nGBsou5OW_5alloc3vecINtB5_3VecNtNtCs5AlOhPCr03V_3syn4attr9AttributeENtNtNtNtCsfvfooZQ3Axs_4core4iter6traits7collect12IntoIterator9into_iterBJ_, symObjAddr: 0x842C, symBinAddr: 0x2D364, symSize: 0xE4 }
  - { offset: 0x6928E, size: 0x8, addend: 0x0, symName: __RNvXse_NtCse1nGBsou5OW_5alloc3vecINtB5_3VecNtNtCs5AlOhPCr03V_3syn8generics14TypeParamBoundENtNtNtNtCsfvfooZQ3Axs_4core4iter6traits7collect12IntoIterator9into_iterBJ_, symObjAddr: 0x86D8, symBinAddr: 0x2D448, symSize: 0xE4 }
  - { offset: 0x69520, size: 0x8, addend: 0x0, symName: __RNvXse_NtCse1nGBsou5OW_5alloc3vecINtB5_3VecTNtNtCs5AlOhPCr03V_3syn4path11PathSegmentNtNtBK_5token6Colon2EENtNtNtNtCsfvfooZQ3Axs_4core4iter6traits7collect12IntoIterator9into_iterBK_, symObjAddr: 0x8984, symBinAddr: 0x2D52C, symSize: 0xE4 }
  - { offset: 0x697B2, size: 0x8, addend: 0x0, symName: __RNvXse_NtCse1nGBsou5OW_5alloc3vecINtB5_3VecTNtNtCs5AlOhPCr03V_3syn8generics14TypeParamBoundNtNtBK_5token3AddEENtNtNtNtCsfvfooZQ3Axs_4core4iter6traits7collect12IntoIterator9into_iterBK_, symObjAddr: 0x8A68, symBinAddr: 0x2D610, symSize: 0xE4 }
  - { offset: 0x69A4A, size: 0x8, addend: 0x0, symName: __RNvXsf_NtCse1nGBsou5OW_5alloc3vecRINtB5_3VecNtNtCs5AlOhPCr03V_3syn4attr9AttributeENtNtNtNtCsfvfooZQ3Axs_4core4iter6traits7collect12IntoIterator9into_iterBK_, symObjAddr: 0x8B4C, symBinAddr: 0x2D6F4, symSize: 0xA4 }
  - { offset: 0x69CA6, size: 0x8, addend: 0x0, symName: __RNvXsf_NtCse1nGBsou5OW_5alloc3vecRINtB5_3VecNtNtCs5AlOhPCr03V_3syn4item11ForeignItemENtNtNtNtCsfvfooZQ3Axs_4core4iter6traits7collect12IntoIterator9into_iterBK_, symObjAddr: 0x8BF0, symBinAddr: 0x2D798, symSize: 0xA4 }
  - { offset: 0x69F02, size: 0x8, addend: 0x0, symName: __RNvXsf_NtCse1nGBsou5OW_5alloc3vecRINtB5_3VecNtNtCs5AlOhPCr03V_3syn4item4ItemENtNtNtNtCsfvfooZQ3Axs_4core4iter6traits7collect12IntoIterator9into_iterBK_, symObjAddr: 0x8C94, symBinAddr: 0x2D83C, symSize: 0xA4 }
  - { offset: 0x6A15E, size: 0x8, addend: 0x0, symName: __RNvXsf_NtCse1nGBsou5OW_5alloc3vecRINtB5_3VecNtNtCs5AlOhPCr03V_3syn4item8ImplItemENtNtNtNtCsfvfooZQ3Axs_4core4iter6traits7collect12IntoIterator9into_iterBK_, symObjAddr: 0x8D38, symBinAddr: 0x2D8E0, symSize: 0xA4 }
  - { offset: 0x6A3BA, size: 0x8, addend: 0x0, symName: __RNvXsf_NtCse1nGBsou5OW_5alloc3vecRINtB5_3VecNtNtCs5AlOhPCr03V_3syn4item9TraitItemENtNtNtNtCsfvfooZQ3Axs_4core4iter6traits7collect12IntoIterator9into_iterBK_, symObjAddr: 0x8DDC, symBinAddr: 0x2D984, symSize: 0xA4 }
  - { offset: 0x6A616, size: 0x8, addend: 0x0, symName: __RNvXsf_NtCse1nGBsou5OW_5alloc3vecRINtB5_3VecNtNtCs5AlOhPCr03V_3syn4stmt4StmtENtNtNtNtCsfvfooZQ3Axs_4core4iter6traits7collect12IntoIterator9into_iterBK_, symObjAddr: 0x8E80, symBinAddr: 0x2DA28, symSize: 0xA4 }
  - { offset: 0x6A878, size: 0x8, addend: 0x0, symName: __RNvXsg_NtCse1nGBsou5OW_5alloc3vecQINtB5_3VechENtNtNtNtCsfvfooZQ3Axs_4core4iter6traits7collect12IntoIterator9into_iterCs5AlOhPCr03V_3syn, symObjAddr: 0x9BE4, symBinAddr: 0x2DACC, symSize: 0x98 }
  - { offset: 0x6AAAC, size: 0x8, addend: 0x0, symName: __RNvXsn_NtCse1nGBsou5OW_5alloc3vecINtB5_3VecNtNtCs5AlOhPCr03V_3syn4attr9AttributeENtNtNtCsfvfooZQ3Axs_4core3ops4drop4Drop4dropBJ_, symObjAddr: 0x9CB4, symBinAddr: 0x2DB64, symSize: 0x38 }
  - { offset: 0x6AB5C, size: 0x8, addend: 0x0, symName: __RNvXsn_NtCse1nGBsou5OW_5alloc3vecINtB5_3VecNtNtCs5AlOhPCr03V_3syn4expr3ArmENtNtNtCsfvfooZQ3Axs_4core3ops4drop4Drop4dropBJ_, symObjAddr: 0x9D24, symBinAddr: 0x2DB9C, symSize: 0x38 }
  - { offset: 0x6AC0C, size: 0x8, addend: 0x0, symName: __RNvXsn_NtCse1nGBsou5OW_5alloc3vecINtB5_3VecNtNtCs5AlOhPCr03V_3syn4item11ForeignItemENtNtNtCsfvfooZQ3Axs_4core3ops4drop4Drop4dropBJ_, symObjAddr: 0x9D5C, symBinAddr: 0x2DBD4, symSize: 0x38 }
  - { offset: 0x6ACBC, size: 0x8, addend: 0x0, symName: __RNvXsn_NtCse1nGBsou5OW_5alloc3vecINtB5_3VecNtNtCs5AlOhPCr03V_3syn4item4ItemENtNtNtCsfvfooZQ3Axs_4core3ops4drop4Drop4dropBJ_, symObjAddr: 0x9D94, symBinAddr: 0x2DC0C, symSize: 0x38 }
  - { offset: 0x6AD6C, size: 0x8, addend: 0x0, symName: __RNvXsn_NtCse1nGBsou5OW_5alloc3vecINtB5_3VecNtNtCs5AlOhPCr03V_3syn4item8ImplItemENtNtNtCsfvfooZQ3Axs_4core3ops4drop4Drop4dropBJ_, symObjAddr: 0x9DCC, symBinAddr: 0x2DC44, symSize: 0x38 }
  - { offset: 0x6AE1C, size: 0x8, addend: 0x0, symName: __RNvXsn_NtCse1nGBsou5OW_5alloc3vecINtB5_3VecNtNtCs5AlOhPCr03V_3syn4item9TraitItemENtNtNtCsfvfooZQ3Axs_4core3ops4drop4Drop4dropBJ_, symObjAddr: 0x9E04, symBinAddr: 0x2DC7C, symSize: 0x38 }
  - { offset: 0x6AECC, size: 0x8, addend: 0x0, symName: __RNvXsn_NtCse1nGBsou5OW_5alloc3vecINtB5_3VecNtNtCs5AlOhPCr03V_3syn4stmt4StmtENtNtNtCsfvfooZQ3Axs_4core3ops4drop4Drop4dropBJ_, symObjAddr: 0x9E3C, symBinAddr: 0x2DCB4, symSize: 0x38 }
  - { offset: 0x6AF7C, size: 0x8, addend: 0x0, symName: __RNvXsn_NtCse1nGBsou5OW_5alloc3vecINtB5_3VecNtNtCs5AlOhPCr03V_3syn5error12ErrorMessageENtNtNtCsfvfooZQ3Axs_4core3ops4drop4Drop4dropBJ_, symObjAddr: 0x9E74, symBinAddr: 0x2DCEC, symSize: 0x38 }
  - { offset: 0x6B02C, size: 0x8, addend: 0x0, symName: __RNvXsn_NtCse1nGBsou5OW_5alloc3vecINtB5_3VecNtNtCs5AlOhPCr03V_3syn6buffer5EntryENtNtNtCsfvfooZQ3Axs_4core3ops4drop4Drop4dropBJ_, symObjAddr: 0x9EAC, symBinAddr: 0x2DD24, symSize: 0x38 }
  - { offset: 0x6B0DC, size: 0x8, addend: 0x0, symName: __RNvXsn_NtCse1nGBsou5OW_5alloc3vecINtB5_3VecNtNtCs5AlOhPCr03V_3syn8generics14TypeParamBoundENtNtNtCsfvfooZQ3Axs_4core3ops4drop4Drop4dropBJ_, symObjAddr: 0x9EE4, symBinAddr: 0x2DD5C, symSize: 0x38 }
  - { offset: 0x6B18C, size: 0x8, addend: 0x0, symName: __RNvXsn_NtCse1nGBsou5OW_5alloc3vecINtB5_3VecReENtNtNtCsfvfooZQ3Axs_4core3ops4drop4Drop4dropCs5AlOhPCr03V_3syn, symObjAddr: 0x9F1C, symBinAddr: 0x2DD94, symSize: 0x24 }
  - { offset: 0x6B23C, size: 0x8, addend: 0x0, symName: __RNvXsn_NtCse1nGBsou5OW_5alloc3vecINtB5_3VecTNtNtCs5AlOhPCr03V_3syn2ty4TypeNtNtBK_5token5CommaEENtNtNtCsfvfooZQ3Axs_4core3ops4drop4Drop4dropBK_, symObjAddr: 0x9F40, symBinAddr: 0x2DDB8, symSize: 0x38 }
  - { offset: 0x6B2EC, size: 0x8, addend: 0x0, symName: __RNvXsn_NtCse1nGBsou5OW_5alloc3vecINtB5_3VecTNtNtCs5AlOhPCr03V_3syn2ty9BareFnArgNtNtBK_5token5CommaEENtNtNtCsfvfooZQ3Axs_4core3ops4drop4Drop4dropBK_, symObjAddr: 0x9F78, symBinAddr: 0x2DDF0, symSize: 0x38 }
  - { offset: 0x6B39C, size: 0x8, addend: 0x0, symName: __RNvXsn_NtCse1nGBsou5OW_5alloc3vecINtB5_3VecTNtNtCs5AlOhPCr03V_3syn3pat3PatNtNtBK_5token2OrEENtNtNtCsfvfooZQ3Axs_4core3ops4drop4Drop4dropBK_, symObjAddr: 0x9FB0, symBinAddr: 0x2DE28, symSize: 0x38 }
  - { offset: 0x6B44C, size: 0x8, addend: 0x0, symName: __RNvXsn_NtCse1nGBsou5OW_5alloc3vecINtB5_3VecTNtNtCs5AlOhPCr03V_3syn3pat3PatNtNtBK_5token5CommaEENtNtNtCsfvfooZQ3Axs_4core3ops4drop4Drop4dropBK_, symObjAddr: 0x9FE8, symBinAddr: 0x2DE60, symSize: 0x38 }
  - { offset: 0x6B4FC, size: 0x8, addend: 0x0, symName: __RNvXsn_NtCse1nGBsou5OW_5alloc3vecINtB5_3VecTNtNtCs5AlOhPCr03V_3syn3pat8FieldPatNtNtBK_5token5CommaEENtNtNtCsfvfooZQ3Axs_4core3ops4drop4Drop4dropBK_, symObjAddr: 0xA020, symBinAddr: 0x2DE98, symSize: 0x38 }
  - { offset: 0x6B5AC, size: 0x8, addend: 0x0, symName: __RNvXsn_NtCse1nGBsou5OW_5alloc3vecINtB5_3VecTNtNtCs5AlOhPCr03V_3syn4data5FieldNtNtBK_5token5CommaEENtNtNtCsfvfooZQ3Axs_4core3ops4drop4Drop4dropBK_, symObjAddr: 0xA090, symBinAddr: 0x2DED0, symSize: 0x38 }
  - { offset: 0x6B65C, size: 0x8, addend: 0x0, symName: __RNvXsn_NtCse1nGBsou5OW_5alloc3vecINtB5_3VecTNtNtCs5AlOhPCr03V_3syn4data7VariantNtNtBK_5token5CommaEENtNtNtCsfvfooZQ3Axs_4core3ops4drop4Drop4dropBK_, symObjAddr: 0xA100, symBinAddr: 0x2DF08, symSize: 0x38 }
  - { offset: 0x6B70C, size: 0x8, addend: 0x0, symName: __RNvXsn_NtCse1nGBsou5OW_5alloc3vecINtB5_3VecTNtNtCs5AlOhPCr03V_3syn4expr10FieldValueNtNtBK_5token5CommaEENtNtNtCsfvfooZQ3Axs_4core3ops4drop4Drop4dropBK_, symObjAddr: 0xA138, symBinAddr: 0x2DF40, symSize: 0x38 }
  - { offset: 0x6B7BC, size: 0x8, addend: 0x0, symName: __RNvXsn_NtCse1nGBsou5OW_5alloc3vecINtB5_3VecTNtNtCs5AlOhPCr03V_3syn4expr21GenericMethodArgumentNtNtBK_5token5CommaEENtNtNtCsfvfooZQ3Axs_4core3ops4drop4Drop4dropBK_, symObjAddr: 0xA170, symBinAddr: 0x2DF78, symSize: 0x38 }
  - { offset: 0x6B86C, size: 0x8, addend: 0x0, symName: __RNvXsn_NtCse1nGBsou5OW_5alloc3vecINtB5_3VecTNtNtCs5AlOhPCr03V_3syn4expr4ExprNtNtBK_5token5CommaEENtNtNtCsfvfooZQ3Axs_4core3ops4drop4Drop4dropBK_, symObjAddr: 0xA1A8, symBinAddr: 0x2DFB0, symSize: 0x38 }
  - { offset: 0x6B91C, size: 0x8, addend: 0x0, symName: __RNvXsn_NtCse1nGBsou5OW_5alloc3vecINtB5_3VecTNtNtCs5AlOhPCr03V_3syn4item5FnArgNtNtBK_5token5CommaEENtNtNtCsfvfooZQ3Axs_4core3ops4drop4Drop4dropBK_, symObjAddr: 0xA1E0, symBinAddr: 0x2DFE8, symSize: 0x38 }
  - { offset: 0x6B9CC, size: 0x8, addend: 0x0, symName: __RNvXsn_NtCse1nGBsou5OW_5alloc3vecINtB5_3VecTNtNtCs5AlOhPCr03V_3syn4item7UseTreeNtNtBK_5token5CommaEENtNtNtCsfvfooZQ3Axs_4core3ops4drop4Drop4dropBK_, symObjAddr: 0xA218, symBinAddr: 0x2E020, symSize: 0x38 }
  - { offset: 0x6BA7C, size: 0x8, addend: 0x0, symName: __RNvXsn_NtCse1nGBsou5OW_5alloc3vecINtB5_3VecTNtNtCs5AlOhPCr03V_3syn4path11PathSegmentNtNtBK_5token6Colon2EENtNtNtCsfvfooZQ3Axs_4core3ops4drop4Drop4dropBK_, symObjAddr: 0xA250, symBinAddr: 0x2E058, symSize: 0x38 }
  - { offset: 0x6BB2C, size: 0x8, addend: 0x0, symName: __RNvXsn_NtCse1nGBsou5OW_5alloc3vecINtB5_3VecTNtNtCs5AlOhPCr03V_3syn4path15GenericArgumentNtNtBK_5token5CommaEENtNtNtCsfvfooZQ3Axs_4core3ops4drop4Drop4dropBK_, symObjAddr: 0xA288, symBinAddr: 0x2E090, symSize: 0x38 }
  - { offset: 0x6BBDC, size: 0x8, addend: 0x0, symName: __RNvXsn_NtCse1nGBsou5OW_5alloc3vecINtB5_3VecTNtNtCs5AlOhPCr03V_3syn8generics11LifetimeDefNtNtBK_5token5CommaEENtNtNtCsfvfooZQ3Axs_4core3ops4drop4Drop4dropBK_, symObjAddr: 0xA2C0, symBinAddr: 0x2E0C8, symSize: 0x38 }
  - { offset: 0x6BC8C, size: 0x8, addend: 0x0, symName: __RNvXsn_NtCse1nGBsou5OW_5alloc3vecINtB5_3VecTNtNtCs5AlOhPCr03V_3syn8generics12GenericParamNtNtBK_5token5CommaEENtNtNtCsfvfooZQ3Axs_4core3ops4drop4Drop4dropBK_, symObjAddr: 0xA2F8, symBinAddr: 0x2E100, symSize: 0x38 }
  - { offset: 0x6BD3C, size: 0x8, addend: 0x0, symName: __RNvXsn_NtCse1nGBsou5OW_5alloc3vecINtB5_3VecTNtNtCs5AlOhPCr03V_3syn8generics14TypeParamBoundNtNtBK_5token3AddEENtNtNtCsfvfooZQ3Axs_4core3ops4drop4Drop4dropBK_, symObjAddr: 0xA330, symBinAddr: 0x2E138, symSize: 0x38 }
  - { offset: 0x6BDEC, size: 0x8, addend: 0x0, symName: __RNvXsn_NtCse1nGBsou5OW_5alloc3vecINtB5_3VecTNtNtCs5AlOhPCr03V_3syn8generics14WherePredicateNtNtBK_5token5CommaEENtNtNtCsfvfooZQ3Axs_4core3ops4drop4Drop4dropBK_, symObjAddr: 0xA368, symBinAddr: 0x2E170, symSize: 0x38 }
  - { offset: 0x6BE9C, size: 0x8, addend: 0x0, symName: __RNvXsn_NtCse1nGBsou5OW_5alloc3vecINtB5_3VecTNtNtCs5AlOhPCr03V_3syn8lifetime8LifetimeNtNtBK_5token3AddEENtNtNtCsfvfooZQ3Axs_4core3ops4drop4Drop4dropBK_, symObjAddr: 0xA3A0, symBinAddr: 0x2E1A8, symSize: 0x38 }
  - { offset: 0x6BF52, size: 0x8, addend: 0x0, symName: __RNvXsp_NtCse1nGBsou5OW_5alloc3vecINtB5_3VechENtNtCsfvfooZQ3Axs_4core3fmt5Debug3fmtCs5AlOhPCr03V_3syn, symObjAddr: 0xA778, symBinAddr: 0x2E1E0, symSize: 0x70 }
  - { offset: 0x73925, size: 0x8, addend: 0x0, symName: __RINvMsi_NtCse1nGBsou5OW_5alloc3vecINtB6_3VecNtCs3cP53eQoTwO_11proc_macro29TokenTreeE16extend_desugaredINtNtNtNtCsfvfooZQ3Axs_4core4iter8adapters7flatten7FlattenINtNtB1H_3map3MapIB2z_IB2z_INtNtNtB1L_5slice4iter4IterNtNtCs5AlOhPCr03V_3syn5error12ErrorMessageENvMs_B3s_B3q_16to_compile_errorENCINvXs7_BI_NtBI_11TokenStreamINtNtNtB1J_6traits7collect12FromIteratorB4P_E9from_iterB2U_E0ENCINvXs6_NtBI_3impNtB6g_11TokenStreamIB58_B6p_E9from_iterB2P_Es_0EEEB3u_, symObjAddr: 0x0, symBinAddr: 0x28808, symSize: 0x1D4 }
  - { offset: 0x742FB, size: 0x8, addend: 0x0, symName: __RINvMsi_NtCse1nGBsou5OW_5alloc3vecINtB6_3VecNtNtCs5AlOhPCr03V_3syn8generics14TypeParamBoundE14extend_trustedINtNtCsfvfooZQ3Axs_4core6option8IntoIterBG_EEBK_, symObjAddr: 0x858, symBinAddr: 0x289DC, symSize: 0x1A0 }
  - { offset: 0x745A6, size: 0x8, addend: 0x0, symName: __RINvMsi_NtCse1nGBsou5OW_5alloc3vecINtB6_3VecNtNtCs5AlOhPCr03V_3syn8generics14TypeParamBoundE14extend_trustedINtNtNtNtCsfvfooZQ3Axs_4core4iter8adapters3map3MapINtNtB6_9into_iter8IntoIterTBG_NtNtBK_5token3AddEENCNvXs8_NtBK_10punctuatedINtB3s_10PunctuatedBG_B31_ENtNtNtB1P_6traits7collect12IntoIterator9into_iter0EEBK_, symObjAddr: 0x9F8, symBinAddr: 0x28B7C, symSize: 0x188 }
  - { offset: 0x747DB, size: 0x8, addend: 0x0, symName: __RNvMNtCse1nGBsou5OW_5alloc3vecINtB2_3VecNtNtCs5AlOhPCr03V_3syn4attr9AttributeE3newBG_, symObjAddr: 0xFBC, symBinAddr: 0x28ECC, symSize: 0x14 }
  - { offset: 0x747F8, size: 0x8, addend: 0x0, symName: __RNvMNtCse1nGBsou5OW_5alloc3vecINtB2_3VecNtNtCs5AlOhPCr03V_3syn4expr3ArmE3newBG_, symObjAddr: 0x1018, symBinAddr: 0x28EE0, symSize: 0x14 }
  - { offset: 0x74815, size: 0x8, addend: 0x0, symName: __RNvMNtCse1nGBsou5OW_5alloc3vecINtB2_3VecNtNtCs5AlOhPCr03V_3syn4item11ForeignItemE3newBG_, symObjAddr: 0x102C, symBinAddr: 0x28EF4, symSize: 0x14 }
  - { offset: 0x74832, size: 0x8, addend: 0x0, symName: __RNvMNtCse1nGBsou5OW_5alloc3vecINtB2_3VecNtNtCs5AlOhPCr03V_3syn4item4ItemE3newBG_, symObjAddr: 0x1040, symBinAddr: 0x28F08, symSize: 0x14 }
  - { offset: 0x7484F, size: 0x8, addend: 0x0, symName: __RNvMNtCse1nGBsou5OW_5alloc3vecINtB2_3VecNtNtCs5AlOhPCr03V_3syn4item8ImplItemE3newBG_, symObjAddr: 0x1054, symBinAddr: 0x28F1C, symSize: 0x14 }
  - { offset: 0x7486C, size: 0x8, addend: 0x0, symName: __RNvMNtCse1nGBsou5OW_5alloc3vecINtB2_3VecNtNtCs5AlOhPCr03V_3syn4item9TraitItemE3newBG_, symObjAddr: 0x1068, symBinAddr: 0x28F30, symSize: 0x14 }
  - { offset: 0x74889, size: 0x8, addend: 0x0, symName: __RNvMNtCse1nGBsou5OW_5alloc3vecINtB2_3VecNtNtCs5AlOhPCr03V_3syn4stmt4StmtE3newBG_, symObjAddr: 0x107C, symBinAddr: 0x28F44, symSize: 0x14 }
  - { offset: 0x748AD, size: 0x8, addend: 0x0, symName: __RNvMNtCse1nGBsou5OW_5alloc3vecINtB2_3VecNtNtCs5AlOhPCr03V_3syn6buffer5EntryE3newBG_, symObjAddr: 0x1090, symBinAddr: 0x28F58, symSize: 0x14 }
  - { offset: 0x7492C, size: 0x8, addend: 0x0, symName: __RNvMNtCse1nGBsou5OW_5alloc3vecINtB2_3VecNtNtCs5AlOhPCr03V_3syn8generics14TypeParamBoundE13with_capacityBG_, symObjAddr: 0x10A4, symBinAddr: 0x28F6C, symSize: 0x48 }
  - { offset: 0x749A4, size: 0x8, addend: 0x0, symName: __RNvMNtCse1nGBsou5OW_5alloc3vecINtB2_3VecReE3newCs5AlOhPCr03V_3syn, symObjAddr: 0x10EC, symBinAddr: 0x28FB4, symSize: 0x14 }
  - { offset: 0x749C1, size: 0x8, addend: 0x0, symName: __RNvMNtCse1nGBsou5OW_5alloc3vecINtB2_3VecTNtNtCs5AlOhPCr03V_3syn2ty4TypeNtNtBH_5token5CommaEE3newBH_, symObjAddr: 0x1100, symBinAddr: 0x28FC8, symSize: 0x14 }
  - { offset: 0x749DE, size: 0x8, addend: 0x0, symName: __RNvMNtCse1nGBsou5OW_5alloc3vecINtB2_3VecTNtNtCs5AlOhPCr03V_3syn2ty9BareFnArgNtNtBH_5token5CommaEE3newBH_, symObjAddr: 0x1114, symBinAddr: 0x28FDC, symSize: 0x14 }
  - { offset: 0x749FB, size: 0x8, addend: 0x0, symName: __RNvMNtCse1nGBsou5OW_5alloc3vecINtB2_3VecTNtNtCs5AlOhPCr03V_3syn3pat3PatNtNtBH_5token2OrEE3newBH_, symObjAddr: 0x1128, symBinAddr: 0x28FF0, symSize: 0x14 }
  - { offset: 0x74A18, size: 0x8, addend: 0x0, symName: __RNvMNtCse1nGBsou5OW_5alloc3vecINtB2_3VecTNtNtCs5AlOhPCr03V_3syn3pat3PatNtNtBH_5token5CommaEE3newBH_, symObjAddr: 0x113C, symBinAddr: 0x29004, symSize: 0x14 }
  - { offset: 0x74A35, size: 0x8, addend: 0x0, symName: __RNvMNtCse1nGBsou5OW_5alloc3vecINtB2_3VecTNtNtCs5AlOhPCr03V_3syn3pat8FieldPatNtNtBH_5token5CommaEE3newBH_, symObjAddr: 0x1150, symBinAddr: 0x29018, symSize: 0x14 }
  - { offset: 0x74A52, size: 0x8, addend: 0x0, symName: __RNvMNtCse1nGBsou5OW_5alloc3vecINtB2_3VecTNtNtCs5AlOhPCr03V_3syn4data5FieldNtNtBH_5token5CommaEE3newBH_, symObjAddr: 0x1178, symBinAddr: 0x2902C, symSize: 0x14 }
  - { offset: 0x74A6F, size: 0x8, addend: 0x0, symName: __RNvMNtCse1nGBsou5OW_5alloc3vecINtB2_3VecTNtNtCs5AlOhPCr03V_3syn4data7VariantNtNtBH_5token5CommaEE3newBH_, symObjAddr: 0x11A0, symBinAddr: 0x29040, symSize: 0x14 }
  - { offset: 0x74A8C, size: 0x8, addend: 0x0, symName: __RNvMNtCse1nGBsou5OW_5alloc3vecINtB2_3VecTNtNtCs5AlOhPCr03V_3syn4expr10FieldValueNtNtBH_5token5CommaEE3newBH_, symObjAddr: 0x11B4, symBinAddr: 0x29054, symSize: 0x14 }
  - { offset: 0x74AA9, size: 0x8, addend: 0x0, symName: __RNvMNtCse1nGBsou5OW_5alloc3vecINtB2_3VecTNtNtCs5AlOhPCr03V_3syn4expr21GenericMethodArgumentNtNtBH_5token5CommaEE3newBH_, symObjAddr: 0x11C8, symBinAddr: 0x29068, symSize: 0x14 }
  - { offset: 0x74AC6, size: 0x8, addend: 0x0, symName: __RNvMNtCse1nGBsou5OW_5alloc3vecINtB2_3VecTNtNtCs5AlOhPCr03V_3syn4expr4ExprNtNtBH_5token5CommaEE3newBH_, symObjAddr: 0x11DC, symBinAddr: 0x2907C, symSize: 0x14 }
  - { offset: 0x74AE3, size: 0x8, addend: 0x0, symName: __RNvMNtCse1nGBsou5OW_5alloc3vecINtB2_3VecTNtNtCs5AlOhPCr03V_3syn4item5FnArgNtNtBH_5token5CommaEE3newBH_, symObjAddr: 0x11F0, symBinAddr: 0x29090, symSize: 0x14 }
  - { offset: 0x74B00, size: 0x8, addend: 0x0, symName: __RNvMNtCse1nGBsou5OW_5alloc3vecINtB2_3VecTNtNtCs5AlOhPCr03V_3syn4item7UseTreeNtNtBH_5token5CommaEE3newBH_, symObjAddr: 0x1204, symBinAddr: 0x290A4, symSize: 0x14 }
  - { offset: 0x74B1D, size: 0x8, addend: 0x0, symName: __RNvMNtCse1nGBsou5OW_5alloc3vecINtB2_3VecTNtNtCs5AlOhPCr03V_3syn4path11PathSegmentNtNtBH_5token6Colon2EE3newBH_, symObjAddr: 0x1218, symBinAddr: 0x290B8, symSize: 0x14 }
  - { offset: 0x74B3A, size: 0x8, addend: 0x0, symName: __RNvMNtCse1nGBsou5OW_5alloc3vecINtB2_3VecTNtNtCs5AlOhPCr03V_3syn4path15GenericArgumentNtNtBH_5token5CommaEE3newBH_, symObjAddr: 0x122C, symBinAddr: 0x290CC, symSize: 0x14 }
  - { offset: 0x74B57, size: 0x8, addend: 0x0, symName: __RNvMNtCse1nGBsou5OW_5alloc3vecINtB2_3VecTNtNtCs5AlOhPCr03V_3syn8generics11LifetimeDefNtNtBH_5token5CommaEE3newBH_, symObjAddr: 0x1240, symBinAddr: 0x290E0, symSize: 0x14 }
  - { offset: 0x74B74, size: 0x8, addend: 0x0, symName: __RNvMNtCse1nGBsou5OW_5alloc3vecINtB2_3VecTNtNtCs5AlOhPCr03V_3syn8generics12GenericParamNtNtBH_5token5CommaEE3newBH_, symObjAddr: 0x1254, symBinAddr: 0x290F4, symSize: 0x14 }
  - { offset: 0x74B91, size: 0x8, addend: 0x0, symName: __RNvMNtCse1nGBsou5OW_5alloc3vecINtB2_3VecTNtNtCs5AlOhPCr03V_3syn8generics14TypeParamBoundNtNtBH_5token3AddEE3newBH_, symObjAddr: 0x1268, symBinAddr: 0x29108, symSize: 0x14 }
  - { offset: 0x74BAE, size: 0x8, addend: 0x0, symName: __RNvMNtCse1nGBsou5OW_5alloc3vecINtB2_3VecTNtNtCs5AlOhPCr03V_3syn8generics14WherePredicateNtNtBH_5token5CommaEE3newBH_, symObjAddr: 0x127C, symBinAddr: 0x2911C, symSize: 0x14 }
  - { offset: 0x74BCB, size: 0x8, addend: 0x0, symName: __RNvMNtCse1nGBsou5OW_5alloc3vecINtB2_3VecTNtNtCs5AlOhPCr03V_3syn8lifetime8LifetimeNtNtBH_5token3AddEE3newBH_, symObjAddr: 0x1290, symBinAddr: 0x29130, symSize: 0x14 }
  - { offset: 0x74BE8, size: 0x8, addend: 0x0, symName: __RNvMNtCse1nGBsou5OW_5alloc3vecINtB2_3VechE3newCs5AlOhPCr03V_3syn, symObjAddr: 0x12A4, symBinAddr: 0x29144, symSize: 0x14 }
  - { offset: 0x74D4B, size: 0x8, addend: 0x0, symName: __RNvMs0_NtCse1nGBsou5OW_5alloc3vecINtB5_3VechE6resizeCs5AlOhPCr03V_3syn, symObjAddr: 0x12B8, symBinAddr: 0x29158, symSize: 0x100 }
  - { offset: 0x74FF9, size: 0x8, addend: 0x0, symName: __RNvMs2_NtCse1nGBsou5OW_5alloc3vecINtB5_3VechE11extend_withCs5AlOhPCr03V_3syn, symObjAddr: 0x13B8, symBinAddr: 0x29258, symSize: 0x230 }
  - { offset: 0x753C4, size: 0x8, addend: 0x0, symName: __RNvMs_NtCse1nGBsou5OW_5alloc3vecINtB4_3VecNtNtCs5AlOhPCr03V_3syn4attr9AttributeE15append_elementsBI_, symObjAddr: 0x1708, symBinAddr: 0x29488, symSize: 0xE0 }
  - { offset: 0x755F9, size: 0x8, addend: 0x0, symName: __RNvMs_NtCse1nGBsou5OW_5alloc3vecINtB4_3VecNtNtCs5AlOhPCr03V_3syn4attr9AttributeE4pushBI_, symObjAddr: 0x17E8, symBinAddr: 0x29568, symSize: 0x120 }
  - { offset: 0x75895, size: 0x8, addend: 0x0, symName: __RNvMs_NtCse1nGBsou5OW_5alloc3vecINtB4_3VecNtNtCs5AlOhPCr03V_3syn4attr9AttributeE6appendBI_, symObjAddr: 0x1908, symBinAddr: 0x29688, symSize: 0x8C }
  - { offset: 0x75ACA, size: 0x8, addend: 0x0, symName: __RNvMs_NtCse1nGBsou5OW_5alloc3vecINtB4_3VecNtNtCs5AlOhPCr03V_3syn4attr9AttributeE7reserveBI_, symObjAddr: 0x1994, symBinAddr: 0x29714, symSize: 0xC8 }
  - { offset: 0x75CA1, size: 0x8, addend: 0x0, symName: __RNvMs_NtCse1nGBsou5OW_5alloc3vecINtB4_3VecNtNtCs5AlOhPCr03V_3syn4attr9AttributeE8as_sliceBI_, symObjAddr: 0x1A5C, symBinAddr: 0x297DC, symSize: 0x64 }
  - { offset: 0x75D80, size: 0x8, addend: 0x0, symName: __RNvMs_NtCse1nGBsou5OW_5alloc3vecINtB4_3VecNtNtCs5AlOhPCr03V_3syn4attr9AttributeE8is_emptyBI_, symObjAddr: 0x1AC0, symBinAddr: 0x29840, symSize: 0x20 }
  - { offset: 0x75DE0, size: 0x8, addend: 0x0, symName: __RNvMs_NtCse1nGBsou5OW_5alloc3vecINtB4_3VecNtNtCs5AlOhPCr03V_3syn4expr3ArmE3lenBI_, symObjAddr: 0x1BA8, symBinAddr: 0x29860, symSize: 0x18 }
  - { offset: 0x75F28, size: 0x8, addend: 0x0, symName: __RNvMs_NtCse1nGBsou5OW_5alloc3vecINtB4_3VecNtNtCs5AlOhPCr03V_3syn4expr3ArmE4pushBI_, symObjAddr: 0x1BC0, symBinAddr: 0x29878, symSize: 0x120 }
  - { offset: 0x76176, size: 0x8, addend: 0x0, symName: __RNvMs_NtCse1nGBsou5OW_5alloc3vecINtB4_3VecNtNtCs5AlOhPCr03V_3syn4expr3ArmE8as_sliceBI_, symObjAddr: 0x1CE0, symBinAddr: 0x29998, symSize: 0x64 }
  - { offset: 0x76343, size: 0x8, addend: 0x0, symName: __RNvMs_NtCse1nGBsou5OW_5alloc3vecINtB4_3VecNtNtCs5AlOhPCr03V_3syn4item11ForeignItemE4pushBI_, symObjAddr: 0x1D44, symBinAddr: 0x299FC, symSize: 0x120 }
  - { offset: 0x7660D, size: 0x8, addend: 0x0, symName: __RNvMs_NtCse1nGBsou5OW_5alloc3vecINtB4_3VecNtNtCs5AlOhPCr03V_3syn4item4ItemE4pushBI_, symObjAddr: 0x1E64, symBinAddr: 0x29B1C, symSize: 0x120 }
  - { offset: 0x768D7, size: 0x8, addend: 0x0, symName: __RNvMs_NtCse1nGBsou5OW_5alloc3vecINtB4_3VecNtNtCs5AlOhPCr03V_3syn4item8ImplItemE4pushBI_, symObjAddr: 0x1F84, symBinAddr: 0x29C3C, symSize: 0x120 }
  - { offset: 0x76BA1, size: 0x8, addend: 0x0, symName: __RNvMs_NtCse1nGBsou5OW_5alloc3vecINtB4_3VecNtNtCs5AlOhPCr03V_3syn4item9TraitItemE4pushBI_, symObjAddr: 0x20A4, symBinAddr: 0x29D5C, symSize: 0x120 }
  - { offset: 0x76D65, size: 0x8, addend: 0x0, symName: __RNvMs_NtCse1nGBsou5OW_5alloc3vecINtB4_3VecNtNtCs5AlOhPCr03V_3syn4stmt4StmtE3lenBI_, symObjAddr: 0x21C4, symBinAddr: 0x29E7C, symSize: 0x18 }
  - { offset: 0x76EAD, size: 0x8, addend: 0x0, symName: __RNvMs_NtCse1nGBsou5OW_5alloc3vecINtB4_3VecNtNtCs5AlOhPCr03V_3syn4stmt4StmtE4pushBI_, symObjAddr: 0x21DC, symBinAddr: 0x29E94, symSize: 0x120 }
  - { offset: 0x7715A, size: 0x8, addend: 0x0, symName: __RNvMs_NtCse1nGBsou5OW_5alloc3vecINtB4_3VecNtNtCs5AlOhPCr03V_3syn5error12ErrorMessageE8as_sliceBI_, symObjAddr: 0x24BC, symBinAddr: 0x29FB4, symSize: 0x64 }
  - { offset: 0x77341, size: 0x8, addend: 0x0, symName: __RNvMs_NtCse1nGBsou5OW_5alloc3vecINtB4_3VecNtNtCs5AlOhPCr03V_3syn6buffer5EntryE13shrink_to_fitBI_, symObjAddr: 0x2520, symBinAddr: 0x2A018, symSize: 0xEC }
  - { offset: 0x775B4, size: 0x8, addend: 0x0, symName: __RNvMs_NtCse1nGBsou5OW_5alloc3vecINtB4_3VecNtNtCs5AlOhPCr03V_3syn6buffer5EntryE16into_boxed_sliceBI_, symObjAddr: 0x260C, symBinAddr: 0x2A104, symSize: 0x110 }
  - { offset: 0x7777D, size: 0x8, addend: 0x0, symName: __RNvMs_NtCse1nGBsou5OW_5alloc3vecINtB4_3VecNtNtCs5AlOhPCr03V_3syn6buffer5EntryE3lenBI_, symObjAddr: 0x271C, symBinAddr: 0x2A214, symSize: 0x18 }
  - { offset: 0x778AB, size: 0x8, addend: 0x0, symName: __RNvMs_NtCse1nGBsou5OW_5alloc3vecINtB4_3VecNtNtCs5AlOhPCr03V_3syn6buffer5EntryE4pushBI_, symObjAddr: 0x2734, symBinAddr: 0x2A22C, symSize: 0x100 }
  - { offset: 0x77B75, size: 0x8, addend: 0x0, symName: __RNvMs_NtCse1nGBsou5OW_5alloc3vecINtB4_3VecNtNtCs5AlOhPCr03V_3syn8generics14TypeParamBoundE7reserveBI_, symObjAddr: 0x2834, symBinAddr: 0x2A32C, symSize: 0xC8 }
  - { offset: 0x77CE9, size: 0x8, addend: 0x0, symName: __RNvMs_NtCse1nGBsou5OW_5alloc3vecINtB4_3VecReE3lenCs5AlOhPCr03V_3syn, symObjAddr: 0x28FC, symBinAddr: 0x2A3F4, symSize: 0x18 }
  - { offset: 0x77E31, size: 0x8, addend: 0x0, symName: __RNvMs_NtCse1nGBsou5OW_5alloc3vecINtB4_3VecReE4pushCs5AlOhPCr03V_3syn, symObjAddr: 0x2914, symBinAddr: 0x2A40C, symSize: 0xF4 }
  - { offset: 0x78054, size: 0x8, addend: 0x0, symName: __RNvMs_NtCse1nGBsou5OW_5alloc3vecINtB4_3VecReE8as_sliceCs5AlOhPCr03V_3syn, symObjAddr: 0x2A08, symBinAddr: 0x2A500, symSize: 0x64 }
  - { offset: 0x78221, size: 0x8, addend: 0x0, symName: __RNvMs_NtCse1nGBsou5OW_5alloc3vecINtB4_3VecTNtNtCs5AlOhPCr03V_3syn2ty4TypeNtNtBJ_5token5CommaEE4pushBJ_, symObjAddr: 0x2A6C, symBinAddr: 0x2A564, symSize: 0x120 }
  - { offset: 0x7847C, size: 0x8, addend: 0x0, symName: __RNvMs_NtCse1nGBsou5OW_5alloc3vecINtB4_3VecTNtNtCs5AlOhPCr03V_3syn2ty4TypeNtNtBJ_5token5CommaEE8as_sliceBJ_, symObjAddr: 0x2B8C, symBinAddr: 0x2A684, symSize: 0x64 }
  - { offset: 0x78649, size: 0x8, addend: 0x0, symName: __RNvMs_NtCse1nGBsou5OW_5alloc3vecINtB4_3VecTNtNtCs5AlOhPCr03V_3syn2ty9BareFnArgNtNtBJ_5token5CommaEE4pushBJ_, symObjAddr: 0x2BF0, symBinAddr: 0x2A6E8, symSize: 0x120 }
  - { offset: 0x788A4, size: 0x8, addend: 0x0, symName: __RNvMs_NtCse1nGBsou5OW_5alloc3vecINtB4_3VecTNtNtCs5AlOhPCr03V_3syn2ty9BareFnArgNtNtBJ_5token5CommaEE8as_sliceBJ_, symObjAddr: 0x2D10, symBinAddr: 0x2A808, symSize: 0x64 }
  - { offset: 0x78A71, size: 0x8, addend: 0x0, symName: __RNvMs_NtCse1nGBsou5OW_5alloc3vecINtB4_3VecTNtNtCs5AlOhPCr03V_3syn3pat3PatNtNtBJ_5token2OrEE4pushBJ_, symObjAddr: 0x2D74, symBinAddr: 0x2A86C, symSize: 0x120 }
  - { offset: 0x78CCC, size: 0x8, addend: 0x0, symName: __RNvMs_NtCse1nGBsou5OW_5alloc3vecINtB4_3VecTNtNtCs5AlOhPCr03V_3syn3pat3PatNtNtBJ_5token2OrEE8as_sliceBJ_, symObjAddr: 0x2E94, symBinAddr: 0x2A98C, symSize: 0x64 }
  - { offset: 0x78E99, size: 0x8, addend: 0x0, symName: __RNvMs_NtCse1nGBsou5OW_5alloc3vecINtB4_3VecTNtNtCs5AlOhPCr03V_3syn3pat3PatNtNtBJ_5token5CommaEE4pushBJ_, symObjAddr: 0x2EF8, symBinAddr: 0x2A9F0, symSize: 0x120 }
  - { offset: 0x790F4, size: 0x8, addend: 0x0, symName: __RNvMs_NtCse1nGBsou5OW_5alloc3vecINtB4_3VecTNtNtCs5AlOhPCr03V_3syn3pat3PatNtNtBJ_5token5CommaEE8as_sliceBJ_, symObjAddr: 0x3018, symBinAddr: 0x2AB10, symSize: 0x64 }
  - { offset: 0x792C1, size: 0x8, addend: 0x0, symName: __RNvMs_NtCse1nGBsou5OW_5alloc3vecINtB4_3VecTNtNtCs5AlOhPCr03V_3syn3pat8FieldPatNtNtBJ_5token5CommaEE4pushBJ_, symObjAddr: 0x307C, symBinAddr: 0x2AB74, symSize: 0x118 }
  - { offset: 0x7951A, size: 0x8, addend: 0x0, symName: __RNvMs_NtCse1nGBsou5OW_5alloc3vecINtB4_3VecTNtNtCs5AlOhPCr03V_3syn3pat8FieldPatNtNtBJ_5token5CommaEE8as_sliceBJ_, symObjAddr: 0x3194, symBinAddr: 0x2AC8C, symSize: 0x64 }
  - { offset: 0x79776, size: 0x8, addend: 0x0, symName: __RNvMs_NtCse1nGBsou5OW_5alloc3vecINtB4_3VecTNtNtCs5AlOhPCr03V_3syn4data5FieldNtNtBJ_5token5CommaEE4pushBJ_, symObjAddr: 0x33F8, symBinAddr: 0x2ACF0, symSize: 0x120 }
  - { offset: 0x799BB, size: 0x8, addend: 0x0, symName: __RNvMs_NtCse1nGBsou5OW_5alloc3vecINtB4_3VecTNtNtCs5AlOhPCr03V_3syn4data5FieldNtNtBJ_5token5CommaEE8as_sliceBJ_, symObjAddr: 0x3518, symBinAddr: 0x2AE10, symSize: 0x64 }
  - { offset: 0x79B88, size: 0x8, addend: 0x0, symName: __RNvMs_NtCse1nGBsou5OW_5alloc3vecINtB4_3VecTNtNtCs5AlOhPCr03V_3syn4data7VariantNtNtBJ_5token5CommaEE4pushBJ_, symObjAddr: 0x3594, symBinAddr: 0x2AE74, symSize: 0x120 }
  - { offset: 0x79DE3, size: 0x8, addend: 0x0, symName: __RNvMs_NtCse1nGBsou5OW_5alloc3vecINtB4_3VecTNtNtCs5AlOhPCr03V_3syn4data7VariantNtNtBJ_5token5CommaEE8as_sliceBJ_, symObjAddr: 0x36B4, symBinAddr: 0x2AF94, symSize: 0x64 }
  - { offset: 0x79FB0, size: 0x8, addend: 0x0, symName: __RNvMs_NtCse1nGBsou5OW_5alloc3vecINtB4_3VecTNtNtCs5AlOhPCr03V_3syn4expr10FieldValueNtNtBJ_5token5CommaEE4pushBJ_, symObjAddr: 0x3718, symBinAddr: 0x2AFF8, symSize: 0x120 }
  - { offset: 0x7A20B, size: 0x8, addend: 0x0, symName: __RNvMs_NtCse1nGBsou5OW_5alloc3vecINtB4_3VecTNtNtCs5AlOhPCr03V_3syn4expr10FieldValueNtNtBJ_5token5CommaEE8as_sliceBJ_, symObjAddr: 0x3838, symBinAddr: 0x2B118, symSize: 0x64 }
  - { offset: 0x7A3D8, size: 0x8, addend: 0x0, symName: __RNvMs_NtCse1nGBsou5OW_5alloc3vecINtB4_3VecTNtNtCs5AlOhPCr03V_3syn4expr21GenericMethodArgumentNtNtBJ_5token5CommaEE4pushBJ_, symObjAddr: 0x389C, symBinAddr: 0x2B17C, symSize: 0x120 }
  - { offset: 0x7A633, size: 0x8, addend: 0x0, symName: __RNvMs_NtCse1nGBsou5OW_5alloc3vecINtB4_3VecTNtNtCs5AlOhPCr03V_3syn4expr21GenericMethodArgumentNtNtBJ_5token5CommaEE8as_sliceBJ_, symObjAddr: 0x39BC, symBinAddr: 0x2B29C, symSize: 0x64 }
  - { offset: 0x7A6FA, size: 0x8, addend: 0x0, symName: __RNvMs_NtCse1nGBsou5OW_5alloc3vecINtB4_3VecTNtNtCs5AlOhPCr03V_3syn4expr4ExprNtNtBJ_5token5CommaEE3lenBJ_, symObjAddr: 0x3A20, symBinAddr: 0x2B300, symSize: 0x18 }
  - { offset: 0x7A842, size: 0x8, addend: 0x0, symName: __RNvMs_NtCse1nGBsou5OW_5alloc3vecINtB4_3VecTNtNtCs5AlOhPCr03V_3syn4expr4ExprNtNtBJ_5token5CommaEE4pushBJ_, symObjAddr: 0x3A38, symBinAddr: 0x2B318, symSize: 0x118 }
  - { offset: 0x7AA90, size: 0x8, addend: 0x0, symName: __RNvMs_NtCse1nGBsou5OW_5alloc3vecINtB4_3VecTNtNtCs5AlOhPCr03V_3syn4expr4ExprNtNtBJ_5token5CommaEE8as_sliceBJ_, symObjAddr: 0x3B50, symBinAddr: 0x2B430, symSize: 0x64 }
  - { offset: 0x7AC25, size: 0x8, addend: 0x0, symName: __RNvMs_NtCse1nGBsou5OW_5alloc3vecINtB4_3VecTNtNtCs5AlOhPCr03V_3syn4item5FnArgNtNtBJ_5token5CommaEE12as_mut_sliceBJ_, symObjAddr: 0x3BB4, symBinAddr: 0x2B494, symSize: 0x64 }
  - { offset: 0x7AD01, size: 0x8, addend: 0x0, symName: __RNvMs_NtCse1nGBsou5OW_5alloc3vecINtB4_3VecTNtNtCs5AlOhPCr03V_3syn4item5FnArgNtNtBJ_5token5CommaEE3lenBJ_, symObjAddr: 0x3C18, symBinAddr: 0x2B4F8, symSize: 0x18 }
  - { offset: 0x7AE4F, size: 0x8, addend: 0x0, symName: __RNvMs_NtCse1nGBsou5OW_5alloc3vecINtB4_3VecTNtNtCs5AlOhPCr03V_3syn4item5FnArgNtNtBJ_5token5CommaEE3popBJ_, symObjAddr: 0x3C30, symBinAddr: 0x2B510, symSize: 0x100 }
  - { offset: 0x7B0C3, size: 0x8, addend: 0x0, symName: __RNvMs_NtCse1nGBsou5OW_5alloc3vecINtB4_3VecTNtNtCs5AlOhPCr03V_3syn4item5FnArgNtNtBJ_5token5CommaEE4pushBJ_, symObjAddr: 0x3D30, symBinAddr: 0x2B610, symSize: 0x120 }
  - { offset: 0x7B308, size: 0x8, addend: 0x0, symName: __RNvMs_NtCse1nGBsou5OW_5alloc3vecINtB4_3VecTNtNtCs5AlOhPCr03V_3syn4item5FnArgNtNtBJ_5token5CommaEE8as_sliceBJ_, symObjAddr: 0x3E50, symBinAddr: 0x2B730, symSize: 0x64 }
  - { offset: 0x7B4D5, size: 0x8, addend: 0x0, symName: __RNvMs_NtCse1nGBsou5OW_5alloc3vecINtB4_3VecTNtNtCs5AlOhPCr03V_3syn4item7UseTreeNtNtBJ_5token5CommaEE4pushBJ_, symObjAddr: 0x3EB4, symBinAddr: 0x2B794, symSize: 0x110 }
  - { offset: 0x7B72E, size: 0x8, addend: 0x0, symName: __RNvMs_NtCse1nGBsou5OW_5alloc3vecINtB4_3VecTNtNtCs5AlOhPCr03V_3syn4item7UseTreeNtNtBJ_5token5CommaEE8as_sliceBJ_, symObjAddr: 0x3FC4, symBinAddr: 0x2B8A4, symSize: 0x64 }
  - { offset: 0x7B8C3, size: 0x8, addend: 0x0, symName: __RNvMs_NtCse1nGBsou5OW_5alloc3vecINtB4_3VecTNtNtCs5AlOhPCr03V_3syn4path11PathSegmentNtNtBJ_5token6Colon2EE12as_mut_sliceBJ_, symObjAddr: 0x4028, symBinAddr: 0x2B908, symSize: 0x64 }
  - { offset: 0x7B99F, size: 0x8, addend: 0x0, symName: __RNvMs_NtCse1nGBsou5OW_5alloc3vecINtB4_3VecTNtNtCs5AlOhPCr03V_3syn4path11PathSegmentNtNtBJ_5token6Colon2EE3lenBJ_, symObjAddr: 0x408C, symBinAddr: 0x2B96C, symSize: 0x18 }
  - { offset: 0x7BAB3, size: 0x8, addend: 0x0, symName: __RNvMs_NtCse1nGBsou5OW_5alloc3vecINtB4_3VecTNtNtCs5AlOhPCr03V_3syn4path11PathSegmentNtNtBJ_5token6Colon2EE4pushBJ_, symObjAddr: 0x40A4, symBinAddr: 0x2B984, symSize: 0x120 }
  - { offset: 0x7BD9F, size: 0x8, addend: 0x0, symName: __RNvMs_NtCse1nGBsou5OW_5alloc3vecINtB4_3VecTNtNtCs5AlOhPCr03V_3syn4path11PathSegmentNtNtBJ_5token6Colon2EE6insertBJ_, symObjAddr: 0x41C4, symBinAddr: 0x2BAA4, symSize: 0x1EC }
  - { offset: 0x7C071, size: 0x8, addend: 0x0, symName: __RNvMs_NtCse1nGBsou5OW_5alloc3vecINtB4_3VecTNtNtCs5AlOhPCr03V_3syn4path11PathSegmentNtNtBJ_5token6Colon2EE8as_sliceBJ_, symObjAddr: 0x43B0, symBinAddr: 0x2BC90, symSize: 0x64 }
  - { offset: 0x7C138, size: 0x8, addend: 0x0, symName: __RNvMs_NtCse1nGBsou5OW_5alloc3vecINtB4_3VecTNtNtCs5AlOhPCr03V_3syn4path15GenericArgumentNtNtBJ_5token5CommaEE3lenBJ_, symObjAddr: 0x4414, symBinAddr: 0x2BCF4, symSize: 0x18 }
  - { offset: 0x7C280, size: 0x8, addend: 0x0, symName: __RNvMs_NtCse1nGBsou5OW_5alloc3vecINtB4_3VecTNtNtCs5AlOhPCr03V_3syn4path15GenericArgumentNtNtBJ_5token5CommaEE4pushBJ_, symObjAddr: 0x442C, symBinAddr: 0x2BD0C, symSize: 0x120 }
  - { offset: 0x7C4CE, size: 0x8, addend: 0x0, symName: __RNvMs_NtCse1nGBsou5OW_5alloc3vecINtB4_3VecTNtNtCs5AlOhPCr03V_3syn4path15GenericArgumentNtNtBJ_5token5CommaEE8as_sliceBJ_, symObjAddr: 0x454C, symBinAddr: 0x2BE2C, symSize: 0x64 }
  - { offset: 0x7C69B, size: 0x8, addend: 0x0, symName: __RNvMs_NtCse1nGBsou5OW_5alloc3vecINtB4_3VecTNtNtCs5AlOhPCr03V_3syn8generics11LifetimeDefNtNtBJ_5token5CommaEE4pushBJ_, symObjAddr: 0x45B0, symBinAddr: 0x2BE90, symSize: 0x120 }
  - { offset: 0x7C8F6, size: 0x8, addend: 0x0, symName: __RNvMs_NtCse1nGBsou5OW_5alloc3vecINtB4_3VecTNtNtCs5AlOhPCr03V_3syn8generics11LifetimeDefNtNtBJ_5token5CommaEE8as_sliceBJ_, symObjAddr: 0x46D0, symBinAddr: 0x2BFB0, symSize: 0x64 }
  - { offset: 0x7CA18, size: 0x8, addend: 0x0, symName: __RNvMs_NtCse1nGBsou5OW_5alloc3vecINtB4_3VecTNtNtCs5AlOhPCr03V_3syn8generics12GenericParamNtNtBJ_5token5CommaEE3lenBJ_, symObjAddr: 0x4798, symBinAddr: 0x2C014, symSize: 0x18 }
  - { offset: 0x7CB2C, size: 0x8, addend: 0x0, symName: __RNvMs_NtCse1nGBsou5OW_5alloc3vecINtB4_3VecTNtNtCs5AlOhPCr03V_3syn8generics12GenericParamNtNtBJ_5token5CommaEE4pushBJ_, symObjAddr: 0x47B0, symBinAddr: 0x2C02C, symSize: 0x120 }
  - { offset: 0x7CD71, size: 0x8, addend: 0x0, symName: __RNvMs_NtCse1nGBsou5OW_5alloc3vecINtB4_3VecTNtNtCs5AlOhPCr03V_3syn8generics12GenericParamNtNtBJ_5token5CommaEE8as_sliceBJ_, symObjAddr: 0x48D0, symBinAddr: 0x2C14C, symSize: 0x64 }
  - { offset: 0x7CE38, size: 0x8, addend: 0x0, symName: __RNvMs_NtCse1nGBsou5OW_5alloc3vecINtB4_3VecTNtNtCs5AlOhPCr03V_3syn8generics14TypeParamBoundNtNtBJ_5token3AddEE3lenBJ_, symObjAddr: 0x4934, symBinAddr: 0x2C1B0, symSize: 0x18 }
  - { offset: 0x7CF73, size: 0x8, addend: 0x0, symName: __RNvMs_NtCse1nGBsou5OW_5alloc3vecINtB4_3VecTNtNtCs5AlOhPCr03V_3syn8generics14TypeParamBoundNtNtBJ_5token3AddEE4pushBJ_, symObjAddr: 0x494C, symBinAddr: 0x2C1C8, symSize: 0x120 }
  - { offset: 0x7D214, size: 0x8, addend: 0x0, symName: __RNvMs_NtCse1nGBsou5OW_5alloc3vecINtB4_3VecTNtNtCs5AlOhPCr03V_3syn8generics14TypeParamBoundNtNtBJ_5token3AddEE5clearBJ_, symObjAddr: 0x4A6C, symBinAddr: 0x2C2E8, symSize: 0x7C }
  - { offset: 0x7D3E7, size: 0x8, addend: 0x0, symName: __RNvMs_NtCse1nGBsou5OW_5alloc3vecINtB4_3VecTNtNtCs5AlOhPCr03V_3syn8generics14TypeParamBoundNtNtBJ_5token3AddEE8as_sliceBJ_, symObjAddr: 0x4AE8, symBinAddr: 0x2C364, symSize: 0x64 }
  - { offset: 0x7D4AE, size: 0x8, addend: 0x0, symName: __RNvMs_NtCse1nGBsou5OW_5alloc3vecINtB4_3VecTNtNtCs5AlOhPCr03V_3syn8generics14WherePredicateNtNtBJ_5token5CommaEE3lenBJ_, symObjAddr: 0x4B4C, symBinAddr: 0x2C3C8, symSize: 0x18 }
  - { offset: 0x7D5F6, size: 0x8, addend: 0x0, symName: __RNvMs_NtCse1nGBsou5OW_5alloc3vecINtB4_3VecTNtNtCs5AlOhPCr03V_3syn8generics14WherePredicateNtNtBJ_5token5CommaEE4pushBJ_, symObjAddr: 0x4B64, symBinAddr: 0x2C3E0, symSize: 0x120 }
  - { offset: 0x7D844, size: 0x8, addend: 0x0, symName: __RNvMs_NtCse1nGBsou5OW_5alloc3vecINtB4_3VecTNtNtCs5AlOhPCr03V_3syn8generics14WherePredicateNtNtBJ_5token5CommaEE8as_sliceBJ_, symObjAddr: 0x4C84, symBinAddr: 0x2C500, symSize: 0x64 }
  - { offset: 0x7D90B, size: 0x8, addend: 0x0, symName: __RNvMs_NtCse1nGBsou5OW_5alloc3vecINtB4_3VecTNtNtCs5AlOhPCr03V_3syn8lifetime8LifetimeNtNtBJ_5token3AddEE3lenBJ_, symObjAddr: 0x4CE8, symBinAddr: 0x2C564, symSize: 0x18 }
  - { offset: 0x7DA53, size: 0x8, addend: 0x0, symName: __RNvMs_NtCse1nGBsou5OW_5alloc3vecINtB4_3VecTNtNtCs5AlOhPCr03V_3syn8lifetime8LifetimeNtNtBJ_5token3AddEE4pushBJ_, symObjAddr: 0x4D00, symBinAddr: 0x2C57C, symSize: 0x118 }
  - { offset: 0x7DC9F, size: 0x8, addend: 0x0, symName: __RNvMs_NtCse1nGBsou5OW_5alloc3vecINtB4_3VecTNtNtCs5AlOhPCr03V_3syn8lifetime8LifetimeNtNtBJ_5token3AddEE8as_sliceBJ_, symObjAddr: 0x4E18, symBinAddr: 0x2C694, symSize: 0x64 }
  - { offset: 0x7DE5F, size: 0x8, addend: 0x0, symName: __RNvMs_NtCse1nGBsou5OW_5alloc3vecINtB4_3VechE13shrink_to_fitCs5AlOhPCr03V_3syn, symObjAddr: 0x4E7C, symBinAddr: 0x2C6F8, symSize: 0xE4 }
  - { offset: 0x7E0AB, size: 0x8, addend: 0x0, symName: __RNvMs_NtCse1nGBsou5OW_5alloc3vecINtB4_3VechE16into_boxed_sliceCs5AlOhPCr03V_3syn, symObjAddr: 0x4F60, symBinAddr: 0x2C7DC, symSize: 0x110 }
  - { offset: 0x7E274, size: 0x8, addend: 0x0, symName: __RNvMs_NtCse1nGBsou5OW_5alloc3vecINtB4_3VechE3lenCs5AlOhPCr03V_3syn, symObjAddr: 0x5070, symBinAddr: 0x2C8EC, symSize: 0x18 }
  - { offset: 0x7E337, size: 0x8, addend: 0x0, symName: __RNvMs_NtCse1nGBsou5OW_5alloc3vecINtB4_3VechE8as_sliceCs5AlOhPCr03V_3syn, symObjAddr: 0x5088, symBinAddr: 0x2C904, symSize: 0x60 }
  - { offset: 0x7E5A7, size: 0x8, addend: 0x0, symName: __RNvMs_NtCse1nGBsou5OW_5alloc3vecINtB4_3VechE9split_offCs5AlOhPCr03V_3syn, symObjAddr: 0x50E8, symBinAddr: 0x2C964, symSize: 0x140 }
  - { offset: 0x847D1, size: 0x8, addend: 0x0, symName: __RNvNtCs5AlOhPCr03V_3syn4expr19requires_terminator, symObjAddr: 0x2D1C, symBinAddr: 0x2EA38, symSize: 0xFC }
  - { offset: 0x84809, size: 0x8, addend: 0x0, symName: __RNvXs_NtNtCs5AlOhPCr03V_3syn4expr7parsingNtB6_4ExprNtNtB8_5parse5Parse5parse, symObjAddr: 0x2E18, symBinAddr: 0x2EB34, symSize: 0x3C }
  - { offset: 0x8483D, size: 0x8, addend: 0x0, symName: __RNvXsa_NtNtCs5AlOhPCr03V_3syn4expr7parsingNtB7_7ExprLitNtNtB9_5parse5Parse5parse, symObjAddr: 0x38E8, symBinAddr: 0x2EBAC, symSize: 0x14C }
  - { offset: 0x84890, size: 0x8, addend: 0x0, symName: __RNvXsc_NtNtCs5AlOhPCr03V_3syn4expr7parsingNtB7_21GenericMethodArgumentNtNtB9_5parse5Parse5parse, symObjAddr: 0x3A68, symBinAddr: 0x2ECF8, symSize: 0x2A0 }
  - { offset: 0x84940, size: 0x8, addend: 0x0, symName: __RNvXsd_NtNtCs5AlOhPCr03V_3syn4expr7parsingNtB7_15MethodTurbofishNtNtB9_5parse5Parse5parse, symObjAddr: 0x3D08, symBinAddr: 0x2EF98, symSize: 0x508 }
  - { offset: 0x84A6B, size: 0x8, addend: 0x0, symName: __RNvXse_NtNtCs5AlOhPCr03V_3syn4expr7parsingNtB7_7ExprLetNtNtB9_5parse5Parse5parse, symObjAddr: 0x4210, symBinAddr: 0x2F4A0, symSize: 0x5D0 }
  - { offset: 0x84BBC, size: 0x8, addend: 0x0, symName: __RNvXsf_NtNtCs5AlOhPCr03V_3syn4expr7parsingNtB7_6ExprIfNtNtB9_5parse5Parse5parse, symObjAddr: 0x47E0, symBinAddr: 0x2FA70, symSize: 0x598 }
  - { offset: 0x84CF8, size: 0x8, addend: 0x0, symName: __RNvXsg_NtNtCs5AlOhPCr03V_3syn4expr7parsingNtB7_11ExprForLoopNtNtB9_5parse5Parse5parse, symObjAddr: 0x4D78, symBinAddr: 0x30008, symSize: 0x92C }
  - { offset: 0x84FA7, size: 0x8, addend: 0x0, symName: __RNvXsh_NtNtCs5AlOhPCr03V_3syn4expr7parsingNtB7_8ExprLoopNtNtB9_5parse5Parse5parse, symObjAddr: 0x56A4, symBinAddr: 0x30934, symSize: 0x584 }
  - { offset: 0x85159, size: 0x8, addend: 0x0, symName: __RNvXsi_NtNtCs5AlOhPCr03V_3syn4expr7parsingNtB7_9ExprMatchNtNtB9_5parse5Parse5parse, symObjAddr: 0x5C28, symBinAddr: 0x30EB8, symSize: 0x6B8 }
  - { offset: 0x8532A, size: 0x8, addend: 0x0, symName: __RNvXsp_NtNtCs5AlOhPCr03V_3syn4expr7parsingNtB7_12ExprTryBlockNtNtB9_5parse5Parse5parse, symObjAddr: 0x67D0, symBinAddr: 0x31570, symSize: 0x20C }
  - { offset: 0x8539C, size: 0x8, addend: 0x0, symName: __RNvXsq_NtNtCs5AlOhPCr03V_3syn4expr7parsingNtB7_9ExprYieldNtNtB9_5parse5Parse5parse, symObjAddr: 0x69DC, symBinAddr: 0x3177C, symSize: 0x27C }
  - { offset: 0x853FE, size: 0x8, addend: 0x0, symName: __RNvXsr_NtNtCs5AlOhPCr03V_3syn4expr7parsingNtB7_9ExprAsyncNtNtB9_5parse5Parse5parse, symObjAddr: 0x6C58, symBinAddr: 0x319F8, symSize: 0x2D4 }
  - { offset: 0x8548F, size: 0x8, addend: 0x0, symName: __RNvXss_NtNtCs5AlOhPCr03V_3syn4expr7parsingNtB7_9ExprWhileNtNtB9_5parse5Parse5parse, symObjAddr: 0x6F2C, symBinAddr: 0x31CCC, symSize: 0x758 }
  - { offset: 0x856C4, size: 0x8, addend: 0x0, symName: __RNvXst_NtNtCs5AlOhPCr03V_3syn4expr7parsingNtB7_5LabelNtNtB9_5parse5Parse5parse, symObjAddr: 0x7684, symBinAddr: 0x32424, symSize: 0x1D4 }
  - { offset: 0x85755, size: 0x8, addend: 0x0, symName: __RNvXsv_NtNtCs5AlOhPCr03V_3syn4expr7parsingNtB7_12ExprContinueNtNtB9_5parse5Parse5parse, symObjAddr: 0x7858, symBinAddr: 0x325F8, symSize: 0x200 }
  - { offset: 0x857C7, size: 0x8, addend: 0x0, symName: __RNvXsw_NtNtCs5AlOhPCr03V_3syn4expr7parsingNtB7_10FieldValueNtNtB9_5parse5Parse5parse, symObjAddr: 0x7A58, symBinAddr: 0x327F8, symSize: 0x568 }
  - { offset: 0x85966, size: 0x8, addend: 0x0, symName: __RNvXsy_NtNtCs5AlOhPCr03V_3syn4expr7parsingNtB7_10ExprUnsafeNtNtB9_5parse5Parse5parse, symObjAddr: 0x811C, symBinAddr: 0x32D60, symSize: 0x3A4 }
  - { offset: 0x85ABB, size: 0x8, addend: 0x0, symName: __RNvXsz_NtNtCs5AlOhPCr03V_3syn4expr7parsingNtB7_9ExprBlockNtNtB9_5parse5Parse5parse, symObjAddr: 0x84C0, symBinAddr: 0x33104, symSize: 0x4F0 }
  - { offset: 0x85C40, size: 0x8, addend: 0x0, symName: __RNvXsA_NtNtCs5AlOhPCr03V_3syn4expr7parsingNtB7_11RangeLimitsNtNtB9_5parse5Parse5parse, symObjAddr: 0x89B0, symBinAddr: 0x335F4, symSize: 0x2C4 }
  - { offset: 0x85CC1, size: 0x8, addend: 0x0, symName: __RNvXsB_NtNtCs5AlOhPCr03V_3syn4expr7parsingNtB7_8ExprPathNtNtB9_5parse5Parse5parse, symObjAddr: 0x8C74, symBinAddr: 0x338B8, symSize: 0x230 }
  - { offset: 0x85D99, size: 0x8, addend: 0x0, symName: __RNvXsC_NtNtCs5AlOhPCr03V_3syn4expr7parsingNtB7_6MemberNtNtB9_5parse5Parse5parse, symObjAddr: 0x8EA4, symBinAddr: 0x33AE8, symSize: 0xFC }
  - { offset: 0x85DCD, size: 0x8, addend: 0x0, symName: __RNvXsD_NtNtCs5AlOhPCr03V_3syn4expr7parsingNtB7_3ArmNtNtB9_5parse5Parse5parse, symObjAddr: 0x8FA0, symBinAddr: 0x33BE4, symSize: 0x904 }
  - { offset: 0x86005, size: 0x8, addend: 0x0, symName: __RNvXsE_NtNtCs5AlOhPCr03V_3syn4expr7parsingNtB7_5IndexNtNtB9_5parse5Parse5parse, symObjAddr: 0x98A4, symBinAddr: 0x344E8, symSize: 0x28C }
  - { offset: 0x860C8, size: 0x8, addend: 0x0, symName: __RNvXNtNtCs5AlOhPCr03V_3syn4expr8printingNtB4_7ExprBoxNtNtCs2cqEZUIJimJ_5quote9to_tokens8ToTokens9to_tokens, symObjAddr: 0x9B9C, symBinAddr: 0x347E0, symSize: 0x64 }
  - { offset: 0x86107, size: 0x8, addend: 0x0, symName: __RNvXs_NtNtCs5AlOhPCr03V_3syn4expr8printingNtB6_9ExprArrayNtNtCs2cqEZUIJimJ_5quote9to_tokens8ToTokens9to_tokens, symObjAddr: 0x9C00, symBinAddr: 0x34844, symSize: 0x60 }
  - { offset: 0x86146, size: 0x8, addend: 0x0, symName: __RNvXs0_NtNtCs5AlOhPCr03V_3syn4expr8printingNtB7_8ExprCallNtNtCs2cqEZUIJimJ_5quote9to_tokens8ToTokens9to_tokens, symObjAddr: 0x9C60, symBinAddr: 0x348A4, symSize: 0x70 }
  - { offset: 0x86185, size: 0x8, addend: 0x0, symName: __RNvXs1_NtNtCs5AlOhPCr03V_3syn4expr8printingNtB7_14ExprMethodCallNtNtCs2cqEZUIJimJ_5quote9to_tokens8ToTokens9to_tokens, symObjAddr: 0x9CD0, symBinAddr: 0x34914, symSize: 0xA0 }
  - { offset: 0x861C4, size: 0x8, addend: 0x0, symName: __RNvXs2_NtNtCs5AlOhPCr03V_3syn4expr8printingNtB7_15MethodTurbofishNtNtCs2cqEZUIJimJ_5quote9to_tokens8ToTokens9to_tokens, symObjAddr: 0x9D70, symBinAddr: 0x349B4, symSize: 0x70 }
  - { offset: 0x86203, size: 0x8, addend: 0x0, symName: __RNvXs3_NtNtCs5AlOhPCr03V_3syn4expr8printingNtB7_21GenericMethodArgumentNtNtCs2cqEZUIJimJ_5quote9to_tokens8ToTokens9to_tokens, symObjAddr: 0x9DE0, symBinAddr: 0x34A24, symSize: 0xA4 }
  - { offset: 0x86276, size: 0x8, addend: 0x0, symName: __RNvXs4_NtNtCs5AlOhPCr03V_3syn4expr8printingNtB7_9ExprTupleNtNtCs2cqEZUIJimJ_5quote9to_tokens8ToTokens9to_tokens, symObjAddr: 0x9E84, symBinAddr: 0x34AC8, symSize: 0x60 }
  - { offset: 0x862B5, size: 0x8, addend: 0x0, symName: __RNvXs5_NtNtCs5AlOhPCr03V_3syn4expr8printingNtB7_10ExprBinaryNtNtCs2cqEZUIJimJ_5quote9to_tokens8ToTokens9to_tokens, symObjAddr: 0x9EE4, symBinAddr: 0x34B28, symSize: 0x74 }
  - { offset: 0x862F4, size: 0x8, addend: 0x0, symName: __RNvXs6_NtNtCs5AlOhPCr03V_3syn4expr8printingNtB7_9ExprUnaryNtNtCs2cqEZUIJimJ_5quote9to_tokens8ToTokens9to_tokens, symObjAddr: 0x9F58, symBinAddr: 0x34B9C, symSize: 0x64 }
  - { offset: 0x86333, size: 0x8, addend: 0x0, symName: __RNvXs7_NtNtCs5AlOhPCr03V_3syn4expr8printingNtB7_7ExprLitNtNtCs2cqEZUIJimJ_5quote9to_tokens8ToTokens9to_tokens, symObjAddr: 0x9FBC, symBinAddr: 0x34C00, symSize: 0x54 }
  - { offset: 0x86372, size: 0x8, addend: 0x0, symName: __RNvXs8_NtNtCs5AlOhPCr03V_3syn4expr8printingNtB7_8ExprCastNtNtCs2cqEZUIJimJ_5quote9to_tokens8ToTokens9to_tokens, symObjAddr: 0xA010, symBinAddr: 0x34C54, symSize: 0x74 }
  - { offset: 0x863B1, size: 0x8, addend: 0x0, symName: __RNvXs9_NtNtCs5AlOhPCr03V_3syn4expr8printingNtB7_8ExprTypeNtNtCs2cqEZUIJimJ_5quote9to_tokens8ToTokens9to_tokens, symObjAddr: 0xA084, symBinAddr: 0x34CC8, symSize: 0x74 }
  - { offset: 0x863F0, size: 0x8, addend: 0x0, symName: __RNvXsa_NtNtCs5AlOhPCr03V_3syn4expr8printingNtB7_7ExprLetNtNtCs2cqEZUIJimJ_5quote9to_tokens8ToTokens9to_tokens, symObjAddr: 0xA0F8, symBinAddr: 0x34D3C, symSize: 0xAC }
  - { offset: 0x8642F, size: 0x8, addend: 0x0, symName: __RNvXsb_NtNtCs5AlOhPCr03V_3syn4expr8printingNtB7_6ExprIfNtNtCs2cqEZUIJimJ_5quote9to_tokens8ToTokens9to_tokens, symObjAddr: 0xA1A4, symBinAddr: 0x34DE8, symSize: 0xAC }
  - { offset: 0x8646E, size: 0x8, addend: 0x0, symName: __RNvXsc_NtNtCs5AlOhPCr03V_3syn4expr8printingNtB7_9ExprWhileNtNtCs2cqEZUIJimJ_5quote9to_tokens8ToTokens9to_tokens, symObjAddr: 0xA250, symBinAddr: 0x34E94, symSize: 0xAC }
  - { offset: 0x864AD, size: 0x8, addend: 0x0, symName: __RNvXsd_NtNtCs5AlOhPCr03V_3syn4expr8printingNtB7_11ExprForLoopNtNtCs2cqEZUIJimJ_5quote9to_tokens8ToTokens9to_tokens, symObjAddr: 0xA2FC, symBinAddr: 0x34F40, symSize: 0xCC }
  - { offset: 0x864EC, size: 0x8, addend: 0x0, symName: __RNvXse_NtNtCs5AlOhPCr03V_3syn4expr8printingNtB7_8ExprLoopNtNtCs2cqEZUIJimJ_5quote9to_tokens8ToTokens9to_tokens, symObjAddr: 0xA3C8, symBinAddr: 0x3500C, symSize: 0x80 }
  - { offset: 0x8652B, size: 0x8, addend: 0x0, symName: __RNvXsf_NtNtCs5AlOhPCr03V_3syn4expr8printingNtB7_9ExprMatchNtNtCs2cqEZUIJimJ_5quote9to_tokens8ToTokens9to_tokens, symObjAddr: 0xA448, symBinAddr: 0x3508C, symSize: 0x9C }
  - { offset: 0x8656A, size: 0x8, addend: 0x0, symName: __RNvXsg_NtNtCs5AlOhPCr03V_3syn4expr8printingNtB7_9ExprAsyncNtNtCs2cqEZUIJimJ_5quote9to_tokens8ToTokens9to_tokens, symObjAddr: 0xA4E4, symBinAddr: 0x35128, symSize: 0x74 }
  - { offset: 0x865A9, size: 0x8, addend: 0x0, symName: __RNvXsh_NtNtCs5AlOhPCr03V_3syn4expr8printingNtB7_9ExprAwaitNtNtCs2cqEZUIJimJ_5quote9to_tokens8ToTokens9to_tokens, symObjAddr: 0xA558, symBinAddr: 0x3519C, symSize: 0x74 }
  - { offset: 0x865E8, size: 0x8, addend: 0x0, symName: __RNvXsi_NtNtCs5AlOhPCr03V_3syn4expr8printingNtB7_12ExprTryBlockNtNtCs2cqEZUIJimJ_5quote9to_tokens8ToTokens9to_tokens, symObjAddr: 0xA5CC, symBinAddr: 0x35210, symSize: 0x64 }
  - { offset: 0x86627, size: 0x8, addend: 0x0, symName: __RNvXsj_NtNtCs5AlOhPCr03V_3syn4expr8printingNtB7_9ExprYieldNtNtCs2cqEZUIJimJ_5quote9to_tokens8ToTokens9to_tokens, symObjAddr: 0xA630, symBinAddr: 0x35274, symSize: 0x64 }
  - { offset: 0x86666, size: 0x8, addend: 0x0, symName: __RNvXsk_NtNtCs5AlOhPCr03V_3syn4expr8printingNtB7_11ExprClosureNtNtCs2cqEZUIJimJ_5quote9to_tokens8ToTokens9to_tokens, symObjAddr: 0xA694, symBinAddr: 0x352D8, symSize: 0xC4 }
  - { offset: 0x866A5, size: 0x8, addend: 0x0, symName: __RNvXsl_NtNtCs5AlOhPCr03V_3syn4expr8printingNtB7_10ExprUnsafeNtNtCs2cqEZUIJimJ_5quote9to_tokens8ToTokens9to_tokens, symObjAddr: 0xA758, symBinAddr: 0x3539C, symSize: 0x70 }
  - { offset: 0x866E4, size: 0x8, addend: 0x0, symName: __RNvXsm_NtNtCs5AlOhPCr03V_3syn4expr8printingNtB7_9ExprBlockNtNtCs2cqEZUIJimJ_5quote9to_tokens8ToTokens9to_tokens, symObjAddr: 0xA7C8, symBinAddr: 0x3540C, symSize: 0x70 }
  - { offset: 0x86723, size: 0x8, addend: 0x0, symName: __RNvXsn_NtNtCs5AlOhPCr03V_3syn4expr8printingNtB7_10ExprAssignNtNtCs2cqEZUIJimJ_5quote9to_tokens8ToTokens9to_tokens, symObjAddr: 0xA838, symBinAddr: 0x3547C, symSize: 0x74 }
  - { offset: 0x86762, size: 0x8, addend: 0x0, symName: __RNvXso_NtNtCs5AlOhPCr03V_3syn4expr8printingNtB7_12ExprAssignOpNtNtCs2cqEZUIJimJ_5quote9to_tokens8ToTokens9to_tokens, symObjAddr: 0xA8AC, symBinAddr: 0x354F0, symSize: 0x74 }
  - { offset: 0x867A1, size: 0x8, addend: 0x0, symName: __RNvXsp_NtNtCs5AlOhPCr03V_3syn4expr8printingNtB7_9ExprFieldNtNtCs2cqEZUIJimJ_5quote9to_tokens8ToTokens9to_tokens, symObjAddr: 0xA920, symBinAddr: 0x35564, symSize: 0x74 }
  - { offset: 0x867E0, size: 0x8, addend: 0x0, symName: __RNvXsq_NtNtCs5AlOhPCr03V_3syn4expr8printingNtB7_6MemberNtNtCs2cqEZUIJimJ_5quote9to_tokens8ToTokens9to_tokens, symObjAddr: 0xA994, symBinAddr: 0x355D8, symSize: 0x98 }
  - { offset: 0x86853, size: 0x8, addend: 0x0, symName: __RNvXsr_NtNtCs5AlOhPCr03V_3syn4expr8printingNtB7_5IndexNtNtCs2cqEZUIJimJ_5quote9to_tokens8ToTokens9to_tokens, symObjAddr: 0xAA2C, symBinAddr: 0x35670, symSize: 0xD4 }
  - { offset: 0x868A8, size: 0x8, addend: 0x0, symName: __RNvXss_NtNtCs5AlOhPCr03V_3syn4expr8printingNtB7_9ExprIndexNtNtCs2cqEZUIJimJ_5quote9to_tokens8ToTokens9to_tokens, symObjAddr: 0xAB00, symBinAddr: 0x35744, symSize: 0x70 }
  - { offset: 0x868E7, size: 0x8, addend: 0x0, symName: __RNvXst_NtNtCs5AlOhPCr03V_3syn4expr8printingNtB7_11RangeLimitsNtNtCs2cqEZUIJimJ_5quote9to_tokens8ToTokens9to_tokens, symObjAddr: 0xAB70, symBinAddr: 0x357B4, symSize: 0x94 }
  - { offset: 0x8695A, size: 0x8, addend: 0x0, symName: __RNvXsu_NtNtCs5AlOhPCr03V_3syn4expr8printingNtB7_9ExprRangeNtNtCs2cqEZUIJimJ_5quote9to_tokens8ToTokens9to_tokens, symObjAddr: 0xAC04, symBinAddr: 0x35848, symSize: 0x74 }
  - { offset: 0x86999, size: 0x8, addend: 0x0, symName: __RNvXsv_NtNtCs5AlOhPCr03V_3syn4expr8printingNtB7_8ExprPathNtNtCs2cqEZUIJimJ_5quote9to_tokens8ToTokens9to_tokens, symObjAddr: 0xAC78, symBinAddr: 0x358BC, symSize: 0x5C }
  - { offset: 0x869D8, size: 0x8, addend: 0x0, symName: __RNvXsw_NtNtCs5AlOhPCr03V_3syn4expr8printingNtB7_13ExprReferenceNtNtCs2cqEZUIJimJ_5quote9to_tokens8ToTokens9to_tokens, symObjAddr: 0xACD4, symBinAddr: 0x35918, symSize: 0x74 }
  - { offset: 0x86A17, size: 0x8, addend: 0x0, symName: __RNvXsx_NtNtCs5AlOhPCr03V_3syn4expr8printingNtB7_9ExprBreakNtNtCs2cqEZUIJimJ_5quote9to_tokens8ToTokens9to_tokens, symObjAddr: 0xAD48, symBinAddr: 0x3598C, symSize: 0x74 }
  - { offset: 0x86A56, size: 0x8, addend: 0x0, symName: __RNvXsy_NtNtCs5AlOhPCr03V_3syn4expr8printingNtB7_12ExprContinueNtNtCs2cqEZUIJimJ_5quote9to_tokens8ToTokens9to_tokens, symObjAddr: 0xADBC, symBinAddr: 0x35A00, symSize: 0x64 }
  - { offset: 0x86A95, size: 0x8, addend: 0x0, symName: __RNvXsz_NtNtCs5AlOhPCr03V_3syn4expr8printingNtB7_10ExprReturnNtNtCs2cqEZUIJimJ_5quote9to_tokens8ToTokens9to_tokens, symObjAddr: 0xAE20, symBinAddr: 0x35A64, symSize: 0x64 }
  - { offset: 0x86AD4, size: 0x8, addend: 0x0, symName: __RNvXsA_NtNtCs5AlOhPCr03V_3syn4expr8printingNtB7_9ExprMacroNtNtCs2cqEZUIJimJ_5quote9to_tokens8ToTokens9to_tokens, symObjAddr: 0xAE84, symBinAddr: 0x35AC8, symSize: 0x54 }
  - { offset: 0x86B13, size: 0x8, addend: 0x0, symName: __RNvXsB_NtNtCs5AlOhPCr03V_3syn4expr8printingNtB7_10ExprStructNtNtCs2cqEZUIJimJ_5quote9to_tokens8ToTokens9to_tokens, symObjAddr: 0xAED8, symBinAddr: 0x35B1C, symSize: 0x70 }
  - { offset: 0x86B52, size: 0x8, addend: 0x0, symName: __RNvXsC_NtNtCs5AlOhPCr03V_3syn4expr8printingNtB7_10ExprRepeatNtNtCs2cqEZUIJimJ_5quote9to_tokens8ToTokens9to_tokens, symObjAddr: 0xAF48, symBinAddr: 0x35B8C, symSize: 0x60 }
  - { offset: 0x86B91, size: 0x8, addend: 0x0, symName: __RNvXsD_NtNtCs5AlOhPCr03V_3syn4expr8printingNtB7_9ExprGroupNtNtCs2cqEZUIJimJ_5quote9to_tokens8ToTokens9to_tokens, symObjAddr: 0xAFA8, symBinAddr: 0x35BEC, symSize: 0x60 }
  - { offset: 0x86BD0, size: 0x8, addend: 0x0, symName: __RNvXsE_NtNtCs5AlOhPCr03V_3syn4expr8printingNtB7_9ExprParenNtNtCs2cqEZUIJimJ_5quote9to_tokens8ToTokens9to_tokens, symObjAddr: 0xB008, symBinAddr: 0x35C4C, symSize: 0x60 }
  - { offset: 0x86C0F, size: 0x8, addend: 0x0, symName: __RNvXsF_NtNtCs5AlOhPCr03V_3syn4expr8printingNtB7_7ExprTryNtNtCs2cqEZUIJimJ_5quote9to_tokens8ToTokens9to_tokens, symObjAddr: 0xB068, symBinAddr: 0x35CAC, symSize: 0x64 }
  - { offset: 0x86C4E, size: 0x8, addend: 0x0, symName: __RNvXsG_NtNtCs5AlOhPCr03V_3syn4expr8printingNtB7_5LabelNtNtCs2cqEZUIJimJ_5quote9to_tokens8ToTokens9to_tokens, symObjAddr: 0xB0CC, symBinAddr: 0x35D10, symSize: 0x50 }
  - { offset: 0x86C8D, size: 0x8, addend: 0x0, symName: __RNvXsH_NtNtCs5AlOhPCr03V_3syn4expr8printingNtB7_10FieldValueNtNtCs2cqEZUIJimJ_5quote9to_tokens8ToTokens9to_tokens, symObjAddr: 0xB11C, symBinAddr: 0x35D60, symSize: 0xB4 }
  - { offset: 0x86CEA, size: 0x8, addend: 0x0, symName: __RNvXsI_NtNtCs5AlOhPCr03V_3syn4expr8printingNtB7_3ArmNtNtCs2cqEZUIJimJ_5quote9to_tokens8ToTokens9to_tokens, symObjAddr: 0xB1D0, symBinAddr: 0x35E14, symSize: 0xF4 }
  - { offset: 0x86D5D, size: 0x8, addend: 0x0, symName: __RNcNtNtNtCs5AlOhPCr03V_3syn4expr4Expr5Async0B7_, symObjAddr: 0xB330, symBinAddr: 0x35F74, symSize: 0x3C }
  - { offset: 0x86D8C, size: 0x8, addend: 0x0, symName: __RNcNtNtNtCs5AlOhPCr03V_3syn4expr4Expr5Block0B7_, symObjAddr: 0xB36C, symBinAddr: 0x35FB0, symSize: 0x40 }
  - { offset: 0x86DBB, size: 0x8, addend: 0x0, symName: __RNcNtNtNtCs5AlOhPCr03V_3syn4expr4Expr3Box0B7_, symObjAddr: 0xB3AC, symBinAddr: 0x35FF0, symSize: 0x3C }
  - { offset: 0x86DEA, size: 0x8, addend: 0x0, symName: __RNcNtNtNtCs5AlOhPCr03V_3syn4expr4Expr5Break0B7_, symObjAddr: 0xB3E8, symBinAddr: 0x3602C, symSize: 0x40 }
  - { offset: 0x86E19, size: 0x8, addend: 0x0, symName: __RNcNtNtNtCs5AlOhPCr03V_3syn4expr4Expr7Closure0B7_, symObjAddr: 0xB428, symBinAddr: 0x3606C, symSize: 0x40 }
  - { offset: 0x86E48, size: 0x8, addend: 0x0, symName: __RNcNtNtNtCs5AlOhPCr03V_3syn4expr4Expr8Continue0B7_, symObjAddr: 0xB468, symBinAddr: 0x360AC, symSize: 0x40 }
  - { offset: 0x86E77, size: 0x8, addend: 0x0, symName: __RNcNtNtNtCs5AlOhPCr03V_3syn4expr4Expr7ForLoop0B7_, symObjAddr: 0xB4A8, symBinAddr: 0x360EC, symSize: 0x30 }
  - { offset: 0x86EA6, size: 0x8, addend: 0x0, symName: __RNcNtNtNtCs5AlOhPCr03V_3syn4expr4Expr5Group0B7_, symObjAddr: 0xB4D8, symBinAddr: 0x3611C, symSize: 0x3C }
  - { offset: 0x86ED5, size: 0x8, addend: 0x0, symName: __RNcNtNtNtCs5AlOhPCr03V_3syn4expr4Expr2If0B7_, symObjAddr: 0xB514, symBinAddr: 0x36158, symSize: 0x40 }
  - { offset: 0x86F04, size: 0x8, addend: 0x0, symName: __RNcNtNtNtCs5AlOhPCr03V_3syn4expr4Expr3Let0B7_, symObjAddr: 0xB554, symBinAddr: 0x36198, symSize: 0x40 }
  - { offset: 0x86F33, size: 0x8, addend: 0x0, symName: __RNcNtNtNtCs5AlOhPCr03V_3syn4expr4Expr3Lit0B7_, symObjAddr: 0xB594, symBinAddr: 0x361D8, symSize: 0x40 }
  - { offset: 0x86F62, size: 0x8, addend: 0x0, symName: __RNcNtNtNtCs5AlOhPCr03V_3syn4expr4Expr4Loop0B7_, symObjAddr: 0xB5D4, symBinAddr: 0x36218, symSize: 0x40 }
  - { offset: 0x86F91, size: 0x8, addend: 0x0, symName: __RNcNtNtNtCs5AlOhPCr03V_3syn4expr4Expr5Match0B7_, symObjAddr: 0xB614, symBinAddr: 0x36258, symSize: 0x40 }
  - { offset: 0x86FC0, size: 0x8, addend: 0x0, symName: __RNcNtNtNtCs5AlOhPCr03V_3syn4expr4Expr5Range0B7_, symObjAddr: 0xB654, symBinAddr: 0x36298, symSize: 0x40 }
  - { offset: 0x86FEF, size: 0x8, addend: 0x0, symName: __RNcNtNtNtCs5AlOhPCr03V_3syn4expr4Expr6Return0B7_, symObjAddr: 0xB694, symBinAddr: 0x362D8, symSize: 0x40 }
  - { offset: 0x8701E, size: 0x8, addend: 0x0, symName: __RNcNtNtNtCs5AlOhPCr03V_3syn4expr4Expr8TryBlock0B7_, symObjAddr: 0xB6D4, symBinAddr: 0x36318, symSize: 0x40 }
  - { offset: 0x8704D, size: 0x8, addend: 0x0, symName: __RNcNtNtNtCs5AlOhPCr03V_3syn4expr4Expr5Unary0B7_, symObjAddr: 0xB714, symBinAddr: 0x36358, symSize: 0x40 }
  - { offset: 0x8707C, size: 0x8, addend: 0x0, symName: __RNcNtNtNtCs5AlOhPCr03V_3syn4expr4Expr6Unsafe0B7_, symObjAddr: 0xB754, symBinAddr: 0x36398, symSize: 0x40 }
  - { offset: 0x870AB, size: 0x8, addend: 0x0, symName: __RNcNtNtNtCs5AlOhPCr03V_3syn4expr4Expr8Verbatim0B7_, symObjAddr: 0xB794, symBinAddr: 0x363D8, symSize: 0x24 }
  - { offset: 0x870D9, size: 0x8, addend: 0x0, symName: __RNcNtNtNtCs5AlOhPCr03V_3syn4expr4Expr5While0B7_, symObjAddr: 0xB7B8, symBinAddr: 0x363FC, symSize: 0x40 }
  - { offset: 0x87108, size: 0x8, addend: 0x0, symName: __RNcNtNtNtCs5AlOhPCr03V_3syn4expr4Expr5Yield0B7_, symObjAddr: 0xB7F8, symBinAddr: 0x3643C, symSize: 0x40 }
  - { offset: 0x87138, size: 0x8, addend: 0x0, symName: __RNvXsO_NtCs5AlOhPCr03V_3syn4exprNtB5_4ExprNtNtCs2cqEZUIJimJ_5quote9to_tokens8ToTokens9to_tokens, symObjAddr: 0xC440, symBinAddr: 0x3647C, symSize: 0x4DC }
  - { offset: 0x87621, size: 0x8, addend: 0x0, symName: __RNcNtNtNtCs5AlOhPCr03V_3syn4expr6Member5Named0B7_, symObjAddr: 0xC91C, symBinAddr: 0x36958, symSize: 0x18 }
  - { offset: 0x87651, size: 0x8, addend: 0x0, symName: __RNcNtNtNtCs5AlOhPCr03V_3syn4expr6Member7Unnamed0B7_, symObjAddr: 0xC934, symBinAddr: 0x36970, symSize: 0x28 }
  - { offset: 0x87687, size: 0x8, addend: 0x0, symName: __RNcNtNtNtCs5AlOhPCr03V_3syn4expr21GenericMethodArgument4Type0B7_, symObjAddr: 0xC95C, symBinAddr: 0x36998, symSize: 0x30 }
  - { offset: 0x876BE, size: 0x8, addend: 0x0, symName: __RNcNtNtNtCs5AlOhPCr03V_3syn4expr11RangeLimits8HalfOpen0B7_, symObjAddr: 0xC98C, symBinAddr: 0x369C8, symSize: 0x24 }
  - { offset: 0x876EE, size: 0x8, addend: 0x0, symName: __RNcNtNtNtCs5AlOhPCr03V_3syn4expr11RangeLimits6Closed0B7_, symObjAddr: 0xC9B0, symBinAddr: 0x369EC, symSize: 0x20 }
  - { offset: 0x8CDE0, size: 0x8, addend: 0x0, symName: __RNvMNtCsfvfooZQ3Axs_4core5sliceSNtNtCs5AlOhPCr03V_3syn4expr3Arm4iterBy_, symObjAddr: 0xD9C, symBinAddr: 0x2E250, symSize: 0x28 }
  - { offset: 0x8CE17, size: 0x8, addend: 0x0, symName: __RNvMNtCsfvfooZQ3Axs_4core5sliceSTNtNtCs5AlOhPCr03V_3syn4expr10FieldValueNtNtBz_5token5CommaE4iterBz_, symObjAddr: 0xDC4, symBinAddr: 0x2E278, symSize: 0x28 }
  - { offset: 0x8CE4E, size: 0x8, addend: 0x0, symName: __RNvMNtCsfvfooZQ3Axs_4core5sliceSTNtNtCs5AlOhPCr03V_3syn4expr21GenericMethodArgumentNtNtBz_5token5CommaE4iterBz_, symObjAddr: 0xDEC, symBinAddr: 0x2E2A0, symSize: 0x28 }
  - { offset: 0x8CE85, size: 0x8, addend: 0x0, symName: __RNvMNtCsfvfooZQ3Axs_4core5sliceSTNtNtCs5AlOhPCr03V_3syn4expr4ExprNtNtBz_5token5CommaE4iterBz_, symObjAddr: 0xE14, symBinAddr: 0x2E2C8, symSize: 0x28 }
  - { offset: 0x8E39E, size: 0x8, addend: 0x0, symName: __RNvXNtCs2cqEZUIJimJ_5quote9to_tokensRNtNtCs5AlOhPCr03V_3syn4expr10FieldValueNtB2_8ToTokens9to_tokensBD_, symObjAddr: 0xE3C, symBinAddr: 0x2E2F0, symSize: 0x40 }
  - { offset: 0x8E3DD, size: 0x8, addend: 0x0, symName: __RNvXNtCs2cqEZUIJimJ_5quote9to_tokensRNtNtCs5AlOhPCr03V_3syn4expr21GenericMethodArgumentNtB2_8ToTokens9to_tokensBD_, symObjAddr: 0xE7C, symBinAddr: 0x2E330, symSize: 0x40 }
  - { offset: 0x8E41C, size: 0x8, addend: 0x0, symName: __RNvXNtCs2cqEZUIJimJ_5quote9to_tokensRNtNtCs5AlOhPCr03V_3syn4expr4ExprNtB2_8ToTokens9to_tokensBD_, symObjAddr: 0xEBC, symBinAddr: 0x2E370, symSize: 0x40 }
  - { offset: 0x8E46B, size: 0x8, addend: 0x0, symName: __RNvMNtCs5AlOhPCr03V_3syn4exprNtB2_4Expr13replace_attrs, symObjAddr: 0x224C, symBinAddr: 0x2E3B0, symSize: 0x688 }
  - { offset: 0x8E510, size: 0x8, addend: 0x0, symName: __RNvMs0_NtNtCs5AlOhPCr03V_3syn4expr7parsingNtB7_4Expr25parse_without_eager_brace, symObjAddr: 0x2E54, symBinAddr: 0x2EB70, symSize: 0x3C }
  - { offset: 0x8E540, size: 0x8, addend: 0x0, symName: __RNvMsF_NtNtCs5AlOhPCr03V_3syn4expr7parsingNtB7_6Member8is_named, symObjAddr: 0x9B30, symBinAddr: 0x34774, symSize: 0x6C }
  - { offset: 0x8E563, size: 0x8, addend: 0x0, symName: __RNvMs_NtNtCs5AlOhPCr03V_3syn3pat7parsingNtNtB8_4expr6Member10is_unnamed, symObjAddr: 0xB2C4, symBinAddr: 0x35F08, symSize: 0x6C }
  - { offset: 0x90847, size: 0x8, addend: 0x0, symName: __RNCNvMNtCs5AlOhPCr03V_3syn10punctuatedINtB4_10PunctuatedNtNtB6_4path11PathSegmentNtNtB6_5token6Colon2E10into_pairs0B6_, symObjAddr: 0x4748, symBinAddr: 0x39770, symSize: 0x98 }
  - { offset: 0x9089C, size: 0x8, addend: 0x0, symName: __RNCNvMNtCs5AlOhPCr03V_3syn10punctuatedINtB4_10PunctuatedNtNtB6_4item5FnArgNtNtB6_5token5CommaE3pop0B6_, symObjAddr: 0x90F8, symBinAddr: 0x3DD84, symSize: 0xC0 }
  - { offset: 0x908E4, size: 0x8, addend: 0x0, symName: __RNCNvMNtCs5AlOhPCr03V_3syn10punctuatedINtB4_10PunctuatedNtNtB6_4item5FnArgNtNtB6_5token5CommaE3pops_0B6_, symObjAddr: 0x91B8, symBinAddr: 0x3DE44, symSize: 0x74 }
  - { offset: 0x909F4, size: 0x8, addend: 0x0, symName: __RINvXs7_NtCs5AlOhPCr03V_3syn10punctuatedINtB6_10PunctuatedNtNtB8_4path11PathSegmentNtNtB8_5token6Colon2EINtNtNtNtCsfvfooZQ3Axs_4core4iter6traits7collect6ExtendINtB6_4PairBU_B1j_EE6extendINtB6_9IntoPairsBU_B1j_EEB8_, symObjAddr: 0xE248, symBinAddr: 0x3FA40, symSize: 0x440 }
  - { offset: 0x90AF2, size: 0x8, addend: 0x0, symName: __RNvXs8_NtCs5AlOhPCr03V_3syn10punctuatedINtB5_10PunctuatedNtNtB7_8generics14TypeParamBoundNtNtB7_5token3AddENtNtNtNtCsfvfooZQ3Axs_4core4iter6traits7collect12IntoIterator9into_iterB7_, symObjAddr: 0xEE24, symBinAddr: 0x3FE80, symSize: 0x1C0 }
  - { offset: 0x90B4E, size: 0x8, addend: 0x0, symName: __RNCNvXs8_NtCs5AlOhPCr03V_3syn10punctuatedINtB7_10PunctuatedNtNtB9_8generics14TypeParamBoundNtNtB9_5token3AddENtNtNtNtCsfvfooZQ3Axs_4core4iter6traits7collect12IntoIterator9into_iter0B9_, symObjAddr: 0xF06C, symBinAddr: 0x40040, symSize: 0x44 }
  - { offset: 0x90B9A, size: 0x8, addend: 0x0, symName: __RNCNvXs8_NtCs5AlOhPCr03V_3syn10punctuatedINtB7_10PunctuatedNtNtB9_8generics14TypeParamBoundNtNtB9_5token3AddENtNtNtNtCsfvfooZQ3Axs_4core4iter6traits7collect12IntoIterator9into_iters_0B9_, symObjAddr: 0xF1E0, symBinAddr: 0x40084, symSize: 0x98 }
  - { offset: 0x90BFA, size: 0x8, addend: 0x0, symName: __RNvXs9_NtCs5AlOhPCr03V_3syn10punctuatedRINtB5_10PunctuatedNtNtB7_4path11PathSegmentNtNtB7_5token6Colon2ENtNtNtNtCsfvfooZQ3Axs_4core4iter6traits7collect12IntoIterator9into_iterB7_, symObjAddr: 0xF278, symBinAddr: 0x4011C, symSize: 0x34 }
  - { offset: 0x90C3A, size: 0x8, addend: 0x0, symName: __RNvXs9_NtCs5AlOhPCr03V_3syn10punctuatedRINtB5_10PunctuatedNtNtB7_8generics14TypeParamBoundNtNtB7_5token3AddENtNtNtNtCsfvfooZQ3Axs_4core4iter6traits7collect12IntoIterator9into_iterB7_, symObjAddr: 0xF2AC, symBinAddr: 0x40150, symSize: 0x34 }
  - { offset: 0x90C80, size: 0x8, addend: 0x0, symName: __RNvXsc_NtCs5AlOhPCr03V_3syn10punctuatedINtB5_5PairsNtNtB7_2ty4TypeNtNtB7_5token5CommaENtNtNtNtCsfvfooZQ3Axs_4core4iter6traits8iterator8Iterator4nextB7_, symObjAddr: 0xF2E0, symBinAddr: 0x40184, symSize: 0x5C }
  - { offset: 0x90CC0, size: 0x8, addend: 0x0, symName: __RNvXsc_NtCs5AlOhPCr03V_3syn10punctuatedINtB5_5PairsNtNtB7_2ty9BareFnArgNtNtB7_5token5CommaENtNtNtNtCsfvfooZQ3Axs_4core4iter6traits8iterator8Iterator4nextB7_, symObjAddr: 0xF33C, symBinAddr: 0x401E0, symSize: 0x5C }
  - { offset: 0x90D00, size: 0x8, addend: 0x0, symName: __RNvXsc_NtCs5AlOhPCr03V_3syn10punctuatedINtB5_5PairsNtNtB7_3pat3PatNtNtB7_5token2OrENtNtNtNtCsfvfooZQ3Axs_4core4iter6traits8iterator8Iterator4nextB7_, symObjAddr: 0xF398, symBinAddr: 0x4023C, symSize: 0x5C }
  - { offset: 0x90D40, size: 0x8, addend: 0x0, symName: __RNvXsc_NtCs5AlOhPCr03V_3syn10punctuatedINtB5_5PairsNtNtB7_3pat3PatNtNtB7_5token5CommaENtNtNtNtCsfvfooZQ3Axs_4core4iter6traits8iterator8Iterator4nextB7_, symObjAddr: 0xF3F4, symBinAddr: 0x40298, symSize: 0x5C }
  - { offset: 0x90D80, size: 0x8, addend: 0x0, symName: __RNvXsc_NtCs5AlOhPCr03V_3syn10punctuatedINtB5_5PairsNtNtB7_3pat8FieldPatNtNtB7_5token5CommaENtNtNtNtCsfvfooZQ3Axs_4core4iter6traits8iterator8Iterator4nextB7_, symObjAddr: 0xF450, symBinAddr: 0x402F4, symSize: 0x5C }
  - { offset: 0x90DC0, size: 0x8, addend: 0x0, symName: __RNvXsc_NtCs5AlOhPCr03V_3syn10punctuatedINtB5_5PairsNtNtB7_4data5FieldNtNtB7_5token5CommaENtNtNtNtCsfvfooZQ3Axs_4core4iter6traits8iterator8Iterator4nextB7_, symObjAddr: 0xF508, symBinAddr: 0x40350, symSize: 0x5C }
  - { offset: 0x90E00, size: 0x8, addend: 0x0, symName: __RNvXsc_NtCs5AlOhPCr03V_3syn10punctuatedINtB5_5PairsNtNtB7_4data7VariantNtNtB7_5token5CommaENtNtNtNtCsfvfooZQ3Axs_4core4iter6traits8iterator8Iterator4nextB7_, symObjAddr: 0xF564, symBinAddr: 0x403AC, symSize: 0x5C }
  - { offset: 0x90E40, size: 0x8, addend: 0x0, symName: __RNvXsc_NtCs5AlOhPCr03V_3syn10punctuatedINtB5_5PairsNtNtB7_4expr10FieldValueNtNtB7_5token5CommaENtNtNtNtCsfvfooZQ3Axs_4core4iter6traits8iterator8Iterator4nextB7_, symObjAddr: 0xF5C0, symBinAddr: 0x40408, symSize: 0x5C }
  - { offset: 0x90E80, size: 0x8, addend: 0x0, symName: __RNvXsc_NtCs5AlOhPCr03V_3syn10punctuatedINtB5_5PairsNtNtB7_4expr21GenericMethodArgumentNtNtB7_5token5CommaENtNtNtNtCsfvfooZQ3Axs_4core4iter6traits8iterator8Iterator4nextB7_, symObjAddr: 0xF61C, symBinAddr: 0x40464, symSize: 0x5C }
  - { offset: 0x90EC0, size: 0x8, addend: 0x0, symName: __RNvXsc_NtCs5AlOhPCr03V_3syn10punctuatedINtB5_5PairsNtNtB7_4expr4ExprNtNtB7_5token5CommaENtNtNtNtCsfvfooZQ3Axs_4core4iter6traits8iterator8Iterator4nextB7_, symObjAddr: 0xF678, symBinAddr: 0x404C0, symSize: 0x5C }
  - { offset: 0x90F00, size: 0x8, addend: 0x0, symName: __RNvXsc_NtCs5AlOhPCr03V_3syn10punctuatedINtB5_5PairsNtNtB7_4item5FnArgNtNtB7_5token5CommaENtNtNtNtCsfvfooZQ3Axs_4core4iter6traits8iterator8Iterator4nextB7_, symObjAddr: 0xF6D4, symBinAddr: 0x4051C, symSize: 0x5C }
  - { offset: 0x90F40, size: 0x8, addend: 0x0, symName: __RNvXsc_NtCs5AlOhPCr03V_3syn10punctuatedINtB5_5PairsNtNtB7_4item7UseTreeNtNtB7_5token5CommaENtNtNtNtCsfvfooZQ3Axs_4core4iter6traits8iterator8Iterator4nextB7_, symObjAddr: 0xF730, symBinAddr: 0x40578, symSize: 0x5C }
  - { offset: 0x90F80, size: 0x8, addend: 0x0, symName: __RNvXsc_NtCs5AlOhPCr03V_3syn10punctuatedINtB5_5PairsNtNtB7_4path11PathSegmentNtNtB7_5token6Colon2ENtNtNtNtCsfvfooZQ3Axs_4core4iter6traits8iterator8Iterator4nextB7_, symObjAddr: 0xF78C, symBinAddr: 0x405D4, symSize: 0x5C }
  - { offset: 0x90FC0, size: 0x8, addend: 0x0, symName: __RNvXsc_NtCs5AlOhPCr03V_3syn10punctuatedINtB5_5PairsNtNtB7_4path15GenericArgumentNtNtB7_5token5CommaENtNtNtNtCsfvfooZQ3Axs_4core4iter6traits8iterator8Iterator4nextB7_, symObjAddr: 0xF7E8, symBinAddr: 0x40630, symSize: 0x5C }
  - { offset: 0x91000, size: 0x8, addend: 0x0, symName: __RNvXsc_NtCs5AlOhPCr03V_3syn10punctuatedINtB5_5PairsNtNtB7_8generics11LifetimeDefNtNtB7_5token5CommaENtNtNtNtCsfvfooZQ3Axs_4core4iter6traits8iterator8Iterator4nextB7_, symObjAddr: 0xF844, symBinAddr: 0x4068C, symSize: 0x5C }
  - { offset: 0x91040, size: 0x8, addend: 0x0, symName: __RNvXsc_NtCs5AlOhPCr03V_3syn10punctuatedINtB5_5PairsNtNtB7_8generics12GenericParamNtNtB7_5token5CommaENtNtNtNtCsfvfooZQ3Axs_4core4iter6traits8iterator8Iterator4nextB7_, symObjAddr: 0xF8A0, symBinAddr: 0x406E8, symSize: 0x5C }
  - { offset: 0x91080, size: 0x8, addend: 0x0, symName: __RNvXsc_NtCs5AlOhPCr03V_3syn10punctuatedINtB5_5PairsNtNtB7_8generics14TypeParamBoundNtNtB7_5token3AddENtNtNtNtCsfvfooZQ3Axs_4core4iter6traits8iterator8Iterator4nextB7_, symObjAddr: 0xF8FC, symBinAddr: 0x40744, symSize: 0x5C }
  - { offset: 0x910C0, size: 0x8, addend: 0x0, symName: __RNvXsc_NtCs5AlOhPCr03V_3syn10punctuatedINtB5_5PairsNtNtB7_8generics14WherePredicateNtNtB7_5token5CommaENtNtNtNtCsfvfooZQ3Axs_4core4iter6traits8iterator8Iterator4nextB7_, symObjAddr: 0xF958, symBinAddr: 0x407A0, symSize: 0x5C }
  - { offset: 0x91100, size: 0x8, addend: 0x0, symName: __RNvXsc_NtCs5AlOhPCr03V_3syn10punctuatedINtB5_5PairsNtNtB7_8lifetime8LifetimeNtNtB7_5token3AddENtNtNtNtCsfvfooZQ3Axs_4core4iter6traits8iterator8Iterator4nextB7_, symObjAddr: 0xF9B4, symBinAddr: 0x407FC, symSize: 0x5C }
  - { offset: 0x91145, size: 0x8, addend: 0x0, symName: __RNCNvXsc_NtCs5AlOhPCr03V_3syn10punctuatedINtB7_5PairsNtNtB9_2ty4TypeNtNtB9_5token5CommaENtNtNtNtCsfvfooZQ3Axs_4core4iter6traits8iterator8Iterator4next0B9_, symObjAddr: 0xFA10, symBinAddr: 0x40858, symSize: 0x40 }
  - { offset: 0x911BA, size: 0x8, addend: 0x0, symName: __RNCNvXsc_NtCs5AlOhPCr03V_3syn10punctuatedINtB7_5PairsNtNtB9_2ty9BareFnArgNtNtB9_5token5CommaENtNtNtNtCsfvfooZQ3Axs_4core4iter6traits8iterator8Iterator4next0B9_, symObjAddr: 0xFA50, symBinAddr: 0x40898, symSize: 0x40 }
  - { offset: 0x9122F, size: 0x8, addend: 0x0, symName: __RNCNvXsc_NtCs5AlOhPCr03V_3syn10punctuatedINtB7_5PairsNtNtB9_3pat3PatNtNtB9_5token2OrENtNtNtNtCsfvfooZQ3Axs_4core4iter6traits8iterator8Iterator4next0B9_, symObjAddr: 0xFA90, symBinAddr: 0x408D8, symSize: 0x40 }
  - { offset: 0x912A4, size: 0x8, addend: 0x0, symName: __RNCNvXsc_NtCs5AlOhPCr03V_3syn10punctuatedINtB7_5PairsNtNtB9_3pat3PatNtNtB9_5token5CommaENtNtNtNtCsfvfooZQ3Axs_4core4iter6traits8iterator8Iterator4next0B9_, symObjAddr: 0xFAD0, symBinAddr: 0x40918, symSize: 0x40 }
  - { offset: 0x91319, size: 0x8, addend: 0x0, symName: __RNCNvXsc_NtCs5AlOhPCr03V_3syn10punctuatedINtB7_5PairsNtNtB9_3pat8FieldPatNtNtB9_5token5CommaENtNtNtNtCsfvfooZQ3Axs_4core4iter6traits8iterator8Iterator4next0B9_, symObjAddr: 0xFB10, symBinAddr: 0x40958, symSize: 0x40 }
  - { offset: 0x9138E, size: 0x8, addend: 0x0, symName: __RNCNvXsc_NtCs5AlOhPCr03V_3syn10punctuatedINtB7_5PairsNtNtB9_4data5FieldNtNtB9_5token5CommaENtNtNtNtCsfvfooZQ3Axs_4core4iter6traits8iterator8Iterator4next0B9_, symObjAddr: 0xFB90, symBinAddr: 0x40998, symSize: 0x40 }
  - { offset: 0x91403, size: 0x8, addend: 0x0, symName: __RNCNvXsc_NtCs5AlOhPCr03V_3syn10punctuatedINtB7_5PairsNtNtB9_4data7VariantNtNtB9_5token5CommaENtNtNtNtCsfvfooZQ3Axs_4core4iter6traits8iterator8Iterator4next0B9_, symObjAddr: 0xFBD0, symBinAddr: 0x409D8, symSize: 0x40 }
  - { offset: 0x91478, size: 0x8, addend: 0x0, symName: __RNCNvXsc_NtCs5AlOhPCr03V_3syn10punctuatedINtB7_5PairsNtNtB9_4expr10FieldValueNtNtB9_5token5CommaENtNtNtNtCsfvfooZQ3Axs_4core4iter6traits8iterator8Iterator4next0B9_, symObjAddr: 0xFC10, symBinAddr: 0x40A18, symSize: 0x40 }
  - { offset: 0x914ED, size: 0x8, addend: 0x0, symName: __RNCNvXsc_NtCs5AlOhPCr03V_3syn10punctuatedINtB7_5PairsNtNtB9_4expr21GenericMethodArgumentNtNtB9_5token5CommaENtNtNtNtCsfvfooZQ3Axs_4core4iter6traits8iterator8Iterator4next0B9_, symObjAddr: 0xFC50, symBinAddr: 0x40A58, symSize: 0x40 }
  - { offset: 0x91562, size: 0x8, addend: 0x0, symName: __RNCNvXsc_NtCs5AlOhPCr03V_3syn10punctuatedINtB7_5PairsNtNtB9_4expr4ExprNtNtB9_5token5CommaENtNtNtNtCsfvfooZQ3Axs_4core4iter6traits8iterator8Iterator4next0B9_, symObjAddr: 0xFC90, symBinAddr: 0x40A98, symSize: 0x40 }
  - { offset: 0x915D7, size: 0x8, addend: 0x0, symName: __RNCNvXsc_NtCs5AlOhPCr03V_3syn10punctuatedINtB7_5PairsNtNtB9_4item5FnArgNtNtB9_5token5CommaENtNtNtNtCsfvfooZQ3Axs_4core4iter6traits8iterator8Iterator4next0B9_, symObjAddr: 0xFCD0, symBinAddr: 0x40AD8, symSize: 0x40 }
  - { offset: 0x9164C, size: 0x8, addend: 0x0, symName: __RNCNvXsc_NtCs5AlOhPCr03V_3syn10punctuatedINtB7_5PairsNtNtB9_4item7UseTreeNtNtB9_5token5CommaENtNtNtNtCsfvfooZQ3Axs_4core4iter6traits8iterator8Iterator4next0B9_, symObjAddr: 0xFD10, symBinAddr: 0x40B18, symSize: 0x40 }
  - { offset: 0x916C1, size: 0x8, addend: 0x0, symName: __RNCNvXsc_NtCs5AlOhPCr03V_3syn10punctuatedINtB7_5PairsNtNtB9_4path11PathSegmentNtNtB9_5token6Colon2ENtNtNtNtCsfvfooZQ3Axs_4core4iter6traits8iterator8Iterator4next0B9_, symObjAddr: 0xFD50, symBinAddr: 0x40B58, symSize: 0x40 }
  - { offset: 0x91736, size: 0x8, addend: 0x0, symName: __RNCNvXsc_NtCs5AlOhPCr03V_3syn10punctuatedINtB7_5PairsNtNtB9_4path15GenericArgumentNtNtB9_5token5CommaENtNtNtNtCsfvfooZQ3Axs_4core4iter6traits8iterator8Iterator4next0B9_, symObjAddr: 0xFD90, symBinAddr: 0x40B98, symSize: 0x40 }
  - { offset: 0x917AB, size: 0x8, addend: 0x0, symName: __RNCNvXsc_NtCs5AlOhPCr03V_3syn10punctuatedINtB7_5PairsNtNtB9_8generics11LifetimeDefNtNtB9_5token5CommaENtNtNtNtCsfvfooZQ3Axs_4core4iter6traits8iterator8Iterator4next0B9_, symObjAddr: 0xFDD0, symBinAddr: 0x40BD8, symSize: 0x40 }
  - { offset: 0x91820, size: 0x8, addend: 0x0, symName: __RNCNvXsc_NtCs5AlOhPCr03V_3syn10punctuatedINtB7_5PairsNtNtB9_8generics12GenericParamNtNtB9_5token5CommaENtNtNtNtCsfvfooZQ3Axs_4core4iter6traits8iterator8Iterator4next0B9_, symObjAddr: 0xFE10, symBinAddr: 0x40C18, symSize: 0x40 }
  - { offset: 0x91895, size: 0x8, addend: 0x0, symName: __RNCNvXsc_NtCs5AlOhPCr03V_3syn10punctuatedINtB7_5PairsNtNtB9_8generics14TypeParamBoundNtNtB9_5token3AddENtNtNtNtCsfvfooZQ3Axs_4core4iter6traits8iterator8Iterator4next0B9_, symObjAddr: 0xFE50, symBinAddr: 0x40C58, symSize: 0x40 }
  - { offset: 0x9190A, size: 0x8, addend: 0x0, symName: __RNCNvXsc_NtCs5AlOhPCr03V_3syn10punctuatedINtB7_5PairsNtNtB9_8generics14WherePredicateNtNtB9_5token5CommaENtNtNtNtCsfvfooZQ3Axs_4core4iter6traits8iterator8Iterator4next0B9_, symObjAddr: 0xFE90, symBinAddr: 0x40C98, symSize: 0x40 }
  - { offset: 0x9197F, size: 0x8, addend: 0x0, symName: __RNCNvXsc_NtCs5AlOhPCr03V_3syn10punctuatedINtB7_5PairsNtNtB9_8lifetime8LifetimeNtNtB9_5token3AddENtNtNtNtCsfvfooZQ3Axs_4core4iter6traits8iterator8Iterator4next0B9_, symObjAddr: 0xFED0, symBinAddr: 0x40CD8, symSize: 0x40 }
  - { offset: 0x919F4, size: 0x8, addend: 0x0, symName: __RNCNvXsc_NtCs5AlOhPCr03V_3syn10punctuatedINtB7_5PairsNtNtB9_2ty4TypeNtNtB9_5token5CommaENtNtNtNtCsfvfooZQ3Axs_4core4iter6traits8iterator8Iterator4nexts_0B9_, symObjAddr: 0xFF10, symBinAddr: 0x40D18, symSize: 0x48 }
  - { offset: 0x91A36, size: 0x8, addend: 0x0, symName: __RNCNvXsc_NtCs5AlOhPCr03V_3syn10punctuatedINtB7_5PairsNtNtB9_2ty9BareFnArgNtNtB9_5token5CommaENtNtNtNtCsfvfooZQ3Axs_4core4iter6traits8iterator8Iterator4nexts_0B9_, symObjAddr: 0xFF58, symBinAddr: 0x40D60, symSize: 0x48 }
  - { offset: 0x91A78, size: 0x8, addend: 0x0, symName: __RNCNvXsc_NtCs5AlOhPCr03V_3syn10punctuatedINtB7_5PairsNtNtB9_3pat3PatNtNtB9_5token2OrENtNtNtNtCsfvfooZQ3Axs_4core4iter6traits8iterator8Iterator4nexts_0B9_, symObjAddr: 0xFFA0, symBinAddr: 0x40DA8, symSize: 0x48 }
  - { offset: 0x91ABA, size: 0x8, addend: 0x0, symName: __RNCNvXsc_NtCs5AlOhPCr03V_3syn10punctuatedINtB7_5PairsNtNtB9_3pat3PatNtNtB9_5token5CommaENtNtNtNtCsfvfooZQ3Axs_4core4iter6traits8iterator8Iterator4nexts_0B9_, symObjAddr: 0xFFE8, symBinAddr: 0x40DF0, symSize: 0x48 }
  - { offset: 0x91AFC, size: 0x8, addend: 0x0, symName: __RNCNvXsc_NtCs5AlOhPCr03V_3syn10punctuatedINtB7_5PairsNtNtB9_3pat8FieldPatNtNtB9_5token5CommaENtNtNtNtCsfvfooZQ3Axs_4core4iter6traits8iterator8Iterator4nexts_0B9_, symObjAddr: 0x10030, symBinAddr: 0x40E38, symSize: 0x48 }
  - { offset: 0x91B3E, size: 0x8, addend: 0x0, symName: __RNCNvXsc_NtCs5AlOhPCr03V_3syn10punctuatedINtB7_5PairsNtNtB9_4data5FieldNtNtB9_5token5CommaENtNtNtNtCsfvfooZQ3Axs_4core4iter6traits8iterator8Iterator4nexts_0B9_, symObjAddr: 0x100C0, symBinAddr: 0x40E80, symSize: 0x48 }
  - { offset: 0x91B80, size: 0x8, addend: 0x0, symName: __RNCNvXsc_NtCs5AlOhPCr03V_3syn10punctuatedINtB7_5PairsNtNtB9_4data7VariantNtNtB9_5token5CommaENtNtNtNtCsfvfooZQ3Axs_4core4iter6traits8iterator8Iterator4nexts_0B9_, symObjAddr: 0x10108, symBinAddr: 0x40EC8, symSize: 0x48 }
  - { offset: 0x91BC2, size: 0x8, addend: 0x0, symName: __RNCNvXsc_NtCs5AlOhPCr03V_3syn10punctuatedINtB7_5PairsNtNtB9_4expr10FieldValueNtNtB9_5token5CommaENtNtNtNtCsfvfooZQ3Axs_4core4iter6traits8iterator8Iterator4nexts_0B9_, symObjAddr: 0x10150, symBinAddr: 0x40F10, symSize: 0x48 }
  - { offset: 0x91C04, size: 0x8, addend: 0x0, symName: __RNCNvXsc_NtCs5AlOhPCr03V_3syn10punctuatedINtB7_5PairsNtNtB9_4expr21GenericMethodArgumentNtNtB9_5token5CommaENtNtNtNtCsfvfooZQ3Axs_4core4iter6traits8iterator8Iterator4nexts_0B9_, symObjAddr: 0x10198, symBinAddr: 0x40F58, symSize: 0x48 }
  - { offset: 0x91C46, size: 0x8, addend: 0x0, symName: __RNCNvXsc_NtCs5AlOhPCr03V_3syn10punctuatedINtB7_5PairsNtNtB9_4expr4ExprNtNtB9_5token5CommaENtNtNtNtCsfvfooZQ3Axs_4core4iter6traits8iterator8Iterator4nexts_0B9_, symObjAddr: 0x101E0, symBinAddr: 0x40FA0, symSize: 0x48 }
  - { offset: 0x91C88, size: 0x8, addend: 0x0, symName: __RNCNvXsc_NtCs5AlOhPCr03V_3syn10punctuatedINtB7_5PairsNtNtB9_4item5FnArgNtNtB9_5token5CommaENtNtNtNtCsfvfooZQ3Axs_4core4iter6traits8iterator8Iterator4nexts_0B9_, symObjAddr: 0x10228, symBinAddr: 0x40FE8, symSize: 0x48 }
  - { offset: 0x91CCA, size: 0x8, addend: 0x0, symName: __RNCNvXsc_NtCs5AlOhPCr03V_3syn10punctuatedINtB7_5PairsNtNtB9_4item7UseTreeNtNtB9_5token5CommaENtNtNtNtCsfvfooZQ3Axs_4core4iter6traits8iterator8Iterator4nexts_0B9_, symObjAddr: 0x10270, symBinAddr: 0x41030, symSize: 0x48 }
  - { offset: 0x91D0C, size: 0x8, addend: 0x0, symName: __RNCNvXsc_NtCs5AlOhPCr03V_3syn10punctuatedINtB7_5PairsNtNtB9_4path11PathSegmentNtNtB9_5token6Colon2ENtNtNtNtCsfvfooZQ3Axs_4core4iter6traits8iterator8Iterator4nexts_0B9_, symObjAddr: 0x102B8, symBinAddr: 0x41078, symSize: 0x48 }
  - { offset: 0x91D4E, size: 0x8, addend: 0x0, symName: __RNCNvXsc_NtCs5AlOhPCr03V_3syn10punctuatedINtB7_5PairsNtNtB9_4path15GenericArgumentNtNtB9_5token5CommaENtNtNtNtCsfvfooZQ3Axs_4core4iter6traits8iterator8Iterator4nexts_0B9_, symObjAddr: 0x10300, symBinAddr: 0x410C0, symSize: 0x48 }
  - { offset: 0x91D90, size: 0x8, addend: 0x0, symName: __RNCNvXsc_NtCs5AlOhPCr03V_3syn10punctuatedINtB7_5PairsNtNtB9_8generics11LifetimeDefNtNtB9_5token5CommaENtNtNtNtCsfvfooZQ3Axs_4core4iter6traits8iterator8Iterator4nexts_0B9_, symObjAddr: 0x10348, symBinAddr: 0x41108, symSize: 0x48 }
  - { offset: 0x91DD2, size: 0x8, addend: 0x0, symName: __RNCNvXsc_NtCs5AlOhPCr03V_3syn10punctuatedINtB7_5PairsNtNtB9_8generics12GenericParamNtNtB9_5token5CommaENtNtNtNtCsfvfooZQ3Axs_4core4iter6traits8iterator8Iterator4nexts_0B9_, symObjAddr: 0x10390, symBinAddr: 0x41150, symSize: 0x48 }
  - { offset: 0x91E14, size: 0x8, addend: 0x0, symName: __RNCNvXsc_NtCs5AlOhPCr03V_3syn10punctuatedINtB7_5PairsNtNtB9_8generics14TypeParamBoundNtNtB9_5token3AddENtNtNtNtCsfvfooZQ3Axs_4core4iter6traits8iterator8Iterator4nexts_0B9_, symObjAddr: 0x103D8, symBinAddr: 0x41198, symSize: 0x48 }
  - { offset: 0x91E56, size: 0x8, addend: 0x0, symName: __RNCNvXsc_NtCs5AlOhPCr03V_3syn10punctuatedINtB7_5PairsNtNtB9_8generics14WherePredicateNtNtB9_5token5CommaENtNtNtNtCsfvfooZQ3Axs_4core4iter6traits8iterator8Iterator4nexts_0B9_, symObjAddr: 0x10420, symBinAddr: 0x411E0, symSize: 0x48 }
  - { offset: 0x91E98, size: 0x8, addend: 0x0, symName: __RNCNvXsc_NtCs5AlOhPCr03V_3syn10punctuatedINtB7_5PairsNtNtB9_8lifetime8LifetimeNtNtB9_5token3AddENtNtNtNtCsfvfooZQ3Axs_4core4iter6traits8iterator8Iterator4nexts_0B9_, symObjAddr: 0x10468, symBinAddr: 0x41228, symSize: 0x48 }
  - { offset: 0x91F66, size: 0x8, addend: 0x0, symName: __RNvXsg_NtCs5AlOhPCr03V_3syn10punctuatedINtB5_8PairsMutNtNtB7_4path11PathSegmentNtNtB7_5token6Colon2ENtNtNtNtCsfvfooZQ3Axs_4core4iter6traits8iterator8Iterator4nextB7_, symObjAddr: 0x104B0, symBinAddr: 0x41270, symSize: 0x5C }
  - { offset: 0x91FAB, size: 0x8, addend: 0x0, symName: __RNCNvXsg_NtCs5AlOhPCr03V_3syn10punctuatedINtB7_8PairsMutNtNtB9_4path11PathSegmentNtNtB9_5token6Colon2ENtNtNtNtCsfvfooZQ3Axs_4core4iter6traits8iterator8Iterator4next0B9_, symObjAddr: 0x1050C, symBinAddr: 0x412CC, symSize: 0x40 }
  - { offset: 0x92020, size: 0x8, addend: 0x0, symName: __RNCNvXsg_NtCs5AlOhPCr03V_3syn10punctuatedINtB7_8PairsMutNtNtB9_4path11PathSegmentNtNtB9_5token6Colon2ENtNtNtNtCsfvfooZQ3Axs_4core4iter6traits8iterator8Iterator4nexts_0B9_, symObjAddr: 0x1054C, symBinAddr: 0x4130C, symSize: 0x48 }
  - { offset: 0x92070, size: 0x8, addend: 0x0, symName: __RNvXsj_NtCs5AlOhPCr03V_3syn10punctuatedINtB5_9IntoPairsNtNtB7_4path11PathSegmentNtNtB7_5token6Colon2ENtNtNtNtCsfvfooZQ3Axs_4core4iter6traits8iterator8Iterator4nextB7_, symObjAddr: 0x10594, symBinAddr: 0x41354, symSize: 0x74 }
  - { offset: 0x920B5, size: 0x8, addend: 0x0, symName: __RNCNvXsj_NtCs5AlOhPCr03V_3syn10punctuatedINtB7_9IntoPairsNtNtB9_4path11PathSegmentNtNtB9_5token6Colon2ENtNtNtNtCsfvfooZQ3Axs_4core4iter6traits8iterator8Iterator4next0B9_, symObjAddr: 0x10608, symBinAddr: 0x413C8, symSize: 0x74 }
  - { offset: 0x92123, size: 0x8, addend: 0x0, symName: __RNCNvXsj_NtCs5AlOhPCr03V_3syn10punctuatedINtB7_9IntoPairsNtNtB9_4path11PathSegmentNtNtB9_5token6Colon2ENtNtNtNtCsfvfooZQ3Axs_4core4iter6traits8iterator8Iterator4nexts_0B9_, symObjAddr: 0x1067C, symBinAddr: 0x4143C, symSize: 0x50 }
  - { offset: 0x92173, size: 0x8, addend: 0x0, symName: __RNvXsn_NtCs5AlOhPCr03V_3syn10punctuatedINtB5_8IntoIterNtNtB7_8generics14TypeParamBoundENtNtNtNtCsfvfooZQ3Axs_4core4iter6traits8iterator8Iterator4nextB7_, symObjAddr: 0x106CC, symBinAddr: 0x4148C, symSize: 0x34 }
  - { offset: 0x921B0, size: 0x8, addend: 0x0, symName: __RNvXst_NtCs5AlOhPCr03V_3syn10punctuatedINtB5_4IterNtNtB7_4path11PathSegmentENtNtNtNtCsfvfooZQ3Axs_4core4iter6traits8iterator8Iterator4nextB7_, symObjAddr: 0x107B0, symBinAddr: 0x414C0, symSize: 0x48 }
  - { offset: 0x921E7, size: 0x8, addend: 0x0, symName: __RNvXst_NtCs5AlOhPCr03V_3syn10punctuatedINtB5_4IterNtNtB7_8generics14TypeParamBoundENtNtNtNtCsfvfooZQ3Axs_4core4iter6traits8iterator8Iterator4nextB7_, symObjAddr: 0x10840, symBinAddr: 0x41508, symSize: 0x48 }
  - { offset: 0x92224, size: 0x8, addend: 0x0, symName: __RNvXsu_NtCs5AlOhPCr03V_3syn10punctuatedINtB5_4IterNtNtB7_4path11PathSegmentENtNtNtNtCsfvfooZQ3Axs_4core4iter6traits12double_ended19DoubleEndedIterator9next_backB7_, symObjAddr: 0x10888, symBinAddr: 0x41550, symSize: 0x48 }
  - { offset: 0x92261, size: 0x8, addend: 0x0, symName: __RNvXsw_NtCs5AlOhPCr03V_3syn10punctuatedINtB5_11PrivateIterNtNtB7_4path11PathSegmentNtNtB7_5token6Colon2ENtNtNtNtCsfvfooZQ3Axs_4core4iter6traits8iterator8Iterator4nextB7_, symObjAddr: 0x10960, symBinAddr: 0x41598, symSize: 0x48 }
  - { offset: 0x922A1, size: 0x8, addend: 0x0, symName: __RNvXsw_NtCs5AlOhPCr03V_3syn10punctuatedINtB5_11PrivateIterNtNtB7_8generics14TypeParamBoundNtNtB7_5token3AddENtNtNtNtCsfvfooZQ3Axs_4core4iter6traits8iterator8Iterator4nextB7_, symObjAddr: 0x109F0, symBinAddr: 0x415E0, symSize: 0x48 }
  - { offset: 0x922E6, size: 0x8, addend: 0x0, symName: __RNCNvXsw_NtCs5AlOhPCr03V_3syn10punctuatedINtB7_11PrivateIterNtNtB9_4path11PathSegmentNtNtB9_5token6Colon2ENtNtNtNtCsfvfooZQ3Axs_4core4iter6traits8iterator8Iterator4next0B9_, symObjAddr: 0x10A80, symBinAddr: 0x41628, symSize: 0x24 }
  - { offset: 0x92331, size: 0x8, addend: 0x0, symName: __RNCNvXsw_NtCs5AlOhPCr03V_3syn10punctuatedINtB7_11PrivateIterNtNtB9_8generics14TypeParamBoundNtNtB9_5token3AddENtNtNtNtCsfvfooZQ3Axs_4core4iter6traits8iterator8Iterator4next0B9_, symObjAddr: 0x10AC8, symBinAddr: 0x4164C, symSize: 0x24 }
  - { offset: 0x9237C, size: 0x8, addend: 0x0, symName: __RNCNvXsw_NtCs5AlOhPCr03V_3syn10punctuatedINtB7_11PrivateIterNtNtB9_4path11PathSegmentNtNtB9_5token6Colon2ENtNtNtNtCsfvfooZQ3Axs_4core4iter6traits8iterator8Iterator4nexts_0B9_, symObjAddr: 0x10B64, symBinAddr: 0x41670, symSize: 0x3C }
  - { offset: 0x923BE, size: 0x8, addend: 0x0, symName: __RNCNvXsw_NtCs5AlOhPCr03V_3syn10punctuatedINtB7_11PrivateIterNtNtB9_8generics14TypeParamBoundNtNtB9_5token3AddENtNtNtNtCsfvfooZQ3Axs_4core4iter6traits8iterator8Iterator4nexts_0B9_, symObjAddr: 0x10BDC, symBinAddr: 0x416AC, symSize: 0x3C }
  - { offset: 0x92415, size: 0x8, addend: 0x0, symName: __RNvXsx_NtCs5AlOhPCr03V_3syn10punctuatedINtB5_11PrivateIterNtNtB7_4path11PathSegmentNtNtB7_5token6Colon2ENtNtNtNtCsfvfooZQ3Axs_4core4iter6traits12double_ended19DoubleEndedIterator9next_backB7_, symObjAddr: 0x10CA8, symBinAddr: 0x416E8, symSize: 0x48 }
  - { offset: 0x92455, size: 0x8, addend: 0x0, symName: __RNvXsx_NtCs5AlOhPCr03V_3syn10punctuatedINtB5_11PrivateIterNtNtB7_8generics14TypeParamBoundNtNtB7_5token3AddENtNtNtNtCsfvfooZQ3Axs_4core4iter6traits12double_ended19DoubleEndedIterator9next_backB7_, symObjAddr: 0x10D38, symBinAddr: 0x41730, symSize: 0x48 }
  - { offset: 0x9249A, size: 0x8, addend: 0x0, symName: __RNCNvXsx_NtCs5AlOhPCr03V_3syn10punctuatedINtB7_11PrivateIterNtNtB9_4path11PathSegmentNtNtB9_5token6Colon2ENtNtNtNtCsfvfooZQ3Axs_4core4iter6traits12double_ended19DoubleEndedIterator9next_back0B9_, symObjAddr: 0x10DF8, symBinAddr: 0x41778, symSize: 0x3C }
  - { offset: 0x924DC, size: 0x8, addend: 0x0, symName: __RNCNvXsx_NtCs5AlOhPCr03V_3syn10punctuatedINtB7_11PrivateIterNtNtB9_8generics14TypeParamBoundNtNtB9_5token3AddENtNtNtNtCsfvfooZQ3Axs_4core4iter6traits12double_ended19DoubleEndedIterator9next_back0B9_, symObjAddr: 0x10E70, symBinAddr: 0x417B4, symSize: 0x3C }
  - { offset: 0x92523, size: 0x8, addend: 0x0, symName: __RNCNCNvXsx_NtCs5AlOhPCr03V_3syn10punctuatedINtB9_11PrivateIterNtNtBb_4path11PathSegmentNtNtBb_5token6Colon2ENtNtNtNtCsfvfooZQ3Axs_4core4iter6traits12double_ended19DoubleEndedIterator9next_back00Bb_, symObjAddr: 0x10EF4, symBinAddr: 0x417F0, symSize: 0x24 }
  - { offset: 0x9256E, size: 0x8, addend: 0x0, symName: __RNCNCNvXsx_NtCs5AlOhPCr03V_3syn10punctuatedINtB9_11PrivateIterNtNtBb_8generics14TypeParamBoundNtNtBb_5token3AddENtNtNtNtCsfvfooZQ3Axs_4core4iter6traits12double_ended19DoubleEndedIterator9next_back00Bb_, symObjAddr: 0x10F3C, symBinAddr: 0x41814, symSize: 0x24 }
  - { offset: 0x925CF, size: 0x8, addend: 0x0, symName: __RNvXsy_NtCs5AlOhPCr03V_3syn10punctuatedINtB5_11PrivateIterNtNtB7_4path11PathSegmentNtNtB7_5token6Colon2ENtNtNtNtCsfvfooZQ3Axs_4core4iter6traits10exact_size17ExactSizeIterator3lenB7_, symObjAddr: 0x11088, symBinAddr: 0x41838, symSize: 0x94 }
  - { offset: 0x92643, size: 0x8, addend: 0x0, symName: __RNvXsy_NtCs5AlOhPCr03V_3syn10punctuatedINtB5_11PrivateIterNtNtB7_8generics14TypeParamBoundNtNtB7_5token3AddENtNtNtNtCsfvfooZQ3Axs_4core4iter6traits10exact_size17ExactSizeIterator3lenB7_, symObjAddr: 0x111B0, symBinAddr: 0x418CC, symSize: 0x94 }
  - { offset: 0x926BD, size: 0x8, addend: 0x0, symName: __RNvXsz_NtCs5AlOhPCr03V_3syn10punctuatedINtB5_11PrivateIterNtNtB7_4path11PathSegmentNtNtB7_5token6Colon2ENtNtCsfvfooZQ3Axs_4core5clone5Clone5cloneB7_, symObjAddr: 0x11314, symBinAddr: 0x41960, symSize: 0x68 }
  - { offset: 0x926FD, size: 0x8, addend: 0x0, symName: __RNvXsz_NtCs5AlOhPCr03V_3syn10punctuatedINtB5_11PrivateIterNtNtB7_8generics14TypeParamBoundNtNtB7_5token3AddENtNtCsfvfooZQ3Axs_4core5clone5Clone5cloneB7_, symObjAddr: 0x113E4, symBinAddr: 0x419C8, symSize: 0x68 }
  - { offset: 0x92743, size: 0x8, addend: 0x0, symName: __RNvXsA_NtCs5AlOhPCr03V_3syn10punctuatedINtB5_11PrivateIterNtNtB7_4path11PathSegmentNtNtB7_5token6Colon2EINtB5_9IterTraitBU_E9clone_boxB7_, symObjAddr: 0x11574, symBinAddr: 0x41A30, symSize: 0x94 }
  - { offset: 0x927A1, size: 0x8, addend: 0x0, symName: __RNvXsA_NtCs5AlOhPCr03V_3syn10punctuatedINtB5_11PrivateIterNtNtB7_8generics14TypeParamBoundNtNtB7_5token3AddEINtB5_9IterTraitBU_E9clone_boxB7_, symObjAddr: 0x1169C, symBinAddr: 0x41AC4, symSize: 0x94 }
  - { offset: 0x92805, size: 0x8, addend: 0x0, symName: __RNvXsD_NtCs5AlOhPCr03V_3syn10punctuatedINtB5_7IterMutNtNtB7_4item5FnArgENtNtNtNtCsfvfooZQ3Axs_4core4iter6traits12double_ended19DoubleEndedIterator9next_backB7_, symObjAddr: 0x117E0, symBinAddr: 0x41B58, symSize: 0x48 }
  - { offset: 0x9283C, size: 0x8, addend: 0x0, symName: __RNvXsD_NtCs5AlOhPCr03V_3syn10punctuatedINtB5_7IterMutNtNtB7_4path11PathSegmentENtNtNtNtCsfvfooZQ3Axs_4core4iter6traits12double_ended19DoubleEndedIterator9next_backB7_, symObjAddr: 0x11828, symBinAddr: 0x41BA0, symSize: 0x48 }
  - { offset: 0x92879, size: 0x8, addend: 0x0, symName: __RNvXsF_NtCs5AlOhPCr03V_3syn10punctuatedINtB5_14PrivateIterMutNtNtB7_4item5FnArgNtNtB7_5token5CommaENtNtNtNtCsfvfooZQ3Axs_4core4iter6traits8iterator8Iterator4nextB7_, symObjAddr: 0x118B8, symBinAddr: 0x41BE8, symSize: 0x48 }
  - { offset: 0x928B9, size: 0x8, addend: 0x0, symName: __RNvXsF_NtCs5AlOhPCr03V_3syn10punctuatedINtB5_14PrivateIterMutNtNtB7_4path11PathSegmentNtNtB7_5token6Colon2ENtNtNtNtCsfvfooZQ3Axs_4core4iter6traits8iterator8Iterator4nextB7_, symObjAddr: 0x11900, symBinAddr: 0x41C30, symSize: 0x48 }
  - { offset: 0x928FE, size: 0x8, addend: 0x0, symName: __RNCNvXsF_NtCs5AlOhPCr03V_3syn10punctuatedINtB7_14PrivateIterMutNtNtB9_4item5FnArgNtNtB9_5token5CommaENtNtNtNtCsfvfooZQ3Axs_4core4iter6traits8iterator8Iterator4next0B9_, symObjAddr: 0x119B4, symBinAddr: 0x41C78, symSize: 0x24 }
  - { offset: 0x92949, size: 0x8, addend: 0x0, symName: __RNCNvXsF_NtCs5AlOhPCr03V_3syn10punctuatedINtB7_14PrivateIterMutNtNtB9_4path11PathSegmentNtNtB9_5token6Colon2ENtNtNtNtCsfvfooZQ3Axs_4core4iter6traits8iterator8Iterator4next0B9_, symObjAddr: 0x119D8, symBinAddr: 0x41C9C, symSize: 0x24 }
  - { offset: 0x92994, size: 0x8, addend: 0x0, symName: __RNCNvXsF_NtCs5AlOhPCr03V_3syn10punctuatedINtB7_14PrivateIterMutNtNtB9_4item5FnArgNtNtB9_5token5CommaENtNtNtNtCsfvfooZQ3Axs_4core4iter6traits8iterator8Iterator4nexts_0B9_, symObjAddr: 0x11A5C, symBinAddr: 0x41CC0, symSize: 0x3C }
  - { offset: 0x929D6, size: 0x8, addend: 0x0, symName: __RNCNvXsF_NtCs5AlOhPCr03V_3syn10punctuatedINtB7_14PrivateIterMutNtNtB9_4path11PathSegmentNtNtB9_5token6Colon2ENtNtNtNtCsfvfooZQ3Axs_4core4iter6traits8iterator8Iterator4nexts_0B9_, symObjAddr: 0x11A98, symBinAddr: 0x41CFC, symSize: 0x3C }
  - { offset: 0x92A2D, size: 0x8, addend: 0x0, symName: __RNvXsG_NtCs5AlOhPCr03V_3syn10punctuatedINtB5_14PrivateIterMutNtNtB7_4item5FnArgNtNtB7_5token5CommaENtNtNtNtCsfvfooZQ3Axs_4core4iter6traits12double_ended19DoubleEndedIterator9next_backB7_, symObjAddr: 0x11B58, symBinAddr: 0x41D38, symSize: 0x48 }
  - { offset: 0x92A6D, size: 0x8, addend: 0x0, symName: __RNvXsG_NtCs5AlOhPCr03V_3syn10punctuatedINtB5_14PrivateIterMutNtNtB7_4path11PathSegmentNtNtB7_5token6Colon2ENtNtNtNtCsfvfooZQ3Axs_4core4iter6traits12double_ended19DoubleEndedIterator9next_backB7_, symObjAddr: 0x11BA0, symBinAddr: 0x41D80, symSize: 0x48 }
  - { offset: 0x92AB2, size: 0x8, addend: 0x0, symName: __RNCNvXsG_NtCs5AlOhPCr03V_3syn10punctuatedINtB7_14PrivateIterMutNtNtB9_4item5FnArgNtNtB9_5token5CommaENtNtNtNtCsfvfooZQ3Axs_4core4iter6traits12double_ended19DoubleEndedIterator9next_back0B9_, symObjAddr: 0x11C6C, symBinAddr: 0x41DC8, symSize: 0x3C }
  - { offset: 0x92AF4, size: 0x8, addend: 0x0, symName: __RNCNvXsG_NtCs5AlOhPCr03V_3syn10punctuatedINtB7_14PrivateIterMutNtNtB9_4path11PathSegmentNtNtB9_5token6Colon2ENtNtNtNtCsfvfooZQ3Axs_4core4iter6traits12double_ended19DoubleEndedIterator9next_back0B9_, symObjAddr: 0x11CA8, symBinAddr: 0x41E04, symSize: 0x3C }
  - { offset: 0x92B3B, size: 0x8, addend: 0x0, symName: __RNCNCNvXsG_NtCs5AlOhPCr03V_3syn10punctuatedINtB9_14PrivateIterMutNtNtBb_4item5FnArgNtNtBb_5token5CommaENtNtNtNtCsfvfooZQ3Axs_4core4iter6traits12double_ended19DoubleEndedIterator9next_back00Bb_, symObjAddr: 0x11D44, symBinAddr: 0x41E40, symSize: 0x24 }
  - { offset: 0x92B86, size: 0x8, addend: 0x0, symName: __RNCNCNvXsG_NtCs5AlOhPCr03V_3syn10punctuatedINtB9_14PrivateIterMutNtNtBb_4path11PathSegmentNtNtBb_5token6Colon2ENtNtNtNtCsfvfooZQ3Axs_4core4iter6traits12double_ended19DoubleEndedIterator9next_back00Bb_, symObjAddr: 0x11D68, symBinAddr: 0x41E64, symSize: 0x24 }
  - { offset: 0x92BE7, size: 0x8, addend: 0x0, symName: __RNvXsH_NtCs5AlOhPCr03V_3syn10punctuatedINtB5_14PrivateIterMutNtNtB7_4item5FnArgNtNtB7_5token5CommaENtNtNtNtCsfvfooZQ3Axs_4core4iter6traits10exact_size17ExactSizeIterator3lenB7_, symObjAddr: 0x11E44, symBinAddr: 0x41E88, symSize: 0x94 }
  - { offset: 0x92C5B, size: 0x8, addend: 0x0, symName: __RNvXsH_NtCs5AlOhPCr03V_3syn10punctuatedINtB5_14PrivateIterMutNtNtB7_4path11PathSegmentNtNtB7_5token6Colon2ENtNtNtNtCsfvfooZQ3Axs_4core4iter6traits10exact_size17ExactSizeIterator3lenB7_, symObjAddr: 0x11ED8, symBinAddr: 0x41F1C, symSize: 0x94 }
  - { offset: 0x92CDA, size: 0x8, addend: 0x0, symName: __RNcNtINtNtCs5AlOhPCr03V_3syn10punctuated4PairNtNtB8_4path11PathSegmentNtNtB8_5token6Colon2E3End0B8_, symObjAddr: 0x12000, symBinAddr: 0x41FB0, symSize: 0x3C }
  - { offset: 0x92D17, size: 0x8, addend: 0x0, symName: __RNcNtINtNtCs5AlOhPCr03V_3syn10punctuated4PairQNtNtB8_4path11PathSegmentQNtNtB8_5token6Colon2E3End0B8_, symObjAddr: 0x1203C, symBinAddr: 0x41FEC, symSize: 0x1C }
  - { offset: 0x92D53, size: 0x8, addend: 0x0, symName: __RNcNtINtNtCs5AlOhPCr03V_3syn10punctuated4PairRNtNtB8_2ty4TypeRNtNtB8_5token5CommaE3End0B8_, symObjAddr: 0x12058, symBinAddr: 0x42008, symSize: 0x1C }
  - { offset: 0x92D8F, size: 0x8, addend: 0x0, symName: __RNcNtINtNtCs5AlOhPCr03V_3syn10punctuated4PairRNtNtB8_2ty9BareFnArgRNtNtB8_5token5CommaE3End0B8_, symObjAddr: 0x12074, symBinAddr: 0x42024, symSize: 0x1C }
  - { offset: 0x92DCB, size: 0x8, addend: 0x0, symName: __RNcNtINtNtCs5AlOhPCr03V_3syn10punctuated4PairRNtNtB8_3pat3PatRNtNtB8_5token2OrE3End0B8_, symObjAddr: 0x12090, symBinAddr: 0x42040, symSize: 0x1C }
  - { offset: 0x92E07, size: 0x8, addend: 0x0, symName: __RNcNtINtNtCs5AlOhPCr03V_3syn10punctuated4PairRNtNtB8_3pat3PatRNtNtB8_5token5CommaE3End0B8_, symObjAddr: 0x120AC, symBinAddr: 0x4205C, symSize: 0x1C }
  - { offset: 0x92E43, size: 0x8, addend: 0x0, symName: __RNcNtINtNtCs5AlOhPCr03V_3syn10punctuated4PairRNtNtB8_3pat8FieldPatRNtNtB8_5token5CommaE3End0B8_, symObjAddr: 0x120C8, symBinAddr: 0x42078, symSize: 0x1C }
  - { offset: 0x92E7F, size: 0x8, addend: 0x0, symName: __RNcNtINtNtCs5AlOhPCr03V_3syn10punctuated4PairRNtNtB8_4data5FieldRNtNtB8_5token5CommaE3End0B8_, symObjAddr: 0x12100, symBinAddr: 0x42094, symSize: 0x1C }
  - { offset: 0x92EBB, size: 0x8, addend: 0x0, symName: __RNcNtINtNtCs5AlOhPCr03V_3syn10punctuated4PairRNtNtB8_4data7VariantRNtNtB8_5token5CommaE3End0B8_, symObjAddr: 0x1211C, symBinAddr: 0x420B0, symSize: 0x1C }
  - { offset: 0x92EF7, size: 0x8, addend: 0x0, symName: __RNcNtINtNtCs5AlOhPCr03V_3syn10punctuated4PairRNtNtB8_4expr10FieldValueRNtNtB8_5token5CommaE3End0B8_, symObjAddr: 0x12138, symBinAddr: 0x420CC, symSize: 0x1C }
  - { offset: 0x92F33, size: 0x8, addend: 0x0, symName: __RNcNtINtNtCs5AlOhPCr03V_3syn10punctuated4PairRNtNtB8_4expr21GenericMethodArgumentRNtNtB8_5token5CommaE3End0B8_, symObjAddr: 0x12154, symBinAddr: 0x420E8, symSize: 0x1C }
  - { offset: 0x92F6F, size: 0x8, addend: 0x0, symName: __RNcNtINtNtCs5AlOhPCr03V_3syn10punctuated4PairRNtNtB8_4expr4ExprRNtNtB8_5token5CommaE3End0B8_, symObjAddr: 0x12170, symBinAddr: 0x42104, symSize: 0x1C }
  - { offset: 0x92FAB, size: 0x8, addend: 0x0, symName: __RNcNtINtNtCs5AlOhPCr03V_3syn10punctuated4PairRNtNtB8_4item5FnArgRNtNtB8_5token5CommaE3End0B8_, symObjAddr: 0x1218C, symBinAddr: 0x42120, symSize: 0x1C }
  - { offset: 0x92FE7, size: 0x8, addend: 0x0, symName: __RNcNtINtNtCs5AlOhPCr03V_3syn10punctuated4PairRNtNtB8_4item7UseTreeRNtNtB8_5token5CommaE3End0B8_, symObjAddr: 0x121A8, symBinAddr: 0x4213C, symSize: 0x1C }
  - { offset: 0x93023, size: 0x8, addend: 0x0, symName: __RNcNtINtNtCs5AlOhPCr03V_3syn10punctuated4PairRNtNtB8_4path11PathSegmentRNtNtB8_5token6Colon2E3End0B8_, symObjAddr: 0x121C4, symBinAddr: 0x42158, symSize: 0x1C }
  - { offset: 0x9305F, size: 0x8, addend: 0x0, symName: __RNcNtINtNtCs5AlOhPCr03V_3syn10punctuated4PairRNtNtB8_4path15GenericArgumentRNtNtB8_5token5CommaE3End0B8_, symObjAddr: 0x121E0, symBinAddr: 0x42174, symSize: 0x1C }
  - { offset: 0x9309B, size: 0x8, addend: 0x0, symName: __RNcNtINtNtCs5AlOhPCr03V_3syn10punctuated4PairRNtNtB8_8generics11LifetimeDefRNtNtB8_5token5CommaE3End0B8_, symObjAddr: 0x121FC, symBinAddr: 0x42190, symSize: 0x1C }
  - { offset: 0x930D7, size: 0x8, addend: 0x0, symName: __RNcNtINtNtCs5AlOhPCr03V_3syn10punctuated4PairRNtNtB8_8generics12GenericParamRNtNtB8_5token5CommaE3End0B8_, symObjAddr: 0x12218, symBinAddr: 0x421AC, symSize: 0x1C }
  - { offset: 0x93113, size: 0x8, addend: 0x0, symName: __RNcNtINtNtCs5AlOhPCr03V_3syn10punctuated4PairRNtNtB8_8generics14TypeParamBoundRNtNtB8_5token3AddE3End0B8_, symObjAddr: 0x12234, symBinAddr: 0x421C8, symSize: 0x1C }
  - { offset: 0x9314F, size: 0x8, addend: 0x0, symName: __RNcNtINtNtCs5AlOhPCr03V_3syn10punctuated4PairRNtNtB8_8generics14WherePredicateRNtNtB8_5token5CommaE3End0B8_, symObjAddr: 0x12250, symBinAddr: 0x421E4, symSize: 0x1C }
  - { offset: 0x9318B, size: 0x8, addend: 0x0, symName: __RNcNtINtNtCs5AlOhPCr03V_3syn10punctuated4PairRNtNtB8_8lifetime8LifetimeRNtNtB8_5token3AddE3End0B8_, symObjAddr: 0x1226C, symBinAddr: 0x42200, symSize: 0x1C }
  - { offset: 0x93512, size: 0x8, addend: 0x0, symName: __RNvXsL_NtCs5AlOhPCr03V_3syn10punctuatedINtB5_10PunctuatedNtNtB7_4path11PathSegmentNtNtB7_5token6Colon2EINtNtNtCsfvfooZQ3Axs_4core3ops5index5IndexjE5indexB7_, symObjAddr: 0x126D4, symBinAddr: 0x42668, symSize: 0x134 }
  - { offset: 0x93582, size: 0x8, addend: 0x0, symName: __RNvXNtNtCs5AlOhPCr03V_3syn10punctuated8printingINtB4_10PunctuatedNtNtB6_2ty4TypeNtNtB6_5token5CommaENtNtCs2cqEZUIJimJ_5quote9to_tokens8ToTokens9to_tokensB6_, symObjAddr: 0x12808, symBinAddr: 0x4279C, symSize: 0x50 }
  - { offset: 0x935CD, size: 0x8, addend: 0x0, symName: __RNvXNtNtCs5AlOhPCr03V_3syn10punctuated8printingINtB4_10PunctuatedNtNtB6_2ty9BareFnArgNtNtB6_5token5CommaENtNtCs2cqEZUIJimJ_5quote9to_tokens8ToTokens9to_tokensB6_, symObjAddr: 0x12858, symBinAddr: 0x427EC, symSize: 0x50 }
  - { offset: 0x93618, size: 0x8, addend: 0x0, symName: __RNvXNtNtCs5AlOhPCr03V_3syn10punctuated8printingINtB4_10PunctuatedNtNtB6_3pat3PatNtNtB6_5token2OrENtNtCs2cqEZUIJimJ_5quote9to_tokens8ToTokens9to_tokensB6_, symObjAddr: 0x128A8, symBinAddr: 0x4283C, symSize: 0x50 }
  - { offset: 0x93663, size: 0x8, addend: 0x0, symName: __RNvXNtNtCs5AlOhPCr03V_3syn10punctuated8printingINtB4_10PunctuatedNtNtB6_3pat3PatNtNtB6_5token5CommaENtNtCs2cqEZUIJimJ_5quote9to_tokens8ToTokens9to_tokensB6_, symObjAddr: 0x128F8, symBinAddr: 0x4288C, symSize: 0x50 }
  - { offset: 0x936AE, size: 0x8, addend: 0x0, symName: __RNvXNtNtCs5AlOhPCr03V_3syn10punctuated8printingINtB4_10PunctuatedNtNtB6_3pat8FieldPatNtNtB6_5token5CommaENtNtCs2cqEZUIJimJ_5quote9to_tokens8ToTokens9to_tokensB6_, symObjAddr: 0x12948, symBinAddr: 0x428DC, symSize: 0x50 }
  - { offset: 0x936F9, size: 0x8, addend: 0x0, symName: __RNvXNtNtCs5AlOhPCr03V_3syn10punctuated8printingINtB4_10PunctuatedNtNtB6_4data5FieldNtNtB6_5token5CommaENtNtCs2cqEZUIJimJ_5quote9to_tokens8ToTokens9to_tokensB6_, symObjAddr: 0x129E8, symBinAddr: 0x4292C, symSize: 0x50 }
  - { offset: 0x93744, size: 0x8, addend: 0x0, symName: __RNvXNtNtCs5AlOhPCr03V_3syn10punctuated8printingINtB4_10PunctuatedNtNtB6_4data7VariantNtNtB6_5token5CommaENtNtCs2cqEZUIJimJ_5quote9to_tokens8ToTokens9to_tokensB6_, symObjAddr: 0x12A38, symBinAddr: 0x4297C, symSize: 0x50 }
  - { offset: 0x9378F, size: 0x8, addend: 0x0, symName: __RNvXNtNtCs5AlOhPCr03V_3syn10punctuated8printingINtB4_10PunctuatedNtNtB6_4expr10FieldValueNtNtB6_5token5CommaENtNtCs2cqEZUIJimJ_5quote9to_tokens8ToTokens9to_tokensB6_, symObjAddr: 0x12A88, symBinAddr: 0x429CC, symSize: 0x50 }
  - { offset: 0x937DA, size: 0x8, addend: 0x0, symName: __RNvXNtNtCs5AlOhPCr03V_3syn10punctuated8printingINtB4_10PunctuatedNtNtB6_4expr21GenericMethodArgumentNtNtB6_5token5CommaENtNtCs2cqEZUIJimJ_5quote9to_tokens8ToTokens9to_tokensB6_, symObjAddr: 0x12AD8, symBinAddr: 0x42A1C, symSize: 0x50 }
  - { offset: 0x93825, size: 0x8, addend: 0x0, symName: __RNvXNtNtCs5AlOhPCr03V_3syn10punctuated8printingINtB4_10PunctuatedNtNtB6_4expr4ExprNtNtB6_5token5CommaENtNtCs2cqEZUIJimJ_5quote9to_tokens8ToTokens9to_tokensB6_, symObjAddr: 0x12B28, symBinAddr: 0x42A6C, symSize: 0x50 }
  - { offset: 0x93870, size: 0x8, addend: 0x0, symName: __RNvXNtNtCs5AlOhPCr03V_3syn10punctuated8printingINtB4_10PunctuatedNtNtB6_4item7UseTreeNtNtB6_5token5CommaENtNtCs2cqEZUIJimJ_5quote9to_tokens8ToTokens9to_tokensB6_, symObjAddr: 0x12B78, symBinAddr: 0x42ABC, symSize: 0x50 }
  - { offset: 0x938BB, size: 0x8, addend: 0x0, symName: __RNvXNtNtCs5AlOhPCr03V_3syn10punctuated8printingINtB4_10PunctuatedNtNtB6_4path11PathSegmentNtNtB6_5token6Colon2ENtNtCs2cqEZUIJimJ_5quote9to_tokens8ToTokens9to_tokensB6_, symObjAddr: 0x12BC8, symBinAddr: 0x42B0C, symSize: 0x50 }
  - { offset: 0x93906, size: 0x8, addend: 0x0, symName: __RNvXNtNtCs5AlOhPCr03V_3syn10punctuated8printingINtB4_10PunctuatedNtNtB6_8generics11LifetimeDefNtNtB6_5token5CommaENtNtCs2cqEZUIJimJ_5quote9to_tokens8ToTokens9to_tokensB6_, symObjAddr: 0x12C18, symBinAddr: 0x42B5C, symSize: 0x50 }
  - { offset: 0x93951, size: 0x8, addend: 0x0, symName: __RNvXNtNtCs5AlOhPCr03V_3syn10punctuated8printingINtB4_10PunctuatedNtNtB6_8generics14TypeParamBoundNtNtB6_5token3AddENtNtCs2cqEZUIJimJ_5quote9to_tokens8ToTokens9to_tokensB6_, symObjAddr: 0x12C68, symBinAddr: 0x42BAC, symSize: 0x50 }
  - { offset: 0x9399C, size: 0x8, addend: 0x0, symName: __RNvXNtNtCs5AlOhPCr03V_3syn10punctuated8printingINtB4_10PunctuatedNtNtB6_8generics14WherePredicateNtNtB6_5token5CommaENtNtCs2cqEZUIJimJ_5quote9to_tokens8ToTokens9to_tokensB6_, symObjAddr: 0x12CB8, symBinAddr: 0x42BFC, symSize: 0x50 }
  - { offset: 0x939E7, size: 0x8, addend: 0x0, symName: __RNvXNtNtCs5AlOhPCr03V_3syn10punctuated8printingINtB4_10PunctuatedNtNtB6_8lifetime8LifetimeNtNtB6_5token3AddENtNtCs2cqEZUIJimJ_5quote9to_tokens8ToTokens9to_tokensB6_, symObjAddr: 0x12D08, symBinAddr: 0x42C4C, symSize: 0x50 }
  - { offset: 0x93A38, size: 0x8, addend: 0x0, symName: __RNvXs_NtNtCs5AlOhPCr03V_3syn10punctuated8printingINtB6_4PairRNtNtB8_2ty4TypeRNtNtB8_5token5CommaENtNtCs2cqEZUIJimJ_5quote9to_tokens8ToTokens9to_tokensB8_, symObjAddr: 0x12D58, symBinAddr: 0x42C9C, symSize: 0xB4 }
  - { offset: 0x93AC7, size: 0x8, addend: 0x0, symName: __RNvXs_NtNtCs5AlOhPCr03V_3syn10punctuated8printingINtB6_4PairRNtNtB8_2ty9BareFnArgRNtNtB8_5token5CommaENtNtCs2cqEZUIJimJ_5quote9to_tokens8ToTokens9to_tokensB8_, symObjAddr: 0x12E0C, symBinAddr: 0x42D50, symSize: 0xB4 }
  - { offset: 0x93B56, size: 0x8, addend: 0x0, symName: __RNvXs_NtNtCs5AlOhPCr03V_3syn10punctuated8printingINtB6_4PairRNtNtB8_3pat3PatRNtNtB8_5token2OrENtNtCs2cqEZUIJimJ_5quote9to_tokens8ToTokens9to_tokensB8_, symObjAddr: 0x12EC0, symBinAddr: 0x42E04, symSize: 0xB4 }
  - { offset: 0x93BE5, size: 0x8, addend: 0x0, symName: __RNvXs_NtNtCs5AlOhPCr03V_3syn10punctuated8printingINtB6_4PairRNtNtB8_3pat3PatRNtNtB8_5token5CommaENtNtCs2cqEZUIJimJ_5quote9to_tokens8ToTokens9to_tokensB8_, symObjAddr: 0x12F74, symBinAddr: 0x42EB8, symSize: 0xB4 }
  - { offset: 0x93C74, size: 0x8, addend: 0x0, symName: __RNvXs_NtNtCs5AlOhPCr03V_3syn10punctuated8printingINtB6_4PairRNtNtB8_3pat8FieldPatRNtNtB8_5token5CommaENtNtCs2cqEZUIJimJ_5quote9to_tokens8ToTokens9to_tokensB8_, symObjAddr: 0x13028, symBinAddr: 0x42F6C, symSize: 0xB4 }
  - { offset: 0x93D03, size: 0x8, addend: 0x0, symName: __RNvXs_NtNtCs5AlOhPCr03V_3syn10punctuated8printingINtB6_4PairRNtNtB8_4data5FieldRNtNtB8_5token5CommaENtNtCs2cqEZUIJimJ_5quote9to_tokens8ToTokens9to_tokensB8_, symObjAddr: 0x13190, symBinAddr: 0x43020, symSize: 0xB4 }
  - { offset: 0x93D92, size: 0x8, addend: 0x0, symName: __RNvXs_NtNtCs5AlOhPCr03V_3syn10punctuated8printingINtB6_4PairRNtNtB8_4data7VariantRNtNtB8_5token5CommaENtNtCs2cqEZUIJimJ_5quote9to_tokens8ToTokens9to_tokensB8_, symObjAddr: 0x13244, symBinAddr: 0x430D4, symSize: 0xB4 }
  - { offset: 0x93E21, size: 0x8, addend: 0x0, symName: __RNvXs_NtNtCs5AlOhPCr03V_3syn10punctuated8printingINtB6_4PairRNtNtB8_4expr10FieldValueRNtNtB8_5token5CommaENtNtCs2cqEZUIJimJ_5quote9to_tokens8ToTokens9to_tokensB8_, symObjAddr: 0x132F8, symBinAddr: 0x43188, symSize: 0xB4 }
  - { offset: 0x93EB0, size: 0x8, addend: 0x0, symName: __RNvXs_NtNtCs5AlOhPCr03V_3syn10punctuated8printingINtB6_4PairRNtNtB8_4expr21GenericMethodArgumentRNtNtB8_5token5CommaENtNtCs2cqEZUIJimJ_5quote9to_tokens8ToTokens9to_tokensB8_, symObjAddr: 0x133AC, symBinAddr: 0x4323C, symSize: 0xB4 }
  - { offset: 0x93F3F, size: 0x8, addend: 0x0, symName: __RNvXs_NtNtCs5AlOhPCr03V_3syn10punctuated8printingINtB6_4PairRNtNtB8_4expr4ExprRNtNtB8_5token5CommaENtNtCs2cqEZUIJimJ_5quote9to_tokens8ToTokens9to_tokensB8_, symObjAddr: 0x13460, symBinAddr: 0x432F0, symSize: 0xB4 }
  - { offset: 0x93FCE, size: 0x8, addend: 0x0, symName: __RNvXs_NtNtCs5AlOhPCr03V_3syn10punctuated8printingINtB6_4PairRNtNtB8_4item7UseTreeRNtNtB8_5token5CommaENtNtCs2cqEZUIJimJ_5quote9to_tokens8ToTokens9to_tokensB8_, symObjAddr: 0x13514, symBinAddr: 0x433A4, symSize: 0xB4 }
  - { offset: 0x9405D, size: 0x8, addend: 0x0, symName: __RNvXs_NtNtCs5AlOhPCr03V_3syn10punctuated8printingINtB6_4PairRNtNtB8_4path11PathSegmentRNtNtB8_5token6Colon2ENtNtCs2cqEZUIJimJ_5quote9to_tokens8ToTokens9to_tokensB8_, symObjAddr: 0x135C8, symBinAddr: 0x43458, symSize: 0xB4 }
  - { offset: 0x940EC, size: 0x8, addend: 0x0, symName: __RNvXs_NtNtCs5AlOhPCr03V_3syn10punctuated8printingINtB6_4PairRNtNtB8_4path15GenericArgumentRNtNtB8_5token5CommaENtNtCs2cqEZUIJimJ_5quote9to_tokens8ToTokens9to_tokensB8_, symObjAddr: 0x1367C, symBinAddr: 0x4350C, symSize: 0xB4 }
  - { offset: 0x9417B, size: 0x8, addend: 0x0, symName: __RNvXs_NtNtCs5AlOhPCr03V_3syn10punctuated8printingINtB6_4PairRNtNtB8_8generics11LifetimeDefRNtNtB8_5token5CommaENtNtCs2cqEZUIJimJ_5quote9to_tokens8ToTokens9to_tokensB8_, symObjAddr: 0x13730, symBinAddr: 0x435C0, symSize: 0xB4 }
  - { offset: 0x9420A, size: 0x8, addend: 0x0, symName: __RNvXs_NtNtCs5AlOhPCr03V_3syn10punctuated8printingINtB6_4PairRNtNtB8_8generics12GenericParamRNtNtB8_5token5CommaENtNtCs2cqEZUIJimJ_5quote9to_tokens8ToTokens9to_tokensB8_, symObjAddr: 0x137E4, symBinAddr: 0x43674, symSize: 0xB4 }
  - { offset: 0x94299, size: 0x8, addend: 0x0, symName: __RNvXs_NtNtCs5AlOhPCr03V_3syn10punctuated8printingINtB6_4PairRNtNtB8_8generics14TypeParamBoundRNtNtB8_5token3AddENtNtCs2cqEZUIJimJ_5quote9to_tokens8ToTokens9to_tokensB8_, symObjAddr: 0x13898, symBinAddr: 0x43728, symSize: 0xB4 }
  - { offset: 0x94328, size: 0x8, addend: 0x0, symName: __RNvXs_NtNtCs5AlOhPCr03V_3syn10punctuated8printingINtB6_4PairRNtNtB8_8generics14WherePredicateRNtNtB8_5token5CommaENtNtCs2cqEZUIJimJ_5quote9to_tokens8ToTokens9to_tokensB8_, symObjAddr: 0x1394C, symBinAddr: 0x437DC, symSize: 0xB4 }
  - { offset: 0x943B7, size: 0x8, addend: 0x0, symName: __RNvXs_NtNtCs5AlOhPCr03V_3syn10punctuated8printingINtB6_4PairRNtNtB8_8lifetime8LifetimeRNtNtB8_5token3AddENtNtCs2cqEZUIJimJ_5quote9to_tokens8ToTokens9to_tokensB8_, symObjAddr: 0x13A00, symBinAddr: 0x43890, symSize: 0xB4 }
  - { offset: 0x9FC0D, size: 0x8, addend: 0x0, symName: __RNvYINtNtCs5AlOhPCr03V_3syn10punctuated11PrivateIterNtNtB7_4path11PathSegmentNtNtB7_5token6Colon2ENtNtNtNtCsfvfooZQ3Axs_4core4iter6traits8iterator8Iterator10advance_byB7_, symObjAddr: 0xB80, symBinAddr: 0x36DF4, symSize: 0x134 }
  - { offset: 0x9FD63, size: 0x8, addend: 0x0, symName: __RNvYINtNtCs5AlOhPCr03V_3syn10punctuated11PrivateIterNtNtB7_4path11PathSegmentNtNtB7_5token6Colon2ENtNtNtNtCsfvfooZQ3Axs_4core4iter6traits8iterator8Iterator3nthB7_, symObjAddr: 0xCB4, symBinAddr: 0x36F28, symSize: 0x80 }
  - { offset: 0x9FE2F, size: 0x8, addend: 0x0, symName: __RNvYINtNtCs5AlOhPCr03V_3syn10punctuated11PrivateIterNtNtB7_4path11PathSegmentNtNtB7_5token6Colon2ENtNtNtNtCsfvfooZQ3Axs_4core4iter6traits8iterator8Iterator9size_hintB7_, symObjAddr: 0xD34, symBinAddr: 0x36FA8, symSize: 0x34 }
  - { offset: 0x9FE64, size: 0x8, addend: 0x0, symName: __RNvYINtNtCs5AlOhPCr03V_3syn10punctuated11PrivateIterNtNtB7_8generics14TypeParamBoundNtNtB7_5token3AddENtNtNtNtCsfvfooZQ3Axs_4core4iter6traits8iterator8Iterator10advance_byB7_, symObjAddr: 0x12E0, symBinAddr: 0x371A4, symSize: 0x134 }
  - { offset: 0x9FFBA, size: 0x8, addend: 0x0, symName: __RNvYINtNtCs5AlOhPCr03V_3syn10punctuated11PrivateIterNtNtB7_8generics14TypeParamBoundNtNtB7_5token3AddENtNtNtNtCsfvfooZQ3Axs_4core4iter6traits8iterator8Iterator3nthB7_, symObjAddr: 0x1414, symBinAddr: 0x372D8, symSize: 0x80 }
  - { offset: 0xA0086, size: 0x8, addend: 0x0, symName: __RNvYINtNtCs5AlOhPCr03V_3syn10punctuated11PrivateIterNtNtB7_8generics14TypeParamBoundNtNtB7_5token3AddENtNtNtNtCsfvfooZQ3Axs_4core4iter6traits8iterator8Iterator9size_hintB7_, symObjAddr: 0x1494, symBinAddr: 0x37358, symSize: 0x34 }
  - { offset: 0xA00BB, size: 0x8, addend: 0x0, symName: __RNvYINtNtCs5AlOhPCr03V_3syn10punctuated14PrivateIterMutNtNtB7_4item5FnArgNtNtB7_5token5CommaENtNtNtNtCsfvfooZQ3Axs_4core4iter6traits8iterator8Iterator10advance_byB7_, symObjAddr: 0x1A40, symBinAddr: 0x37554, symSize: 0x134 }
  - { offset: 0xA0211, size: 0x8, addend: 0x0, symName: __RNvYINtNtCs5AlOhPCr03V_3syn10punctuated14PrivateIterMutNtNtB7_4item5FnArgNtNtB7_5token5CommaENtNtNtNtCsfvfooZQ3Axs_4core4iter6traits8iterator8Iterator3nthB7_, symObjAddr: 0x1B74, symBinAddr: 0x37688, symSize: 0x80 }
  - { offset: 0xA02DD, size: 0x8, addend: 0x0, symName: __RNvYINtNtCs5AlOhPCr03V_3syn10punctuated14PrivateIterMutNtNtB7_4item5FnArgNtNtB7_5token5CommaENtNtNtNtCsfvfooZQ3Axs_4core4iter6traits8iterator8Iterator9size_hintB7_, symObjAddr: 0x1BF4, symBinAddr: 0x37708, symSize: 0x34 }
  - { offset: 0xA0312, size: 0x8, addend: 0x0, symName: __RNvYINtNtCs5AlOhPCr03V_3syn10punctuated14PrivateIterMutNtNtB7_4path11PathSegmentNtNtB7_5token6Colon2ENtNtNtNtCsfvfooZQ3Axs_4core4iter6traits8iterator8Iterator10advance_byB7_, symObjAddr: 0x1DF0, symBinAddr: 0x37904, symSize: 0x134 }
  - { offset: 0xA0468, size: 0x8, addend: 0x0, symName: __RNvYINtNtCs5AlOhPCr03V_3syn10punctuated14PrivateIterMutNtNtB7_4path11PathSegmentNtNtB7_5token6Colon2ENtNtNtNtCsfvfooZQ3Axs_4core4iter6traits8iterator8Iterator3nthB7_, symObjAddr: 0x1F24, symBinAddr: 0x37A38, symSize: 0x80 }
  - { offset: 0xA0534, size: 0x8, addend: 0x0, symName: __RNvYINtNtCs5AlOhPCr03V_3syn10punctuated14PrivateIterMutNtNtB7_4path11PathSegmentNtNtB7_5token6Colon2ENtNtNtNtCsfvfooZQ3Axs_4core4iter6traits8iterator8Iterator9size_hintB7_, symObjAddr: 0x1FA4, symBinAddr: 0x37AB8, symSize: 0x34 }
  - { offset: 0xA0569, size: 0x8, addend: 0x0, symName: __RNvYINtNtCs5AlOhPCr03V_3syn10punctuated5PairsNtNtB7_4path11PathSegmentNtNtB7_5token6Colon2ENtNtNtNtCsfvfooZQ3Axs_4core4iter6traits8iterator8Iterator10advance_byB7_, symObjAddr: 0x2388, symBinAddr: 0x37AEC, symSize: 0x130 }
  - { offset: 0xA06BF, size: 0x8, addend: 0x0, symName: __RNvYINtNtCs5AlOhPCr03V_3syn10punctuated5PairsNtNtB7_4path11PathSegmentNtNtB7_5token6Colon2ENtNtNtNtCsfvfooZQ3Axs_4core4iter6traits8iterator8Iterator3nthB7_, symObjAddr: 0x24B8, symBinAddr: 0x37C1C, symSize: 0x84 }
  - { offset: 0xA078B, size: 0x8, addend: 0x0, symName: __RNvYINtNtCs5AlOhPCr03V_3syn10punctuated5PairsNtNtB7_4path11PathSegmentNtNtB7_5token6Colon2ENtNtNtNtCsfvfooZQ3Axs_4core4iter6traits8iterator8Iterator4skipB7_, symObjAddr: 0x253C, symBinAddr: 0x37CA0, symSize: 0x24 }
  - { offset: 0xA07E6, size: 0x8, addend: 0x0, symName: __RNvYINtNtCs5AlOhPCr03V_3syn10punctuated5PairsNtNtB7_4path11PathSegmentNtNtB7_5token6Colon2ENtNtNtNtCsfvfooZQ3Axs_4core4iter6traits8iterator8Iterator6by_refB7_, symObjAddr: 0x2560, symBinAddr: 0x37CC4, symSize: 0x14 }
  - { offset: 0xA081D, size: 0x8, addend: 0x0, symName: __RNvYQINtNtCs5AlOhPCr03V_3syn10punctuated5PairsNtNtB8_4path11PathSegmentNtNtB8_5token6Colon2ENtNtNtNtCsfvfooZQ3Axs_4core4iter6traits8iterator8Iterator4takeB8_, symObjAddr: 0x2574, symBinAddr: 0x37CD8, symSize: 0x18 }
  - { offset: 0xA0869, size: 0x8, addend: 0x0, symName: __RNvXNtNtNtCsfvfooZQ3Axs_4core4iter6traits8iteratorQINtNtCs5AlOhPCr03V_3syn10punctuated5PairsNtNtBS_4path11PathSegmentNtNtBS_5token6Colon2ENtB2_8Iterator4nextBS_, symObjAddr: 0x230, symBinAddr: 0x36C04, symSize: 0x28 }
  - { offset: 0xA08AC, size: 0x8, addend: 0x0, symName: __RNvXNtNtNtCsfvfooZQ3Axs_4core4iter6traits7collectINtNtCs5AlOhPCr03V_3syn10punctuated5PairsNtNtBQ_2ty4TypeNtNtBQ_5token5CommaENtB2_12IntoIterator9into_iterBQ_, symObjAddr: 0x20, symBinAddr: 0x36A0C, symSize: 0x18 }
  - { offset: 0xA08E3, size: 0x8, addend: 0x0, symName: __RNvXNtNtNtCsfvfooZQ3Axs_4core4iter6traits7collectINtNtCs5AlOhPCr03V_3syn10punctuated5PairsNtNtBQ_2ty9BareFnArgNtNtBQ_5token5CommaENtB2_12IntoIterator9into_iterBQ_, symObjAddr: 0x38, symBinAddr: 0x36A24, symSize: 0x18 }
  - { offset: 0xA091A, size: 0x8, addend: 0x0, symName: __RNvXNtNtNtCsfvfooZQ3Axs_4core4iter6traits7collectINtNtCs5AlOhPCr03V_3syn10punctuated5PairsNtNtBQ_3pat3PatNtNtBQ_5token2OrENtB2_12IntoIterator9into_iterBQ_, symObjAddr: 0x50, symBinAddr: 0x36A3C, symSize: 0x18 }
  - { offset: 0xA0951, size: 0x8, addend: 0x0, symName: __RNvXNtNtNtCsfvfooZQ3Axs_4core4iter6traits7collectINtNtCs5AlOhPCr03V_3syn10punctuated5PairsNtNtBQ_3pat3PatNtNtBQ_5token5CommaENtB2_12IntoIterator9into_iterBQ_, symObjAddr: 0x68, symBinAddr: 0x36A54, symSize: 0x18 }
  - { offset: 0xA0988, size: 0x8, addend: 0x0, symName: __RNvXNtNtNtCsfvfooZQ3Axs_4core4iter6traits7collectINtNtCs5AlOhPCr03V_3syn10punctuated5PairsNtNtBQ_3pat8FieldPatNtNtBQ_5token5CommaENtB2_12IntoIterator9into_iterBQ_, symObjAddr: 0x80, symBinAddr: 0x36A6C, symSize: 0x18 }
  - { offset: 0xA09BF, size: 0x8, addend: 0x0, symName: __RNvXNtNtNtCsfvfooZQ3Axs_4core4iter6traits7collectINtNtCs5AlOhPCr03V_3syn10punctuated5PairsNtNtBQ_4data5FieldNtNtBQ_5token5CommaENtB2_12IntoIterator9into_iterBQ_, symObjAddr: 0xB0, symBinAddr: 0x36A84, symSize: 0x18 }
  - { offset: 0xA09F6, size: 0x8, addend: 0x0, symName: __RNvXNtNtNtCsfvfooZQ3Axs_4core4iter6traits7collectINtNtCs5AlOhPCr03V_3syn10punctuated5PairsNtNtBQ_4data7VariantNtNtBQ_5token5CommaENtB2_12IntoIterator9into_iterBQ_, symObjAddr: 0xC8, symBinAddr: 0x36A9C, symSize: 0x18 }
  - { offset: 0xA0A2D, size: 0x8, addend: 0x0, symName: __RNvXNtNtNtCsfvfooZQ3Axs_4core4iter6traits7collectINtNtCs5AlOhPCr03V_3syn10punctuated5PairsNtNtBQ_4expr10FieldValueNtNtBQ_5token5CommaENtB2_12IntoIterator9into_iterBQ_, symObjAddr: 0xE0, symBinAddr: 0x36AB4, symSize: 0x18 }
  - { offset: 0xA0A64, size: 0x8, addend: 0x0, symName: __RNvXNtNtNtCsfvfooZQ3Axs_4core4iter6traits7collectINtNtCs5AlOhPCr03V_3syn10punctuated5PairsNtNtBQ_4expr21GenericMethodArgumentNtNtBQ_5token5CommaENtB2_12IntoIterator9into_iterBQ_, symObjAddr: 0xF8, symBinAddr: 0x36ACC, symSize: 0x18 }
  - { offset: 0xA0A9B, size: 0x8, addend: 0x0, symName: __RNvXNtNtNtCsfvfooZQ3Axs_4core4iter6traits7collectINtNtCs5AlOhPCr03V_3syn10punctuated5PairsNtNtBQ_4expr4ExprNtNtBQ_5token5CommaENtB2_12IntoIterator9into_iterBQ_, symObjAddr: 0x110, symBinAddr: 0x36AE4, symSize: 0x18 }
  - { offset: 0xA0AD2, size: 0x8, addend: 0x0, symName: __RNvXNtNtNtCsfvfooZQ3Axs_4core4iter6traits7collectINtNtCs5AlOhPCr03V_3syn10punctuated5PairsNtNtBQ_4item5FnArgNtNtBQ_5token5CommaENtB2_12IntoIterator9into_iterBQ_, symObjAddr: 0x128, symBinAddr: 0x36AFC, symSize: 0x18 }
  - { offset: 0xA0B09, size: 0x8, addend: 0x0, symName: __RNvXNtNtNtCsfvfooZQ3Axs_4core4iter6traits7collectINtNtCs5AlOhPCr03V_3syn10punctuated5PairsNtNtBQ_4item7UseTreeNtNtBQ_5token5CommaENtB2_12IntoIterator9into_iterBQ_, symObjAddr: 0x140, symBinAddr: 0x36B14, symSize: 0x18 }
  - { offset: 0xA0B40, size: 0x8, addend: 0x0, symName: __RNvXNtNtNtCsfvfooZQ3Axs_4core4iter6traits7collectINtNtCs5AlOhPCr03V_3syn10punctuated5PairsNtNtBQ_4path11PathSegmentNtNtBQ_5token6Colon2ENtB2_12IntoIterator9into_iterBQ_, symObjAddr: 0x158, symBinAddr: 0x36B2C, symSize: 0x18 }
  - { offset: 0xA0B77, size: 0x8, addend: 0x0, symName: __RNvXNtNtNtCsfvfooZQ3Axs_4core4iter6traits7collectINtNtCs5AlOhPCr03V_3syn10punctuated5PairsNtNtBQ_4path15GenericArgumentNtNtBQ_5token5CommaENtB2_12IntoIterator9into_iterBQ_, symObjAddr: 0x170, symBinAddr: 0x36B44, symSize: 0x18 }
  - { offset: 0xA0BAE, size: 0x8, addend: 0x0, symName: __RNvXNtNtNtCsfvfooZQ3Axs_4core4iter6traits7collectINtNtCs5AlOhPCr03V_3syn10punctuated5PairsNtNtBQ_8generics11LifetimeDefNtNtBQ_5token5CommaENtB2_12IntoIterator9into_iterBQ_, symObjAddr: 0x188, symBinAddr: 0x36B5C, symSize: 0x18 }
  - { offset: 0xA0BE5, size: 0x8, addend: 0x0, symName: __RNvXNtNtNtCsfvfooZQ3Axs_4core4iter6traits7collectINtNtCs5AlOhPCr03V_3syn10punctuated5PairsNtNtBQ_8generics12GenericParamNtNtBQ_5token5CommaENtB2_12IntoIterator9into_iterBQ_, symObjAddr: 0x1A0, symBinAddr: 0x36B74, symSize: 0x18 }
  - { offset: 0xA0C1C, size: 0x8, addend: 0x0, symName: __RNvXNtNtNtCsfvfooZQ3Axs_4core4iter6traits7collectINtNtCs5AlOhPCr03V_3syn10punctuated5PairsNtNtBQ_8generics14TypeParamBoundNtNtBQ_5token3AddENtB2_12IntoIterator9into_iterBQ_, symObjAddr: 0x1B8, symBinAddr: 0x36B8C, symSize: 0x18 }
  - { offset: 0xA0C53, size: 0x8, addend: 0x0, symName: __RNvXNtNtNtCsfvfooZQ3Axs_4core4iter6traits7collectINtNtCs5AlOhPCr03V_3syn10punctuated5PairsNtNtBQ_8generics14WherePredicateNtNtBQ_5token5CommaENtB2_12IntoIterator9into_iterBQ_, symObjAddr: 0x1D0, symBinAddr: 0x36BA4, symSize: 0x18 }
  - { offset: 0xA0C8A, size: 0x8, addend: 0x0, symName: __RNvXNtNtNtCsfvfooZQ3Axs_4core4iter6traits7collectINtNtCs5AlOhPCr03V_3syn10punctuated5PairsNtNtBQ_8lifetime8LifetimeNtNtBQ_5token3AddENtB2_12IntoIterator9into_iterBQ_, symObjAddr: 0x1E8, symBinAddr: 0x36BBC, symSize: 0x18 }
  - { offset: 0xA0CC1, size: 0x8, addend: 0x0, symName: __RNvXNtNtNtCsfvfooZQ3Axs_4core4iter6traits7collectINtNtCs5AlOhPCr03V_3syn10punctuated9IntoPairsNtNtBQ_4path11PathSegmentNtNtBQ_5token6Colon2ENtB2_12IntoIterator9into_iterBQ_, symObjAddr: 0x200, symBinAddr: 0x36BD4, symSize: 0x30 }
  - { offset: 0xA0D05, size: 0x8, addend: 0x0, symName: __RNvYINtNtCs5AlOhPCr03V_3syn10punctuated11PrivateIterNtNtB7_4path11PathSegmentNtNtB7_5token6Colon2ENtNtNtNtCsfvfooZQ3Axs_4core4iter6traits10exact_size17ExactSizeIterator8is_emptyB7_, symObjAddr: 0x9B8, symBinAddr: 0x36C2C, symSize: 0x2C }
  - { offset: 0xA0D3A, size: 0x8, addend: 0x0, symName: __RNvYINtNtCs5AlOhPCr03V_3syn10punctuated11PrivateIterNtNtB7_8generics14TypeParamBoundNtNtB7_5token3AddENtNtNtNtCsfvfooZQ3Axs_4core4iter6traits10exact_size17ExactSizeIterator8is_emptyB7_, symObjAddr: 0x1118, symBinAddr: 0x36FDC, symSize: 0x2C }
  - { offset: 0xA0D6F, size: 0x8, addend: 0x0, symName: __RNvYINtNtCs5AlOhPCr03V_3syn10punctuated14PrivateIterMutNtNtB7_4item5FnArgNtNtB7_5token5CommaENtNtNtNtCsfvfooZQ3Axs_4core4iter6traits10exact_size17ExactSizeIterator8is_emptyB7_, symObjAddr: 0x1878, symBinAddr: 0x3738C, symSize: 0x2C }
  - { offset: 0xA0DA4, size: 0x8, addend: 0x0, symName: __RNvYINtNtCs5AlOhPCr03V_3syn10punctuated14PrivateIterMutNtNtB7_4path11PathSegmentNtNtB7_5token6Colon2ENtNtNtNtCsfvfooZQ3Axs_4core4iter6traits10exact_size17ExactSizeIterator8is_emptyB7_, symObjAddr: 0x1C28, symBinAddr: 0x3773C, symSize: 0x2C }
  - { offset: 0xA0DE5, size: 0x8, addend: 0x0, symName: __RNvYINtNtCs5AlOhPCr03V_3syn10punctuated11PrivateIterNtNtB7_4path11PathSegmentNtNtB7_5token6Colon2ENtNtNtNtCsfvfooZQ3Axs_4core4iter6traits12double_ended19DoubleEndedIterator15advance_back_byB7_, symObjAddr: 0x9E4, symBinAddr: 0x36C58, symSize: 0x134 }
  - { offset: 0xA0F33, size: 0x8, addend: 0x0, symName: __RNvYINtNtCs5AlOhPCr03V_3syn10punctuated11PrivateIterNtNtB7_4path11PathSegmentNtNtB7_5token6Colon2ENtNtNtNtCsfvfooZQ3Axs_4core4iter6traits12double_ended19DoubleEndedIterator8nth_backB7_, symObjAddr: 0xB18, symBinAddr: 0x36D8C, symSize: 0x68 }
  - { offset: 0xA0FB1, size: 0x8, addend: 0x0, symName: __RNvYINtNtCs5AlOhPCr03V_3syn10punctuated11PrivateIterNtNtB7_8generics14TypeParamBoundNtNtB7_5token3AddENtNtNtNtCsfvfooZQ3Axs_4core4iter6traits12double_ended19DoubleEndedIterator15advance_back_byB7_, symObjAddr: 0x1144, symBinAddr: 0x37008, symSize: 0x134 }
  - { offset: 0xA10FF, size: 0x8, addend: 0x0, symName: __RNvYINtNtCs5AlOhPCr03V_3syn10punctuated11PrivateIterNtNtB7_8generics14TypeParamBoundNtNtB7_5token3AddENtNtNtNtCsfvfooZQ3Axs_4core4iter6traits12double_ended19DoubleEndedIterator8nth_backB7_, symObjAddr: 0x1278, symBinAddr: 0x3713C, symSize: 0x68 }
  - { offset: 0xA117D, size: 0x8, addend: 0x0, symName: __RNvYINtNtCs5AlOhPCr03V_3syn10punctuated14PrivateIterMutNtNtB7_4item5FnArgNtNtB7_5token5CommaENtNtNtNtCsfvfooZQ3Axs_4core4iter6traits12double_ended19DoubleEndedIterator15advance_back_byB7_, symObjAddr: 0x18A4, symBinAddr: 0x373B8, symSize: 0x134 }
  - { offset: 0xA12CB, size: 0x8, addend: 0x0, symName: __RNvYINtNtCs5AlOhPCr03V_3syn10punctuated14PrivateIterMutNtNtB7_4item5FnArgNtNtB7_5token5CommaENtNtNtNtCsfvfooZQ3Axs_4core4iter6traits12double_ended19DoubleEndedIterator8nth_backB7_, symObjAddr: 0x19D8, symBinAddr: 0x374EC, symSize: 0x68 }
  - { offset: 0xA1349, size: 0x8, addend: 0x0, symName: __RNvYINtNtCs5AlOhPCr03V_3syn10punctuated14PrivateIterMutNtNtB7_4path11PathSegmentNtNtB7_5token6Colon2ENtNtNtNtCsfvfooZQ3Axs_4core4iter6traits12double_ended19DoubleEndedIterator15advance_back_byB7_, symObjAddr: 0x1C54, symBinAddr: 0x37768, symSize: 0x134 }
  - { offset: 0xA1497, size: 0x8, addend: 0x0, symName: __RNvYINtNtCs5AlOhPCr03V_3syn10punctuated14PrivateIterMutNtNtB7_4path11PathSegmentNtNtB7_5token6Colon2ENtNtNtNtCsfvfooZQ3Axs_4core4iter6traits12double_ended19DoubleEndedIterator8nth_backB7_, symObjAddr: 0x1D88, symBinAddr: 0x3789C, symSize: 0x68 }
  - { offset: 0xA3120, size: 0x8, addend: 0x0, symName: __RNvMNtCs5AlOhPCr03V_3syn10punctuatedINtB2_10PunctuatedNtNtB4_2ty4TypeNtNtB4_5token5CommaE3newB4_, symObjAddr: 0x258C, symBinAddr: 0x37CF0, symSize: 0x54 }
  - { offset: 0xA3146, size: 0x8, addend: 0x0, symName: __RNvMNtCs5AlOhPCr03V_3syn10punctuatedINtB2_10PunctuatedNtNtB4_2ty9BareFnArgNtNtB4_5token5CommaE3newB4_, symObjAddr: 0x25E0, symBinAddr: 0x37D44, symSize: 0x54 }
  - { offset: 0xA316C, size: 0x8, addend: 0x0, symName: __RNvMNtCs5AlOhPCr03V_3syn10punctuatedINtB2_10PunctuatedNtNtB4_3pat3PatNtNtB4_5token2OrE3newB4_, symObjAddr: 0x2634, symBinAddr: 0x37D98, symSize: 0x54 }
  - { offset: 0xA3192, size: 0x8, addend: 0x0, symName: __RNvMNtCs5AlOhPCr03V_3syn10punctuatedINtB2_10PunctuatedNtNtB4_3pat3PatNtNtB4_5token5CommaE3newB4_, symObjAddr: 0x2688, symBinAddr: 0x37DEC, symSize: 0x54 }
  - { offset: 0xA31B8, size: 0x8, addend: 0x0, symName: __RNvMNtCs5AlOhPCr03V_3syn10punctuatedINtB2_10PunctuatedNtNtB4_3pat8FieldPatNtNtB4_5token5CommaE3newB4_, symObjAddr: 0x26DC, symBinAddr: 0x37E40, symSize: 0x54 }
  - { offset: 0xA31DE, size: 0x8, addend: 0x0, symName: __RNvMNtCs5AlOhPCr03V_3syn10punctuatedINtB2_10PunctuatedNtNtB4_4data5FieldNtNtB4_5token5CommaE3newB4_, symObjAddr: 0x2784, symBinAddr: 0x37E94, symSize: 0x54 }
  - { offset: 0xA3204, size: 0x8, addend: 0x0, symName: __RNvMNtCs5AlOhPCr03V_3syn10punctuatedINtB2_10PunctuatedNtNtB4_4data7VariantNtNtB4_5token5CommaE3newB4_, symObjAddr: 0x282C, symBinAddr: 0x37EE8, symSize: 0x54 }
  - { offset: 0xA322A, size: 0x8, addend: 0x0, symName: __RNvMNtCs5AlOhPCr03V_3syn10punctuatedINtB2_10PunctuatedNtNtB4_4expr10FieldValueNtNtB4_5token5CommaE3newB4_, symObjAddr: 0x2880, symBinAddr: 0x37F3C, symSize: 0x54 }
  - { offset: 0xA3250, size: 0x8, addend: 0x0, symName: __RNvMNtCs5AlOhPCr03V_3syn10punctuatedINtB2_10PunctuatedNtNtB4_4expr21GenericMethodArgumentNtNtB4_5token5CommaE3newB4_, symObjAddr: 0x28D4, symBinAddr: 0x37F90, symSize: 0x54 }
  - { offset: 0xA3276, size: 0x8, addend: 0x0, symName: __RNvMNtCs5AlOhPCr03V_3syn10punctuatedINtB2_10PunctuatedNtNtB4_4expr4ExprNtNtB4_5token5CommaE3newB4_, symObjAddr: 0x2928, symBinAddr: 0x37FE4, symSize: 0x54 }
  - { offset: 0xA329C, size: 0x8, addend: 0x0, symName: __RNvMNtCs5AlOhPCr03V_3syn10punctuatedINtB2_10PunctuatedNtNtB4_4item5FnArgNtNtB4_5token5CommaE3newB4_, symObjAddr: 0x297C, symBinAddr: 0x38038, symSize: 0x54 }
  - { offset: 0xA32C2, size: 0x8, addend: 0x0, symName: __RNvMNtCs5AlOhPCr03V_3syn10punctuatedINtB2_10PunctuatedNtNtB4_4item7UseTreeNtNtB4_5token5CommaE3newB4_, symObjAddr: 0x29D0, symBinAddr: 0x3808C, symSize: 0x54 }
  - { offset: 0xA32E8, size: 0x8, addend: 0x0, symName: __RNvMNtCs5AlOhPCr03V_3syn10punctuatedINtB2_10PunctuatedNtNtB4_4path11PathSegmentNtNtB4_5token6Colon2E3newB4_, symObjAddr: 0x2A24, symBinAddr: 0x380E0, symSize: 0x54 }
  - { offset: 0xA330E, size: 0x8, addend: 0x0, symName: __RNvMNtCs5AlOhPCr03V_3syn10punctuatedINtB2_10PunctuatedNtNtB4_4path15GenericArgumentNtNtB4_5token5CommaE3newB4_, symObjAddr: 0x2A78, symBinAddr: 0x38134, symSize: 0x54 }
  - { offset: 0xA3334, size: 0x8, addend: 0x0, symName: __RNvMNtCs5AlOhPCr03V_3syn10punctuatedINtB2_10PunctuatedNtNtB4_8generics11LifetimeDefNtNtB4_5token5CommaE3newB4_, symObjAddr: 0x2ACC, symBinAddr: 0x38188, symSize: 0x54 }
  - { offset: 0xA335A, size: 0x8, addend: 0x0, symName: __RNvMNtCs5AlOhPCr03V_3syn10punctuatedINtB2_10PunctuatedNtNtB4_8generics12GenericParamNtNtB4_5token5CommaE3newB4_, symObjAddr: 0x2B20, symBinAddr: 0x381DC, symSize: 0x54 }
  - { offset: 0xA3380, size: 0x8, addend: 0x0, symName: __RNvMNtCs5AlOhPCr03V_3syn10punctuatedINtB2_10PunctuatedNtNtB4_8generics14TypeParamBoundNtNtB4_5token3AddE3newB4_, symObjAddr: 0x2B74, symBinAddr: 0x38230, symSize: 0x54 }
  - { offset: 0xA33A6, size: 0x8, addend: 0x0, symName: __RNvMNtCs5AlOhPCr03V_3syn10punctuatedINtB2_10PunctuatedNtNtB4_8generics14WherePredicateNtNtB4_5token5CommaE3newB4_, symObjAddr: 0x2BC8, symBinAddr: 0x38284, symSize: 0x54 }
  - { offset: 0xA33CC, size: 0x8, addend: 0x0, symName: __RNvMNtCs5AlOhPCr03V_3syn10punctuatedINtB2_10PunctuatedNtNtB4_8lifetime8LifetimeNtNtB4_5token3AddE3newB4_, symObjAddr: 0x2C1C, symBinAddr: 0x382D8, symSize: 0x54 }
  - { offset: 0xA340C, size: 0x8, addend: 0x0, symName: __RNvMNtCs5AlOhPCr03V_3syn10punctuatedINtB2_10PunctuatedNtNtB4_4expr4ExprNtNtB4_5token5CommaE8is_emptyB4_, symObjAddr: 0x2CE4, symBinAddr: 0x3832C, symSize: 0x74 }
  - { offset: 0xA344D, size: 0x8, addend: 0x0, symName: __RNvMNtCs5AlOhPCr03V_3syn10punctuatedINtB2_10PunctuatedNtNtB4_4item5FnArgNtNtB4_5token5CommaE8is_emptyB4_, symObjAddr: 0x2D58, symBinAddr: 0x383A0, symSize: 0x74 }
  - { offset: 0xA348E, size: 0x8, addend: 0x0, symName: __RNvMNtCs5AlOhPCr03V_3syn10punctuatedINtB2_10PunctuatedNtNtB4_4path11PathSegmentNtNtB4_5token6Colon2E8is_emptyB4_, symObjAddr: 0x2DCC, symBinAddr: 0x38414, symSize: 0x74 }
  - { offset: 0xA34CF, size: 0x8, addend: 0x0, symName: __RNvMNtCs5AlOhPCr03V_3syn10punctuatedINtB2_10PunctuatedNtNtB4_4path15GenericArgumentNtNtB4_5token5CommaE8is_emptyB4_, symObjAddr: 0x2E40, symBinAddr: 0x38488, symSize: 0x74 }
  - { offset: 0xA3510, size: 0x8, addend: 0x0, symName: __RNvMNtCs5AlOhPCr03V_3syn10punctuatedINtB2_10PunctuatedNtNtB4_8generics12GenericParamNtNtB4_5token5CommaE8is_emptyB4_, symObjAddr: 0x2EB4, symBinAddr: 0x384FC, symSize: 0x74 }
  - { offset: 0xA3551, size: 0x8, addend: 0x0, symName: __RNvMNtCs5AlOhPCr03V_3syn10punctuatedINtB2_10PunctuatedNtNtB4_8generics14TypeParamBoundNtNtB4_5token3AddE8is_emptyB4_, symObjAddr: 0x2F28, symBinAddr: 0x38570, symSize: 0x74 }
  - { offset: 0xA3592, size: 0x8, addend: 0x0, symName: __RNvMNtCs5AlOhPCr03V_3syn10punctuatedINtB2_10PunctuatedNtNtB4_8generics14WherePredicateNtNtB4_5token5CommaE8is_emptyB4_, symObjAddr: 0x2F9C, symBinAddr: 0x385E4, symSize: 0x74 }
  - { offset: 0xA35D3, size: 0x8, addend: 0x0, symName: __RNvMNtCs5AlOhPCr03V_3syn10punctuatedINtB2_10PunctuatedNtNtB4_8lifetime8LifetimeNtNtB4_5token3AddE8is_emptyB4_, symObjAddr: 0x3010, symBinAddr: 0x38658, symSize: 0x74 }
  - { offset: 0xA3607, size: 0x8, addend: 0x0, symName: __RNvMNtCs5AlOhPCr03V_3syn10punctuatedINtB2_10PunctuatedNtNtB4_4expr4ExprNtNtB4_5token5CommaE3lenB4_, symObjAddr: 0x31C4, symBinAddr: 0x386CC, symSize: 0xA0 }
  - { offset: 0xA363B, size: 0x8, addend: 0x0, symName: __RNvMNtCs5AlOhPCr03V_3syn10punctuatedINtB2_10PunctuatedNtNtB4_4path11PathSegmentNtNtB4_5token6Colon2E3lenB4_, symObjAddr: 0x3264, symBinAddr: 0x3876C, symSize: 0xA0 }
  - { offset: 0xA366F, size: 0x8, addend: 0x0, symName: __RNvMNtCs5AlOhPCr03V_3syn10punctuatedINtB2_10PunctuatedNtNtB4_8generics14TypeParamBoundNtNtB4_5token3AddE3lenB4_, symObjAddr: 0x3304, symBinAddr: 0x3880C, symSize: 0xA0 }
  - { offset: 0xA36A3, size: 0x8, addend: 0x0, symName: __RNvMNtCs5AlOhPCr03V_3syn10punctuatedINtB2_10PunctuatedNtNtB4_4path11PathSegmentNtNtB4_5token6Colon2E4lastB4_, symObjAddr: 0x3428, symBinAddr: 0x388AC, symSize: 0x84 }
  - { offset: 0xA36E4, size: 0x8, addend: 0x0, symName: __RNvMNtCs5AlOhPCr03V_3syn10punctuatedINtB2_10PunctuatedNtNtB4_4item5FnArgNtNtB4_5token5CommaE8last_mutB4_, symObjAddr: 0x34AC, symBinAddr: 0x38930, symSize: 0x84 }
  - { offset: 0xA3725, size: 0x8, addend: 0x0, symName: __RNvMNtCs5AlOhPCr03V_3syn10punctuatedINtB2_10PunctuatedNtNtB4_4path11PathSegmentNtNtB4_5token6Colon2E8last_mutB4_, symObjAddr: 0x3530, symBinAddr: 0x389B4, symSize: 0x84 }
  - { offset: 0xA380A, size: 0x8, addend: 0x0, symName: __RNvMNtCs5AlOhPCr03V_3syn10punctuatedINtB2_10PunctuatedNtNtB4_4path11PathSegmentNtNtB4_5token6Colon2E4iterB4_, symObjAddr: 0x3744, symBinAddr: 0x38A38, symSize: 0xC8 }
  - { offset: 0xA38C4, size: 0x8, addend: 0x0, symName: __RNvMNtCs5AlOhPCr03V_3syn10punctuatedINtB2_10PunctuatedNtNtB4_8generics14TypeParamBoundNtNtB4_5token3AddE4iterB4_, symObjAddr: 0x38D4, symBinAddr: 0x38B00, symSize: 0xC8 }
  - { offset: 0xA39A5, size: 0x8, addend: 0x0, symName: __RNvMNtCs5AlOhPCr03V_3syn10punctuatedINtB2_10PunctuatedNtNtB4_4item5FnArgNtNtB4_5token5CommaE8iter_mutB4_, symObjAddr: 0x3A64, symBinAddr: 0x38BC8, symSize: 0xC8 }
  - { offset: 0xA3A31, size: 0x8, addend: 0x0, symName: __RNvMNtCs5AlOhPCr03V_3syn10punctuatedINtB2_10PunctuatedNtNtB4_4path11PathSegmentNtNtB4_5token6Colon2E8iter_mutB4_, symObjAddr: 0x3B2C, symBinAddr: 0x38C90, symSize: 0xC8 }
  - { offset: 0xA3AF1, size: 0x8, addend: 0x0, symName: __RNvMNtCs5AlOhPCr03V_3syn10punctuatedINtB2_10PunctuatedNtNtB4_2ty4TypeNtNtB4_5token5CommaE5pairsB4_, symObjAddr: 0x3CBC, symBinAddr: 0x38D58, symSize: 0x74 }
  - { offset: 0xA3B59, size: 0x8, addend: 0x0, symName: __RNvMNtCs5AlOhPCr03V_3syn10punctuatedINtB2_10PunctuatedNtNtB4_2ty9BareFnArgNtNtB4_5token5CommaE5pairsB4_, symObjAddr: 0x3D30, symBinAddr: 0x38DCC, symSize: 0x74 }
  - { offset: 0xA3BC1, size: 0x8, addend: 0x0, symName: __RNvMNtCs5AlOhPCr03V_3syn10punctuatedINtB2_10PunctuatedNtNtB4_3pat3PatNtNtB4_5token2OrE5pairsB4_, symObjAddr: 0x3DA4, symBinAddr: 0x38E40, symSize: 0x74 }
  - { offset: 0xA3C1C, size: 0x8, addend: 0x0, symName: __RNvMNtCs5AlOhPCr03V_3syn10punctuatedINtB2_10PunctuatedNtNtB4_3pat3PatNtNtB4_5token5CommaE5pairsB4_, symObjAddr: 0x3E18, symBinAddr: 0x38EB4, symSize: 0x74 }
  - { offset: 0xA3C84, size: 0x8, addend: 0x0, symName: __RNvMNtCs5AlOhPCr03V_3syn10punctuatedINtB2_10PunctuatedNtNtB4_3pat8FieldPatNtNtB4_5token5CommaE5pairsB4_, symObjAddr: 0x3E8C, symBinAddr: 0x38F28, symSize: 0x74 }
  - { offset: 0xA3CB8, size: 0x8, addend: 0x0, symName: __RNvMNtCs5AlOhPCr03V_3syn10punctuatedINtB2_10PunctuatedNtNtB4_4data5FieldNtNtB4_5token5CommaE5pairsB4_, symObjAddr: 0x3F74, symBinAddr: 0x38F9C, symSize: 0x74 }
  - { offset: 0xA3D20, size: 0x8, addend: 0x0, symName: __RNvMNtCs5AlOhPCr03V_3syn10punctuatedINtB2_10PunctuatedNtNtB4_4data7VariantNtNtB4_5token5CommaE5pairsB4_, symObjAddr: 0x3FE8, symBinAddr: 0x39010, symSize: 0x74 }
  - { offset: 0xA3D88, size: 0x8, addend: 0x0, symName: __RNvMNtCs5AlOhPCr03V_3syn10punctuatedINtB2_10PunctuatedNtNtB4_4expr10FieldValueNtNtB4_5token5CommaE5pairsB4_, symObjAddr: 0x405C, symBinAddr: 0x39084, symSize: 0x74 }
  - { offset: 0xA3DF0, size: 0x8, addend: 0x0, symName: __RNvMNtCs5AlOhPCr03V_3syn10punctuatedINtB2_10PunctuatedNtNtB4_4expr21GenericMethodArgumentNtNtB4_5token5CommaE5pairsB4_, symObjAddr: 0x40D0, symBinAddr: 0x390F8, symSize: 0x74 }
  - { offset: 0xA3E4B, size: 0x8, addend: 0x0, symName: __RNvMNtCs5AlOhPCr03V_3syn10punctuatedINtB2_10PunctuatedNtNtB4_4expr4ExprNtNtB4_5token5CommaE5pairsB4_, symObjAddr: 0x4144, symBinAddr: 0x3916C, symSize: 0x74 }
  - { offset: 0xA3E7F, size: 0x8, addend: 0x0, symName: __RNvMNtCs5AlOhPCr03V_3syn10punctuatedINtB2_10PunctuatedNtNtB4_4item5FnArgNtNtB4_5token5CommaE5pairsB4_, symObjAddr: 0x41B8, symBinAddr: 0x391E0, symSize: 0x74 }
  - { offset: 0xA3EE7, size: 0x8, addend: 0x0, symName: __RNvMNtCs5AlOhPCr03V_3syn10punctuatedINtB2_10PunctuatedNtNtB4_4item7UseTreeNtNtB4_5token5CommaE5pairsB4_, symObjAddr: 0x422C, symBinAddr: 0x39254, symSize: 0x74 }
  - { offset: 0xA3F1B, size: 0x8, addend: 0x0, symName: __RNvMNtCs5AlOhPCr03V_3syn10punctuatedINtB2_10PunctuatedNtNtB4_4path11PathSegmentNtNtB4_5token6Colon2E5pairsB4_, symObjAddr: 0x42A0, symBinAddr: 0x392C8, symSize: 0x74 }
  - { offset: 0xA3F76, size: 0x8, addend: 0x0, symName: __RNvMNtCs5AlOhPCr03V_3syn10punctuatedINtB2_10PunctuatedNtNtB4_4path15GenericArgumentNtNtB4_5token5CommaE5pairsB4_, symObjAddr: 0x4314, symBinAddr: 0x3933C, symSize: 0x74 }
  - { offset: 0xA3FDE, size: 0x8, addend: 0x0, symName: __RNvMNtCs5AlOhPCr03V_3syn10punctuatedINtB2_10PunctuatedNtNtB4_8generics11LifetimeDefNtNtB4_5token5CommaE5pairsB4_, symObjAddr: 0x4388, symBinAddr: 0x393B0, symSize: 0x74 }
  - { offset: 0xA4012, size: 0x8, addend: 0x0, symName: __RNvMNtCs5AlOhPCr03V_3syn10punctuatedINtB2_10PunctuatedNtNtB4_8generics12GenericParamNtNtB4_5token5CommaE5pairsB4_, symObjAddr: 0x43FC, symBinAddr: 0x39424, symSize: 0x74 }
  - { offset: 0xA4046, size: 0x8, addend: 0x0, symName: __RNvMNtCs5AlOhPCr03V_3syn10punctuatedINtB2_10PunctuatedNtNtB4_8generics14TypeParamBoundNtNtB4_5token3AddE5pairsB4_, symObjAddr: 0x4470, symBinAddr: 0x39498, symSize: 0x74 }
  - { offset: 0xA40A1, size: 0x8, addend: 0x0, symName: __RNvMNtCs5AlOhPCr03V_3syn10punctuatedINtB2_10PunctuatedNtNtB4_8generics14WherePredicateNtNtB4_5token5CommaE5pairsB4_, symObjAddr: 0x44E4, symBinAddr: 0x3950C, symSize: 0x74 }
  - { offset: 0xA40FC, size: 0x8, addend: 0x0, symName: __RNvMNtCs5AlOhPCr03V_3syn10punctuatedINtB2_10PunctuatedNtNtB4_8lifetime8LifetimeNtNtB4_5token3AddE5pairsB4_, symObjAddr: 0x4558, symBinAddr: 0x39580, symSize: 0x74 }
  - { offset: 0xA4130, size: 0x8, addend: 0x0, symName: __RNvMNtCs5AlOhPCr03V_3syn10punctuatedINtB2_10PunctuatedNtNtB4_4path11PathSegmentNtNtB4_5token6Colon2E9pairs_mutB4_, symObjAddr: 0x45CC, symBinAddr: 0x395F4, symSize: 0x74 }
  - { offset: 0xA4164, size: 0x8, addend: 0x0, symName: __RNvMNtCs5AlOhPCr03V_3syn10punctuatedINtB2_10PunctuatedNtNtB4_4path11PathSegmentNtNtB4_5token6Colon2E10into_pairsB4_, symObjAddr: 0x4640, symBinAddr: 0x39668, symSize: 0x108 }
  - { offset: 0xA41A6, size: 0x8, addend: 0x0, symName: __RNvMNtCs5AlOhPCr03V_3syn10punctuatedINtB2_10PunctuatedNtNtB4_2ty4TypeNtNtB4_5token5CommaE10push_valueB4_, symObjAddr: 0x47E0, symBinAddr: 0x39808, symSize: 0x1AC }
  - { offset: 0xA4214, size: 0x8, addend: 0x0, symName: __RNvMNtCs5AlOhPCr03V_3syn10punctuatedINtB2_10PunctuatedNtNtB4_2ty9BareFnArgNtNtB4_5token5CommaE10push_valueB4_, symObjAddr: 0x498C, symBinAddr: 0x399B4, symSize: 0x1AC }
  - { offset: 0xA4282, size: 0x8, addend: 0x0, symName: __RNvMNtCs5AlOhPCr03V_3syn10punctuatedINtB2_10PunctuatedNtNtB4_3pat3PatNtNtB4_5token2OrE10push_valueB4_, symObjAddr: 0x4B38, symBinAddr: 0x39B60, symSize: 0x1AC }
  - { offset: 0xA42F0, size: 0x8, addend: 0x0, symName: __RNvMNtCs5AlOhPCr03V_3syn10punctuatedINtB2_10PunctuatedNtNtB4_3pat3PatNtNtB4_5token5CommaE10push_valueB4_, symObjAddr: 0x4CE4, symBinAddr: 0x39D0C, symSize: 0x1AC }
  - { offset: 0xA435E, size: 0x8, addend: 0x0, symName: __RNvMNtCs5AlOhPCr03V_3syn10punctuatedINtB2_10PunctuatedNtNtB4_3pat8FieldPatNtNtB4_5token5CommaE10push_valueB4_, symObjAddr: 0x4E90, symBinAddr: 0x39EB8, symSize: 0x1A4 }
  - { offset: 0xA43BF, size: 0x8, addend: 0x0, symName: __RNvMNtCs5AlOhPCr03V_3syn10punctuatedINtB2_10PunctuatedNtNtB4_4data5FieldNtNtB4_5token5CommaE10push_valueB4_, symObjAddr: 0x51D8, symBinAddr: 0x3A05C, symSize: 0x1AC }
  - { offset: 0xA442D, size: 0x8, addend: 0x0, symName: __RNvMNtCs5AlOhPCr03V_3syn10punctuatedINtB2_10PunctuatedNtNtB4_4data7VariantNtNtB4_5token5CommaE10push_valueB4_, symObjAddr: 0x5384, symBinAddr: 0x3A208, symSize: 0x1AC }
  - { offset: 0xA449B, size: 0x8, addend: 0x0, symName: __RNvMNtCs5AlOhPCr03V_3syn10punctuatedINtB2_10PunctuatedNtNtB4_4expr10FieldValueNtNtB4_5token5CommaE10push_valueB4_, symObjAddr: 0x5530, symBinAddr: 0x3A3B4, symSize: 0x1AC }
  - { offset: 0xA4509, size: 0x8, addend: 0x0, symName: __RNvMNtCs5AlOhPCr03V_3syn10punctuatedINtB2_10PunctuatedNtNtB4_4expr21GenericMethodArgumentNtNtB4_5token5CommaE10push_valueB4_, symObjAddr: 0x56DC, symBinAddr: 0x3A560, symSize: 0x1AC }
  - { offset: 0xA4577, size: 0x8, addend: 0x0, symName: __RNvMNtCs5AlOhPCr03V_3syn10punctuatedINtB2_10PunctuatedNtNtB4_4expr4ExprNtNtB4_5token5CommaE10push_valueB4_, symObjAddr: 0x5888, symBinAddr: 0x3A70C, symSize: 0x1AC }
  - { offset: 0xA45D8, size: 0x8, addend: 0x0, symName: __RNvMNtCs5AlOhPCr03V_3syn10punctuatedINtB2_10PunctuatedNtNtB4_4item5FnArgNtNtB4_5token5CommaE10push_valueB4_, symObjAddr: 0x5A34, symBinAddr: 0x3A8B8, symSize: 0x1A4 }
  - { offset: 0xA4646, size: 0x8, addend: 0x0, symName: __RNvMNtCs5AlOhPCr03V_3syn10punctuatedINtB2_10PunctuatedNtNtB4_4item7UseTreeNtNtB4_5token5CommaE10push_valueB4_, symObjAddr: 0x5BD8, symBinAddr: 0x3AA5C, symSize: 0x1A4 }
  - { offset: 0xA46A7, size: 0x8, addend: 0x0, symName: __RNvMNtCs5AlOhPCr03V_3syn10punctuatedINtB2_10PunctuatedNtNtB4_4path11PathSegmentNtNtB4_5token6Colon2E10push_valueB4_, symObjAddr: 0x5D7C, symBinAddr: 0x3AC00, symSize: 0x1A4 }
  - { offset: 0xA4715, size: 0x8, addend: 0x0, symName: __RNvMNtCs5AlOhPCr03V_3syn10punctuatedINtB2_10PunctuatedNtNtB4_4path15GenericArgumentNtNtB4_5token5CommaE10push_valueB4_, symObjAddr: 0x5F20, symBinAddr: 0x3ADA4, symSize: 0x1AC }
  - { offset: 0xA4783, size: 0x8, addend: 0x0, symName: __RNvMNtCs5AlOhPCr03V_3syn10punctuatedINtB2_10PunctuatedNtNtB4_8generics11LifetimeDefNtNtB4_5token5CommaE10push_valueB4_, symObjAddr: 0x60CC, symBinAddr: 0x3AF50, symSize: 0x1A4 }
  - { offset: 0xA47E4, size: 0x8, addend: 0x0, symName: __RNvMNtCs5AlOhPCr03V_3syn10punctuatedINtB2_10PunctuatedNtNtB4_8generics12GenericParamNtNtB4_5token5CommaE10push_valueB4_, symObjAddr: 0x6270, symBinAddr: 0x3B0F4, symSize: 0x1AC }
  - { offset: 0xA4852, size: 0x8, addend: 0x0, symName: __RNvMNtCs5AlOhPCr03V_3syn10punctuatedINtB2_10PunctuatedNtNtB4_8generics14TypeParamBoundNtNtB4_5token3AddE10push_valueB4_, symObjAddr: 0x641C, symBinAddr: 0x3B2A0, symSize: 0x1AC }
  - { offset: 0xA48C0, size: 0x8, addend: 0x0, symName: __RNvMNtCs5AlOhPCr03V_3syn10punctuatedINtB2_10PunctuatedNtNtB4_8generics14WherePredicateNtNtB4_5token5CommaE10push_valueB4_, symObjAddr: 0x65C8, symBinAddr: 0x3B44C, symSize: 0x1AC }
  - { offset: 0xA492E, size: 0x8, addend: 0x0, symName: __RNvMNtCs5AlOhPCr03V_3syn10punctuatedINtB2_10PunctuatedNtNtB4_8lifetime8LifetimeNtNtB4_5token3AddE10push_valueB4_, symObjAddr: 0x6774, symBinAddr: 0x3B5F8, symSize: 0x19C }
  - { offset: 0xA49E5, size: 0x8, addend: 0x0, symName: __RNvMNtCs5AlOhPCr03V_3syn10punctuatedINtB2_10PunctuatedNtNtB4_2ty4TypeNtNtB4_5token5CommaE10push_punctB4_, symObjAddr: 0x6910, symBinAddr: 0x3B794, symSize: 0x1F8 }
  - { offset: 0xA4A8E, size: 0x8, addend: 0x0, symName: __RNvMNtCs5AlOhPCr03V_3syn10punctuatedINtB2_10PunctuatedNtNtB4_2ty9BareFnArgNtNtB4_5token5CommaE10push_punctB4_, symObjAddr: 0x6B08, symBinAddr: 0x3B98C, symSize: 0x1F8 }
  - { offset: 0xA4B37, size: 0x8, addend: 0x0, symName: __RNvMNtCs5AlOhPCr03V_3syn10punctuatedINtB2_10PunctuatedNtNtB4_3pat3PatNtNtB4_5token2OrE10push_punctB4_, symObjAddr: 0x6D00, symBinAddr: 0x3BB84, symSize: 0x1F8 }
  - { offset: 0xA4BB5, size: 0x8, addend: 0x0, symName: __RNvMNtCs5AlOhPCr03V_3syn10punctuatedINtB2_10PunctuatedNtNtB4_3pat3PatNtNtB4_5token5CommaE10push_punctB4_, symObjAddr: 0x6EF8, symBinAddr: 0x3BD7C, symSize: 0x1F8 }
  - { offset: 0xA4C5E, size: 0x8, addend: 0x0, symName: __RNvMNtCs5AlOhPCr03V_3syn10punctuatedINtB2_10PunctuatedNtNtB4_3pat8FieldPatNtNtB4_5token5CommaE10push_punctB4_, symObjAddr: 0x70F0, symBinAddr: 0x3BF74, symSize: 0x1F8 }
  - { offset: 0xA4D07, size: 0x8, addend: 0x0, symName: __RNvMNtCs5AlOhPCr03V_3syn10punctuatedINtB2_10PunctuatedNtNtB4_4data5FieldNtNtB4_5token5CommaE10push_punctB4_, symObjAddr: 0x74E0, symBinAddr: 0x3C16C, symSize: 0x1F8 }
  - { offset: 0xA4DB0, size: 0x8, addend: 0x0, symName: __RNvMNtCs5AlOhPCr03V_3syn10punctuatedINtB2_10PunctuatedNtNtB4_4data7VariantNtNtB4_5token5CommaE10push_punctB4_, symObjAddr: 0x76D8, symBinAddr: 0x3C364, symSize: 0x1F8 }
  - { offset: 0xA4E59, size: 0x8, addend: 0x0, symName: __RNvMNtCs5AlOhPCr03V_3syn10punctuatedINtB2_10PunctuatedNtNtB4_4expr10FieldValueNtNtB4_5token5CommaE10push_punctB4_, symObjAddr: 0x78D0, symBinAddr: 0x3C55C, symSize: 0x1F8 }
  - { offset: 0xA4F02, size: 0x8, addend: 0x0, symName: __RNvMNtCs5AlOhPCr03V_3syn10punctuatedINtB2_10PunctuatedNtNtB4_4expr21GenericMethodArgumentNtNtB4_5token5CommaE10push_punctB4_, symObjAddr: 0x7AC8, symBinAddr: 0x3C754, symSize: 0x1F8 }
  - { offset: 0xA4FAB, size: 0x8, addend: 0x0, symName: __RNvMNtCs5AlOhPCr03V_3syn10punctuatedINtB2_10PunctuatedNtNtB4_4expr4ExprNtNtB4_5token5CommaE10push_punctB4_, symObjAddr: 0x7CC0, symBinAddr: 0x3C94C, symSize: 0x1F8 }
  - { offset: 0xA5054, size: 0x8, addend: 0x0, symName: __RNvMNtCs5AlOhPCr03V_3syn10punctuatedINtB2_10PunctuatedNtNtB4_4item5FnArgNtNtB4_5token5CommaE10push_punctB4_, symObjAddr: 0x7EB8, symBinAddr: 0x3CB44, symSize: 0x1F8 }
  - { offset: 0xA50FD, size: 0x8, addend: 0x0, symName: __RNvMNtCs5AlOhPCr03V_3syn10punctuatedINtB2_10PunctuatedNtNtB4_4item7UseTreeNtNtB4_5token5CommaE10push_punctB4_, symObjAddr: 0x80B0, symBinAddr: 0x3CD3C, symSize: 0x1F8 }
  - { offset: 0xA51A6, size: 0x8, addend: 0x0, symName: __RNvMNtCs5AlOhPCr03V_3syn10punctuatedINtB2_10PunctuatedNtNtB4_4path11PathSegmentNtNtB4_5token6Colon2E10push_punctB4_, symObjAddr: 0x82A8, symBinAddr: 0x3CF34, symSize: 0x1F8 }
  - { offset: 0xA524F, size: 0x8, addend: 0x0, symName: __RNvMNtCs5AlOhPCr03V_3syn10punctuatedINtB2_10PunctuatedNtNtB4_4path15GenericArgumentNtNtB4_5token5CommaE10push_punctB4_, symObjAddr: 0x84A0, symBinAddr: 0x3D12C, symSize: 0x1F8 }
  - { offset: 0xA52F8, size: 0x8, addend: 0x0, symName: __RNvMNtCs5AlOhPCr03V_3syn10punctuatedINtB2_10PunctuatedNtNtB4_8generics11LifetimeDefNtNtB4_5token5CommaE10push_punctB4_, symObjAddr: 0x8698, symBinAddr: 0x3D324, symSize: 0x1F8 }
  - { offset: 0xA53A1, size: 0x8, addend: 0x0, symName: __RNvMNtCs5AlOhPCr03V_3syn10punctuatedINtB2_10PunctuatedNtNtB4_8generics12GenericParamNtNtB4_5token5CommaE10push_punctB4_, symObjAddr: 0x8890, symBinAddr: 0x3D51C, symSize: 0x1FC }
  - { offset: 0xA544A, size: 0x8, addend: 0x0, symName: __RNvMNtCs5AlOhPCr03V_3syn10punctuatedINtB2_10PunctuatedNtNtB4_8generics14TypeParamBoundNtNtB4_5token3AddE10push_punctB4_, symObjAddr: 0x8A8C, symBinAddr: 0x3D718, symSize: 0x1F8 }
  - { offset: 0xA54F3, size: 0x8, addend: 0x0, symName: __RNvMNtCs5AlOhPCr03V_3syn10punctuatedINtB2_10PunctuatedNtNtB4_8generics14WherePredicateNtNtB4_5token5CommaE10push_punctB4_, symObjAddr: 0x8C84, symBinAddr: 0x3D910, symSize: 0x1FC }
  - { offset: 0xA559C, size: 0x8, addend: 0x0, symName: __RNvMNtCs5AlOhPCr03V_3syn10punctuatedINtB2_10PunctuatedNtNtB4_8lifetime8LifetimeNtNtB4_5token3AddE10push_punctB4_, symObjAddr: 0x8E80, symBinAddr: 0x3DB0C, symSize: 0x1E8 }
  - { offset: 0xA5618, size: 0x8, addend: 0x0, symName: __RNvMNtCs5AlOhPCr03V_3syn10punctuatedINtB2_10PunctuatedNtNtB4_4item5FnArgNtNtB4_5token5CommaE3popB4_, symObjAddr: 0x9068, symBinAddr: 0x3DCF4, symSize: 0x90 }
  - { offset: 0xA564C, size: 0x8, addend: 0x0, symName: __RNvMNtCs5AlOhPCr03V_3syn10punctuatedINtB2_10PunctuatedNtNtB4_4expr4ExprNtNtB4_5token5CommaE14trailing_punctB4_, symObjAddr: 0x922C, symBinAddr: 0x3DEB8, symSize: 0x80 }
  - { offset: 0xA5680, size: 0x8, addend: 0x0, symName: __RNvMNtCs5AlOhPCr03V_3syn10punctuatedINtB2_10PunctuatedNtNtB4_4item5FnArgNtNtB4_5token5CommaE14trailing_punctB4_, symObjAddr: 0x92AC, symBinAddr: 0x3DF38, symSize: 0x80 }
  - { offset: 0xA56B4, size: 0x8, addend: 0x0, symName: __RNvMNtCs5AlOhPCr03V_3syn10punctuatedINtB2_10PunctuatedNtNtB4_4path11PathSegmentNtNtB4_5token6Colon2E14trailing_punctB4_, symObjAddr: 0x932C, symBinAddr: 0x3DFB8, symSize: 0x80 }
  - { offset: 0xA56E8, size: 0x8, addend: 0x0, symName: __RNvMNtCs5AlOhPCr03V_3syn10punctuatedINtB2_10PunctuatedNtNtB4_8generics14TypeParamBoundNtNtB4_5token3AddE14trailing_punctB4_, symObjAddr: 0x93AC, symBinAddr: 0x3E038, symSize: 0x80 }
  - { offset: 0xA571C, size: 0x8, addend: 0x0, symName: __RNvMNtCs5AlOhPCr03V_3syn10punctuatedINtB2_10PunctuatedNtNtB4_2ty4TypeNtNtB4_5token5CommaE17empty_or_trailingB4_, symObjAddr: 0x942C, symBinAddr: 0x3E0B8, symSize: 0x34 }
  - { offset: 0xA5750, size: 0x8, addend: 0x0, symName: __RNvMNtCs5AlOhPCr03V_3syn10punctuatedINtB2_10PunctuatedNtNtB4_2ty9BareFnArgNtNtB4_5token5CommaE17empty_or_trailingB4_, symObjAddr: 0x9460, symBinAddr: 0x3E0EC, symSize: 0x34 }
  - { offset: 0xA5784, size: 0x8, addend: 0x0, symName: __RNvMNtCs5AlOhPCr03V_3syn10punctuatedINtB2_10PunctuatedNtNtB4_3pat3PatNtNtB4_5token2OrE17empty_or_trailingB4_, symObjAddr: 0x9494, symBinAddr: 0x3E120, symSize: 0x34 }
  - { offset: 0xA57B8, size: 0x8, addend: 0x0, symName: __RNvMNtCs5AlOhPCr03V_3syn10punctuatedINtB2_10PunctuatedNtNtB4_3pat3PatNtNtB4_5token5CommaE17empty_or_trailingB4_, symObjAddr: 0x94C8, symBinAddr: 0x3E154, symSize: 0x34 }
  - { offset: 0xA57EC, size: 0x8, addend: 0x0, symName: __RNvMNtCs5AlOhPCr03V_3syn10punctuatedINtB2_10PunctuatedNtNtB4_3pat8FieldPatNtNtB4_5token5CommaE17empty_or_trailingB4_, symObjAddr: 0x94FC, symBinAddr: 0x3E188, symSize: 0x34 }
  - { offset: 0xA5820, size: 0x8, addend: 0x0, symName: __RNvMNtCs5AlOhPCr03V_3syn10punctuatedINtB2_10PunctuatedNtNtB4_4data5FieldNtNtB4_5token5CommaE17empty_or_trailingB4_, symObjAddr: 0x9564, symBinAddr: 0x3E1BC, symSize: 0x34 }
  - { offset: 0xA5854, size: 0x8, addend: 0x0, symName: __RNvMNtCs5AlOhPCr03V_3syn10punctuatedINtB2_10PunctuatedNtNtB4_4data7VariantNtNtB4_5token5CommaE17empty_or_trailingB4_, symObjAddr: 0x9598, symBinAddr: 0x3E1F0, symSize: 0x34 }
  - { offset: 0xA5888, size: 0x8, addend: 0x0, symName: __RNvMNtCs5AlOhPCr03V_3syn10punctuatedINtB2_10PunctuatedNtNtB4_4expr10FieldValueNtNtB4_5token5CommaE17empty_or_trailingB4_, symObjAddr: 0x95CC, symBinAddr: 0x3E224, symSize: 0x34 }
  - { offset: 0xA58BC, size: 0x8, addend: 0x0, symName: __RNvMNtCs5AlOhPCr03V_3syn10punctuatedINtB2_10PunctuatedNtNtB4_4expr21GenericMethodArgumentNtNtB4_5token5CommaE17empty_or_trailingB4_, symObjAddr: 0x9600, symBinAddr: 0x3E258, symSize: 0x34 }
  - { offset: 0xA58F0, size: 0x8, addend: 0x0, symName: __RNvMNtCs5AlOhPCr03V_3syn10punctuatedINtB2_10PunctuatedNtNtB4_4expr4ExprNtNtB4_5token5CommaE17empty_or_trailingB4_, symObjAddr: 0x9634, symBinAddr: 0x3E28C, symSize: 0x34 }
  - { offset: 0xA5924, size: 0x8, addend: 0x0, symName: __RNvMNtCs5AlOhPCr03V_3syn10punctuatedINtB2_10PunctuatedNtNtB4_4item5FnArgNtNtB4_5token5CommaE17empty_or_trailingB4_, symObjAddr: 0x9668, symBinAddr: 0x3E2C0, symSize: 0x34 }
  - { offset: 0xA5958, size: 0x8, addend: 0x0, symName: __RNvMNtCs5AlOhPCr03V_3syn10punctuatedINtB2_10PunctuatedNtNtB4_4item7UseTreeNtNtB4_5token5CommaE17empty_or_trailingB4_, symObjAddr: 0x969C, symBinAddr: 0x3E2F4, symSize: 0x34 }
  - { offset: 0xA598C, size: 0x8, addend: 0x0, symName: __RNvMNtCs5AlOhPCr03V_3syn10punctuatedINtB2_10PunctuatedNtNtB4_4path11PathSegmentNtNtB4_5token6Colon2E17empty_or_trailingB4_, symObjAddr: 0x96D0, symBinAddr: 0x3E328, symSize: 0x34 }
  - { offset: 0xA59C0, size: 0x8, addend: 0x0, symName: __RNvMNtCs5AlOhPCr03V_3syn10punctuatedINtB2_10PunctuatedNtNtB4_4path15GenericArgumentNtNtB4_5token5CommaE17empty_or_trailingB4_, symObjAddr: 0x9704, symBinAddr: 0x3E35C, symSize: 0x34 }
  - { offset: 0xA59F4, size: 0x8, addend: 0x0, symName: __RNvMNtCs5AlOhPCr03V_3syn10punctuatedINtB2_10PunctuatedNtNtB4_8generics11LifetimeDefNtNtB4_5token5CommaE17empty_or_trailingB4_, symObjAddr: 0x9738, symBinAddr: 0x3E390, symSize: 0x34 }
  - { offset: 0xA5A28, size: 0x8, addend: 0x0, symName: __RNvMNtCs5AlOhPCr03V_3syn10punctuatedINtB2_10PunctuatedNtNtB4_8generics12GenericParamNtNtB4_5token5CommaE17empty_or_trailingB4_, symObjAddr: 0x976C, symBinAddr: 0x3E3C4, symSize: 0x34 }
  - { offset: 0xA5A5C, size: 0x8, addend: 0x0, symName: __RNvMNtCs5AlOhPCr03V_3syn10punctuatedINtB2_10PunctuatedNtNtB4_8generics14TypeParamBoundNtNtB4_5token3AddE17empty_or_trailingB4_, symObjAddr: 0x97A0, symBinAddr: 0x3E3F8, symSize: 0x34 }
  - { offset: 0xA5A90, size: 0x8, addend: 0x0, symName: __RNvMNtCs5AlOhPCr03V_3syn10punctuatedINtB2_10PunctuatedNtNtB4_8generics14WherePredicateNtNtB4_5token5CommaE17empty_or_trailingB4_, symObjAddr: 0x97D4, symBinAddr: 0x3E42C, symSize: 0x34 }
  - { offset: 0xA5AC4, size: 0x8, addend: 0x0, symName: __RNvMNtCs5AlOhPCr03V_3syn10punctuatedINtB2_10PunctuatedNtNtB4_8lifetime8LifetimeNtNtB4_5token3AddE17empty_or_trailingB4_, symObjAddr: 0x9808, symBinAddr: 0x3E460, symSize: 0x34 }
  - { offset: 0xA5AF8, size: 0x8, addend: 0x0, symName: __RNvMNtCs5AlOhPCr03V_3syn10punctuatedINtB2_10PunctuatedNtNtB4_4expr10FieldValueNtNtB4_5token5CommaE4pushB4_, symObjAddr: 0x983C, symBinAddr: 0x3E494, symSize: 0x124 }
  - { offset: 0xA5B3B, size: 0x8, addend: 0x0, symName: __RNvMNtCs5AlOhPCr03V_3syn10punctuatedINtB2_10PunctuatedNtNtB4_4path11PathSegmentNtNtB4_5token6Colon2E4pushB4_, symObjAddr: 0x9960, symBinAddr: 0x3E5B8, symSize: 0x10C }
  - { offset: 0xA5B7E, size: 0x8, addend: 0x0, symName: __RNvMNtCs5AlOhPCr03V_3syn10punctuatedINtB2_10PunctuatedNtNtB4_4path11PathSegmentNtNtB4_5token6Colon2E6insertB4_, symObjAddr: 0x9A6C, symBinAddr: 0x3E6C4, symSize: 0x1D8 }
  - { offset: 0xA5BCF, size: 0x8, addend: 0x0, symName: __RNvMNtCs5AlOhPCr03V_3syn10punctuatedINtB2_10PunctuatedNtNtB4_8generics14TypeParamBoundNtNtB4_5token3AddE5clearB4_, symObjAddr: 0x9C44, symBinAddr: 0x3E89C, symSize: 0x7C }
  - { offset: 0xA5C77, size: 0x8, addend: 0x0, symName: __RNvMNtCs5AlOhPCr03V_3syn10punctuatedINtB2_10PunctuatedNtNtB4_2ty4TypeNtNtB4_5token5CommaE21parse_terminated_withB4_, symObjAddr: 0x9CC0, symBinAddr: 0x3E918, symSize: 0x378 }
  - { offset: 0xA5D94, size: 0x8, addend: 0x0, symName: __RNvMNtCs5AlOhPCr03V_3syn10punctuatedINtB2_10PunctuatedNtNtB4_4data5FieldNtNtB4_5token5CommaE21parse_terminated_withB4_, symObjAddr: 0xA3AC, symBinAddr: 0x3EC90, symSize: 0x374 }
  - { offset: 0xA5EB1, size: 0x8, addend: 0x0, symName: __RNvMNtCs5AlOhPCr03V_3syn10punctuatedINtB2_10PunctuatedNtNtB4_4data7VariantNtNtB4_5token5CommaE21parse_terminated_withB4_, symObjAddr: 0xA720, symBinAddr: 0x3F004, symSize: 0x35C }
  - { offset: 0xA5FCE, size: 0x8, addend: 0x0, symName: __RNvMNtCs5AlOhPCr03V_3syn10punctuatedINtB2_10PunctuatedNtNtB4_4expr4ExprNtNtB4_5token5CommaE21parse_terminated_withB4_, symObjAddr: 0xAA7C, symBinAddr: 0x3F360, symSize: 0x378 }
  - { offset: 0xA60EB, size: 0x8, addend: 0x0, symName: __RNvMNtCs5AlOhPCr03V_3syn10punctuatedINtB2_10PunctuatedNtNtB4_4item7UseTreeNtNtB4_5token5CommaE21parse_terminated_withB4_, symObjAddr: 0xADF4, symBinAddr: 0x3F6D8, symSize: 0x368 }
  - { offset: 0xA624B, size: 0x8, addend: 0x0, symName: __RNvMsJ_NtCs5AlOhPCr03V_3syn10punctuatedINtB5_4PairRNtNtB7_4item5FnArgRNtNtB7_5token5CommaE5valueB7_, symObjAddr: 0x12288, symBinAddr: 0x4221C, symSize: 0x74 }
  - { offset: 0xA62B8, size: 0x8, addend: 0x0, symName: __RNvMsJ_NtCs5AlOhPCr03V_3syn10punctuatedINtB5_4PairRNtNtB7_4path11PathSegmentRNtNtB7_5token6Colon2E5valueB7_, symObjAddr: 0x122FC, symBinAddr: 0x42290, symSize: 0x74 }
  - { offset: 0xA6325, size: 0x8, addend: 0x0, symName: __RNvMsJ_NtCs5AlOhPCr03V_3syn10punctuatedINtB5_4PairRNtNtB7_4path15GenericArgumentRNtNtB7_5token5CommaE5valueB7_, symObjAddr: 0x12370, symBinAddr: 0x42304, symSize: 0x74 }
  - { offset: 0xA6392, size: 0x8, addend: 0x0, symName: __RNvMsJ_NtCs5AlOhPCr03V_3syn10punctuatedINtB5_4PairRNtNtB7_8generics12GenericParamRNtNtB7_5token5CommaE5valueB7_, symObjAddr: 0x123E4, symBinAddr: 0x42378, symSize: 0x74 }
  - { offset: 0xA63F2, size: 0x8, addend: 0x0, symName: __RNvMsJ_NtCs5AlOhPCr03V_3syn10punctuatedINtB5_4PairRNtNtB7_4item5FnArgRNtNtB7_5token5CommaE5punctB7_, symObjAddr: 0x12458, symBinAddr: 0x423EC, symSize: 0x78 }
  - { offset: 0xA6452, size: 0x8, addend: 0x0, symName: __RNvMsJ_NtCs5AlOhPCr03V_3syn10punctuatedINtB5_4PairRNtNtB7_4path11PathSegmentRNtNtB7_5token6Colon2E5punctB7_, symObjAddr: 0x124D0, symBinAddr: 0x42464, symSize: 0x78 }
  - { offset: 0xA64A5, size: 0x8, addend: 0x0, symName: __RNvMsJ_NtCs5AlOhPCr03V_3syn10punctuatedINtB5_4PairRNtNtB7_4path15GenericArgumentRNtNtB7_5token5CommaE5punctB7_, symObjAddr: 0x12548, symBinAddr: 0x424DC, symSize: 0x78 }
  - { offset: 0xA64F8, size: 0x8, addend: 0x0, symName: __RNvMsJ_NtCs5AlOhPCr03V_3syn10punctuatedINtB5_4PairRNtNtB7_8generics12GenericParamRNtNtB7_5token5CommaE5punctB7_, symObjAddr: 0x125C0, symBinAddr: 0x42554, symSize: 0x78 }
  - { offset: 0xA6576, size: 0x8, addend: 0x0, symName: __RNvMsJ_NtCs5AlOhPCr03V_3syn10punctuatedINtB5_4PairQNtNtB7_4path11PathSegmentQNtNtB7_5token6Colon2E10into_tupleB7_, symObjAddr: 0x12638, symBinAddr: 0x425CC, symSize: 0x9C }
  - { offset: 0xA7CED, size: 0x8, addend: 0x0, symName: __RNvXss_NtCse1nGBsou5OW_5alloc6stringNtB5_6StringNtNtNtCsfvfooZQ3Axs_4core3ops5deref5Deref5derefCs5AlOhPCr03V_3syn, symObjAddr: 0x14950, symBinAddr: 0x563D0, symSize: 0x24 }
  - { offset: 0xA7D66, size: 0x8, addend: 0x0, symName: __RNvXs1J_NtCse1nGBsou5OW_5alloc6stringReNtB6_12SpecToString14spec_to_stringCs5AlOhPCr03V_3syn, symObjAddr: 0x686C, symBinAddr: 0x498A4, symSize: 0x5C }
  - { offset: 0xA7E97, size: 0x8, addend: 0x0, symName: __RNvXs1j_NtCse1nGBsou5OW_5alloc6stringNtB6_13FromUtf8ErrorNtNtCsfvfooZQ3Axs_4core3fmt5Debug3fmtCs5AlOhPCr03V_3syn, symObjAddr: 0x6924, symBinAddr: 0x49900, symSize: 0x88 }
  - { offset: 0xA7F14, size: 0x8, addend: 0x0, symName: __RNvXs1q_NtCse1nGBsou5OW_5alloc6stringNtB6_6StringINtNtCsfvfooZQ3Axs_4core3cmp9PartialEqReE2eqCs5AlOhPCr03V_3syn, symObjAddr: 0x69AC, symBinAddr: 0x49988, symSize: 0xC8 }
  - { offset: 0xA8156, size: 0x8, addend: 0x0, symName: __RNvXsE_NtCse1nGBsou5OW_5alloc6stringNtB5_6StringNtB5_12SpecToString14spec_to_stringCs5AlOhPCr03V_3syn, symObjAddr: 0x6AA0, symBinAddr: 0x49A7C, symSize: 0x24 }
  - { offset: 0xA81A8, size: 0x8, addend: 0x0, symName: __RNvXsI_NtCse1nGBsou5OW_5alloc6stringNtB5_6StringINtNtCsfvfooZQ3Axs_4core7convert5AsRefShE6as_refCs5AlOhPCr03V_3syn, symObjAddr: 0x6AC4, symBinAddr: 0x49AA0, symSize: 0x24 }
  - { offset: 0xA81FA, size: 0x8, addend: 0x0, symName: __RNvXsW_NtCse1nGBsou5OW_5alloc6stringNtB5_6StringNtNtCsfvfooZQ3Axs_4core3fmt5Write10write_charCs5AlOhPCr03V_3syn, symObjAddr: 0x6AE8, symBinAddr: 0x49AC4, symSize: 0x30 }
  - { offset: 0xA8237, size: 0x8, addend: 0x0, symName: __RNvXsW_NtCse1nGBsou5OW_5alloc6stringNtB5_6StringNtNtCsfvfooZQ3Axs_4core3fmt5Write9write_strCs5AlOhPCr03V_3syn, symObjAddr: 0x6B18, symBinAddr: 0x49AF4, symSize: 0x38 }
  - { offset: 0xA827A, size: 0x8, addend: 0x0, symName: __RNvXsw_NtCse1nGBsou5OW_5alloc6stringNtB5_6StringNtB5_8ToString9to_stringCs5AlOhPCr03V_3syn, symObjAddr: 0x14974, symBinAddr: 0x563F4, symSize: 0x24 }
  - { offset: 0xA82B1, size: 0x8, addend: 0x0, symName: __RNvXsw_NtCse1nGBsou5OW_5alloc6stringReNtB5_8ToString9to_stringCs5AlOhPCr03V_3syn, symObjAddr: 0x14998, symBinAddr: 0x56418, symSize: 0x24 }
  - { offset: 0xA83AC, size: 0x8, addend: 0x0, symName: __RNvNtCse1nGBsou5OW_5alloc3fmt6formatCs5AlOhPCr03V_3syn, symObjAddr: 0x6748, symBinAddr: 0x49780, symSize: 0xD4 }
  - { offset: 0xAB58E, size: 0x8, addend: 0x0, symName: __RINvNtCsfvfooZQ3Axs_4core3cmp3minjECs5AlOhPCr03V_3syn, symObjAddr: 0x564C, symBinAddr: 0x489E0, symSize: 0x24 }
  - { offset: 0xAB651, size: 0x8, addend: 0x0, symName: __RNvXs5_NtCsfvfooZQ3Axs_4core3cmpNtB5_8OrderingNtB5_9PartialEq2eqCs5AlOhPCr03V_3syn, symObjAddr: 0x6A74, symBinAddr: 0x49A50, symSize: 0x2C }
  - { offset: 0xAB694, size: 0x8, addend: 0x0, symName: __RNvYjNtNtCsfvfooZQ3Axs_4core3cmp3Ord3minCs5AlOhPCr03V_3syn, symObjAddr: 0x14A60, symBinAddr: 0x564B0, symSize: 0x80 }
  - { offset: 0xB1B04, size: 0x8, addend: 0x0, symName: __RNvXso_NtCsfvfooZQ3Axs_4core6resultINtB5_6ResultANtCs3cP53eQoTwO_11proc_macro24Spanj1_NtNtCs5AlOhPCr03V_3syn5error5ErrorENtNtNtB7_3ops9try_trait3Try6branchB1q_, symObjAddr: 0x6BD0, symBinAddr: 0x49B2C, symSize: 0x8C }
  - { offset: 0xB1B81, size: 0x8, addend: 0x0, symName: __RNvXso_NtCsfvfooZQ3Axs_4core6resultINtB5_6ResultANtCs3cP53eQoTwO_11proc_macro24Spanj2_NtNtCs5AlOhPCr03V_3syn5error5ErrorENtNtNtB7_3ops9try_trait3Try6branchB1q_, symObjAddr: 0x6C5C, symBinAddr: 0x49BB8, symSize: 0x8C }
  - { offset: 0xB1BFE, size: 0x8, addend: 0x0, symName: __RNvXso_NtCsfvfooZQ3Axs_4core6resultINtB5_6ResultANtCs3cP53eQoTwO_11proc_macro24Spanj3_NtNtCs5AlOhPCr03V_3syn5error5ErrorENtNtNtB7_3ops9try_trait3Try6branchB1q_, symObjAddr: 0x6CE8, symBinAddr: 0x49C44, symSize: 0x9C }
  - { offset: 0xB1C7B, size: 0x8, addend: 0x0, symName: __RNvXso_NtCsfvfooZQ3Axs_4core6resultINtB5_6ResultINtNtB7_6option6OptionINtNtCse1nGBsou5OW_5alloc5boxed3BoxNtNtCs5AlOhPCr03V_3syn4expr4ExprEENtNtB1J_5error5ErrorENtNtNtB7_3ops9try_trait3Try6branchB1J_, symObjAddr: 0x6D84, symBinAddr: 0x49CE0, symSize: 0x88 }
  - { offset: 0xB1CF9, size: 0x8, addend: 0x0, symName: __RNvXso_NtCsfvfooZQ3Axs_4core6resultINtB5_6ResultINtNtB7_6option6OptionNtCs3cP53eQoTwO_11proc_macro25IdentENtNtCs5AlOhPCr03V_3syn5error5ErrorENtNtNtB7_3ops9try_trait3Try6branchB1K_, symObjAddr: 0x6E0C, symBinAddr: 0x49D68, symSize: 0x94 }
  - { offset: 0xB1D76, size: 0x8, addend: 0x0, symName: __RNvXso_NtCsfvfooZQ3Axs_4core6resultINtB5_6ResultINtNtB7_6option6OptionNtNtCs5AlOhPCr03V_3syn2ty10TypeBareFnENtNtB1a_5error5ErrorENtNtNtB7_3ops9try_trait3Try6branchB1a_, symObjAddr: 0x6EA0, symBinAddr: 0x49DFC, symSize: 0xB4 }
  - { offset: 0xB1DF4, size: 0x8, addend: 0x0, symName: __RNvXso_NtCsfvfooZQ3Axs_4core6resultINtB5_6ResultINtNtB7_6option6OptionNtNtCs5AlOhPCr03V_3syn2ty3AbiENtNtB1a_5error5ErrorENtNtNtB7_3ops9try_trait3Try6branchB1a_, symObjAddr: 0x6F54, symBinAddr: 0x49EB0, symSize: 0x94 }
  - { offset: 0xB1E71, size: 0x8, addend: 0x0, symName: __RNvXso_NtCsfvfooZQ3Axs_4core6resultINtB5_6ResultINtNtB7_6option6OptionNtNtCs5AlOhPCr03V_3syn2ty9BareFnArgENtNtB1a_5error5ErrorENtNtNtB7_3ops9try_trait3Try6branchB1a_, symObjAddr: 0x6FE8, symBinAddr: 0x49F44, symSize: 0xB8 }
  - { offset: 0xB1EEF, size: 0x8, addend: 0x0, symName: __RNvXso_NtCsfvfooZQ3Axs_4core6resultINtB5_6ResultINtNtB7_6option6OptionNtNtCs5AlOhPCr03V_3syn3lit6LitStrENtNtB1a_5error5ErrorENtNtNtB7_3ops9try_trait3Try6branchB1a_, symObjAddr: 0x70A0, symBinAddr: 0x49FFC, symSize: 0x88 }
  - { offset: 0xB1F6D, size: 0x8, addend: 0x0, symName: __RNvXso_NtCsfvfooZQ3Axs_4core6resultINtB5_6ResultINtNtB7_6option6OptionNtNtCs5AlOhPCr03V_3syn3lit8LitFloatENtNtB1a_5error5ErrorENtNtNtB7_3ops9try_trait3Try6branchB1a_, symObjAddr: 0x7128, symBinAddr: 0x4A084, symSize: 0x88 }
  - { offset: 0xB1FEB, size: 0x8, addend: 0x0, symName: __RNvXso_NtCsfvfooZQ3Axs_4core6resultINtB5_6ResultINtNtB7_6option6OptionNtNtCs5AlOhPCr03V_3syn4expr5LabelENtNtB1a_5error5ErrorENtNtNtB7_3ops9try_trait3Try6branchB1a_, symObjAddr: 0x71B0, symBinAddr: 0x4A10C, symSize: 0xB0 }
  - { offset: 0xB2068, size: 0x8, addend: 0x0, symName: __RNvXso_NtCsfvfooZQ3Axs_4core6resultINtB5_6ResultINtNtB7_6option6OptionNtNtCs5AlOhPCr03V_3syn4item8ItemImplENtNtB1a_5error5ErrorENtNtNtB7_3ops9try_trait3Try6branchB1a_, symObjAddr: 0x7260, symBinAddr: 0x4A1BC, symSize: 0xC4 }
  - { offset: 0xB20E6, size: 0x8, addend: 0x0, symName: __RNvXso_NtCsfvfooZQ3Axs_4core6resultINtB5_6ResultINtNtB7_6option6OptionNtNtCs5AlOhPCr03V_3syn5token2EqENtNtB1a_5error5ErrorENtNtNtB7_3ops9try_trait3Try6branchB1a_, symObjAddr: 0x7324, symBinAddr: 0x4A280, symSize: 0x8C }
  - { offset: 0xB2163, size: 0x8, addend: 0x0, symName: __RNvXso_NtCsfvfooZQ3Axs_4core6resultINtB5_6ResultINtNtB7_6option6OptionNtNtCs5AlOhPCr03V_3syn5token2OrENtNtB1a_5error5ErrorENtNtNtB7_3ops9try_trait3Try6branchB1a_, symObjAddr: 0x73B0, symBinAddr: 0x4A30C, symSize: 0x8C }
  - { offset: 0xB21E0, size: 0x8, addend: 0x0, symName: __RNvXso_NtCsfvfooZQ3Axs_4core6resultINtB5_6ResultINtNtB7_6option6OptionNtNtCs5AlOhPCr03V_3syn5token3AddENtNtB1a_5error5ErrorENtNtNtB7_3ops9try_trait3Try6branchB1a_, symObjAddr: 0x743C, symBinAddr: 0x4A398, symSize: 0x8C }
  - { offset: 0xB225D, size: 0x8, addend: 0x0, symName: __RNvXso_NtCsfvfooZQ3Axs_4core6resultINtB5_6ResultINtNtB7_6option6OptionNtNtCs5AlOhPCr03V_3syn5token3BoxENtNtB1a_5error5ErrorENtNtNtB7_3ops9try_trait3Try6branchB1a_, symObjAddr: 0x74C8, symBinAddr: 0x4A424, symSize: 0x94 }
  - { offset: 0xB22DB, size: 0x8, addend: 0x0, symName: __RNvXso_NtCsfvfooZQ3Axs_4core6resultINtB5_6ResultINtNtB7_6option6OptionNtNtCs5AlOhPCr03V_3syn5token3DynENtNtB1a_5error5ErrorENtNtNtB7_3ops9try_trait3Try6branchB1a_, symObjAddr: 0x755C, symBinAddr: 0x4A4B8, symSize: 0x94 }
  - { offset: 0xB2359, size: 0x8, addend: 0x0, symName: __RNvXso_NtCsfvfooZQ3Axs_4core6resultINtB5_6ResultINtNtB7_6option6OptionNtNtCs5AlOhPCr03V_3syn5token3MutENtNtB1a_5error5ErrorENtNtNtB7_3ops9try_trait3Try6branchB1a_, symObjAddr: 0x75F0, symBinAddr: 0x4A54C, symSize: 0x94 }
  - { offset: 0xB23D7, size: 0x8, addend: 0x0, symName: __RNvXso_NtCsfvfooZQ3Axs_4core6resultINtB5_6ResultINtNtB7_6option6OptionNtNtCs5AlOhPCr03V_3syn5token3RefENtNtB1a_5error5ErrorENtNtNtB7_3ops9try_trait3Try6branchB1a_, symObjAddr: 0x7684, symBinAddr: 0x4A5E0, symSize: 0x94 }
  - { offset: 0xB2455, size: 0x8, addend: 0x0, symName: __RNvXso_NtCsfvfooZQ3Axs_4core6resultINtB5_6ResultINtNtB7_6option6OptionNtNtCs5AlOhPCr03V_3syn5token3SubENtNtB1a_5error5ErrorENtNtNtB7_3ops9try_trait3Try6branchB1a_, symObjAddr: 0x7718, symBinAddr: 0x4A674, symSize: 0x8C }
  - { offset: 0xB24D2, size: 0x8, addend: 0x0, symName: __RNvXso_NtCsfvfooZQ3Axs_4core6resultINtB5_6ResultINtNtB7_6option6OptionNtNtCs5AlOhPCr03V_3syn5token4AutoENtNtB1a_5error5ErrorENtNtNtB7_3ops9try_trait3Try6branchB1a_, symObjAddr: 0x77A4, symBinAddr: 0x4A700, symSize: 0x94 }
  - { offset: 0xB2550, size: 0x8, addend: 0x0, symName: __RNvXso_NtCsfvfooZQ3Axs_4core6resultINtB5_6ResultINtNtB7_6option6OptionNtNtCs5AlOhPCr03V_3syn5token4Dot3ENtNtB1a_5error5ErrorENtNtNtB7_3ops9try_trait3Try6branchB1a_, symObjAddr: 0x7838, symBinAddr: 0x4A794, symSize: 0x8C }
  - { offset: 0xB25CD, size: 0x8, addend: 0x0, symName: __RNvXso_NtCsfvfooZQ3Axs_4core6resultINtB5_6ResultINtNtB7_6option6OptionNtNtCs5AlOhPCr03V_3syn5token4MoveENtNtB1a_5error5ErrorENtNtNtB7_3ops9try_trait3Try6branchB1a_, symObjAddr: 0x78C4, symBinAddr: 0x4A820, symSize: 0x94 }
  - { offset: 0xB264B, size: 0x8, addend: 0x0, symName: __RNvXso_NtCsfvfooZQ3Axs_4core6resultINtB5_6ResultINtNtB7_6option6OptionNtNtCs5AlOhPCr03V_3syn5token4SemiENtNtB1a_5error5ErrorENtNtNtB7_3ops9try_trait3Try6branchB1a_, symObjAddr: 0x7958, symBinAddr: 0x4A8B4, symSize: 0x8C }
  - { offset: 0xB26C8, size: 0x8, addend: 0x0, symName: __RNvXso_NtCsfvfooZQ3Axs_4core6resultINtB5_6ResultINtNtB7_6option6OptionNtNtCs5AlOhPCr03V_3syn5token4StarENtNtB1a_5error5ErrorENtNtNtB7_3ops9try_trait3Try6branchB1a_, symObjAddr: 0x79E4, symBinAddr: 0x4A940, symSize: 0x8C }
  - { offset: 0xB2745, size: 0x8, addend: 0x0, symName: __RNvXso_NtCsfvfooZQ3Axs_4core6resultINtB5_6ResultINtNtB7_6option6OptionNtNtCs5AlOhPCr03V_3syn5token5AsyncENtNtB1a_5error5ErrorENtNtNtB7_3ops9try_trait3Try6branchB1a_, symObjAddr: 0x7A70, symBinAddr: 0x4A9CC, symSize: 0x94 }
  - { offset: 0xB27C3, size: 0x8, addend: 0x0, symName: __RNvXso_NtCsfvfooZQ3Axs_4core6resultINtB5_6ResultINtNtB7_6option6OptionNtNtCs5AlOhPCr03V_3syn5token5AwaitENtNtB1a_5error5ErrorENtNtNtB7_3ops9try_trait3Try6branchB1a_, symObjAddr: 0x7B04, symBinAddr: 0x4AA60, symSize: 0x94 }
  - { offset: 0xB2841, size: 0x8, addend: 0x0, symName: __RNvXso_NtCsfvfooZQ3Axs_4core6resultINtB5_6ResultINtNtB7_6option6OptionNtNtCs5AlOhPCr03V_3syn5token5ColonENtNtB1a_5error5ErrorENtNtNtB7_3ops9try_trait3Try6branchB1a_, symObjAddr: 0x7B98, symBinAddr: 0x4AAF4, symSize: 0x8C }
  - { offset: 0xB28BE, size: 0x8, addend: 0x0, symName: __RNvXso_NtCsfvfooZQ3Axs_4core6resultINtB5_6ResultINtNtB7_6option6OptionNtNtCs5AlOhPCr03V_3syn5token5CommaENtNtB1a_5error5ErrorENtNtNtB7_3ops9try_trait3Try6branchB1a_, symObjAddr: 0x7C24, symBinAddr: 0x4AB80, symSize: 0x8C }
  - { offset: 0xB293B, size: 0x8, addend: 0x0, symName: __RNvXso_NtCsfvfooZQ3Axs_4core6resultINtB5_6ResultINtNtB7_6option6OptionNtNtCs5AlOhPCr03V_3syn5token5ConstENtNtB1a_5error5ErrorENtNtNtB7_3ops9try_trait3Try6branchB1a_, symObjAddr: 0x7CB0, symBinAddr: 0x4AC0C, symSize: 0x94 }
  - { offset: 0xB29B9, size: 0x8, addend: 0x0, symName: __RNvXso_NtCsfvfooZQ3Axs_4core6resultINtB5_6ResultINtNtB7_6option6OptionNtNtCs5AlOhPCr03V_3syn5token6Colon2ENtNtB1a_5error5ErrorENtNtNtB7_3ops9try_trait3Try6branchB1a_, symObjAddr: 0x7D44, symBinAddr: 0x4ACA0, symSize: 0x9C }
  - { offset: 0xB2A36, size: 0x8, addend: 0x0, symName: __RNvXso_NtCsfvfooZQ3Axs_4core6resultINtB5_6ResultINtNtB7_6option6OptionNtNtCs5AlOhPCr03V_3syn5token6StaticENtNtB1a_5error5ErrorENtNtNtB7_3ops9try_trait3Try6branchB1a_, symObjAddr: 0x7DE0, symBinAddr: 0x4AD3C, symSize: 0x94 }
  - { offset: 0xB2AB4, size: 0x8, addend: 0x0, symName: __RNvXso_NtCsfvfooZQ3Axs_4core6resultINtB5_6ResultINtNtB7_6option6OptionNtNtCs5AlOhPCr03V_3syn5token6UnsafeENtNtB1a_5error5ErrorENtNtNtB7_3ops9try_trait3Try6branchB1a_, symObjAddr: 0x7E74, symBinAddr: 0x4ADD0, symSize: 0x94 }
  - { offset: 0xB2B32, size: 0x8, addend: 0x0, symName: __RNvXso_NtCsfvfooZQ3Axs_4core6resultINtB5_6ResultINtNtB7_6option6OptionNtNtCs5AlOhPCr03V_3syn5token7DefaultENtNtB1a_5error5ErrorENtNtNtB7_3ops9try_trait3Try6branchB1a_, symObjAddr: 0x7F08, symBinAddr: 0x4AE64, symSize: 0x94 }
  - { offset: 0xB2BB0, size: 0x8, addend: 0x0, symName: __RNvXso_NtCsfvfooZQ3Axs_4core6resultINtB5_6ResultINtNtB7_6option6OptionNtNtCs5AlOhPCr03V_3syn5token8QuestionENtNtB1a_5error5ErrorENtNtNtB7_3ops9try_trait3Try6branchB1a_, symObjAddr: 0x7F9C, symBinAddr: 0x4AEF8, symSize: 0x8C }
  - { offset: 0xB2C2D, size: 0x8, addend: 0x0, symName: __RNvXso_NtCsfvfooZQ3Axs_4core6resultINtB5_6ResultINtNtB7_6option6OptionNtNtCs5AlOhPCr03V_3syn5token9SelfValueENtNtB1a_5error5ErrorENtNtNtB7_3ops9try_trait3Try6branchB1a_, symObjAddr: 0x8028, symBinAddr: 0x4AF84, symSize: 0x94 }
  - { offset: 0xB2CAB, size: 0x8, addend: 0x0, symName: __RNvXso_NtCsfvfooZQ3Axs_4core6resultINtB5_6ResultINtNtB7_6option6OptionNtNtCs5AlOhPCr03V_3syn8generics11WhereClauseENtNtB1a_5error5ErrorENtNtNtB7_3ops9try_trait3Try6branchB1a_, symObjAddr: 0x80BC, symBinAddr: 0x4B018, symSize: 0xB0 }
  - { offset: 0xB2D28, size: 0x8, addend: 0x0, symName: __RNvXso_NtCsfvfooZQ3Axs_4core6resultINtB5_6ResultINtNtB7_6option6OptionNtNtCs5AlOhPCr03V_3syn8generics14BoundLifetimesENtNtB1a_5error5ErrorENtNtNtB7_3ops9try_trait3Try6branchB1a_, symObjAddr: 0x816C, symBinAddr: 0x4B0C8, symSize: 0xB0 }
  - { offset: 0xB2DA5, size: 0x8, addend: 0x0, symName: __RNvXso_NtCsfvfooZQ3Axs_4core6resultINtB5_6ResultINtNtB7_6option6OptionNtNtCs5AlOhPCr03V_3syn8lifetime8LifetimeENtNtB1a_5error5ErrorENtNtNtB7_3ops9try_trait3Try6branchB1a_, symObjAddr: 0x821C, symBinAddr: 0x4B178, symSize: 0x94 }
  - { offset: 0xB2E22, size: 0x8, addend: 0x0, symName: __RNvXso_NtCsfvfooZQ3Axs_4core6resultINtB5_6ResultINtNtCs5AlOhPCr03V_3syn10punctuated10PunctuatedNtNtBP_2ty4TypeNtNtBP_5token5CommaENtNtBP_5error5ErrorENtNtNtB7_3ops9try_trait3Try6branchBP_, symObjAddr: 0x82B0, symBinAddr: 0x4B20C, symSize: 0xA0 }
  - { offset: 0xB2E9F, size: 0x8, addend: 0x0, symName: __RNvXso_NtCsfvfooZQ3Axs_4core6resultINtB5_6ResultINtNtCs5AlOhPCr03V_3syn10punctuated10PunctuatedNtNtBP_4data5FieldNtNtBP_5token5CommaENtNtBP_5error5ErrorENtNtNtB7_3ops9try_trait3Try6branchBP_, symObjAddr: 0x83F0, symBinAddr: 0x4B2AC, symSize: 0xA0 }
  - { offset: 0xB2F1C, size: 0x8, addend: 0x0, symName: __RNvXso_NtCsfvfooZQ3Axs_4core6resultINtB5_6ResultINtNtCs5AlOhPCr03V_3syn10punctuated10PunctuatedNtNtBP_4data7VariantNtNtBP_5token5CommaENtNtBP_5error5ErrorENtNtNtB7_3ops9try_trait3Try6branchBP_, symObjAddr: 0x8490, symBinAddr: 0x4B34C, symSize: 0xA0 }
  - { offset: 0xB2F99, size: 0x8, addend: 0x0, symName: __RNvXso_NtCsfvfooZQ3Axs_4core6resultINtB5_6ResultINtNtCs5AlOhPCr03V_3syn10punctuated10PunctuatedNtNtBP_4expr4ExprNtNtBP_5token5CommaENtNtBP_5error5ErrorENtNtNtB7_3ops9try_trait3Try6branchBP_, symObjAddr: 0x8530, symBinAddr: 0x4B3EC, symSize: 0xA0 }
  - { offset: 0xB3016, size: 0x8, addend: 0x0, symName: __RNvXso_NtCsfvfooZQ3Axs_4core6resultINtB5_6ResultINtNtCs5AlOhPCr03V_3syn10punctuated10PunctuatedNtNtBP_4item5FnArgNtNtBP_5token5CommaENtNtBP_5error5ErrorENtNtNtB7_3ops9try_trait3Try6branchBP_, symObjAddr: 0x85D0, symBinAddr: 0x4B48C, symSize: 0xA0 }
  - { offset: 0xB3093, size: 0x8, addend: 0x0, symName: __RNvXso_NtCsfvfooZQ3Axs_4core6resultINtB5_6ResultINtNtCs5AlOhPCr03V_3syn10punctuated10PunctuatedNtNtBP_4item7UseTreeNtNtBP_5token5CommaENtNtBP_5error5ErrorENtNtNtB7_3ops9try_trait3Try6branchBP_, symObjAddr: 0x8670, symBinAddr: 0x4B52C, symSize: 0xA0 }
  - { offset: 0xB3110, size: 0x8, addend: 0x0, symName: __RNvXso_NtCsfvfooZQ3Axs_4core6resultINtB5_6ResultINtNtCs5AlOhPCr03V_3syn10punctuated10PunctuatedNtNtBP_8generics14TypeParamBoundNtNtBP_5token3AddENtNtBP_5error5ErrorENtNtNtB7_3ops9try_trait3Try6branchBP_, symObjAddr: 0x8710, symBinAddr: 0x4B5CC, symSize: 0xA0 }
  - { offset: 0xB318D, size: 0x8, addend: 0x0, symName: __RNvXso_NtCsfvfooZQ3Axs_4core6resultINtB5_6ResultINtNtCse1nGBsou5OW_5alloc3vec3VecNtNtCs5AlOhPCr03V_3syn4attr9AttributeENtNtB1l_5error5ErrorENtNtNtB7_3ops9try_trait3Try6branchB1l_, symObjAddr: 0x87B0, symBinAddr: 0x4B66C, symSize: 0x94 }
  - { offset: 0xB320A, size: 0x8, addend: 0x0, symName: __RNvXso_NtCsfvfooZQ3Axs_4core6resultINtB5_6ResultINtNtCse1nGBsou5OW_5alloc3vec3VecNtNtCs5AlOhPCr03V_3syn4stmt4StmtENtNtB1l_5error5ErrorENtNtNtB7_3ops9try_trait3Try6branchB1l_, symObjAddr: 0x8844, symBinAddr: 0x4B700, symSize: 0x94 }
  - { offset: 0xB3287, size: 0x8, addend: 0x0, symName: __RNvXso_NtCsfvfooZQ3Axs_4core6resultINtB5_6ResultINtNtCse1nGBsou5OW_5alloc5boxed3BoxNtNtCs5AlOhPCr03V_3syn2ty4TypeENtNtB1n_5error5ErrorENtNtNtB7_3ops9try_trait3Try6branchB1n_, symObjAddr: 0x88D8, symBinAddr: 0x4B794, symSize: 0x88 }
  - { offset: 0xB3305, size: 0x8, addend: 0x0, symName: __RNvXso_NtCsfvfooZQ3Axs_4core6resultINtB5_6ResultINtNtCse1nGBsou5OW_5alloc5boxed3BoxNtNtCs5AlOhPCr03V_3syn3pat3PatENtNtB1n_5error5ErrorENtNtNtB7_3ops9try_trait3Try6branchB1n_, symObjAddr: 0x8960, symBinAddr: 0x4B81C, symSize: 0x88 }
  - { offset: 0xB3383, size: 0x8, addend: 0x0, symName: __RNvXso_NtCsfvfooZQ3Axs_4core6resultINtB5_6ResultINtNtCse1nGBsou5OW_5alloc5boxed3BoxNtNtCs5AlOhPCr03V_3syn4expr4ExprENtNtB1n_5error5ErrorENtNtNtB7_3ops9try_trait3Try6branchB1n_, symObjAddr: 0x89E8, symBinAddr: 0x4B8A4, symSize: 0x88 }
  - { offset: 0xB3401, size: 0x8, addend: 0x0, symName: __RNvXso_NtCsfvfooZQ3Axs_4core6resultINtB5_6ResultNtCs3cP53eQoTwO_11proc_macro211TokenStreamNtBM_8LexErrorENtNtNtB7_3ops9try_trait3Try6branchCs5AlOhPCr03V_3syn, symObjAddr: 0x8A70, symBinAddr: 0x4B92C, symSize: 0x84 }
  - { offset: 0xB347E, size: 0x8, addend: 0x0, symName: __RNvXso_NtCsfvfooZQ3Axs_4core6resultINtB5_6ResultNtCs3cP53eQoTwO_11proc_macro211TokenStreamNtNtCs5AlOhPCr03V_3syn5error5ErrorENtNtNtB7_3ops9try_trait3Try6branchB1u_, symObjAddr: 0x8AF4, symBinAddr: 0x4B9B0, symSize: 0xA0 }
  - { offset: 0xB34FB, size: 0x8, addend: 0x0, symName: __RNvXso_NtCsfvfooZQ3Axs_4core6resultINtB5_6ResultNtCs3cP53eQoTwO_11proc_macro24SpanNtNtCs5AlOhPCr03V_3syn5error5ErrorENtNtNtB7_3ops9try_trait3Try6branchB1m_, symObjAddr: 0x8B94, symBinAddr: 0x4BA50, symSize: 0x88 }
  - { offset: 0xB3579, size: 0x8, addend: 0x0, symName: __RNvXso_NtCsfvfooZQ3Axs_4core6resultINtB5_6ResultNtCs3cP53eQoTwO_11proc_macro25IdentNtNtCs5AlOhPCr03V_3syn5error5ErrorENtNtNtB7_3ops9try_trait3Try6branchB1n_, symObjAddr: 0x8C1C, symBinAddr: 0x4BAD8, symSize: 0x94 }
  - { offset: 0xB35F6, size: 0x8, addend: 0x0, symName: __RNvXso_NtCsfvfooZQ3Axs_4core6resultINtB5_6ResultNtCs3cP53eQoTwO_11proc_macro29TokenTreeNtNtCs5AlOhPCr03V_3syn5error5ErrorENtNtNtB7_3ops9try_trait3Try6branchB1r_, symObjAddr: 0x8CB0, symBinAddr: 0x4BB6C, symSize: 0x9C }
  - { offset: 0xB3673, size: 0x8, addend: 0x0, symName: __RNvXso_NtCsfvfooZQ3Axs_4core6resultINtB5_6ResultNtNtCs5AlOhPCr03V_3syn2op4UnOpNtNtBO_5error5ErrorENtNtNtB7_3ops9try_trait3Try6branchBO_, symObjAddr: 0x8D4C, symBinAddr: 0x4BC08, symSize: 0x8C }
  - { offset: 0xB36F0, size: 0x8, addend: 0x0, symName: __RNvXso_NtCsfvfooZQ3Axs_4core6resultINtB5_6ResultNtNtCs5AlOhPCr03V_3syn2op5BinOpNtNtBO_5error5ErrorENtNtNtB7_3ops9try_trait3Try6branchBO_, symObjAddr: 0x8DD8, symBinAddr: 0x4BC94, symSize: 0x8C }
  - { offset: 0xB376D, size: 0x8, addend: 0x0, symName: __RNvXso_NtCsfvfooZQ3Axs_4core6resultINtB5_6ResultNtNtCs5AlOhPCr03V_3syn2ty10ReturnTypeNtNtBO_5error5ErrorENtNtNtB7_3ops9try_trait3Try6branchBO_, symObjAddr: 0x8E64, symBinAddr: 0x4BD20, symSize: 0x8C }
  - { offset: 0xB37EA, size: 0x8, addend: 0x0, symName: __RNvXso_NtCsfvfooZQ3Axs_4core6resultINtB5_6ResultNtNtCs5AlOhPCr03V_3syn2ty15TypeTraitObjectNtNtBO_5error5ErrorENtNtNtB7_3ops9try_trait3Try6branchBO_, symObjAddr: 0x8EF0, symBinAddr: 0x4BDAC, symSize: 0xB0 }
  - { offset: 0xB3867, size: 0x8, addend: 0x0, symName: __RNvXso_NtCsfvfooZQ3Axs_4core6resultINtB5_6ResultNtNtCs5AlOhPCr03V_3syn2ty3AbiNtNtBO_5error5ErrorENtNtNtB7_3ops9try_trait3Try6branchBO_, symObjAddr: 0x8FA0, symBinAddr: 0x4BE5C, symSize: 0x94 }
  - { offset: 0xB38E5, size: 0x8, addend: 0x0, symName: __RNvXso_NtCsfvfooZQ3Axs_4core6resultINtB5_6ResultNtNtCs5AlOhPCr03V_3syn2ty4TypeNtNtBO_5error5ErrorENtNtNtB7_3ops9try_trait3Try6branchBO_, symObjAddr: 0x9034, symBinAddr: 0x4BEF0, symSize: 0xCC }
  - { offset: 0xB3963, size: 0x8, addend: 0x0, symName: __RNvXso_NtCsfvfooZQ3Axs_4core6resultINtB5_6ResultNtNtCs5AlOhPCr03V_3syn2ty8TypePathNtNtBO_5error5ErrorENtNtNtB7_3ops9try_trait3Try6branchBO_, symObjAddr: 0x9100, symBinAddr: 0x4BFBC, symSize: 0xB0 }
  - { offset: 0xB39E0, size: 0x8, addend: 0x0, symName: __RNvXso_NtCsfvfooZQ3Axs_4core6resultINtB5_6ResultNtNtCs5AlOhPCr03V_3syn2ty9TypeGroupNtNtBO_5error5ErrorENtNtNtB7_3ops9try_trait3Try6branchBO_, symObjAddr: 0x91B0, symBinAddr: 0x4C06C, symSize: 0x94 }
  - { offset: 0xB3A5E, size: 0x8, addend: 0x0, symName: __RNvXso_NtCsfvfooZQ3Axs_4core6resultINtB5_6ResultNtNtCs5AlOhPCr03V_3syn3lit3LitNtNtBO_5error5ErrorENtNtNtB7_3ops9try_trait3Try6branchBO_, symObjAddr: 0x9244, symBinAddr: 0x4C100, symSize: 0x94 }
  - { offset: 0xB3ADB, size: 0x8, addend: 0x0, symName: __RNvXso_NtCsfvfooZQ3Axs_4core6resultINtB5_6ResultNtNtCs5AlOhPCr03V_3syn3lit6LitIntNtNtBO_5error5ErrorENtNtNtB7_3ops9try_trait3Try6branchBO_, symObjAddr: 0x92D8, symBinAddr: 0x4C194, symSize: 0x88 }
  - { offset: 0xB3B59, size: 0x8, addend: 0x0, symName: __RNvXso_NtCsfvfooZQ3Axs_4core6resultINtB5_6ResultNtNtCs5AlOhPCr03V_3syn3lit6LitStrNtNtBO_5error5ErrorENtNtNtB7_3ops9try_trait3Try6branchBO_, symObjAddr: 0x9360, symBinAddr: 0x4C21C, symSize: 0x88 }
  - { offset: 0xB3BD7, size: 0x8, addend: 0x0, symName: __RNvXso_NtCsfvfooZQ3Axs_4core6resultINtB5_6ResultNtNtCs5AlOhPCr03V_3syn3lit8LitFloatNtNtBO_5error5ErrorENtNtNtB7_3ops9try_trait3Try6branchBO_, symObjAddr: 0x93E8, symBinAddr: 0x4C2A4, symSize: 0x88 }
  - { offset: 0xB3C55, size: 0x8, addend: 0x0, symName: __RNvXso_NtCsfvfooZQ3Axs_4core6resultINtB5_6ResultNtNtCs5AlOhPCr03V_3syn3mac5MacroNtNtBO_5error5ErrorENtNtNtB7_3ops9try_trait3Try6branchBO_, symObjAddr: 0x9470, symBinAddr: 0x4C32C, symSize: 0xB0 }
  - { offset: 0xB3CD2, size: 0x8, addend: 0x0, symName: __RNvXso_NtCsfvfooZQ3Axs_4core6resultINtB5_6ResultNtNtCs5AlOhPCr03V_3syn3pat14PatTupleStructNtNtBO_5error5ErrorENtNtNtB7_3ops9try_trait3Try6branchBO_, symObjAddr: 0x9520, symBinAddr: 0x4C3DC, symSize: 0xC4 }
  - { offset: 0xB3D50, size: 0x8, addend: 0x0, symName: __RNvXso_NtCsfvfooZQ3Axs_4core6resultINtB5_6ResultNtNtCs5AlOhPCr03V_3syn3pat3PatNtNtBO_5error5ErrorENtNtNtB7_3ops9try_trait3Try6branchBO_, symObjAddr: 0x95E4, symBinAddr: 0x4C4A0, symSize: 0xCC }
  - { offset: 0xB3DCE, size: 0x8, addend: 0x0, symName: __RNvXso_NtCsfvfooZQ3Axs_4core6resultINtB5_6ResultNtNtCs5AlOhPCr03V_3syn3pat7PatTypeNtNtBO_5error5ErrorENtNtNtB7_3ops9try_trait3Try6branchBO_, symObjAddr: 0x96B0, symBinAddr: 0x4C56C, symSize: 0xB0 }
  - { offset: 0xB3E4B, size: 0x8, addend: 0x0, symName: __RNvXso_NtCsfvfooZQ3Axs_4core6resultINtB5_6ResultNtNtCs5AlOhPCr03V_3syn3pat8FieldPatNtNtBO_5error5ErrorENtNtNtB7_3ops9try_trait3Try6branchBO_, symObjAddr: 0x9760, symBinAddr: 0x4C61C, symSize: 0xB0 }
  - { offset: 0xB3EC8, size: 0x8, addend: 0x0, symName: __RNvXso_NtCsfvfooZQ3Axs_4core6resultINtB5_6ResultNtNtCs5AlOhPCr03V_3syn3pat8PatTupleNtNtBO_5error5ErrorENtNtNtB7_3ops9try_trait3Try6branchBO_, symObjAddr: 0x9810, symBinAddr: 0x4C6CC, symSize: 0xB0 }
  - { offset: 0xB3F45, size: 0x8, addend: 0x0, symName: __RNvXso_NtCsfvfooZQ3Axs_4core6resultINtB5_6ResultNtNtCs5AlOhPCr03V_3syn4attr9AttributeNtNtBO_5error5ErrorENtNtNtB7_3ops9try_trait3Try6branchBO_, symObjAddr: 0x9A28, symBinAddr: 0x4C77C, symSize: 0xB0 }
  - { offset: 0xB3FC2, size: 0x8, addend: 0x0, symName: __RNvXso_NtCsfvfooZQ3Axs_4core6resultINtB5_6ResultNtNtCs5AlOhPCr03V_3syn4data10VisibilityNtNtBO_5error5ErrorENtNtNtB7_3ops9try_trait3Try6branchBO_, symObjAddr: 0x9AD8, symBinAddr: 0x4C82C, symSize: 0x94 }
  - { offset: 0xB403F, size: 0x8, addend: 0x0, symName: __RNvXso_NtCsfvfooZQ3Axs_4core6resultINtB5_6ResultNtNtCs5AlOhPCr03V_3syn4data11FieldsNamedNtNtBO_5error5ErrorENtNtNtB7_3ops9try_trait3Try6branchBO_, symObjAddr: 0x9B6C, symBinAddr: 0x4C8C0, symSize: 0xB0 }
  - { offset: 0xB40BC, size: 0x8, addend: 0x0, symName: __RNvXso_NtCsfvfooZQ3Axs_4core6resultINtB5_6ResultNtNtCs5AlOhPCr03V_3syn4data13FieldsUnnamedNtNtBO_5error5ErrorENtNtNtB7_3ops9try_trait3Try6branchBO_, symObjAddr: 0x9C1C, symBinAddr: 0x4C970, symSize: 0xB0 }
  - { offset: 0xB4139, size: 0x8, addend: 0x0, symName: __RNvXso_NtCsfvfooZQ3Axs_4core6resultINtB5_6ResultNtNtCs5AlOhPCr03V_3syn4data5FieldNtNtBO_5error5ErrorENtNtNtB7_3ops9try_trait3Try6branchBO_, symObjAddr: 0x9CCC, symBinAddr: 0x4CA20, symSize: 0xC4 }
  - { offset: 0xB41B7, size: 0x8, addend: 0x0, symName: __RNvXso_NtCsfvfooZQ3Axs_4core6resultINtB5_6ResultNtNtCs5AlOhPCr03V_3syn4data7VariantNtNtBO_5error5ErrorENtNtNtB7_3ops9try_trait3Try6branchBO_, symObjAddr: 0x9D90, symBinAddr: 0x4CAE4, symSize: 0xB4 }
  - { offset: 0xB4235, size: 0x8, addend: 0x0, symName: __RNvXso_NtCsfvfooZQ3Axs_4core6resultINtB5_6ResultNtNtCs5AlOhPCr03V_3syn4expr10ExprStructNtNtBO_5error5ErrorENtNtNtB7_3ops9try_trait3Try6branchBO_, symObjAddr: 0x9E44, symBinAddr: 0x4CB98, symSize: 0xB0 }
  - { offset: 0xB42B2, size: 0x8, addend: 0x0, symName: __RNvXso_NtCsfvfooZQ3Axs_4core6resultINtB5_6ResultNtNtCs5AlOhPCr03V_3syn4expr10ExprUnsafeNtNtBO_5error5ErrorENtNtNtB7_3ops9try_trait3Try6branchBO_, symObjAddr: 0x9EF4, symBinAddr: 0x4CC48, symSize: 0xB0 }
  - { offset: 0xB432F, size: 0x8, addend: 0x0, symName: __RNvXso_NtCsfvfooZQ3Axs_4core6resultINtB5_6ResultNtNtCs5AlOhPCr03V_3syn4expr10FieldValueNtNtBO_5error5ErrorENtNtNtB7_3ops9try_trait3Try6branchBO_, symObjAddr: 0x9FA4, symBinAddr: 0x4CCF8, symSize: 0xB8 }
  - { offset: 0xB43AD, size: 0x8, addend: 0x0, symName: __RNvXso_NtCsfvfooZQ3Axs_4core6resultINtB5_6ResultNtNtCs5AlOhPCr03V_3syn4expr11ExprClosureNtNtBO_5error5ErrorENtNtNtB7_3ops9try_trait3Try6branchBO_, symObjAddr: 0xA05C, symBinAddr: 0x4CDB0, symSize: 0xB0 }
  - { offset: 0xB442A, size: 0x8, addend: 0x0, symName: __RNvXso_NtCsfvfooZQ3Axs_4core6resultINtB5_6ResultNtNtCs5AlOhPCr03V_3syn4expr11ExprForLoopNtNtBO_5error5ErrorENtNtNtB7_3ops9try_trait3Try6branchBO_, symObjAddr: 0xA10C, symBinAddr: 0x4CE60, symSize: 0xC4 }
  - { offset: 0xB44A8, size: 0x8, addend: 0x0, symName: __RNvXso_NtCsfvfooZQ3Axs_4core6resultINtB5_6ResultNtNtCs5AlOhPCr03V_3syn4expr11RangeLimitsNtNtBO_5error5ErrorENtNtNtB7_3ops9try_trait3Try6branchBO_, symObjAddr: 0xA1D0, symBinAddr: 0x4CF24, symSize: 0x8C }
  - { offset: 0xB4525, size: 0x8, addend: 0x0, symName: __RNvXso_NtCsfvfooZQ3Axs_4core6resultINtB5_6ResultNtNtCs5AlOhPCr03V_3syn4expr12ExprTryBlockNtNtBO_5error5ErrorENtNtNtB7_3ops9try_trait3Try6branchBO_, symObjAddr: 0xA25C, symBinAddr: 0x4CFB0, symSize: 0xB0 }
  - { offset: 0xB45A2, size: 0x8, addend: 0x0, symName: __RNvXso_NtCsfvfooZQ3Axs_4core6resultINtB5_6ResultNtNtCs5AlOhPCr03V_3syn4expr15MethodTurbofishNtNtBO_5error5ErrorENtNtNtB7_3ops9try_trait3Try6branchBO_, symObjAddr: 0xA30C, symBinAddr: 0x4D060, symSize: 0xB0 }
  - { offset: 0xB461F, size: 0x8, addend: 0x0, symName: __RNvXso_NtCsfvfooZQ3Axs_4core6resultINtB5_6ResultNtNtCs5AlOhPCr03V_3syn4expr21GenericMethodArgumentNtNtBO_5error5ErrorENtNtNtB7_3ops9try_trait3Try6branchBO_, symObjAddr: 0xA3BC, symBinAddr: 0x4D110, symSize: 0xCC }
  - { offset: 0xB469D, size: 0x8, addend: 0x0, symName: __RNvXso_NtCsfvfooZQ3Axs_4core6resultINtB5_6ResultNtNtCs5AlOhPCr03V_3syn4expr3ArmNtNtBO_5error5ErrorENtNtNtB7_3ops9try_trait3Try6branchBO_, symObjAddr: 0xA488, symBinAddr: 0x4D1DC, symSize: 0xC4 }
  - { offset: 0xB471B, size: 0x8, addend: 0x0, symName: __RNvXso_NtCsfvfooZQ3Axs_4core6resultINtB5_6ResultNtNtCs5AlOhPCr03V_3syn4expr4ExprNtNtBO_5error5ErrorENtNtNtB7_3ops9try_trait3Try6branchBO_, symObjAddr: 0xA54C, symBinAddr: 0x4D2A0, symSize: 0xCC }
  - { offset: 0xB4799, size: 0x8, addend: 0x0, symName: __RNvXso_NtCsfvfooZQ3Axs_4core6resultINtB5_6ResultNtNtCs5AlOhPCr03V_3syn4expr5IndexNtNtBO_5error5ErrorENtNtNtB7_3ops9try_trait3Try6branchBO_, symObjAddr: 0xA618, symBinAddr: 0x4D36C, symSize: 0x94 }
  - { offset: 0xB4817, size: 0x8, addend: 0x0, symName: __RNvXso_NtCsfvfooZQ3Axs_4core6resultINtB5_6ResultNtNtCs5AlOhPCr03V_3syn4expr5LabelNtNtBO_5error5ErrorENtNtNtB7_3ops9try_trait3Try6branchBO_, symObjAddr: 0xA6AC, symBinAddr: 0x4D400, symSize: 0xB0 }
  - { offset: 0xB4894, size: 0x8, addend: 0x0, symName: __RNvXso_NtCsfvfooZQ3Axs_4core6resultINtB5_6ResultNtNtCs5AlOhPCr03V_3syn4expr6ExprIfNtNtBO_5error5ErrorENtNtNtB7_3ops9try_trait3Try6branchBO_, symObjAddr: 0xA75C, symBinAddr: 0x4D4B0, symSize: 0xB0 }
  - { offset: 0xB4911, size: 0x8, addend: 0x0, symName: __RNvXso_NtCsfvfooZQ3Axs_4core6resultINtB5_6ResultNtNtCs5AlOhPCr03V_3syn4expr6MemberNtNtBO_5error5ErrorENtNtNtB7_3ops9try_trait3Try6branchBO_, symObjAddr: 0xA80C, symBinAddr: 0x4D560, symSize: 0x94 }
  - { offset: 0xB498E, size: 0x8, addend: 0x0, symName: __RNvXso_NtCsfvfooZQ3Axs_4core6resultINtB5_6ResultNtNtCs5AlOhPCr03V_3syn4expr7ExprLitNtNtBO_5error5ErrorENtNtNtB7_3ops9try_trait3Try6branchBO_, symObjAddr: 0xA8A0, symBinAddr: 0x4D5F4, symSize: 0xB0 }
  - { offset: 0xB4A0B, size: 0x8, addend: 0x0, symName: __RNvXso_NtCsfvfooZQ3Axs_4core6resultINtB5_6ResultNtNtCs5AlOhPCr03V_3syn4expr8ExprLoopNtNtBO_5error5ErrorENtNtNtB7_3ops9try_trait3Try6branchBO_, symObjAddr: 0xA950, symBinAddr: 0x4D6A4, symSize: 0xBC }
  - { offset: 0xB4A88, size: 0x8, addend: 0x0, symName: __RNvXso_NtCsfvfooZQ3Axs_4core6resultINtB5_6ResultNtNtCs5AlOhPCr03V_3syn4expr8ExprPathNtNtBO_5error5ErrorENtNtNtB7_3ops9try_trait3Try6branchBO_, symObjAddr: 0xAA0C, symBinAddr: 0x4D760, symSize: 0xBC }
  - { offset: 0xB4B05, size: 0x8, addend: 0x0, symName: __RNvXso_NtCsfvfooZQ3Axs_4core6resultINtB5_6ResultNtNtCs5AlOhPCr03V_3syn4expr9ExprBlockNtNtBO_5error5ErrorENtNtNtB7_3ops9try_trait3Try6branchBO_, symObjAddr: 0xAAC8, symBinAddr: 0x4D81C, symSize: 0xB0 }
  - { offset: 0xB4B82, size: 0x8, addend: 0x0, symName: __RNvXso_NtCsfvfooZQ3Axs_4core6resultINtB5_6ResultNtNtCs5AlOhPCr03V_3syn4expr9ExprMatchNtNtBO_5error5ErrorENtNtNtB7_3ops9try_trait3Try6branchBO_, symObjAddr: 0xAB78, symBinAddr: 0x4D8CC, symSize: 0xB0 }
  - { offset: 0xB4BFF, size: 0x8, addend: 0x0, symName: __RNvXso_NtCsfvfooZQ3Axs_4core6resultINtB5_6ResultNtNtCs5AlOhPCr03V_3syn4expr9ExprWhileNtNtBO_5error5ErrorENtNtNtB7_3ops9try_trait3Try6branchBO_, symObjAddr: 0xAC28, symBinAddr: 0x4D97C, symSize: 0xB0 }
  - { offset: 0xB4C7C, size: 0x8, addend: 0x0, symName: __RNvXso_NtCsfvfooZQ3Axs_4core6resultINtB5_6ResultNtNtCs5AlOhPCr03V_3syn4item11ForeignItemNtNtBO_5error5ErrorENtNtNtB7_3ops9try_trait3Try6branchBO_, symObjAddr: 0xAD88, symBinAddr: 0x4DA2C, symSize: 0xC0 }
  - { offset: 0xB4CFA, size: 0x8, addend: 0x0, symName: __RNvXso_NtCsfvfooZQ3Axs_4core6resultINtB5_6ResultNtNtCs5AlOhPCr03V_3syn4item14ItemForeignModNtNtBO_5error5ErrorENtNtNtB7_3ops9try_trait3Try6branchBO_, symObjAddr: 0xAE48, symBinAddr: 0x4DAEC, symSize: 0xB0 }
  - { offset: 0xB4D77, size: 0x8, addend: 0x0, symName: __RNvXso_NtCsfvfooZQ3Axs_4core6resultINtB5_6ResultNtNtCs5AlOhPCr03V_3syn4item4ItemNtNtBO_5error5ErrorENtNtNtB7_3ops9try_trait3Try6branchBO_, symObjAddr: 0xAEF8, symBinAddr: 0x4DB9C, symSize: 0xC0 }
  - { offset: 0xB4DF5, size: 0x8, addend: 0x0, symName: __RNvXso_NtCsfvfooZQ3Axs_4core6resultINtB5_6ResultNtNtCs5AlOhPCr03V_3syn4item5FnArgNtNtBO_5error5ErrorENtNtNtB7_3ops9try_trait3Try6branchBO_, symObjAddr: 0xAFB8, symBinAddr: 0x4DC5C, symSize: 0xB0 }
  - { offset: 0xB4E72, size: 0x8, addend: 0x0, symName: __RNvXso_NtCsfvfooZQ3Axs_4core6resultINtB5_6ResultNtNtCs5AlOhPCr03V_3syn4item7ItemModNtNtBO_5error5ErrorENtNtNtB7_3ops9try_trait3Try6branchBO_, symObjAddr: 0xB068, symBinAddr: 0x4DD0C, symSize: 0xBC }
  - { offset: 0xB4EEF, size: 0x8, addend: 0x0, symName: __RNvXso_NtCsfvfooZQ3Axs_4core6resultINtB5_6ResultNtNtCs5AlOhPCr03V_3syn4item7UseTreeNtNtBO_5error5ErrorENtNtNtB7_3ops9try_trait3Try6branchBO_, symObjAddr: 0xB124, symBinAddr: 0x4DDC8, symSize: 0xAC }
  - { offset: 0xB4F6C, size: 0x8, addend: 0x0, symName: __RNvXso_NtCsfvfooZQ3Axs_4core6resultINtB5_6ResultNtNtCs5AlOhPCr03V_3syn4item8ImplItemNtNtBO_5error5ErrorENtNtNtB7_3ops9try_trait3Try6branchBO_, symObjAddr: 0xB1D0, symBinAddr: 0x4DE74, symSize: 0xC0 }
  - { offset: 0xB4FEA, size: 0x8, addend: 0x0, symName: __RNvXso_NtCsfvfooZQ3Axs_4core6resultINtB5_6ResultNtNtCs5AlOhPCr03V_3syn4item9ItemMacroNtNtBO_5error5ErrorENtNtNtB7_3ops9try_trait3Try6branchBO_, symObjAddr: 0xB290, symBinAddr: 0x4DF34, symSize: 0xC4 }
  - { offset: 0xB5068, size: 0x8, addend: 0x0, symName: __RNvXso_NtCsfvfooZQ3Axs_4core6resultINtB5_6ResultNtNtCs5AlOhPCr03V_3syn4item9SignatureNtNtBO_5error5ErrorENtNtNtB7_3ops9try_trait3Try6branchBO_, symObjAddr: 0xB354, symBinAddr: 0x4DFF8, symSize: 0xB4 }
  - { offset: 0xB50E6, size: 0x8, addend: 0x0, symName: __RNvXso_NtCsfvfooZQ3Axs_4core6resultINtB5_6ResultNtNtCs5AlOhPCr03V_3syn4item9TraitItemNtNtBO_5error5ErrorENtNtNtB7_3ops9try_trait3Try6branchBO_, symObjAddr: 0xB408, symBinAddr: 0x4E0AC, symSize: 0xCC }
  - { offset: 0xB5164, size: 0x8, addend: 0x0, symName: __RNvXso_NtCsfvfooZQ3Axs_4core6resultINtB5_6ResultNtNtCs5AlOhPCr03V_3syn4path10ConstraintNtNtBO_5error5ErrorENtNtNtB7_3ops9try_trait3Try6branchBO_, symObjAddr: 0xB4D4, symBinAddr: 0x4E178, symSize: 0xB0 }
  - { offset: 0xB51E1, size: 0x8, addend: 0x0, symName: __RNvXso_NtCsfvfooZQ3Axs_4core6resultINtB5_6ResultNtNtCs5AlOhPCr03V_3syn4path11PathSegmentNtNtBO_5error5ErrorENtNtNtB7_3ops9try_trait3Try6branchBO_, symObjAddr: 0xB584, symBinAddr: 0x4E228, symSize: 0xAC }
  - { offset: 0xB525E, size: 0x8, addend: 0x0, symName: __RNvXso_NtCsfvfooZQ3Axs_4core6resultINtB5_6ResultNtNtCs5AlOhPCr03V_3syn4path15GenericArgumentNtNtBO_5error5ErrorENtNtNtB7_3ops9try_trait3Try6branchBO_, symObjAddr: 0xB630, symBinAddr: 0x4E2D4, symSize: 0xCC }
  - { offset: 0xB52DC, size: 0x8, addend: 0x0, symName: __RNvXso_NtCsfvfooZQ3Axs_4core6resultINtB5_6ResultNtNtCs5AlOhPCr03V_3syn4path29ParenthesizedGenericArgumentsNtNtBO_5error5ErrorENtNtNtB7_3ops9try_trait3Try6branchBO_, symObjAddr: 0xB6FC, symBinAddr: 0x4E3A0, symSize: 0xB0 }
  - { offset: 0xB5359, size: 0x8, addend: 0x0, symName: __RNvXso_NtCsfvfooZQ3Axs_4core6resultINtB5_6ResultNtNtCs5AlOhPCr03V_3syn4path30AngleBracketedGenericArgumentsNtNtBO_5error5ErrorENtNtNtB7_3ops9try_trait3Try6branchBO_, symObjAddr: 0xB7AC, symBinAddr: 0x4E450, symSize: 0xB0 }
  - { offset: 0xB53D6, size: 0x8, addend: 0x0, symName: __RNvXso_NtCsfvfooZQ3Axs_4core6resultINtB5_6ResultNtNtCs5AlOhPCr03V_3syn4path4PathNtNtBO_5error5ErrorENtNtNtB7_3ops9try_trait3Try6branchBO_, symObjAddr: 0xB85C, symBinAddr: 0x4E500, symSize: 0xB0 }
  - { offset: 0xB5453, size: 0x8, addend: 0x0, symName: __RNvXso_NtCsfvfooZQ3Axs_4core6resultINtB5_6ResultNtNtCs5AlOhPCr03V_3syn4stmt4StmtNtNtBO_5error5ErrorENtNtNtB7_3ops9try_trait3Try6branchBO_, symObjAddr: 0xB90C, symBinAddr: 0x4E5B0, symSize: 0xC0 }
  - { offset: 0xB54D1, size: 0x8, addend: 0x0, symName: __RNvXso_NtCsfvfooZQ3Axs_4core6resultINtB5_6ResultNtNtCs5AlOhPCr03V_3syn4stmt5BlockNtNtBO_5error5ErrorENtNtNtB7_3ops9try_trait3Try6branchBO_, symObjAddr: 0xB9CC, symBinAddr: 0x4E670, symSize: 0xA0 }
  - { offset: 0xB554E, size: 0x8, addend: 0x0, symName: __RNvXso_NtCsfvfooZQ3Axs_4core6resultINtB5_6ResultNtNtCs5AlOhPCr03V_3syn5group5GroupNtNtBO_5error5ErrorENtNtNtB7_3ops9try_trait3Try6branchBO_, symObjAddr: 0xBA6C, symBinAddr: 0x4E710, symSize: 0xB0 }
  - { offset: 0xB55CB, size: 0x8, addend: 0x0, symName: __RNvXso_NtCsfvfooZQ3Axs_4core6resultINtB5_6ResultNtNtCs5AlOhPCr03V_3syn5token10UnderscoreNtNtBO_5error5ErrorENtNtNtB7_3ops9try_trait3Try6branchBO_, symObjAddr: 0xBB1C, symBinAddr: 0x4E7C0, symSize: 0x8C }
  - { offset: 0xB5648, size: 0x8, addend: 0x0, symName: __RNvXso_NtCsfvfooZQ3Axs_4core6resultINtB5_6ResultNtNtCs5AlOhPCr03V_3syn5token2AsNtNtBO_5error5ErrorENtNtNtB7_3ops9try_trait3Try6branchBO_, symObjAddr: 0xBBA8, symBinAddr: 0x4E84C, symSize: 0x88 }
  - { offset: 0xB56C6, size: 0x8, addend: 0x0, symName: __RNvXso_NtCsfvfooZQ3Axs_4core6resultINtB5_6ResultNtNtCs5AlOhPCr03V_3syn5token2AtNtNtBO_5error5ErrorENtNtNtB7_3ops9try_trait3Try6branchBO_, symObjAddr: 0xBC30, symBinAddr: 0x4E8D4, symSize: 0x8C }
  - { offset: 0xB5743, size: 0x8, addend: 0x0, symName: __RNvXso_NtCsfvfooZQ3Axs_4core6resultINtB5_6ResultNtNtCs5AlOhPCr03V_3syn5token2EqNtNtBO_5error5ErrorENtNtNtB7_3ops9try_trait3Try6branchBO_, symObjAddr: 0xBCBC, symBinAddr: 0x4E960, symSize: 0x8C }
  - { offset: 0xB57C0, size: 0x8, addend: 0x0, symName: __RNvXso_NtCsfvfooZQ3Axs_4core6resultINtB5_6ResultNtNtCs5AlOhPCr03V_3syn5token2FnNtNtBO_5error5ErrorENtNtNtB7_3ops9try_trait3Try6branchBO_, symObjAddr: 0xBD48, symBinAddr: 0x4E9EC, symSize: 0x88 }
  - { offset: 0xB583E, size: 0x8, addend: 0x0, symName: __RNvXso_NtCsfvfooZQ3Axs_4core6resultINtB5_6ResultNtNtCs5AlOhPCr03V_3syn5token2GtNtNtBO_5error5ErrorENtNtNtB7_3ops9try_trait3Try6branchBO_, symObjAddr: 0xBDD0, symBinAddr: 0x4EA74, symSize: 0x8C }
  - { offset: 0xB58BB, size: 0x8, addend: 0x0, symName: __RNvXso_NtCsfvfooZQ3Axs_4core6resultINtB5_6ResultNtNtCs5AlOhPCr03V_3syn5token2IfNtNtBO_5error5ErrorENtNtNtB7_3ops9try_trait3Try6branchBO_, symObjAddr: 0xBE5C, symBinAddr: 0x4EB00, symSize: 0x88 }
  - { offset: 0xB5939, size: 0x8, addend: 0x0, symName: __RNvXso_NtCsfvfooZQ3Axs_4core6resultINtB5_6ResultNtNtCs5AlOhPCr03V_3syn5token2InNtNtBO_5error5ErrorENtNtNtB7_3ops9try_trait3Try6branchBO_, symObjAddr: 0xBEE4, symBinAddr: 0x4EB88, symSize: 0x88 }
  - { offset: 0xB59B7, size: 0x8, addend: 0x0, symName: __RNvXso_NtCsfvfooZQ3Axs_4core6resultINtB5_6ResultNtNtCs5AlOhPCr03V_3syn5token2LtNtNtBO_5error5ErrorENtNtNtB7_3ops9try_trait3Try6branchBO_, symObjAddr: 0xBF6C, symBinAddr: 0x4EC10, symSize: 0x8C }
  - { offset: 0xB5A34, size: 0x8, addend: 0x0, symName: __RNvXso_NtCsfvfooZQ3Axs_4core6resultINtB5_6ResultNtNtCs5AlOhPCr03V_3syn5token2OrNtNtBO_5error5ErrorENtNtNtB7_3ops9try_trait3Try6branchBO_, symObjAddr: 0xBFF8, symBinAddr: 0x4EC9C, symSize: 0x8C }
  - { offset: 0xB5AB1, size: 0x8, addend: 0x0, symName: __RNvXso_NtCsfvfooZQ3Axs_4core6resultINtB5_6ResultNtNtCs5AlOhPCr03V_3syn5token3AddNtNtBO_5error5ErrorENtNtNtB7_3ops9try_trait3Try6branchBO_, symObjAddr: 0xC084, symBinAddr: 0x4ED28, symSize: 0x8C }
  - { offset: 0xB5B2E, size: 0x8, addend: 0x0, symName: __RNvXso_NtCsfvfooZQ3Axs_4core6resultINtB5_6ResultNtNtCs5AlOhPCr03V_3syn5token3AndNtNtBO_5error5ErrorENtNtNtB7_3ops9try_trait3Try6branchBO_, symObjAddr: 0xC110, symBinAddr: 0x4EDB4, symSize: 0x8C }
  - { offset: 0xB5BAB, size: 0x8, addend: 0x0, symName: __RNvXso_NtCsfvfooZQ3Axs_4core6resultINtB5_6ResultNtNtCs5AlOhPCr03V_3syn5token3BoxNtNtBO_5error5ErrorENtNtNtB7_3ops9try_trait3Try6branchBO_, symObjAddr: 0xC19C, symBinAddr: 0x4EE40, symSize: 0x88 }
  - { offset: 0xB5C29, size: 0x8, addend: 0x0, symName: __RNvXso_NtCsfvfooZQ3Axs_4core6resultINtB5_6ResultNtNtCs5AlOhPCr03V_3syn5token3DotNtNtBO_5error5ErrorENtNtNtB7_3ops9try_trait3Try6branchBO_, symObjAddr: 0xC224, symBinAddr: 0x4EEC8, symSize: 0x8C }
  - { offset: 0xB5CA6, size: 0x8, addend: 0x0, symName: __RNvXso_NtCsfvfooZQ3Axs_4core6resultINtB5_6ResultNtNtCs5AlOhPCr03V_3syn5token3DynNtNtBO_5error5ErrorENtNtNtB7_3ops9try_trait3Try6branchBO_, symObjAddr: 0xC2B0, symBinAddr: 0x4EF54, symSize: 0x88 }
  - { offset: 0xB5D24, size: 0x8, addend: 0x0, symName: __RNvXso_NtCsfvfooZQ3Axs_4core6resultINtB5_6ResultNtNtCs5AlOhPCr03V_3syn5token3ForNtNtBO_5error5ErrorENtNtNtB7_3ops9try_trait3Try6branchBO_, symObjAddr: 0xC338, symBinAddr: 0x4EFDC, symSize: 0x88 }
  - { offset: 0xB5DA2, size: 0x8, addend: 0x0, symName: __RNvXso_NtCsfvfooZQ3Axs_4core6resultINtB5_6ResultNtNtCs5AlOhPCr03V_3syn5token3LetNtNtBO_5error5ErrorENtNtNtB7_3ops9try_trait3Try6branchBO_, symObjAddr: 0xC3C0, symBinAddr: 0x4F064, symSize: 0x88 }
  - { offset: 0xB5E20, size: 0x8, addend: 0x0, symName: __RNvXso_NtCsfvfooZQ3Axs_4core6resultINtB5_6ResultNtNtCs5AlOhPCr03V_3syn5token3ModNtNtBO_5error5ErrorENtNtNtB7_3ops9try_trait3Try6branchBO_, symObjAddr: 0xC448, symBinAddr: 0x4F0EC, symSize: 0x88 }
  - { offset: 0xB5E9E, size: 0x8, addend: 0x0, symName: __RNvXso_NtCsfvfooZQ3Axs_4core6resultINtB5_6ResultNtNtCs5AlOhPCr03V_3syn5token3MutNtNtBO_5error5ErrorENtNtNtB7_3ops9try_trait3Try6branchBO_, symObjAddr: 0xC4D0, symBinAddr: 0x4F174, symSize: 0x88 }
  - { offset: 0xB5F1C, size: 0x8, addend: 0x0, symName: __RNvXso_NtCsfvfooZQ3Axs_4core6resultINtB5_6ResultNtNtCs5AlOhPCr03V_3syn5token3PubNtNtBO_5error5ErrorENtNtNtB7_3ops9try_trait3Try6branchBO_, symObjAddr: 0xC558, symBinAddr: 0x4F1FC, symSize: 0x88 }
  - { offset: 0xB5F9A, size: 0x8, addend: 0x0, symName: __RNvXso_NtCsfvfooZQ3Axs_4core6resultINtB5_6ResultNtNtCs5AlOhPCr03V_3syn5token3RefNtNtBO_5error5ErrorENtNtNtB7_3ops9try_trait3Try6branchBO_, symObjAddr: 0xC5E0, symBinAddr: 0x4F284, symSize: 0x88 }
  - { offset: 0xB6018, size: 0x8, addend: 0x0, symName: __RNvXso_NtCsfvfooZQ3Axs_4core6resultINtB5_6ResultNtNtCs5AlOhPCr03V_3syn5token3SubNtNtBO_5error5ErrorENtNtNtB7_3ops9try_trait3Try6branchBO_, symObjAddr: 0xC668, symBinAddr: 0x4F30C, symSize: 0x8C }
  - { offset: 0xB6095, size: 0x8, addend: 0x0, symName: __RNvXso_NtCsfvfooZQ3Axs_4core6resultINtB5_6ResultNtNtCs5AlOhPCr03V_3syn5token3TryNtNtBO_5error5ErrorENtNtNtB7_3ops9try_trait3Try6branchBO_, symObjAddr: 0xC6F4, symBinAddr: 0x4F398, symSize: 0x88 }
  - { offset: 0xB6113, size: 0x8, addend: 0x0, symName: __RNvXso_NtCsfvfooZQ3Axs_4core6resultINtB5_6ResultNtNtCs5AlOhPCr03V_3syn5token3UseNtNtBO_5error5ErrorENtNtNtB7_3ops9try_trait3Try6branchBO_, symObjAddr: 0xC77C, symBinAddr: 0x4F420, symSize: 0x88 }
  - { offset: 0xB6191, size: 0x8, addend: 0x0, symName: __RNvXso_NtCsfvfooZQ3Axs_4core6resultINtB5_6ResultNtNtCs5AlOhPCr03V_3syn5token4AutoNtNtBO_5error5ErrorENtNtNtB7_3ops9try_trait3Try6branchBO_, symObjAddr: 0xC804, symBinAddr: 0x4F4A8, symSize: 0x88 }
  - { offset: 0xB620F, size: 0x8, addend: 0x0, symName: __RNvXso_NtCsfvfooZQ3Axs_4core6resultINtB5_6ResultNtNtCs5AlOhPCr03V_3syn5token4BangNtNtBO_5error5ErrorENtNtNtB7_3ops9try_trait3Try6branchBO_, symObjAddr: 0xC88C, symBinAddr: 0x4F530, symSize: 0x8C }
  - { offset: 0xB628C, size: 0x8, addend: 0x0, symName: __RNvXso_NtCsfvfooZQ3Axs_4core6resultINtB5_6ResultNtNtCs5AlOhPCr03V_3syn5token4Dot2NtNtBO_5error5ErrorENtNtNtB7_3ops9try_trait3Try6branchBO_, symObjAddr: 0xC918, symBinAddr: 0x4F5BC, symSize: 0x8C }
  - { offset: 0xB6309, size: 0x8, addend: 0x0, symName: __RNvXso_NtCsfvfooZQ3Axs_4core6resultINtB5_6ResultNtNtCs5AlOhPCr03V_3syn5token4Dot3NtNtBO_5error5ErrorENtNtNtB7_3ops9try_trait3Try6branchBO_, symObjAddr: 0xC9A4, symBinAddr: 0x4F648, symSize: 0x9C }
  - { offset: 0xB6386, size: 0x8, addend: 0x0, symName: __RNvXso_NtCsfvfooZQ3Axs_4core6resultINtB5_6ResultNtNtCs5AlOhPCr03V_3syn5token4ElseNtNtBO_5error5ErrorENtNtNtB7_3ops9try_trait3Try6branchBO_, symObjAddr: 0xCA40, symBinAddr: 0x4F6E4, symSize: 0x88 }
  - { offset: 0xB6404, size: 0x8, addend: 0x0, symName: __RNvXso_NtCsfvfooZQ3Axs_4core6resultINtB5_6ResultNtNtCs5AlOhPCr03V_3syn5token4EnumNtNtBO_5error5ErrorENtNtNtB7_3ops9try_trait3Try6branchBO_, symObjAddr: 0xCAC8, symBinAddr: 0x4F76C, symSize: 0x88 }
  - { offset: 0xB6482, size: 0x8, addend: 0x0, symName: __RNvXso_NtCsfvfooZQ3Axs_4core6resultINtB5_6ResultNtNtCs5AlOhPCr03V_3syn5token4ImplNtNtBO_5error5ErrorENtNtNtB7_3ops9try_trait3Try6branchBO_, symObjAddr: 0xCB50, symBinAddr: 0x4F7F4, symSize: 0x88 }
  - { offset: 0xB6500, size: 0x8, addend: 0x0, symName: __RNvXso_NtCsfvfooZQ3Axs_4core6resultINtB5_6ResultNtNtCs5AlOhPCr03V_3syn5token4LoopNtNtBO_5error5ErrorENtNtNtB7_3ops9try_trait3Try6branchBO_, symObjAddr: 0xCBD8, symBinAddr: 0x4F87C, symSize: 0x88 }
  - { offset: 0xB657E, size: 0x8, addend: 0x0, symName: __RNvXso_NtCsfvfooZQ3Axs_4core6resultINtB5_6ResultNtNtCs5AlOhPCr03V_3syn5token4MoveNtNtBO_5error5ErrorENtNtNtB7_3ops9try_trait3Try6branchBO_, symObjAddr: 0xCC60, symBinAddr: 0x4F904, symSize: 0x88 }
  - { offset: 0xB65FC, size: 0x8, addend: 0x0, symName: __RNvXso_NtCsfvfooZQ3Axs_4core6resultINtB5_6ResultNtNtCs5AlOhPCr03V_3syn5token4SemiNtNtBO_5error5ErrorENtNtNtB7_3ops9try_trait3Try6branchBO_, symObjAddr: 0xCCE8, symBinAddr: 0x4F98C, symSize: 0x8C }
  - { offset: 0xB6679, size: 0x8, addend: 0x0, symName: __RNvXso_NtCsfvfooZQ3Axs_4core6resultINtB5_6ResultNtNtCs5AlOhPCr03V_3syn5token4StarNtNtBO_5error5ErrorENtNtNtB7_3ops9try_trait3Try6branchBO_, symObjAddr: 0xCD74, symBinAddr: 0x4FA18, symSize: 0x8C }
  - { offset: 0xB66F6, size: 0x8, addend: 0x0, symName: __RNvXso_NtCsfvfooZQ3Axs_4core6resultINtB5_6ResultNtNtCs5AlOhPCr03V_3syn5token4TypeNtNtBO_5error5ErrorENtNtNtB7_3ops9try_trait3Try6branchBO_, symObjAddr: 0xCE00, symBinAddr: 0x4FAA4, symSize: 0x88 }
  - { offset: 0xB6774, size: 0x8, addend: 0x0, symName: __RNvXso_NtCsfvfooZQ3Axs_4core6resultINtB5_6ResultNtNtCs5AlOhPCr03V_3syn5token5AsyncNtNtBO_5error5ErrorENtNtNtB7_3ops9try_trait3Try6branchBO_, symObjAddr: 0xCE88, symBinAddr: 0x4FB2C, symSize: 0x88 }
  - { offset: 0xB67F2, size: 0x8, addend: 0x0, symName: __RNvXso_NtCsfvfooZQ3Axs_4core6resultINtB5_6ResultNtNtCs5AlOhPCr03V_3syn5token5AwaitNtNtBO_5error5ErrorENtNtNtB7_3ops9try_trait3Try6branchBO_, symObjAddr: 0xCF10, symBinAddr: 0x4FBB4, symSize: 0x88 }
  - { offset: 0xB6870, size: 0x8, addend: 0x0, symName: __RNvXso_NtCsfvfooZQ3Axs_4core6resultINtB5_6ResultNtNtCs5AlOhPCr03V_3syn5token5BreakNtNtBO_5error5ErrorENtNtNtB7_3ops9try_trait3Try6branchBO_, symObjAddr: 0xCF98, symBinAddr: 0x4FC3C, symSize: 0x88 }
  - { offset: 0xB68EE, size: 0x8, addend: 0x0, symName: __RNvXso_NtCsfvfooZQ3Axs_4core6resultINtB5_6ResultNtNtCs5AlOhPCr03V_3syn5token5ColonNtNtBO_5error5ErrorENtNtNtB7_3ops9try_trait3Try6branchBO_, symObjAddr: 0xD020, symBinAddr: 0x4FCC4, symSize: 0x8C }
  - { offset: 0xB696B, size: 0x8, addend: 0x0, symName: __RNvXso_NtCsfvfooZQ3Axs_4core6resultINtB5_6ResultNtNtCs5AlOhPCr03V_3syn5token5CommaNtNtBO_5error5ErrorENtNtNtB7_3ops9try_trait3Try6branchBO_, symObjAddr: 0xD0AC, symBinAddr: 0x4FD50, symSize: 0x8C }
  - { offset: 0xB69E8, size: 0x8, addend: 0x0, symName: __RNvXso_NtCsfvfooZQ3Axs_4core6resultINtB5_6ResultNtNtCs5AlOhPCr03V_3syn5token5ConstNtNtBO_5error5ErrorENtNtNtB7_3ops9try_trait3Try6branchBO_, symObjAddr: 0xD138, symBinAddr: 0x4FDDC, symSize: 0x88 }
  - { offset: 0xB6A66, size: 0x8, addend: 0x0, symName: __RNvXso_NtCsfvfooZQ3Axs_4core6resultINtB5_6ResultNtNtCs5AlOhPCr03V_3syn5token5CrateNtNtBO_5error5ErrorENtNtNtB7_3ops9try_trait3Try6branchBO_, symObjAddr: 0xD1C0, symBinAddr: 0x4FE64, symSize: 0x88 }
  - { offset: 0xB6AE4, size: 0x8, addend: 0x0, symName: __RNvXso_NtCsfvfooZQ3Axs_4core6resultINtB5_6ResultNtNtCs5AlOhPCr03V_3syn5token5MacroNtNtBO_5error5ErrorENtNtNtB7_3ops9try_trait3Try6branchBO_, symObjAddr: 0xD248, symBinAddr: 0x4FEEC, symSize: 0x88 }
  - { offset: 0xB6B62, size: 0x8, addend: 0x0, symName: __RNvXso_NtCsfvfooZQ3Axs_4core6resultINtB5_6ResultNtNtCs5AlOhPCr03V_3syn5token5MatchNtNtBO_5error5ErrorENtNtNtB7_3ops9try_trait3Try6branchBO_, symObjAddr: 0xD2D0, symBinAddr: 0x4FF74, symSize: 0x88 }
  - { offset: 0xB6BE0, size: 0x8, addend: 0x0, symName: __RNvXso_NtCsfvfooZQ3Axs_4core6resultINtB5_6ResultNtNtCs5AlOhPCr03V_3syn5token5PoundNtNtBO_5error5ErrorENtNtNtB7_3ops9try_trait3Try6branchBO_, symObjAddr: 0xD358, symBinAddr: 0x4FFFC, symSize: 0x8C }
  - { offset: 0xB6C5D, size: 0x8, addend: 0x0, symName: __RNvXso_NtCsfvfooZQ3Axs_4core6resultINtB5_6ResultNtNtCs5AlOhPCr03V_3syn5token5TildeNtNtBO_5error5ErrorENtNtNtB7_3ops9try_trait3Try6branchBO_, symObjAddr: 0xD3E4, symBinAddr: 0x50088, symSize: 0x8C }
  - { offset: 0xB6CDA, size: 0x8, addend: 0x0, symName: __RNvXso_NtCsfvfooZQ3Axs_4core6resultINtB5_6ResultNtNtCs5AlOhPCr03V_3syn5token5TraitNtNtBO_5error5ErrorENtNtNtB7_3ops9try_trait3Try6branchBO_, symObjAddr: 0xD470, symBinAddr: 0x50114, symSize: 0x88 }
  - { offset: 0xB6D58, size: 0x8, addend: 0x0, symName: __RNvXso_NtCsfvfooZQ3Axs_4core6resultINtB5_6ResultNtNtCs5AlOhPCr03V_3syn5token5UnionNtNtBO_5error5ErrorENtNtNtB7_3ops9try_trait3Try6branchBO_, symObjAddr: 0xD4F8, symBinAddr: 0x5019C, symSize: 0x88 }
  - { offset: 0xB6DD6, size: 0x8, addend: 0x0, symName: __RNvXso_NtCsfvfooZQ3Axs_4core6resultINtB5_6ResultNtNtCs5AlOhPCr03V_3syn5token5WhereNtNtBO_5error5ErrorENtNtNtB7_3ops9try_trait3Try6branchBO_, symObjAddr: 0xD580, symBinAddr: 0x50224, symSize: 0x88 }
  - { offset: 0xB6E54, size: 0x8, addend: 0x0, symName: __RNvXso_NtCsfvfooZQ3Axs_4core6resultINtB5_6ResultNtNtCs5AlOhPCr03V_3syn5token5WhileNtNtBO_5error5ErrorENtNtNtB7_3ops9try_trait3Try6branchBO_, symObjAddr: 0xD608, symBinAddr: 0x502AC, symSize: 0x88 }
  - { offset: 0xB6ED2, size: 0x8, addend: 0x0, symName: __RNvXso_NtCsfvfooZQ3Axs_4core6resultINtB5_6ResultNtNtCs5AlOhPCr03V_3syn5token5YieldNtNtBO_5error5ErrorENtNtNtB7_3ops9try_trait3Try6branchBO_, symObjAddr: 0xD690, symBinAddr: 0x50334, symSize: 0x88 }
  - { offset: 0xB6F50, size: 0x8, addend: 0x0, symName: __RNvXso_NtCsfvfooZQ3Axs_4core6resultINtB5_6ResultNtNtCs5AlOhPCr03V_3syn5token6Colon2NtNtBO_5error5ErrorENtNtNtB7_3ops9try_trait3Try6branchBO_, symObjAddr: 0xD718, symBinAddr: 0x503BC, symSize: 0x8C }
  - { offset: 0xB6FCD, size: 0x8, addend: 0x0, symName: __RNvXso_NtCsfvfooZQ3Axs_4core6resultINtB5_6ResultNtNtCs5AlOhPCr03V_3syn5token6ExternNtNtBO_5error5ErrorENtNtNtB7_3ops9try_trait3Try6branchBO_, symObjAddr: 0xD7A4, symBinAddr: 0x50448, symSize: 0x88 }
  - { offset: 0xB704B, size: 0x8, addend: 0x0, symName: __RNvXso_NtCsfvfooZQ3Axs_4core6resultINtB5_6ResultNtNtCs5AlOhPCr03V_3syn5token6RArrowNtNtBO_5error5ErrorENtNtNtB7_3ops9try_trait3Try6branchBO_, symObjAddr: 0xD82C, symBinAddr: 0x504D0, symSize: 0x8C }
  - { offset: 0xB70C8, size: 0x8, addend: 0x0, symName: __RNvXso_NtCsfvfooZQ3Axs_4core6resultINtB5_6ResultNtNtCs5AlOhPCr03V_3syn5token6ReturnNtNtBO_5error5ErrorENtNtNtB7_3ops9try_trait3Try6branchBO_, symObjAddr: 0xD8B8, symBinAddr: 0x5055C, symSize: 0x88 }
  - { offset: 0xB7146, size: 0x8, addend: 0x0, symName: __RNvXso_NtCsfvfooZQ3Axs_4core6resultINtB5_6ResultNtNtCs5AlOhPCr03V_3syn5token6StaticNtNtBO_5error5ErrorENtNtNtB7_3ops9try_trait3Try6branchBO_, symObjAddr: 0xD940, symBinAddr: 0x505E4, symSize: 0x88 }
  - { offset: 0xB71C4, size: 0x8, addend: 0x0, symName: __RNvXso_NtCsfvfooZQ3Axs_4core6resultINtB5_6ResultNtNtCs5AlOhPCr03V_3syn5token6StructNtNtBO_5error5ErrorENtNtNtB7_3ops9try_trait3Try6branchBO_, symObjAddr: 0xD9C8, symBinAddr: 0x5066C, symSize: 0x88 }
  - { offset: 0xB7242, size: 0x8, addend: 0x0, symName: __RNvXso_NtCsfvfooZQ3Axs_4core6resultINtB5_6ResultNtNtCs5AlOhPCr03V_3syn5token6UnsafeNtNtBO_5error5ErrorENtNtNtB7_3ops9try_trait3Try6branchBO_, symObjAddr: 0xDA50, symBinAddr: 0x506F4, symSize: 0x88 }
  - { offset: 0xB72C0, size: 0x8, addend: 0x0, symName: __RNvXso_NtCsfvfooZQ3Axs_4core6resultINtB5_6ResultNtNtCs5AlOhPCr03V_3syn5token7DefaultNtNtBO_5error5ErrorENtNtNtB7_3ops9try_trait3Try6branchBO_, symObjAddr: 0xDAD8, symBinAddr: 0x5077C, symSize: 0x88 }
  - { offset: 0xB733E, size: 0x8, addend: 0x0, symName: __RNvXso_NtCsfvfooZQ3Axs_4core6resultINtB5_6ResultNtNtCs5AlOhPCr03V_3syn5token8ContinueNtNtBO_5error5ErrorENtNtNtB7_3ops9try_trait3Try6branchBO_, symObjAddr: 0xDB60, symBinAddr: 0x50804, symSize: 0x88 }
  - { offset: 0xB73BC, size: 0x8, addend: 0x0, symName: __RNvXso_NtCsfvfooZQ3Axs_4core6resultINtB5_6ResultNtNtCs5AlOhPCr03V_3syn5token8FatArrowNtNtBO_5error5ErrorENtNtNtB7_3ops9try_trait3Try6branchBO_, symObjAddr: 0xDBE8, symBinAddr: 0x5088C, symSize: 0x8C }
  - { offset: 0xB7439, size: 0x8, addend: 0x0, symName: __RNvXso_NtCsfvfooZQ3Axs_4core6resultINtB5_6ResultNtNtCs5AlOhPCr03V_3syn5token8QuestionNtNtBO_5error5ErrorENtNtNtB7_3ops9try_trait3Try6branchBO_, symObjAddr: 0xDC74, symBinAddr: 0x50918, symSize: 0x8C }
  - { offset: 0xB74B6, size: 0x8, addend: 0x0, symName: __RNvXso_NtCsfvfooZQ3Axs_4core6resultINtB5_6ResultNtNtCs5AlOhPCr03V_3syn5token9SelfValueNtNtBO_5error5ErrorENtNtNtB7_3ops9try_trait3Try6branchBO_, symObjAddr: 0xDD00, symBinAddr: 0x509A4, symSize: 0x88 }
  - { offset: 0xB7534, size: 0x8, addend: 0x0, symName: __RNvXso_NtCsfvfooZQ3Axs_4core6resultINtB5_6ResultNtNtCs5AlOhPCr03V_3syn8generics10ConstParamNtNtBO_5error5ErrorENtNtNtB7_3ops9try_trait3Try6branchBO_, symObjAddr: 0xDD88, symBinAddr: 0x50A2C, symSize: 0xB8 }
  - { offset: 0xB75B2, size: 0x8, addend: 0x0, symName: __RNvXso_NtCsfvfooZQ3Axs_4core6resultINtB5_6ResultNtNtCs5AlOhPCr03V_3syn8generics10TraitBoundNtNtBO_5error5ErrorENtNtNtB7_3ops9try_trait3Try6branchBO_, symObjAddr: 0xDE40, symBinAddr: 0x50AE4, symSize: 0xB0 }
  - { offset: 0xB762F, size: 0x8, addend: 0x0, symName: __RNvXso_NtCsfvfooZQ3Axs_4core6resultINtB5_6ResultNtNtCs5AlOhPCr03V_3syn8generics11LifetimeDefNtNtBO_5error5ErrorENtNtNtB7_3ops9try_trait3Try6branchBO_, symObjAddr: 0xDEF0, symBinAddr: 0x50B94, symSize: 0xB0 }
  - { offset: 0xB76AC, size: 0x8, addend: 0x0, symName: __RNvXso_NtCsfvfooZQ3Axs_4core6resultINtB5_6ResultNtNtCs5AlOhPCr03V_3syn8generics11WhereClauseNtNtBO_5error5ErrorENtNtNtB7_3ops9try_trait3Try6branchBO_, symObjAddr: 0xDFA0, symBinAddr: 0x50C44, symSize: 0xB0 }
  - { offset: 0xB7729, size: 0x8, addend: 0x0, symName: __RNvXso_NtCsfvfooZQ3Axs_4core6resultINtB5_6ResultNtNtCs5AlOhPCr03V_3syn8generics14BoundLifetimesNtNtBO_5error5ErrorENtNtNtB7_3ops9try_trait3Try6branchBO_, symObjAddr: 0xE050, symBinAddr: 0x50CF4, symSize: 0xB0 }
  - { offset: 0xB77A6, size: 0x8, addend: 0x0, symName: __RNvXso_NtCsfvfooZQ3Axs_4core6resultINtB5_6ResultNtNtCs5AlOhPCr03V_3syn8generics14TypeParamBoundNtNtBO_5error5ErrorENtNtNtB7_3ops9try_trait3Try6branchBO_, symObjAddr: 0xE100, symBinAddr: 0x50DA4, symSize: 0xB0 }
  - { offset: 0xB7823, size: 0x8, addend: 0x0, symName: __RNvXso_NtCsfvfooZQ3Axs_4core6resultINtB5_6ResultNtNtCs5AlOhPCr03V_3syn8generics14WherePredicateNtNtBO_5error5ErrorENtNtNtB7_3ops9try_trait3Try6branchBO_, symObjAddr: 0xE1B0, symBinAddr: 0x50E54, symSize: 0xCC }
  - { offset: 0xB78A1, size: 0x8, addend: 0x0, symName: __RNvXso_NtCsfvfooZQ3Axs_4core6resultINtB5_6ResultNtNtCs5AlOhPCr03V_3syn8generics18TraitBoundModifierNtNtBO_5error5ErrorENtNtNtB7_3ops9try_trait3Try6branchBO_, symObjAddr: 0xE27C, symBinAddr: 0x50F20, symSize: 0x8C }
  - { offset: 0xB791E, size: 0x8, addend: 0x0, symName: __RNvXso_NtCsfvfooZQ3Axs_4core6resultINtB5_6ResultNtNtCs5AlOhPCr03V_3syn8generics8GenericsNtNtBO_5error5ErrorENtNtNtB7_3ops9try_trait3Try6branchBO_, symObjAddr: 0xE308, symBinAddr: 0x50FAC, symSize: 0xB0 }
  - { offset: 0xB799B, size: 0x8, addend: 0x0, symName: __RNvXso_NtCsfvfooZQ3Axs_4core6resultINtB5_6ResultNtNtCs5AlOhPCr03V_3syn8generics9TypeParamNtNtBO_5error5ErrorENtNtNtB7_3ops9try_trait3Try6branchBO_, symObjAddr: 0xE3B8, symBinAddr: 0x5105C, symSize: 0xC4 }
  - { offset: 0xB7A19, size: 0x8, addend: 0x0, symName: __RNvXso_NtCsfvfooZQ3Axs_4core6resultINtB5_6ResultNtNtCs5AlOhPCr03V_3syn8lifetime8LifetimeNtNtBO_5error5ErrorENtNtNtB7_3ops9try_trait3Try6branchBO_, symObjAddr: 0xE47C, symBinAddr: 0x51120, symSize: 0x94 }
  - { offset: 0xB7A96, size: 0x8, addend: 0x0, symName: __RNvXso_NtCsfvfooZQ3Axs_4core6resultINtB5_6ResultNtNtNtCs5AlOhPCr03V_3syn4expr7parsing3rawNtNtBQ_5error5ErrorENtNtNtB7_3ops9try_trait3Try6branchBQ_, symObjAddr: 0xE510, symBinAddr: 0x511B4, symSize: 0x88 }
  - { offset: 0xB7B14, size: 0x8, addend: 0x0, symName: __RNvXso_NtCsfvfooZQ3Axs_4core6resultINtB5_6ResultNtNtNtCs5AlOhPCr03V_3syn4item7parsing16FlexibleItemTypeNtNtBQ_5error5ErrorENtNtNtB7_3ops9try_trait3Try6branchBQ_, symObjAddr: 0xE598, symBinAddr: 0x5123C, symSize: 0xB8 }
  - { offset: 0xB7B92, size: 0x8, addend: 0x0, symName: __RNvXso_NtCsfvfooZQ3Axs_4core6resultINtB5_6ResultTINtNtB7_6option6OptionNtNtCs5AlOhPCr03V_3syn4path5QSelfENtB19_4PathENtNtB1b_5error5ErrorENtNtNtB7_3ops9try_trait3Try6branchB1b_, symObjAddr: 0xE650, symBinAddr: 0x512F4, symSize: 0xB0 }
  - { offset: 0xB7C0F, size: 0x8, addend: 0x0, symName: __RNvXso_NtCsfvfooZQ3Axs_4core6resultINtB5_6ResultTINtNtB7_6option6OptionNtNtCs5AlOhPCr03V_3syn8generics11WhereClauseENtNtB1b_4data11FieldsNamedENtNtB1b_5error5ErrorENtNtNtB7_3ops9try_trait3Try6branchB1b_, symObjAddr: 0xE700, symBinAddr: 0x513A4, symSize: 0xB0 }
  - { offset: 0xB7C8C, size: 0x8, addend: 0x0, symName: __RNvXso_NtCsfvfooZQ3Axs_4core6resultINtB5_6ResultTINtNtB7_6option6OptionNtNtCs5AlOhPCr03V_3syn8generics11WhereClauseENtNtB1b_4data6FieldsIBM_NtNtB1b_5token4SemiEENtNtB1b_5error5ErrorENtNtNtB7_3ops9try_trait3Try6branchB1b_, symObjAddr: 0xE7B0, symBinAddr: 0x51454, symSize: 0xAC }
  - { offset: 0xB7D09, size: 0x8, addend: 0x0, symName: __RNvXso_NtCsfvfooZQ3Axs_4core6resultINtB5_6ResultTINtNtB7_6option6OptionNtNtCs5AlOhPCr03V_3syn8generics11WhereClauseENtNtB1b_5token5BraceINtNtB1b_10punctuated10PunctuatedNtNtB1b_4data7VariantNtB1S_5CommaEENtNtB1b_5error5ErrorENtNtNtB7_3ops9try_trait3Try6branchB1b_, symObjAddr: 0xE85C, symBinAddr: 0x51500, symSize: 0xB0 }
  - { offset: 0xB7D86, size: 0x8, addend: 0x0, symName: __RNvXso_NtCsfvfooZQ3Axs_4core6resultINtB5_6ResultTINtNtCse1nGBsou5OW_5alloc3vec3VecNtNtCs5AlOhPCr03V_3syn4attr9AttributeENtNtB1m_4data10VisibilityNtNtB1m_5token5TraitNtCs3cP53eQoTwO_11proc_macro25IdentNtNtB1m_8generics8GenericsENtNtB1m_5error5ErrorENtNtNtB7_3ops9try_trait3Try6branchB1m_, symObjAddr: 0xE90C, symBinAddr: 0x515B0, symSize: 0xC4 }
  - { offset: 0xB7E04, size: 0x8, addend: 0x0, symName: __RNvXso_NtCsfvfooZQ3Axs_4core6resultINtB5_6ResultTNtCs3cP53eQoTwO_11proc_macro211TokenStreamNtNtCs5AlOhPCr03V_3syn6buffer6CursorENtNtB1v_5error5ErrorENtNtNtB7_3ops9try_trait3Try6branchB1v_, symObjAddr: 0xE9D0, symBinAddr: 0x51674, symSize: 0xB0 }
  - { offset: 0xB7E81, size: 0x8, addend: 0x0, symName: __RNvXso_NtCsfvfooZQ3Axs_4core6resultINtB5_6ResultTNtCs3cP53eQoTwO_11proc_macro24SpanNtNtCs5AlOhPCr03V_3syn6buffer6CursorENtNtB1n_5error5ErrorENtNtNtB7_3ops9try_trait3Try6branchB1n_, symObjAddr: 0xEA80, symBinAddr: 0x51724, symSize: 0x94 }
  - { offset: 0xB7EFE, size: 0x8, addend: 0x0, symName: __RNvXso_NtCsfvfooZQ3Axs_4core6resultINtB5_6ResultTNtCs3cP53eQoTwO_11proc_macro25IdentNtNtCs5AlOhPCr03V_3syn6buffer6CursorENtNtB1o_5error5ErrorENtNtNtB7_3ops9try_trait3Try6branchB1o_, symObjAddr: 0xEBC0, symBinAddr: 0x517B8, symSize: 0xB0 }
  - { offset: 0xB7F7B, size: 0x8, addend: 0x0, symName: __RNvXso_NtCsfvfooZQ3Axs_4core6resultINtB5_6ResultTNtCs3cP53eQoTwO_11proc_macro27LiteralNtNtCs5AlOhPCr03V_3syn6buffer6CursorENtNtB1q_5error5ErrorENtNtNtB7_3ops9try_trait3Try6branchB1q_, symObjAddr: 0xED0C, symBinAddr: 0x51868, symSize: 0xB0 }
  - { offset: 0xB7FF8, size: 0x8, addend: 0x0, symName: __RNvXso_NtCsfvfooZQ3Axs_4core6resultINtB5_6ResultTNtCs3cP53eQoTwO_11proc_macro29TokenTreeNtNtCs5AlOhPCr03V_3syn6buffer6CursorENtNtB1s_5error5ErrorENtNtNtB7_3ops9try_trait3Try6branchB1s_, symObjAddr: 0xEDBC, symBinAddr: 0x51918, symSize: 0xAC }
  - { offset: 0xB8075, size: 0x8, addend: 0x0, symName: __RNvXso_NtCsfvfooZQ3Axs_4core6resultINtB5_6ResultTNtNtCs5AlOhPCr03V_3syn3lit3LitNtNtBP_6buffer6CursorENtNtBP_5error5ErrorENtNtNtB7_3ops9try_trait3Try6branchBP_, symObjAddr: 0xEE68, symBinAddr: 0x519C4, symSize: 0xB8 }
  - { offset: 0xB80F2, size: 0x8, addend: 0x0, symName: __RNvXso_NtCsfvfooZQ3Axs_4core6resultINtB5_6ResultTNtNtCs5AlOhPCr03V_3syn3mac14MacroDelimiterNtCs3cP53eQoTwO_11proc_macro211TokenStreamENtNtBP_5error5ErrorENtNtNtB7_3ops9try_trait3Try6branchBP_, symObjAddr: 0xEF20, symBinAddr: 0x51A7C, symSize: 0xB0 }
  - { offset: 0xB816F, size: 0x8, addend: 0x0, symName: __RNvXso_NtCsfvfooZQ3Axs_4core6resultINtB5_6ResultTNtNtCs5AlOhPCr03V_3syn5token10UnderscoreNtNtBP_6buffer6CursorENtNtBP_5error5ErrorENtNtNtB7_3ops9try_trait3Try6branchBP_, symObjAddr: 0xEFD0, symBinAddr: 0x51B2C, symSize: 0x94 }
  - { offset: 0xB81EC, size: 0x8, addend: 0x0, symName: __RNvXso_NtCsfvfooZQ3Axs_4core6resultINtB5_6ResultTNtNtCs5AlOhPCr03V_3syn5token4ElseINtNtCse1nGBsou5OW_5alloc5boxed3BoxNtNtBP_4expr4ExprEENtNtBP_5error5ErrorENtNtNtB7_3ops9try_trait3Try6branchBP_, symObjAddr: 0xF064, symBinAddr: 0x51BC0, symSize: 0x94 }
  - { offset: 0xB826A, size: 0x8, addend: 0x0, symName: __RNvXso_NtCsfvfooZQ3Axs_4core6resultINtB5_6ResultTNtNtCs5AlOhPCr03V_3syn8lifetime8LifetimeNtNtBP_6buffer6CursorENtNtBP_5error5ErrorENtNtNtB7_3ops9try_trait3Try6branchBP_, symObjAddr: 0xF0F8, symBinAddr: 0x51C54, symSize: 0xAC }
  - { offset: 0xB82E7, size: 0x8, addend: 0x0, symName: __RNvXso_NtCsfvfooZQ3Axs_4core6resultINtB5_6ResultTNtNtNtCs5AlOhPCr03V_3syn4expr7parsing3rawNtNtBR_6buffer6CursorENtNtBR_5error5ErrorENtNtNtB7_3ops9try_trait3Try6branchBR_, symObjAddr: 0xF1A4, symBinAddr: 0x51D00, symSize: 0x94 }
  - { offset: 0xB8364, size: 0x8, addend: 0x0, symName: __RNvXso_NtCsfvfooZQ3Axs_4core6resultINtB5_6ResultTTNtCs3cP53eQoTwO_11proc_macro24SpanNtNtCs5AlOhPCr03V_3syn5parse11ParseBufferENtNtB1o_6buffer6CursorENtNtB1o_5error5ErrorENtNtNtB7_3ops9try_trait3Try6branchB1o_, symObjAddr: 0xF2CC, symBinAddr: 0x51D94, symSize: 0xB0 }
  - { offset: 0xB83E1, size: 0x8, addend: 0x0, symName: __RNvXso_NtCsfvfooZQ3Axs_4core6resultINtB5_6ResultTTNtNtCs5AlOhPCr03V_3syn3mac14MacroDelimiterNtCs3cP53eQoTwO_11proc_macro211TokenStreamENtNtBQ_6buffer6CursorENtNtBQ_5error5ErrorENtNtNtB7_3ops9try_trait3Try6branchBQ_, symObjAddr: 0xF37C, symBinAddr: 0x51E44, symSize: 0xB0 }
  - { offset: 0xB845E, size: 0x8, addend: 0x0, symName: __RNvXso_NtCsfvfooZQ3Axs_4core6resultINtB5_6ResultTuNtNtCs5AlOhPCr03V_3syn6buffer6CursorENtNtBQ_5error5ErrorENtNtNtB7_3ops9try_trait3Try6branchBQ_, symObjAddr: 0xF42C, symBinAddr: 0x51EF4, symSize: 0x94 }
  - { offset: 0xB84DC, size: 0x8, addend: 0x0, symName: __RNvXso_NtCsfvfooZQ3Axs_4core6resultINtB5_6ResultbNtNtCs5AlOhPCr03V_3syn5error5ErrorENtNtNtB7_3ops9try_trait3Try6branchBP_, symObjAddr: 0xF4C0, symBinAddr: 0x51F88, symSize: 0x94 }
  - { offset: 0xB855A, size: 0x8, addend: 0x0, symName: __RNvXso_NtCsfvfooZQ3Axs_4core6resultINtB5_6ResultmNtNtCs5AlOhPCr03V_3syn5error5ErrorENtNtNtB7_3ops9try_trait3Try6branchBP_, symObjAddr: 0xF554, symBinAddr: 0x5201C, symSize: 0x88 }
  - { offset: 0xB85D8, size: 0x8, addend: 0x0, symName: __RNvXso_NtCsfvfooZQ3Axs_4core6resultINtB5_6ResultuNtNtCs5AlOhPCr03V_3syn5error5ErrorENtNtNtB7_3ops9try_trait3Try6branchBP_, symObjAddr: 0xF5DC, symBinAddr: 0x520A4, symSize: 0x78 }
  - { offset: 0xB865C, size: 0x8, addend: 0x0, symName: __RNvXsp_NtCsfvfooZQ3Axs_4core6resultINtB5_6ResultANtCs3cP53eQoTwO_11proc_macro24Spanj1_NtNtCs5AlOhPCr03V_3syn5error5ErrorEINtNtNtB7_3ops9try_trait12FromResidualIBy_NtNtB7_7convert10InfallibleB1m_EE13from_residualB1q_, symObjAddr: 0xF684, symBinAddr: 0x5211C, symSize: 0x40 }
  - { offset: 0xB86E1, size: 0x8, addend: 0x0, symName: __RNvXsp_NtCsfvfooZQ3Axs_4core6resultINtB5_6ResultANtCs3cP53eQoTwO_11proc_macro24Spanj2_NtNtCs5AlOhPCr03V_3syn5error5ErrorEINtNtNtB7_3ops9try_trait12FromResidualIBy_NtNtB7_7convert10InfallibleB1m_EE13from_residualB1q_, symObjAddr: 0xF6C4, symBinAddr: 0x5215C, symSize: 0x40 }
  - { offset: 0xB8766, size: 0x8, addend: 0x0, symName: __RNvXsp_NtCsfvfooZQ3Axs_4core6resultINtB5_6ResultANtCs3cP53eQoTwO_11proc_macro24Spanj3_NtNtCs5AlOhPCr03V_3syn5error5ErrorEINtNtNtB7_3ops9try_trait12FromResidualIBy_NtNtB7_7convert10InfallibleB1m_EE13from_residualB1q_, symObjAddr: 0xF704, symBinAddr: 0x5219C, symSize: 0x40 }
  - { offset: 0xB87EB, size: 0x8, addend: 0x0, symName: __RNvXsp_NtCsfvfooZQ3Axs_4core6resultINtB5_6ResultINtNtB7_6option6OptionINtNtCse1nGBsou5OW_5alloc5boxed3BoxNtNtCs5AlOhPCr03V_3syn4expr4ExprEENtNtB1J_5error5ErrorEINtNtNtB7_3ops9try_trait12FromResidualIBy_NtNtB7_7convert10InfallibleB2d_EE13from_residualB1J_, symObjAddr: 0xF744, symBinAddr: 0x521DC, symSize: 0x40 }
  - { offset: 0xB8870, size: 0x8, addend: 0x0, symName: __RNvXsp_NtCsfvfooZQ3Axs_4core6resultINtB5_6ResultINtNtB7_6option6OptionNtCs3cP53eQoTwO_11proc_macro25IdentENtNtCs5AlOhPCr03V_3syn5error5ErrorEINtNtNtB7_3ops9try_trait12FromResidualIBy_NtNtB7_7convert10InfallibleB1G_EE13from_residualB1K_, symObjAddr: 0xF784, symBinAddr: 0x5221C, symSize: 0x48 }
  - { offset: 0xB88F5, size: 0x8, addend: 0x0, symName: __RNvXsp_NtCsfvfooZQ3Axs_4core6resultINtB5_6ResultINtNtB7_6option6OptionNtNtCs5AlOhPCr03V_3syn2ty10TypeBareFnENtNtB1a_5error5ErrorEINtNtNtB7_3ops9try_trait12FromResidualIBy_NtNtB7_7convert10InfallibleB1I_EE13from_residualB1a_, symObjAddr: 0xF7CC, symBinAddr: 0x52264, symSize: 0x48 }
  - { offset: 0xB897A, size: 0x8, addend: 0x0, symName: __RNvXsp_NtCsfvfooZQ3Axs_4core6resultINtB5_6ResultINtNtB7_6option6OptionNtNtCs5AlOhPCr03V_3syn2ty9BareFnArgENtNtB1a_5error5ErrorEINtNtNtB7_3ops9try_trait12FromResidualIBy_NtNtB7_7convert10InfallibleB1G_EE13from_residualB1a_, symObjAddr: 0xF814, symBinAddr: 0x522AC, symSize: 0x48 }
  - { offset: 0xB89FF, size: 0x8, addend: 0x0, symName: __RNvXsp_NtCsfvfooZQ3Axs_4core6resultINtB5_6ResultINtNtB7_6option6OptionNtNtCs5AlOhPCr03V_3syn3lit6LitStrENtNtB1a_5error5ErrorEINtNtNtB7_3ops9try_trait12FromResidualIBy_NtNtB7_7convert10InfallibleB1E_EE13from_residualB1a_, symObjAddr: 0xF85C, symBinAddr: 0x522F4, symSize: 0x40 }
  - { offset: 0xB8A84, size: 0x8, addend: 0x0, symName: __RNvXsp_NtCsfvfooZQ3Axs_4core6resultINtB5_6ResultINtNtB7_6option6OptionNtNtCs5AlOhPCr03V_3syn3lit8LitFloatENtNtB1a_5error5ErrorEINtNtNtB7_3ops9try_trait12FromResidualIBy_NtNtB7_7convert10InfallibleB1G_EE13from_residualB1a_, symObjAddr: 0xF89C, symBinAddr: 0x52334, symSize: 0x40 }
  - { offset: 0xB8B09, size: 0x8, addend: 0x0, symName: __RNvXsp_NtCsfvfooZQ3Axs_4core6resultINtB5_6ResultINtNtB7_6option6OptionNtNtCs5AlOhPCr03V_3syn4item8ItemImplENtNtB1a_5error5ErrorEINtNtNtB7_3ops9try_trait12FromResidualIBy_NtNtB7_7convert10InfallibleB1H_EE13from_residualB1a_, symObjAddr: 0xF8DC, symBinAddr: 0x52374, symSize: 0x48 }
  - { offset: 0xB8B8E, size: 0x8, addend: 0x0, symName: __RNvXsp_NtCsfvfooZQ3Axs_4core6resultINtB5_6ResultINtNtB7_6option6OptionNtNtCs5AlOhPCr03V_3syn5token2EqENtNtB1a_5error5ErrorEINtNtNtB7_3ops9try_trait12FromResidualIBy_NtNtB7_7convert10InfallibleB1C_EE13from_residualB1a_, symObjAddr: 0xF924, symBinAddr: 0x523BC, symSize: 0x40 }
  - { offset: 0xB8C13, size: 0x8, addend: 0x0, symName: __RNvXsp_NtCsfvfooZQ3Axs_4core6resultINtB5_6ResultINtNtB7_6option6OptionNtNtCs5AlOhPCr03V_3syn5token2OrENtNtB1a_5error5ErrorEINtNtNtB7_3ops9try_trait12FromResidualIBy_NtNtB7_7convert10InfallibleB1C_EE13from_residualB1a_, symObjAddr: 0xF964, symBinAddr: 0x523FC, symSize: 0x40 }
  - { offset: 0xB8C98, size: 0x8, addend: 0x0, symName: __RNvXsp_NtCsfvfooZQ3Axs_4core6resultINtB5_6ResultINtNtB7_6option6OptionNtNtCs5AlOhPCr03V_3syn5token3AddENtNtB1a_5error5ErrorEINtNtNtB7_3ops9try_trait12FromResidualIBy_NtNtB7_7convert10InfallibleB1D_EE13from_residualB1a_, symObjAddr: 0xF9A4, symBinAddr: 0x5243C, symSize: 0x40 }
  - { offset: 0xB8D1D, size: 0x8, addend: 0x0, symName: __RNvXsp_NtCsfvfooZQ3Axs_4core6resultINtB5_6ResultINtNtB7_6option6OptionNtNtCs5AlOhPCr03V_3syn5token3BoxENtNtB1a_5error5ErrorEINtNtNtB7_3ops9try_trait12FromResidualIBy_NtNtB7_7convert10InfallibleB1D_EE13from_residualB1a_, symObjAddr: 0xF9E4, symBinAddr: 0x5247C, symSize: 0x40 }
  - { offset: 0xB8DA2, size: 0x8, addend: 0x0, symName: __RNvXsp_NtCsfvfooZQ3Axs_4core6resultINtB5_6ResultINtNtB7_6option6OptionNtNtCs5AlOhPCr03V_3syn5token3DynENtNtB1a_5error5ErrorEINtNtNtB7_3ops9try_trait12FromResidualIBy_NtNtB7_7convert10InfallibleB1D_EE13from_residualB1a_, symObjAddr: 0xFA24, symBinAddr: 0x524BC, symSize: 0x40 }
  - { offset: 0xB8E27, size: 0x8, addend: 0x0, symName: __RNvXsp_NtCsfvfooZQ3Axs_4core6resultINtB5_6ResultINtNtB7_6option6OptionNtNtCs5AlOhPCr03V_3syn5token3MutENtNtB1a_5error5ErrorEINtNtNtB7_3ops9try_trait12FromResidualIBy_NtNtB7_7convert10InfallibleB1D_EE13from_residualB1a_, symObjAddr: 0xFA64, symBinAddr: 0x524FC, symSize: 0x40 }
  - { offset: 0xB8EAC, size: 0x8, addend: 0x0, symName: __RNvXsp_NtCsfvfooZQ3Axs_4core6resultINtB5_6ResultINtNtB7_6option6OptionNtNtCs5AlOhPCr03V_3syn5token3RefENtNtB1a_5error5ErrorEINtNtNtB7_3ops9try_trait12FromResidualIBy_NtNtB7_7convert10InfallibleB1D_EE13from_residualB1a_, symObjAddr: 0xFAA4, symBinAddr: 0x5253C, symSize: 0x40 }
  - { offset: 0xB8F31, size: 0x8, addend: 0x0, symName: __RNvXsp_NtCsfvfooZQ3Axs_4core6resultINtB5_6ResultINtNtB7_6option6OptionNtNtCs5AlOhPCr03V_3syn5token3SubENtNtB1a_5error5ErrorEINtNtNtB7_3ops9try_trait12FromResidualIBy_NtNtB7_7convert10InfallibleB1D_EE13from_residualB1a_, symObjAddr: 0xFAE4, symBinAddr: 0x5257C, symSize: 0x40 }
  - { offset: 0xB8FB6, size: 0x8, addend: 0x0, symName: __RNvXsp_NtCsfvfooZQ3Axs_4core6resultINtB5_6ResultINtNtB7_6option6OptionNtNtCs5AlOhPCr03V_3syn5token4AutoENtNtB1a_5error5ErrorEINtNtNtB7_3ops9try_trait12FromResidualIBy_NtNtB7_7convert10InfallibleB1E_EE13from_residualB1a_, symObjAddr: 0xFB24, symBinAddr: 0x525BC, symSize: 0x40 }
  - { offset: 0xB903B, size: 0x8, addend: 0x0, symName: __RNvXsp_NtCsfvfooZQ3Axs_4core6resultINtB5_6ResultINtNtB7_6option6OptionNtNtCs5AlOhPCr03V_3syn5token4Dot3ENtNtB1a_5error5ErrorEINtNtNtB7_3ops9try_trait12FromResidualIBy_NtNtB7_7convert10InfallibleB1E_EE13from_residualB1a_, symObjAddr: 0xFB64, symBinAddr: 0x525FC, symSize: 0x40 }
  - { offset: 0xB90C0, size: 0x8, addend: 0x0, symName: __RNvXsp_NtCsfvfooZQ3Axs_4core6resultINtB5_6ResultINtNtB7_6option6OptionNtNtCs5AlOhPCr03V_3syn5token4MoveENtNtB1a_5error5ErrorEINtNtNtB7_3ops9try_trait12FromResidualIBy_NtNtB7_7convert10InfallibleB1E_EE13from_residualB1a_, symObjAddr: 0xFBA4, symBinAddr: 0x5263C, symSize: 0x40 }
  - { offset: 0xB9145, size: 0x8, addend: 0x0, symName: __RNvXsp_NtCsfvfooZQ3Axs_4core6resultINtB5_6ResultINtNtB7_6option6OptionNtNtCs5AlOhPCr03V_3syn5token4SemiENtNtB1a_5error5ErrorEINtNtNtB7_3ops9try_trait12FromResidualIBy_NtNtB7_7convert10InfallibleB1E_EE13from_residualB1a_, symObjAddr: 0xFBE4, symBinAddr: 0x5267C, symSize: 0x40 }
  - { offset: 0xB91CA, size: 0x8, addend: 0x0, symName: __RNvXsp_NtCsfvfooZQ3Axs_4core6resultINtB5_6ResultINtNtB7_6option6OptionNtNtCs5AlOhPCr03V_3syn5token4StarENtNtB1a_5error5ErrorEINtNtNtB7_3ops9try_trait12FromResidualIBy_NtNtB7_7convert10InfallibleB1E_EE13from_residualB1a_, symObjAddr: 0xFC24, symBinAddr: 0x526BC, symSize: 0x40 }
  - { offset: 0xB924F, size: 0x8, addend: 0x0, symName: __RNvXsp_NtCsfvfooZQ3Axs_4core6resultINtB5_6ResultINtNtB7_6option6OptionNtNtCs5AlOhPCr03V_3syn5token5AsyncENtNtB1a_5error5ErrorEINtNtNtB7_3ops9try_trait12FromResidualIBy_NtNtB7_7convert10InfallibleB1F_EE13from_residualB1a_, symObjAddr: 0xFC64, symBinAddr: 0x526FC, symSize: 0x40 }
  - { offset: 0xB92D4, size: 0x8, addend: 0x0, symName: __RNvXsp_NtCsfvfooZQ3Axs_4core6resultINtB5_6ResultINtNtB7_6option6OptionNtNtCs5AlOhPCr03V_3syn5token5AwaitENtNtB1a_5error5ErrorEINtNtNtB7_3ops9try_trait12FromResidualIBy_NtNtB7_7convert10InfallibleB1F_EE13from_residualB1a_, symObjAddr: 0xFCA4, symBinAddr: 0x5273C, symSize: 0x40 }
  - { offset: 0xB9359, size: 0x8, addend: 0x0, symName: __RNvXsp_NtCsfvfooZQ3Axs_4core6resultINtB5_6ResultINtNtB7_6option6OptionNtNtCs5AlOhPCr03V_3syn5token5ColonENtNtB1a_5error5ErrorEINtNtNtB7_3ops9try_trait12FromResidualIBy_NtNtB7_7convert10InfallibleB1F_EE13from_residualB1a_, symObjAddr: 0xFCE4, symBinAddr: 0x5277C, symSize: 0x40 }
  - { offset: 0xB93DE, size: 0x8, addend: 0x0, symName: __RNvXsp_NtCsfvfooZQ3Axs_4core6resultINtB5_6ResultINtNtB7_6option6OptionNtNtCs5AlOhPCr03V_3syn5token5CommaENtNtB1a_5error5ErrorEINtNtNtB7_3ops9try_trait12FromResidualIBy_NtNtB7_7convert10InfallibleB1F_EE13from_residualB1a_, symObjAddr: 0xFD24, symBinAddr: 0x527BC, symSize: 0x40 }
  - { offset: 0xB9463, size: 0x8, addend: 0x0, symName: __RNvXsp_NtCsfvfooZQ3Axs_4core6resultINtB5_6ResultINtNtB7_6option6OptionNtNtCs5AlOhPCr03V_3syn5token5ConstENtNtB1a_5error5ErrorEINtNtNtB7_3ops9try_trait12FromResidualIBy_NtNtB7_7convert10InfallibleB1F_EE13from_residualB1a_, symObjAddr: 0xFD64, symBinAddr: 0x527FC, symSize: 0x40 }
  - { offset: 0xB94E8, size: 0x8, addend: 0x0, symName: __RNvXsp_NtCsfvfooZQ3Axs_4core6resultINtB5_6ResultINtNtB7_6option6OptionNtNtCs5AlOhPCr03V_3syn5token6Colon2ENtNtB1a_5error5ErrorEINtNtNtB7_3ops9try_trait12FromResidualIBy_NtNtB7_7convert10InfallibleB1G_EE13from_residualB1a_, symObjAddr: 0xFDA4, symBinAddr: 0x5283C, symSize: 0x40 }
  - { offset: 0xB956D, size: 0x8, addend: 0x0, symName: __RNvXsp_NtCsfvfooZQ3Axs_4core6resultINtB5_6ResultINtNtB7_6option6OptionNtNtCs5AlOhPCr03V_3syn5token6StaticENtNtB1a_5error5ErrorEINtNtNtB7_3ops9try_trait12FromResidualIBy_NtNtB7_7convert10InfallibleB1G_EE13from_residualB1a_, symObjAddr: 0xFDE4, symBinAddr: 0x5287C, symSize: 0x40 }
  - { offset: 0xB95F2, size: 0x8, addend: 0x0, symName: __RNvXsp_NtCsfvfooZQ3Axs_4core6resultINtB5_6ResultINtNtB7_6option6OptionNtNtCs5AlOhPCr03V_3syn5token6UnsafeENtNtB1a_5error5ErrorEINtNtNtB7_3ops9try_trait12FromResidualIBy_NtNtB7_7convert10InfallibleB1G_EE13from_residualB1a_, symObjAddr: 0xFE24, symBinAddr: 0x528BC, symSize: 0x40 }
  - { offset: 0xB9677, size: 0x8, addend: 0x0, symName: __RNvXsp_NtCsfvfooZQ3Axs_4core6resultINtB5_6ResultINtNtB7_6option6OptionNtNtCs5AlOhPCr03V_3syn5token7DefaultENtNtB1a_5error5ErrorEINtNtNtB7_3ops9try_trait12FromResidualIBy_NtNtB7_7convert10InfallibleB1H_EE13from_residualB1a_, symObjAddr: 0xFE64, symBinAddr: 0x528FC, symSize: 0x40 }
  - { offset: 0xB96FC, size: 0x8, addend: 0x0, symName: __RNvXsp_NtCsfvfooZQ3Axs_4core6resultINtB5_6ResultINtNtB7_6option6OptionNtNtCs5AlOhPCr03V_3syn5token8QuestionENtNtB1a_5error5ErrorEINtNtNtB7_3ops9try_trait12FromResidualIBy_NtNtB7_7convert10InfallibleB1I_EE13from_residualB1a_, symObjAddr: 0xFEA4, symBinAddr: 0x5293C, symSize: 0x40 }
  - { offset: 0xB9781, size: 0x8, addend: 0x0, symName: __RNvXsp_NtCsfvfooZQ3Axs_4core6resultINtB5_6ResultINtNtB7_6option6OptionNtNtCs5AlOhPCr03V_3syn5token9SelfValueENtNtB1a_5error5ErrorEINtNtNtB7_3ops9try_trait12FromResidualIBy_NtNtB7_7convert10InfallibleB1J_EE13from_residualB1a_, symObjAddr: 0xFEE4, symBinAddr: 0x5297C, symSize: 0x40 }
  - { offset: 0xB9806, size: 0x8, addend: 0x0, symName: __RNvXsp_NtCsfvfooZQ3Axs_4core6resultINtB5_6ResultINtNtB7_6option6OptionNtNtCs5AlOhPCr03V_3syn8lifetime8LifetimeENtNtB1a_5error5ErrorEINtNtNtB7_3ops9try_trait12FromResidualIBy_NtNtB7_7convert10InfallibleB1L_EE13from_residualB1a_, symObjAddr: 0xFF24, symBinAddr: 0x529BC, symSize: 0x48 }
  - { offset: 0xB988B, size: 0x8, addend: 0x0, symName: __RNvXsp_NtCsfvfooZQ3Axs_4core6resultINtB5_6ResultINtNtCs5AlOhPCr03V_3syn10punctuated10PunctuatedNtNtBP_2ty4TypeNtNtBP_5token5CommaENtNtBP_5error5ErrorEINtNtNtB7_3ops9try_trait12FromResidualIBy_NtNtB7_7convert10InfallibleB24_EE13from_residualBP_, symObjAddr: 0xFF6C, symBinAddr: 0x52A04, symSize: 0x48 }
  - { offset: 0xB9910, size: 0x8, addend: 0x0, symName: __RNvXsp_NtCsfvfooZQ3Axs_4core6resultINtB5_6ResultINtNtCs5AlOhPCr03V_3syn10punctuated10PunctuatedNtNtBP_4data5FieldNtNtBP_5token5CommaENtNtBP_5error5ErrorEINtNtNtB7_3ops9try_trait12FromResidualIBy_NtNtB7_7convert10InfallibleB27_EE13from_residualBP_, symObjAddr: 0xFFFC, symBinAddr: 0x52A4C, symSize: 0x48 }
  - { offset: 0xB9995, size: 0x8, addend: 0x0, symName: __RNvXsp_NtCsfvfooZQ3Axs_4core6resultINtB5_6ResultINtNtCs5AlOhPCr03V_3syn10punctuated10PunctuatedNtNtBP_4data7VariantNtNtBP_5token5CommaENtNtBP_5error5ErrorEINtNtNtB7_3ops9try_trait12FromResidualIBy_NtNtB7_7convert10InfallibleB29_EE13from_residualBP_, symObjAddr: 0x10044, symBinAddr: 0x52A94, symSize: 0x48 }
  - { offset: 0xB9A1A, size: 0x8, addend: 0x0, symName: __RNvXsp_NtCsfvfooZQ3Axs_4core6resultINtB5_6ResultINtNtCs5AlOhPCr03V_3syn10punctuated10PunctuatedNtNtBP_4expr4ExprNtNtBP_5token5CommaENtNtBP_5error5ErrorEINtNtNtB7_3ops9try_trait12FromResidualIBy_NtNtB7_7convert10InfallibleB26_EE13from_residualBP_, symObjAddr: 0x1008C, symBinAddr: 0x52ADC, symSize: 0x48 }
  - { offset: 0xB9A9F, size: 0x8, addend: 0x0, symName: __RNvXsp_NtCsfvfooZQ3Axs_4core6resultINtB5_6ResultINtNtCs5AlOhPCr03V_3syn10punctuated10PunctuatedNtNtBP_4item5FnArgNtNtBP_5token5CommaENtNtBP_5error5ErrorEINtNtNtB7_3ops9try_trait12FromResidualIBy_NtNtB7_7convert10InfallibleB27_EE13from_residualBP_, symObjAddr: 0x100D4, symBinAddr: 0x52B24, symSize: 0x48 }
  - { offset: 0xB9B24, size: 0x8, addend: 0x0, symName: __RNvXsp_NtCsfvfooZQ3Axs_4core6resultINtB5_6ResultINtNtCs5AlOhPCr03V_3syn10punctuated10PunctuatedNtNtBP_4item7UseTreeNtNtBP_5token5CommaENtNtBP_5error5ErrorEINtNtNtB7_3ops9try_trait12FromResidualIBy_NtNtB7_7convert10InfallibleB29_EE13from_residualBP_, symObjAddr: 0x1011C, symBinAddr: 0x52B6C, symSize: 0x48 }
  - { offset: 0xB9BA9, size: 0x8, addend: 0x0, symName: __RNvXsp_NtCsfvfooZQ3Axs_4core6resultINtB5_6ResultINtNtCs5AlOhPCr03V_3syn10punctuated10PunctuatedNtNtBP_8generics14TypeParamBoundNtNtBP_5token3AddENtNtBP_5error5ErrorEINtNtNtB7_3ops9try_trait12FromResidualIBy_NtNtB7_7convert10InfallibleB2j_EE13from_residualBP_, symObjAddr: 0x10164, symBinAddr: 0x52BB4, symSize: 0x48 }
  - { offset: 0xB9C2E, size: 0x8, addend: 0x0, symName: __RNvXsp_NtCsfvfooZQ3Axs_4core6resultINtB5_6ResultINtNtCse1nGBsou5OW_5alloc3vec3VecNtNtCs5AlOhPCr03V_3syn4attr9AttributeENtNtB1l_5error5ErrorEINtNtNtB7_3ops9try_trait12FromResidualIBy_NtNtB7_7convert10InfallibleB1T_EE13from_residualB1l_, symObjAddr: 0x101F4, symBinAddr: 0x52BFC, symSize: 0x48 }
  - { offset: 0xB9CB3, size: 0x8, addend: 0x0, symName: __RNvXsp_NtCsfvfooZQ3Axs_4core6resultINtB5_6ResultINtNtCse1nGBsou5OW_5alloc3vec3VecNtNtCs5AlOhPCr03V_3syn4stmt4StmtENtNtB1l_5error5ErrorEINtNtNtB7_3ops9try_trait12FromResidualIBy_NtNtB7_7convert10InfallibleB1O_EE13from_residualB1l_, symObjAddr: 0x1023C, symBinAddr: 0x52C44, symSize: 0x48 }
  - { offset: 0xB9D38, size: 0x8, addend: 0x0, symName: __RNvXsp_NtCsfvfooZQ3Axs_4core6resultINtB5_6ResultNtCs3cP53eQoTwO_11proc_macro211TokenStreamNtNtCs5AlOhPCr03V_3syn5error5ErrorEINtNtNtB7_3ops9try_trait12FromResidualIBy_NtNtB7_7convert10InfallibleB1q_EE13from_residualB1u_, symObjAddr: 0x10284, symBinAddr: 0x52C8C, symSize: 0x48 }
  - { offset: 0xB9DBD, size: 0x8, addend: 0x0, symName: __RNvXsp_NtCsfvfooZQ3Axs_4core6resultINtB5_6ResultNtCs3cP53eQoTwO_11proc_macro24SpanNtNtCs5AlOhPCr03V_3syn5error5ErrorEINtNtNtB7_3ops9try_trait12FromResidualIBy_NtNtB7_7convert10InfallibleB1i_EE13from_residualB1m_, symObjAddr: 0x102CC, symBinAddr: 0x52CD4, symSize: 0x40 }
  - { offset: 0xB9E42, size: 0x8, addend: 0x0, symName: __RNvXsp_NtCsfvfooZQ3Axs_4core6resultINtB5_6ResultNtCs3cP53eQoTwO_11proc_macro25IdentNtNtCs5AlOhPCr03V_3syn5error5ErrorEINtNtNtB7_3ops9try_trait12FromResidualIBy_NtNtB7_7convert10InfallibleB1j_EE13from_residualB1n_, symObjAddr: 0x10354, symBinAddr: 0x52D14, symSize: 0x48 }
  - { offset: 0xB9EC7, size: 0x8, addend: 0x0, symName: __RNvXsp_NtCsfvfooZQ3Axs_4core6resultINtB5_6ResultNtCs3cP53eQoTwO_11proc_macro27LiteralNtNtCs5AlOhPCr03V_3syn5error5ErrorEINtNtNtB7_3ops9try_trait12FromResidualIBy_NtNtB7_7convert10InfallibleB1l_EE13from_residualB1p_, symObjAddr: 0x103DC, symBinAddr: 0x52D5C, symSize: 0x48 }
  - { offset: 0xB9F4C, size: 0x8, addend: 0x0, symName: __RNvXsp_NtCsfvfooZQ3Axs_4core6resultINtB5_6ResultNtCs3cP53eQoTwO_11proc_macro29TokenTreeNtNtCs5AlOhPCr03V_3syn5error5ErrorEINtNtNtB7_3ops9try_trait12FromResidualIBy_NtNtB7_7convert10InfallibleB1n_EE13from_residualB1r_, symObjAddr: 0x10424, symBinAddr: 0x52DA4, symSize: 0x48 }
  - { offset: 0xB9FD1, size: 0x8, addend: 0x0, symName: __RNvXsp_NtCsfvfooZQ3Axs_4core6resultINtB5_6ResultNtNtCs5AlOhPCr03V_3syn2ty10ReturnTypeNtNtBO_5error5ErrorEINtNtNtB7_3ops9try_trait12FromResidualIBy_NtNtB7_7convert10InfallibleB1l_EE13from_residualBO_, symObjAddr: 0x1046C, symBinAddr: 0x52DEC, symSize: 0x40 }
  - { offset: 0xBA056, size: 0x8, addend: 0x0, symName: __RNvXsp_NtCsfvfooZQ3Axs_4core6resultINtB5_6ResultNtNtCs5AlOhPCr03V_3syn2ty13TypeImplTraitNtNtBO_5error5ErrorEINtNtNtB7_3ops9try_trait12FromResidualIBy_NtNtB7_7convert10InfallibleB1o_EE13from_residualBO_, symObjAddr: 0x104AC, symBinAddr: 0x52E2C, symSize: 0x48 }
  - { offset: 0xBA0DB, size: 0x8, addend: 0x0, symName: __RNvXsp_NtCsfvfooZQ3Axs_4core6resultINtB5_6ResultNtNtCs5AlOhPCr03V_3syn2ty13TypeReferenceNtNtBO_5error5ErrorEINtNtNtB7_3ops9try_trait12FromResidualIBy_NtNtB7_7convert10InfallibleB1o_EE13from_residualBO_, symObjAddr: 0x104F4, symBinAddr: 0x52E74, symSize: 0x48 }
  - { offset: 0xBA160, size: 0x8, addend: 0x0, symName: __RNvXsp_NtCsfvfooZQ3Axs_4core6resultINtB5_6ResultNtNtCs5AlOhPCr03V_3syn2ty15TypeTraitObjectNtNtBO_5error5ErrorEINtNtNtB7_3ops9try_trait12FromResidualIBy_NtNtB7_7convert10InfallibleB1q_EE13from_residualBO_, symObjAddr: 0x1053C, symBinAddr: 0x52EBC, symSize: 0x48 }
  - { offset: 0xBA1E5, size: 0x8, addend: 0x0, symName: __RNvXsp_NtCsfvfooZQ3Axs_4core6resultINtB5_6ResultNtNtCs5AlOhPCr03V_3syn2ty3AbiNtNtBO_5error5ErrorEINtNtNtB7_3ops9try_trait12FromResidualIBy_NtNtB7_7convert10InfallibleB1d_EE13from_residualBO_, symObjAddr: 0x10584, symBinAddr: 0x52F04, symSize: 0x40 }
  - { offset: 0xBA26A, size: 0x8, addend: 0x0, symName: __RNvXsp_NtCsfvfooZQ3Axs_4core6resultINtB5_6ResultNtNtCs5AlOhPCr03V_3syn2ty4TypeNtNtBO_5error5ErrorEINtNtNtB7_3ops9try_trait12FromResidualIBy_NtNtB7_7convert10InfallibleB1e_EE13from_residualBO_, symObjAddr: 0x105C4, symBinAddr: 0x52F44, symSize: 0x4C }
  - { offset: 0xBA2EF, size: 0x8, addend: 0x0, symName: __RNvXsp_NtCsfvfooZQ3Axs_4core6resultINtB5_6ResultNtNtCs5AlOhPCr03V_3syn2ty7TypePtrNtNtBO_5error5ErrorEINtNtNtB7_3ops9try_trait12FromResidualIBy_NtNtB7_7convert10InfallibleB1h_EE13from_residualBO_, symObjAddr: 0x10610, symBinAddr: 0x52F90, symSize: 0x48 }
  - { offset: 0xBA374, size: 0x8, addend: 0x0, symName: __RNvXsp_NtCsfvfooZQ3Axs_4core6resultINtB5_6ResultNtNtCs5AlOhPCr03V_3syn2ty8TypePathNtNtBO_5error5ErrorEINtNtNtB7_3ops9try_trait12FromResidualIBy_NtNtB7_7convert10InfallibleB1i_EE13from_residualBO_, symObjAddr: 0x10658, symBinAddr: 0x52FD8, symSize: 0x48 }
  - { offset: 0xBA3F9, size: 0x8, addend: 0x0, symName: __RNvXsp_NtCsfvfooZQ3Axs_4core6resultINtB5_6ResultNtNtCs5AlOhPCr03V_3syn2ty9TypeGroupNtNtBO_5error5ErrorEINtNtNtB7_3ops9try_trait12FromResidualIBy_NtNtB7_7convert10InfallibleB1j_EE13from_residualBO_, symObjAddr: 0x106EC, symBinAddr: 0x53020, symSize: 0x40 }
  - { offset: 0xBA47E, size: 0x8, addend: 0x0, symName: __RNvXsp_NtCsfvfooZQ3Axs_4core6resultINtB5_6ResultNtNtCs5AlOhPCr03V_3syn2ty9TypeInferNtNtBO_5error5ErrorEINtNtNtB7_3ops9try_trait12FromResidualIBy_NtNtB7_7convert10InfallibleB1j_EE13from_residualBO_, symObjAddr: 0x1072C, symBinAddr: 0x53060, symSize: 0x40 }
  - { offset: 0xBA503, size: 0x8, addend: 0x0, symName: __RNvXsp_NtCsfvfooZQ3Axs_4core6resultINtB5_6ResultNtNtCs5AlOhPCr03V_3syn2ty9TypeNeverNtNtBO_5error5ErrorEINtNtNtB7_3ops9try_trait12FromResidualIBy_NtNtB7_7convert10InfallibleB1j_EE13from_residualBO_, symObjAddr: 0x107B4, symBinAddr: 0x530A0, symSize: 0x40 }
  - { offset: 0xBA588, size: 0x8, addend: 0x0, symName: __RNvXsp_NtCsfvfooZQ3Axs_4core6resultINtB5_6ResultNtNtCs5AlOhPCr03V_3syn3lit3LitNtNtBO_5error5ErrorEINtNtNtB7_3ops9try_trait12FromResidualIBy_NtNtB7_7convert10InfallibleB1e_EE13from_residualBO_, symObjAddr: 0x108BC, symBinAddr: 0x530E0, symSize: 0x48 }
  - { offset: 0xBA60D, size: 0x8, addend: 0x0, symName: __RNvXsp_NtCsfvfooZQ3Axs_4core6resultINtB5_6ResultNtNtCs5AlOhPCr03V_3syn3mac5MacroNtNtBO_5error5ErrorEINtNtNtB7_3ops9try_trait12FromResidualIBy_NtNtB7_7convert10InfallibleB1g_EE13from_residualBO_, symObjAddr: 0x10904, symBinAddr: 0x53128, symSize: 0x48 }
  - { offset: 0xBA692, size: 0x8, addend: 0x0, symName: __RNvXsp_NtCsfvfooZQ3Axs_4core6resultINtB5_6ResultNtNtCs5AlOhPCr03V_3syn3pat12PatReferenceNtNtBO_5error5ErrorEINtNtNtB7_3ops9try_trait12FromResidualIBy_NtNtB7_7convert10InfallibleB1o_EE13from_residualBO_, symObjAddr: 0x1094C, symBinAddr: 0x53170, symSize: 0x48 }
  - { offset: 0xBA717, size: 0x8, addend: 0x0, symName: __RNvXsp_NtCsfvfooZQ3Axs_4core6resultINtB5_6ResultNtNtCs5AlOhPCr03V_3syn3pat14PatTupleStructNtNtBO_5error5ErrorEINtNtNtB7_3ops9try_trait12FromResidualIBy_NtNtB7_7convert10InfallibleB1q_EE13from_residualBO_, symObjAddr: 0x10994, symBinAddr: 0x531B8, symSize: 0x48 }
  - { offset: 0xBA79C, size: 0x8, addend: 0x0, symName: __RNvXsp_NtCsfvfooZQ3Axs_4core6resultINtB5_6ResultNtNtCs5AlOhPCr03V_3syn3pat3PatNtNtBO_5error5ErrorEINtNtNtB7_3ops9try_trait12FromResidualIBy_NtNtB7_7convert10InfallibleB1e_EE13from_residualBO_, symObjAddr: 0x109DC, symBinAddr: 0x53200, symSize: 0x4C }
  - { offset: 0xBA821, size: 0x8, addend: 0x0, symName: __RNvXsp_NtCsfvfooZQ3Axs_4core6resultINtB5_6ResultNtNtCs5AlOhPCr03V_3syn3pat6PatBoxNtNtBO_5error5ErrorEINtNtNtB7_3ops9try_trait12FromResidualIBy_NtNtB7_7convert10InfallibleB1h_EE13from_residualBO_, symObjAddr: 0x10A28, symBinAddr: 0x5324C, symSize: 0x48 }
  - { offset: 0xBA8A6, size: 0x8, addend: 0x0, symName: __RNvXsp_NtCsfvfooZQ3Axs_4core6resultINtB5_6ResultNtNtCs5AlOhPCr03V_3syn3pat7PatTypeNtNtBO_5error5ErrorEINtNtNtB7_3ops9try_trait12FromResidualIBy_NtNtB7_7convert10InfallibleB1i_EE13from_residualBO_, symObjAddr: 0x10A70, symBinAddr: 0x53294, symSize: 0x48 }
  - { offset: 0xBA92B, size: 0x8, addend: 0x0, symName: __RNvXsp_NtCsfvfooZQ3Axs_4core6resultINtB5_6ResultNtNtCs5AlOhPCr03V_3syn3pat7PatWildNtNtBO_5error5ErrorEINtNtNtB7_3ops9try_trait12FromResidualIBy_NtNtB7_7convert10InfallibleB1i_EE13from_residualBO_, symObjAddr: 0x10AB8, symBinAddr: 0x532DC, symSize: 0x48 }
  - { offset: 0xBA9B0, size: 0x8, addend: 0x0, symName: __RNvXsp_NtCsfvfooZQ3Axs_4core6resultINtB5_6ResultNtNtCs5AlOhPCr03V_3syn3pat8FieldPatNtNtBO_5error5ErrorEINtNtNtB7_3ops9try_trait12FromResidualIBy_NtNtB7_7convert10InfallibleB1j_EE13from_residualBO_, symObjAddr: 0x10B00, symBinAddr: 0x53324, symSize: 0x48 }
  - { offset: 0xBAA35, size: 0x8, addend: 0x0, symName: __RNvXsp_NtCsfvfooZQ3Axs_4core6resultINtB5_6ResultNtNtCs5AlOhPCr03V_3syn3pat8PatIdentNtNtBO_5error5ErrorEINtNtNtB7_3ops9try_trait12FromResidualIBy_NtNtB7_7convert10InfallibleB1j_EE13from_residualBO_, symObjAddr: 0x10B48, symBinAddr: 0x5336C, symSize: 0x48 }
  - { offset: 0xBAABA, size: 0x8, addend: 0x0, symName: __RNvXsp_NtCsfvfooZQ3Axs_4core6resultINtB5_6ResultNtNtCs5AlOhPCr03V_3syn3pat8PatSliceNtNtBO_5error5ErrorEINtNtNtB7_3ops9try_trait12FromResidualIBy_NtNtB7_7convert10InfallibleB1j_EE13from_residualBO_, symObjAddr: 0x10B90, symBinAddr: 0x533B4, symSize: 0x48 }
  - { offset: 0xBAB3F, size: 0x8, addend: 0x0, symName: __RNvXsp_NtCsfvfooZQ3Axs_4core6resultINtB5_6ResultNtNtCs5AlOhPCr03V_3syn3pat8PatTupleNtNtBO_5error5ErrorEINtNtNtB7_3ops9try_trait12FromResidualIBy_NtNtB7_7convert10InfallibleB1j_EE13from_residualBO_, symObjAddr: 0x10BD8, symBinAddr: 0x533FC, symSize: 0x48 }
  - { offset: 0xBABC4, size: 0x8, addend: 0x0, symName: __RNvXsp_NtCsfvfooZQ3Axs_4core6resultINtB5_6ResultNtNtCs5AlOhPCr03V_3syn4attr9AttributeNtNtBO_5error5ErrorEINtNtNtB7_3ops9try_trait12FromResidualIBy_NtNtB7_7convert10InfallibleB1l_EE13from_residualBO_, symObjAddr: 0x10CF8, symBinAddr: 0x53444, symSize: 0x48 }
  - { offset: 0xBAC49, size: 0x8, addend: 0x0, symName: __RNvXsp_NtCsfvfooZQ3Axs_4core6resultINtB5_6ResultNtNtCs5AlOhPCr03V_3syn4data10VisibilityNtNtBO_5error5ErrorEINtNtNtB7_3ops9try_trait12FromResidualIBy_NtNtB7_7convert10InfallibleB1n_EE13from_residualBO_, symObjAddr: 0x10D40, symBinAddr: 0x5348C, symSize: 0x48 }
  - { offset: 0xBACCE, size: 0x8, addend: 0x0, symName: __RNvXsp_NtCsfvfooZQ3Axs_4core6resultINtB5_6ResultNtNtCs5AlOhPCr03V_3syn4data11FieldsNamedNtNtBO_5error5ErrorEINtNtNtB7_3ops9try_trait12FromResidualIBy_NtNtB7_7convert10InfallibleB1o_EE13from_residualBO_, symObjAddr: 0x10D88, symBinAddr: 0x534D4, symSize: 0x48 }
  - { offset: 0xBAD53, size: 0x8, addend: 0x0, symName: __RNvXsp_NtCsfvfooZQ3Axs_4core6resultINtB5_6ResultNtNtCs5AlOhPCr03V_3syn4data13FieldsUnnamedNtNtBO_5error5ErrorEINtNtNtB7_3ops9try_trait12FromResidualIBy_NtNtB7_7convert10InfallibleB1q_EE13from_residualBO_, symObjAddr: 0x10DD0, symBinAddr: 0x5351C, symSize: 0x48 }
  - { offset: 0xBADD8, size: 0x8, addend: 0x0, symName: __RNvXsp_NtCsfvfooZQ3Axs_4core6resultINtB5_6ResultNtNtCs5AlOhPCr03V_3syn4data5FieldNtNtBO_5error5ErrorEINtNtNtB7_3ops9try_trait12FromResidualIBy_NtNtB7_7convert10InfallibleB1h_EE13from_residualBO_, symObjAddr: 0x10E18, symBinAddr: 0x53564, symSize: 0x48 }
  - { offset: 0xBAE5D, size: 0x8, addend: 0x0, symName: __RNvXsp_NtCsfvfooZQ3Axs_4core6resultINtB5_6ResultNtNtCs5AlOhPCr03V_3syn4data7VariantNtNtBO_5error5ErrorEINtNtNtB7_3ops9try_trait12FromResidualIBy_NtNtB7_7convert10InfallibleB1j_EE13from_residualBO_, symObjAddr: 0x10E60, symBinAddr: 0x535AC, symSize: 0x48 }
  - { offset: 0xBAEE2, size: 0x8, addend: 0x0, symName: __RNvXsp_NtCsfvfooZQ3Axs_4core6resultINtB5_6ResultNtNtCs5AlOhPCr03V_3syn4expr10ExprReturnNtNtBO_5error5ErrorEINtNtNtB7_3ops9try_trait12FromResidualIBy_NtNtB7_7convert10InfallibleB1n_EE13from_residualBO_, symObjAddr: 0x10F80, symBinAddr: 0x535F4, symSize: 0x48 }
  - { offset: 0xBAF67, size: 0x8, addend: 0x0, symName: __RNvXsp_NtCsfvfooZQ3Axs_4core6resultINtB5_6ResultNtNtCs5AlOhPCr03V_3syn4expr10ExprStructNtNtBO_5error5ErrorEINtNtNtB7_3ops9try_trait12FromResidualIBy_NtNtB7_7convert10InfallibleB1n_EE13from_residualBO_, symObjAddr: 0x10FC8, symBinAddr: 0x5363C, symSize: 0x48 }
  - { offset: 0xBAFEC, size: 0x8, addend: 0x0, symName: __RNvXsp_NtCsfvfooZQ3Axs_4core6resultINtB5_6ResultNtNtCs5AlOhPCr03V_3syn4expr10ExprUnsafeNtNtBO_5error5ErrorEINtNtNtB7_3ops9try_trait12FromResidualIBy_NtNtB7_7convert10InfallibleB1n_EE13from_residualBO_, symObjAddr: 0x11010, symBinAddr: 0x53684, symSize: 0x48 }
  - { offset: 0xBB071, size: 0x8, addend: 0x0, symName: __RNvXsp_NtCsfvfooZQ3Axs_4core6resultINtB5_6ResultNtNtCs5AlOhPCr03V_3syn4expr10FieldValueNtNtBO_5error5ErrorEINtNtNtB7_3ops9try_trait12FromResidualIBy_NtNtB7_7convert10InfallibleB1n_EE13from_residualBO_, symObjAddr: 0x11058, symBinAddr: 0x536CC, symSize: 0x48 }
  - { offset: 0xBB0F6, size: 0x8, addend: 0x0, symName: __RNvXsp_NtCsfvfooZQ3Axs_4core6resultINtB5_6ResultNtNtCs5AlOhPCr03V_3syn4expr11ExprClosureNtNtBO_5error5ErrorEINtNtNtB7_3ops9try_trait12FromResidualIBy_NtNtB7_7convert10InfallibleB1o_EE13from_residualBO_, symObjAddr: 0x110A0, symBinAddr: 0x53714, symSize: 0x48 }
  - { offset: 0xBB17B, size: 0x8, addend: 0x0, symName: __RNvXsp_NtCsfvfooZQ3Axs_4core6resultINtB5_6ResultNtNtCs5AlOhPCr03V_3syn4expr11ExprForLoopNtNtBO_5error5ErrorEINtNtNtB7_3ops9try_trait12FromResidualIBy_NtNtB7_7convert10InfallibleB1o_EE13from_residualBO_, symObjAddr: 0x110E8, symBinAddr: 0x5375C, symSize: 0x48 }
  - { offset: 0xBB200, size: 0x8, addend: 0x0, symName: __RNvXsp_NtCsfvfooZQ3Axs_4core6resultINtB5_6ResultNtNtCs5AlOhPCr03V_3syn4expr11RangeLimitsNtNtBO_5error5ErrorEINtNtNtB7_3ops9try_trait12FromResidualIBy_NtNtB7_7convert10InfallibleB1o_EE13from_residualBO_, symObjAddr: 0x11130, symBinAddr: 0x537A4, symSize: 0x40 }
  - { offset: 0xBB285, size: 0x8, addend: 0x0, symName: __RNvXsp_NtCsfvfooZQ3Axs_4core6resultINtB5_6ResultNtNtCs5AlOhPCr03V_3syn4expr12ExprContinueNtNtBO_5error5ErrorEINtNtNtB7_3ops9try_trait12FromResidualIBy_NtNtB7_7convert10InfallibleB1p_EE13from_residualBO_, symObjAddr: 0x111B8, symBinAddr: 0x537E4, symSize: 0x48 }
  - { offset: 0xBB30A, size: 0x8, addend: 0x0, symName: __RNvXsp_NtCsfvfooZQ3Axs_4core6resultINtB5_6ResultNtNtCs5AlOhPCr03V_3syn4expr12ExprTryBlockNtNtBO_5error5ErrorEINtNtNtB7_3ops9try_trait12FromResidualIBy_NtNtB7_7convert10InfallibleB1p_EE13from_residualBO_, symObjAddr: 0x11200, symBinAddr: 0x5382C, symSize: 0x48 }
  - { offset: 0xBB38F, size: 0x8, addend: 0x0, symName: __RNvXsp_NtCsfvfooZQ3Axs_4core6resultINtB5_6ResultNtNtCs5AlOhPCr03V_3syn4expr15MethodTurbofishNtNtBO_5error5ErrorEINtNtNtB7_3ops9try_trait12FromResidualIBy_NtNtB7_7convert10InfallibleB1s_EE13from_residualBO_, symObjAddr: 0x112D8, symBinAddr: 0x53874, symSize: 0x48 }
  - { offset: 0xBB414, size: 0x8, addend: 0x0, symName: __RNvXsp_NtCsfvfooZQ3Axs_4core6resultINtB5_6ResultNtNtCs5AlOhPCr03V_3syn4expr21GenericMethodArgumentNtNtBO_5error5ErrorEINtNtNtB7_3ops9try_trait12FromResidualIBy_NtNtB7_7convert10InfallibleB1y_EE13from_residualBO_, symObjAddr: 0x11320, symBinAddr: 0x538BC, symSize: 0x4C }
  - { offset: 0xBB499, size: 0x8, addend: 0x0, symName: __RNvXsp_NtCsfvfooZQ3Axs_4core6resultINtB5_6ResultNtNtCs5AlOhPCr03V_3syn4expr3ArmNtNtBO_5error5ErrorEINtNtNtB7_3ops9try_trait12FromResidualIBy_NtNtB7_7convert10InfallibleB1f_EE13from_residualBO_, symObjAddr: 0x1136C, symBinAddr: 0x53908, symSize: 0x48 }
  - { offset: 0xBB51E, size: 0x8, addend: 0x0, symName: __RNvXsp_NtCsfvfooZQ3Axs_4core6resultINtB5_6ResultNtNtCs5AlOhPCr03V_3syn4expr4ExprNtNtBO_5error5ErrorEINtNtNtB7_3ops9try_trait12FromResidualIBy_NtNtB7_7convert10InfallibleB1g_EE13from_residualBO_, symObjAddr: 0x113B4, symBinAddr: 0x53950, symSize: 0x4C }
  - { offset: 0xBB5A3, size: 0x8, addend: 0x0, symName: __RNvXsp_NtCsfvfooZQ3Axs_4core6resultINtB5_6ResultNtNtCs5AlOhPCr03V_3syn4expr5IndexNtNtBO_5error5ErrorEINtNtNtB7_3ops9try_trait12FromResidualIBy_NtNtB7_7convert10InfallibleB1h_EE13from_residualBO_, symObjAddr: 0x11400, symBinAddr: 0x5399C, symSize: 0x40 }
  - { offset: 0xBB628, size: 0x8, addend: 0x0, symName: __RNvXsp_NtCsfvfooZQ3Axs_4core6resultINtB5_6ResultNtNtCs5AlOhPCr03V_3syn4expr5IndexNtNtBO_5error5ErrorEINtNtNtB7_3ops9try_trait12FromResidualIBy_NtNtB7_7convert10InfallibleNtCs3cP53eQoTwO_11proc_macro28LexErrorEE13from_residualBO_, symObjAddr: 0x11440, symBinAddr: 0x539DC, symSize: 0x44 }
  - { offset: 0xBB68F, size: 0x8, addend: 0x0, symName: __RNvXsp_NtCsfvfooZQ3Axs_4core6resultINtB5_6ResultNtNtCs5AlOhPCr03V_3syn4expr5LabelNtNtBO_5error5ErrorEINtNtNtB7_3ops9try_trait12FromResidualIBy_NtNtB7_7convert10InfallibleB1h_EE13from_residualBO_, symObjAddr: 0x11484, symBinAddr: 0x53A20, symSize: 0x48 }
  - { offset: 0xBB714, size: 0x8, addend: 0x0, symName: __RNvXsp_NtCsfvfooZQ3Axs_4core6resultINtB5_6ResultNtNtCs5AlOhPCr03V_3syn4expr6ExprIfNtNtBO_5error5ErrorEINtNtNtB7_3ops9try_trait12FromResidualIBy_NtNtB7_7convert10InfallibleB1i_EE13from_residualBO_, symObjAddr: 0x114CC, symBinAddr: 0x53A68, symSize: 0x48 }
  - { offset: 0xBB799, size: 0x8, addend: 0x0, symName: __RNvXsp_NtCsfvfooZQ3Axs_4core6resultINtB5_6ResultNtNtCs5AlOhPCr03V_3syn4expr7ExprBoxNtNtBO_5error5ErrorEINtNtNtB7_3ops9try_trait12FromResidualIBy_NtNtB7_7convert10InfallibleB1j_EE13from_residualBO_, symObjAddr: 0x11514, symBinAddr: 0x53AB0, symSize: 0x48 }
  - { offset: 0xBB81E, size: 0x8, addend: 0x0, symName: __RNvXsp_NtCsfvfooZQ3Axs_4core6resultINtB5_6ResultNtNtCs5AlOhPCr03V_3syn4expr7ExprLetNtNtBO_5error5ErrorEINtNtNtB7_3ops9try_trait12FromResidualIBy_NtNtB7_7convert10InfallibleB1j_EE13from_residualBO_, symObjAddr: 0x1155C, symBinAddr: 0x53AF8, symSize: 0x48 }
  - { offset: 0xBB8A3, size: 0x8, addend: 0x0, symName: __RNvXsp_NtCsfvfooZQ3Axs_4core6resultINtB5_6ResultNtNtCs5AlOhPCr03V_3syn4expr7ExprLitNtNtBO_5error5ErrorEINtNtNtB7_3ops9try_trait12FromResidualIBy_NtNtB7_7convert10InfallibleB1j_EE13from_residualBO_, symObjAddr: 0x115A4, symBinAddr: 0x53B40, symSize: 0x48 }
  - { offset: 0xBB928, size: 0x8, addend: 0x0, symName: __RNvXsp_NtCsfvfooZQ3Axs_4core6resultINtB5_6ResultNtNtCs5AlOhPCr03V_3syn4expr8ExprLoopNtNtBO_5error5ErrorEINtNtNtB7_3ops9try_trait12FromResidualIBy_NtNtB7_7convert10InfallibleB1k_EE13from_residualBO_, symObjAddr: 0x116C4, symBinAddr: 0x53B88, symSize: 0x48 }
  - { offset: 0xBB9AD, size: 0x8, addend: 0x0, symName: __RNvXsp_NtCsfvfooZQ3Axs_4core6resultINtB5_6ResultNtNtCs5AlOhPCr03V_3syn4expr8ExprPathNtNtBO_5error5ErrorEINtNtNtB7_3ops9try_trait12FromResidualIBy_NtNtB7_7convert10InfallibleB1k_EE13from_residualBO_, symObjAddr: 0x1170C, symBinAddr: 0x53BD0, symSize: 0x48 }
  - { offset: 0xBBA32, size: 0x8, addend: 0x0, symName: __RNvXsp_NtCsfvfooZQ3Axs_4core6resultINtB5_6ResultNtNtCs5AlOhPCr03V_3syn4expr9ExprAsyncNtNtBO_5error5ErrorEINtNtNtB7_3ops9try_trait12FromResidualIBy_NtNtB7_7convert10InfallibleB1l_EE13from_residualBO_, symObjAddr: 0x117E4, symBinAddr: 0x53C18, symSize: 0x48 }
  - { offset: 0xBBAB7, size: 0x8, addend: 0x0, symName: __RNvXsp_NtCsfvfooZQ3Axs_4core6resultINtB5_6ResultNtNtCs5AlOhPCr03V_3syn4expr9ExprBlockNtNtBO_5error5ErrorEINtNtNtB7_3ops9try_trait12FromResidualIBy_NtNtB7_7convert10InfallibleB1l_EE13from_residualBO_, symObjAddr: 0x11874, symBinAddr: 0x53C60, symSize: 0x48 }
  - { offset: 0xBBB3C, size: 0x8, addend: 0x0, symName: __RNvXsp_NtCsfvfooZQ3Axs_4core6resultINtB5_6ResultNtNtCs5AlOhPCr03V_3syn4expr9ExprBreakNtNtBO_5error5ErrorEINtNtNtB7_3ops9try_trait12FromResidualIBy_NtNtB7_7convert10InfallibleB1l_EE13from_residualBO_, symObjAddr: 0x118BC, symBinAddr: 0x53CA8, symSize: 0x48 }
  - { offset: 0xBBBC1, size: 0x8, addend: 0x0, symName: __RNvXsp_NtCsfvfooZQ3Axs_4core6resultINtB5_6ResultNtNtCs5AlOhPCr03V_3syn4expr9ExprGroupNtNtBO_5error5ErrorEINtNtNtB7_3ops9try_trait12FromResidualIBy_NtNtB7_7convert10InfallibleB1l_EE13from_residualBO_, symObjAddr: 0x1194C, symBinAddr: 0x53CF0, symSize: 0x48 }
  - { offset: 0xBBC46, size: 0x8, addend: 0x0, symName: __RNvXsp_NtCsfvfooZQ3Axs_4core6resultINtB5_6ResultNtNtCs5AlOhPCr03V_3syn4expr9ExprMatchNtNtBO_5error5ErrorEINtNtNtB7_3ops9try_trait12FromResidualIBy_NtNtB7_7convert10InfallibleB1l_EE13from_residualBO_, symObjAddr: 0x11A24, symBinAddr: 0x53D38, symSize: 0x48 }
  - { offset: 0xBBCCB, size: 0x8, addend: 0x0, symName: __RNvXsp_NtCsfvfooZQ3Axs_4core6resultINtB5_6ResultNtNtCs5AlOhPCr03V_3syn4expr9ExprRangeNtNtBO_5error5ErrorEINtNtNtB7_3ops9try_trait12FromResidualIBy_NtNtB7_7convert10InfallibleB1l_EE13from_residualBO_, symObjAddr: 0x11AB4, symBinAddr: 0x53D80, symSize: 0x48 }
  - { offset: 0xBBD50, size: 0x8, addend: 0x0, symName: __RNvXsp_NtCsfvfooZQ3Axs_4core6resultINtB5_6ResultNtNtCs5AlOhPCr03V_3syn4expr9ExprUnaryNtNtBO_5error5ErrorEINtNtNtB7_3ops9try_trait12FromResidualIBy_NtNtB7_7convert10InfallibleB1l_EE13from_residualBO_, symObjAddr: 0x11B44, symBinAddr: 0x53DC8, symSize: 0x48 }
  - { offset: 0xBBDD5, size: 0x8, addend: 0x0, symName: __RNvXsp_NtCsfvfooZQ3Axs_4core6resultINtB5_6ResultNtNtCs5AlOhPCr03V_3syn4expr9ExprWhileNtNtBO_5error5ErrorEINtNtNtB7_3ops9try_trait12FromResidualIBy_NtNtB7_7convert10InfallibleB1l_EE13from_residualBO_, symObjAddr: 0x11B8C, symBinAddr: 0x53E10, symSize: 0x48 }
  - { offset: 0xBBE5A, size: 0x8, addend: 0x0, symName: __RNvXsp_NtCsfvfooZQ3Axs_4core6resultINtB5_6ResultNtNtCs5AlOhPCr03V_3syn4expr9ExprYieldNtNtBO_5error5ErrorEINtNtNtB7_3ops9try_trait12FromResidualIBy_NtNtB7_7convert10InfallibleB1l_EE13from_residualBO_, symObjAddr: 0x11BD4, symBinAddr: 0x53E58, symSize: 0x48 }
  - { offset: 0xBBEDF, size: 0x8, addend: 0x0, symName: __RNvXsp_NtCsfvfooZQ3Axs_4core6resultINtB5_6ResultNtNtCs5AlOhPCr03V_3syn4item10ItemMacro2NtNtBO_5error5ErrorEINtNtNtB7_3ops9try_trait12FromResidualIBy_NtNtB7_7convert10InfallibleB1n_EE13from_residualBO_, symObjAddr: 0x11CB0, symBinAddr: 0x53EA0, symSize: 0x48 }
  - { offset: 0xBBF64, size: 0x8, addend: 0x0, symName: __RNvXsp_NtCsfvfooZQ3Axs_4core6resultINtB5_6ResultNtNtCs5AlOhPCr03V_3syn4item10ItemStructNtNtBO_5error5ErrorEINtNtNtB7_3ops9try_trait12FromResidualIBy_NtNtB7_7convert10InfallibleB1n_EE13from_residualBO_, symObjAddr: 0x11D40, symBinAddr: 0x53EE8, symSize: 0x48 }
  - { offset: 0xBBFE9, size: 0x8, addend: 0x0, symName: __RNvXsp_NtCsfvfooZQ3Axs_4core6resultINtB5_6ResultNtNtCs5AlOhPCr03V_3syn4item11ForeignItemNtNtBO_5error5ErrorEINtNtNtB7_3ops9try_trait12FromResidualIBy_NtNtB7_7convert10InfallibleB1o_EE13from_residualBO_, symObjAddr: 0x11D88, symBinAddr: 0x53F30, symSize: 0x48 }
  - { offset: 0xBC06E, size: 0x8, addend: 0x0, symName: __RNvXsp_NtCsfvfooZQ3Axs_4core6resultINtB5_6ResultNtNtCs5AlOhPCr03V_3syn4item13ImplItemMacroNtNtBO_5error5ErrorEINtNtNtB7_3ops9try_trait12FromResidualIBy_NtNtB7_7convert10InfallibleB1q_EE13from_residualBO_, symObjAddr: 0x11EA8, symBinAddr: 0x53F78, symSize: 0x48 }
  - { offset: 0xBC0F3, size: 0x8, addend: 0x0, symName: __RNvXsp_NtCsfvfooZQ3Axs_4core6resultINtB5_6ResultNtNtCs5AlOhPCr03V_3syn4item14ImplItemMethodNtNtBO_5error5ErrorEINtNtNtB7_3ops9try_trait12FromResidualIBy_NtNtB7_7convert10InfallibleB1r_EE13from_residualBO_, symObjAddr: 0x11F38, symBinAddr: 0x53FC0, symSize: 0x48 }
  - { offset: 0xBC178, size: 0x8, addend: 0x0, symName: __RNvXsp_NtCsfvfooZQ3Axs_4core6resultINtB5_6ResultNtNtCs5AlOhPCr03V_3syn4item14ItemForeignModNtNtBO_5error5ErrorEINtNtNtB7_3ops9try_trait12FromResidualIBy_NtNtB7_7convert10InfallibleB1r_EE13from_residualBO_, symObjAddr: 0x11F80, symBinAddr: 0x54008, symSize: 0x48 }
  - { offset: 0xBC1FD, size: 0x8, addend: 0x0, symName: __RNvXsp_NtCsfvfooZQ3Axs_4core6resultINtB5_6ResultNtNtCs5AlOhPCr03V_3syn4item14ItemTraitAliasNtNtBO_5error5ErrorEINtNtNtB7_3ops9try_trait12FromResidualIBy_NtNtB7_7convert10InfallibleB1r_EE13from_residualBO_, symObjAddr: 0x11FC8, symBinAddr: 0x54050, symSize: 0x48 }
  - { offset: 0xBC282, size: 0x8, addend: 0x0, symName: __RNvXsp_NtCsfvfooZQ3Axs_4core6resultINtB5_6ResultNtNtCs5AlOhPCr03V_3syn4item14TraitItemConstNtNtBO_5error5ErrorEINtNtNtB7_3ops9try_trait12FromResidualIBy_NtNtB7_7convert10InfallibleB1r_EE13from_residualBO_, symObjAddr: 0x12010, symBinAddr: 0x54098, symSize: 0x48 }
  - { offset: 0xBC307, size: 0x8, addend: 0x0, symName: __RNvXsp_NtCsfvfooZQ3Axs_4core6resultINtB5_6ResultNtNtCs5AlOhPCr03V_3syn4item14TraitItemMacroNtNtBO_5error5ErrorEINtNtNtB7_3ops9try_trait12FromResidualIBy_NtNtB7_7convert10InfallibleB1r_EE13from_residualBO_, symObjAddr: 0x12058, symBinAddr: 0x540E0, symSize: 0x48 }
  - { offset: 0xBC38C, size: 0x8, addend: 0x0, symName: __RNvXsp_NtCsfvfooZQ3Axs_4core6resultINtB5_6ResultNtNtCs5AlOhPCr03V_3syn4item15ItemExternCrateNtNtBO_5error5ErrorEINtNtNtB7_3ops9try_trait12FromResidualIBy_NtNtB7_7convert10InfallibleB1s_EE13from_residualBO_, symObjAddr: 0x120E8, symBinAddr: 0x54128, symSize: 0x48 }
  - { offset: 0xBC411, size: 0x8, addend: 0x0, symName: __RNvXsp_NtCsfvfooZQ3Axs_4core6resultINtB5_6ResultNtNtCs5AlOhPCr03V_3syn4item15TraitItemMethodNtNtBO_5error5ErrorEINtNtNtB7_3ops9try_trait12FromResidualIBy_NtNtB7_7convert10InfallibleB1s_EE13from_residualBO_, symObjAddr: 0x12130, symBinAddr: 0x54170, symSize: 0x48 }
  - { offset: 0xBC496, size: 0x8, addend: 0x0, symName: __RNvXsp_NtCsfvfooZQ3Axs_4core6resultINtB5_6ResultNtNtCs5AlOhPCr03V_3syn4item16ForeignItemMacroNtNtBO_5error5ErrorEINtNtNtB7_3ops9try_trait12FromResidualIBy_NtNtB7_7convert10InfallibleB1t_EE13from_residualBO_, symObjAddr: 0x12178, symBinAddr: 0x541B8, symSize: 0x48 }
  - { offset: 0xBC51B, size: 0x8, addend: 0x0, symName: __RNvXsp_NtCsfvfooZQ3Axs_4core6resultINtB5_6ResultNtNtCs5AlOhPCr03V_3syn4item4ItemNtNtBO_5error5ErrorEINtNtNtB7_3ops9try_trait12FromResidualIBy_NtNtB7_7convert10InfallibleB1g_EE13from_residualBO_, symObjAddr: 0x12208, symBinAddr: 0x54200, symSize: 0x48 }
  - { offset: 0xBC5A0, size: 0x8, addend: 0x0, symName: __RNvXsp_NtCsfvfooZQ3Axs_4core6resultINtB5_6ResultNtNtCs5AlOhPCr03V_3syn4item5FnArgNtNtBO_5error5ErrorEINtNtNtB7_3ops9try_trait12FromResidualIBy_NtNtB7_7convert10InfallibleB1h_EE13from_residualBO_, symObjAddr: 0x12250, symBinAddr: 0x54248, symSize: 0x48 }
  - { offset: 0xBC625, size: 0x8, addend: 0x0, symName: __RNvXsp_NtCsfvfooZQ3Axs_4core6resultINtB5_6ResultNtNtCs5AlOhPCr03V_3syn4item6ItemFnNtNtBO_5error5ErrorEINtNtNtB7_3ops9try_trait12FromResidualIBy_NtNtB7_7convert10InfallibleB1i_EE13from_residualBO_, symObjAddr: 0x12298, symBinAddr: 0x54290, symSize: 0x48 }
  - { offset: 0xBC6AA, size: 0x8, addend: 0x0, symName: __RNvXsp_NtCsfvfooZQ3Axs_4core6resultINtB5_6ResultNtNtCs5AlOhPCr03V_3syn4item7ItemModNtNtBO_5error5ErrorEINtNtNtB7_3ops9try_trait12FromResidualIBy_NtNtB7_7convert10InfallibleB1j_EE13from_residualBO_, symObjAddr: 0x122E0, symBinAddr: 0x542D8, symSize: 0x48 }
  - { offset: 0xBC72F, size: 0x8, addend: 0x0, symName: __RNvXsp_NtCsfvfooZQ3Axs_4core6resultINtB5_6ResultNtNtCs5AlOhPCr03V_3syn4item7ItemUseNtNtBO_5error5ErrorEINtNtNtB7_3ops9try_trait12FromResidualIBy_NtNtB7_7convert10InfallibleB1j_EE13from_residualBO_, symObjAddr: 0x12328, symBinAddr: 0x54320, symSize: 0x48 }
  - { offset: 0xBC7B4, size: 0x8, addend: 0x0, symName: __RNvXsp_NtCsfvfooZQ3Axs_4core6resultINtB5_6ResultNtNtCs5AlOhPCr03V_3syn4item7UseTreeNtNtBO_5error5ErrorEINtNtNtB7_3ops9try_trait12FromResidualIBy_NtNtB7_7convert10InfallibleB1j_EE13from_residualBO_, symObjAddr: 0x12370, symBinAddr: 0x54368, symSize: 0x48 }
  - { offset: 0xBC839, size: 0x8, addend: 0x0, symName: __RNvXsp_NtCsfvfooZQ3Axs_4core6resultINtB5_6ResultNtNtCs5AlOhPCr03V_3syn4item8ImplItemNtNtBO_5error5ErrorEINtNtNtB7_3ops9try_trait12FromResidualIBy_NtNtB7_7convert10InfallibleB1k_EE13from_residualBO_, symObjAddr: 0x123B8, symBinAddr: 0x543B0, symSize: 0x4C }
  - { offset: 0xBC8BE, size: 0x8, addend: 0x0, symName: __RNvXsp_NtCsfvfooZQ3Axs_4core6resultINtB5_6ResultNtNtCs5AlOhPCr03V_3syn4item8ItemEnumNtNtBO_5error5ErrorEINtNtNtB7_3ops9try_trait12FromResidualIBy_NtNtB7_7convert10InfallibleB1k_EE13from_residualBO_, symObjAddr: 0x12404, symBinAddr: 0x543FC, symSize: 0x48 }
  - { offset: 0xBC943, size: 0x8, addend: 0x0, symName: __RNvXsp_NtCsfvfooZQ3Axs_4core6resultINtB5_6ResultNtNtCs5AlOhPCr03V_3syn4item8ReceiverNtNtBO_5error5ErrorEINtNtNtB7_3ops9try_trait12FromResidualIBy_NtNtB7_7convert10InfallibleB1k_EE13from_residualBO_, symObjAddr: 0x12494, symBinAddr: 0x54444, symSize: 0x48 }
  - { offset: 0xBC9C8, size: 0x8, addend: 0x0, symName: __RNvXsp_NtCsfvfooZQ3Axs_4core6resultINtB5_6ResultNtNtCs5AlOhPCr03V_3syn4item9ItemMacroNtNtBO_5error5ErrorEINtNtNtB7_3ops9try_trait12FromResidualIBy_NtNtB7_7convert10InfallibleB1l_EE13from_residualBO_, symObjAddr: 0x12524, symBinAddr: 0x5448C, symSize: 0x48 }
  - { offset: 0xBCA4D, size: 0x8, addend: 0x0, symName: __RNvXsp_NtCsfvfooZQ3Axs_4core6resultINtB5_6ResultNtNtCs5AlOhPCr03V_3syn4item9ItemTraitNtNtBO_5error5ErrorEINtNtNtB7_3ops9try_trait12FromResidualIBy_NtNtB7_7convert10InfallibleB1l_EE13from_residualBO_, symObjAddr: 0x1256C, symBinAddr: 0x544D4, symSize: 0x48 }
  - { offset: 0xBCAD2, size: 0x8, addend: 0x0, symName: __RNvXsp_NtCsfvfooZQ3Axs_4core6resultINtB5_6ResultNtNtCs5AlOhPCr03V_3syn4item9ItemUnionNtNtBO_5error5ErrorEINtNtNtB7_3ops9try_trait12FromResidualIBy_NtNtB7_7convert10InfallibleB1l_EE13from_residualBO_, symObjAddr: 0x125B4, symBinAddr: 0x5451C, symSize: 0x48 }
  - { offset: 0xBCB57, size: 0x8, addend: 0x0, symName: __RNvXsp_NtCsfvfooZQ3Axs_4core6resultINtB5_6ResultNtNtCs5AlOhPCr03V_3syn4item9SignatureNtNtBO_5error5ErrorEINtNtNtB7_3ops9try_trait12FromResidualIBy_NtNtB7_7convert10InfallibleB1l_EE13from_residualBO_, symObjAddr: 0x125FC, symBinAddr: 0x54564, symSize: 0x48 }
  - { offset: 0xBCBDC, size: 0x8, addend: 0x0, symName: __RNvXsp_NtCsfvfooZQ3Axs_4core6resultINtB5_6ResultNtNtCs5AlOhPCr03V_3syn4item9TraitItemNtNtBO_5error5ErrorEINtNtNtB7_3ops9try_trait12FromResidualIBy_NtNtB7_7convert10InfallibleB1l_EE13from_residualBO_, symObjAddr: 0x12644, symBinAddr: 0x545AC, symSize: 0x4C }
  - { offset: 0xBCC61, size: 0x8, addend: 0x0, symName: __RNvXsp_NtCsfvfooZQ3Axs_4core6resultINtB5_6ResultNtNtCs5AlOhPCr03V_3syn4path10ConstraintNtNtBO_5error5ErrorEINtNtNtB7_3ops9try_trait12FromResidualIBy_NtNtB7_7convert10InfallibleB1n_EE13from_residualBO_, symObjAddr: 0x12690, symBinAddr: 0x545F8, symSize: 0x48 }
  - { offset: 0xBCCE6, size: 0x8, addend: 0x0, symName: __RNvXsp_NtCsfvfooZQ3Axs_4core6resultINtB5_6ResultNtNtCs5AlOhPCr03V_3syn4path11PathSegmentNtNtBO_5error5ErrorEINtNtNtB7_3ops9try_trait12FromResidualIBy_NtNtB7_7convert10InfallibleB1o_EE13from_residualBO_, symObjAddr: 0x126D8, symBinAddr: 0x54640, symSize: 0x48 }
  - { offset: 0xBCD6B, size: 0x8, addend: 0x0, symName: __RNvXsp_NtCsfvfooZQ3Axs_4core6resultINtB5_6ResultNtNtCs5AlOhPCr03V_3syn4path15GenericArgumentNtNtBO_5error5ErrorEINtNtNtB7_3ops9try_trait12FromResidualIBy_NtNtB7_7convert10InfallibleB1s_EE13from_residualBO_, symObjAddr: 0x12720, symBinAddr: 0x54688, symSize: 0x4C }
  - { offset: 0xBCDF0, size: 0x8, addend: 0x0, symName: __RNvXsp_NtCsfvfooZQ3Axs_4core6resultINtB5_6ResultNtNtCs5AlOhPCr03V_3syn4path29ParenthesizedGenericArgumentsNtNtBO_5error5ErrorEINtNtNtB7_3ops9try_trait12FromResidualIBy_NtNtB7_7convert10InfallibleB1G_EE13from_residualBO_, symObjAddr: 0x1276C, symBinAddr: 0x546D4, symSize: 0x48 }
  - { offset: 0xBCE75, size: 0x8, addend: 0x0, symName: __RNvXsp_NtCsfvfooZQ3Axs_4core6resultINtB5_6ResultNtNtCs5AlOhPCr03V_3syn4path30AngleBracketedGenericArgumentsNtNtBO_5error5ErrorEINtNtNtB7_3ops9try_trait12FromResidualIBy_NtNtB7_7convert10InfallibleB1H_EE13from_residualBO_, symObjAddr: 0x127B4, symBinAddr: 0x5471C, symSize: 0x48 }
  - { offset: 0xBCEFA, size: 0x8, addend: 0x0, symName: __RNvXsp_NtCsfvfooZQ3Axs_4core6resultINtB5_6ResultNtNtCs5AlOhPCr03V_3syn4path4PathNtNtBO_5error5ErrorEINtNtNtB7_3ops9try_trait12FromResidualIBy_NtNtB7_7convert10InfallibleB1g_EE13from_residualBO_, symObjAddr: 0x127FC, symBinAddr: 0x54764, symSize: 0x48 }
  - { offset: 0xBCF7F, size: 0x8, addend: 0x0, symName: __RNvXsp_NtCsfvfooZQ3Axs_4core6resultINtB5_6ResultNtNtCs5AlOhPCr03V_3syn4stmt4StmtNtNtBO_5error5ErrorEINtNtNtB7_3ops9try_trait12FromResidualIBy_NtNtB7_7convert10InfallibleB1g_EE13from_residualBO_, symObjAddr: 0x12890, symBinAddr: 0x547AC, symSize: 0x48 }
  - { offset: 0xBD004, size: 0x8, addend: 0x0, symName: __RNvXsp_NtCsfvfooZQ3Axs_4core6resultINtB5_6ResultNtNtCs5AlOhPCr03V_3syn4stmt5BlockNtNtBO_5error5ErrorEINtNtNtB7_3ops9try_trait12FromResidualIBy_NtNtB7_7convert10InfallibleB1h_EE13from_residualBO_, symObjAddr: 0x128D8, symBinAddr: 0x547F4, symSize: 0x48 }
  - { offset: 0xBD089, size: 0x8, addend: 0x0, symName: __RNvXsp_NtCsfvfooZQ3Axs_4core6resultINtB5_6ResultNtNtCs5AlOhPCr03V_3syn5token10UnderscoreNtNtBO_5error5ErrorEINtNtNtB7_3ops9try_trait12FromResidualIBy_NtNtB7_7convert10InfallibleB1o_EE13from_residualBO_, symObjAddr: 0x12920, symBinAddr: 0x5483C, symSize: 0x40 }
  - { offset: 0xBD10E, size: 0x8, addend: 0x0, symName: __RNvXsp_NtCsfvfooZQ3Axs_4core6resultINtB5_6ResultNtNtCs5AlOhPCr03V_3syn5token2AsNtNtBO_5error5ErrorEINtNtNtB7_3ops9try_trait12FromResidualIBy_NtNtB7_7convert10InfallibleB1f_EE13from_residualBO_, symObjAddr: 0x12960, symBinAddr: 0x5487C, symSize: 0x40 }
  - { offset: 0xBD193, size: 0x8, addend: 0x0, symName: __RNvXsp_NtCsfvfooZQ3Axs_4core6resultINtB5_6ResultNtNtCs5AlOhPCr03V_3syn5token2AtNtNtBO_5error5ErrorEINtNtNtB7_3ops9try_trait12FromResidualIBy_NtNtB7_7convert10InfallibleB1f_EE13from_residualBO_, symObjAddr: 0x129A0, symBinAddr: 0x548BC, symSize: 0x40 }
  - { offset: 0xBD218, size: 0x8, addend: 0x0, symName: __RNvXsp_NtCsfvfooZQ3Axs_4core6resultINtB5_6ResultNtNtCs5AlOhPCr03V_3syn5token2EqNtNtBO_5error5ErrorEINtNtNtB7_3ops9try_trait12FromResidualIBy_NtNtB7_7convert10InfallibleB1f_EE13from_residualBO_, symObjAddr: 0x12A20, symBinAddr: 0x548FC, symSize: 0x40 }
  - { offset: 0xBD29D, size: 0x8, addend: 0x0, symName: __RNvXsp_NtCsfvfooZQ3Axs_4core6resultINtB5_6ResultNtNtCs5AlOhPCr03V_3syn5token2FnNtNtBO_5error5ErrorEINtNtNtB7_3ops9try_trait12FromResidualIBy_NtNtB7_7convert10InfallibleB1f_EE13from_residualBO_, symObjAddr: 0x12A60, symBinAddr: 0x5493C, symSize: 0x40 }
  - { offset: 0xBD322, size: 0x8, addend: 0x0, symName: __RNvXsp_NtCsfvfooZQ3Axs_4core6resultINtB5_6ResultNtNtCs5AlOhPCr03V_3syn5token2GeNtNtBO_5error5ErrorEINtNtNtB7_3ops9try_trait12FromResidualIBy_NtNtB7_7convert10InfallibleB1f_EE13from_residualBO_, symObjAddr: 0x12AA0, symBinAddr: 0x5497C, symSize: 0x40 }
  - { offset: 0xBD3A7, size: 0x8, addend: 0x0, symName: __RNvXsp_NtCsfvfooZQ3Axs_4core6resultINtB5_6ResultNtNtCs5AlOhPCr03V_3syn5token2GtNtNtBO_5error5ErrorEINtNtNtB7_3ops9try_trait12FromResidualIBy_NtNtB7_7convert10InfallibleB1f_EE13from_residualBO_, symObjAddr: 0x12AE0, symBinAddr: 0x549BC, symSize: 0x40 }
  - { offset: 0xBD42C, size: 0x8, addend: 0x0, symName: __RNvXsp_NtCsfvfooZQ3Axs_4core6resultINtB5_6ResultNtNtCs5AlOhPCr03V_3syn5token2IfNtNtBO_5error5ErrorEINtNtNtB7_3ops9try_trait12FromResidualIBy_NtNtB7_7convert10InfallibleB1f_EE13from_residualBO_, symObjAddr: 0x12B20, symBinAddr: 0x549FC, symSize: 0x40 }
  - { offset: 0xBD4B1, size: 0x8, addend: 0x0, symName: __RNvXsp_NtCsfvfooZQ3Axs_4core6resultINtB5_6ResultNtNtCs5AlOhPCr03V_3syn5token2InNtNtBO_5error5ErrorEINtNtNtB7_3ops9try_trait12FromResidualIBy_NtNtB7_7convert10InfallibleB1f_EE13from_residualBO_, symObjAddr: 0x12B60, symBinAddr: 0x54A3C, symSize: 0x40 }
  - { offset: 0xBD536, size: 0x8, addend: 0x0, symName: __RNvXsp_NtCsfvfooZQ3Axs_4core6resultINtB5_6ResultNtNtCs5AlOhPCr03V_3syn5token2LeNtNtBO_5error5ErrorEINtNtNtB7_3ops9try_trait12FromResidualIBy_NtNtB7_7convert10InfallibleB1f_EE13from_residualBO_, symObjAddr: 0x12BA0, symBinAddr: 0x54A7C, symSize: 0x40 }
  - { offset: 0xBD5BB, size: 0x8, addend: 0x0, symName: __RNvXsp_NtCsfvfooZQ3Axs_4core6resultINtB5_6ResultNtNtCs5AlOhPCr03V_3syn5token2LtNtNtBO_5error5ErrorEINtNtNtB7_3ops9try_trait12FromResidualIBy_NtNtB7_7convert10InfallibleB1f_EE13from_residualBO_, symObjAddr: 0x12BE0, symBinAddr: 0x54ABC, symSize: 0x40 }
  - { offset: 0xBD640, size: 0x8, addend: 0x0, symName: __RNvXsp_NtCsfvfooZQ3Axs_4core6resultINtB5_6ResultNtNtCs5AlOhPCr03V_3syn5token2NeNtNtBO_5error5ErrorEINtNtNtB7_3ops9try_trait12FromResidualIBy_NtNtB7_7convert10InfallibleB1f_EE13from_residualBO_, symObjAddr: 0x12C20, symBinAddr: 0x54AFC, symSize: 0x40 }
  - { offset: 0xBD6C5, size: 0x8, addend: 0x0, symName: __RNvXsp_NtCsfvfooZQ3Axs_4core6resultINtB5_6ResultNtNtCs5AlOhPCr03V_3syn5token2OrNtNtBO_5error5ErrorEINtNtNtB7_3ops9try_trait12FromResidualIBy_NtNtB7_7convert10InfallibleB1f_EE13from_residualBO_, symObjAddr: 0x12C60, symBinAddr: 0x54B3C, symSize: 0x40 }
  - { offset: 0xBD74A, size: 0x8, addend: 0x0, symName: __RNvXsp_NtCsfvfooZQ3Axs_4core6resultINtB5_6ResultNtNtCs5AlOhPCr03V_3syn5token3AddNtNtBO_5error5ErrorEINtNtNtB7_3ops9try_trait12FromResidualIBy_NtNtB7_7convert10InfallibleB1g_EE13from_residualBO_, symObjAddr: 0x12CA0, symBinAddr: 0x54B7C, symSize: 0x40 }
  - { offset: 0xBD7CF, size: 0x8, addend: 0x0, symName: __RNvXsp_NtCsfvfooZQ3Axs_4core6resultINtB5_6ResultNtNtCs5AlOhPCr03V_3syn5token3AndNtNtBO_5error5ErrorEINtNtNtB7_3ops9try_trait12FromResidualIBy_NtNtB7_7convert10InfallibleB1g_EE13from_residualBO_, symObjAddr: 0x12CE0, symBinAddr: 0x54BBC, symSize: 0x40 }
  - { offset: 0xBD854, size: 0x8, addend: 0x0, symName: __RNvXsp_NtCsfvfooZQ3Axs_4core6resultINtB5_6ResultNtNtCs5AlOhPCr03V_3syn5token3BoxNtNtBO_5error5ErrorEINtNtNtB7_3ops9try_trait12FromResidualIBy_NtNtB7_7convert10InfallibleB1g_EE13from_residualBO_, symObjAddr: 0x12D20, symBinAddr: 0x54BFC, symSize: 0x40 }
  - { offset: 0xBD8D9, size: 0x8, addend: 0x0, symName: __RNvXsp_NtCsfvfooZQ3Axs_4core6resultINtB5_6ResultNtNtCs5AlOhPCr03V_3syn5token3DivNtNtBO_5error5ErrorEINtNtNtB7_3ops9try_trait12FromResidualIBy_NtNtB7_7convert10InfallibleB1g_EE13from_residualBO_, symObjAddr: 0x12D60, symBinAddr: 0x54C3C, symSize: 0x40 }
  - { offset: 0xBD95E, size: 0x8, addend: 0x0, symName: __RNvXsp_NtCsfvfooZQ3Axs_4core6resultINtB5_6ResultNtNtCs5AlOhPCr03V_3syn5token3DotNtNtBO_5error5ErrorEINtNtNtB7_3ops9try_trait12FromResidualIBy_NtNtB7_7convert10InfallibleB1g_EE13from_residualBO_, symObjAddr: 0x12DA0, symBinAddr: 0x54C7C, symSize: 0x40 }
  - { offset: 0xBD9E3, size: 0x8, addend: 0x0, symName: __RNvXsp_NtCsfvfooZQ3Axs_4core6resultINtB5_6ResultNtNtCs5AlOhPCr03V_3syn5token3DynNtNtBO_5error5ErrorEINtNtNtB7_3ops9try_trait12FromResidualIBy_NtNtB7_7convert10InfallibleB1g_EE13from_residualBO_, symObjAddr: 0x12DE0, symBinAddr: 0x54CBC, symSize: 0x40 }
  - { offset: 0xBDA68, size: 0x8, addend: 0x0, symName: __RNvXsp_NtCsfvfooZQ3Axs_4core6resultINtB5_6ResultNtNtCs5AlOhPCr03V_3syn5token3ForNtNtBO_5error5ErrorEINtNtNtB7_3ops9try_trait12FromResidualIBy_NtNtB7_7convert10InfallibleB1g_EE13from_residualBO_, symObjAddr: 0x12E20, symBinAddr: 0x54CFC, symSize: 0x40 }
  - { offset: 0xBDAED, size: 0x8, addend: 0x0, symName: __RNvXsp_NtCsfvfooZQ3Axs_4core6resultINtB5_6ResultNtNtCs5AlOhPCr03V_3syn5token3LetNtNtBO_5error5ErrorEINtNtNtB7_3ops9try_trait12FromResidualIBy_NtNtB7_7convert10InfallibleB1g_EE13from_residualBO_, symObjAddr: 0x12E60, symBinAddr: 0x54D3C, symSize: 0x40 }
  - { offset: 0xBDB72, size: 0x8, addend: 0x0, symName: __RNvXsp_NtCsfvfooZQ3Axs_4core6resultINtB5_6ResultNtNtCs5AlOhPCr03V_3syn5token3ModNtNtBO_5error5ErrorEINtNtNtB7_3ops9try_trait12FromResidualIBy_NtNtB7_7convert10InfallibleB1g_EE13from_residualBO_, symObjAddr: 0x12EA0, symBinAddr: 0x54D7C, symSize: 0x40 }
  - { offset: 0xBDBF7, size: 0x8, addend: 0x0, symName: __RNvXsp_NtCsfvfooZQ3Axs_4core6resultINtB5_6ResultNtNtCs5AlOhPCr03V_3syn5token3MutNtNtBO_5error5ErrorEINtNtNtB7_3ops9try_trait12FromResidualIBy_NtNtB7_7convert10InfallibleB1g_EE13from_residualBO_, symObjAddr: 0x12EE0, symBinAddr: 0x54DBC, symSize: 0x40 }
  - { offset: 0xBDC7C, size: 0x8, addend: 0x0, symName: __RNvXsp_NtCsfvfooZQ3Axs_4core6resultINtB5_6ResultNtNtCs5AlOhPCr03V_3syn5token3PubNtNtBO_5error5ErrorEINtNtNtB7_3ops9try_trait12FromResidualIBy_NtNtB7_7convert10InfallibleB1g_EE13from_residualBO_, symObjAddr: 0x12F20, symBinAddr: 0x54DFC, symSize: 0x40 }
  - { offset: 0xBDD01, size: 0x8, addend: 0x0, symName: __RNvXsp_NtCsfvfooZQ3Axs_4core6resultINtB5_6ResultNtNtCs5AlOhPCr03V_3syn5token3RefNtNtBO_5error5ErrorEINtNtNtB7_3ops9try_trait12FromResidualIBy_NtNtB7_7convert10InfallibleB1g_EE13from_residualBO_, symObjAddr: 0x12F60, symBinAddr: 0x54E3C, symSize: 0x40 }
  - { offset: 0xBDD86, size: 0x8, addend: 0x0, symName: __RNvXsp_NtCsfvfooZQ3Axs_4core6resultINtB5_6ResultNtNtCs5AlOhPCr03V_3syn5token3RemNtNtBO_5error5ErrorEINtNtNtB7_3ops9try_trait12FromResidualIBy_NtNtB7_7convert10InfallibleB1g_EE13from_residualBO_, symObjAddr: 0x12FA0, symBinAddr: 0x54E7C, symSize: 0x40 }
  - { offset: 0xBDE0B, size: 0x8, addend: 0x0, symName: __RNvXsp_NtCsfvfooZQ3Axs_4core6resultINtB5_6ResultNtNtCs5AlOhPCr03V_3syn5token3ShlNtNtBO_5error5ErrorEINtNtNtB7_3ops9try_trait12FromResidualIBy_NtNtB7_7convert10InfallibleB1g_EE13from_residualBO_, symObjAddr: 0x12FE0, symBinAddr: 0x54EBC, symSize: 0x40 }
  - { offset: 0xBDE90, size: 0x8, addend: 0x0, symName: __RNvXsp_NtCsfvfooZQ3Axs_4core6resultINtB5_6ResultNtNtCs5AlOhPCr03V_3syn5token3ShrNtNtBO_5error5ErrorEINtNtNtB7_3ops9try_trait12FromResidualIBy_NtNtB7_7convert10InfallibleB1g_EE13from_residualBO_, symObjAddr: 0x13020, symBinAddr: 0x54EFC, symSize: 0x40 }
  - { offset: 0xBDF15, size: 0x8, addend: 0x0, symName: __RNvXsp_NtCsfvfooZQ3Axs_4core6resultINtB5_6ResultNtNtCs5AlOhPCr03V_3syn5token3SubNtNtBO_5error5ErrorEINtNtNtB7_3ops9try_trait12FromResidualIBy_NtNtB7_7convert10InfallibleB1g_EE13from_residualBO_, symObjAddr: 0x13060, symBinAddr: 0x54F3C, symSize: 0x40 }
  - { offset: 0xBDF9A, size: 0x8, addend: 0x0, symName: __RNvXsp_NtCsfvfooZQ3Axs_4core6resultINtB5_6ResultNtNtCs5AlOhPCr03V_3syn5token3TryNtNtBO_5error5ErrorEINtNtNtB7_3ops9try_trait12FromResidualIBy_NtNtB7_7convert10InfallibleB1g_EE13from_residualBO_, symObjAddr: 0x130A0, symBinAddr: 0x54F7C, symSize: 0x40 }
  - { offset: 0xBE01F, size: 0x8, addend: 0x0, symName: __RNvXsp_NtCsfvfooZQ3Axs_4core6resultINtB5_6ResultNtNtCs5AlOhPCr03V_3syn5token3UseNtNtBO_5error5ErrorEINtNtNtB7_3ops9try_trait12FromResidualIBy_NtNtB7_7convert10InfallibleB1g_EE13from_residualBO_, symObjAddr: 0x130E0, symBinAddr: 0x54FBC, symSize: 0x40 }
  - { offset: 0xBE0A4, size: 0x8, addend: 0x0, symName: __RNvXsp_NtCsfvfooZQ3Axs_4core6resultINtB5_6ResultNtNtCs5AlOhPCr03V_3syn5token4AutoNtNtBO_5error5ErrorEINtNtNtB7_3ops9try_trait12FromResidualIBy_NtNtB7_7convert10InfallibleB1h_EE13from_residualBO_, symObjAddr: 0x13120, symBinAddr: 0x54FFC, symSize: 0x40 }
  - { offset: 0xBE129, size: 0x8, addend: 0x0, symName: __RNvXsp_NtCsfvfooZQ3Axs_4core6resultINtB5_6ResultNtNtCs5AlOhPCr03V_3syn5token4BangNtNtBO_5error5ErrorEINtNtNtB7_3ops9try_trait12FromResidualIBy_NtNtB7_7convert10InfallibleB1h_EE13from_residualBO_, symObjAddr: 0x13160, symBinAddr: 0x5503C, symSize: 0x40 }
  - { offset: 0xBE1AE, size: 0x8, addend: 0x0, symName: __RNvXsp_NtCsfvfooZQ3Axs_4core6resultINtB5_6ResultNtNtCs5AlOhPCr03V_3syn5token4Dot2NtNtBO_5error5ErrorEINtNtNtB7_3ops9try_trait12FromResidualIBy_NtNtB7_7convert10InfallibleB1h_EE13from_residualBO_, symObjAddr: 0x131A0, symBinAddr: 0x5507C, symSize: 0x40 }
  - { offset: 0xBE233, size: 0x8, addend: 0x0, symName: __RNvXsp_NtCsfvfooZQ3Axs_4core6resultINtB5_6ResultNtNtCs5AlOhPCr03V_3syn5token4Dot3NtNtBO_5error5ErrorEINtNtNtB7_3ops9try_trait12FromResidualIBy_NtNtB7_7convert10InfallibleB1h_EE13from_residualBO_, symObjAddr: 0x131E0, symBinAddr: 0x550BC, symSize: 0x40 }
  - { offset: 0xBE2B8, size: 0x8, addend: 0x0, symName: __RNvXsp_NtCsfvfooZQ3Axs_4core6resultINtB5_6ResultNtNtCs5AlOhPCr03V_3syn5token4ElseNtNtBO_5error5ErrorEINtNtNtB7_3ops9try_trait12FromResidualIBy_NtNtB7_7convert10InfallibleB1h_EE13from_residualBO_, symObjAddr: 0x13220, symBinAddr: 0x550FC, symSize: 0x40 }
  - { offset: 0xBE33D, size: 0x8, addend: 0x0, symName: __RNvXsp_NtCsfvfooZQ3Axs_4core6resultINtB5_6ResultNtNtCs5AlOhPCr03V_3syn5token4EnumNtNtBO_5error5ErrorEINtNtNtB7_3ops9try_trait12FromResidualIBy_NtNtB7_7convert10InfallibleB1h_EE13from_residualBO_, symObjAddr: 0x13260, symBinAddr: 0x5513C, symSize: 0x40 }
  - { offset: 0xBE3C2, size: 0x8, addend: 0x0, symName: __RNvXsp_NtCsfvfooZQ3Axs_4core6resultINtB5_6ResultNtNtCs5AlOhPCr03V_3syn5token4EqEqNtNtBO_5error5ErrorEINtNtNtB7_3ops9try_trait12FromResidualIBy_NtNtB7_7convert10InfallibleB1h_EE13from_residualBO_, symObjAddr: 0x132A0, symBinAddr: 0x5517C, symSize: 0x40 }
  - { offset: 0xBE447, size: 0x8, addend: 0x0, symName: __RNvXsp_NtCsfvfooZQ3Axs_4core6resultINtB5_6ResultNtNtCs5AlOhPCr03V_3syn5token4ImplNtNtBO_5error5ErrorEINtNtNtB7_3ops9try_trait12FromResidualIBy_NtNtB7_7convert10InfallibleB1h_EE13from_residualBO_, symObjAddr: 0x132E0, symBinAddr: 0x551BC, symSize: 0x40 }
  - { offset: 0xBE4CC, size: 0x8, addend: 0x0, symName: __RNvXsp_NtCsfvfooZQ3Axs_4core6resultINtB5_6ResultNtNtCs5AlOhPCr03V_3syn5token4LoopNtNtBO_5error5ErrorEINtNtNtB7_3ops9try_trait12FromResidualIBy_NtNtB7_7convert10InfallibleB1h_EE13from_residualBO_, symObjAddr: 0x13320, symBinAddr: 0x551FC, symSize: 0x40 }
  - { offset: 0xBE551, size: 0x8, addend: 0x0, symName: __RNvXsp_NtCsfvfooZQ3Axs_4core6resultINtB5_6ResultNtNtCs5AlOhPCr03V_3syn5token4MoveNtNtBO_5error5ErrorEINtNtNtB7_3ops9try_trait12FromResidualIBy_NtNtB7_7convert10InfallibleB1h_EE13from_residualBO_, symObjAddr: 0x13360, symBinAddr: 0x5523C, symSize: 0x40 }
  - { offset: 0xBE5D6, size: 0x8, addend: 0x0, symName: __RNvXsp_NtCsfvfooZQ3Axs_4core6resultINtB5_6ResultNtNtCs5AlOhPCr03V_3syn5token4OrEqNtNtBO_5error5ErrorEINtNtNtB7_3ops9try_trait12FromResidualIBy_NtNtB7_7convert10InfallibleB1h_EE13from_residualBO_, symObjAddr: 0x133A0, symBinAddr: 0x5527C, symSize: 0x40 }
  - { offset: 0xBE65B, size: 0x8, addend: 0x0, symName: __RNvXsp_NtCsfvfooZQ3Axs_4core6resultINtB5_6ResultNtNtCs5AlOhPCr03V_3syn5token4OrOrNtNtBO_5error5ErrorEINtNtNtB7_3ops9try_trait12FromResidualIBy_NtNtB7_7convert10InfallibleB1h_EE13from_residualBO_, symObjAddr: 0x133E0, symBinAddr: 0x552BC, symSize: 0x40 }
  - { offset: 0xBE6E0, size: 0x8, addend: 0x0, symName: __RNvXsp_NtCsfvfooZQ3Axs_4core6resultINtB5_6ResultNtNtCs5AlOhPCr03V_3syn5token4SemiNtNtBO_5error5ErrorEINtNtNtB7_3ops9try_trait12FromResidualIBy_NtNtB7_7convert10InfallibleB1h_EE13from_residualBO_, symObjAddr: 0x13460, symBinAddr: 0x552FC, symSize: 0x40 }
  - { offset: 0xBE765, size: 0x8, addend: 0x0, symName: __RNvXsp_NtCsfvfooZQ3Axs_4core6resultINtB5_6ResultNtNtCs5AlOhPCr03V_3syn5token4StarNtNtBO_5error5ErrorEINtNtNtB7_3ops9try_trait12FromResidualIBy_NtNtB7_7convert10InfallibleB1h_EE13from_residualBO_, symObjAddr: 0x134A0, symBinAddr: 0x5533C, symSize: 0x40 }
  - { offset: 0xBE7EA, size: 0x8, addend: 0x0, symName: __RNvXsp_NtCsfvfooZQ3Axs_4core6resultINtB5_6ResultNtNtCs5AlOhPCr03V_3syn5token4TypeNtNtBO_5error5ErrorEINtNtNtB7_3ops9try_trait12FromResidualIBy_NtNtB7_7convert10InfallibleB1h_EE13from_residualBO_, symObjAddr: 0x134E0, symBinAddr: 0x5537C, symSize: 0x40 }
  - { offset: 0xBE86F, size: 0x8, addend: 0x0, symName: __RNvXsp_NtCsfvfooZQ3Axs_4core6resultINtB5_6ResultNtNtCs5AlOhPCr03V_3syn5token5AddEqNtNtBO_5error5ErrorEINtNtNtB7_3ops9try_trait12FromResidualIBy_NtNtB7_7convert10InfallibleB1i_EE13from_residualBO_, symObjAddr: 0x13520, symBinAddr: 0x553BC, symSize: 0x40 }
  - { offset: 0xBE8F4, size: 0x8, addend: 0x0, symName: __RNvXsp_NtCsfvfooZQ3Axs_4core6resultINtB5_6ResultNtNtCs5AlOhPCr03V_3syn5token5AndEqNtNtBO_5error5ErrorEINtNtNtB7_3ops9try_trait12FromResidualIBy_NtNtB7_7convert10InfallibleB1i_EE13from_residualBO_, symObjAddr: 0x13560, symBinAddr: 0x553FC, symSize: 0x40 }
  - { offset: 0xBE979, size: 0x8, addend: 0x0, symName: __RNvXsp_NtCsfvfooZQ3Axs_4core6resultINtB5_6ResultNtNtCs5AlOhPCr03V_3syn5token5AsyncNtNtBO_5error5ErrorEINtNtNtB7_3ops9try_trait12FromResidualIBy_NtNtB7_7convert10InfallibleB1i_EE13from_residualBO_, symObjAddr: 0x135A0, symBinAddr: 0x5543C, symSize: 0x40 }
  - { offset: 0xBE9FE, size: 0x8, addend: 0x0, symName: __RNvXsp_NtCsfvfooZQ3Axs_4core6resultINtB5_6ResultNtNtCs5AlOhPCr03V_3syn5token5AwaitNtNtBO_5error5ErrorEINtNtNtB7_3ops9try_trait12FromResidualIBy_NtNtB7_7convert10InfallibleB1i_EE13from_residualBO_, symObjAddr: 0x135E0, symBinAddr: 0x5547C, symSize: 0x40 }
  - { offset: 0xBEA83, size: 0x8, addend: 0x0, symName: __RNvXsp_NtCsfvfooZQ3Axs_4core6resultINtB5_6ResultNtNtCs5AlOhPCr03V_3syn5token5BreakNtNtBO_5error5ErrorEINtNtNtB7_3ops9try_trait12FromResidualIBy_NtNtB7_7convert10InfallibleB1i_EE13from_residualBO_, symObjAddr: 0x13620, symBinAddr: 0x554BC, symSize: 0x40 }
  - { offset: 0xBEB08, size: 0x8, addend: 0x0, symName: __RNvXsp_NtCsfvfooZQ3Axs_4core6resultINtB5_6ResultNtNtCs5AlOhPCr03V_3syn5token5CaretNtNtBO_5error5ErrorEINtNtNtB7_3ops9try_trait12FromResidualIBy_NtNtB7_7convert10InfallibleB1i_EE13from_residualBO_, symObjAddr: 0x13660, symBinAddr: 0x554FC, symSize: 0x40 }
  - { offset: 0xBEB8D, size: 0x8, addend: 0x0, symName: __RNvXsp_NtCsfvfooZQ3Axs_4core6resultINtB5_6ResultNtNtCs5AlOhPCr03V_3syn5token5ColonNtNtBO_5error5ErrorEINtNtNtB7_3ops9try_trait12FromResidualIBy_NtNtB7_7convert10InfallibleB1i_EE13from_residualBO_, symObjAddr: 0x136A0, symBinAddr: 0x5553C, symSize: 0x40 }
  - { offset: 0xBEC12, size: 0x8, addend: 0x0, symName: __RNvXsp_NtCsfvfooZQ3Axs_4core6resultINtB5_6ResultNtNtCs5AlOhPCr03V_3syn5token5CommaNtNtBO_5error5ErrorEINtNtNtB7_3ops9try_trait12FromResidualIBy_NtNtB7_7convert10InfallibleB1i_EE13from_residualBO_, symObjAddr: 0x136E0, symBinAddr: 0x5557C, symSize: 0x40 }
  - { offset: 0xBEC97, size: 0x8, addend: 0x0, symName: __RNvXsp_NtCsfvfooZQ3Axs_4core6resultINtB5_6ResultNtNtCs5AlOhPCr03V_3syn5token5ConstNtNtBO_5error5ErrorEINtNtNtB7_3ops9try_trait12FromResidualIBy_NtNtB7_7convert10InfallibleB1i_EE13from_residualBO_, symObjAddr: 0x13720, symBinAddr: 0x555BC, symSize: 0x40 }
  - { offset: 0xBED1C, size: 0x8, addend: 0x0, symName: __RNvXsp_NtCsfvfooZQ3Axs_4core6resultINtB5_6ResultNtNtCs5AlOhPCr03V_3syn5token5CrateNtNtBO_5error5ErrorEINtNtNtB7_3ops9try_trait12FromResidualIBy_NtNtB7_7convert10InfallibleB1i_EE13from_residualBO_, symObjAddr: 0x13760, symBinAddr: 0x555FC, symSize: 0x40 }
  - { offset: 0xBEDA1, size: 0x8, addend: 0x0, symName: __RNvXsp_NtCsfvfooZQ3Axs_4core6resultINtB5_6ResultNtNtCs5AlOhPCr03V_3syn5token5DivEqNtNtBO_5error5ErrorEINtNtNtB7_3ops9try_trait12FromResidualIBy_NtNtB7_7convert10InfallibleB1i_EE13from_residualBO_, symObjAddr: 0x137A0, symBinAddr: 0x5563C, symSize: 0x40 }
  - { offset: 0xBEE26, size: 0x8, addend: 0x0, symName: __RNvXsp_NtCsfvfooZQ3Axs_4core6resultINtB5_6ResultNtNtCs5AlOhPCr03V_3syn5token5MacroNtNtBO_5error5ErrorEINtNtNtB7_3ops9try_trait12FromResidualIBy_NtNtB7_7convert10InfallibleB1i_EE13from_residualBO_, symObjAddr: 0x13820, symBinAddr: 0x5567C, symSize: 0x40 }
  - { offset: 0xBEEAB, size: 0x8, addend: 0x0, symName: __RNvXsp_NtCsfvfooZQ3Axs_4core6resultINtB5_6ResultNtNtCs5AlOhPCr03V_3syn5token5MatchNtNtBO_5error5ErrorEINtNtNtB7_3ops9try_trait12FromResidualIBy_NtNtB7_7convert10InfallibleB1i_EE13from_residualBO_, symObjAddr: 0x13860, symBinAddr: 0x556BC, symSize: 0x40 }
  - { offset: 0xBEF30, size: 0x8, addend: 0x0, symName: __RNvXsp_NtCsfvfooZQ3Axs_4core6resultINtB5_6ResultNtNtCs5AlOhPCr03V_3syn5token5MulEqNtNtBO_5error5ErrorEINtNtNtB7_3ops9try_trait12FromResidualIBy_NtNtB7_7convert10InfallibleB1i_EE13from_residualBO_, symObjAddr: 0x138A0, symBinAddr: 0x556FC, symSize: 0x40 }
  - { offset: 0xBEFB5, size: 0x8, addend: 0x0, symName: __RNvXsp_NtCsfvfooZQ3Axs_4core6resultINtB5_6ResultNtNtCs5AlOhPCr03V_3syn5token5PoundNtNtBO_5error5ErrorEINtNtNtB7_3ops9try_trait12FromResidualIBy_NtNtB7_7convert10InfallibleB1i_EE13from_residualBO_, symObjAddr: 0x138E0, symBinAddr: 0x5573C, symSize: 0x40 }
  - { offset: 0xBF03A, size: 0x8, addend: 0x0, symName: __RNvXsp_NtCsfvfooZQ3Axs_4core6resultINtB5_6ResultNtNtCs5AlOhPCr03V_3syn5token5RemEqNtNtBO_5error5ErrorEINtNtNtB7_3ops9try_trait12FromResidualIBy_NtNtB7_7convert10InfallibleB1i_EE13from_residualBO_, symObjAddr: 0x13920, symBinAddr: 0x5577C, symSize: 0x40 }
  - { offset: 0xBF0BF, size: 0x8, addend: 0x0, symName: __RNvXsp_NtCsfvfooZQ3Axs_4core6resultINtB5_6ResultNtNtCs5AlOhPCr03V_3syn5token5ShlEqNtNtBO_5error5ErrorEINtNtNtB7_3ops9try_trait12FromResidualIBy_NtNtB7_7convert10InfallibleB1i_EE13from_residualBO_, symObjAddr: 0x13960, symBinAddr: 0x557BC, symSize: 0x40 }
  - { offset: 0xBF144, size: 0x8, addend: 0x0, symName: __RNvXsp_NtCsfvfooZQ3Axs_4core6resultINtB5_6ResultNtNtCs5AlOhPCr03V_3syn5token5ShrEqNtNtBO_5error5ErrorEINtNtNtB7_3ops9try_trait12FromResidualIBy_NtNtB7_7convert10InfallibleB1i_EE13from_residualBO_, symObjAddr: 0x139A0, symBinAddr: 0x557FC, symSize: 0x40 }
  - { offset: 0xBF1C9, size: 0x8, addend: 0x0, symName: __RNvXsp_NtCsfvfooZQ3Axs_4core6resultINtB5_6ResultNtNtCs5AlOhPCr03V_3syn5token5SubEqNtNtBO_5error5ErrorEINtNtNtB7_3ops9try_trait12FromResidualIBy_NtNtB7_7convert10InfallibleB1i_EE13from_residualBO_, symObjAddr: 0x139E0, symBinAddr: 0x5583C, symSize: 0x40 }
  - { offset: 0xBF24E, size: 0x8, addend: 0x0, symName: __RNvXsp_NtCsfvfooZQ3Axs_4core6resultINtB5_6ResultNtNtCs5AlOhPCr03V_3syn5token5TildeNtNtBO_5error5ErrorEINtNtNtB7_3ops9try_trait12FromResidualIBy_NtNtB7_7convert10InfallibleB1i_EE13from_residualBO_, symObjAddr: 0x13A60, symBinAddr: 0x5587C, symSize: 0x40 }
  - { offset: 0xBF2D3, size: 0x8, addend: 0x0, symName: __RNvXsp_NtCsfvfooZQ3Axs_4core6resultINtB5_6ResultNtNtCs5AlOhPCr03V_3syn5token5TraitNtNtBO_5error5ErrorEINtNtNtB7_3ops9try_trait12FromResidualIBy_NtNtB7_7convert10InfallibleB1i_EE13from_residualBO_, symObjAddr: 0x13AA0, symBinAddr: 0x558BC, symSize: 0x40 }
  - { offset: 0xBF358, size: 0x8, addend: 0x0, symName: __RNvXsp_NtCsfvfooZQ3Axs_4core6resultINtB5_6ResultNtNtCs5AlOhPCr03V_3syn5token5UnionNtNtBO_5error5ErrorEINtNtNtB7_3ops9try_trait12FromResidualIBy_NtNtB7_7convert10InfallibleB1i_EE13from_residualBO_, symObjAddr: 0x13AE0, symBinAddr: 0x558FC, symSize: 0x40 }
  - { offset: 0xBF3DD, size: 0x8, addend: 0x0, symName: __RNvXsp_NtCsfvfooZQ3Axs_4core6resultINtB5_6ResultNtNtCs5AlOhPCr03V_3syn5token5WhereNtNtBO_5error5ErrorEINtNtNtB7_3ops9try_trait12FromResidualIBy_NtNtB7_7convert10InfallibleB1i_EE13from_residualBO_, symObjAddr: 0x13B20, symBinAddr: 0x5593C, symSize: 0x40 }
  - { offset: 0xBF462, size: 0x8, addend: 0x0, symName: __RNvXsp_NtCsfvfooZQ3Axs_4core6resultINtB5_6ResultNtNtCs5AlOhPCr03V_3syn5token5WhileNtNtBO_5error5ErrorEINtNtNtB7_3ops9try_trait12FromResidualIBy_NtNtB7_7convert10InfallibleB1i_EE13from_residualBO_, symObjAddr: 0x13B60, symBinAddr: 0x5597C, symSize: 0x40 }
  - { offset: 0xBF4E7, size: 0x8, addend: 0x0, symName: __RNvXsp_NtCsfvfooZQ3Axs_4core6resultINtB5_6ResultNtNtCs5AlOhPCr03V_3syn5token5YieldNtNtBO_5error5ErrorEINtNtNtB7_3ops9try_trait12FromResidualIBy_NtNtB7_7convert10InfallibleB1i_EE13from_residualBO_, symObjAddr: 0x13BA0, symBinAddr: 0x559BC, symSize: 0x40 }
  - { offset: 0xBF56C, size: 0x8, addend: 0x0, symName: __RNvXsp_NtCsfvfooZQ3Axs_4core6resultINtB5_6ResultNtNtCs5AlOhPCr03V_3syn5token6AndAndNtNtBO_5error5ErrorEINtNtNtB7_3ops9try_trait12FromResidualIBy_NtNtB7_7convert10InfallibleB1j_EE13from_residualBO_, symObjAddr: 0x13BE0, symBinAddr: 0x559FC, symSize: 0x40 }
  - { offset: 0xBF5F1, size: 0x8, addend: 0x0, symName: __RNvXsp_NtCsfvfooZQ3Axs_4core6resultINtB5_6ResultNtNtCs5AlOhPCr03V_3syn5token6Colon2NtNtBO_5error5ErrorEINtNtNtB7_3ops9try_trait12FromResidualIBy_NtNtB7_7convert10InfallibleB1j_EE13from_residualBO_, symObjAddr: 0x13C60, symBinAddr: 0x55A3C, symSize: 0x40 }
  - { offset: 0xBF676, size: 0x8, addend: 0x0, symName: __RNvXsp_NtCsfvfooZQ3Axs_4core6resultINtB5_6ResultNtNtCs5AlOhPCr03V_3syn5token6ExternNtNtBO_5error5ErrorEINtNtNtB7_3ops9try_trait12FromResidualIBy_NtNtB7_7convert10InfallibleB1j_EE13from_residualBO_, symObjAddr: 0x13CE0, symBinAddr: 0x55A7C, symSize: 0x40 }
  - { offset: 0xBF6FB, size: 0x8, addend: 0x0, symName: __RNvXsp_NtCsfvfooZQ3Axs_4core6resultINtB5_6ResultNtNtCs5AlOhPCr03V_3syn5token6RArrowNtNtBO_5error5ErrorEINtNtNtB7_3ops9try_trait12FromResidualIBy_NtNtB7_7convert10InfallibleB1j_EE13from_residualBO_, symObjAddr: 0x13D60, symBinAddr: 0x55ABC, symSize: 0x40 }
  - { offset: 0xBF780, size: 0x8, addend: 0x0, symName: __RNvXsp_NtCsfvfooZQ3Axs_4core6resultINtB5_6ResultNtNtCs5AlOhPCr03V_3syn5token6ReturnNtNtBO_5error5ErrorEINtNtNtB7_3ops9try_trait12FromResidualIBy_NtNtB7_7convert10InfallibleB1j_EE13from_residualBO_, symObjAddr: 0x13DA0, symBinAddr: 0x55AFC, symSize: 0x40 }
  - { offset: 0xBF805, size: 0x8, addend: 0x0, symName: __RNvXsp_NtCsfvfooZQ3Axs_4core6resultINtB5_6ResultNtNtCs5AlOhPCr03V_3syn5token6StaticNtNtBO_5error5ErrorEINtNtNtB7_3ops9try_trait12FromResidualIBy_NtNtB7_7convert10InfallibleB1j_EE13from_residualBO_, symObjAddr: 0x13DE0, symBinAddr: 0x55B3C, symSize: 0x40 }
  - { offset: 0xBF88A, size: 0x8, addend: 0x0, symName: __RNvXsp_NtCsfvfooZQ3Axs_4core6resultINtB5_6ResultNtNtCs5AlOhPCr03V_3syn5token6StructNtNtBO_5error5ErrorEINtNtNtB7_3ops9try_trait12FromResidualIBy_NtNtB7_7convert10InfallibleB1j_EE13from_residualBO_, symObjAddr: 0x13E20, symBinAddr: 0x55B7C, symSize: 0x40 }
  - { offset: 0xBF90F, size: 0x8, addend: 0x0, symName: __RNvXsp_NtCsfvfooZQ3Axs_4core6resultINtB5_6ResultNtNtCs5AlOhPCr03V_3syn5token6UnsafeNtNtBO_5error5ErrorEINtNtNtB7_3ops9try_trait12FromResidualIBy_NtNtB7_7convert10InfallibleB1j_EE13from_residualBO_, symObjAddr: 0x13EA0, symBinAddr: 0x55BBC, symSize: 0x40 }
  - { offset: 0xBF994, size: 0x8, addend: 0x0, symName: __RNvXsp_NtCsfvfooZQ3Axs_4core6resultINtB5_6ResultNtNtCs5AlOhPCr03V_3syn5token7CaretEqNtNtBO_5error5ErrorEINtNtNtB7_3ops9try_trait12FromResidualIBy_NtNtB7_7convert10InfallibleB1k_EE13from_residualBO_, symObjAddr: 0x13EE0, symBinAddr: 0x55BFC, symSize: 0x40 }
  - { offset: 0xBFA19, size: 0x8, addend: 0x0, symName: __RNvXsp_NtCsfvfooZQ3Axs_4core6resultINtB5_6ResultNtNtCs5AlOhPCr03V_3syn5token7DefaultNtNtBO_5error5ErrorEINtNtNtB7_3ops9try_trait12FromResidualIBy_NtNtB7_7convert10InfallibleB1k_EE13from_residualBO_, symObjAddr: 0x13F20, symBinAddr: 0x55C3C, symSize: 0x40 }
  - { offset: 0xBFA9E, size: 0x8, addend: 0x0, symName: __RNvXsp_NtCsfvfooZQ3Axs_4core6resultINtB5_6ResultNtNtCs5AlOhPCr03V_3syn5token8ContinueNtNtBO_5error5ErrorEINtNtNtB7_3ops9try_trait12FromResidualIBy_NtNtB7_7convert10InfallibleB1l_EE13from_residualBO_, symObjAddr: 0x14020, symBinAddr: 0x55C7C, symSize: 0x40 }
  - { offset: 0xBFB23, size: 0x8, addend: 0x0, symName: __RNvXsp_NtCsfvfooZQ3Axs_4core6resultINtB5_6ResultNtNtCs5AlOhPCr03V_3syn5token8DotDotEqNtNtBO_5error5ErrorEINtNtNtB7_3ops9try_trait12FromResidualIBy_NtNtB7_7convert10InfallibleB1l_EE13from_residualBO_, symObjAddr: 0x14060, symBinAddr: 0x55CBC, symSize: 0x40 }
  - { offset: 0xBFBA8, size: 0x8, addend: 0x0, symName: __RNvXsp_NtCsfvfooZQ3Axs_4core6resultINtB5_6ResultNtNtCs5AlOhPCr03V_3syn5token8FatArrowNtNtBO_5error5ErrorEINtNtNtB7_3ops9try_trait12FromResidualIBy_NtNtB7_7convert10InfallibleB1l_EE13from_residualBO_, symObjAddr: 0x140A0, symBinAddr: 0x55CFC, symSize: 0x40 }
  - { offset: 0xBFC2D, size: 0x8, addend: 0x0, symName: __RNvXsp_NtCsfvfooZQ3Axs_4core6resultINtB5_6ResultNtNtCs5AlOhPCr03V_3syn5token8QuestionNtNtBO_5error5ErrorEINtNtNtB7_3ops9try_trait12FromResidualIBy_NtNtB7_7convert10InfallibleB1l_EE13from_residualBO_, symObjAddr: 0x14120, symBinAddr: 0x55D3C, symSize: 0x40 }
  - { offset: 0xBFCB2, size: 0x8, addend: 0x0, symName: __RNvXsp_NtCsfvfooZQ3Axs_4core6resultINtB5_6ResultNtNtCs5AlOhPCr03V_3syn5token9SelfValueNtNtBO_5error5ErrorEINtNtNtB7_3ops9try_trait12FromResidualIBy_NtNtB7_7convert10InfallibleB1m_EE13from_residualBO_, symObjAddr: 0x141A0, symBinAddr: 0x55D7C, symSize: 0x40 }
  - { offset: 0xBFD37, size: 0x8, addend: 0x0, symName: __RNvXsp_NtCsfvfooZQ3Axs_4core6resultINtB5_6ResultNtNtCs5AlOhPCr03V_3syn8generics10ConstParamNtNtBO_5error5ErrorEINtNtNtB7_3ops9try_trait12FromResidualIBy_NtNtB7_7convert10InfallibleB1r_EE13from_residualBO_, symObjAddr: 0x14228, symBinAddr: 0x55DBC, symSize: 0x48 }
  - { offset: 0xBFDBC, size: 0x8, addend: 0x0, symName: __RNvXsp_NtCsfvfooZQ3Axs_4core6resultINtB5_6ResultNtNtCs5AlOhPCr03V_3syn8generics10TraitBoundNtNtBO_5error5ErrorEINtNtNtB7_3ops9try_trait12FromResidualIBy_NtNtB7_7convert10InfallibleB1r_EE13from_residualBO_, symObjAddr: 0x14270, symBinAddr: 0x55E04, symSize: 0x48 }
  - { offset: 0xBFE41, size: 0x8, addend: 0x0, symName: __RNvXsp_NtCsfvfooZQ3Axs_4core6resultINtB5_6ResultNtNtCs5AlOhPCr03V_3syn8generics11LifetimeDefNtNtBO_5error5ErrorEINtNtNtB7_3ops9try_trait12FromResidualIBy_NtNtB7_7convert10InfallibleB1s_EE13from_residualBO_, symObjAddr: 0x142B8, symBinAddr: 0x55E4C, symSize: 0x48 }
  - { offset: 0xBFEC6, size: 0x8, addend: 0x0, symName: __RNvXsp_NtCsfvfooZQ3Axs_4core6resultINtB5_6ResultNtNtCs5AlOhPCr03V_3syn8generics11WhereClauseNtNtBO_5error5ErrorEINtNtNtB7_3ops9try_trait12FromResidualIBy_NtNtB7_7convert10InfallibleB1s_EE13from_residualBO_, symObjAddr: 0x14300, symBinAddr: 0x55E94, symSize: 0x48 }
  - { offset: 0xBFF4B, size: 0x8, addend: 0x0, symName: __RNvXsp_NtCsfvfooZQ3Axs_4core6resultINtB5_6ResultNtNtCs5AlOhPCr03V_3syn8generics14BoundLifetimesNtNtBO_5error5ErrorEINtNtNtB7_3ops9try_trait12FromResidualIBy_NtNtB7_7convert10InfallibleB1v_EE13from_residualBO_, symObjAddr: 0x14394, symBinAddr: 0x55EDC, symSize: 0x48 }
  - { offset: 0xBFFD0, size: 0x8, addend: 0x0, symName: __RNvXsp_NtCsfvfooZQ3Axs_4core6resultINtB5_6ResultNtNtCs5AlOhPCr03V_3syn8generics14TypeParamBoundNtNtBO_5error5ErrorEINtNtNtB7_3ops9try_trait12FromResidualIBy_NtNtB7_7convert10InfallibleB1v_EE13from_residualBO_, symObjAddr: 0x143DC, symBinAddr: 0x55F24, symSize: 0x48 }
  - { offset: 0xC0055, size: 0x8, addend: 0x0, symName: __RNvXsp_NtCsfvfooZQ3Axs_4core6resultINtB5_6ResultNtNtCs5AlOhPCr03V_3syn8generics14WherePredicateNtNtBO_5error5ErrorEINtNtNtB7_3ops9try_trait12FromResidualIBy_NtNtB7_7convert10InfallibleB1v_EE13from_residualBO_, symObjAddr: 0x14424, symBinAddr: 0x55F6C, symSize: 0x4C }
  - { offset: 0xC00DA, size: 0x8, addend: 0x0, symName: __RNvXsp_NtCsfvfooZQ3Axs_4core6resultINtB5_6ResultNtNtCs5AlOhPCr03V_3syn8generics8GenericsNtNtBO_5error5ErrorEINtNtNtB7_3ops9try_trait12FromResidualIBy_NtNtB7_7convert10InfallibleB1o_EE13from_residualBO_, symObjAddr: 0x14470, symBinAddr: 0x55FB8, symSize: 0x48 }
  - { offset: 0xC015F, size: 0x8, addend: 0x0, symName: __RNvXsp_NtCsfvfooZQ3Axs_4core6resultINtB5_6ResultNtNtCs5AlOhPCr03V_3syn8generics9TypeParamNtNtBO_5error5ErrorEINtNtNtB7_3ops9try_trait12FromResidualIBy_NtNtB7_7convert10InfallibleB1p_EE13from_residualBO_, symObjAddr: 0x144B8, symBinAddr: 0x56000, symSize: 0x48 }
  - { offset: 0xC01E4, size: 0x8, addend: 0x0, symName: __RNvXsp_NtCsfvfooZQ3Axs_4core6resultINtB5_6ResultNtNtCs5AlOhPCr03V_3syn8lifetime8LifetimeNtNtBO_5error5ErrorEINtNtNtB7_3ops9try_trait12FromResidualIBy_NtNtB7_7convert10InfallibleB1o_EE13from_residualBO_, symObjAddr: 0x14500, symBinAddr: 0x56048, symSize: 0x48 }
  - { offset: 0xC0269, size: 0x8, addend: 0x0, symName: __RNvXsp_NtCsfvfooZQ3Axs_4core6resultINtB5_6ResultNtNtNtCs5AlOhPCr03V_3syn4expr7parsing3rawNtNtBQ_5error5ErrorEINtNtNtB7_3ops9try_trait12FromResidualIBy_NtNtB7_7convert10InfallibleB1p_EE13from_residualBQ_, symObjAddr: 0x14548, symBinAddr: 0x56090, symSize: 0x40 }
  - { offset: 0xC02EE, size: 0x8, addend: 0x0, symName: __RNvXsp_NtCsfvfooZQ3Axs_4core6resultINtB5_6ResultNtNtNtCs5AlOhPCr03V_3syn4item7parsing16FlexibleItemTypeNtNtBQ_5error5ErrorEINtNtNtB7_3ops9try_trait12FromResidualIBy_NtNtB7_7convert10InfallibleB1D_EE13from_residualBQ_, symObjAddr: 0x145C8, symBinAddr: 0x560D0, symSize: 0x48 }
  - { offset: 0xC0373, size: 0x8, addend: 0x0, symName: __RNvXsp_NtCsfvfooZQ3Axs_4core6resultINtB5_6ResultTINtNtB7_6option6OptionNtNtCs5AlOhPCr03V_3syn4path5QSelfENtB19_4PathENtNtB1b_5error5ErrorEINtNtNtB7_3ops9try_trait12FromResidualIBy_NtNtB7_7convert10InfallibleB1R_EE13from_residualB1b_, symObjAddr: 0x14610, symBinAddr: 0x56118, symSize: 0x48 }
  - { offset: 0xC03F8, size: 0x8, addend: 0x0, symName: __RNvXsp_NtCsfvfooZQ3Axs_4core6resultINtB5_6ResultTINtNtB7_6option6OptionNtNtCs5AlOhPCr03V_3syn8generics11WhereClauseENtNtB1b_4data11FieldsNamedENtNtB1b_5error5ErrorEINtNtNtB7_3ops9try_trait12FromResidualIBy_NtNtB7_7convert10InfallibleB2h_EE13from_residualB1b_, symObjAddr: 0x14658, symBinAddr: 0x56160, symSize: 0x48 }
  - { offset: 0xC047D, size: 0x8, addend: 0x0, symName: __RNvXsp_NtCsfvfooZQ3Axs_4core6resultINtB5_6ResultTINtNtB7_6option6OptionNtNtCs5AlOhPCr03V_3syn8generics11WhereClauseENtNtB1b_4data6FieldsIBM_NtNtB1b_5token4SemiEENtNtB1b_5error5ErrorEINtNtNtB7_3ops9try_trait12FromResidualIBy_NtNtB7_7convert10InfallibleB2z_EE13from_residualB1b_, symObjAddr: 0x146A0, symBinAddr: 0x561A8, symSize: 0x48 }
  - { offset: 0xC0502, size: 0x8, addend: 0x0, symName: __RNvXsp_NtCsfvfooZQ3Axs_4core6resultINtB5_6ResultTINtNtB7_6option6OptionNtNtCs5AlOhPCr03V_3syn8generics11WhereClauseENtNtB1b_5token5BraceINtNtB1b_10punctuated10PunctuatedNtNtB1b_4data7VariantNtB1S_5CommaEENtNtB1b_5error5ErrorEINtNtNtB7_3ops9try_trait12FromResidualIBy_NtNtB7_7convert10InfallibleB3g_EE13from_residualB1b_, symObjAddr: 0x146E8, symBinAddr: 0x561F0, symSize: 0x48 }
  - { offset: 0xC0587, size: 0x8, addend: 0x0, symName: __RNvXsp_NtCsfvfooZQ3Axs_4core6resultINtB5_6ResultTINtNtCse1nGBsou5OW_5alloc3vec3VecNtNtCs5AlOhPCr03V_3syn4attr9AttributeENtNtB1m_4data10VisibilityNtNtB1m_5token5TraitNtCs3cP53eQoTwO_11proc_macro25IdentNtNtB1m_8generics8GenericsENtNtB1m_5error5ErrorEINtNtNtB7_3ops9try_trait12FromResidualIBy_NtNtB7_7convert10InfallibleB3D_EE13from_residualB1m_, symObjAddr: 0x14730, symBinAddr: 0x56238, symSize: 0x48 }
  - { offset: 0xC060C, size: 0x8, addend: 0x0, symName: __RNvXsp_NtCsfvfooZQ3Axs_4core6resultINtB5_6ResultTNtCs3cP53eQoTwO_11proc_macro24SpanNtNtCs5AlOhPCr03V_3syn5parse11ParseBufferENtNtB1n_5error5ErrorEINtNtNtB7_3ops9try_trait12FromResidualIBy_NtNtB7_7convert10InfallibleB1Z_EE13from_residualB1n_, symObjAddr: 0x14778, symBinAddr: 0x56280, symSize: 0x48 }
  - { offset: 0xC0691, size: 0x8, addend: 0x0, symName: __RNvXsp_NtCsfvfooZQ3Axs_4core6resultINtB5_6ResultTNtNtCs5AlOhPCr03V_3syn3mac14MacroDelimiterNtCs3cP53eQoTwO_11proc_macro211TokenStreamENtNtBP_5error5ErrorEINtNtNtB7_3ops9try_trait12FromResidualIBy_NtNtB7_7convert10InfallibleB28_EE13from_residualBP_, symObjAddr: 0x147C0, symBinAddr: 0x562C8, symSize: 0x48 }
  - { offset: 0xC0716, size: 0x8, addend: 0x0, symName: __RNvXsp_NtCsfvfooZQ3Axs_4core6resultINtB5_6ResultTNtNtCs5AlOhPCr03V_3syn5token4ElseINtNtCse1nGBsou5OW_5alloc5boxed3BoxNtNtBP_4expr4ExprEENtNtBP_5error5ErrorEINtNtNtB7_3ops9try_trait12FromResidualIBy_NtNtB7_7convert10InfallibleB2a_EE13from_residualBP_, symObjAddr: 0x14808, symBinAddr: 0x56310, symSize: 0x40 }
  - { offset: 0xC079B, size: 0x8, addend: 0x0, symName: __RNvXsp_NtCsfvfooZQ3Axs_4core6resultINtB5_6ResultbNtNtCs5AlOhPCr03V_3syn5error5ErrorEINtNtNtB7_3ops9try_trait12FromResidualIBy_NtNtB7_7convert10InfallibleBL_EE13from_residualBP_, symObjAddr: 0x14848, symBinAddr: 0x56350, symSize: 0x40 }
  - { offset: 0xC0820, size: 0x8, addend: 0x0, symName: __RNvXsp_NtCsfvfooZQ3Axs_4core6resultINtB5_6ResultuNtNtCs5AlOhPCr03V_3syn5error5ErrorEINtNtNtB7_3ops9try_trait12FromResidualIBy_NtNtB7_7convert10InfallibleBL_EE13from_residualBP_, symObjAddr: 0x14888, symBinAddr: 0x56390, symSize: 0x40 }
  - { offset: 0xC5A15, size: 0x8, addend: 0x0, symName: __RINvYNtNtCs3cP53eQoTwO_11proc_macro212token_stream8IntoIterNtNtNtNtCsfvfooZQ3Axs_4core4iter6traits8iterator8Iterator4foldINtNtB13_6option6OptionNtB7_9TokenTreeEINvNvBV_4last4someB2i_EECs5AlOhPCr03V_3syn, symObjAddr: 0x56C0, symBinAddr: 0x48A04, symSize: 0x18C }
  - { offset: 0xC5AAB, size: 0x8, addend: 0x0, symName: __RNvYNtNtCs3cP53eQoTwO_11proc_macro212token_stream8IntoIterNtNtNtNtCsfvfooZQ3Axs_4core4iter6traits8iterator8Iterator4lastCs5AlOhPCr03V_3syn, symObjAddr: 0x149BC, symBinAddr: 0x5643C, symSize: 0x28 }
  - { offset: 0xC5AE1, size: 0x8, addend: 0x0, symName: __RNvYNtNtCs3cP53eQoTwO_11proc_macro212token_stream8IntoIterNtNtNtNtCsfvfooZQ3Axs_4core4iter6traits8iterator8Iterator8peekableCs5AlOhPCr03V_3syn, symObjAddr: 0x149E4, symBinAddr: 0x56464, symSize: 0x4C }
  - { offset: 0xC5E6A, size: 0x8, addend: 0x0, symName: __RNvNvMNtNtCsfvfooZQ3Axs_4core5alloc6layoutNtB4_6Layout25from_size_align_unchecked18precondition_checkCs5AlOhPCr03V_3syn, symObjAddr: 0x681C, symBinAddr: 0x49854, symSize: 0x50 }
  - { offset: 0xD2A97, size: 0x8, addend: 0x0, symName: __RNvXNtCs5AlOhPCr03V_3syn8reservedNtB2_8ReservedNtNtCsfvfooZQ3Axs_4core7default7Default7default, symObjAddr: 0x15618, symBinAddr: 0x56530, symSize: 0x14 }
  - { offset: 0xD2D9C, size: 0x8, addend: 0x0, symName: __RINvCs5AlOhPCr03V_3syn6parse2NtNtB2_5token4Dot3EB2_, symObjAddr: 0x156AC, symBinAddr: 0x56544, symSize: 0x24 }
  - { offset: 0xD2DD4, size: 0x8, addend: 0x0, symName: __RINvCs5AlOhPCr03V_3syn9parse_strNtNtB2_4expr5IndexEB2_, symObjAddr: 0x156D0, symBinAddr: 0x56568, symSize: 0x38 }
  - { offset: 0xD33ED, size: 0x8, addend: 0x0, symName: __RINvMNtCsfvfooZQ3Axs_4core6resultINtB3_6ResultNtCs3cP53eQoTwO_11proc_macro211TokenStreamNtNtCs5AlOhPCr03V_3syn5error5ErrorE3mapNtNtB1s_3pat3PatNcNtB21_8Verbatim0EB1s_, symObjAddr: 0x270, symBinAddr: 0x43944, symSize: 0xC8 }
  - { offset: 0xD3498, size: 0x8, addend: 0x0, symName: __RINvMNtCsfvfooZQ3Axs_4core6resultINtB3_6ResultNtCs3cP53eQoTwO_11proc_macro211TokenStreamNtNtCs5AlOhPCr03V_3syn5error5ErrorE3mapNtNtB1s_4expr4ExprNcNtB21_8Verbatim0EB1s_, symObjAddr: 0x338, symBinAddr: 0x43A0C, symSize: 0xC8 }
  - { offset: 0xD3543, size: 0x8, addend: 0x0, symName: __RINvMNtCsfvfooZQ3Axs_4core6resultINtB3_6ResultNtCs3cP53eQoTwO_11proc_macro25IdentNtNtCs5AlOhPCr03V_3syn5error5ErrorE3mapNtNtB1l_4expr6MemberNcNtB1U_5Named0EB1l_, symObjAddr: 0x400, symBinAddr: 0x43AD4, symSize: 0xAC }
  - { offset: 0xD35EE, size: 0x8, addend: 0x0, symName: __RINvMNtCsfvfooZQ3Axs_4core6resultINtB3_6ResultNtNtCs5AlOhPCr03V_3syn2ty13TypeImplTraitNtNtBM_5error5ErrorE3mapNtBK_4TypeNcNtB1K_9ImplTrait0EBM_, symObjAddr: 0x4AC, symBinAddr: 0x43B80, symSize: 0xE0 }
  - { offset: 0xD3699, size: 0x8, addend: 0x0, symName: __RINvMNtCsfvfooZQ3Axs_4core6resultINtB3_6ResultNtNtCs5AlOhPCr03V_3syn2ty13TypeReferenceNtNtBM_5error5ErrorE3mapNtBK_4TypeNcNtB1K_9Reference0EBM_, symObjAddr: 0x58C, symBinAddr: 0x43C60, symSize: 0xDC }
  - { offset: 0xD3744, size: 0x8, addend: 0x0, symName: __RINvMNtCsfvfooZQ3Axs_4core6resultINtB3_6ResultNtNtCs5AlOhPCr03V_3syn2ty15TypeTraitObjectNtNtBM_5error5ErrorE3mapNtBK_4TypeNcNtB1M_11TraitObject0EBM_, symObjAddr: 0x668, symBinAddr: 0x43D3C, symSize: 0xE0 }
  - { offset: 0xD37EF, size: 0x8, addend: 0x0, symName: __RINvMNtCsfvfooZQ3Axs_4core6resultINtB3_6ResultNtNtCs5AlOhPCr03V_3syn2ty3AbiNtNtBM_5error5ErrorE3mapINtNtB5_6option6OptionBI_ENcNtB1z_4Some0EBM_, symObjAddr: 0x748, symBinAddr: 0x43E1C, symSize: 0xA4 }
  - { offset: 0xD389A, size: 0x8, addend: 0x0, symName: __RINvMNtCsfvfooZQ3Axs_4core6resultINtB3_6ResultNtNtCs5AlOhPCr03V_3syn2ty4TypeNtNtBM_5error5ErrorE3mapINtNtCse1nGBsou5OW_5alloc5boxed3BoxBI_ENvMB1D_B1A_3newEBM_, symObjAddr: 0x7EC, symBinAddr: 0x43EC0, symSize: 0xC0 }
  - { offset: 0xD3945, size: 0x8, addend: 0x0, symName: __RINvMNtCsfvfooZQ3Axs_4core6resultINtB3_6ResultNtNtCs5AlOhPCr03V_3syn2ty4TypeNtNtBM_5error5ErrorE3mapNtNtBM_4expr21GenericMethodArgumentNcNtB1A_4Type0EBM_, symObjAddr: 0x8AC, symBinAddr: 0x43F80, symSize: 0xE0 }
  - { offset: 0xD39F0, size: 0x8, addend: 0x0, symName: __RINvMNtCsfvfooZQ3Axs_4core6resultINtB3_6ResultNtNtCs5AlOhPCr03V_3syn2ty7TypePtrNtNtBM_5error5ErrorE3mapNtBK_4TypeNcNtB1D_3Ptr0EBM_, symObjAddr: 0x98C, symBinAddr: 0x44060, symSize: 0xC4 }
  - { offset: 0xD3A9B, size: 0x8, addend: 0x0, symName: __RINvMNtCsfvfooZQ3Axs_4core6resultINtB3_6ResultNtNtCs5AlOhPCr03V_3syn2ty9TypeInferNtNtBM_5error5ErrorE3mapNtBK_4TypeNcNtB1F_5Infer0EBM_, symObjAddr: 0xA50, symBinAddr: 0x44124, symSize: 0xC8 }
  - { offset: 0xD3B46, size: 0x8, addend: 0x0, symName: __RINvMNtCsfvfooZQ3Axs_4core6resultINtB3_6ResultNtNtCs5AlOhPCr03V_3syn2ty9TypeNeverNtNtBM_5error5ErrorE3mapNtBK_4TypeNcNtB1F_5Never0EBM_, symObjAddr: 0xB18, symBinAddr: 0x441EC, symSize: 0xC8 }
  - { offset: 0xD3C34, size: 0x8, addend: 0x0, symName: __RINvMNtCsfvfooZQ3Axs_4core6resultINtB3_6ResultNtNtCs5AlOhPCr03V_3syn3pat12PatReferenceNtNtBM_5error5ErrorE3mapNtBK_3PatNcNtB1K_9Reference0EBM_, symObjAddr: 0xC90, symBinAddr: 0x442B4, symSize: 0xE0 }
  - { offset: 0xD3CDF, size: 0x8, addend: 0x0, symName: __RINvMNtCsfvfooZQ3Axs_4core6resultINtB3_6ResultNtNtCs5AlOhPCr03V_3syn3pat3PatNtNtBM_5error5ErrorE3mapINtNtCse1nGBsou5OW_5alloc5boxed3BoxBI_ENvMB1D_B1A_3newEBM_, symObjAddr: 0xD70, symBinAddr: 0x44394, symSize: 0xC0 }
  - { offset: 0xD3D8A, size: 0x8, addend: 0x0, symName: __RINvMNtCsfvfooZQ3Axs_4core6resultINtB3_6ResultNtNtCs5AlOhPCr03V_3syn3pat6PatBoxNtNtBM_5error5ErrorE3mapNtBK_3PatNcNtB1D_3Box0EBM_, symObjAddr: 0xE30, symBinAddr: 0x44454, symSize: 0xE0 }
  - { offset: 0xD3E35, size: 0x8, addend: 0x0, symName: __RINvMNtCsfvfooZQ3Axs_4core6resultINtB3_6ResultNtNtCs5AlOhPCr03V_3syn3pat7PatWildNtNtBM_5error5ErrorE3mapNtBK_3PatNcNtB1E_4Wild0EBM_, symObjAddr: 0xF10, symBinAddr: 0x44534, symSize: 0xC8 }
  - { offset: 0xD3EE0, size: 0x8, addend: 0x0, symName: __RINvMNtCsfvfooZQ3Axs_4core6resultINtB3_6ResultNtNtCs5AlOhPCr03V_3syn3pat8PatIdentNtNtBM_5error5ErrorE3mapNtBK_3PatNcNtB1F_5Ident0EBM_, symObjAddr: 0xFD8, symBinAddr: 0x445FC, symSize: 0xE0 }
  - { offset: 0xD3F8B, size: 0x8, addend: 0x0, symName: __RINvMNtCsfvfooZQ3Axs_4core6resultINtB3_6ResultNtNtCs5AlOhPCr03V_3syn3pat8PatSliceNtNtBM_5error5ErrorE3mapNtBK_3PatNcNtB1F_5Slice0EBM_, symObjAddr: 0x10B8, symBinAddr: 0x446DC, symSize: 0xE0 }
  - { offset: 0xD4036, size: 0x8, addend: 0x0, symName: __RINvMNtCsfvfooZQ3Axs_4core6resultINtB3_6ResultNtNtCs5AlOhPCr03V_3syn3pat8PatTupleNtNtBM_5error5ErrorE3mapNtBK_3PatNcNtB1F_5Tuple0EBM_, symObjAddr: 0x1198, symBinAddr: 0x447BC, symSize: 0xE0 }
  - { offset: 0xD40E1, size: 0x8, addend: 0x0, symName: __RINvMNtCsfvfooZQ3Axs_4core6resultINtB3_6ResultNtNtCs5AlOhPCr03V_3syn4expr10ExprReturnNtNtBM_5error5ErrorE3mapNtBK_4ExprNcNtB1J_6Return0EBM_, symObjAddr: 0x1508, symBinAddr: 0x4489C, symSize: 0xE0 }
  - { offset: 0xD418C, size: 0x8, addend: 0x0, symName: __RINvMNtCsfvfooZQ3Axs_4core6resultINtB3_6ResultNtNtCs5AlOhPCr03V_3syn4expr10ExprUnsafeNtNtBM_5error5ErrorE3mapNtBK_4ExprNcNtB1J_6Unsafe0EBM_, symObjAddr: 0x15E8, symBinAddr: 0x4497C, symSize: 0xE0 }
  - { offset: 0xD4237, size: 0x8, addend: 0x0, symName: __RINvMNtCsfvfooZQ3Axs_4core6resultINtB3_6ResultNtNtCs5AlOhPCr03V_3syn4expr11ExprClosureNtNtBM_5error5ErrorE3mapNtBK_4ExprNcNtB1K_7Closure0EBM_, symObjAddr: 0x16C8, symBinAddr: 0x44A5C, symSize: 0xE0 }
  - { offset: 0xD42E2, size: 0x8, addend: 0x0, symName: __RINvMNtCsfvfooZQ3Axs_4core6resultINtB3_6ResultNtNtCs5AlOhPCr03V_3syn4expr11ExprForLoopNtNtBM_5error5ErrorE3mapNtBK_4ExprNcNtB1K_7ForLoop0EBM_, symObjAddr: 0x17A8, symBinAddr: 0x44B3C, symSize: 0xDC }
  - { offset: 0xD438D, size: 0x8, addend: 0x0, symName: __RINvMNtCsfvfooZQ3Axs_4core6resultINtB3_6ResultNtNtCs5AlOhPCr03V_3syn4expr12ExprContinueNtNtBM_5error5ErrorE3mapNtBK_4ExprNcNtB1L_8Continue0EBM_, symObjAddr: 0x1884, symBinAddr: 0x44C18, symSize: 0xE0 }
  - { offset: 0xD4438, size: 0x8, addend: 0x0, symName: __RINvMNtCsfvfooZQ3Axs_4core6resultINtB3_6ResultNtNtCs5AlOhPCr03V_3syn4expr12ExprTryBlockNtNtBM_5error5ErrorE3mapNtBK_4ExprNcNtB1L_8TryBlock0EBM_, symObjAddr: 0x1964, symBinAddr: 0x44CF8, symSize: 0xE0 }
  - { offset: 0xD44E3, size: 0x8, addend: 0x0, symName: __RINvMNtCsfvfooZQ3Axs_4core6resultINtB3_6ResultNtNtCs5AlOhPCr03V_3syn4expr4ExprNtNtBM_5error5ErrorE3mapINtNtCse1nGBsou5OW_5alloc5boxed3BoxBI_ENvMB1F_B1C_3newEBM_, symObjAddr: 0x1A44, symBinAddr: 0x44DD8, symSize: 0xC0 }
  - { offset: 0xD458E, size: 0x8, addend: 0x0, symName: __RINvMNtCsfvfooZQ3Axs_4core6resultINtB3_6ResultNtNtCs5AlOhPCr03V_3syn4expr4ExprNtNtBM_5error5ErrorE3mapNtNtBM_4path15GenericArgumentNcNtB1C_5Const0EBM_, symObjAddr: 0x1B04, symBinAddr: 0x44E98, symSize: 0xE4 }
  - { offset: 0xD4639, size: 0x8, addend: 0x0, symName: __RINvMNtCsfvfooZQ3Axs_4core6resultINtB3_6ResultNtNtCs5AlOhPCr03V_3syn4expr5IndexNtNtBM_5error5ErrorE3mapNtBK_6MemberNcNtB1D_7Unnamed0EBM_, symObjAddr: 0x1BE8, symBinAddr: 0x44F7C, symSize: 0xA4 }
  - { offset: 0xD46D9, size: 0x8, addend: 0x0, symName: __RINvMNtCsfvfooZQ3Axs_4core6resultINtB3_6ResultNtNtCs5AlOhPCr03V_3syn4expr5IndexNtNtBM_5error5ErrorE7map_errB1f_NCNvNtBK_7parsing11multi_index0EBM_, symObjAddr: 0x1C8C, symBinAddr: 0x45020, symSize: 0xB8 }
  - { offset: 0xD4784, size: 0x8, addend: 0x0, symName: __RINvMNtCsfvfooZQ3Axs_4core6resultINtB3_6ResultNtNtCs5AlOhPCr03V_3syn4expr5LabelNtNtBM_5error5ErrorE3mapINtNtB5_6option6OptionBI_ENcNtB1D_4Some0EBM_, symObjAddr: 0x1D44, symBinAddr: 0x450D8, symSize: 0xC4 }
  - { offset: 0xD482F, size: 0x8, addend: 0x0, symName: __RINvMNtCsfvfooZQ3Axs_4core6resultINtB3_6ResultNtNtCs5AlOhPCr03V_3syn4expr6ExprIfNtNtBM_5error5ErrorE3mapNtBK_4ExprNcNtB1E_2If0EBM_, symObjAddr: 0x1E08, symBinAddr: 0x4519C, symSize: 0xE0 }
  - { offset: 0xD48DA, size: 0x8, addend: 0x0, symName: __RINvMNtCsfvfooZQ3Axs_4core6resultINtB3_6ResultNtNtCs5AlOhPCr03V_3syn4expr7ExprBoxNtNtBM_5error5ErrorE3mapNtBK_4ExprNcNtB1F_3Box0EBM_, symObjAddr: 0x1EE8, symBinAddr: 0x4527C, symSize: 0xE0 }
  - { offset: 0xD4985, size: 0x8, addend: 0x0, symName: __RINvMNtCsfvfooZQ3Axs_4core6resultINtB3_6ResultNtNtCs5AlOhPCr03V_3syn4expr7ExprLetNtNtBM_5error5ErrorE3mapNtBK_4ExprNcNtB1F_3Let0EBM_, symObjAddr: 0x1FC8, symBinAddr: 0x4535C, symSize: 0xE0 }
  - { offset: 0xD4A30, size: 0x8, addend: 0x0, symName: __RINvMNtCsfvfooZQ3Axs_4core6resultINtB3_6ResultNtNtCs5AlOhPCr03V_3syn4expr7ExprLitNtNtBM_5error5ErrorE3mapNtBK_4ExprNcNtB1F_3Lit0EBM_, symObjAddr: 0x20A8, symBinAddr: 0x4543C, symSize: 0xE0 }
  - { offset: 0xD4ADB, size: 0x8, addend: 0x0, symName: __RINvMNtCsfvfooZQ3Axs_4core6resultINtB3_6ResultNtNtCs5AlOhPCr03V_3syn4expr8ExprLoopNtNtBM_5error5ErrorE3mapNtBK_4ExprNcNtB1G_4Loop0EBM_, symObjAddr: 0x2188, symBinAddr: 0x4551C, symSize: 0xE0 }
  - { offset: 0xD4B86, size: 0x8, addend: 0x0, symName: __RINvMNtCsfvfooZQ3Axs_4core6resultINtB3_6ResultNtNtCs5AlOhPCr03V_3syn4expr9ExprAsyncNtNtBM_5error5ErrorE3mapNtBK_4ExprNcNtB1H_5Async0EBM_, symObjAddr: 0x2268, symBinAddr: 0x455FC, symSize: 0xE0 }
  - { offset: 0xD4C31, size: 0x8, addend: 0x0, symName: __RINvMNtCsfvfooZQ3Axs_4core6resultINtB3_6ResultNtNtCs5AlOhPCr03V_3syn4expr9ExprBlockNtNtBM_5error5ErrorE3mapNtBK_4ExprNcNtB1H_5Block0EBM_, symObjAddr: 0x2348, symBinAddr: 0x456DC, symSize: 0xE0 }
  - { offset: 0xD4CDC, size: 0x8, addend: 0x0, symName: __RINvMNtCsfvfooZQ3Axs_4core6resultINtB3_6ResultNtNtCs5AlOhPCr03V_3syn4expr9ExprBreakNtNtBM_5error5ErrorE3mapNtBK_4ExprNcNtB1H_5Break0EBM_, symObjAddr: 0x2428, symBinAddr: 0x457BC, symSize: 0xE0 }
  - { offset: 0xD4D87, size: 0x8, addend: 0x0, symName: __RINvMNtCsfvfooZQ3Axs_4core6resultINtB3_6ResultNtNtCs5AlOhPCr03V_3syn4expr9ExprGroupNtNtBM_5error5ErrorE3mapNtBK_4ExprNcNtB1H_5Group0EBM_, symObjAddr: 0x2508, symBinAddr: 0x4589C, symSize: 0xE0 }
  - { offset: 0xD4E32, size: 0x8, addend: 0x0, symName: __RINvMNtCsfvfooZQ3Axs_4core6resultINtB3_6ResultNtNtCs5AlOhPCr03V_3syn4expr9ExprMatchNtNtBM_5error5ErrorE3mapNtBK_4ExprNcNtB1H_5Match0EBM_, symObjAddr: 0x25E8, symBinAddr: 0x4597C, symSize: 0xE0 }
  - { offset: 0xD4EDD, size: 0x8, addend: 0x0, symName: __RINvMNtCsfvfooZQ3Axs_4core6resultINtB3_6ResultNtNtCs5AlOhPCr03V_3syn4expr9ExprRangeNtNtBM_5error5ErrorE3mapNtBK_4ExprNcNtB1H_5Range0EBM_, symObjAddr: 0x26C8, symBinAddr: 0x45A5C, symSize: 0xE0 }
  - { offset: 0xD4F88, size: 0x8, addend: 0x0, symName: __RINvMNtCsfvfooZQ3Axs_4core6resultINtB3_6ResultNtNtCs5AlOhPCr03V_3syn4expr9ExprUnaryNtNtBM_5error5ErrorE3mapNtBK_4ExprNcNtB1H_5Unary0EBM_, symObjAddr: 0x27A8, symBinAddr: 0x45B3C, symSize: 0xE0 }
  - { offset: 0xD5033, size: 0x8, addend: 0x0, symName: __RINvMNtCsfvfooZQ3Axs_4core6resultINtB3_6ResultNtNtCs5AlOhPCr03V_3syn4expr9ExprWhileNtNtBM_5error5ErrorE3mapNtBK_4ExprNcNtB1H_5While0EBM_, symObjAddr: 0x2888, symBinAddr: 0x45C1C, symSize: 0xE0 }
  - { offset: 0xD50DE, size: 0x8, addend: 0x0, symName: __RINvMNtCsfvfooZQ3Axs_4core6resultINtB3_6ResultNtNtCs5AlOhPCr03V_3syn4expr9ExprYieldNtNtBM_5error5ErrorE3mapNtBK_4ExprNcNtB1H_5Yield0EBM_, symObjAddr: 0x2968, symBinAddr: 0x45CFC, symSize: 0xE0 }
  - { offset: 0xD5189, size: 0x8, addend: 0x0, symName: __RINvMNtCsfvfooZQ3Axs_4core6resultINtB3_6ResultNtNtCs5AlOhPCr03V_3syn4item10ItemMacro2NtNtBM_5error5ErrorE3mapNtBK_4ItemNcNtB1J_6Macro20EBM_, symObjAddr: 0x2A48, symBinAddr: 0x45DDC, symSize: 0xDC }
  - { offset: 0xD5234, size: 0x8, addend: 0x0, symName: __RINvMNtCsfvfooZQ3Axs_4core6resultINtB3_6ResultNtNtCs5AlOhPCr03V_3syn4item10ItemStructNtNtBM_5error5ErrorE3mapNtBK_4ItemNcNtB1J_6Struct0EBM_, symObjAddr: 0x2B24, symBinAddr: 0x45EB8, symSize: 0xD8 }
  - { offset: 0xD52DF, size: 0x8, addend: 0x0, symName: __RINvMNtCsfvfooZQ3Axs_4core6resultINtB3_6ResultNtNtCs5AlOhPCr03V_3syn4item13ImplItemMacroNtNtBM_5error5ErrorE3mapNtBK_8ImplItemNcNtB1M_5Macro0EBM_, symObjAddr: 0x2BFC, symBinAddr: 0x45F90, symSize: 0xD4 }
  - { offset: 0xD538A, size: 0x8, addend: 0x0, symName: __RINvMNtCsfvfooZQ3Axs_4core6resultINtB3_6ResultNtNtCs5AlOhPCr03V_3syn4item14ImplItemMethodNtNtBM_5error5ErrorE3mapNtBK_8ImplItemNcNtB1N_6Method0EBM_, symObjAddr: 0x2CD0, symBinAddr: 0x46064, symSize: 0xD4 }
  - { offset: 0xD5435, size: 0x8, addend: 0x0, symName: __RINvMNtCsfvfooZQ3Axs_4core6resultINtB3_6ResultNtNtCs5AlOhPCr03V_3syn4item14ItemForeignModNtNtBM_5error5ErrorE3mapNtBK_4ItemNcNtB1N_10ForeignMod0EBM_, symObjAddr: 0x2DA4, symBinAddr: 0x46138, symSize: 0xDC }
  - { offset: 0xD54E0, size: 0x8, addend: 0x0, symName: __RINvMNtCsfvfooZQ3Axs_4core6resultINtB3_6ResultNtNtCs5AlOhPCr03V_3syn4item14ItemTraitAliasNtNtBM_5error5ErrorE3mapNtBK_4ItemNcNtB1N_10TraitAlias0EBM_, symObjAddr: 0x2E80, symBinAddr: 0x46214, symSize: 0xDC }
  - { offset: 0xD558B, size: 0x8, addend: 0x0, symName: __RINvMNtCsfvfooZQ3Axs_4core6resultINtB3_6ResultNtNtCs5AlOhPCr03V_3syn4item14TraitItemConstNtNtBM_5error5ErrorE3mapNtBK_9TraitItemNcNtB1N_5Const0EBM_, symObjAddr: 0x2F5C, symBinAddr: 0x462F0, symSize: 0xE0 }
  - { offset: 0xD5636, size: 0x8, addend: 0x0, symName: __RINvMNtCsfvfooZQ3Axs_4core6resultINtB3_6ResultNtNtCs5AlOhPCr03V_3syn4item14TraitItemMacroNtNtBM_5error5ErrorE3mapNtBK_9TraitItemNcNtB1N_5Macro0EBM_, symObjAddr: 0x303C, symBinAddr: 0x463D0, symSize: 0xE0 }
  - { offset: 0xD56E1, size: 0x8, addend: 0x0, symName: __RINvMNtCsfvfooZQ3Axs_4core6resultINtB3_6ResultNtNtCs5AlOhPCr03V_3syn4item15ItemExternCrateNtNtBM_5error5ErrorE3mapNtBK_4ItemNcNtB1O_11ExternCrate0EBM_, symObjAddr: 0x311C, symBinAddr: 0x464B0, symSize: 0xDC }
  - { offset: 0xD578C, size: 0x8, addend: 0x0, symName: __RINvMNtCsfvfooZQ3Axs_4core6resultINtB3_6ResultNtNtCs5AlOhPCr03V_3syn4item15TraitItemMethodNtNtBM_5error5ErrorE3mapNtBK_9TraitItemNcNtB1O_6Method0EBM_, symObjAddr: 0x31F8, symBinAddr: 0x4658C, symSize: 0xE0 }
  - { offset: 0xD5837, size: 0x8, addend: 0x0, symName: __RINvMNtCsfvfooZQ3Axs_4core6resultINtB3_6ResultNtNtCs5AlOhPCr03V_3syn4item16ForeignItemMacroNtNtBM_5error5ErrorE3mapNtBK_11ForeignItemNcNtB1P_5Macro0EBM_, symObjAddr: 0x32D8, symBinAddr: 0x4666C, symSize: 0xDC }
  - { offset: 0xD58E2, size: 0x8, addend: 0x0, symName: __RINvMNtCsfvfooZQ3Axs_4core6resultINtB3_6ResultNtNtCs5AlOhPCr03V_3syn4item6ItemFnNtNtBM_5error5ErrorE3mapNtBK_4ItemNcNtB1E_2Fn0EBM_, symObjAddr: 0x33B4, symBinAddr: 0x46748, symSize: 0xD4 }
  - { offset: 0xD598D, size: 0x8, addend: 0x0, symName: __RINvMNtCsfvfooZQ3Axs_4core6resultINtB3_6ResultNtNtCs5AlOhPCr03V_3syn4item7ItemModNtNtBM_5error5ErrorE3mapNtBK_4ItemNcNtB1F_3Mod0EBM_, symObjAddr: 0x3488, symBinAddr: 0x4681C, symSize: 0xDC }
  - { offset: 0xD5A38, size: 0x8, addend: 0x0, symName: __RINvMNtCsfvfooZQ3Axs_4core6resultINtB3_6ResultNtNtCs5AlOhPCr03V_3syn4item7ItemUseNtNtBM_5error5ErrorE3mapNtBK_4ItemNcNtB1F_3Use0EBM_, symObjAddr: 0x3564, symBinAddr: 0x468F8, symSize: 0xDC }
  - { offset: 0xD5AE3, size: 0x8, addend: 0x0, symName: __RINvMNtCsfvfooZQ3Axs_4core6resultINtB3_6ResultNtNtCs5AlOhPCr03V_3syn4item8ItemEnumNtNtBM_5error5ErrorE3mapNtBK_4ItemNcNtB1G_4Enum0EBM_, symObjAddr: 0x3640, symBinAddr: 0x469D4, symSize: 0xDC }
  - { offset: 0xD5B8E, size: 0x8, addend: 0x0, symName: __RINvMNtCsfvfooZQ3Axs_4core6resultINtB3_6ResultNtNtCs5AlOhPCr03V_3syn4item9ItemMacroNtNtBM_5error5ErrorE3mapNtBK_4ItemNcNtB1H_5Macro0EBM_, symObjAddr: 0x371C, symBinAddr: 0x46AB0, symSize: 0xDC }
  - { offset: 0xD5C39, size: 0x8, addend: 0x0, symName: __RINvMNtCsfvfooZQ3Axs_4core6resultINtB3_6ResultNtNtCs5AlOhPCr03V_3syn4item9ItemTraitNtNtBM_5error5ErrorE3mapNtBK_4ItemNcNtB1H_5Trait0EBM_, symObjAddr: 0x37F8, symBinAddr: 0x46B8C, symSize: 0xDC }
  - { offset: 0xD5CE4, size: 0x8, addend: 0x0, symName: __RINvMNtCsfvfooZQ3Axs_4core6resultINtB3_6ResultNtNtCs5AlOhPCr03V_3syn4item9ItemUnionNtNtBM_5error5ErrorE3mapNtBK_4ItemNcNtB1H_5Union0EBM_, symObjAddr: 0x38D4, symBinAddr: 0x46C68, symSize: 0xDC }
  - { offset: 0xD5D8F, size: 0x8, addend: 0x0, symName: __RINvMNtCsfvfooZQ3Axs_4core6resultINtB3_6ResultNtNtCs5AlOhPCr03V_3syn5token2GeNtNtBM_5error5ErrorE3mapNtNtBM_2op5BinOpNcNtB1B_2Ge0EBM_, symObjAddr: 0x39B0, symBinAddr: 0x46D44, symSize: 0xA4 }
  - { offset: 0xD5E3A, size: 0x8, addend: 0x0, symName: __RINvMNtCsfvfooZQ3Axs_4core6resultINtB3_6ResultNtNtCs5AlOhPCr03V_3syn5token2GtNtNtBM_5error5ErrorE3mapNtNtBM_2op5BinOpNcNtB1B_2Gt0EBM_, symObjAddr: 0x3A54, symBinAddr: 0x46DE8, symSize: 0xA4 }
  - { offset: 0xD5EE5, size: 0x8, addend: 0x0, symName: __RINvMNtCsfvfooZQ3Axs_4core6resultINtB3_6ResultNtNtCs5AlOhPCr03V_3syn5token2LeNtNtBM_5error5ErrorE3mapNtNtBM_2op5BinOpNcNtB1B_2Le0EBM_, symObjAddr: 0x3AF8, symBinAddr: 0x46E8C, symSize: 0xA4 }
  - { offset: 0xD5F90, size: 0x8, addend: 0x0, symName: __RINvMNtCsfvfooZQ3Axs_4core6resultINtB3_6ResultNtNtCs5AlOhPCr03V_3syn5token2LtNtNtBM_5error5ErrorE3mapNtNtBM_2op5BinOpNcNtB1B_2Lt0EBM_, symObjAddr: 0x3B9C, symBinAddr: 0x46F30, symSize: 0xA4 }
  - { offset: 0xD603B, size: 0x8, addend: 0x0, symName: __RINvMNtCsfvfooZQ3Axs_4core6resultINtB3_6ResultNtNtCs5AlOhPCr03V_3syn5token2NeNtNtBM_5error5ErrorE3mapNtNtBM_2op5BinOpNcNtB1B_2Ne0EBM_, symObjAddr: 0x3C40, symBinAddr: 0x46FD4, symSize: 0xA4 }
  - { offset: 0xD60E6, size: 0x8, addend: 0x0, symName: __RINvMNtCsfvfooZQ3Axs_4core6resultINtB3_6ResultNtNtCs5AlOhPCr03V_3syn5token2OrNtNtBM_5error5ErrorE3mapNtNtBM_2op5BinOpNcNtB1B_5BitOr0EBM_, symObjAddr: 0x3CE4, symBinAddr: 0x47078, symSize: 0xA4 }
  - { offset: 0xD6191, size: 0x8, addend: 0x0, symName: __RINvMNtCsfvfooZQ3Axs_4core6resultINtB3_6ResultNtNtCs5AlOhPCr03V_3syn5token3AddNtNtBM_5error5ErrorE3mapNtNtBM_2op5BinOpNcNtB1C_3Add0EBM_, symObjAddr: 0x3D88, symBinAddr: 0x4711C, symSize: 0xA4 }
  - { offset: 0xD623C, size: 0x8, addend: 0x0, symName: __RINvMNtCsfvfooZQ3Axs_4core6resultINtB3_6ResultNtNtCs5AlOhPCr03V_3syn5token3AndNtNtBM_5error5ErrorE3mapNtNtBM_2op5BinOpNcNtB1C_6BitAnd0EBM_, symObjAddr: 0x3E2C, symBinAddr: 0x471C0, symSize: 0xA4 }
  - { offset: 0xD62E7, size: 0x8, addend: 0x0, symName: __RINvMNtCsfvfooZQ3Axs_4core6resultINtB3_6ResultNtNtCs5AlOhPCr03V_3syn5token3DivNtNtBM_5error5ErrorE3mapNtNtBM_2op5BinOpNcNtB1C_3Div0EBM_, symObjAddr: 0x3ED0, symBinAddr: 0x47264, symSize: 0xA4 }
  - { offset: 0xD6392, size: 0x8, addend: 0x0, symName: __RINvMNtCsfvfooZQ3Axs_4core6resultINtB3_6ResultNtNtCs5AlOhPCr03V_3syn5token3RemNtNtBM_5error5ErrorE3mapNtNtBM_2op5BinOpNcNtB1C_3Rem0EBM_, symObjAddr: 0x3F74, symBinAddr: 0x47308, symSize: 0xA4 }
  - { offset: 0xD643D, size: 0x8, addend: 0x0, symName: __RINvMNtCsfvfooZQ3Axs_4core6resultINtB3_6ResultNtNtCs5AlOhPCr03V_3syn5token3ShlNtNtBM_5error5ErrorE3mapNtNtBM_2op5BinOpNcNtB1C_3Shl0EBM_, symObjAddr: 0x4018, symBinAddr: 0x473AC, symSize: 0xA4 }
  - { offset: 0xD64E8, size: 0x8, addend: 0x0, symName: __RINvMNtCsfvfooZQ3Axs_4core6resultINtB3_6ResultNtNtCs5AlOhPCr03V_3syn5token3ShrNtNtBM_5error5ErrorE3mapNtNtBM_2op5BinOpNcNtB1C_3Shr0EBM_, symObjAddr: 0x40BC, symBinAddr: 0x47450, symSize: 0xA4 }
  - { offset: 0xD6593, size: 0x8, addend: 0x0, symName: __RINvMNtCsfvfooZQ3Axs_4core6resultINtB3_6ResultNtNtCs5AlOhPCr03V_3syn5token3SubNtNtBM_5error5ErrorE3mapNtNtBM_2op4UnOpNcNtB1C_3Neg0EBM_, symObjAddr: 0x4160, symBinAddr: 0x474F4, symSize: 0xAC }
  - { offset: 0xD663E, size: 0x8, addend: 0x0, symName: __RINvMNtCsfvfooZQ3Axs_4core6resultINtB3_6ResultNtNtCs5AlOhPCr03V_3syn5token3SubNtNtBM_5error5ErrorE3mapNtNtBM_2op5BinOpNcNtB1C_3Sub0EBM_, symObjAddr: 0x420C, symBinAddr: 0x475A0, symSize: 0xA4 }
  - { offset: 0xD66E9, size: 0x8, addend: 0x0, symName: __RINvMNtCsfvfooZQ3Axs_4core6resultINtB3_6ResultNtNtCs5AlOhPCr03V_3syn5token4BangNtNtBM_5error5ErrorE3mapNtNtBM_2op4UnOpNcNtB1D_3Not0EBM_, symObjAddr: 0x42B0, symBinAddr: 0x47644, symSize: 0xAC }
  - { offset: 0xD6794, size: 0x8, addend: 0x0, symName: __RINvMNtCsfvfooZQ3Axs_4core6resultINtB3_6ResultNtNtCs5AlOhPCr03V_3syn5token4Dot2NtNtBM_5error5ErrorE3mapNtNtBM_4expr11RangeLimitsNcNtB1D_8HalfOpen0EBM_, symObjAddr: 0x435C, symBinAddr: 0x476F0, symSize: 0xA4 }
