---
triple:          'arm64-apple-darwin'
binary-path:     '/Users/cedric/orange/ran-llm-claude-flow/src/rust-pipeline/target/debug/build/zstd-sys-aa4740669cc39186/build_script_build-aa4740669cc39186'
relocations:
  - { offset: 0x1E, size: 0x8, addend: 0x0, symName: __RINvMNtCsfvfooZQ3Axs_4core6resultINtB3_6ResultNtNtCse1nGBsou5OW_5alloc6string6StringNtNtCscOYdFFY2T5N_3std3env8VarErrorE6map_orbNCNvCskKWtASW8fos_18build_script_build12compile_zstds_0EB26_, symObjAddr: 0x0, symBinAddr: 0x100000C28, symSize: 0x100 }
  - { offset: 0x68, size: 0x8, addend: 0x0, symName: __RNCINvNtCscOYdFFY2T5N_3std2rt10lang_startuE0CskKWtASW8fos_18build_script_build, symObjAddr: 0x23E0, symBinAddr: 0x100002E50, symSize: 0x34 }
  - { offset: 0xD2, size: 0x8, addend: 0x0, symName: __RINvNtCscOYdFFY2T5N_3std2rt10lang_startuECskKWtASW8fos_18build_script_build, symObjAddr: 0x908, symBinAddr: 0x100001530, symSize: 0x60 }
  - { offset: 0x7E6, size: 0x8, addend: 0x0, symName: __RNvXsH_NtCscOYdFFY2T5N_3std4pathNtB5_7PathBufNtNtNtCsfvfooZQ3Axs_4core3ops5deref5Deref5derefCskKWtASW8fos_18build_script_build, symObjAddr: 0x386C, symBinAddr: 0x100003FDC, symSize: 0x34 }
  - { offset: 0x892, size: 0x8, addend: 0x0, symName: __RNvXs1j_NtCscOYdFFY2T5N_3std4pathNtB6_7PathBufINtNtCsfvfooZQ3Axs_4core7convert5AsRefNtB6_4PathE6as_refCskKWtASW8fos_18build_script_build, symObjAddr: 0x35D4, symBinAddr: 0x100003D44, symSize: 0x34 }
  - { offset: 0x93E, size: 0x8, addend: 0x0, symName: __RNvXsA_NtCscOYdFFY2T5N_3std4pathNtB5_7PathBufINtNtCsfvfooZQ3Axs_4core7convert4FromNtNtNtB7_3ffi6os_str8OsStringE4fromCskKWtASW8fos_18build_script_build, symObjAddr: 0x380C, symBinAddr: 0x100003F7C, symSize: 0x18 }
  - { offset: 0x972, size: 0x8, addend: 0x0, symName: __RNvXsZ_NtCscOYdFFY2T5N_3std4pathNtB5_7PathBufNtNtCsfvfooZQ3Axs_4core3cmp10PartialOrd11partial_cmpCskKWtASW8fos_18build_script_build, symObjAddr: 0x3908, symBinAddr: 0x100004078, symSize: 0x130 }
  - { offset: 0x100F, size: 0x8, addend: 0x0, symName: __RINvNtCscOYdFFY2T5N_3std2fs14create_dir_allRNtNtB4_4path7PathBufECskKWtASW8fos_18build_script_build, symObjAddr: 0x6DC, symBinAddr: 0x100001304, symSize: 0x88 }
  - { offset: 0x1079, size: 0x8, addend: 0x0, symName: __RINvNtCscOYdFFY2T5N_3std2fs4copyNtNtB4_4path7PathBufBu_ECskKWtASW8fos_18build_script_build, symObjAddr: 0x764, symBinAddr: 0x10000138C, symSize: 0xC4 }
  - { offset: 0x10DF, size: 0x8, addend: 0x0, symName: __RINvNtCscOYdFFY2T5N_3std2fs8read_dirRReECskKWtASW8fos_18build_script_build, symObjAddr: 0x828, symBinAddr: 0x100001450, symSize: 0xE0 }
  - { offset: 0x1165, size: 0x8, addend: 0x0, symName: __RNcNtNtCscOYdFFY2T5N_3std2fs7ReadDir0CskKWtASW8fos_18build_script_build, symObjAddr: 0x2570, symBinAddr: 0x100002FE0, symSize: 0x18 }
  - { offset: 0x1429, size: 0x8, addend: 0x0, symName: __RNvXs1q_NtCse1nGBsou5OW_5alloc6stringNtB6_6StringINtNtCsfvfooZQ3Axs_4core3cmp9PartialEqReE2eqCskKWtASW8fos_18build_script_build, symObjAddr: 0x3608, symBinAddr: 0x100003D78, symSize: 0xC8 }
  - { offset: 0x166B, size: 0x8, addend: 0x0, symName: __RNvXsW_NtCse1nGBsou5OW_5alloc6stringNtB5_6StringNtNtCsfvfooZQ3Axs_4core3fmt5Write10write_charCskKWtASW8fos_18build_script_build, symObjAddr: 0x38A0, symBinAddr: 0x100004010, symSize: 0x30 }
  - { offset: 0x16A8, size: 0x8, addend: 0x0, symName: __RNvXsW_NtCse1nGBsou5OW_5alloc6stringNtB5_6StringNtNtCsfvfooZQ3Axs_4core3fmt5Write9write_strCskKWtASW8fos_18build_script_build, symObjAddr: 0x38D0, symBinAddr: 0x100004040, symSize: 0x38 }
  - { offset: 0x16EB, size: 0x8, addend: 0x0, symName: __RNvXsk_NtCse1nGBsou5OW_5alloc6stringNtB5_6StringNtNtCsfvfooZQ3Axs_4core7default7Default7defaultCskKWtASW8fos_18build_script_build, symObjAddr: 0x3AD0, symBinAddr: 0x100004240, symSize: 0x30 }
  - { offset: 0x173B, size: 0x8, addend: 0x0, symName: __RNvXss_NtCse1nGBsou5OW_5alloc6stringNtB5_6StringNtNtNtCsfvfooZQ3Axs_4core3ops5deref5Deref5derefCskKWtASW8fos_18build_script_build, symObjAddr: 0x3B00, symBinAddr: 0x100004270, symSize: 0x24 }
  - { offset: 0x176F, size: 0x8, addend: 0x0, symName: __RNvXsw_NtCse1nGBsou5OW_5alloc6stringNtNtCscOYdFFY2T5N_3std4path7DisplayNtB5_8ToString9to_stringCskKWtASW8fos_18build_script_build, symObjAddr: 0x3B24, symBinAddr: 0x100004294, symSize: 0x24 }
  - { offset: 0x17AC, size: 0x8, addend: 0x0, symName: __RNvXsx_NtCse1nGBsou5OW_5alloc6stringNtNtCscOYdFFY2T5N_3std4path7DisplayNtB5_12SpecToString14spec_to_stringCskKWtASW8fos_18build_script_build, symObjAddr: 0x3B48, symBinAddr: 0x1000042B8, symSize: 0x144 }
  - { offset: 0x1AC2, size: 0x8, addend: 0x0, symName: __RNvXNvXsd_NtNtCse1nGBsou5OW_5alloc3vec9into_iterINtB8_8IntoIterppENtNtNtCsfvfooZQ3Axs_4core3ops4drop4Drop4dropINtB2_9DropGuardNtNtCscOYdFFY2T5N_3std4path7PathBufNtNtBc_5alloc6GlobalEB12_4dropCskKWtASW8fos_18build_script_build, symObjAddr: 0x354C, symBinAddr: 0x100003CBC, symSize: 0x7C }
  - { offset: 0x1BF8, size: 0x8, addend: 0x0, symName: __RNvXsd_NtNtCse1nGBsou5OW_5alloc3vec9into_iterINtB5_8IntoIterNtNtCscOYdFFY2T5N_3std4path7PathBufENtNtNtCsfvfooZQ3Axs_4core3ops4drop4Drop4dropCskKWtASW8fos_18build_script_build, symObjAddr: 0x3A38, symBinAddr: 0x1000041A8, symSize: 0x98 }
  - { offset: 0x1C98, size: 0x8, addend: 0x0, symName: __RNvXs3_NtNtCse1nGBsou5OW_5alloc3vec9into_iterINtB5_8IntoIterNtNtCscOYdFFY2T5N_3std4path7PathBufENtNtNtNtCsfvfooZQ3Axs_4core4iter6traits8iterator8Iterator4nextCskKWtASW8fos_18build_script_build, symObjAddr: 0x36D0, symBinAddr: 0x100003E40, symSize: 0xD0 }
  - { offset: 0x1E13, size: 0x8, addend: 0x0, symName: __RNvXs3_NtNtCse1nGBsou5OW_5alloc3vec9into_iterINtB5_8IntoIterNtNtCscOYdFFY2T5N_3std4path7PathBufENtNtNtNtCsfvfooZQ3Axs_4core4iter6traits8iterator8Iterator9size_hintCskKWtASW8fos_18build_script_build, symObjAddr: 0x37A0, symBinAddr: 0x100003F10, symSize: 0x6C }
  - { offset: 0x25F3, size: 0x8, addend: 0x0, symName: __RNvMNtCse1nGBsou5OW_5alloc5sliceSNtNtCscOYdFFY2T5N_3std4path7PathBuf4sortCskKWtASW8fos_18build_script_build, symObjAddr: 0x2588, symBinAddr: 0x100002FF8, symSize: 0x28 }
  - { offset: 0x2980, size: 0x8, addend: 0x0, symName: __RNvNvMs1_NtNtCsfvfooZQ3Axs_4core3ptr8non_nullINtB7_7NonNullpE13new_unchecked18precondition_checkCskKWtASW8fos_18build_script_build, symObjAddr: 0x2FB4, symBinAddr: 0x100003A24, symSize: 0x38 }
  - { offset: 0x2C90, size: 0x8, addend: 0x0, symName: __RINvNtCsfvfooZQ3Axs_4core3ptr13drop_in_placeINtNtB4_6option6OptionINtNtB4_6result6ResultNtNtCscOYdFFY2T5N_3std2fs8DirEntryNtNtNtB1s_2io5error5ErrorEEECskKWtASW8fos_18build_script_build, symObjAddr: 0x968, symBinAddr: 0x100001590, symSize: 0x40 }
  - { offset: 0x2CBF, size: 0x8, addend: 0x0, symName: __RINvNtCsfvfooZQ3Axs_4core3ptr13drop_in_placeINtNtB4_6result6ResultNtNtCscOYdFFY2T5N_3std2fs8DirEntryNtNtNtB16_2io5error5ErrorEECskKWtASW8fos_18build_script_build, symObjAddr: 0x9A8, symBinAddr: 0x1000015D0, symSize: 0x58 }
  - { offset: 0x2CEE, size: 0x8, addend: 0x0, symName: __RINvNtCsfvfooZQ3Axs_4core3ptr13drop_in_placeINtNtCse1nGBsou5OW_5alloc4sync3ArcNtNtNtNtNtCscOYdFFY2T5N_3std3sys3pal4unix2fs12InnerReadDirEECskKWtASW8fos_18build_script_build, symObjAddr: 0xA00, symBinAddr: 0x100001628, symSize: 0x24 }
  - { offset: 0x2D1D, size: 0x8, addend: 0x0, symName: __RINvNtCsfvfooZQ3Axs_4core3ptr13drop_in_placeINtNtNtB4_5array4iter8IntoIterjKj2_EECskKWtASW8fos_18build_script_build, symObjAddr: 0xA24, symBinAddr: 0x10000164C, symSize: 0x24 }
  - { offset: 0x2D4C, size: 0x8, addend: 0x0, symName: __RINvNtCsfvfooZQ3Axs_4core3ptr13drop_in_placeINtNtNtCse1nGBsou5OW_5alloc3vec9into_iter8IntoIterNtNtCscOYdFFY2T5N_3std4path7PathBufEECskKWtASW8fos_18build_script_build, symObjAddr: 0xA48, symBinAddr: 0x100001670, symSize: 0x24 }
  - { offset: 0x2D7B, size: 0x8, addend: 0x0, symName: __RINvNtCsfvfooZQ3Axs_4core3ptr13drop_in_placeINtNtNtNtB4_4iter8adapters10filter_map9FilterMapINtNtBL_3map3MapNtNtCscOYdFFY2T5N_3std2fs7ReadDirNvMNtB4_6resultINtB2i_6ResultNtB1K_8DirEntryNtNtNtB1M_2io5error5ErrorE6unwrapENCNvCskKWtASW8fos_18build_script_build12compile_zstd0EEB3z_, symObjAddr: 0xA6C, symBinAddr: 0x100001694, symSize: 0x24 }
  - { offset: 0x2DAA, size: 0x8, addend: 0x0, symName: __RINvNtCsfvfooZQ3Axs_4core3ptr13drop_in_placeINtNtNtNtB4_4iter8adapters3map3MapNtNtCscOYdFFY2T5N_3std2fs7ReadDirNvMNtB4_6resultINtB1O_6ResultNtB1g_8DirEntryNtNtNtB1i_2io5error5ErrorE6unwrapEECskKWtASW8fos_18build_script_build, symObjAddr: 0xA90, symBinAddr: 0x1000016B8, symSize: 0x24 }
  - { offset: 0x2DD9, size: 0x8, addend: 0x0, symName: __RINvNtCsfvfooZQ3Axs_4core3ptr13drop_in_placeINtNtNtNtNtB4_5slice4sort6shared9smallsort10CopyOnDropNtNtCscOYdFFY2T5N_3std4path7PathBufEECskKWtASW8fos_18build_script_build, symObjAddr: 0xAB4, symBinAddr: 0x1000016DC, symSize: 0x24 }
  - { offset: 0x2E08, size: 0x8, addend: 0x0, symName: __RINvNtCsfvfooZQ3Axs_4core3ptr13drop_in_placeINtNtNtNtNtB4_5slice4sort6stable5merge10MergeStateNtNtCscOYdFFY2T5N_3std4path7PathBufEECskKWtASW8fos_18build_script_build, symObjAddr: 0xAD8, symBinAddr: 0x100001700, symSize: 0x24 }
  - { offset: 0x2E37, size: 0x8, addend: 0x0, symName: __RINvNtCsfvfooZQ3Axs_4core3ptr13drop_in_placeINtNvXsd_NtNtCse1nGBsou5OW_5alloc3vec9into_iterINtBP_8IntoIterppENtNtNtB4_3ops4drop4Drop4drop9DropGuardNtNtCscOYdFFY2T5N_3std4path7PathBufNtNtBT_5alloc6GlobalEECskKWtASW8fos_18build_script_build, symObjAddr: 0xAFC, symBinAddr: 0x100001724, symSize: 0x24 }
  - { offset: 0x2E66, size: 0x8, addend: 0x0, symName: __RINvNtCsfvfooZQ3Axs_4core3ptr13drop_in_placeNCINvMsi_NtCse1nGBsou5OW_5alloc3vecINtBP_3VecNtNtBR_6string6StringE14extend_trustedINtNtNtNtB4_4iter8adapters3map3MapINtNtNtB4_5slice4iter4IterNtNtCscOYdFFY2T5N_3std4path7PathBufENCNvCskKWtASW8fos_18build_script_build4main0EE0EB3D_, symObjAddr: 0xB20, symBinAddr: 0x100001748, symSize: 0x24 }
  - { offset: 0x2E95, size: 0x8, addend: 0x0, symName: __RINvNtCsfvfooZQ3Axs_4core3ptr13drop_in_placeNCINvNtNtNtB4_4iter8adapters3map8map_foldRNtNtCscOYdFFY2T5N_3std4path7PathBufNtNtCse1nGBsou5OW_5alloc6string6StringuNCNvCskKWtASW8fos_18build_script_build4main0NCINvNvNtNtNtBP_6traits8iterator8Iterator8for_each4callB1V_NCINvMsi_NtB1Z_3vecINtB4m_3VecB1V_E14extend_trustedINtBL_3MapINtNtNtB4_5slice4iter4IterB1m_EB2y_EE0E0E0EB2C_, symObjAddr: 0xB54, symBinAddr: 0x10000176C, symSize: 0x24 }
  - { offset: 0x2EC4, size: 0x8, addend: 0x0, symName: __RINvNtCsfvfooZQ3Axs_4core3ptr13drop_in_placeNCINvNvNtNtNtNtB4_4iter6traits8iterator8Iterator8for_each4callNtNtCse1nGBsou5OW_5alloc6string6StringNCINvMsi_NtB1K_3vecINtB2r_3VecB1G_E14extend_trustedINtNtNtBT_8adapters3map3MapINtNtNtB4_5slice4iter4IterNtNtCscOYdFFY2T5N_3std4path7PathBufENCNvCskKWtASW8fos_18build_script_build4main0EE0E0EB4C_, symObjAddr: 0xB78, symBinAddr: 0x100001790, symSize: 0x24 }
  - { offset: 0x2EF3, size: 0x8, addend: 0x0, symName: __RINvNtCsfvfooZQ3Axs_4core3ptr13drop_in_placeNtNtCscOYdFFY2T5N_3std2fs7ReadDirECskKWtASW8fos_18build_script_build, symObjAddr: 0xBAC, symBinAddr: 0x1000017B4, symSize: 0x24 }
  - { offset: 0x2F22, size: 0x8, addend: 0x0, symName: __RINvNtCsfvfooZQ3Axs_4core3ptr13drop_in_placeNtNtCscOYdFFY2T5N_3std2fs8DirEntryECskKWtASW8fos_18build_script_build, symObjAddr: 0xBD0, symBinAddr: 0x1000017D8, symSize: 0x24 }
  - { offset: 0x2F51, size: 0x8, addend: 0x0, symName: __RINvNtCsfvfooZQ3Axs_4core3ptr13drop_in_placeNtNtNtNtNtCscOYdFFY2T5N_3std3sys3pal4unix2fs7ReadDirECskKWtASW8fos_18build_script_build, symObjAddr: 0xBF4, symBinAddr: 0x1000017FC, symSize: 0x24 }
  - { offset: 0x2F80, size: 0x8, addend: 0x0, symName: __RINvNtCsfvfooZQ3Axs_4core3ptr13drop_in_placeNtNtNtNtNtCscOYdFFY2T5N_3std3sys3pal4unix2fs8DirEntryECskKWtASW8fos_18build_script_build, symObjAddr: 0xC18, symBinAddr: 0x100001820, symSize: 0x24 }
  - { offset: 0x3151, size: 0x8, addend: 0x0, symName: __RNvNvMNtNtCsfvfooZQ3Axs_4core3ptr9const_ptrPp7sub_ptr18precondition_checkCskKWtASW8fos_18build_script_build, symObjAddr: 0x2F24, symBinAddr: 0x100003994, symSize: 0x40 }
  - { offset: 0x3691, size: 0x8, addend: 0x0, symName: __RNvNvNtCsfvfooZQ3Axs_4core3ptr13read_volatile18precondition_checkCskKWtASW8fos_18build_script_build, symObjAddr: 0x3030, symBinAddr: 0x100003AA0, symSize: 0x100 }
  - { offset: 0x3A98, size: 0x8, addend: 0x0, symName: __RNvNvMs9_NtCsfvfooZQ3Axs_4core3numj13unchecked_add18precondition_checkCskKWtASW8fos_18build_script_build, symObjAddr: 0x2FEC, symBinAddr: 0x100003A5C, symSize: 0x44 }
  - { offset: 0x3F62, size: 0x8, addend: 0x0, symName: __RNvYNtNtCscOYdFFY2T5N_3std4path7PathBufNtNtCsfvfooZQ3Axs_4core3cmp10PartialOrd2ltCskKWtASW8fos_18build_script_build, symObjAddr: 0x3E54, symBinAddr: 0x1000045C4, symSize: 0x6C }
  - { offset: 0x5045, size: 0x8, addend: 0x0, symName: __RINvNtNtNtCsfvfooZQ3Axs_4core5slice4sort6stable14driftsort_mainNtNtCscOYdFFY2T5N_3std4path7PathBufNvYBZ_NtNtB8_3cmp10PartialOrd2ltINtNtCse1nGBsou5OW_5alloc3vec3VecBZ_EECskKWtASW8fos_18build_script_build, symObjAddr: 0xCB4, symBinAddr: 0x100001844, symSize: 0x2AC }
  - { offset: 0x529A, size: 0x8, addend: 0x0, symName: __RINvNtNtNtNtCsfvfooZQ3Axs_4core5slice4sort6stable9quicksort16stable_partitionNtNtCscOYdFFY2T5N_3std4path7PathBufNCINvB2_9quicksortB1d_NvYB1d_NtNtBa_3cmp10PartialOrd2ltE0ECskKWtASW8fos_18build_script_build, symObjAddr: 0x1358, symBinAddr: 0x100001EE8, symSize: 0x3BC }
  - { offset: 0x56C4, size: 0x8, addend: 0x0, symName: __RINvNtNtNtNtCsfvfooZQ3Axs_4core5slice4sort6stable9quicksort16stable_partitionNtNtCscOYdFFY2T5N_3std4path7PathBufNvYB1d_NtNtBa_3cmp10PartialOrd2ltECskKWtASW8fos_18build_script_build, symObjAddr: 0x1714, symBinAddr: 0x1000022A4, symSize: 0x3BC }
  - { offset: 0x5AEE, size: 0x8, addend: 0x0, symName: __RINvNtNtNtNtCsfvfooZQ3Axs_4core5slice4sort6stable9quicksort9quicksortNtNtCscOYdFFY2T5N_3std4path7PathBufNvYB15_NtNtBa_3cmp10PartialOrd2ltECskKWtASW8fos_18build_script_build, symObjAddr: 0x1AD0, symBinAddr: 0x100002660, symSize: 0x3C8 }
  - { offset: 0x5D86, size: 0x8, addend: 0x0, symName: __RNCINvNtNtNtNtCsfvfooZQ3Axs_4core5slice4sort6stable9quicksort9quicksortNtNtCscOYdFFY2T5N_3std4path7PathBufNvYB17_NtNtBc_3cmp10PartialOrd2ltE0CskKWtASW8fos_18build_script_build, symObjAddr: 0x2414, symBinAddr: 0x100002E84, symSize: 0x48 }
  - { offset: 0x5DFC, size: 0x8, addend: 0x0, symName: __RNvXs0_NtNtNtNtCsfvfooZQ3Axs_4core5slice4sort6stable9quicksortNtNtCscOYdFFY2T5N_3std4path7PathBufNtB5_8IsFreeze9is_freezeCskKWtASW8fos_18build_script_build, symObjAddr: 0x35C8, symBinAddr: 0x100003D38, symSize: 0xC }
  - { offset: 0x5F81, size: 0x8, addend: 0x0, symName: __RINvNtNtNtNtCsfvfooZQ3Axs_4core5slice4sort6shared5pivot11median3_recNtNtCscOYdFFY2T5N_3std4path7PathBufNvYB14_NtNtBa_3cmp10PartialOrd2ltECskKWtASW8fos_18build_script_build, symObjAddr: 0xF60, symBinAddr: 0x100001AF0, symSize: 0x1F4 }
  - { offset: 0x617B, size: 0x8, addend: 0x0, symName: __RINvNtNtNtNtCsfvfooZQ3Axs_4core5slice4sort6shared5pivot12choose_pivotNtNtCscOYdFFY2T5N_3std4path7PathBufNvYB15_NtNtBa_3cmp10PartialOrd2ltECskKWtASW8fos_18build_script_build, symObjAddr: 0x1154, symBinAddr: 0x100001CE4, symSize: 0x204 }
  - { offset: 0x6590, size: 0x8, addend: 0x0, symName: __RINvNvMNtCsfvfooZQ3Axs_4core5sliceSp7reverse7revswapNtNtCscOYdFFY2T5N_3std4path7PathBufECskKWtASW8fos_18build_script_build, symObjAddr: 0x1E98, symBinAddr: 0x100002A28, symSize: 0x290 }
  - { offset: 0x6775, size: 0x8, addend: 0x0, symName: __RNvMNtCsfvfooZQ3Axs_4core5sliceSNtNtCscOYdFFY2T5N_3std4path7PathBuf22split_at_mut_uncheckedCskKWtASW8fos_18build_script_build, symObjAddr: 0x2780, symBinAddr: 0x1000031F0, symSize: 0xF8 }
  - { offset: 0x6915, size: 0x8, addend: 0x0, symName: __RNvMNtCsfvfooZQ3Axs_4core5sliceSNtNtCscOYdFFY2T5N_3std4path7PathBuf7reverseCskKWtASW8fos_18build_script_build, symObjAddr: 0x2878, symBinAddr: 0x1000032E8, symSize: 0x108 }
  - { offset: 0x6AD1, size: 0x8, addend: 0x0, symName: __RNvNvMNtCsfvfooZQ3Axs_4core5sliceSp22split_at_mut_unchecked18precondition_checkCskKWtASW8fos_18build_script_build, symObjAddr: 0x2EE4, symBinAddr: 0x100003954, symSize: 0x40 }
  - { offset: 0x6B57, size: 0x8, addend: 0x0, symName: __RNvNvXs0_NtNtCsfvfooZQ3Axs_4core5slice5indexjINtB7_10SliceIndexSpE13get_unchecked18precondition_checkCskKWtASW8fos_18build_script_build, symObjAddr: 0x3430, symBinAddr: 0x100003BA0, symSize: 0x40 }
  - { offset: 0x6B99, size: 0x8, addend: 0x0, symName: __RNvNvXs1_NtNtCsfvfooZQ3Axs_4core5slice5indexNtNtNtBb_3ops11index_range10IndexRangeINtB7_10SliceIndexSpE17get_unchecked_mut18precondition_checkCskKWtASW8fos_18build_script_build, symObjAddr: 0x3470, symBinAddr: 0x100003BE0, symSize: 0x40 }
  - { offset: 0x6BDB, size: 0x8, addend: 0x0, symName: __RNvNvXs2_NtNtCsfvfooZQ3Axs_4core5slice5indexINtNtNtBb_3ops5range5RangejEINtB7_10SliceIndexSpE17get_unchecked_mut18precondition_checkCskKWtASW8fos_18build_script_build, symObjAddr: 0x34B0, symBinAddr: 0x100003C20, symSize: 0x60 }
  - { offset: 0x6FCB, size: 0x8, addend: 0x0, symName: __RNvXsF_NtNtCsfvfooZQ3Axs_4core4iter5rangejNtB5_4Step17forward_uncheckedCskKWtASW8fos_18build_script_build, symObjAddr: 0x3824, symBinAddr: 0x100003F94, symSize: 0x48 }
  - { offset: 0x703B, size: 0x8, addend: 0x0, symName: __RINvYNtNtCscOYdFFY2T5N_3std2fs7ReadDirNtNtNtNtCsfvfooZQ3Axs_4core4iter6traits8iterator8Iterator3mapNtB5_8DirEntryNvMNtBI_6resultINtB1Q_6ResultB1z_NtNtNtB7_2io5error5ErrorE6unwrapECskKWtASW8fos_18build_script_build, symObjAddr: 0x2248, symBinAddr: 0x100002CB8, symSize: 0x18 }
  - { offset: 0x7093, size: 0x8, addend: 0x0, symName: __RINvYNtNtCscOYdFFY2T5N_3std2fs7ReadDirNtNtNtNtCsfvfooZQ3Axs_4core4iter6traits8iterator8Iterator8try_folduNCINvNtNtBG_8adapters3map12map_try_foldINtNtBI_6result6ResultNtB5_8DirEntryNtNtNtB7_2io5error5ErrorEB2E_uINtNtNtBI_3ops12control_flow11ControlFlowNtNtB7_4path7PathBufENvMB2l_B2i_6unwrapNCINvNvBA_8find_map5checkB2E_B41_QNCNvCskKWtASW8fos_18build_script_build12compile_zstd0E0E0B3m_EB5g_, symObjAddr: 0x2260, symBinAddr: 0x100002CD0, symSize: 0x180 }
  - { offset: 0x715A, size: 0x8, addend: 0x0, symName: __RNCINvNvNtNtNtNtCsfvfooZQ3Axs_4core4iter6traits8iterator8Iterator8find_map5checkNtNtCscOYdFFY2T5N_3std2fs8DirEntryNtNtB1k_4path7PathBufQNCNvCskKWtASW8fos_18build_script_build12compile_zstd0E0B2e_, symObjAddr: 0x245C, symBinAddr: 0x100002ECC, symSize: 0xB0 }
  - { offset: 0x71FD, size: 0x8, addend: 0x0, symName: __RNCINvNvNtNtNtNtCsfvfooZQ3Axs_4core4iter6traits8iterator8Iterator8for_each4callNtNtCse1nGBsou5OW_5alloc6string6StringNCINvMsi_NtB1j_3vecINtB20_3VecB1f_E14extend_trustedINtNtNtBc_8adapters3map3MapINtNtNtBe_5slice4iter4IterNtNtCscOYdFFY2T5N_3std4path7PathBufENCNvCskKWtASW8fos_18build_script_build4main0EE0E0B4b_, symObjAddr: 0x250C, symBinAddr: 0x100002F7C, symSize: 0x3C }
  - { offset: 0x726B, size: 0x8, addend: 0x0, symName: __RNvYNtNtCscOYdFFY2T5N_3std2fs7ReadDirNtNtNtNtCsfvfooZQ3Axs_4core4iter6traits8iterator8Iterator9size_hintCskKWtASW8fos_18build_script_build, symObjAddr: 0x3E20, symBinAddr: 0x100004590, symSize: 0x34 }
  - { offset: 0x72AC, size: 0x8, addend: 0x0, symName: __RNvXNtNtNtCsfvfooZQ3Axs_4core4iter6traits7collectINtNtNtCse1nGBsou5OW_5alloc3vec9into_iter8IntoIterNtNtCscOYdFFY2T5N_3std4path7PathBufENtB2_12IntoIterator9into_iterCskKWtASW8fos_18build_script_build, symObjAddr: 0x3538, symBinAddr: 0x100003CA8, symSize: 0x14 }
  - { offset: 0x731A, size: 0x8, addend: 0x0, symName: __RNvYINtNtNtCse1nGBsou5OW_5alloc3vec9into_iter8IntoIterNtNtCscOYdFFY2T5N_3std4path7PathBufENtNtNtNtCsfvfooZQ3Axs_4core4iter6traits10exact_size17ExactSizeIterator3lenCskKWtASW8fos_18build_script_build, symObjAddr: 0x3CAC, symBinAddr: 0x10000441C, symSize: 0xF4 }
  - { offset: 0x7560, size: 0x8, addend: 0x0, symName: __RNSNvYNCINvNtCscOYdFFY2T5N_3std2rt10lang_startuE0INtNtNtCsfvfooZQ3Axs_4core3ops8function6FnOnceuE9call_once6vtableCskKWtASW8fos_18build_script_build, symObjAddr: 0x2548, symBinAddr: 0x100002FB8, symSize: 0x28 }
  - { offset: 0x75A4, size: 0x8, addend: 0x0, symName: __RNvYFEuINtNtNtCsfvfooZQ3Axs_4core3ops8function6FnOnceuE9call_onceCskKWtASW8fos_18build_script_build, symObjAddr: 0x3C8C, symBinAddr: 0x1000043FC, symSize: 0x20 }
  - { offset: 0x75E4, size: 0x8, addend: 0x0, symName: __RNvYNCINvNtCscOYdFFY2T5N_3std2rt10lang_startuE0INtNtNtCsfvfooZQ3Axs_4core3ops8function6FnOnceuE9call_onceCskKWtASW8fos_18build_script_build, symObjAddr: 0x3DA0, symBinAddr: 0x100004510, symSize: 0x4C }
  - { offset: 0x7628, size: 0x8, addend: 0x0, symName: __RNvYNcNtNtCscOYdFFY2T5N_3std2fs7ReadDir0INtNtNtCsfvfooZQ3Axs_4core3ops8function6FnOnceTNtNtNtNtNtB8_3sys3pal4unix2fs7ReadDirEE9call_onceCskKWtASW8fos_18build_script_build, symObjAddr: 0x3DEC, symBinAddr: 0x10000455C, symSize: 0x34 }
  - { offset: 0x766C, size: 0x8, addend: 0x0, symName: __RNvYNvYReINtNtCsfvfooZQ3Axs_4core7convert4IntoINtNtCse1nGBsou5OW_5alloc4sync3ArceEE4intoINtNtNtBc_3ops8function6FnOnceTB5_EE9call_onceCskKWtASW8fos_18build_script_build, symObjAddr: 0x3FBC, symBinAddr: 0x10000472C, symSize: 0x34 }
  - { offset: 0x76B6, size: 0x8, addend: 0x0, symName: __RNvYNvMNtCsfvfooZQ3Axs_4core6resultINtB5_6ResultNtNtCscOYdFFY2T5N_3std2fs8DirEntryNtNtNtBO_2io5error5ErrorE6unwrapINtNtNtB7_3ops8function5FnMutTBx_EE8call_mutCskKWtASW8fos_18build_script_build, symObjAddr: 0x3EC0, symBinAddr: 0x100004630, symSize: 0xCC }
  - { offset: 0x772D, size: 0x8, addend: 0x0, symName: __RNvYNvYNtNtCscOYdFFY2T5N_3std4path7PathBufNtNtCsfvfooZQ3Axs_4core3cmp10PartialOrd2ltINtNtNtBI_3ops8function5FnMutTRB5_B1O_EE8call_mutCskKWtASW8fos_18build_script_build, symObjAddr: 0x3F8C, symBinAddr: 0x1000046FC, symSize: 0x30 }
  - { offset: 0x7A93, size: 0x8, addend: 0x0, symName: __RNvNvMNtNtCsfvfooZQ3Axs_4core5alloc6layoutNtB4_6Layout25from_size_align_unchecked18precondition_checkCskKWtASW8fos_18build_script_build, symObjAddr: 0x2F64, symBinAddr: 0x1000039D4, symSize: 0x50 }
  - { offset: 0x7B4B, size: 0x8, addend: 0x0, symName: __RNvXNtCsfvfooZQ3Axs_4core7convertRReINtB2_5AsRefNtNtCscOYdFFY2T5N_3std4path4PathE6as_refCskKWtASW8fos_18build_script_build, symObjAddr: 0x3510, symBinAddr: 0x100003C80, symSize: 0x28 }
  - { offset: 0x8235, size: 0x8, addend: 0x0, symName: __RINvMNtCsfvfooZQ3Axs_4core6resultINtB3_6ResultNtNtCse1nGBsou5OW_5alloc6string6StringNtNtCscOYdFFY2T5N_3std3env8VarErrorE6map_orbNCNvCskKWtASW8fos_18build_script_build12compile_zstds_0EB26_, symObjAddr: 0x0, symBinAddr: 0x100000C28, symSize: 0x100 }
  - { offset: 0x82E5, size: 0x8, addend: 0x0, symName: __RINvMs12_NtCscOYdFFY2T5N_3std4pathNtB7_4Path3newNtNtNtB9_3ffi6os_str8OsStringECskKWtASW8fos_18build_script_build, symObjAddr: 0x100, symBinAddr: 0x100000D28, symSize: 0x24 }
  - { offset: 0x8879, size: 0x8, addend: 0x0, symName: __RINvMs3_CsdARyWrlPtHl_2ccNtB6_5Build17flag_if_supportedReECskKWtASW8fos_18build_script_build, symObjAddr: 0x124, symBinAddr: 0x100000D4C, symSize: 0xAC }
  - { offset: 0x88B4, size: 0x8, addend: 0x0, symName: __RINvMs3_CsdARyWrlPtHl_2ccNtB6_5Build4fileNtNtCscOYdFFY2T5N_3std4path7PathBufECskKWtASW8fos_18build_script_build, symObjAddr: 0x1D0, symBinAddr: 0x100000DF8, symSize: 0xC0 }
  - { offset: 0x88F0, size: 0x8, addend: 0x0, symName: __RINvMs3_CsdARyWrlPtHl_2ccNtB6_5Build4fileReECskKWtASW8fos_18build_script_build, symObjAddr: 0x290, symBinAddr: 0x100000EB8, symSize: 0xAC }
  - { offset: 0x892B, size: 0x8, addend: 0x0, symName: __RINvMs3_CsdARyWrlPtHl_2ccNtB6_5Build4flagReECskKWtASW8fos_18build_script_build, symObjAddr: 0x33C, symBinAddr: 0x100000F64, symSize: 0xAC }
  - { offset: 0x8966, size: 0x8, addend: 0x0, symName: __RINvMs3_CsdARyWrlPtHl_2ccNtB6_5Build5filesINtNtCse1nGBsou5OW_5alloc3vec3VecNtNtCscOYdFFY2T5N_3std4path7PathBufEECskKWtASW8fos_18build_script_build, symObjAddr: 0x3E8, symBinAddr: 0x100001010, symSize: 0xF8 }
  - { offset: 0x89D7, size: 0x8, addend: 0x0, symName: __RINvMs3_CsdARyWrlPtHl_2ccNtB6_5Build6defineINtNtCsfvfooZQ3Axs_4core6option6OptionReEECskKWtASW8fos_18build_script_build, symObjAddr: 0x4E0, symBinAddr: 0x100001108, symSize: 0x150 }
  - { offset: 0x8A21, size: 0x8, addend: 0x0, symName: __RINvMs3_CsdARyWrlPtHl_2ccNtB6_5Build7includeReECskKWtASW8fos_18build_script_build, symObjAddr: 0x630, symBinAddr: 0x100001258, symSize: 0xAC }
  - { offset: 0x91B2, size: 0x8, addend: 0x0, symName: __RNvMNtCse1nGBsou5OW_5alloc6stringNtB2_6String4pushCskKWtASW8fos_18build_script_build, symObjAddr: 0x25B0, symBinAddr: 0x100003020, symSize: 0x100 }
  - { offset: 0x9465, size: 0x8, addend: 0x0, symName: __RNvMNtCse1nGBsou5OW_5alloc6stringNtB2_6String6as_strCskKWtASW8fos_18build_script_build, symObjAddr: 0x26B0, symBinAddr: 0x100003120, symSize: 0x70 }
  - { offset: 0x9641, size: 0x8, addend: 0x0, symName: __RNvMNtCse1nGBsou5OW_5alloc6stringNtB2_6String8push_strCskKWtASW8fos_18build_script_build, symObjAddr: 0x2720, symBinAddr: 0x100003190, symSize: 0x60 }
  - { offset: 0x97F5, size: 0x8, addend: 0x0, symName: __RNvMNtCsfvfooZQ3Axs_4core6resultINtB2_6ResultNtCs8sZPpv4WdDS_10pkg_config7LibraryNtBJ_5ErrorE6expectCskKWtASW8fos_18build_script_build, symObjAddr: 0x2980, symBinAddr: 0x1000033F0, symSize: 0xCC }
  - { offset: 0x9858, size: 0x8, addend: 0x0, symName: __RNvMNtCsfvfooZQ3Axs_4core6resultINtB2_6ResultNtNtCse1nGBsou5OW_5alloc6string6StringNtNtCscOYdFFY2T5N_3std3env8VarErrorE17unwrap_or_defaultCskKWtASW8fos_18build_script_build, symObjAddr: 0x2A4C, symBinAddr: 0x1000034BC, symSize: 0xBC }
  - { offset: 0x98B9, size: 0x8, addend: 0x0, symName: __RNvMNtCsfvfooZQ3Axs_4core6resultINtB2_6ResultNtNtCse1nGBsou5OW_5alloc6string6StringNtNtCscOYdFFY2T5N_3std3env8VarErrorE5is_okCskKWtASW8fos_18build_script_build, symObjAddr: 0x2B08, symBinAddr: 0x100003578, symSize: 0x20 }
  - { offset: 0x993C, size: 0x8, addend: 0x0, symName: __RNvMNtNtNtCsfvfooZQ3Axs_4core5slice4sort6stableINtB2_14AlignedStorageNtNtCscOYdFFY2T5N_3std4path7PathBufKj1000_E19as_uninit_slice_mutCskKWtASW8fos_18build_script_build, symObjAddr: 0x2B28, symBinAddr: 0x100003598, symSize: 0x7C }
  - { offset: 0x99F0, size: 0x8, addend: 0x0, symName: __RNvMNtNtNtNtCsfvfooZQ3Axs_4core5slice4sort6stable9quicksortINtB2_14PartitionStateNtNtCscOYdFFY2T5N_3std4path7PathBufE13partition_oneCskKWtASW8fos_18build_script_build, symObjAddr: 0x2BA4, symBinAddr: 0x100003614, symSize: 0x138 }
  - { offset: 0x9B2B, size: 0x8, addend: 0x0, symName: __RNvMs0_NtCse1nGBsou5OW_5alloc7raw_vecINtB5_6RawVecINtNtB7_4sync3ArcNtNtCscOYdFFY2T5N_3std4path4PathEE8grow_oneCskKWtASW8fos_18build_script_build, symObjAddr: 0x2CDC, symBinAddr: 0x10000374C, symSize: 0x94 }
  - { offset: 0x9BD9, size: 0x8, addend: 0x0, symName: __RNvMs0_NtCse1nGBsou5OW_5alloc7raw_vecINtB5_6RawVecTINtNtB7_4sync3ArceEINtNtCsfvfooZQ3Axs_4core6option6OptionBN_EEE8grow_oneCskKWtASW8fos_18build_script_build, symObjAddr: 0x2D70, symBinAddr: 0x1000037E0, symSize: 0x94 }
  - { offset: 0x9C88, size: 0x8, addend: 0x0, symName: __RNvMs12_NtCscOYdFFY2T5N_3std4pathNtB6_4Path6existsCskKWtASW8fos_18build_script_build, symObjAddr: 0x2E04, symBinAddr: 0x100003874, symSize: 0x54 }
  - { offset: 0x9CE7, size: 0x8, addend: 0x0, symName: __RNvMs12_NtCscOYdFFY2T5N_3std4pathNtB6_4Path7displayCskKWtASW8fos_18build_script_build, symObjAddr: 0x2E58, symBinAddr: 0x1000038C8, symSize: 0x18 }
  - { offset: 0x9D26, size: 0x8, addend: 0x0, symName: __RNvMs1_NtNtCsfvfooZQ3Axs_4core3ptr8non_nullINtB5_7NonNullNtNtCscOYdFFY2T5N_3std4path7PathBufE7sub_ptrCskKWtASW8fos_18build_script_build, symObjAddr: 0x2E70, symBinAddr: 0x1000038E0, symSize: 0x74 }
  - { offset: 0xA480, size: 0x8, addend: 0x0, symName: __RINvMNtCsfvfooZQ3Axs_4core6optionINtB3_6OptionReE3mapINtNtCse1nGBsou5OW_5alloc4sync3ArceENvYBI_INtNtB5_7convert4IntoBP_E4intoECskKWtASW8fos_18build_script_build, symObjAddr: 0x0, symBinAddr: 0x100004760, symSize: 0x64 }
  - { offset: 0xC126, size: 0x8, addend: 0x0, symName: __RNCINvNtNtNtCsfvfooZQ3Axs_4core4iter8adapters3map8map_foldRNtNtCscOYdFFY2T5N_3std4path7PathBufNtNtCse1nGBsou5OW_5alloc6string6StringuNCNvCskKWtASW8fos_18build_script_build4main0NCINvNvNtNtNtB8_6traits8iterator8Iterator8for_each4callB1u_NCINvMsi_NtB1y_3vecINtB3V_3VecB1u_E14extend_trustedINtB4_3MapINtNtNtBa_5slice4iter4IterBV_EB27_EE0E0E0B2b_, symObjAddr: 0x13CC, symBinAddr: 0x100005AF0, symSize: 0x8C }
  - { offset: 0xC1B1, size: 0x8, addend: 0x0, symName: __RINvXs0_NtNtNtCsfvfooZQ3Axs_4core4iter8adapters3mapINtB6_3MapINtNtNtBc_5slice4iter4IterNtNtCscOYdFFY2T5N_3std4path7PathBufENCNvCskKWtASW8fos_18build_script_build4main0ENtNtNtBa_6traits8iterator8Iterator4folduNCINvNvB2G_8for_each4callNtNtCse1nGBsou5OW_5alloc6string6StringNCINvMsi_NtB3N_3vecINtB4u_3VecB3J_E14extend_trustedBN_E0E0EB21_, symObjAddr: 0xE88, symBinAddr: 0x1000055AC, symSize: 0x44 }
  - { offset: 0xC249, size: 0x8, addend: 0x0, symName: __RINvXs0_NtNtNtCsfvfooZQ3Axs_4core4iter8adapters3mapINtB6_3MapNtNtCscOYdFFY2T5N_3std2fs7ReadDirNvMNtBc_6resultINtB1x_6ResultNtBZ_8DirEntryNtNtNtB11_2io5error5ErrorE6unwrapENtNtNtBa_6traits8iterator8Iterator8try_folduNCINvNvB2J_8find_map5checkB1X_NtNtB11_4path7PathBufQNCNvCskKWtASW8fos_18build_script_build12compile_zstd0E0INtNtNtBc_3ops12control_flow11ControlFlowB3V_EEB4l_, symObjAddr: 0xECC, symBinAddr: 0x1000055F0, symSize: 0x38 }
  - { offset: 0xC2C7, size: 0x8, addend: 0x0, symName: __RNvXs0_NtNtNtCsfvfooZQ3Axs_4core4iter8adapters3mapINtB5_3MapINtNtNtBb_5slice4iter4IterNtNtCscOYdFFY2T5N_3std4path7PathBufENCNvCskKWtASW8fos_18build_script_build4main0ENtNtNtB9_6traits8iterator8Iterator9size_hintB20_, symObjAddr: 0x296C, symBinAddr: 0x10000708C, symSize: 0x24 }
  - { offset: 0xC30E, size: 0x8, addend: 0x0, symName: __RNvXs0_NtNtNtCsfvfooZQ3Axs_4core4iter8adapters3mapINtB5_3MapNtNtCscOYdFFY2T5N_3std2fs7ReadDirNvMNtBb_6resultINtB1w_6ResultNtBY_8DirEntryNtNtNtB10_2io5error5ErrorE6unwrapENtNtNtB9_6traits8iterator8Iterator9size_hintCskKWtASW8fos_18build_script_build, symObjAddr: 0x2990, symBinAddr: 0x1000070B0, symSize: 0x24 }
  - { offset: 0xC35B, size: 0x8, addend: 0x0, symName: __RNCINvNtNtNtCsfvfooZQ3Axs_4core4iter8adapters3map12map_try_foldINtNtBa_6result6ResultNtNtCscOYdFFY2T5N_3std2fs8DirEntryNtNtNtB1p_2io5error5ErrorEB1l_uINtNtNtBa_3ops12control_flow11ControlFlowNtNtB1p_4path7PathBufENvMB12_BZ_6unwrapNCINvNvNtNtNtB8_6traits8iterator8Iterator8find_map5checkB1l_B33_QNCNvCskKWtASW8fos_18build_script_build12compile_zstd0E0E0B4N_, symObjAddr: 0x1308, symBinAddr: 0x100005A2C, symSize: 0xC4 }
  - { offset: 0xC42D, size: 0x8, addend: 0x0, symName: __RNvXs0_NtNtNtCsfvfooZQ3Axs_4core4iter8adapters10filter_mapINtB5_9FilterMapINtNtB7_3map3MapNtNtCscOYdFFY2T5N_3std2fs7ReadDirNvMNtBb_6resultINtB20_6ResultNtB1s_8DirEntryNtNtNtB1u_2io5error5ErrorE6unwrapENCNvCskKWtASW8fos_18build_script_build12compile_zstd0ENtNtNtB9_6traits8iterator8Iterator4nextB3h_, symObjAddr: 0x28F4, symBinAddr: 0x100007014, symSize: 0x2C }
  - { offset: 0xC474, size: 0x8, addend: 0x0, symName: __RNvXs0_NtNtNtCsfvfooZQ3Axs_4core4iter8adapters10filter_mapINtB5_9FilterMapINtNtB7_3map3MapNtNtCscOYdFFY2T5N_3std2fs7ReadDirNvMNtBb_6resultINtB20_6ResultNtB1s_8DirEntryNtNtNtB1u_2io5error5ErrorE6unwrapENCNvCskKWtASW8fos_18build_script_build12compile_zstd0ENtNtNtB9_6traits8iterator8Iterator9size_hintB3h_, symObjAddr: 0x2920, symBinAddr: 0x100007040, symSize: 0x4C }
  - { offset: 0xC539, size: 0x8, addend: 0x0, symName: __RINvYINtNtNtCsfvfooZQ3Axs_4core5slice4iter4IterNtNtCscOYdFFY2T5N_3std4path7PathBufENtNtNtNtBa_4iter6traits8iterator8Iterator3mapNtNtCse1nGBsou5OW_5alloc6string6StringNCNvCskKWtASW8fos_18build_script_build4main0EB2I_, symObjAddr: 0x113C, symBinAddr: 0x100005860, symSize: 0x1C }
  - { offset: 0xC591, size: 0x8, addend: 0x0, symName: __RINvYINtNtNtNtCsfvfooZQ3Axs_4core4iter8adapters10filter_map9FilterMapINtNtB8_3map3MapNtNtCscOYdFFY2T5N_3std2fs7ReadDirNvMNtBc_6resultINtB1V_6ResultNtB1n_8DirEntryNtNtNtB1p_2io5error5ErrorE6unwrapENCNvCskKWtASW8fos_18build_script_build12compile_zstd0ENtNtNtBa_6traits8iterator8Iterator7collectINtNtCse1nGBsou5OW_5alloc3vec3VecNtNtB1p_4path7PathBufEEB3c_, symObjAddr: 0x1158, symBinAddr: 0x10000587C, symSize: 0x30 }
  - { offset: 0xC5D1, size: 0x8, addend: 0x0, symName: __RINvYINtNtNtNtCsfvfooZQ3Axs_4core4iter8adapters3map3MapINtNtNtBc_5slice4iter4IterNtNtCscOYdFFY2T5N_3std4path7PathBufENCNvCskKWtASW8fos_18build_script_build4main0ENtNtNtBa_6traits8iterator8Iterator7collectINtNtCse1nGBsou5OW_5alloc3vec3VecNtNtB3l_6string6StringEEB1V_, symObjAddr: 0x1188, symBinAddr: 0x1000058AC, symSize: 0x34 }
  - { offset: 0xC611, size: 0x8, addend: 0x0, symName: __RINvYINtNtNtNtCsfvfooZQ3Axs_4core4iter8adapters3map3MapINtNtNtBc_5slice4iter4IterNtNtCscOYdFFY2T5N_3std4path7PathBufENCNvCskKWtASW8fos_18build_script_build4main0ENtNtNtBa_6traits8iterator8Iterator8for_eachNCINvMsi_NtCse1nGBsou5OW_5alloc3vecINtB3q_3VecNtNtB3s_6string6StringE14extend_trustedB3_E0EB1V_, symObjAddr: 0x11BC, symBinAddr: 0x1000058E0, symSize: 0x44 }
  - { offset: 0xC67C, size: 0x8, addend: 0x0, symName: __RINvYINtNtNtNtCsfvfooZQ3Axs_4core4iter8adapters3map3MapNtNtCscOYdFFY2T5N_3std2fs7ReadDirNvMNtBc_6resultINtB1r_6ResultNtBT_8DirEntryNtNtNtBV_2io5error5ErrorE6unwrapENtNtNtBa_6traits8iterator8Iterator10filter_mapNtNtBV_4path7PathBufNCNvCskKWtASW8fos_18build_script_build12compile_zstd0EB3K_, symObjAddr: 0x1200, symBinAddr: 0x100005924, symSize: 0x18 }
  - { offset: 0xC6D4, size: 0x8, addend: 0x0, symName: __RINvYINtNtNtNtCsfvfooZQ3Axs_4core4iter8adapters3map3MapNtNtCscOYdFFY2T5N_3std2fs7ReadDirNvMNtBc_6resultINtB1r_6ResultNtBT_8DirEntryNtNtNtBV_2io5error5ErrorE6unwrapENtNtNtBa_6traits8iterator8Iterator8find_mapNtNtBV_4path7PathBufQNCNvCskKWtASW8fos_18build_script_build12compile_zstd0EB3I_, symObjAddr: 0x1218, symBinAddr: 0x10000593C, symSize: 0xAC }
  - { offset: 0xC783, size: 0x8, addend: 0x0, symName: __RNvXNtNtNtCsfvfooZQ3Axs_4core4iter6traits7collectINtNtNtB6_8adapters10filter_map9FilterMapINtNtBQ_3map3MapNtNtCscOYdFFY2T5N_3std2fs7ReadDirNvMNtB8_6resultINtB2g_6ResultNtB1I_8DirEntryNtNtNtB1K_2io5error5ErrorE6unwrapENCNvCskKWtASW8fos_18build_script_build12compile_zstd0ENtB2_12IntoIterator9into_iterB3x_, symObjAddr: 0x276C, symBinAddr: 0x100006E8C, symSize: 0x18 }
  - { offset: 0xC7BA, size: 0x8, addend: 0x0, symName: __RNvXNtNtNtCsfvfooZQ3Axs_4core4iter6traits7collectINtNtNtB6_8adapters3map3MapINtNtNtB8_5slice4iter4IterNtNtCscOYdFFY2T5N_3std4path7PathBufENCNvCskKWtASW8fos_18build_script_build4main0ENtB2_12IntoIterator9into_iterB2g_, symObjAddr: 0x2784, symBinAddr: 0x100006EA4, symSize: 0x1C }
  - { offset: 0xC86B, size: 0x8, addend: 0x0, symName: __RINvXs2U_NtNtCsfvfooZQ3Axs_4core5slice4iterINtB7_4IterNtNtCscOYdFFY2T5N_3std4path7PathBufENtNtNtNtBb_4iter6traits8iterator8Iterator4folduNCINvNtNtB1w_8adapters3map8map_foldRBQ_NtNtCse1nGBsou5OW_5alloc6string6StringuNCNvCskKWtASW8fos_18build_script_build4main0NCINvNvB1q_8for_each4callB2O_NCINvMsi_NtB2S_3vecINtB4L_3VecB2O_E14extend_trustedINtB2g_3MapBF_B3r_EE0E0E0EB3v_, symObjAddr: 0xF04, symBinAddr: 0x100005628, symSize: 0x1B8 }
  - { offset: 0xC9BF, size: 0x8, addend: 0x0, symName: __RNvXs2U_NtNtCsfvfooZQ3Axs_4core5slice4iterINtB6_4IterNtNtCscOYdFFY2T5N_3std4path7PathBufENtNtNtNtBa_4iter6traits8iterator8Iterator9size_hintCskKWtASW8fos_18build_script_build, symObjAddr: 0x29D8, symBinAddr: 0x1000070F8, symSize: 0x70 }
  - { offset: 0xCAF8, size: 0x8, addend: 0x0, symName: __RINvNtNtNtNtCsfvfooZQ3Axs_4core5slice4sort6stable5drift10create_runNtNtCscOYdFFY2T5N_3std4path7PathBufNvYB13_NtNtBa_3cmp10PartialOrd2ltECskKWtASW8fos_18build_script_build, symObjAddr: 0x4DC, symBinAddr: 0x100004C00, symSize: 0x3D0 }
  - { offset: 0xD003, size: 0x8, addend: 0x0, symName: __RINvNtNtNtNtCsfvfooZQ3Axs_4core5slice4sort6stable5drift16stable_quicksortNtNtCscOYdFFY2T5N_3std4path7PathBufNvYB19_NtNtBa_3cmp10PartialOrd2ltECskKWtASW8fos_18build_script_build, symObjAddr: 0x8AC, symBinAddr: 0x100004FD0, symSize: 0xB4 }
  - { offset: 0xD218, size: 0x8, addend: 0x0, symName: __RINvNtNtNtNtCsfvfooZQ3Axs_4core5slice4sort6stable5drift4sortNtNtCscOYdFFY2T5N_3std4path7PathBufNvYBW_NtNtBa_3cmp10PartialOrd2ltECskKWtASW8fos_18build_script_build, symObjAddr: 0x960, symBinAddr: 0x100005084, symSize: 0x528 }
  - { offset: 0xDCE3, size: 0x8, addend: 0x0, symName: __RNvXs2_NtNtCsfvfooZQ3Axs_4core5slice5indexINtNtNtB9_3ops5range5RangejEINtB5_10SliceIndexSNtNtCscOYdFFY2T5N_3std4path7PathBufE9index_mutCskKWtASW8fos_18build_script_build, symObjAddr: 0x2A6C, symBinAddr: 0x10000718C, symSize: 0xC8 }
  - { offset: 0xDF8D, size: 0x8, addend: 0x0, symName: __RNvXs5_NtNtCsfvfooZQ3Axs_4core5slice5indexINtNtNtB9_3ops5range9RangeFromjEINtB5_10SliceIndexSNtNtCscOYdFFY2T5N_3std4path7PathBufE9index_mutCskKWtASW8fos_18build_script_build, symObjAddr: 0x2BD8, symBinAddr: 0x1000072F8, symSize: 0xA0 }
  - { offset: 0xE12E, size: 0x8, addend: 0x0, symName: __RNvNvNtNtCsfvfooZQ3Axs_4core5slice3raw14from_raw_parts18precondition_checkCskKWtASW8fos_18build_script_build, symObjAddr: 0x21F0, symBinAddr: 0x100006910, symSize: 0x168 }
  - { offset: 0xE274, size: 0x8, addend: 0x0, symName: __RNvNvNtNtCsfvfooZQ3Axs_4core5slice3raw18from_raw_parts_mut18precondition_checkCskKWtASW8fos_18build_script_build, symObjAddr: 0x2358, symBinAddr: 0x100006A78, symSize: 0x168 }
  - { offset: 0xE77D, size: 0x8, addend: 0x0, symName: __RNvNvNtCsfvfooZQ3Axs_4core10intrinsics19copy_nonoverlapping18precondition_checkCskKWtASW8fos_18build_script_build, symObjAddr: 0x1E34, symBinAddr: 0x100006554, symSize: 0x2E4 }
  - { offset: 0xEDFD, size: 0x8, addend: 0x0, symName: __RNvXs1_NtCsfvfooZQ3Axs_4core7convertINtNtB7_6option6OptionReEINtB5_4IntoBy_E4intoCskKWtASW8fos_18build_script_build, symObjAddr: 0x29B4, symBinAddr: 0x1000070D4, symSize: 0x24 }
  - { offset: 0xEEE0, size: 0x8, addend: 0x0, symName: __RNvXs0_NtNtCsfvfooZQ3Axs_4core5array4iterINtB5_8IntoIterjKj2_ENtNtNtNtB9_4iter6traits8iterator8Iterator4nextCskKWtASW8fos_18build_script_build, symObjAddr: 0x27A0, symBinAddr: 0x100006EC0, symSize: 0x154 }
  - { offset: 0xF110, size: 0x8, addend: 0x0, symName: __RNvXs2_NtNtCsfvfooZQ3Axs_4core5array4iterINtB5_8IntoIterjKj2_ENtNtNtB9_3ops4drop4Drop4dropCskKWtASW8fos_18build_script_build, symObjAddr: 0x2A48, symBinAddr: 0x100007168, symSize: 0x24 }
  - { offset: 0xF1A2, size: 0x8, addend: 0x0, symName: __RNvNtNtCsfvfooZQ3Axs_4core4char7methods15encode_utf8_rawCskKWtASW8fos_18build_script_build, symObjAddr: 0x1C0C, symBinAddr: 0x10000632C, symSize: 0x228 }
  - { offset: 0xF477, size: 0x8, addend: 0x0, symName: __RNvNvNtCsfvfooZQ3Axs_4core9ub_checks23maybe_is_nonoverlapping7runtimeCskKWtASW8fos_18build_script_build, symObjAddr: 0x2118, symBinAddr: 0x100006838, symSize: 0xD8 }
  - { offset: 0xF9D4, size: 0x8, addend: 0x0, symName: __RNvXs3_NtNtCscOYdFFY2T5N_3std3ffi6os_strNtB5_8OsStringINtNtNtCsfvfooZQ3Axs_4core3ops5index5IndexNtNtBV_5range9RangeFullE5indexCskKWtASW8fos_18build_script_build, symObjAddr: 0x2B34, symBinAddr: 0x100007254, symSize: 0x78 }
  - { offset: 0xFB01, size: 0x8, addend: 0x0, symName: __RNvXs5_NtNtCscOYdFFY2T5N_3std3ffi6os_strNtB5_8OsStringNtNtNtCsfvfooZQ3Axs_4core3ops5deref5Deref5derefCskKWtASW8fos_18build_script_build, symObjAddr: 0x2BAC, symBinAddr: 0x1000072CC, symSize: 0x2C }
  - { offset: 0xFB53, size: 0x8, addend: 0x0, symName: __RNvXsV_NtNtCscOYdFFY2T5N_3std3ffi6os_strNtB5_8OsStringINtNtCsfvfooZQ3Axs_4core7convert5AsRefNtB5_5OsStrE6as_refCskKWtASW8fos_18build_script_build, symObjAddr: 0x2E74, symBinAddr: 0x100007594, symSize: 0x2C }
  - { offset: 0xFCA3, size: 0x8, addend: 0x0, symName: __RINvNtNtCscOYdFFY2T5N_3std3sys9backtrace28___rust_begin_short_backtraceFEuuECskKWtASW8fos_18build_script_build, symObjAddr: 0x4B8, symBinAddr: 0x100004BDC, symSize: 0x24 }
  - { offset: 0xFD54, size: 0x8, addend: 0x0, symName: __RNvXsT_NtCscOYdFFY2T5N_3std7processuNtB5_11Termination6reportCskKWtASW8fos_18build_script_build, symObjAddr: 0x2E64, symBinAddr: 0x100007584, symSize: 0x10 }
  - { offset: 0xFF61, size: 0x8, addend: 0x0, symName: __RNvXsz_NtCse1nGBsou5OW_5alloc4syncINtB5_3ArcNtNtNtNtNtCscOYdFFY2T5N_3std3sys3pal4unix2fs12InnerReadDirENtNtNtCsfvfooZQ3Axs_4core3ops4drop4Drop4dropCskKWtASW8fos_18build_script_build, symObjAddr: 0x31A8, symBinAddr: 0x1000078C8, symSize: 0xA8 }
  - { offset: 0x100BA, size: 0x8, addend: 0x0, symName: __RNvNtCse1nGBsou5OW_5alloc5alloc12alloc_zeroedCskKWtASW8fos_18build_script_build, symObjAddr: 0x1A5C, symBinAddr: 0x100006180, symSize: 0x84 }
  - { offset: 0x1017E, size: 0x8, addend: 0x0, symName: __RNvXs_NtCse1nGBsou5OW_5alloc5allocNtB4_6GlobalNtNtCsfvfooZQ3Axs_4core5alloc9Allocator10deallocateCskKWtASW8fos_18build_script_build, symObjAddr: 0x2EA0, symBinAddr: 0x1000075C0, symSize: 0x88 }
  - { offset: 0x1025A, size: 0x8, addend: 0x0, symName: __RNvNtCse1nGBsou5OW_5alloc5alloc15exchange_mallocCskKWtASW8fos_18build_script_build, symObjAddr: 0x1AE0, symBinAddr: 0x100006204, symSize: 0xA4 }
  - { offset: 0x102F1, size: 0x8, addend: 0x0, symName: __RNvNtCse1nGBsou5OW_5alloc5alloc5allocCskKWtASW8fos_18build_script_build, symObjAddr: 0x1B84, symBinAddr: 0x1000062A8, symSize: 0x84 }
  - { offset: 0x10D08, size: 0x8, addend: 0x0, symName: __RNCINvMsi_NtCse1nGBsou5OW_5alloc3vecINtB8_3VecNtNtBa_6string6StringE14extend_trustedINtNtNtNtCsfvfooZQ3Axs_4core4iter8adapters3map3MapINtNtNtB1t_5slice4iter4IterNtNtCscOYdFFY2T5N_3std4path7PathBufENCNvCskKWtASW8fos_18build_script_build4main0EE0B3d_, symObjAddr: 0x12C4, symBinAddr: 0x1000059E8, symSize: 0x44 }
  - { offset: 0x10DBC, size: 0x8, addend: 0x0, symName: __RINvXsd_NtCse1nGBsou5OW_5alloc3vecINtB6_3VecNtNtB8_6string6StringEINtNtNtNtCsfvfooZQ3Axs_4core4iter6traits7collect12FromIteratorBG_E9from_iterINtNtNtB19_8adapters3map3MapINtNtNtB1b_5slice4iter4IterNtNtCscOYdFFY2T5N_3std4path7PathBufENCNvCskKWtASW8fos_18build_script_build4main0EEB3N_, symObjAddr: 0x10BC, symBinAddr: 0x1000057E0, symSize: 0x40 }
  - { offset: 0x10DFC, size: 0x8, addend: 0x0, symName: __RINvXsd_NtCse1nGBsou5OW_5alloc3vecINtB6_3VecNtNtCscOYdFFY2T5N_3std4path7PathBufEINtNtNtNtCsfvfooZQ3Axs_4core4iter6traits7collect12FromIteratorBG_E9from_iterINtNtNtB1n_8adapters10filter_map9FilterMapINtNtB2z_3map3MapNtNtBK_2fs7ReadDirNvMNtB1p_6resultINtB3M_6ResultNtB3t_8DirEntryNtNtNtBK_2io5error5ErrorE6unwrapENCNvCskKWtASW8fos_18build_script_build12compile_zstd0EEB53_, symObjAddr: 0x10FC, symBinAddr: 0x100005820, symSize: 0x40 }
  - { offset: 0x10F59, size: 0x8, addend: 0x0, symName: __RNvXNtNtCse1nGBsou5OW_5alloc3vec11spec_extendINtB4_3VecNtNtCscOYdFFY2T5N_3std4path7PathBufEINtB2_10SpecExtendBR_INtNtNtNtCsfvfooZQ3Axs_4core4iter8adapters10filter_map9FilterMapINtNtB1R_3map3MapNtNtBV_2fs7ReadDirNvMNtB1V_6resultINtB3q_6ResultNtB37_8DirEntryNtNtNtBV_2io5error5ErrorE6unwrapENCNvCskKWtASW8fos_18build_script_build12compile_zstd0EE11spec_extendB4H_, symObjAddr: 0x24C0, symBinAddr: 0x100006BE0, symSize: 0x30 }
  - { offset: 0x10FB0, size: 0x8, addend: 0x0, symName: __RNvXs_NtNtCse1nGBsou5OW_5alloc3vec11spec_extendINtB6_3VecNtNtB8_6string6StringEINtB4_10SpecExtendBT_INtNtNtNtCsfvfooZQ3Axs_4core4iter8adapters3map3MapINtNtNtB1J_5slice4iter4IterNtNtCscOYdFFY2T5N_3std4path7PathBufENCNvCskKWtASW8fos_18build_script_build4main0EE11spec_extendB3t_, symObjAddr: 0x2F28, symBinAddr: 0x100007648, symSize: 0x34 }
  - { offset: 0x1100D, size: 0x8, addend: 0x0, symName: __RNvXNtNtCse1nGBsou5OW_5alloc3vec14spec_from_iterINtB4_3VecNtNtB6_6string6StringEINtB2_12SpecFromIterBU_INtNtNtNtCsfvfooZQ3Axs_4core4iter8adapters3map3MapINtNtNtB1M_5slice4iter4IterNtNtCscOYdFFY2T5N_3std4path7PathBufENCNvCskKWtASW8fos_18build_script_build4main0EE9from_iterB3w_, symObjAddr: 0x24F0, symBinAddr: 0x100006C10, symSize: 0x2C }
  - { offset: 0x1104B, size: 0x8, addend: 0x0, symName: __RNvXNtNtCse1nGBsou5OW_5alloc3vec14spec_from_iterINtB4_3VecNtNtCscOYdFFY2T5N_3std4path7PathBufEINtB2_12SpecFromIterBU_INtNtNtNtCsfvfooZQ3Axs_4core4iter8adapters10filter_map9FilterMapINtNtB1W_3map3MapNtNtBY_2fs7ReadDirNvMNtB20_6resultINtB3v_6ResultNtB3c_8DirEntryNtNtNtBY_2io5error5ErrorE6unwrapENCNvCskKWtASW8fos_18build_script_build12compile_zstd0EE9from_iterB4M_, symObjAddr: 0x251C, symBinAddr: 0x100006C3C, symSize: 0x28 }
  - { offset: 0x11095, size: 0x8, addend: 0x0, symName: __RNvXNtNtCse1nGBsou5OW_5alloc3vec21spec_from_iter_nestedINtB4_3VecNtNtCscOYdFFY2T5N_3std4path7PathBufEINtB2_18SpecFromIterNestedB11_INtNtNtNtCsfvfooZQ3Axs_4core4iter8adapters10filter_map9FilterMapINtNtB2a_3map3MapNtNtB15_2fs7ReadDirNvMNtB2e_6resultINtB3K_6ResultNtB3q_8DirEntryNtNtNtB15_2io5error5ErrorE6unwrapENCNvCskKWtASW8fos_18build_script_build12compile_zstd0EE9from_iterB52_, symObjAddr: 0x2544, symBinAddr: 0x100006C64, symSize: 0x228 }
  - { offset: 0x112B9, size: 0x8, addend: 0x0, symName: __RNvXs_NtNtCse1nGBsou5OW_5alloc3vec21spec_from_iter_nestedINtB6_3VecNtNtB8_6string6StringEINtB4_18SpecFromIterNestedB13_INtNtNtNtCsfvfooZQ3Axs_4core4iter8adapters3map3MapINtNtNtB22_5slice4iter4IterNtNtCscOYdFFY2T5N_3std4path7PathBufENCNvCskKWtASW8fos_18build_script_build4main0EE9from_iterB3M_, symObjAddr: 0x2F5C, symBinAddr: 0x10000767C, symSize: 0x168 }
  - { offset: 0x113CC, size: 0x8, addend: 0x0, symName: __RNvXs7_NtCse1nGBsou5OW_5alloc3vecINtB5_3VecNtNtCscOYdFFY2T5N_3std4path7PathBufENtNtNtCsfvfooZQ3Axs_4core3ops5deref8DerefMut9deref_mutCskKWtASW8fos_18build_script_build, symObjAddr: 0x2D28, symBinAddr: 0x100007448, symSize: 0x24 }
  - { offset: 0x11412, size: 0x8, addend: 0x0, symName: __RNvXse_NtCse1nGBsou5OW_5alloc3vecINtB5_3VecNtNtCscOYdFFY2T5N_3std4path7PathBufENtNtNtNtCsfvfooZQ3Axs_4core4iter6traits7collect12IntoIterator9into_iterCskKWtASW8fos_18build_script_build, symObjAddr: 0x30C4, symBinAddr: 0x1000077E4, symSize: 0xE4 }
  - { offset: 0x11714, size: 0x8, addend: 0x0, symName: __RINvNtCse1nGBsou5OW_5alloc5slice11stable_sortNtNtCscOYdFFY2T5N_3std4path7PathBufNvYBH_NtNtCsfvfooZQ3Axs_4core3cmp10PartialOrd2ltECskKWtASW8fos_18build_script_build, symObjAddr: 0x3B8, symBinAddr: 0x100004B18, symSize: 0xC4 }
  - { offset: 0x117CA, size: 0x8, addend: 0x0, symName: __RNvXs8_NtCse1nGBsou5OW_5alloc5sliceINtNtB7_3vec3VecNtNtCscOYdFFY2T5N_3std4path7PathBufEINtNtNtNtCsfvfooZQ3Axs_4core5slice4sort6stable8BufGuardBN_E13with_capacityCskKWtASW8fos_18build_script_build, symObjAddr: 0x2D4C, symBinAddr: 0x10000746C, symSize: 0x4C }
  - { offset: 0x1186B, size: 0x8, addend: 0x0, symName: __RNvXs8_NtCse1nGBsou5OW_5alloc5sliceINtNtB7_3vec3VecNtNtCscOYdFFY2T5N_3std4path7PathBufEINtNtNtNtCsfvfooZQ3Axs_4core5slice4sort6stable8BufGuardBN_E19as_uninit_slice_mutCskKWtASW8fos_18build_script_build, symObjAddr: 0x2D98, symBinAddr: 0x1000074B8, symSize: 0xCC }
  - { offset: 0x11A6D, size: 0x8, addend: 0x0, symName: __RNvXs6_NtCse1nGBsou5OW_5alloc5boxedINtB5_3BoxANtNtCscOYdFFY2T5N_3std4path7PathBufj1_ENtNtNtCsfvfooZQ3Axs_4core3ops4drop4Drop4dropCskKWtASW8fos_18build_script_build, symObjAddr: 0x2C78, symBinAddr: 0x100007398, symSize: 0xB0 }
  - { offset: 0x11BE6, size: 0x8, addend: 0x0, symName: __RINvMNtCsfvfooZQ3Axs_4core6optionINtB3_6OptionReE3mapINtNtCse1nGBsou5OW_5alloc4sync3ArceENvYBI_INtNtB5_7convert4IntoBP_E4intoECskKWtASW8fos_18build_script_build, symObjAddr: 0x0, symBinAddr: 0x100004760, symSize: 0x64 }
  - { offset: 0x11F0A, size: 0x8, addend: 0x0, symName: __RINvMsi_NtCse1nGBsou5OW_5alloc3vecINtB6_3VecNtNtB8_6string6StringE14extend_trustedINtNtNtNtCsfvfooZQ3Axs_4core4iter8adapters3map3MapINtNtNtB1r_5slice4iter4IterNtNtCscOYdFFY2T5N_3std4path7PathBufENCNvCskKWtASW8fos_18build_script_build4main0EEB3b_, symObjAddr: 0x64, symBinAddr: 0x1000047C4, symSize: 0x170 }
  - { offset: 0x123A1, size: 0x8, addend: 0x0, symName: __RINvMsi_NtCse1nGBsou5OW_5alloc3vecINtB6_3VecNtNtCscOYdFFY2T5N_3std4path7PathBufE16extend_desugaredINtNtNtNtCsfvfooZQ3Axs_4core4iter8adapters10filter_map9FilterMapINtNtB1D_3map3MapNtNtBK_2fs7ReadDirNvMNtB1H_6resultINtB3c_6ResultNtB2T_8DirEntryNtNtNtBK_2io5error5ErrorE6unwrapENCNvCskKWtASW8fos_18build_script_build12compile_zstd0EEB4t_, symObjAddr: 0x1D4, symBinAddr: 0x100004934, symSize: 0x1E4 }
  - { offset: 0x12A6B, size: 0x8, addend: 0x0, symName: __RNvMNtCse1nGBsou5OW_5alloc5allocNtB2_6Global10alloc_implCskKWtASW8fos_18build_script_build, symObjAddr: 0x1458, symBinAddr: 0x100005B7C, symSize: 0x194 }
  - { offset: 0x12D78, size: 0x8, addend: 0x0, symName: __RNvMNtCsfvfooZQ3Axs_4core6optionINtB2_6OptionNtNtNtCscOYdFFY2T5N_3std3ffi6os_str8OsStringE6expectCskKWtASW8fos_18build_script_build, symObjAddr: 0x15EC, symBinAddr: 0x100005D10, symSize: 0x74 }
  - { offset: 0x12EEE, size: 0x8, addend: 0x0, symName: __RNvMs_NtCse1nGBsou5OW_5alloc3vecINtB4_3VecINtNtB6_4sync3ArcNtNtCscOYdFFY2T5N_3std4path4PathEE4pushCskKWtASW8fos_18build_script_build, symObjAddr: 0x1660, symBinAddr: 0x100005D84, symSize: 0xF8 }
  - { offset: 0x1311F, size: 0x8, addend: 0x0, symName: __RNvMs_NtCse1nGBsou5OW_5alloc3vecINtB4_3VecNtNtCscOYdFFY2T5N_3std4path7PathBufE12as_mut_sliceCskKWtASW8fos_18build_script_build, symObjAddr: 0x1758, symBinAddr: 0x100005E7C, symSize: 0x64 }
  - { offset: 0x13311, size: 0x8, addend: 0x0, symName: __RNvMs_NtCse1nGBsou5OW_5alloc3vecINtB4_3VecNtNtCscOYdFFY2T5N_3std4path7PathBufE7reserveCskKWtASW8fos_18build_script_build, symObjAddr: 0x17BC, symBinAddr: 0x100005EE0, symSize: 0xC8 }
  - { offset: 0x135A9, size: 0x8, addend: 0x0, symName: __RNvMs_NtCse1nGBsou5OW_5alloc3vecINtB4_3VecTINtNtB6_4sync3ArceEINtNtCsfvfooZQ3Axs_4core6option6OptionBF_EEE4pushCskKWtASW8fos_18build_script_build, symObjAddr: 0x1884, symBinAddr: 0x100005FA8, symSize: 0x100 }
  - { offset: 0x1380F, size: 0x8, addend: 0x0, symName: __RNvMs_NtNtCsfvfooZQ3Axs_4core5array4iterINtB4_8IntoIterjKj2_E12as_mut_sliceCskKWtASW8fos_18build_script_build, symObjAddr: 0x1984, symBinAddr: 0x1000060A8, symSize: 0xB0 }
  - { offset: 0x1392B, size: 0x8, addend: 0x0, symName: __RNvMsl_NtNtCscOYdFFY2T5N_3std3ffi6os_strNtB5_5OsStr15to_string_lossyCskKWtASW8fos_18build_script_build, symObjAddr: 0x1A34, symBinAddr: 0x100006158, symSize: 0x28 }
  - { offset: 0x143C2, size: 0x8, addend: 0x0, symName: __RINvMNtNtNtNtCsfvfooZQ3Axs_4core5slice4sort6stable5mergeINtB3_10MergeStateNtNtCscOYdFFY2T5N_3std4path7PathBufE10merge_downNvYB1a_NtNtBb_3cmp10PartialOrd2ltECskKWtASW8fos_18build_script_build, symObjAddr: 0x0, symBinAddr: 0x100007970, symSize: 0x1E0 }
  - { offset: 0x15CEB, size: 0x8, addend: 0x0, symName: __RINvNtNtNtNtCsfvfooZQ3Axs_4core5slice4sort6stable5merge5mergeNtNtCscOYdFFY2T5N_3std4path7PathBufNvYBX_NtNtBa_3cmp10PartialOrd2ltECskKWtASW8fos_18build_script_build, symObjAddr: 0x14F4, symBinAddr: 0x100008E64, symSize: 0x324 }
  - { offset: 0x15F55, size: 0x8, addend: 0x0, symName: __RNvXs_NtNtNtNtCsfvfooZQ3Axs_4core5slice4sort6stable5mergeINtB4_10MergeStateNtNtCscOYdFFY2T5N_3std4path7PathBufENtNtNtBc_3ops4drop4Drop4dropCskKWtASW8fos_18build_script_build, symObjAddr: 0x18F8, symBinAddr: 0x100009268, symSize: 0xE4 }
  - { offset: 0x16054, size: 0x8, addend: 0x0, symName: __RINvNtNtNtNtCsfvfooZQ3Axs_4core5slice4sort6shared9smallsort11insert_tailNtNtCscOYdFFY2T5N_3std4path7PathBufNvYB18_NtNtBa_3cmp10PartialOrd2ltECskKWtASW8fos_18build_script_build, symObjAddr: 0x380, symBinAddr: 0x100007CF0, symSize: 0x1C8 }
  - { offset: 0x161F3, size: 0x8, addend: 0x0, symName: __RINvNtNtNtNtCsfvfooZQ3Axs_4core5slice4sort6shared9smallsort12sort4_stableNtNtCscOYdFFY2T5N_3std4path7PathBufNvYB19_NtNtBa_3cmp10PartialOrd2ltECskKWtASW8fos_18build_script_build, symObjAddr: 0x548, symBinAddr: 0x100007EB8, symSize: 0x494 }
  - { offset: 0x167C3, size: 0x8, addend: 0x0, symName: __RINvNtNtNtNtCsfvfooZQ3Axs_4core5slice4sort6shared9smallsort19bidirectional_mergeNtNtCscOYdFFY2T5N_3std4path7PathBufNvYB1g_NtNtBa_3cmp10PartialOrd2ltECskKWtASW8fos_18build_script_build, symObjAddr: 0x9DC, symBinAddr: 0x10000834C, symSize: 0x598 }
  - { offset: 0x16E80, size: 0x8, addend: 0x0, symName: __RINvNtNtNtNtCsfvfooZQ3Axs_4core5slice4sort6shared9smallsort25insertion_sort_shift_leftNtNtCscOYdFFY2T5N_3std4path7PathBufNvYB1m_NtNtBa_3cmp10PartialOrd2ltECskKWtASW8fos_18build_script_build, symObjAddr: 0xF74, symBinAddr: 0x1000088E4, symSize: 0xD0 }
  - { offset: 0x16FBA, size: 0x8, addend: 0x0, symName: __RINvNtNtNtNtCsfvfooZQ3Axs_4core5slice4sort6shared9smallsort31small_sort_general_with_scratchNtNtCscOYdFFY2T5N_3std4path7PathBufNvYB1s_NtNtBa_3cmp10PartialOrd2ltECskKWtASW8fos_18build_script_build, symObjAddr: 0x1044, symBinAddr: 0x1000089B4, symSize: 0x4B0 }
  - { offset: 0x17392, size: 0x8, addend: 0x0, symName: __RNvXs5_NtNtNtNtCsfvfooZQ3Axs_4core5slice4sort6shared9smallsortINtB5_10CopyOnDropNtNtCscOYdFFY2T5N_3std4path7PathBufENtNtNtBd_3ops4drop4Drop4dropCskKWtASW8fos_18build_script_build, symObjAddr: 0x1874, symBinAddr: 0x1000091E4, symSize: 0x84 }
  - { offset: 0x1779D, size: 0x8, addend: 0x0, symName: __RNvXs1_NtNtNtCsfvfooZQ3Axs_4core3ops8function5implsQNCNvCskKWtASW8fos_18build_script_build12compile_zstd0INtB7_5FnMutTNtNtCscOYdFFY2T5N_3std2fs8DirEntryEE8call_mutBS_, symObjAddr: 0x1818, symBinAddr: 0x100009188, symSize: 0x5C }
  - { offset: 0x1879A, size: 0x8, addend: 0x0, symName: __RINvMNtNtNtNtCsfvfooZQ3Axs_4core5slice4sort6stable5mergeINtB3_10MergeStateNtNtCscOYdFFY2T5N_3std4path7PathBufE10merge_downNvYB1a_NtNtBb_3cmp10PartialOrd2ltECskKWtASW8fos_18build_script_build, symObjAddr: 0x0, symBinAddr: 0x100007970, symSize: 0x1E0 }
  - { offset: 0x18930, size: 0x8, addend: 0x0, symName: __RINvMNtNtNtNtCsfvfooZQ3Axs_4core5slice4sort6stable5mergeINtB3_10MergeStateNtNtCscOYdFFY2T5N_3std4path7PathBufE8merge_upNvYB1a_NtNtBb_3cmp10PartialOrd2ltECskKWtASW8fos_18build_script_build, symObjAddr: 0x1E0, symBinAddr: 0x100007B50, symSize: 0x1A0 }
  - { offset: 0x18B82, size: 0x8, addend: 0x0, symName: __RNvCskKWtASW8fos_18build_script_build17generate_bindings, symObjAddr: 0x19DC, symBinAddr: 0x10000934C, symSize: 0x68 }
  - { offset: 0x18BB2, size: 0x8, addend: 0x0, symName: __RNvCskKWtASW8fos_18build_script_build10pkg_config, symObjAddr: 0x1A44, symBinAddr: 0x1000093B4, symSize: 0x334 }
  - { offset: 0x18BED, size: 0x8, addend: 0x0, symName: __RNvCskKWtASW8fos_18build_script_build10set_legacy, symObjAddr: 0x1D78, symBinAddr: 0x1000096E8, symSize: 0x78 }
  - { offset: 0x18C15, size: 0x8, addend: 0x0, symName: __RNvCskKWtASW8fos_18build_script_build11set_pthread, symObjAddr: 0x1DF0, symBinAddr: 0x100009760, symSize: 0x20 }
  - { offset: 0x18C3D, size: 0x8, addend: 0x0, symName: __RNvCskKWtASW8fos_18build_script_build16enable_threading, symObjAddr: 0x1E10, symBinAddr: 0x100009780, symSize: 0x20 }
  - { offset: 0x18C65, size: 0x8, addend: 0x0, symName: __RNvCskKWtASW8fos_18build_script_build12compile_zstd, symObjAddr: 0x1E30, symBinAddr: 0x1000097A0, symSize: 0xE50 }
  - { offset: 0x18E8E, size: 0x8, addend: 0x0, symName: __RNCNvCskKWtASW8fos_18build_script_build12compile_zstd0B3_, symObjAddr: 0x2C80, symBinAddr: 0x10000A5F0, symSize: 0x238 }
  - { offset: 0x18EDB, size: 0x8, addend: 0x0, symName: __RNCNvCskKWtASW8fos_18build_script_build12compile_zstds_0B3_, symObjAddr: 0x2EB8, symBinAddr: 0x10000A828, symSize: 0xE8 }
  - { offset: 0x18F21, size: 0x8, addend: 0x0, symName: __RNvCskKWtASW8fos_18build_script_build11cargo_print, symObjAddr: 0x2FA0, symBinAddr: 0x10000A910, symSize: 0x68 }
  - { offset: 0x18F4B, size: 0x8, addend: 0x0, symName: __RNvCskKWtASW8fos_18build_script_build4main, symObjAddr: 0x3008, symBinAddr: 0x10000A978, symSize: 0x658 }
  - { offset: 0x18FEF, size: 0x8, addend: 0x0, symName: __RNCNvCskKWtASW8fos_18build_script_build4main0B3_, symObjAddr: 0x3660, symBinAddr: 0x10000AFD0, symSize: 0x60 }
  - { offset: 0x19928, size: 0x8, addend: 0x0, symName: __RINvXs3_NtNtCsfvfooZQ3Axs_4core4hash5implsRNtCsdARyWrlPtHl_2cc12CompilerFlagNtB8_4Hash4hashNtNtNtCscOYdFFY2T5N_3std4hash6random13DefaultHasherEBH_, symObjAddr: 0x0, symBinAddr: 0x10000B070, symSize: 0x30 }
  - { offset: 0x19A51, size: 0x8, addend: 0x0, symName: __RNvXNvMs4_CsdARyWrlPtHl_2ccNtB8_5Build26windows_registry_find_toolNtB2_14BuildEnvGetterNtNtNtB8_7windows10find_tools9EnvGetter7get_env, symObjAddr: 0x1DBFC, symBinAddr: 0x10002734C, symSize: 0x50 }
  - { offset: 0x19A95, size: 0x8, addend: 0x0, symName: __RNCNvMs4_CsdARyWrlPtHl_2ccNtB7_5Build11try_compile0B7_, symObjAddr: 0x44A0, symBinAddr: 0x10000EB8C, symSize: 0x80 }
  - { offset: 0x19AE0, size: 0x8, addend: 0x0, symName: __RNCNvMs4_CsdARyWrlPtHl_2ccNtB7_5Build11try_compiles_0B7_, symObjAddr: 0x4520, symBinAddr: 0x10000EC0C, symSize: 0x54 }
  - { offset: 0x19B30, size: 0x8, addend: 0x0, symName: __RNCNCNvMs4_CsdARyWrlPtHl_2ccNtB9_5Build11try_compiles_00B9_, symObjAddr: 0x4574, symBinAddr: 0x10000EC60, symSize: 0xBC }
  - { offset: 0x19B8C, size: 0x8, addend: 0x0, symName: __RNCNCNCNvMs4_CsdARyWrlPtHl_2ccNtBb_5Build11try_compiles_000Bb_, symObjAddr: 0x4630, symBinAddr: 0x10000ED1C, symSize: 0x54 }
  - { offset: 0x19BE8, size: 0x8, addend: 0x0, symName: __RNCNvMs4_CsdARyWrlPtHl_2ccNtB7_5Build15compile_objects0B7_, symObjAddr: 0x4DB8, symBinAddr: 0x10000F05C, symSize: 0x3EC }
  - { offset: 0x19D16, size: 0x8, addend: 0x0, symName: __RNCNCNvMs4_CsdARyWrlPtHl_2ccNtB9_5Build15compile_objects00B9_, symObjAddr: 0x51A4, symBinAddr: 0x10000F448, symSize: 0xC8 }
  - { offset: 0x19D9F, size: 0x8, addend: 0x0, symName: __RNCNCNCNvMs4_CsdARyWrlPtHl_2ccNtBb_5Build15compile_objects000Bb_, symObjAddr: 0x526C, symBinAddr: 0x10000F510, symSize: 0x29C }
  - { offset: 0x19EA9, size: 0x8, addend: 0x0, symName: __RNCNvMs4_CsdARyWrlPtHl_2ccNtB7_5Build15compile_objectss_0B7_, symObjAddr: 0x5508, symBinAddr: 0x10000F7AC, symSize: 0x718 }
  - { offset: 0x1A0F3, size: 0x8, addend: 0x0, symName: __RNCNCNvMs4_CsdARyWrlPtHl_2ccNtB9_5Build15compile_objectss_00B9_, symObjAddr: 0x5C20, symBinAddr: 0x10000FEC4, symSize: 0x134 }
  - { offset: 0x1A1A2, size: 0x8, addend: 0x0, symName: __RNvXNvMs4_CsdARyWrlPtHl_2ccNtB8_5Build15compile_objectsNtB2_10KillOnDropNtNtNtCsfvfooZQ3Axs_4core3ops4drop4Drop4drop, symObjAddr: 0x5D54, symBinAddr: 0x10000FFF8, symSize: 0x40 }
  - { offset: 0x1A1E3, size: 0x8, addend: 0x0, symName: __RINvNvMs4_CsdARyWrlPtHl_2ccNtB8_5Build15compile_objects11cell_updateINtNtCse1nGBsou5OW_5alloc3vec3VecTNtNtCscOYdFFY2T5N_3std7process7CommandNtB2_10KillOnDropNtNtNtB8_8parallel9job_token8JobTokenEENCNCB2_00EB8_, symObjAddr: 0x5D94, symBinAddr: 0x100010038, symSize: 0xC8 }
  - { offset: 0x1A26B, size: 0x8, addend: 0x0, symName: __RINvNvMs4_CsdARyWrlPtHl_2ccNtB8_5Build15compile_objects11cell_updateINtNtCse1nGBsou5OW_5alloc3vec3VecTNtNtCscOYdFFY2T5N_3std7process7CommandNtB2_10KillOnDropNtNtNtB8_8parallel9job_token8JobTokenEENCNCB2_s_00EB8_, symObjAddr: 0x5E5C, symBinAddr: 0x100010100, symSize: 0xDC }
  - { offset: 0x1A64E, size: 0x8, addend: 0x0, symName: __RNCNvMs4_CsdARyWrlPtHl_2ccNtB7_5Build20msvc_macro_assembler0B7_, symObjAddr: 0xD9C8, symBinAddr: 0x100017750, symSize: 0x48 }
  - { offset: 0x1A695, size: 0x8, addend: 0x0, symName: __RNCNvMs4_CsdARyWrlPtHl_2ccNtB7_5Build8assemble0B7_, symObjAddr: 0xE4A0, symBinAddr: 0x100018228, symSize: 0x38 }
  - { offset: 0x1A6CE, size: 0x8, addend: 0x0, symName: __RNCNvMs4_CsdARyWrlPtHl_2ccNtB7_5Build8assembles_0B7_, symObjAddr: 0xE4D8, symBinAddr: 0x100018260, symSize: 0x9C }
  - { offset: 0x1A721, size: 0x8, addend: 0x0, symName: __RNCNCNvMs4_CsdARyWrlPtHl_2ccNtB9_5Build8assembles_00B9_, symObjAddr: 0xE574, symBinAddr: 0x1000182FC, symSize: 0x20 }
  - { offset: 0x1A767, size: 0x8, addend: 0x0, symName: __RNCNvMs4_CsdARyWrlPtHl_2ccNtB7_5Build17get_base_compiler0B7_, symObjAddr: 0x11620, symBinAddr: 0x10001B3A8, symSize: 0x410 }
  - { offset: 0x1A84B, size: 0x8, addend: 0x0, symName: __RNCNvMs4_CsdARyWrlPtHl_2ccNtB7_5Build17get_base_compilers_0B7_, symObjAddr: 0x11A30, symBinAddr: 0x10001B7B8, symSize: 0x194 }
  - { offset: 0x1A8B3, size: 0x8, addend: 0x0, symName: __RNCNvMs4_CsdARyWrlPtHl_2ccNtB7_5Build17get_base_compilers0_0B7_, symObjAddr: 0x11BC4, symBinAddr: 0x10001B94C, symSize: 0x34 }
  - { offset: 0x1A8E9, size: 0x8, addend: 0x0, symName: __RNCNvMs4_CsdARyWrlPtHl_2ccNtB7_5Build8env_tool0B7_, symObjAddr: 0x12938, symBinAddr: 0x10001C6C0, symSize: 0x48 }
  - { offset: 0x1A922, size: 0x8, addend: 0x0, symName: __RNCNvMs4_CsdARyWrlPtHl_2ccNtB7_5Build8env_tools_0B7_, symObjAddr: 0x12980, symBinAddr: 0x10001C708, symSize: 0x48 }
  - { offset: 0x1A96F, size: 0x8, addend: 0x0, symName: __RNCNvMs4_CsdARyWrlPtHl_2ccNtB7_5Build25get_base_archiver_variant0B7_, symObjAddr: 0x15780, symBinAddr: 0x10001EED0, symSize: 0x18C }
  - { offset: 0x1AA0D, size: 0x8, addend: 0x0, symName: __RNCNvMs4_CsdARyWrlPtHl_2ccNtB7_5Build25get_base_archiver_variants_0B7_, symObjAddr: 0x1590C, symBinAddr: 0x10001F05C, symSize: 0x478 }
  - { offset: 0x1AB07, size: 0x8, addend: 0x0, symName: __RNCNCNvMs4_CsdARyWrlPtHl_2ccNtB9_5Build25get_base_archiver_variants_00B9_, symObjAddr: 0x15D84, symBinAddr: 0x10001F4D4, symSize: 0x38 }
  - { offset: 0x1AB48, size: 0x8, addend: 0x0, symName: __RNCNvMs4_CsdARyWrlPtHl_2ccNtB7_5Build25get_base_archiver_variants0_0B7_, symObjAddr: 0x15DBC, symBinAddr: 0x10001F50C, symSize: 0x2C0 }
  - { offset: 0x1AC2E, size: 0x8, addend: 0x0, symName: __RNCNvMs4_CsdARyWrlPtHl_2ccNtB7_5Build25get_base_archiver_variants1_0B7_, symObjAddr: 0x1607C, symBinAddr: 0x10001F7CC, symSize: 0x3C }
  - { offset: 0x1AC82, size: 0x8, addend: 0x0, symName: __RNCNvMs4_CsdARyWrlPtHl_2ccNtB7_5Build17prefix_for_target0B7_, symObjAddr: 0x161A8, symBinAddr: 0x10001F8F8, symSize: 0xB8 }
  - { offset: 0x1ACBB, size: 0x8, addend: 0x0, symName: __RNCNvMs4_CsdARyWrlPtHl_2ccNtB7_5Build17prefix_for_targets_0B7_, symObjAddr: 0x16260, symBinAddr: 0x10001F9B0, symSize: 0x54 }
  - { offset: 0x1ACF0, size: 0x8, addend: 0x0, symName: __RNCNCNvMs4_CsdARyWrlPtHl_2ccNtB9_5Build17prefix_for_targets_00B9_, symObjAddr: 0x162B4, symBinAddr: 0x10001FA04, symSize: 0x118 }
  - { offset: 0x1AD31, size: 0x8, addend: 0x0, symName: __RNCNvMs4_CsdARyWrlPtHl_2ccNtB7_5Build17prefix_for_targets0_0B7_, symObjAddr: 0x163CC, symBinAddr: 0x10001FB1C, symSize: 0x1DB8 }
  - { offset: 0x1AD81, size: 0x8, addend: 0x0, symName: __RNCNvMs4_CsdARyWrlPtHl_2ccNtB7_5Build23find_working_gnu_prefix0B7_, symObjAddr: 0x182E4, symBinAddr: 0x100021A34, symSize: 0x6C }
  - { offset: 0x1ADE7, size: 0x8, addend: 0x0, symName: __RNCNCNvMs4_CsdARyWrlPtHl_2ccNtB9_5Build23find_working_gnu_prefix00B9_, symObjAddr: 0x18350, symBinAddr: 0x100021AA0, symSize: 0x2C4 }
  - { offset: 0x1AEB5, size: 0x8, addend: 0x0, symName: __RNCNvMs4_CsdARyWrlPtHl_2ccNtB7_5Build23find_working_gnu_prefixs_0B7_, symObjAddr: 0x18614, symBinAddr: 0x100021D64, symSize: 0x40 }
  - { offset: 0x1AEEB, size: 0x8, addend: 0x0, symName: __RNCNvMs4_CsdARyWrlPtHl_2ccNtB7_5Build9get_debug0B7_, symObjAddr: 0x18C3C, symBinAddr: 0x10002238C, symSize: 0x48 }
  - { offset: 0x1AF21, size: 0x8, addend: 0x0, symName: __RNCNvMs4_CsdARyWrlPtHl_2ccNtB7_5Build23get_shell_escaped_flags0B7_, symObjAddr: 0x18CC8, symBinAddr: 0x100022418, symSize: 0x48 }
  - { offset: 0x1AF57, size: 0x8, addend: 0x0, symName: __RNCNvMs4_CsdARyWrlPtHl_2ccNtB7_5Build23get_force_frame_pointer0B7_, symObjAddr: 0x19078, symBinAddr: 0x1000227C8, symSize: 0x38 }
  - { offset: 0x1AF8D, size: 0x8, addend: 0x0, symName: __RNCNvMs4_CsdARyWrlPtHl_2ccNtB7_5Build11get_out_dir0B7_, symObjAddr: 0x191F4, symBinAddr: 0x100022944, symSize: 0x48 }
  - { offset: 0x1AFC4, size: 0x8, addend: 0x0, symName: __RNvNvMs4_CsdARyWrlPtHl_2ccNtB7_5Build6getenv17provided_by_cargo, symObjAddr: 0x19784, symBinAddr: 0x100022ED4, symSize: 0x2D0 }
  - { offset: 0x1B026, size: 0x8, addend: 0x0, symName: __RNCNvMs4_CsdARyWrlPtHl_2ccNtB7_5Build17getenv_unwrap_str0B7_, symObjAddr: 0x19E98, symBinAddr: 0x1000235E8, symSize: 0x90 }
  - { offset: 0x1B07A, size: 0x8, addend: 0x0, symName: __RNCNvMs4_CsdARyWrlPtHl_2ccNtB7_5Build27getenv_with_target_prefixes0B7_, symObjAddr: 0x1A658, symBinAddr: 0x100023DA8, symSize: 0x68 }
  - { offset: 0x1B0D3, size: 0x8, addend: 0x0, symName: __RNCNvMs4_CsdARyWrlPtHl_2ccNtB7_5Build20apple_sdk_root_inner0B7_, symObjAddr: 0x1B7EC, symBinAddr: 0x100024F3C, symSize: 0xC4 }
  - { offset: 0x1B12E, size: 0x8, addend: 0x0, symName: __RNCNCNvMs4_CsdARyWrlPtHl_2ccNtB9_5Build20apple_sdk_root_inner00B9_, symObjAddr: 0x1B8B0, symBinAddr: 0x100025000, symSize: 0x48 }
  - { offset: 0x1B188, size: 0x8, addend: 0x0, symName: __RNCNvMs4_CsdARyWrlPtHl_2ccNtB7_5Build23apple_deployment_target0B7_, symObjAddr: 0x1C2C4, symBinAddr: 0x100025A14, symSize: 0x2E4 }
  - { offset: 0x1B22F, size: 0x8, addend: 0x0, symName: __RNCNvMs4_CsdARyWrlPtHl_2ccNtB7_5Build23apple_deployment_targets_0B7_, symObjAddr: 0x1C5A8, symBinAddr: 0x100025CF8, symSize: 0x17C }
  - { offset: 0x1B2B1, size: 0x8, addend: 0x0, symName: __RNCNCNvMs4_CsdARyWrlPtHl_2ccNtB9_5Build23apple_deployment_targets_00B9_, symObjAddr: 0x1C724, symBinAddr: 0x100025E74, symSize: 0x88 }
  - { offset: 0x1B303, size: 0x8, addend: 0x0, symName: __RNCNCNvMs4_CsdARyWrlPtHl_2ccNtB9_5Build23apple_deployment_targets_0s_0B9_, symObjAddr: 0x1C7AC, symBinAddr: 0x100025EFC, symSize: 0x2C }
  - { offset: 0x1B338, size: 0x8, addend: 0x0, symName: __RNCNCNvMs4_CsdARyWrlPtHl_2ccNtB9_5Build23apple_deployment_targets_0s0_0B9_, symObjAddr: 0x1C7D8, symBinAddr: 0x100025F28, symSize: 0x48 }
  - { offset: 0x1B381, size: 0x8, addend: 0x0, symName: __RNCNvMs4_CsdARyWrlPtHl_2ccNtB7_5Build23apple_deployment_targets0_0B7_, symObjAddr: 0x1C820, symBinAddr: 0x100025F70, symSize: 0x3B0 }
  - { offset: 0x1B434, size: 0x8, addend: 0x0, symName: __RNCNCNvMs4_CsdARyWrlPtHl_2ccNtB9_5Build23apple_deployment_targets0_00B9_, symObjAddr: 0x1CBD0, symBinAddr: 0x100026320, symSize: 0x7C }
  - { offset: 0x1B475, size: 0x8, addend: 0x0, symName: __RNCNvMs4_CsdARyWrlPtHl_2ccNtB7_5Build23apple_deployment_targets1_0B7_, symObjAddr: 0x1CC4C, symBinAddr: 0x10002639C, symSize: 0x168 }
  - { offset: 0x1B4CE, size: 0x8, addend: 0x0, symName: __RNCNvMs4_CsdARyWrlPtHl_2ccNtB7_5Build23apple_deployment_targets2_0B7_, symObjAddr: 0x1CDB4, symBinAddr: 0x100026504, symSize: 0x44 }
  - { offset: 0x1B4F8, size: 0x8, addend: 0x0, symName: __RNCNvMs4_CsdARyWrlPtHl_2ccNtB7_5Build23apple_deployment_targets3_0B7_, symObjAddr: 0x1CDF8, symBinAddr: 0x100026548, symSize: 0x44 }
  - { offset: 0x1B522, size: 0x8, addend: 0x0, symName: __RNCNvMs4_CsdARyWrlPtHl_2ccNtB7_5Build23apple_deployment_targets4_0B7_, symObjAddr: 0x1CE3C, symBinAddr: 0x10002658C, symSize: 0x44 }
  - { offset: 0x1B54C, size: 0x8, addend: 0x0, symName: __RNCNvMs4_CsdARyWrlPtHl_2ccNtB7_5Build23apple_deployment_targets5_0B7_, symObjAddr: 0x1CE80, symBinAddr: 0x1000265D0, symSize: 0x44 }
  - { offset: 0x1B5E7, size: 0x8, addend: 0x0, symName: __RNCNvMs4_CsdARyWrlPtHl_2ccNtB7_5Build15cuda_file_count0B7_, symObjAddr: 0x1D1A4, symBinAddr: 0x1000268F4, symSize: 0x80 }
  - { offset: 0x1B62D, size: 0x8, addend: 0x0, symName: __RNvNvMs4_CsdARyWrlPtHl_2ccNtB7_5Build5which9check_exe, symObjAddr: 0x1D30C, symBinAddr: 0x100026A5C, symSize: 0x1B4 }
  - { offset: 0x1B691, size: 0x8, addend: 0x0, symName: __RNCNvMs4_CsdARyWrlPtHl_2ccNtB7_5Build5which0B7_, symObjAddr: 0x1D4C0, symBinAddr: 0x100026C10, symSize: 0x6C }
  - { offset: 0x1B6D6, size: 0x8, addend: 0x0, symName: __RNCNCNvMs4_CsdARyWrlPtHl_2ccNtB9_5Build5which00B9_, symObjAddr: 0x1D52C, symBinAddr: 0x100026C7C, symSize: 0xB4 }
  - { offset: 0x1B718, size: 0x8, addend: 0x0, symName: __RNCNvMs4_CsdARyWrlPtHl_2ccNtB7_5Build5whichs_0B7_, symObjAddr: 0x1D5E0, symBinAddr: 0x100026D30, symSize: 0x114 }
  - { offset: 0x1B7B0, size: 0x8, addend: 0x0, symName: __RNCNvMs4_CsdARyWrlPtHl_2ccNtB7_5Build21windows_registry_find0B7_, symObjAddr: 0x1DAD8, symBinAddr: 0x100027228, symSize: 0x64 }
  - { offset: 0x1C71F, size: 0x8, addend: 0x0, symName: __RNvCsdARyWrlPtHl_2cc32NEW_STANDALONE_ANDROID_COMPILERS, symObjAddr: 0x24660, symBinAddr: 0x10017B338, symSize: 0x0 }
  - { offset: 0x1C73F, size: 0x8, addend: 0x0, symName: __RNvNvCsdARyWrlPtHl_2cc11is_disabled5CACHE, symObjAddr: 0x71F78, symBinAddr: 0x100195468, symSize: 0x0 }
  - { offset: 0x1C74C, size: 0x8, addend: 0x0, symName: __RNvNvCsdARyWrlPtHl_2cc11is_disabled19compute_is_disabled, symObjAddr: 0x1EF38, symBinAddr: 0x100028664, symSize: 0x1D0 }
  - { offset: 0x1C7F2, size: 0x8, addend: 0x0, symName: __RNvXs_CsdARyWrlPtHl_2ccNtB4_5ErrorINtNtCsfvfooZQ3Axs_4core7convert4FromNtNtNtCscOYdFFY2T5N_3std2io5error5ErrorE4from, symObjAddr: 0x320, symBinAddr: 0x10000B390, symSize: 0xD0 }
  - { offset: 0x1C844, size: 0x8, addend: 0x0, symName: __RNvXs0_CsdARyWrlPtHl_2ccNtB5_5ErrorNtNtCsfvfooZQ3Axs_4core3fmt7Display3fmt, symObjAddr: 0x3F0, symBinAddr: 0x10000B460, symSize: 0x84 }
  - { offset: 0x1CCCA, size: 0x8, addend: 0x0, symName: __RNvCsdARyWrlPtHl_2cc4fail, symObjAddr: 0x1DC70, symBinAddr: 0x10002739C, symSize: 0x64 }
  - { offset: 0x1CCF4, size: 0x8, addend: 0x0, symName: __RNvCsdARyWrlPtHl_2cc49android_clang_compiler_uses_target_arg_internally, symObjAddr: 0x1DCD4, symBinAddr: 0x100027400, symSize: 0x15C }
  - { offset: 0x1CD64, size: 0x8, addend: 0x0, symName: __RNvCsdARyWrlPtHl_2cc27autodetect_android_compiler, symObjAddr: 0x1DE30, symBinAddr: 0x10002755C, symSize: 0x80C }
  - { offset: 0x1CEB4, size: 0x8, addend: 0x0, symName: __RNCNvCsdARyWrlPtHl_2cc27autodetect_android_compiler0B3_, symObjAddr: 0x1E63C, symBinAddr: 0x100027D68, symSize: 0x68 }
  - { offset: 0x1CEF2, size: 0x8, addend: 0x0, symName: __RNCNCNvCsdARyWrlPtHl_2cc27autodetect_android_compiler00B5_, symObjAddr: 0x1E6A4, symBinAddr: 0x100027DD0, symSize: 0x58 }
  - { offset: 0x1CF3B, size: 0x8, addend: 0x0, symName: __RNvCsdARyWrlPtHl_2cc52map_darwin_target_from_rust_to_compiler_architecture, symObjAddr: 0x1E6FC, symBinAddr: 0x100027E28, symSize: 0x3F8 }
  - { offset: 0x1CF87, size: 0x8, addend: 0x0, symName: __RNvCsdARyWrlPtHl_2cc6is_arm, symObjAddr: 0x1EAF4, symBinAddr: 0x100028220, symSize: 0x104 }
  - { offset: 0x1CFB5, size: 0x8, addend: 0x0, symName: __RNvCsdARyWrlPtHl_2cc11is_disabled, symObjAddr: 0x1EDE8, symBinAddr: 0x100028514, symSize: 0x150 }
  - { offset: 0x1D01E, size: 0x8, addend: 0x0, symName: __RNvCsdARyWrlPtHl_2cc14check_disabled, symObjAddr: 0x1F108, symBinAddr: 0x100028834, symSize: 0x98 }
  - { offset: 0x1D041, size: 0x8, addend: 0x0, symName: __RNvXsa_CsdARyWrlPtHl_2ccNtB5_12CompilerFlagNtNtCsfvfooZQ3Axs_4core3cmp9PartialEq2eqB5_, symObjAddr: 0x1F1A0, symBinAddr: 0x1000288CC, symSize: 0x60 }
  - { offset: 0x1D084, size: 0x8, addend: 0x0, symName: __RINvXsb_CsdARyWrlPtHl_2ccNtB6_12CompilerFlagNtNtCsfvfooZQ3Axs_4core4hash4Hash4hashNtNtNtCscOYdFFY2T5N_3std4hash6random13DefaultHasherEB6_, symObjAddr: 0x1F200, symBinAddr: 0x10002892C, symSize: 0x40 }
  - { offset: 0x1D0CC, size: 0x8, addend: 0x0, symName: __RNvXsd_CsdARyWrlPtHl_2ccNtB5_10BuildCacheNtNtCsfvfooZQ3Axs_4core7default7Default7defaultB5_, symObjAddr: 0x1F240, symBinAddr: 0x10002896C, symSize: 0x180 }
  - { offset: 0x1D0F0, size: 0x8, addend: 0x0, symName: __RNvXsg_CsdARyWrlPtHl_2ccNtB5_9ErrorKindNtNtCsfvfooZQ3Axs_4core5clone5Clone5cloneB5_, symObjAddr: 0x1F3C0, symBinAddr: 0x100028AEC, symSize: 0x13C }
  - { offset: 0x1D124, size: 0x8, addend: 0x0, symName: __RNvXsh_CsdARyWrlPtHl_2ccNtB5_9ErrorKindNtNtCsfvfooZQ3Axs_4core3fmt5Debug3fmtB5_, symObjAddr: 0x1F4FC, symBinAddr: 0x100028C28, symSize: 0x1E4 }
  - { offset: 0x1D167, size: 0x8, addend: 0x0, symName: __RNvXsi_CsdARyWrlPtHl_2ccNtB5_5ErrorNtNtCsfvfooZQ3Axs_4core5clone5Clone5cloneB5_, symObjAddr: 0x1F6E0, symBinAddr: 0x100028E0C, symSize: 0x5C }
  - { offset: 0x1D19B, size: 0x8, addend: 0x0, symName: __RNvXsj_CsdARyWrlPtHl_2ccNtB5_5ErrorNtNtCsfvfooZQ3Axs_4core3fmt5Debug3fmtB5_, symObjAddr: 0x1F73C, symBinAddr: 0x100028E68, symSize: 0x88 }
  - { offset: 0x1D1DE, size: 0x8, addend: 0x0, symName: __RNvXsp_CsdARyWrlPtHl_2ccNtB5_10AsmFileExtNtNtCsfvfooZQ3Axs_4core3cmp9PartialEq2eqB5_, symObjAddr: 0x1F7C4, symBinAddr: 0x100028EF0, symSize: 0x3C }
  - { offset: 0x21529, size: 0x8, addend: 0x0, symName: __RINvXs3_NtNtCsfvfooZQ3Axs_4core4hash5implsRNtCsdARyWrlPtHl_2cc12CompilerFlagNtB8_4Hash4hashNtNtNtCscOYdFFY2T5N_3std4hash6random13DefaultHasherEBH_, symObjAddr: 0x0, symBinAddr: 0x10000B070, symSize: 0x30 }
  - { offset: 0x21643, size: 0x8, addend: 0x0, symName: __RNvMNtCsfvfooZQ3Axs_4core5sliceSNtCsdARyWrlPtHl_2cc6Object4iterBw_, symObjAddr: 0x30, symBinAddr: 0x10000B0A0, symSize: 0x28 }
  - { offset: 0x21700, size: 0x8, addend: 0x0, symName: __RNvXs_NtNtCsfvfooZQ3Axs_4core5slice4iterRSNtCsdARyWrlPtHl_2cc6ObjectNtNtNtNtB8_4iter6traits7collect12IntoIterator9into_iterBG_, symObjAddr: 0x1E8, symBinAddr: 0x10000B258, symSize: 0x58 }
  - { offset: 0x21A84, size: 0x8, addend: 0x0, symName: __RNvXNtCsfvfooZQ3Axs_4core6borrowNtCsdARyWrlPtHl_2cc12CompilerFlagINtB2_6BorrowBu_E6borrowBw_, symObjAddr: 0xA8, symBinAddr: 0x10000B118, symSize: 0x14 }
  - { offset: 0x21ACA, size: 0x8, addend: 0x0, symName: __RNvXs1_NtNtCsfvfooZQ3Axs_4core3ops5derefQNCNvMs4_CsdARyWrlPtHl_2ccNtBL_5Build15compile_objects0NtB5_8DerefMut9deref_mutBL_, symObjAddr: 0xBC, symBinAddr: 0x10000B12C, symSize: 0x18 }
  - { offset: 0x21B01, size: 0x8, addend: 0x0, symName: __RNvXs1_NtNtCsfvfooZQ3Axs_4core3ops5derefQNCNvMs4_CsdARyWrlPtHl_2ccNtBL_5Build15compile_objectss_0NtB5_8DerefMut9deref_mutBL_, symObjAddr: 0xD4, symBinAddr: 0x10000B144, symSize: 0x18 }
  - { offset: 0x21B49, size: 0x8, addend: 0x0, symName: __RNvXs1_NtNtNtCsfvfooZQ3Axs_4core3ops8function5implsQNCNvMs4_CsdARyWrlPtHl_2ccNtBW_5Build25get_base_archiver_variants0_0INtB7_5FnMutTRReEE8call_mutBW_, symObjAddr: 0xEC, symBinAddr: 0x10000B15C, symSize: 0x30 }
  - { offset: 0x21B98, size: 0x8, addend: 0x0, symName: __RNvXs1_NtNtNtCsfvfooZQ3Axs_4core3ops8function5implsQNCNvMs4_CsdARyWrlPtHl_2ccNtBW_5Build27getenv_with_target_prefixes0INtB7_5FnMutTRNtNtCse1nGBsou5OW_5alloc6string6StringEE8call_mutBW_, symObjAddr: 0x11C, symBinAddr: 0x10000B18C, symSize: 0x30 }
  - { offset: 0x21BED, size: 0x8, addend: 0x0, symName: __RNvXs2_NtNtNtCsfvfooZQ3Axs_4core3ops8function5implsQNCNCNvMs4_CsdARyWrlPtHl_2ccNtBY_5Build23apple_deployment_targets0_00INtB7_6FnOnceTReEE9call_onceBY_, symObjAddr: 0x14C, symBinAddr: 0x10000B1BC, symSize: 0x34 }
  - { offset: 0x21C3C, size: 0x8, addend: 0x0, symName: __RNvXs2_NtNtNtCsfvfooZQ3Axs_4core3ops8function5implsQNCNvMs4_CsdARyWrlPtHl_2ccNtBW_5Build8env_tool0INtB7_6FnOnceTReEE9call_onceBW_, symObjAddr: 0x180, symBinAddr: 0x10000B1F0, symSize: 0x34 }
  - { offset: 0x21C8B, size: 0x8, addend: 0x0, symName: __RNvXs2_NtNtNtCsfvfooZQ3Axs_4core3ops8function5implsQNCNvMs4_CsdARyWrlPtHl_2ccNtBW_5Build8env_tools_0INtB7_6FnOnceTReEE9call_onceBW_, symObjAddr: 0x1B4, symBinAddr: 0x10000B224, symSize: 0x34 }
  - { offset: 0x23C2E, size: 0x8, addend: 0x0, symName: __RNvXCsloNvcHxBCre_9hashbrownNtCsdARyWrlPtHl_2cc12CompilerFlagINtB2_10EquivalentBq_E10equivalentBs_, symObjAddr: 0x58, symBinAddr: 0x10000B0C8, symSize: 0x50 }
  - { offset: 0x24121, size: 0x8, addend: 0x0, symName: __RINvMCsdARyWrlPtHl_2ccNtB3_5Error3newNtNtCse1nGBsou5OW_5alloc6string6StringEB3_, symObjAddr: 0x240, symBinAddr: 0x10000B2B0, symSize: 0x68 }
  - { offset: 0x2415D, size: 0x8, addend: 0x0, symName: __RINvMCsdARyWrlPtHl_2ccNtB3_5Error3newReEB3_, symObjAddr: 0x2A8, symBinAddr: 0x10000B318, symSize: 0x78 }
  - { offset: 0x24198, size: 0x8, addend: 0x0, symName: __RNvMs2_CsdARyWrlPtHl_2ccNtB5_6Object3new, symObjAddr: 0x474, symBinAddr: 0x10000B4E4, symSize: 0x38 }
  - { offset: 0x241CA, size: 0x8, addend: 0x0, symName: __RNvMs3_CsdARyWrlPtHl_2ccNtB5_5Build3new, symObjAddr: 0x4AC, symBinAddr: 0x10000B51C, symSize: 0x4C8 }
  - { offset: 0x24208, size: 0x8, addend: 0x0, symName: __RINvMs3_CsdARyWrlPtHl_2ccNtB6_5Build4flagRNtNtNtCscOYdFFY2T5N_3std3ffi6os_str5OsStrEB6_, symObjAddr: 0x974, symBinAddr: 0x10000B9E4, symSize: 0xAC }
  - { offset: 0x24293, size: 0x8, addend: 0x0, symName: __RNvMs3_CsdARyWrlPtHl_2ccNtB5_5Build3cpp, symObjAddr: 0xEF0, symBinAddr: 0x10000BA90, symSize: 0x2C }
  - { offset: 0x242C5, size: 0x8, addend: 0x0, symName: __RNvMs3_CsdARyWrlPtHl_2ccNtB5_5Build4cuda, symObjAddr: 0xF1C, symBinAddr: 0x10000BABC, symSize: 0xE4 }
  - { offset: 0x242F7, size: 0x8, addend: 0x0, symName: __RNvMs3_CsdARyWrlPtHl_2ccNtB5_5Build8warnings, symObjAddr: 0x11E4, symBinAddr: 0x10000BBA0, symSize: 0x40 }
  - { offset: 0x24329, size: 0x8, addend: 0x0, symName: __RNvMs3_CsdARyWrlPtHl_2ccNtB5_5Build6target, symObjAddr: 0x1284, symBinAddr: 0x10000BBE0, symSize: 0xB0 }
  - { offset: 0x2435B, size: 0x8, addend: 0x0, symName: __RNvMs3_CsdARyWrlPtHl_2ccNtB5_5Build4host, symObjAddr: 0x1334, symBinAddr: 0x10000BC90, symSize: 0xB0 }
  - { offset: 0x2438D, size: 0x8, addend: 0x0, symName: __RNvMs3_CsdARyWrlPtHl_2ccNtB5_5Build9opt_level, symObjAddr: 0x13E4, symBinAddr: 0x10000BD40, symSize: 0xB4 }
  - { offset: 0x243BF, size: 0x8, addend: 0x0, symName: __RNvMs3_CsdARyWrlPtHl_2ccNtB5_5Build5debug, symObjAddr: 0x1548, symBinAddr: 0x10000BDF4, symSize: 0x34 }
  - { offset: 0x243F1, size: 0x8, addend: 0x0, symName: __RINvMs3_CsdARyWrlPtHl_2ccNtB6_5Build8compilerRNtNtCscOYdFFY2T5N_3std4path4PathEB6_, symObjAddr: 0x15B0, symBinAddr: 0x10000BE28, symSize: 0xE4 }
  - { offset: 0x2442C, size: 0x8, addend: 0x0, symName: __RNvMs3_CsdARyWrlPtHl_2ccNtB5_5Build14cargo_metadata, symObjAddr: 0x1694, symBinAddr: 0x10000BF0C, symSize: 0x2C }
  - { offset: 0x2445E, size: 0x8, addend: 0x0, symName: __RNvMs3_CsdARyWrlPtHl_2ccNtB5_5Build25emit_rerun_if_env_changed, symObjAddr: 0x17E4, symBinAddr: 0x10000BF38, symSize: 0x2C }
  - { offset: 0x24490, size: 0x8, addend: 0x0, symName: __RNvMs3_CsdARyWrlPtHl_2ccNtB5_5Build17inherit_rustflags, symObjAddr: 0x1878, symBinAddr: 0x10000BF64, symSize: 0x2C }
  - { offset: 0x244C2, size: 0x8, addend: 0x0, symName: __RNvMs4_CsdARyWrlPtHl_2ccNtB5_5Build17ensure_check_file, symObjAddr: 0x18A4, symBinAddr: 0x10000BF90, symSize: 0x420 }
  - { offset: 0x24686, size: 0x8, addend: 0x0, symName: __RNvMs4_CsdARyWrlPtHl_2ccNtB5_5Build23is_flag_supported_inner, symObjAddr: 0x1CC4, symBinAddr: 0x10000C3B0, symSize: 0xE9C }
  - { offset: 0x249C3, size: 0x8, addend: 0x0, symName: __RNvMs4_CsdARyWrlPtHl_2ccNtB5_5Build11try_compile, symObjAddr: 0x2B60, symBinAddr: 0x10000D24C, symSize: 0x1940 }
  - { offset: 0x24D8D, size: 0x8, addend: 0x0, symName: __RNvMs4_CsdARyWrlPtHl_2ccNtB5_5Build7compile, symObjAddr: 0x4684, symBinAddr: 0x10000ED70, symSize: 0xDC }
  - { offset: 0x24DD5, size: 0x8, addend: 0x0, symName: __RNvMs4_CsdARyWrlPtHl_2ccNtB5_5Build15compile_objects, symObjAddr: 0x4BA8, symBinAddr: 0x10000EE4C, symSize: 0x210 }
  - { offset: 0x252A9, size: 0x8, addend: 0x0, symName: __RNvMs4_CsdARyWrlPtHl_2ccNtB5_5Build26compile_objects_sequential, symObjAddr: 0x5F38, symBinAddr: 0x1000101DC, symSize: 0x250 }
  - { offset: 0x25497, size: 0x8, addend: 0x0, symName: __RNvMs4_CsdARyWrlPtHl_2ccNtB5_5Build25create_compile_object_cmd, symObjAddr: 0x6188, symBinAddr: 0x10001042C, symSize: 0x88C }
  - { offset: 0x256A7, size: 0x8, addend: 0x0, symName: __RNvMs4_CsdARyWrlPtHl_2ccNtB5_5Build12get_compiler, symObjAddr: 0x6F30, symBinAddr: 0x100010CB8, symSize: 0xF8 }
  - { offset: 0x256E1, size: 0x8, addend: 0x0, symName: __RNvMs4_CsdARyWrlPtHl_2ccNtB5_5Build16try_get_compiler, symObjAddr: 0x7028, symBinAddr: 0x100010DB0, symSize: 0x1238 }
  - { offset: 0x25AA2, size: 0x8, addend: 0x0, symName: __RNvMs4_CsdARyWrlPtHl_2ccNtB5_5Build17add_default_flags, symObjAddr: 0x8260, symBinAddr: 0x100011FE8, symSize: 0x48F8 }
  - { offset: 0x25F0F, size: 0x8, addend: 0x0, symName: __RNvMs4_CsdARyWrlPtHl_2ccNtB5_5Build23add_inherited_rustflags, symObjAddr: 0xCB58, symBinAddr: 0x1000168E0, symSize: 0x24C }
  - { offset: 0x25FF2, size: 0x8, addend: 0x0, symName: __RNvMs4_CsdARyWrlPtHl_2ccNtB5_5Build20msvc_macro_assembler, symObjAddr: 0xCDA4, symBinAddr: 0x100016B2C, symSize: 0xC24 }
  - { offset: 0x26241, size: 0x8, addend: 0x0, symName: __RNvMs4_CsdARyWrlPtHl_2ccNtB5_5Build8assemble, symObjAddr: 0xDA10, symBinAddr: 0x100017798, symSize: 0xA90 }
  - { offset: 0x264B7, size: 0x8, addend: 0x0, symName: __RNvMs4_CsdARyWrlPtHl_2ccNtB5_5Build20assemble_progressive, symObjAddr: 0xE594, symBinAddr: 0x10001831C, symSize: 0x5F8 }
  - { offset: 0x265F3, size: 0x8, addend: 0x0, symName: __RNvMs4_CsdARyWrlPtHl_2ccNtB5_5Build11apple_flags, symObjAddr: 0xEB8C, symBinAddr: 0x100018914, symSize: 0x9B0 }
  - { offset: 0x2674A, size: 0x8, addend: 0x0, symName: __RINvMs4_CsdARyWrlPtHl_2ccNtB6_5Build3cmdNtNtCscOYdFFY2T5N_3std4path7PathBufEB6_, symObjAddr: 0xF53C, symBinAddr: 0x1000192C4, symSize: 0x170 }
  - { offset: 0x267E2, size: 0x8, addend: 0x0, symName: __RINvMs4_CsdARyWrlPtHl_2ccNtB6_5Build3cmdRNtNtCscOYdFFY2T5N_3std4path4PathEB6_, symObjAddr: 0xF6AC, symBinAddr: 0x100019434, symSize: 0x180 }
  - { offset: 0x26887, size: 0x8, addend: 0x0, symName: __RINvMs4_CsdARyWrlPtHl_2ccNtB6_5Build3cmdRNtNtCscOYdFFY2T5N_3std4path7PathBufEB6_, symObjAddr: 0xF82C, symBinAddr: 0x1000195B4, symSize: 0x178 }
  - { offset: 0x2691E, size: 0x8, addend: 0x0, symName: __RINvMs4_CsdARyWrlPtHl_2ccNtB6_5Build3cmdReEB6_, symObjAddr: 0xF9A4, symBinAddr: 0x10001972C, symSize: 0x180 }
  - { offset: 0x269B6, size: 0x8, addend: 0x0, symName: __RNvMs4_CsdARyWrlPtHl_2ccNtB5_5Build17get_base_compiler, symObjAddr: 0xFB24, symBinAddr: 0x1000198AC, symSize: 0x1AFC }
  - { offset: 0x26DA1, size: 0x8, addend: 0x0, symName: __RNvMs4_CsdARyWrlPtHl_2ccNtB5_5Build22rustc_wrapper_fallback, symObjAddr: 0x11BF8, symBinAddr: 0x10001B980, symSize: 0x2DC }
  - { offset: 0x26F11, size: 0x8, addend: 0x0, symName: __RNvMs4_CsdARyWrlPtHl_2ccNtB5_5Build8env_tool, symObjAddr: 0x11ED4, symBinAddr: 0x10001BC5C, symSize: 0xA64 }
  - { offset: 0x27112, size: 0x8, addend: 0x0, symName: __RNvMs4_CsdARyWrlPtHl_2ccNtB5_5Build19get_cpp_link_stdlib, symObjAddr: 0x129C8, symBinAddr: 0x10001C750, symSize: 0x720 }
  - { offset: 0x271BF, size: 0x8, addend: 0x0, symName: __RNvMs4_CsdARyWrlPtHl_2ccNtB5_5Build16try_get_archiver, symObjAddr: 0x131D4, symBinAddr: 0x10001CE70, symSize: 0x120 }
  - { offset: 0x27249, size: 0x8, addend: 0x0, symName: __RNvMs4_CsdARyWrlPtHl_2ccNtB5_5Build26try_get_archiver_and_flags, symObjAddr: 0x132F4, symBinAddr: 0x10001CF90, symSize: 0x3E8 }
  - { offset: 0x2736A, size: 0x8, addend: 0x0, symName: __RNvMs4_CsdARyWrlPtHl_2ccNtB5_5Build17get_base_archiver, symObjAddr: 0x136DC, symBinAddr: 0x10001D378, symSize: 0x15C }
  - { offset: 0x273B9, size: 0x8, addend: 0x0, symName: __RNvMs4_CsdARyWrlPtHl_2ccNtB5_5Build25get_base_archiver_variant, symObjAddr: 0x13D84, symBinAddr: 0x10001D4D4, symSize: 0x19FC }
  - { offset: 0x27774, size: 0x8, addend: 0x0, symName: __RNvMs4_CsdARyWrlPtHl_2ccNtB5_5Build17prefix_for_target, symObjAddr: 0x160B8, symBinAddr: 0x10001F808, symSize: 0xF0 }
  - { offset: 0x277A6, size: 0x8, addend: 0x0, symName: __RNvMs4_CsdARyWrlPtHl_2ccNtB5_5Build23find_working_gnu_prefix, symObjAddr: 0x18184, symBinAddr: 0x1000218D4, symSize: 0x160 }
  - { offset: 0x27807, size: 0x8, addend: 0x0, symName: __RNvMs4_CsdARyWrlPtHl_2ccNtB5_5Build10get_target, symObjAddr: 0x18654, symBinAddr: 0x100021DA4, symSize: 0x180 }
  - { offset: 0x27859, size: 0x8, addend: 0x0, symName: __RNvMs4_CsdARyWrlPtHl_2ccNtB5_5Build14get_raw_target, symObjAddr: 0x187D4, symBinAddr: 0x100021F24, symSize: 0xD4 }
  - { offset: 0x2789A, size: 0x8, addend: 0x0, symName: __RNvMs4_CsdARyWrlPtHl_2ccNtB5_5Build20get_is_cross_compile, symObjAddr: 0x188A8, symBinAddr: 0x100021FF8, symSize: 0x27C }
  - { offset: 0x2795E, size: 0x8, addend: 0x0, symName: __RNvMs4_CsdARyWrlPtHl_2ccNtB5_5Build13get_opt_level, symObjAddr: 0x18B24, symBinAddr: 0x100022274, symSize: 0xD4 }
  - { offset: 0x2799F, size: 0x8, addend: 0x0, symName: __RNvMs4_CsdARyWrlPtHl_2ccNtB5_5Build9get_debug, symObjAddr: 0x18BF8, symBinAddr: 0x100022348, symSize: 0x44 }
  - { offset: 0x279C2, size: 0x8, addend: 0x0, symName: __RNvMs4_CsdARyWrlPtHl_2ccNtB5_5Build23get_shell_escaped_flags, symObjAddr: 0x18C84, symBinAddr: 0x1000223D4, symSize: 0x44 }
  - { offset: 0x279E5, size: 0x8, addend: 0x0, symName: __RNvMs4_CsdARyWrlPtHl_2ccNtB5_5Build17get_dwarf_version, symObjAddr: 0x18D10, symBinAddr: 0x100022460, symSize: 0x324 }
  - { offset: 0x27A5B, size: 0x8, addend: 0x0, symName: __RNvMs4_CsdARyWrlPtHl_2ccNtB5_5Build23get_force_frame_pointer, symObjAddr: 0x19034, symBinAddr: 0x100022784, symSize: 0x44 }
  - { offset: 0x27A7E, size: 0x8, addend: 0x0, symName: __RNvMs4_CsdARyWrlPtHl_2ccNtB5_5Build11get_out_dir, symObjAddr: 0x190B0, symBinAddr: 0x100022800, symSize: 0x144 }
  - { offset: 0x27B45, size: 0x8, addend: 0x0, symName: __RNvMs4_CsdARyWrlPtHl_2ccNtB5_5Build6getenv, symObjAddr: 0x1923C, symBinAddr: 0x10002298C, symSize: 0x548 }
  - { offset: 0x27C12, size: 0x8, addend: 0x0, symName: __RNvMs4_CsdARyWrlPtHl_2ccNtB5_5Build14getenv_boolean, symObjAddr: 0x19A54, symBinAddr: 0x1000231A4, symSize: 0x1CC }
  - { offset: 0x27C5B, size: 0x8, addend: 0x0, symName: __RNvMs4_CsdARyWrlPtHl_2ccNtB5_5Build13getenv_unwrap, symObjAddr: 0x19C20, symBinAddr: 0x100023370, symSize: 0x120 }
  - { offset: 0x27CCA, size: 0x8, addend: 0x0, symName: __RNvMs4_CsdARyWrlPtHl_2ccNtB5_5Build17getenv_unwrap_str, symObjAddr: 0x19D40, symBinAddr: 0x100023490, symSize: 0x158 }
  - { offset: 0x27D5D, size: 0x8, addend: 0x0, symName: __RNvMs4_CsdARyWrlPtHl_2ccNtB5_5Build11target_envs, symObjAddr: 0x19F28, symBinAddr: 0x100023678, symSize: 0x46C }
  - { offset: 0x27E96, size: 0x8, addend: 0x0, symName: __RNvMs4_CsdARyWrlPtHl_2ccNtB5_5Build27getenv_with_target_prefixes, symObjAddr: 0x1A394, symBinAddr: 0x100023AE4, symSize: 0x2C4 }
  - { offset: 0x27F64, size: 0x8, addend: 0x0, symName: __RNvMs4_CsdARyWrlPtHl_2ccNtB5_5Build8envflags, symObjAddr: 0x1A6C0, symBinAddr: 0x100023E10, symSize: 0x52C }
  - { offset: 0x2806A, size: 0x8, addend: 0x0, symName: __RNvMs4_CsdARyWrlPtHl_2ccNtB5_5Build20fix_env_for_apple_os, symObjAddr: 0x1ABEC, symBinAddr: 0x10002433C, symSize: 0x158 }
  - { offset: 0x280F0, size: 0x8, addend: 0x0, symName: __RNvMs4_CsdARyWrlPtHl_2ccNtB5_5Build20apple_sdk_root_inner, symObjAddr: 0x1AD44, symBinAddr: 0x100024494, symSize: 0xAA8 }
  - { offset: 0x281F2, size: 0x8, addend: 0x0, symName: __RNvMs4_CsdARyWrlPtHl_2ccNtB5_5Build14apple_sdk_root, symObjAddr: 0x1B8F8, symBinAddr: 0x100025048, symSize: 0x3CC }
  - { offset: 0x282A7, size: 0x8, addend: 0x0, symName: __RNvMs4_CsdARyWrlPtHl_2ccNtB5_5Build23apple_deployment_target, symObjAddr: 0x1BCC4, symBinAddr: 0x100025414, symSize: 0x600 }
  - { offset: 0x28382, size: 0x8, addend: 0x0, symName: __RNvMs4_CsdARyWrlPtHl_2ccNtB5_5Build17wasm_musl_sysroot, symObjAddr: 0x1CEC4, symBinAddr: 0x100026614, symSize: 0x150 }
  - { offset: 0x283C3, size: 0x8, addend: 0x0, symName: __RNvMs4_CsdARyWrlPtHl_2ccNtB5_5Build12wasi_sysroot, symObjAddr: 0x1D014, symBinAddr: 0x100026764, symSize: 0x150 }
  - { offset: 0x28404, size: 0x8, addend: 0x0, symName: __RNvMs4_CsdARyWrlPtHl_2ccNtB5_5Build15cuda_file_count, symObjAddr: 0x1D164, symBinAddr: 0x1000268B4, symSize: 0x40 }
  - { offset: 0x28427, size: 0x8, addend: 0x0, symName: __RNvMs4_CsdARyWrlPtHl_2ccNtB5_5Build5which, symObjAddr: 0x1D224, symBinAddr: 0x100026974, symSize: 0xE8 }
  - { offset: 0x2848E, size: 0x8, addend: 0x0, symName: __RNvMs4_CsdARyWrlPtHl_2ccNtB5_5Build15search_programs, symObjAddr: 0x1D6F4, symBinAddr: 0x100026E44, symSize: 0x384 }
  - { offset: 0x285A8, size: 0x8, addend: 0x0, symName: __RNvMs4_CsdARyWrlPtHl_2ccNtB5_5Build21windows_registry_find, symObjAddr: 0x1DA78, symBinAddr: 0x1000271C8, symSize: 0x60 }
  - { offset: 0x285E9, size: 0x8, addend: 0x0, symName: __RNvMs4_CsdARyWrlPtHl_2ccNtB5_5Build26windows_registry_find_tool, symObjAddr: 0x1DB3C, symBinAddr: 0x10002728C, symSize: 0xC0 }
  - { offset: 0x2862A, size: 0x8, addend: 0x0, symName: __RNvMs6_CsdARyWrlPtHl_2ccNtB5_10AsmFileExt9from_path, symObjAddr: 0x1EBF8, symBinAddr: 0x100028324, symSize: 0x1F0 }
  - { offset: 0x28AD9, size: 0x8, addend: 0x0, symName: __RINvMs6_NtCsloNvcHxBCre_9hashbrown3rawINtB6_8RawTableTINtNtCse1nGBsou5OW_5alloc5boxed3BoxSIBR_NtNtNtCscOYdFFY2T5N_3std3ffi6os_str5OsStrEENtNtCsdARyWrlPtHl_2cc4tool10ToolFamilyEE14reserve_rehashNCINvNtB8_3map11make_hasherBQ_B2b_NtNtNtB1A_4hash6random11RandomStateE0EB2f_, symObjAddr: 0x0, symBinAddr: 0x100108628, symSize: 0x840 }
  - { offset: 0x28B15, size: 0x8, addend: 0x0, symName: __RNCINvMs6_NtCsloNvcHxBCre_9hashbrown3rawINtB8_8RawTableTINtNtCse1nGBsou5OW_5alloc5boxed3BoxSIBT_NtNtNtCscOYdFFY2T5N_3std3ffi6os_str5OsStrEENtNtCsdARyWrlPtHl_2cc4tool10ToolFamilyEE14reserve_rehashNCINvNtBa_3map11make_hasherBS_B2d_NtNtNtB1C_4hash6random11RandomStateE0E0B2h_, symObjAddr: 0x5C10, symBinAddr: 0x10002C20C, symSize: 0xC0 }
  - { offset: 0x28CD2, size: 0x8, addend: 0x0, symName: __RNCINvMs6_NtCsloNvcHxBCre_9hashbrown3rawINtB8_8RawTableTINtNtCse1nGBsou5OW_5alloc5boxed3BoxSIBT_NtNtNtCscOYdFFY2T5N_3std3ffi6os_str5OsStrEENtNtCsdARyWrlPtHl_2cc4tool10ToolFamilyEE14reserve_rehashNCINvNtBa_3map11make_hasherBS_B2d_NtNtNtB1C_4hash6random11RandomStateE0Es_0B2h_, symObjAddr: 0x5CD0, symBinAddr: 0x10002C2CC, symSize: 0x30 }
  - { offset: 0x28D22, size: 0x8, addend: 0x0, symName: __RNCINvMs6_NtCsloNvcHxBCre_9hashbrown3rawINtB8_8RawTableTINtNtCse1nGBsou5OW_5alloc5boxed3BoxeEINtNtBX_4sync3ArcNtNtNtCscOYdFFY2T5N_3std3ffi6os_str5OsStrEEE14reserve_rehashNCINvNtBa_3map11make_hasherBS_B1t_NtNtNtB1Q_4hash6random11RandomStateE0E0CsdARyWrlPtHl_2cc, symObjAddr: 0x5E88, symBinAddr: 0x10002C484, symSize: 0xC0 }
  - { offset: 0x28EDF, size: 0x8, addend: 0x0, symName: __RNCINvMs6_NtCsloNvcHxBCre_9hashbrown3rawINtB8_8RawTableTINtNtCse1nGBsou5OW_5alloc5boxed3BoxeEINtNtBX_4sync3ArcNtNtNtCscOYdFFY2T5N_3std3ffi6os_str5OsStrEEE14reserve_rehashNCINvNtBa_3map11make_hasherBS_B1t_NtNtNtB1Q_4hash6random11RandomStateE0Es_0CsdARyWrlPtHl_2cc, symObjAddr: 0x5F48, symBinAddr: 0x10002C544, symSize: 0x30 }
  - { offset: 0x28F2F, size: 0x8, addend: 0x0, symName: __RNCINvMs6_NtCsloNvcHxBCre_9hashbrown3rawINtB8_8RawTableTINtNtCse1nGBsou5OW_5alloc5boxed3BoxeEINtNtBX_4sync3ArceEEE14reserve_rehashNCINvNtBa_3map11make_hasherBS_B1t_NtNtNtCscOYdFFY2T5N_3std4hash6random11RandomStateE0E0CsdARyWrlPtHl_2cc, symObjAddr: 0x6100, symBinAddr: 0x10002C6FC, symSize: 0xC0 }
  - { offset: 0x290EC, size: 0x8, addend: 0x0, symName: __RNCINvMs6_NtCsloNvcHxBCre_9hashbrown3rawINtB8_8RawTableTINtNtCse1nGBsou5OW_5alloc5boxed3BoxeEINtNtBX_4sync3ArceEEE14reserve_rehashNCINvNtBa_3map11make_hasherBS_B1t_NtNtNtCscOYdFFY2T5N_3std4hash6random11RandomStateE0Es_0CsdARyWrlPtHl_2cc, symObjAddr: 0x61C0, symBinAddr: 0x10002C7BC, symSize: 0x30 }
  - { offset: 0x2913C, size: 0x8, addend: 0x0, symName: __RNCINvMs6_NtCsloNvcHxBCre_9hashbrown3rawINtB8_8RawTableTINtNtCse1nGBsou5OW_5alloc5boxed3BoxeEINtNtCsfvfooZQ3Axs_4core6option6OptionINtNtBX_4sync3ArcNtNtNtCscOYdFFY2T5N_3std3ffi6os_str5OsStrEEEE14reserve_rehashNCINvNtBa_3map11make_hasherBS_B1t_NtNtNtB2s_4hash6random11RandomStateE0E0CsdARyWrlPtHl_2cc, symObjAddr: 0x6378, symBinAddr: 0x10002C974, symSize: 0xC0 }
  - { offset: 0x292F9, size: 0x8, addend: 0x0, symName: __RNCINvMs6_NtCsloNvcHxBCre_9hashbrown3rawINtB8_8RawTableTINtNtCse1nGBsou5OW_5alloc5boxed3BoxeEINtNtCsfvfooZQ3Axs_4core6option6OptionINtNtBX_4sync3ArcNtNtNtCscOYdFFY2T5N_3std3ffi6os_str5OsStrEEEE14reserve_rehashNCINvNtBa_3map11make_hasherBS_B1t_NtNtNtB2s_4hash6random11RandomStateE0Es_0CsdARyWrlPtHl_2cc, symObjAddr: 0x6438, symBinAddr: 0x10002CA34, symSize: 0x30 }
  - { offset: 0x29349, size: 0x8, addend: 0x0, symName: __RNCINvMs6_NtCsloNvcHxBCre_9hashbrown3rawINtB8_8RawTableTNtCsdARyWrlPtHl_2cc12CompilerFlagbEE14reserve_rehashNCINvNtBa_3map11make_hasherBS_bNtNtNtCscOYdFFY2T5N_3std4hash6random11RandomStateE0E0BU_, symObjAddr: 0x65F0, symBinAddr: 0x10002CBEC, symSize: 0xC0 }
  - { offset: 0x29506, size: 0x8, addend: 0x0, symName: __RNCINvMs6_NtCsloNvcHxBCre_9hashbrown3rawINtB8_8RawTableTNtCsdARyWrlPtHl_2cc12CompilerFlagbEE14reserve_rehashNCINvNtBa_3map11make_hasherBS_bNtNtNtCscOYdFFY2T5N_3std4hash6random11RandomStateE0Es_0BU_, symObjAddr: 0x66B0, symBinAddr: 0x10002CCAC, symSize: 0x30 }
  - { offset: 0x2957F, size: 0x8, addend: 0x0, symName: __RNCINvMs6_NtCsloNvcHxBCre_9hashbrown3rawINtB8_8RawTableTINtNtCse1nGBsou5OW_5alloc5boxed3BoxSIBT_NtNtNtCscOYdFFY2T5N_3std3ffi6os_str5OsStrEENtNtCsdARyWrlPtHl_2cc4tool10ToolFamilyEE24find_or_find_insert_slotNCINvNtBa_3map14equivalent_keyBS_BS_B2d_E0NCINvB3m_11make_hasherBS_B2d_NtNtNtB1C_4hash6random11RandomStateE0E0B2h_, symObjAddr: 0x5D00, symBinAddr: 0x10002C2FC, symSize: 0xC4 }
  - { offset: 0x2974C, size: 0x8, addend: 0x0, symName: __RNCINvMs6_NtCsloNvcHxBCre_9hashbrown3rawINtB8_8RawTableTINtNtCse1nGBsou5OW_5alloc5boxed3BoxeEINtNtBX_4sync3ArcNtNtNtCscOYdFFY2T5N_3std3ffi6os_str5OsStrEEE24find_or_find_insert_slotNCINvNtBa_3map14equivalent_keyBS_BS_B1t_E0NCINvB2X_11make_hasherBS_B1t_NtNtNtB1Q_4hash6random11RandomStateE0E0CsdARyWrlPtHl_2cc, symObjAddr: 0x5F78, symBinAddr: 0x10002C574, symSize: 0xC4 }
  - { offset: 0x29919, size: 0x8, addend: 0x0, symName: __RNCINvMs6_NtCsloNvcHxBCre_9hashbrown3rawINtB8_8RawTableTINtNtCse1nGBsou5OW_5alloc5boxed3BoxeEINtNtBX_4sync3ArceEEE24find_or_find_insert_slotNCINvNtBa_3map14equivalent_keyBS_BS_B1t_E0NCINvB2j_11make_hasherBS_B1t_NtNtNtCscOYdFFY2T5N_3std4hash6random11RandomStateE0E0CsdARyWrlPtHl_2cc, symObjAddr: 0x61F0, symBinAddr: 0x10002C7EC, symSize: 0xC4 }
  - { offset: 0x29AE6, size: 0x8, addend: 0x0, symName: __RNCINvMs6_NtCsloNvcHxBCre_9hashbrown3rawINtB8_8RawTableTINtNtCse1nGBsou5OW_5alloc5boxed3BoxeEINtNtCsfvfooZQ3Axs_4core6option6OptionINtNtBX_4sync3ArcNtNtNtCscOYdFFY2T5N_3std3ffi6os_str5OsStrEEEE24find_or_find_insert_slotNCINvNtBa_3map14equivalent_keyBS_BS_B1t_E0NCINvB3A_11make_hasherBS_B1t_NtNtNtB2s_4hash6random11RandomStateE0E0CsdARyWrlPtHl_2cc, symObjAddr: 0x6468, symBinAddr: 0x10002CA64, symSize: 0xC4 }
  - { offset: 0x29CB3, size: 0x8, addend: 0x0, symName: __RNCINvMs6_NtCsloNvcHxBCre_9hashbrown3rawINtB8_8RawTableTNtCsdARyWrlPtHl_2cc12CompilerFlagbEE24find_or_find_insert_slotNCINvNtBa_3map14equivalent_keyBS_BS_bE0NCINvB1X_11make_hasherBS_bNtNtNtCscOYdFFY2T5N_3std4hash6random11RandomStateE0E0BU_, symObjAddr: 0x66E0, symBinAddr: 0x10002CCDC, symSize: 0xC4 }
  - { offset: 0x29E86, size: 0x8, addend: 0x0, symName: __RNCINvMs6_NtCsloNvcHxBCre_9hashbrown3rawINtB8_8RawTableTINtNtCse1nGBsou5OW_5alloc5boxed3BoxSIBT_NtNtNtCscOYdFFY2T5N_3std3ffi6os_str5OsStrEENtNtCsdARyWrlPtHl_2cc4tool10ToolFamilyEE4findNCINvNtBa_3map14equivalent_keyBS_BS_B2d_E0E0B2h_, symObjAddr: 0x5DC4, symBinAddr: 0x10002C3C0, symSize: 0xC4 }
  - { offset: 0x2A04A, size: 0x8, addend: 0x0, symName: __RNCINvMs6_NtCsloNvcHxBCre_9hashbrown3rawINtB8_8RawTableTINtNtCse1nGBsou5OW_5alloc5boxed3BoxeEINtNtBX_4sync3ArcNtNtNtCscOYdFFY2T5N_3std3ffi6os_str5OsStrEEE4findNCINvNtBa_3map14equivalent_keyeBS_B1t_E0E0CsdARyWrlPtHl_2cc, symObjAddr: 0x603C, symBinAddr: 0x10002C638, symSize: 0xC4 }
  - { offset: 0x2A20E, size: 0x8, addend: 0x0, symName: __RNCINvMs6_NtCsloNvcHxBCre_9hashbrown3rawINtB8_8RawTableTINtNtCse1nGBsou5OW_5alloc5boxed3BoxeEINtNtBX_4sync3ArceEEE4findNCINvNtBa_3map14equivalent_keyeBS_B1t_E0E0CsdARyWrlPtHl_2cc, symObjAddr: 0x62B4, symBinAddr: 0x10002C8B0, symSize: 0xC4 }
  - { offset: 0x2A3D2, size: 0x8, addend: 0x0, symName: __RNCINvMs6_NtCsloNvcHxBCre_9hashbrown3rawINtB8_8RawTableTINtNtCse1nGBsou5OW_5alloc5boxed3BoxeEINtNtCsfvfooZQ3Axs_4core6option6OptionINtNtBX_4sync3ArcNtNtNtCscOYdFFY2T5N_3std3ffi6os_str5OsStrEEEE4findNCINvNtBa_3map14equivalent_keyeBS_B1t_E0E0CsdARyWrlPtHl_2cc, symObjAddr: 0x652C, symBinAddr: 0x10002CB28, symSize: 0xC4 }
  - { offset: 0x2A596, size: 0x8, addend: 0x0, symName: __RNCINvMs6_NtCsloNvcHxBCre_9hashbrown3rawINtB8_8RawTableTNtCsdARyWrlPtHl_2cc12CompilerFlagbEE4findNCINvNtBa_3map14equivalent_keyBS_BS_bE0E0BU_, symObjAddr: 0x67A4, symBinAddr: 0x10002CDA0, symSize: 0xC4 }
  - { offset: 0x2B874, size: 0x8, addend: 0x0, symName: __RNCINvMsa_NtCsloNvcHxBCre_9hashbrown3rawNtB8_13RawTableInner14prepare_resizeNtNtCse1nGBsou5OW_5alloc5alloc6GlobalE0CsdARyWrlPtHl_2cc, symObjAddr: 0x6868, symBinAddr: 0x10002CE64, symSize: 0xBC }
  - { offset: 0x2BA57, size: 0x8, addend: 0x0, symName: __RNCNvMsa_NtCsloNvcHxBCre_9hashbrown3rawNtB7_13RawTableInner15rehash_in_place0CsdARyWrlPtHl_2cc, symObjAddr: 0x6924, symBinAddr: 0x10002CF20, symSize: 0x23C }
  - { offset: 0x2C756, size: 0x8, addend: 0x0, symName: __RNvNtCsloNvcHxBCre_9hashbrown3raw19capacity_to_bucketsCsdARyWrlPtHl_2cc, symObjAddr: 0x8550, symBinAddr: 0x10002EB4C, symSize: 0x198 }
  - { offset: 0x2C911, size: 0x8, addend: 0x0, symName: __RNvXsg_NtCsloNvcHxBCre_9hashbrown3rawINtB5_8RawTableTINtNtCse1nGBsou5OW_5alloc5boxed3BoxSIBQ_NtNtNtCscOYdFFY2T5N_3std3ffi6os_str5OsStrEENtNtCsdARyWrlPtHl_2cc4tool10ToolFamilyEENtNtNtCsfvfooZQ3Axs_4core3ops4drop4Drop4dropB2e_, symObjAddr: 0x86E8, symBinAddr: 0x10002ECE4, symSize: 0x3C }
  - { offset: 0x2C94D, size: 0x8, addend: 0x0, symName: __RNvXsg_NtCsloNvcHxBCre_9hashbrown3rawINtB5_8RawTableTINtNtCse1nGBsou5OW_5alloc5boxed3BoxeEINtNtBU_4sync3ArcNtNtNtCscOYdFFY2T5N_3std3ffi6os_str5OsStrEEENtNtNtCsfvfooZQ3Axs_4core3ops4drop4Drop4dropCsdARyWrlPtHl_2cc, symObjAddr: 0x8724, symBinAddr: 0x10002ED20, symSize: 0x3C }
  - { offset: 0x2C989, size: 0x8, addend: 0x0, symName: __RNvXsg_NtCsloNvcHxBCre_9hashbrown3rawINtB5_8RawTableTINtNtCse1nGBsou5OW_5alloc5boxed3BoxeEINtNtBU_4sync3ArceEEENtNtNtCsfvfooZQ3Axs_4core3ops4drop4Drop4dropCsdARyWrlPtHl_2cc, symObjAddr: 0x8760, symBinAddr: 0x10002ED5C, symSize: 0x3C }
  - { offset: 0x2C9C5, size: 0x8, addend: 0x0, symName: __RNvXsg_NtCsloNvcHxBCre_9hashbrown3rawINtB5_8RawTableTINtNtCse1nGBsou5OW_5alloc5boxed3BoxeEINtNtCsfvfooZQ3Axs_4core6option6OptionINtNtBU_4sync3ArcNtNtNtCscOYdFFY2T5N_3std3ffi6os_str5OsStrEEEENtNtNtB1v_3ops4drop4Drop4dropCsdARyWrlPtHl_2cc, symObjAddr: 0x879C, symBinAddr: 0x10002ED98, symSize: 0x3C }
  - { offset: 0x2CA01, size: 0x8, addend: 0x0, symName: __RNvXsg_NtCsloNvcHxBCre_9hashbrown3rawINtB5_8RawTableTNtCsdARyWrlPtHl_2cc12CompilerFlagbEENtNtNtCsfvfooZQ3Axs_4core3ops4drop4Drop4dropBR_, symObjAddr: 0x87D8, symBinAddr: 0x10002EDD4, symSize: 0x3C }
  - { offset: 0x32214, size: 0x8, addend: 0x0, symName: __RINvMs6_NtCsloNvcHxBCre_9hashbrown3rawINtB6_8RawTableTINtNtCse1nGBsou5OW_5alloc5boxed3BoxSIBR_NtNtNtCscOYdFFY2T5N_3std3ffi6os_str5OsStrEENtNtCsdARyWrlPtHl_2cc4tool10ToolFamilyEE14reserve_rehashNCINvNtB8_3map11make_hasherBQ_B2b_NtNtNtB1A_4hash6random11RandomStateE0EB2f_, symObjAddr: 0x0, symBinAddr: 0x100108628, symSize: 0x840 }
  - { offset: 0x32C04, size: 0x8, addend: 0x0, symName: __RINvMs6_NtCsloNvcHxBCre_9hashbrown3rawINtB6_8RawTableTINtNtCse1nGBsou5OW_5alloc5boxed3BoxSIBR_NtNtNtCscOYdFFY2T5N_3std3ffi6os_str5OsStrEENtNtCsdARyWrlPtHl_2cc4tool10ToolFamilyEE24find_or_find_insert_slotNCINvNtB8_3map14equivalent_keyBQ_BQ_B2b_E0NCINvB3k_11make_hasherBQ_B2b_NtNtNtB1A_4hash6random11RandomStateE0EB2f_, symObjAddr: 0x840, symBinAddr: 0x100028F2C, symSize: 0x13C }
  - { offset: 0x3307E, size: 0x8, addend: 0x0, symName: __RINvMs6_NtCsloNvcHxBCre_9hashbrown3rawINtB6_8RawTableTINtNtCse1nGBsou5OW_5alloc5boxed3BoxSIBR_NtNtNtCscOYdFFY2T5N_3std3ffi6os_str5OsStrEENtNtCsdARyWrlPtHl_2cc4tool10ToolFamilyEE4findNCINvNtB8_3map14equivalent_keyBQ_BQ_B2b_E0EB2f_, symObjAddr: 0x97C, symBinAddr: 0x100029068, symSize: 0x330 }
  - { offset: 0x33539, size: 0x8, addend: 0x0, symName: __RINvMs6_NtCsloNvcHxBCre_9hashbrown3rawINtB6_8RawTableTINtNtCse1nGBsou5OW_5alloc5boxed3BoxSIBR_NtNtNtCscOYdFFY2T5N_3std3ffi6os_str5OsStrEENtNtCsdARyWrlPtHl_2cc4tool10ToolFamilyEE7reserveNCINvNtB8_3map11make_hasherBQ_B2b_NtNtNtB1A_4hash6random11RandomStateE0EB2f_, symObjAddr: 0xCAC, symBinAddr: 0x100029398, symSize: 0xCC }
  - { offset: 0x33611, size: 0x8, addend: 0x0, symName: __RINvMs6_NtCsloNvcHxBCre_9hashbrown3rawINtB6_8RawTableTINtNtCse1nGBsou5OW_5alloc5boxed3BoxeEINtNtBV_4sync3ArcNtNtNtCscOYdFFY2T5N_3std3ffi6os_str5OsStrEEE14reserve_rehashNCINvNtB8_3map11make_hasherBQ_B1r_NtNtNtB1O_4hash6random11RandomStateE0ECsdARyWrlPtHl_2cc, symObjAddr: 0xD78, symBinAddr: 0x100108E68, symSize: 0x840 }
  - { offset: 0x34001, size: 0x8, addend: 0x0, symName: __RINvMs6_NtCsloNvcHxBCre_9hashbrown3rawINtB6_8RawTableTINtNtCse1nGBsou5OW_5alloc5boxed3BoxeEINtNtBV_4sync3ArcNtNtNtCscOYdFFY2T5N_3std3ffi6os_str5OsStrEEE24find_or_find_insert_slotNCINvNtB8_3map14equivalent_keyBQ_BQ_B1r_E0NCINvB2V_11make_hasherBQ_B1r_NtNtNtB1O_4hash6random11RandomStateE0ECsdARyWrlPtHl_2cc, symObjAddr: 0x15B8, symBinAddr: 0x100029464, symSize: 0x13C }
  - { offset: 0x3427B, size: 0x8, addend: 0x0, symName: __RINvMs6_NtCsloNvcHxBCre_9hashbrown3rawINtB6_8RawTableTINtNtCse1nGBsou5OW_5alloc5boxed3BoxeEINtNtBV_4sync3ArcNtNtNtCscOYdFFY2T5N_3std3ffi6os_str5OsStrEEE4findNCINvNtB8_3map14equivalent_keyeBQ_B1r_E0ECsdARyWrlPtHl_2cc, symObjAddr: 0x16F4, symBinAddr: 0x1000295A0, symSize: 0x334 }
  - { offset: 0x34729, size: 0x8, addend: 0x0, symName: __RINvMs6_NtCsloNvcHxBCre_9hashbrown3rawINtB6_8RawTableTINtNtCse1nGBsou5OW_5alloc5boxed3BoxeEINtNtBV_4sync3ArcNtNtNtCscOYdFFY2T5N_3std3ffi6os_str5OsStrEEE7reserveNCINvNtB8_3map11make_hasherBQ_B1r_NtNtNtB1O_4hash6random11RandomStateE0ECsdARyWrlPtHl_2cc, symObjAddr: 0x1A28, symBinAddr: 0x1000298D4, symSize: 0xCC }
  - { offset: 0x34801, size: 0x8, addend: 0x0, symName: __RINvMs6_NtCsloNvcHxBCre_9hashbrown3rawINtB6_8RawTableTINtNtCse1nGBsou5OW_5alloc5boxed3BoxeEINtNtBV_4sync3ArceEEE14reserve_rehashNCINvNtB8_3map11make_hasherBQ_B1r_NtNtNtCscOYdFFY2T5N_3std4hash6random11RandomStateE0ECsdARyWrlPtHl_2cc, symObjAddr: 0x1AF4, symBinAddr: 0x1001096A8, symSize: 0x840 }
  - { offset: 0x351F1, size: 0x8, addend: 0x0, symName: __RINvMs6_NtCsloNvcHxBCre_9hashbrown3rawINtB6_8RawTableTINtNtCse1nGBsou5OW_5alloc5boxed3BoxeEINtNtBV_4sync3ArceEEE24find_or_find_insert_slotNCINvNtB8_3map14equivalent_keyBQ_BQ_B1r_E0NCINvB2h_11make_hasherBQ_B1r_NtNtNtCscOYdFFY2T5N_3std4hash6random11RandomStateE0ECsdARyWrlPtHl_2cc, symObjAddr: 0x2334, symBinAddr: 0x1000299A0, symSize: 0x13C }
  - { offset: 0x3546B, size: 0x8, addend: 0x0, symName: __RINvMs6_NtCsloNvcHxBCre_9hashbrown3rawINtB6_8RawTableTINtNtCse1nGBsou5OW_5alloc5boxed3BoxeEINtNtBV_4sync3ArceEEE4findNCINvNtB8_3map14equivalent_keyeBQ_B1r_E0ECsdARyWrlPtHl_2cc, symObjAddr: 0x2470, symBinAddr: 0x100029ADC, symSize: 0x334 }
  - { offset: 0x35919, size: 0x8, addend: 0x0, symName: __RINvMs6_NtCsloNvcHxBCre_9hashbrown3rawINtB6_8RawTableTINtNtCse1nGBsou5OW_5alloc5boxed3BoxeEINtNtBV_4sync3ArceEEE7reserveNCINvNtB8_3map11make_hasherBQ_B1r_NtNtNtCscOYdFFY2T5N_3std4hash6random11RandomStateE0ECsdARyWrlPtHl_2cc, symObjAddr: 0x27A4, symBinAddr: 0x100029E10, symSize: 0xCC }
  - { offset: 0x359F1, size: 0x8, addend: 0x0, symName: __RINvMs6_NtCsloNvcHxBCre_9hashbrown3rawINtB6_8RawTableTINtNtCse1nGBsou5OW_5alloc5boxed3BoxeEINtNtCsfvfooZQ3Axs_4core6option6OptionINtNtBV_4sync3ArcNtNtNtCscOYdFFY2T5N_3std3ffi6os_str5OsStrEEEE14reserve_rehashNCINvNtB8_3map11make_hasherBQ_B1r_NtNtNtB2q_4hash6random11RandomStateE0ECsdARyWrlPtHl_2cc, symObjAddr: 0x2870, symBinAddr: 0x100109EE8, symSize: 0x840 }
  - { offset: 0x363E1, size: 0x8, addend: 0x0, symName: __RINvMs6_NtCsloNvcHxBCre_9hashbrown3rawINtB6_8RawTableTINtNtCse1nGBsou5OW_5alloc5boxed3BoxeEINtNtCsfvfooZQ3Axs_4core6option6OptionINtNtBV_4sync3ArcNtNtNtCscOYdFFY2T5N_3std3ffi6os_str5OsStrEEEE24find_or_find_insert_slotNCINvNtB8_3map14equivalent_keyBQ_BQ_B1r_E0NCINvB3y_11make_hasherBQ_B1r_NtNtNtB2q_4hash6random11RandomStateE0ECsdARyWrlPtHl_2cc, symObjAddr: 0x30B0, symBinAddr: 0x100029EDC, symSize: 0x13C }
  - { offset: 0x3665B, size: 0x8, addend: 0x0, symName: __RINvMs6_NtCsloNvcHxBCre_9hashbrown3rawINtB6_8RawTableTINtNtCse1nGBsou5OW_5alloc5boxed3BoxeEINtNtCsfvfooZQ3Axs_4core6option6OptionINtNtBV_4sync3ArcNtNtNtCscOYdFFY2T5N_3std3ffi6os_str5OsStrEEEE4findNCINvNtB8_3map14equivalent_keyeBQ_B1r_E0ECsdARyWrlPtHl_2cc, symObjAddr: 0x31EC, symBinAddr: 0x10002A018, symSize: 0x334 }
  - { offset: 0x36B09, size: 0x8, addend: 0x0, symName: __RINvMs6_NtCsloNvcHxBCre_9hashbrown3rawINtB6_8RawTableTINtNtCse1nGBsou5OW_5alloc5boxed3BoxeEINtNtCsfvfooZQ3Axs_4core6option6OptionINtNtBV_4sync3ArcNtNtNtCscOYdFFY2T5N_3std3ffi6os_str5OsStrEEEE7reserveNCINvNtB8_3map11make_hasherBQ_B1r_NtNtNtB2q_4hash6random11RandomStateE0ECsdARyWrlPtHl_2cc, symObjAddr: 0x3520, symBinAddr: 0x10002A34C, symSize: 0xCC }
  - { offset: 0x36BE1, size: 0x8, addend: 0x0, symName: __RINvMs6_NtCsloNvcHxBCre_9hashbrown3rawINtB6_8RawTableTNtCsdARyWrlPtHl_2cc12CompilerFlagbEE14reserve_rehashNCINvNtB8_3map11make_hasherBQ_bNtNtNtCscOYdFFY2T5N_3std4hash6random11RandomStateE0EBS_, symObjAddr: 0x35EC, symBinAddr: 0x10010A728, symSize: 0x830 }
  - { offset: 0x375D1, size: 0x8, addend: 0x0, symName: __RINvMs6_NtCsloNvcHxBCre_9hashbrown3rawINtB6_8RawTableTNtCsdARyWrlPtHl_2cc12CompilerFlagbEE24find_or_find_insert_slotNCINvNtB8_3map14equivalent_keyBQ_BQ_bE0NCINvB1V_11make_hasherBQ_bNtNtNtCscOYdFFY2T5N_3std4hash6random11RandomStateE0EBS_, symObjAddr: 0x3E1C, symBinAddr: 0x10002A418, symSize: 0x13C }
  - { offset: 0x3784B, size: 0x8, addend: 0x0, symName: __RINvMs6_NtCsloNvcHxBCre_9hashbrown3rawINtB6_8RawTableTNtCsdARyWrlPtHl_2cc12CompilerFlagbEE4findNCINvNtB8_3map14equivalent_keyBQ_BQ_bE0EBS_, symObjAddr: 0x3F58, symBinAddr: 0x10002A554, symSize: 0x330 }
  - { offset: 0x37CF9, size: 0x8, addend: 0x0, symName: __RINvMs6_NtCsloNvcHxBCre_9hashbrown3rawINtB6_8RawTableTNtCsdARyWrlPtHl_2cc12CompilerFlagbEE7reserveNCINvNtB8_3map11make_hasherBQ_bNtNtNtCscOYdFFY2T5N_3std4hash6random11RandomStateE0EBS_, symObjAddr: 0x4288, symBinAddr: 0x10002A884, symSize: 0xCC }
  - { offset: 0x37EDD, size: 0x8, addend: 0x0, symName: __RINvMsa_NtCsloNvcHxBCre_9hashbrown3rawNtB6_13RawTableInner13drop_elementsTINtNtCse1nGBsou5OW_5alloc5boxed3BoxSIB1b_NtNtNtCscOYdFFY2T5N_3std3ffi6os_str5OsStrEENtNtCsdARyWrlPtHl_2cc4tool10ToolFamilyEEB2A_, symObjAddr: 0x4354, symBinAddr: 0x10002A950, symSize: 0x174 }
  - { offset: 0x3821C, size: 0x8, addend: 0x0, symName: __RINvMsa_NtCsloNvcHxBCre_9hashbrown3rawNtB6_13RawTableInner13drop_elementsTINtNtCse1nGBsou5OW_5alloc5boxed3BoxeEINtNtB1f_4sync3ArcNtNtNtCscOYdFFY2T5N_3std3ffi6os_str5OsStrEEECsdARyWrlPtHl_2cc, symObjAddr: 0x44C8, symBinAddr: 0x10002AAC4, symSize: 0x174 }
  - { offset: 0x3855B, size: 0x8, addend: 0x0, symName: __RINvMsa_NtCsloNvcHxBCre_9hashbrown3rawNtB6_13RawTableInner13drop_elementsTINtNtCse1nGBsou5OW_5alloc5boxed3BoxeEINtNtB1f_4sync3ArceEEECsdARyWrlPtHl_2cc, symObjAddr: 0x463C, symBinAddr: 0x10002AC38, symSize: 0x174 }
  - { offset: 0x3889A, size: 0x8, addend: 0x0, symName: __RINvMsa_NtCsloNvcHxBCre_9hashbrown3rawNtB6_13RawTableInner13drop_elementsTINtNtCse1nGBsou5OW_5alloc5boxed3BoxeEINtNtCsfvfooZQ3Axs_4core6option6OptionINtNtB1f_4sync3ArcNtNtNtCscOYdFFY2T5N_3std3ffi6os_str5OsStrEEEECsdARyWrlPtHl_2cc, symObjAddr: 0x47B0, symBinAddr: 0x10002ADAC, symSize: 0x174 }
  - { offset: 0x38BD9, size: 0x8, addend: 0x0, symName: __RINvMsa_NtCsloNvcHxBCre_9hashbrown3rawNtB6_13RawTableInner13drop_elementsTNtCsdARyWrlPtHl_2cc12CompilerFlagbEEB1c_, symObjAddr: 0x4924, symBinAddr: 0x10002AF20, symSize: 0x174 }
  - { offset: 0x38F46, size: 0x8, addend: 0x0, symName: __RINvMsa_NtCsloNvcHxBCre_9hashbrown3rawNtB6_13RawTableInner16drop_inner_tableTINtNtCse1nGBsou5OW_5alloc5boxed3BoxSIB1e_NtNtNtCscOYdFFY2T5N_3std3ffi6os_str5OsStrEENtNtCsdARyWrlPtHl_2cc4tool10ToolFamilyENtNtB1i_5alloc6GlobalEB2D_, symObjAddr: 0x4A98, symBinAddr: 0x10002B094, symSize: 0xBC }
  - { offset: 0x391EA, size: 0x8, addend: 0x0, symName: __RINvMsa_NtCsloNvcHxBCre_9hashbrown3rawNtB6_13RawTableInner16drop_inner_tableTINtNtCse1nGBsou5OW_5alloc5boxed3BoxeEINtNtB1i_4sync3ArcNtNtNtCscOYdFFY2T5N_3std3ffi6os_str5OsStrEENtNtB1i_5alloc6GlobalECsdARyWrlPtHl_2cc, symObjAddr: 0x4B54, symBinAddr: 0x10002B150, symSize: 0xBC }
  - { offset: 0x3948E, size: 0x8, addend: 0x0, symName: __RINvMsa_NtCsloNvcHxBCre_9hashbrown3rawNtB6_13RawTableInner16drop_inner_tableTINtNtCse1nGBsou5OW_5alloc5boxed3BoxeEINtNtB1i_4sync3ArceEENtNtB1i_5alloc6GlobalECsdARyWrlPtHl_2cc, symObjAddr: 0x4C10, symBinAddr: 0x10002B20C, symSize: 0xBC }
  - { offset: 0x39732, size: 0x8, addend: 0x0, symName: __RINvMsa_NtCsloNvcHxBCre_9hashbrown3rawNtB6_13RawTableInner16drop_inner_tableTINtNtCse1nGBsou5OW_5alloc5boxed3BoxeEINtNtCsfvfooZQ3Axs_4core6option6OptionINtNtB1i_4sync3ArcNtNtNtCscOYdFFY2T5N_3std3ffi6os_str5OsStrEEENtNtB1i_5alloc6GlobalECsdARyWrlPtHl_2cc, symObjAddr: 0x4CCC, symBinAddr: 0x10002B2C8, symSize: 0xBC }
  - { offset: 0x399D6, size: 0x8, addend: 0x0, symName: __RINvMsa_NtCsloNvcHxBCre_9hashbrown3rawNtB6_13RawTableInner16drop_inner_tableTNtCsdARyWrlPtHl_2cc12CompilerFlagbENtNtCse1nGBsou5OW_5alloc5alloc6GlobalEB1f_, symObjAddr: 0x4D88, symBinAddr: 0x10002B384, symSize: 0xBC }
  - { offset: 0x39BE9, size: 0x8, addend: 0x0, symName: __RINvMsa_NtCsloNvcHxBCre_9hashbrown3rawNtB6_13RawTableInner17new_uninitializedNtNtCse1nGBsou5OW_5alloc5alloc6GlobalECsdARyWrlPtHl_2cc, symObjAddr: 0x4E44, symBinAddr: 0x10002B440, symSize: 0x1B0 }
  - { offset: 0x39E22, size: 0x8, addend: 0x0, symName: __RINvMsa_NtCsloNvcHxBCre_9hashbrown3rawNtB6_13RawTableInner22fallible_with_capacityNtNtCse1nGBsou5OW_5alloc5alloc6GlobalECsdARyWrlPtHl_2cc, symObjAddr: 0x4FF4, symBinAddr: 0x10002B5F0, symSize: 0x2A8 }
  - { offset: 0x3A299, size: 0x8, addend: 0x0, symName: __RINvMsi_NtCsloNvcHxBCre_9hashbrown3rawINtB6_12RawIterRangeTINtNtCse1nGBsou5OW_5alloc5boxed3BoxSIBW_NtNtNtCscOYdFFY2T5N_3std3ffi6os_str5OsStrEENtNtCsdARyWrlPtHl_2cc4tool10ToolFamilyEE9next_implKb0_EB2k_, symObjAddr: 0x529C, symBinAddr: 0x10002B898, symSize: 0x1E4 }
  - { offset: 0x3A71B, size: 0x8, addend: 0x0, symName: __RINvMsi_NtCsloNvcHxBCre_9hashbrown3rawINtB6_12RawIterRangeTINtNtCse1nGBsou5OW_5alloc5boxed3BoxeEINtNtB10_4sync3ArcNtNtNtCscOYdFFY2T5N_3std3ffi6os_str5OsStrEEE9next_implKb0_ECsdARyWrlPtHl_2cc, symObjAddr: 0x5480, symBinAddr: 0x10002BA7C, symSize: 0x1E4 }
  - { offset: 0x3AB9D, size: 0x8, addend: 0x0, symName: __RINvMsi_NtCsloNvcHxBCre_9hashbrown3rawINtB6_12RawIterRangeTINtNtCse1nGBsou5OW_5alloc5boxed3BoxeEINtNtB10_4sync3ArceEEE9next_implKb0_ECsdARyWrlPtHl_2cc, symObjAddr: 0x5664, symBinAddr: 0x10002BC60, symSize: 0x1E4 }
  - { offset: 0x3B01F, size: 0x8, addend: 0x0, symName: __RINvMsi_NtCsloNvcHxBCre_9hashbrown3rawINtB6_12RawIterRangeTINtNtCse1nGBsou5OW_5alloc5boxed3BoxeEINtNtCsfvfooZQ3Axs_4core6option6OptionINtNtB10_4sync3ArcNtNtNtCscOYdFFY2T5N_3std3ffi6os_str5OsStrEEEE9next_implKb0_ECsdARyWrlPtHl_2cc, symObjAddr: 0x5848, symBinAddr: 0x10002BE44, symSize: 0x1E4 }
  - { offset: 0x3B4A1, size: 0x8, addend: 0x0, symName: __RINvMsi_NtCsloNvcHxBCre_9hashbrown3rawINtB6_12RawIterRangeTNtCsdARyWrlPtHl_2cc12CompilerFlagbEE9next_implKb0_EBX_, symObjAddr: 0x5A2C, symBinAddr: 0x10002C028, symSize: 0x1E4 }
  - { offset: 0x3CC65, size: 0x8, addend: 0x0, symName: __RNvMs1_NtCsloNvcHxBCre_9hashbrown3rawNtB5_11TableLayout20calculate_layout_forCsdARyWrlPtHl_2cc, symObjAddr: 0x6B60, symBinAddr: 0x10002D15C, symSize: 0x210 }
  - { offset: 0x3D0F2, size: 0x8, addend: 0x0, symName: __RNvMs6_NtCsloNvcHxBCre_9hashbrown3rawINtB5_8RawTableTINtNtCse1nGBsou5OW_5alloc5boxed3BoxSIBQ_NtNtNtCscOYdFFY2T5N_3std3ffi6os_str5OsStrEENtNtCsdARyWrlPtHl_2cc4tool10ToolFamilyEE14insert_in_slotB2e_, symObjAddr: 0x6D70, symBinAddr: 0x10002D36C, symSize: 0x138 }
  - { offset: 0x3D643, size: 0x8, addend: 0x0, symName: __RNvMs6_NtCsloNvcHxBCre_9hashbrown3rawINtB5_8RawTableTINtNtCse1nGBsou5OW_5alloc5boxed3BoxeEINtNtBU_4sync3ArcNtNtNtCscOYdFFY2T5N_3std3ffi6os_str5OsStrEEE14insert_in_slotCsdARyWrlPtHl_2cc, symObjAddr: 0x6EA8, symBinAddr: 0x10002D4A4, symSize: 0x138 }
  - { offset: 0x3DB94, size: 0x8, addend: 0x0, symName: __RNvMs6_NtCsloNvcHxBCre_9hashbrown3rawINtB5_8RawTableTINtNtCse1nGBsou5OW_5alloc5boxed3BoxeEINtNtBU_4sync3ArceEEE14insert_in_slotCsdARyWrlPtHl_2cc, symObjAddr: 0x6FE0, symBinAddr: 0x10002D5DC, symSize: 0x138 }
  - { offset: 0x3E0E5, size: 0x8, addend: 0x0, symName: __RNvMs6_NtCsloNvcHxBCre_9hashbrown3rawINtB5_8RawTableTINtNtCse1nGBsou5OW_5alloc5boxed3BoxeEINtNtCsfvfooZQ3Axs_4core6option6OptionINtNtBU_4sync3ArcNtNtNtCscOYdFFY2T5N_3std3ffi6os_str5OsStrEEEE14insert_in_slotCsdARyWrlPtHl_2cc, symObjAddr: 0x7118, symBinAddr: 0x10002D714, symSize: 0x138 }
  - { offset: 0x3E636, size: 0x8, addend: 0x0, symName: __RNvMs6_NtCsloNvcHxBCre_9hashbrown3rawINtB5_8RawTableTNtCsdARyWrlPtHl_2cc12CompilerFlagbEE14insert_in_slotBR_, symObjAddr: 0x7250, symBinAddr: 0x10002D84C, symSize: 0x140 }
  - { offset: 0x3EAD9, size: 0x8, addend: 0x0, symName: __RNvMsa_NtCsloNvcHxBCre_9hashbrown3rawNtB5_13RawTableInner15fix_insert_slotCsdARyWrlPtHl_2cc, symObjAddr: 0x7390, symBinAddr: 0x10002D98C, symSize: 0x128 }
  - { offset: 0x3EE57, size: 0x8, addend: 0x0, symName: __RNvMsa_NtCsloNvcHxBCre_9hashbrown3rawNtB5_13RawTableInner15rehash_in_placeCsdARyWrlPtHl_2cc, symObjAddr: 0x74B8, symBinAddr: 0x10002DAB4, symSize: 0x4E8 }
  - { offset: 0x3F661, size: 0x8, addend: 0x0, symName: __RNvMsa_NtCsloNvcHxBCre_9hashbrown3rawNtB5_13RawTableInner16find_insert_slotCsdARyWrlPtHl_2cc, symObjAddr: 0x79A0, symBinAddr: 0x10002DF9C, symSize: 0x10C }
  - { offset: 0x3F852, size: 0x8, addend: 0x0, symName: __RNvMsa_NtCsloNvcHxBCre_9hashbrown3rawNtB5_13RawTableInner19prepare_insert_slotCsdARyWrlPtHl_2cc, symObjAddr: 0x7AAC, symBinAddr: 0x10002E0A8, symSize: 0x74 }
  - { offset: 0x3FB44, size: 0x8, addend: 0x0, symName: __RNvMsa_NtCsloNvcHxBCre_9hashbrown3rawNtB5_13RawTableInner23prepare_rehash_in_placeCsdARyWrlPtHl_2cc, symObjAddr: 0x7B20, symBinAddr: 0x10002E11C, symSize: 0x254 }
  - { offset: 0x40240, size: 0x8, addend: 0x0, symName: __RNvMsa_NtCsloNvcHxBCre_9hashbrown3rawNtB5_13RawTableInner25find_insert_slot_in_groupCsdARyWrlPtHl_2cc, symObjAddr: 0x7D74, symBinAddr: 0x10002E370, symSize: 0x160 }
  - { offset: 0x40509, size: 0x8, addend: 0x0, symName: __RNvMsa_NtCsloNvcHxBCre_9hashbrown3rawNtB5_13RawTableInner30find_or_find_insert_slot_innerCsdARyWrlPtHl_2cc, symObjAddr: 0x7ED4, symBinAddr: 0x10002E4D0, symSize: 0x2BC }
  - { offset: 0x40904, size: 0x8, addend: 0x0, symName: __RNvMsi_NtCsloNvcHxBCre_9hashbrown3rawINtB5_12RawIterRangeTINtNtCse1nGBsou5OW_5alloc5boxed3BoxSIBV_NtNtNtCscOYdFFY2T5N_3std3ffi6os_str5OsStrEENtNtCsdARyWrlPtHl_2cc4tool10ToolFamilyEE3newB2j_, symObjAddr: 0x8190, symBinAddr: 0x10002E78C, symSize: 0xC0 }
  - { offset: 0x40BA1, size: 0x8, addend: 0x0, symName: __RNvMsi_NtCsloNvcHxBCre_9hashbrown3rawINtB5_12RawIterRangeTINtNtCse1nGBsou5OW_5alloc5boxed3BoxeEINtNtBZ_4sync3ArcNtNtNtCscOYdFFY2T5N_3std3ffi6os_str5OsStrEEE3newCsdARyWrlPtHl_2cc, symObjAddr: 0x8250, symBinAddr: 0x10002E84C, symSize: 0xC0 }
  - { offset: 0x40E3E, size: 0x8, addend: 0x0, symName: __RNvMsi_NtCsloNvcHxBCre_9hashbrown3rawINtB5_12RawIterRangeTINtNtCse1nGBsou5OW_5alloc5boxed3BoxeEINtNtBZ_4sync3ArceEEE3newCsdARyWrlPtHl_2cc, symObjAddr: 0x8310, symBinAddr: 0x10002E90C, symSize: 0xC0 }
  - { offset: 0x410DB, size: 0x8, addend: 0x0, symName: __RNvMsi_NtCsloNvcHxBCre_9hashbrown3rawINtB5_12RawIterRangeTINtNtCse1nGBsou5OW_5alloc5boxed3BoxeEINtNtCsfvfooZQ3Axs_4core6option6OptionINtNtBZ_4sync3ArcNtNtNtCscOYdFFY2T5N_3std3ffi6os_str5OsStrEEEE3newCsdARyWrlPtHl_2cc, symObjAddr: 0x83D0, symBinAddr: 0x10002E9CC, symSize: 0xC0 }
  - { offset: 0x41378, size: 0x8, addend: 0x0, symName: __RNvMsi_NtCsloNvcHxBCre_9hashbrown3rawINtB5_12RawIterRangeTNtCsdARyWrlPtHl_2cc12CompilerFlagbEE3newBW_, symObjAddr: 0x8490, symBinAddr: 0x10002EA8C, symSize: 0xC0 }
  - { offset: 0x45780, size: 0x8, addend: 0x0, symName: __RNvMNtCsfvfooZQ3Axs_4core5sliceSRINtNtCse1nGBsou5OW_5alloc3vec3VechE4iterCsdARyWrlPtHl_2cc, symObjAddr: 0x1F20, symBinAddr: 0x100030734, symSize: 0x28 }
  - { offset: 0x4765E, size: 0x8, addend: 0x0, symName: __RINvNvMs_NtCse1nGBsou5OW_5alloc3vecINtB7_3VecppE10retain_mut12process_loopNCNCNCNvMs4_CsdARyWrlPtHl_2ccNtB1m_5Build15compile_objects000TNtNtCscOYdFFY2T5N_3std7process7CommandNtB1g_10KillOnDropNtNtNtB1m_8parallel9job_token8JobTokenENtNtB9_5alloc6GlobalKb0_EB1m_, symObjAddr: 0x1780, symBinAddr: 0x100030088, symSize: 0xE8 }
  - { offset: 0x477B2, size: 0x8, addend: 0x0, symName: __RINvNvMs_NtCse1nGBsou5OW_5alloc3vecINtB7_3VecppE10retain_mut12process_loopNCNCNCNvMs4_CsdARyWrlPtHl_2ccNtB1m_5Build15compile_objects000TNtNtCscOYdFFY2T5N_3std7process7CommandNtB1g_10KillOnDropNtNtNtB1m_8parallel9job_token8JobTokenENtNtB9_5alloc6GlobalKb1_EB1m_, symObjAddr: 0x1868, symBinAddr: 0x100030170, symSize: 0x164 }
  - { offset: 0x479A6, size: 0x8, addend: 0x0, symName: __RNvXNvMs_NtCse1nGBsou5OW_5alloc3vecINtB7_3VecppE10retain_mutINtB2_15BackshiftOnDropTNtNtCscOYdFFY2T5N_3std7process7CommandNtNvMs4_CsdARyWrlPtHl_2ccNtB24_5Build15compile_objects10KillOnDropNtNtNtB24_8parallel9job_token8JobTokenENtNtB9_5alloc6GlobalENtNtNtCsfvfooZQ3Axs_4core3ops4drop4Drop4dropB24_, symObjAddr: 0x43C0, symBinAddr: 0x1000329D0, symSize: 0x130 }
  - { offset: 0x492CE, size: 0x8, addend: 0x0, symName: __RINvXsd_NtCse1nGBsou5OW_5alloc3vecINtB6_3VecINtNtB8_5boxed3BoxNtNtNtCscOYdFFY2T5N_3std3ffi6os_str5OsStrEEINtNtNtNtCsfvfooZQ3Axs_4core4iter6traits7collect12FromIteratorBG_E9from_iterINtNtNtB1M_8adapters3map3MapINtNtB2Y_5chain5ChainINtNtB2Y_6cloned6ClonedINtNtNtB1O_5slice4iter4IterRBY_EEIB2U_IB44_NtNtB8_6string6StringEINvMsl_B10_BY_3newB4K_EEENvYB4u_INtNtB1O_7convert4IntoBG_E4intoEECsdARyWrlPtHl_2cc, symObjAddr: 0x19CC, symBinAddr: 0x1000302D4, symSize: 0x3C }
  - { offset: 0x4930F, size: 0x8, addend: 0x0, symName: __RINvXsd_NtCse1nGBsou5OW_5alloc3vecINtB6_3VecNtNtB8_6string6StringEINtNtNtNtCsfvfooZQ3Axs_4core4iter6traits7collect12FromIteratorBG_E9from_iterINtNtNtB19_8adapters3map3MapNtNtNtB1b_3str4iter15SplitWhitespaceNCNvMs4_CsdARyWrlPtHl_2ccNtB3q_5Build8env_tool0EEB3q_, symObjAddr: 0x1A08, symBinAddr: 0x100030310, symSize: 0x3C }
  - { offset: 0x49350, size: 0x8, addend: 0x0, symName: __RINvXsd_NtCse1nGBsou5OW_5alloc3vecINtB6_3VecNtNtB8_6string6StringEINtNtNtNtCsfvfooZQ3Axs_4core4iter6traits7collect12FromIteratorBG_E9from_iterINtNtNtB19_8adapters3map3MapNtNtNtB1b_3str4iter15SplitWhitespaceNCNvMs4_CsdARyWrlPtHl_2ccNtB3q_5Build8env_tools_0EEB3q_, symObjAddr: 0x1A44, symBinAddr: 0x10003034C, symSize: 0x3C }
  - { offset: 0x49391, size: 0x8, addend: 0x0, symName: __RINvXsd_NtCse1nGBsou5OW_5alloc3vecINtB6_3VecRNtNtCscOYdFFY2T5N_3std4path4PathEINtNtNtNtCsfvfooZQ3Axs_4core4iter6traits7collect12FromIteratorBG_E9from_iterINtNtNtB1l_8adapters5chain5ChainINtNtB2x_3map3MapINtNtNtB1n_5slice4iter4IterNtCsdARyWrlPtHl_2cc6ObjectENCNvMs4_B3I_NtB3I_5Build8assemble0EIB2Z_IB3g_INtNtB8_4sync3ArcBH_EENvYB4Q_NtNtNtB1n_3ops5deref5Deref5derefEEEB3I_, symObjAddr: 0x1ABC, symBinAddr: 0x100030388, symSize: 0x3C }
  - { offset: 0x493D2, size: 0x8, addend: 0x0, symName: __RINvXsd_NtCse1nGBsou5OW_5alloc3vecINtB6_3VecRNtNtNtCscOYdFFY2T5N_3std3ffi6os_str8OsStringEINtNtNtNtCsfvfooZQ3Axs_4core4iter6traits7collect12FromIteratorBG_E9from_iterINtNtNtB1x_8adapters6filter6FilterINtNtNtB1z_5slice4iter4IterBH_ENCNvMNtCsdARyWrlPtHl_2cc4toolNtB3M_4Tool10to_command0EEB3O_, symObjAddr: 0x1AF8, symBinAddr: 0x1000303C4, symSize: 0x3C }
  - { offset: 0x49413, size: 0x8, addend: 0x0, symName: __RINvXsd_NtCse1nGBsou5OW_5alloc3vecINtB6_3VecReEINtNtNtNtCsfvfooZQ3Axs_4core4iter6traits7collect12FromIteratorBG_E9from_iterINtNtNtBS_3str4iter5SplitcEECsdARyWrlPtHl_2cc, symObjAddr: 0x1B34, symBinAddr: 0x100030400, symSize: 0x3C }
  - { offset: 0x4945A, size: 0x8, addend: 0x0, symName: __RINvXsh_NtCse1nGBsou5OW_5alloc3vecINtB6_3VecNtNtB8_6string6StringEINtNtNtNtCsfvfooZQ3Axs_4core4iter6traits7collect6ExtendBG_E6extendINtNtNtB19_8adapters3map3MapNtNtNtB1b_3str4iter20SplitAsciiWhitespaceNvYeNtBI_8ToString9to_stringEECsdARyWrlPtHl_2cc, symObjAddr: 0x1BB8, symBinAddr: 0x10003043C, symSize: 0x48 }
  - { offset: 0x494AF, size: 0x8, addend: 0x0, symName: __RINvXsh_NtCse1nGBsou5OW_5alloc3vecINtB6_3VecNtNtB8_6string6StringEINtNtNtNtCsfvfooZQ3Axs_4core4iter6traits7collect6ExtendBG_E6extendNtCs9APsZDMLctY_5shlex5ShlexECsdARyWrlPtHl_2cc, symObjAddr: 0x1C00, symBinAddr: 0x100030484, symSize: 0x48 }
  - { offset: 0x49504, size: 0x8, addend: 0x0, symName: __RINvXsh_NtCse1nGBsou5OW_5alloc3vecINtB6_3VecNtNtNtCscOYdFFY2T5N_3std3ffi6os_str8OsStringEINtNtNtNtCsfvfooZQ3Axs_4core4iter6traits7collect6ExtendBG_E6extendABG_j6_ECsdARyWrlPtHl_2cc, symObjAddr: 0x1C48, symBinAddr: 0x1000304CC, symSize: 0x48 }
  - { offset: 0x49564, size: 0x8, addend: 0x0, symName: __RNCINvMsi_NtCse1nGBsou5OW_5alloc3vecINtB8_3VecINtNtBa_5boxed3BoxNtNtNtCscOYdFFY2T5N_3std3ffi6os_str5OsStrEE14extend_trustedINtNtNtNtCsfvfooZQ3Axs_4core4iter8adapters3map3MapINtNtB22_5chain5ChainINtNtB22_6cloned6ClonedINtNtNtB26_5slice4iter4IterRB10_EEIB1Y_IB3u_NtNtBa_6string6StringEINvMsl_B12_B10_3newB4b_EEENvYB3U_INtNtB26_7convert4IntoBI_E4intoEE0CsdARyWrlPtHl_2cc, symObjAddr: 0x1D00, symBinAddr: 0x100030514, symSize: 0x40 }
  - { offset: 0x49621, size: 0x8, addend: 0x0, symName: __RNCINvMsi_NtCse1nGBsou5OW_5alloc3vecINtB8_3VecNtNtNtCscOYdFFY2T5N_3std3ffi6os_str8OsStringE14extend_trustedINtNtNtCsfvfooZQ3Axs_4core5array4iter8IntoIterBI_Kj6_EE0CsdARyWrlPtHl_2cc, symObjAddr: 0x1D40, symBinAddr: 0x100030554, symSize: 0x44 }
  - { offset: 0x496CE, size: 0x8, addend: 0x0, symName: __RNCINvMsi_NtCse1nGBsou5OW_5alloc3vecINtB8_3VecRNtNtCscOYdFFY2T5N_3std4path4PathE14extend_trustedINtNtNtNtCsfvfooZQ3Axs_4core4iter8adapters5chain5ChainINtNtB1B_3map3MapINtNtNtB1F_5slice4iter4IterNtCsdARyWrlPtHl_2cc6ObjectENCNvMs4_B38_NtB38_5Build8assemble0EIB2p_IB2G_INtNtBa_4sync3ArcBJ_EENvYB4g_NtNtNtB1F_3ops5deref5Deref5derefEEE0B38_, symObjAddr: 0x1D84, symBinAddr: 0x100030598, symSize: 0x40 }
  - { offset: 0x4978B, size: 0x8, addend: 0x0, symName: __RNCINvMsi_NtCse1nGBsou5OW_5alloc3vecINtB8_3VechE14extend_trustedINtNtNtNtCsfvfooZQ3Axs_4core4iter8adapters3map3MapINtNtNtB19_5slice4iter4IterhENCNvNtBa_3str13replace_ascii0EE0CsdARyWrlPtHl_2cc, symObjAddr: 0x1DC4, symBinAddr: 0x1000305D8, symSize: 0x30 }
  - { offset: 0x49996, size: 0x8, addend: 0x0, symName: __RNvXNtNtCse1nGBsou5OW_5alloc3vec11spec_extendINtB4_3VecNtNtB6_6string6StringEINtB2_10SpecExtendBR_INtNtNtNtCsfvfooZQ3Axs_4core4iter8adapters3map3MapNtNtNtB1H_3str4iter15SplitWhitespaceNCNvMs4_CsdARyWrlPtHl_2ccNtB34_5Build8env_tool0EE11spec_extendB34_, symObjAddr: 0x38E0, symBinAddr: 0x100032014, symSize: 0x24 }
  - { offset: 0x499E8, size: 0x8, addend: 0x0, symName: __RNvXNtNtCse1nGBsou5OW_5alloc3vec11spec_extendINtB4_3VecNtNtB6_6string6StringEINtB2_10SpecExtendBR_INtNtNtNtCsfvfooZQ3Axs_4core4iter8adapters3map3MapNtNtNtB1H_3str4iter15SplitWhitespaceNCNvMs4_CsdARyWrlPtHl_2ccNtB34_5Build8env_tools_0EE11spec_extendB34_, symObjAddr: 0x3904, symBinAddr: 0x100032038, symSize: 0x24 }
  - { offset: 0x49A3A, size: 0x8, addend: 0x0, symName: __RNvXNtNtCse1nGBsou5OW_5alloc3vec11spec_extendINtB4_3VecNtNtB6_6string6StringEINtB2_10SpecExtendBR_INtNtNtNtCsfvfooZQ3Axs_4core4iter8adapters3map3MapNtNtNtB1H_3str4iter20SplitAsciiWhitespaceNvYeNtBT_8ToString9to_stringEE11spec_extendCsdARyWrlPtHl_2cc, symObjAddr: 0x3928, symBinAddr: 0x10003205C, symSize: 0x24 }
  - { offset: 0x49A8C, size: 0x8, addend: 0x0, symName: __RNvXNtNtCse1nGBsou5OW_5alloc3vec11spec_extendINtB4_3VecNtNtB6_6string6StringEINtB2_10SpecExtendBR_NtCs9APsZDMLctY_5shlex5ShlexE11spec_extendCsdARyWrlPtHl_2cc, symObjAddr: 0x394C, symBinAddr: 0x100032080, symSize: 0x24 }
  - { offset: 0x49ADE, size: 0x8, addend: 0x0, symName: __RNvXNtNtCse1nGBsou5OW_5alloc3vec11spec_extendINtB4_3VecRNtNtNtCscOYdFFY2T5N_3std3ffi6os_str8OsStringEINtB2_10SpecExtendBR_INtNtNtNtCsfvfooZQ3Axs_4core4iter8adapters6filter6FilterINtNtNtB25_5slice4iter4IterBS_ENCNvMNtCsdARyWrlPtHl_2cc4toolNtB3q_4Tool10to_command0EE11spec_extendB3s_, symObjAddr: 0x3970, symBinAddr: 0x1000320A4, symSize: 0x24 }
  - { offset: 0x49B30, size: 0x8, addend: 0x0, symName: __RNvXNtNtCse1nGBsou5OW_5alloc3vec11spec_extendINtB4_3VecReEINtB2_10SpecExtendBR_INtNtNtCsfvfooZQ3Axs_4core3str4iter5SplitcEE11spec_extendCsdARyWrlPtHl_2cc, symObjAddr: 0x3994, symBinAddr: 0x1000320C8, symSize: 0x24 }
  - { offset: 0x49B88, size: 0x8, addend: 0x0, symName: __RNvXs_NtNtCse1nGBsou5OW_5alloc3vec11spec_extendINtB6_3VecINtNtB8_5boxed3BoxNtNtNtCscOYdFFY2T5N_3std3ffi6os_str5OsStrEEINtB4_10SpecExtendBT_INtNtNtNtCsfvfooZQ3Axs_4core4iter8adapters3map3MapINtNtB2i_5chain5ChainINtNtB2i_6cloned6ClonedINtNtNtB2m_5slice4iter4IterRB1b_EEIB2e_IB3K_NtNtB8_6string6StringEINvMsl_B1d_B1b_3newB4r_EEENvYB4a_INtNtB2m_7convert4IntoBT_E4intoEE11spec_extendCsdARyWrlPtHl_2cc, symObjAddr: 0x4950, symBinAddr: 0x100032F3C, symSize: 0x24 }
  - { offset: 0x49BDA, size: 0x8, addend: 0x0, symName: __RNvXs_NtNtCse1nGBsou5OW_5alloc3vec11spec_extendINtB6_3VecNtNtNtCscOYdFFY2T5N_3std3ffi6os_str8OsStringEINtB4_10SpecExtendBT_INtNtNtCsfvfooZQ3Axs_4core5array4iter8IntoIterBT_Kj6_EE11spec_extendCsdARyWrlPtHl_2cc, symObjAddr: 0x4974, symBinAddr: 0x100032F60, symSize: 0x24 }
  - { offset: 0x49C2C, size: 0x8, addend: 0x0, symName: __RNvXs_NtNtCse1nGBsou5OW_5alloc3vec11spec_extendINtB6_3VecRNtNtCscOYdFFY2T5N_3std4path4PathEINtB4_10SpecExtendBT_INtNtNtNtCsfvfooZQ3Axs_4core4iter8adapters5chain5ChainINtNtB1R_3map3MapINtNtNtB1V_5slice4iter4IterNtCsdARyWrlPtHl_2cc6ObjectENCNvMs4_B3o_NtB3o_5Build8assemble0EIB2F_IB2W_INtNtB8_4sync3ArcBU_EENvYB4w_NtNtNtB1V_3ops5deref5Deref5derefEEE11spec_extendB3o_, symObjAddr: 0x4998, symBinAddr: 0x100032F84, symSize: 0x24 }
  - { offset: 0x49C7E, size: 0x8, addend: 0x0, symName: __RNvXs_NtNtCse1nGBsou5OW_5alloc3vec11spec_extendINtB6_3VechEINtB4_10SpecExtendhINtNtNtNtCsfvfooZQ3Axs_4core4iter8adapters3map3MapINtNtNtB1n_5slice4iter4IterhENCNvNtB8_3str13replace_ascii0EE11spec_extendCsdARyWrlPtHl_2cc, symObjAddr: 0x49BC, symBinAddr: 0x100032FA8, symSize: 0x24 }
  - { offset: 0x49CDC, size: 0x8, addend: 0x0, symName: __RNvXNtNtCse1nGBsou5OW_5alloc3vec14spec_from_iterINtB4_3VecINtNtB6_5boxed3BoxNtNtNtCscOYdFFY2T5N_3std3ffi6os_str5OsStrEEINtB2_12SpecFromIterBU_INtNtNtNtCsfvfooZQ3Axs_4core4iter8adapters3map3MapINtNtB2l_5chain5ChainINtNtB2l_6cloned6ClonedINtNtNtB2p_5slice4iter4IterRB1c_EEIB2h_IB3N_NtNtB6_6string6StringEINvMsl_B1e_B1c_3newB4u_EEENvYB4d_INtNtB2p_7convert4IntoBU_E4intoEE9from_iterCsdARyWrlPtHl_2cc, symObjAddr: 0x39B8, symBinAddr: 0x1000320EC, symSize: 0x14 }
  - { offset: 0x49D1B, size: 0x8, addend: 0x0, symName: __RNvXNtNtCse1nGBsou5OW_5alloc3vec14spec_from_iterINtB4_3VecNtNtB6_6string6StringEINtB2_12SpecFromIterBU_INtNtNtNtCsfvfooZQ3Axs_4core4iter8adapters3map3MapNtNtNtB1M_3str4iter15SplitWhitespaceNCNvMs4_CsdARyWrlPtHl_2ccNtB39_5Build8env_tool0EE9from_iterB39_, symObjAddr: 0x39CC, symBinAddr: 0x100032100, symSize: 0x14 }
  - { offset: 0x49D5A, size: 0x8, addend: 0x0, symName: __RNvXNtNtCse1nGBsou5OW_5alloc3vec14spec_from_iterINtB4_3VecNtNtB6_6string6StringEINtB2_12SpecFromIterBU_INtNtNtNtCsfvfooZQ3Axs_4core4iter8adapters3map3MapNtNtNtB1M_3str4iter15SplitWhitespaceNCNvMs4_CsdARyWrlPtHl_2ccNtB39_5Build8env_tools_0EE9from_iterB39_, symObjAddr: 0x39E0, symBinAddr: 0x100032114, symSize: 0x14 }
  - { offset: 0x49D99, size: 0x8, addend: 0x0, symName: __RNvXNtNtCse1nGBsou5OW_5alloc3vec14spec_from_iterINtB4_3VecRNtNtCscOYdFFY2T5N_3std4path4PathEINtB2_12SpecFromIterBU_INtNtNtNtCsfvfooZQ3Axs_4core4iter8adapters5chain5ChainINtNtB1U_3map3MapINtNtNtB1Y_5slice4iter4IterNtCsdARyWrlPtHl_2cc6ObjectENCNvMs4_B3r_NtB3r_5Build8assemble0EIB2I_IB2Z_INtNtB6_4sync3ArcBV_EENvYB4z_NtNtNtB1Y_3ops5deref5Deref5derefEEE9from_iterB3r_, symObjAddr: 0x39F4, symBinAddr: 0x100032128, symSize: 0x14 }
  - { offset: 0x49DD8, size: 0x8, addend: 0x0, symName: __RNvXNtNtCse1nGBsou5OW_5alloc3vec14spec_from_iterINtB4_3VecRNtNtNtCscOYdFFY2T5N_3std3ffi6os_str8OsStringEINtB2_12SpecFromIterBU_INtNtNtNtCsfvfooZQ3Axs_4core4iter8adapters6filter6FilterINtNtNtB2a_5slice4iter4IterBV_ENCNvMNtCsdARyWrlPtHl_2cc4toolNtB3v_4Tool10to_command0EE9from_iterB3x_, symObjAddr: 0x3A08, symBinAddr: 0x10003213C, symSize: 0x14 }
  - { offset: 0x49E17, size: 0x8, addend: 0x0, symName: __RNvXNtNtCse1nGBsou5OW_5alloc3vec14spec_from_iterINtB4_3VecReEINtB2_12SpecFromIterBU_INtNtNtCsfvfooZQ3Axs_4core3str4iter5SplitcEE9from_iterCsdARyWrlPtHl_2cc, symObjAddr: 0x3A1C, symBinAddr: 0x100032150, symSize: 0x14 }
  - { offset: 0x49E62, size: 0x8, addend: 0x0, symName: __RNvXNtNtCse1nGBsou5OW_5alloc3vec21spec_from_iter_nestedINtB4_3VecNtNtB6_6string6StringEINtB2_18SpecFromIterNestedB11_INtNtNtNtCsfvfooZQ3Axs_4core4iter8adapters3map3MapNtNtNtB20_3str4iter15SplitWhitespaceNCNvMs4_CsdARyWrlPtHl_2ccNtB3n_5Build8env_tool0EE9from_iterB3n_, symObjAddr: 0x3A30, symBinAddr: 0x100032164, symSize: 0x224 }
  - { offset: 0x4A081, size: 0x8, addend: 0x0, symName: __RNvXNtNtCse1nGBsou5OW_5alloc3vec21spec_from_iter_nestedINtB4_3VecNtNtB6_6string6StringEINtB2_18SpecFromIterNestedB11_INtNtNtNtCsfvfooZQ3Axs_4core4iter8adapters3map3MapNtNtNtB20_3str4iter15SplitWhitespaceNCNvMs4_CsdARyWrlPtHl_2ccNtB3n_5Build8env_tools_0EE9from_iterB3n_, symObjAddr: 0x3C54, symBinAddr: 0x100032388, symSize: 0x224 }
  - { offset: 0x4A2A0, size: 0x8, addend: 0x0, symName: __RNvXNtNtCse1nGBsou5OW_5alloc3vec21spec_from_iter_nestedINtB4_3VecRNtNtNtCscOYdFFY2T5N_3std3ffi6os_str8OsStringEINtB2_18SpecFromIterNestedB11_INtNtNtNtCsfvfooZQ3Axs_4core4iter8adapters6filter6FilterINtNtNtB2o_5slice4iter4IterB12_ENCNvMNtCsdARyWrlPtHl_2cc4toolNtB3K_4Tool10to_command0EE9from_iterB3M_, symObjAddr: 0x3E78, symBinAddr: 0x1000325AC, symSize: 0x1F8 }
  - { offset: 0x4A4BE, size: 0x8, addend: 0x0, symName: __RNvXNtNtCse1nGBsou5OW_5alloc3vec21spec_from_iter_nestedINtB4_3VecReEINtB2_18SpecFromIterNestedB11_INtNtNtCsfvfooZQ3Axs_4core3str4iter5SplitcEE9from_iterCsdARyWrlPtHl_2cc, symObjAddr: 0x4070, symBinAddr: 0x1000327A4, symSize: 0x22C }
  - { offset: 0x4A6E3, size: 0x8, addend: 0x0, symName: __RNvXs_NtNtCse1nGBsou5OW_5alloc3vec21spec_from_iter_nestedINtB6_3VecINtNtB8_5boxed3BoxNtNtNtCscOYdFFY2T5N_3std3ffi6os_str5OsStrEEINtB4_18SpecFromIterNestedB13_INtNtNtNtCsfvfooZQ3Axs_4core4iter8adapters3map3MapINtNtB2B_5chain5ChainINtNtB2B_6cloned6ClonedINtNtNtB2F_5slice4iter4IterRB1l_EEIB2x_IB43_NtNtB8_6string6StringEINvMsl_B1n_B1l_3newB4K_EEENvYB4t_INtNtB2F_7convert4IntoB13_E4intoEE9from_iterCsdARyWrlPtHl_2cc, symObjAddr: 0x4A08, symBinAddr: 0x100032FCC, symSize: 0x16C }
  - { offset: 0x4A7BA, size: 0x8, addend: 0x0, symName: __RNvXs_NtNtCse1nGBsou5OW_5alloc3vec21spec_from_iter_nestedINtB6_3VecRNtNtCscOYdFFY2T5N_3std4path4PathEINtB4_18SpecFromIterNestedB13_INtNtNtNtCsfvfooZQ3Axs_4core4iter8adapters5chain5ChainINtNtB2a_3map3MapINtNtNtB2e_5slice4iter4IterNtCsdARyWrlPtHl_2cc6ObjectENCNvMs4_B3H_NtB3H_5Build8assemble0EIB2Y_IB3f_INtNtB8_4sync3ArcB14_EENvYB4P_NtNtNtB2e_3ops5deref5Deref5derefEEE9from_iterB3H_, symObjAddr: 0x4B74, symBinAddr: 0x100033138, symSize: 0x16C }
  - { offset: 0x4A891, size: 0x8, addend: 0x0, symName: __RNvXs_NtNtCse1nGBsou5OW_5alloc3vec21spec_from_iter_nestedINtB6_3VechEINtB4_18SpecFromIterNestedhINtNtNtNtCsfvfooZQ3Axs_4core4iter8adapters3map3MapINtNtNtB1F_5slice4iter4IterhENCNvNtB8_3str13replace_ascii0EE9from_iterCsdARyWrlPtHl_2cc, symObjAddr: 0x4CE0, symBinAddr: 0x1000332A4, symSize: 0x168 }
  - { offset: 0x4A96F, size: 0x8, addend: 0x0, symName: __RNvXs6_NtCse1nGBsou5OW_5alloc3vecINtB5_3VecINtNtB7_4sync3ArcNtNtCscOYdFFY2T5N_3std4path4PathEENtNtNtCsfvfooZQ3Axs_4core3ops5deref5Deref5derefCsdARyWrlPtHl_2cc, symObjAddr: 0x44F0, symBinAddr: 0x100032B00, symSize: 0x24 }
  - { offset: 0x4A9AF, size: 0x8, addend: 0x0, symName: __RNvXs6_NtCse1nGBsou5OW_5alloc3vecINtB5_3VecINtNtB7_4sync3ArcNtNtNtCscOYdFFY2T5N_3std3ffi6os_str5OsStrEENtNtNtCsfvfooZQ3Axs_4core3ops5deref5Deref5derefCsdARyWrlPtHl_2cc, symObjAddr: 0x4514, symBinAddr: 0x100032B24, symSize: 0x24 }
  - { offset: 0x4A9EF, size: 0x8, addend: 0x0, symName: __RNvXs6_NtCse1nGBsou5OW_5alloc3vecINtB5_3VecNtCsdARyWrlPtHl_2cc6ObjectENtNtNtCsfvfooZQ3Axs_4core3ops5deref5Deref5derefBH_, symObjAddr: 0x4538, symBinAddr: 0x100032B48, symSize: 0x24 }
  - { offset: 0x4AA2F, size: 0x8, addend: 0x0, symName: __RNvXs6_NtCse1nGBsou5OW_5alloc3vecINtB5_3VecNtNtB7_6string6StringENtNtNtCsfvfooZQ3Axs_4core3ops5deref5Deref5derefCsdARyWrlPtHl_2cc, symObjAddr: 0x455C, symBinAddr: 0x100032B6C, symSize: 0x24 }
  - { offset: 0x4AA6F, size: 0x8, addend: 0x0, symName: __RNvXs6_NtCse1nGBsou5OW_5alloc3vecINtB5_3VecNtNtNtCscOYdFFY2T5N_3std3ffi6os_str8OsStringENtNtNtCsfvfooZQ3Axs_4core3ops5deref5Deref5derefCsdARyWrlPtHl_2cc, symObjAddr: 0x4580, symBinAddr: 0x100032B90, symSize: 0x24 }
  - { offset: 0x4AAAF, size: 0x8, addend: 0x0, symName: __RNvXs6_NtCse1nGBsou5OW_5alloc3vecINtB5_3VecRNtNtCscOYdFFY2T5N_3std4path4PathENtNtNtCsfvfooZQ3Axs_4core3ops5deref5Deref5derefCsdARyWrlPtHl_2cc, symObjAddr: 0x45A4, symBinAddr: 0x100032BB4, symSize: 0x24 }
  - { offset: 0x4AAEF, size: 0x8, addend: 0x0, symName: __RNvXs6_NtCse1nGBsou5OW_5alloc3vecINtB5_3VecReENtNtNtCsfvfooZQ3Axs_4core3ops5deref5Deref5derefCsdARyWrlPtHl_2cc, symObjAddr: 0x45C8, symBinAddr: 0x100032BD8, symSize: 0x24 }
  - { offset: 0x4AB2F, size: 0x8, addend: 0x0, symName: __RNvXs6_NtCse1nGBsou5OW_5alloc3vecINtB5_3VecTINtNtB7_4sync3ArcNtNtNtCscOYdFFY2T5N_3std3ffi6os_str5OsStrEBG_EENtNtNtCsfvfooZQ3Axs_4core3ops5deref5Deref5derefCsdARyWrlPtHl_2cc, symObjAddr: 0x45EC, symBinAddr: 0x100032BFC, symSize: 0x24 }
  - { offset: 0x4AB6F, size: 0x8, addend: 0x0, symName: __RNvXs6_NtCse1nGBsou5OW_5alloc3vecINtB5_3VecTINtNtB7_4sync3ArceEINtNtCsfvfooZQ3Axs_4core6option6OptionBG_EEENtNtNtB14_3ops5deref5Deref5derefCsdARyWrlPtHl_2cc, symObjAddr: 0x4610, symBinAddr: 0x100032C20, symSize: 0x24 }
  - { offset: 0x4ABAF, size: 0x8, addend: 0x0, symName: __RNvXs6_NtCse1nGBsou5OW_5alloc3vecINtB5_3VecTNtNtNtCscOYdFFY2T5N_3std3ffi6os_str8OsStringBG_EENtNtNtCsfvfooZQ3Axs_4core3ops5deref5Deref5derefCsdARyWrlPtHl_2cc, symObjAddr: 0x4634, symBinAddr: 0x100032C44, symSize: 0x24 }
  - { offset: 0x4ABEF, size: 0x8, addend: 0x0, symName: __RNvXs6_NtCse1nGBsou5OW_5alloc3vecINtB5_3VechENtNtNtCsfvfooZQ3Axs_4core3ops5deref5Deref5derefCsdARyWrlPtHl_2cc, symObjAddr: 0x4658, symBinAddr: 0x100032C68, symSize: 0x24 }
  - { offset: 0x4AE15, size: 0x8, addend: 0x0, symName: __RNvXs7_NtCse1nGBsou5OW_5alloc3vecINtB5_3VechENtNtNtCsfvfooZQ3Axs_4core3ops5deref8DerefMut9deref_mutCsdARyWrlPtHl_2cc, symObjAddr: 0x467C, symBinAddr: 0x100032C8C, symSize: 0x24 }
  - { offset: 0x4AE8B, size: 0x8, addend: 0x0, symName: __RNvXs9_NtCse1nGBsou5OW_5alloc3vecINtB5_3VecNtNtB7_6string6StringENtNtCsfvfooZQ3Axs_4core5clone5Clone5cloneCsdARyWrlPtHl_2cc, symObjAddr: 0x46A0, symBinAddr: 0x100032CB0, symSize: 0x88 }
  - { offset: 0x4B082, size: 0x8, addend: 0x0, symName: __RNvXs9_NtCse1nGBsou5OW_5alloc3vecINtB5_3VecNtNtNtCscOYdFFY2T5N_3std3ffi6os_str8OsStringENtNtCsfvfooZQ3Axs_4core5clone5Clone5cloneCsdARyWrlPtHl_2cc, symObjAddr: 0x4728, symBinAddr: 0x100032D38, symSize: 0x88 }
  - { offset: 0x4B279, size: 0x8, addend: 0x0, symName: __RNvXs9_NtCse1nGBsou5OW_5alloc3vecINtB5_3VecTNtNtNtCscOYdFFY2T5N_3std3ffi6os_str8OsStringBG_EENtNtCsfvfooZQ3Axs_4core5clone5Clone5cloneCsdARyWrlPtHl_2cc, symObjAddr: 0x47B0, symBinAddr: 0x100032DC0, symSize: 0x88 }
  - { offset: 0x4B470, size: 0x8, addend: 0x0, symName: __RNvXs9_NtCse1nGBsou5OW_5alloc3vecINtB5_3VechENtNtCsfvfooZQ3Axs_4core5clone5Clone10clone_fromCsdARyWrlPtHl_2cc, symObjAddr: 0x4838, symBinAddr: 0x100032E48, symSize: 0x70 }
  - { offset: 0x4B55E, size: 0x8, addend: 0x0, symName: __RNvXs9_NtCse1nGBsou5OW_5alloc3vecINtB5_3VechENtNtCsfvfooZQ3Axs_4core5clone5Clone5cloneCsdARyWrlPtHl_2cc, symObjAddr: 0x48A8, symBinAddr: 0x100032EB8, symSize: 0x84 }
  - { offset: 0x4B75B, size: 0x8, addend: 0x0, symName: __RNvXsb_NtCse1nGBsou5OW_5alloc3vecINtB5_3VechEINtNtNtCsfvfooZQ3Axs_4core3ops5index5IndexINtNtBM_5range7RangeTojEE5indexCsdARyWrlPtHl_2cc, symObjAddr: 0x4E48, symBinAddr: 0x10003340C, symSize: 0xD8 }
  - { offset: 0x4B972, size: 0x8, addend: 0x0, symName: __RNvXsc_NtCse1nGBsou5OW_5alloc3vecINtB5_3VechEINtNtNtCsfvfooZQ3Axs_4core3ops5index8IndexMutINtNtBM_5range9RangeFromjEE9index_mutCsdARyWrlPtHl_2cc, symObjAddr: 0x4F20, symBinAddr: 0x1000334E4, symSize: 0x80 }
  - { offset: 0x4BACC, size: 0x8, addend: 0x0, symName: __RNvXse_NtCse1nGBsou5OW_5alloc3vecINtB5_3VecNtNtB7_6string6StringENtNtNtNtCsfvfooZQ3Axs_4core4iter6traits7collect12IntoIterator9into_iterCsdARyWrlPtHl_2cc, symObjAddr: 0x5084, symBinAddr: 0x100033564, symSize: 0xE4 }
  - { offset: 0x4BD64, size: 0x8, addend: 0x0, symName: __RNvXsf_NtCse1nGBsou5OW_5alloc3vecRINtB5_3VecINtNtB7_4sync3ArcNtNtNtCscOYdFFY2T5N_3std3ffi6os_str5OsStrEENtNtNtNtCsfvfooZQ3Axs_4core4iter6traits7collect12IntoIterator9into_iterCsdARyWrlPtHl_2cc, symObjAddr: 0x5168, symBinAddr: 0x100033648, symSize: 0x9C }
  - { offset: 0x4BFC0, size: 0x8, addend: 0x0, symName: __RNvXsf_NtCse1nGBsou5OW_5alloc3vecRINtB5_3VecNtNtB7_6string6StringENtNtNtNtCsfvfooZQ3Axs_4core4iter6traits7collect12IntoIterator9into_iterCsdARyWrlPtHl_2cc, symObjAddr: 0x5204, symBinAddr: 0x1000336E4, symSize: 0xA4 }
  - { offset: 0x4C21C, size: 0x8, addend: 0x0, symName: __RNvXsf_NtCse1nGBsou5OW_5alloc3vecRINtB5_3VecNtNtNtCscOYdFFY2T5N_3std3ffi6os_str8OsStringENtNtNtNtCsfvfooZQ3Axs_4core4iter6traits7collect12IntoIterator9into_iterCsdARyWrlPtHl_2cc, symObjAddr: 0x52A8, symBinAddr: 0x100033788, symSize: 0xA4 }
  - { offset: 0x4C478, size: 0x8, addend: 0x0, symName: __RNvXsf_NtCse1nGBsou5OW_5alloc3vecRINtB5_3VecRNtNtNtCscOYdFFY2T5N_3std3ffi6os_str8OsStringENtNtNtNtCsfvfooZQ3Axs_4core4iter6traits7collect12IntoIterator9into_iterCsdARyWrlPtHl_2cc, symObjAddr: 0x534C, symBinAddr: 0x10003382C, symSize: 0x98 }
  - { offset: 0x4C6D4, size: 0x8, addend: 0x0, symName: __RNvXsf_NtCse1nGBsou5OW_5alloc3vecRINtB5_3VecTNtNtNtCscOYdFFY2T5N_3std3ffi6os_str8OsStringBH_EENtNtNtNtCsfvfooZQ3Axs_4core4iter6traits7collect12IntoIterator9into_iterCsdARyWrlPtHl_2cc, symObjAddr: 0x53E4, symBinAddr: 0x1000338C4, symSize: 0xA4 }
  - { offset: 0x4C936, size: 0x8, addend: 0x0, symName: __RNvXsn_NtCse1nGBsou5OW_5alloc3vecINtB5_3VecINtNtB7_4sync3ArcNtNtCscOYdFFY2T5N_3std4path4PathEENtNtNtCsfvfooZQ3Axs_4core3ops4drop4Drop4dropCsdARyWrlPtHl_2cc, symObjAddr: 0x5488, symBinAddr: 0x100033968, symSize: 0x38 }
  - { offset: 0x4C9E6, size: 0x8, addend: 0x0, symName: __RNvXsn_NtCse1nGBsou5OW_5alloc3vecINtB5_3VecINtNtB7_4sync3ArcNtNtNtCscOYdFFY2T5N_3std3ffi6os_str5OsStrEENtNtNtCsfvfooZQ3Axs_4core3ops4drop4Drop4dropCsdARyWrlPtHl_2cc, symObjAddr: 0x54C0, symBinAddr: 0x1000339A0, symSize: 0x38 }
  - { offset: 0x4CA96, size: 0x8, addend: 0x0, symName: __RNvXsn_NtCse1nGBsou5OW_5alloc3vecINtB5_3VecINtNtB7_5boxed3BoxDINtNtNtCsfvfooZQ3Axs_4core3ops8function5FnMutuEp6OutputINtNtB15_6result6ResultuNtNtNtCscOYdFFY2T5N_3std2io5error5ErrorENtNtB15_6marker4SendNtB2V_4SyncEL_EENtNtB13_4drop4Drop4dropCsdARyWrlPtHl_2cc, symObjAddr: 0x54F8, symBinAddr: 0x1000339D8, symSize: 0x38 }
  - { offset: 0x4CB46, size: 0x8, addend: 0x0, symName: __RNvXsn_NtCse1nGBsou5OW_5alloc3vecINtB5_3VecINtNtB7_5boxed3BoxNtNtNtCscOYdFFY2T5N_3std3ffi6os_str5OsStrEENtNtNtCsfvfooZQ3Axs_4core3ops4drop4Drop4dropCsdARyWrlPtHl_2cc, symObjAddr: 0x5530, symBinAddr: 0x100033A10, symSize: 0x38 }
  - { offset: 0x4CBF6, size: 0x8, addend: 0x0, symName: __RNvXsn_NtCse1nGBsou5OW_5alloc3vecINtB5_3VecNtCsdARyWrlPtHl_2cc6ObjectENtNtNtCsfvfooZQ3Axs_4core3ops4drop4Drop4dropBH_, symObjAddr: 0x5568, symBinAddr: 0x100033A48, symSize: 0x38 }
  - { offset: 0x4CCA6, size: 0x8, addend: 0x0, symName: __RNvXsn_NtCse1nGBsou5OW_5alloc3vecINtB5_3VecNtNtNtB7_3ffi5c_str7CStringENtNtNtCsfvfooZQ3Axs_4core3ops4drop4Drop4dropCsdARyWrlPtHl_2cc, symObjAddr: 0x55A0, symBinAddr: 0x100033A80, symSize: 0x38 }
  - { offset: 0x4CD56, size: 0x8, addend: 0x0, symName: __RNvXsn_NtCse1nGBsou5OW_5alloc3vecINtB5_3VecNtNtNtCscOYdFFY2T5N_3std3ffi6os_str8OsStringENtNtNtCsfvfooZQ3Axs_4core3ops4drop4Drop4dropCsdARyWrlPtHl_2cc, symObjAddr: 0x55D8, symBinAddr: 0x100033AB8, symSize: 0x38 }
  - { offset: 0x4CE06, size: 0x8, addend: 0x0, symName: __RNvXsn_NtCse1nGBsou5OW_5alloc3vecINtB5_3VecNtNtNtNtCscOYdFFY2T5N_3std4sync4mpmc5waker5EntryENtNtNtCsfvfooZQ3Axs_4core3ops4drop4Drop4dropCsdARyWrlPtHl_2cc, symObjAddr: 0x5610, symBinAddr: 0x100033AF0, symSize: 0x38 }
  - { offset: 0x4CEB6, size: 0x8, addend: 0x0, symName: __RNvXsn_NtCse1nGBsou5OW_5alloc3vecINtB5_3VecPaENtNtNtCsfvfooZQ3Axs_4core3ops4drop4Drop4dropCsdARyWrlPtHl_2cc, symObjAddr: 0x5648, symBinAddr: 0x100033B28, symSize: 0x24 }
  - { offset: 0x4CF66, size: 0x8, addend: 0x0, symName: __RNvXsn_NtCse1nGBsou5OW_5alloc3vecINtB5_3VecRNtNtCscOYdFFY2T5N_3std4path4PathENtNtNtCsfvfooZQ3Axs_4core3ops4drop4Drop4dropCsdARyWrlPtHl_2cc, symObjAddr: 0x566C, symBinAddr: 0x100033B4C, symSize: 0x24 }
  - { offset: 0x4D016, size: 0x8, addend: 0x0, symName: __RNvXsn_NtCse1nGBsou5OW_5alloc3vecINtB5_3VecRNtNtNtCscOYdFFY2T5N_3std3ffi6os_str8OsStringENtNtNtCsfvfooZQ3Axs_4core3ops4drop4Drop4dropCsdARyWrlPtHl_2cc, symObjAddr: 0x5690, symBinAddr: 0x100033B70, symSize: 0x24 }
  - { offset: 0x4D0C6, size: 0x8, addend: 0x0, symName: __RNvXsn_NtCse1nGBsou5OW_5alloc3vecINtB5_3VecReENtNtNtCsfvfooZQ3Axs_4core3ops4drop4Drop4dropCsdARyWrlPtHl_2cc, symObjAddr: 0x56B4, symBinAddr: 0x100033B94, symSize: 0x24 }
  - { offset: 0x4D176, size: 0x8, addend: 0x0, symName: __RNvXsn_NtCse1nGBsou5OW_5alloc3vecINtB5_3VecTINtNtB7_4sync3ArcNtNtNtCscOYdFFY2T5N_3std3ffi6os_str5OsStrEBG_EENtNtNtCsfvfooZQ3Axs_4core3ops4drop4Drop4dropCsdARyWrlPtHl_2cc, symObjAddr: 0x56D8, symBinAddr: 0x100033BB8, symSize: 0x38 }
  - { offset: 0x4D226, size: 0x8, addend: 0x0, symName: __RNvXsn_NtCse1nGBsou5OW_5alloc3vecINtB5_3VecTINtNtB7_4sync3ArceEINtNtCsfvfooZQ3Axs_4core6option6OptionBG_EEENtNtNtB14_3ops4drop4Drop4dropCsdARyWrlPtHl_2cc, symObjAddr: 0x5710, symBinAddr: 0x100033BF0, symSize: 0x38 }
  - { offset: 0x4D2D6, size: 0x8, addend: 0x0, symName: __RNvXsn_NtCse1nGBsou5OW_5alloc3vecINtB5_3VecTNtNtCscOYdFFY2T5N_3std7process7CommandNtNvMs4_CsdARyWrlPtHl_2ccNtB1q_5Build15compile_objects10KillOnDropNtNtNtB1q_8parallel9job_token8JobTokenEENtNtNtCsfvfooZQ3Axs_4core3ops4drop4Drop4dropB1q_, symObjAddr: 0x5748, symBinAddr: 0x100033C28, symSize: 0x38 }
  - { offset: 0x4D386, size: 0x8, addend: 0x0, symName: __RNvXsn_NtCse1nGBsou5OW_5alloc3vecINtB5_3VecTNtNtNtCscOYdFFY2T5N_3std3ffi6os_str8OsStringBG_EENtNtNtCsfvfooZQ3Axs_4core3ops4drop4Drop4dropCsdARyWrlPtHl_2cc, symObjAddr: 0x5780, symBinAddr: 0x100033C60, symSize: 0x38 }
  - { offset: 0x4D43C, size: 0x8, addend: 0x0, symName: __RNvXso_NtCse1nGBsou5OW_5alloc3vecINtB5_3VecTNtNtCscOYdFFY2T5N_3std7process7CommandNtNvMs4_CsdARyWrlPtHl_2ccNtB1q_5Build15compile_objects10KillOnDropNtNtNtB1q_8parallel9job_token8JobTokenEENtNtCsfvfooZQ3Axs_4core7default7Default7defaultB1q_, symObjAddr: 0x57B8, symBinAddr: 0x100033C98, symSize: 0x14 }
  - { offset: 0x4D45E, size: 0x8, addend: 0x0, symName: __RNvXso_NtCse1nGBsou5OW_5alloc3vecINtB5_3VecTNtNtCscOYdFFY2T5N_3std7process7CommandNtNvMs4_CsdARyWrlPtHl_2ccNtB1q_5Build15compile_objects10KillOnDropNtNtNtB1q_8parallel9job_token8JobTokenEENtNtCsfvfooZQ3Axs_4core7default7Default7defaultB1q_, symObjAddr: 0x57B8, symBinAddr: 0x100033C98, symSize: 0x14 }
  - { offset: 0x4F386, size: 0x8, addend: 0x0, symName: __RINvMs_NtCse1nGBsou5OW_5alloc3vecINtB5_3VecNtNtNtNtCscOYdFFY2T5N_3std4sync4mpmc5waker5EntryE5drainNtNtNtCsfvfooZQ3Axs_4core3ops5range9RangeFullECsdARyWrlPtHl_2cc, symObjAddr: 0x130, symBinAddr: 0x10002EE10, symSize: 0x140 }
  - { offset: 0x4FDA6, size: 0x8, addend: 0x0, symName: __RINvMs_NtCse1nGBsou5OW_5alloc3vecINtB5_3VecTNtNtCscOYdFFY2T5N_3std7process7CommandNtNvMs4_CsdARyWrlPtHl_2ccNtB1q_5Build15compile_objects10KillOnDropNtNtNtB1q_8parallel9job_token8JobTokenEE10retain_mutNCNCNCB1k_000EB1q_, symObjAddr: 0x270, symBinAddr: 0x10002EF50, symSize: 0xE4 }
  - { offset: 0x50174, size: 0x8, addend: 0x0, symName: __RINvMsi_NtCse1nGBsou5OW_5alloc3vecINtB6_3VecINtNtB8_5boxed3BoxNtNtNtCscOYdFFY2T5N_3std3ffi6os_str5OsStrEE14extend_trustedINtNtNtNtCsfvfooZQ3Axs_4core4iter8adapters3map3MapINtNtB20_5chain5ChainINtNtB20_6cloned6ClonedINtNtNtB24_5slice4iter4IterRBY_EEIB1W_IB3s_NtNtB8_6string6StringEINvMsl_B10_BY_3newB48_EEENvYB3S_INtNtB24_7convert4IntoBG_E4intoEECsdARyWrlPtHl_2cc, symObjAddr: 0x4DC, symBinAddr: 0x10002F034, symSize: 0x17C }
  - { offset: 0x504E7, size: 0x8, addend: 0x0, symName: __RINvMsi_NtCse1nGBsou5OW_5alloc3vecINtB6_3VecNtNtB8_6string6StringE16extend_desugaredINtNtNtNtCsfvfooZQ3Axs_4core4iter8adapters3map3MapNtNtNtB1t_3str4iter15SplitWhitespaceNCNvMs4_CsdARyWrlPtHl_2ccNtB2Q_5Build8env_tool0EEB2Q_, symObjAddr: 0x658, symBinAddr: 0x10002F1B0, symSize: 0x1CC }
  - { offset: 0x5087D, size: 0x8, addend: 0x0, symName: __RINvMsi_NtCse1nGBsou5OW_5alloc3vecINtB6_3VecNtNtB8_6string6StringE16extend_desugaredINtNtNtNtCsfvfooZQ3Axs_4core4iter8adapters3map3MapNtNtNtB1t_3str4iter15SplitWhitespaceNCNvMs4_CsdARyWrlPtHl_2ccNtB2Q_5Build8env_tools_0EEB2Q_, symObjAddr: 0x824, symBinAddr: 0x10002F37C, symSize: 0x1CC }
  - { offset: 0x50C49, size: 0x8, addend: 0x0, symName: __RINvMsi_NtCse1nGBsou5OW_5alloc3vecINtB6_3VecNtNtB8_6string6StringE16extend_desugaredINtNtNtNtCsfvfooZQ3Axs_4core4iter8adapters3map3MapNtNtNtB1t_3str4iter20SplitAsciiWhitespaceNvYeNtBI_8ToString9to_stringEECsdARyWrlPtHl_2cc, symObjAddr: 0x9F0, symBinAddr: 0x10002F548, symSize: 0x1CC }
  - { offset: 0x5102D, size: 0x8, addend: 0x0, symName: __RINvMsi_NtCse1nGBsou5OW_5alloc3vecINtB6_3VecNtNtB8_6string6StringE16extend_desugaredNtCs9APsZDMLctY_5shlex5ShlexECsdARyWrlPtHl_2cc, symObjAddr: 0xBBC, symBinAddr: 0x10002F714, symSize: 0x1CC }
  - { offset: 0x51370, size: 0x8, addend: 0x0, symName: __RINvMsi_NtCse1nGBsou5OW_5alloc3vecINtB6_3VecNtNtNtCscOYdFFY2T5N_3std3ffi6os_str8OsStringE14extend_trustedINtNtNtCsfvfooZQ3Axs_4core5array4iter8IntoIterBG_Kj6_EECsdARyWrlPtHl_2cc, symObjAddr: 0xD88, symBinAddr: 0x10002F8E0, symSize: 0x1A0 }
  - { offset: 0x516AC, size: 0x8, addend: 0x0, symName: __RINvMsi_NtCse1nGBsou5OW_5alloc3vecINtB6_3VecRNtNtCscOYdFFY2T5N_3std4path4PathE14extend_trustedINtNtNtNtCsfvfooZQ3Axs_4core4iter8adapters5chain5ChainINtNtB1z_3map3MapINtNtNtB1D_5slice4iter4IterNtCsdARyWrlPtHl_2cc6ObjectENCNvMs4_B36_NtB36_5Build8assemble0EIB2n_IB2E_INtNtB8_4sync3ArcBH_EENvYB4e_NtNtNtB1D_3ops5deref5Deref5derefEEEB36_, symObjAddr: 0xF28, symBinAddr: 0x10002FA80, symSize: 0x17C }
  - { offset: 0x51A64, size: 0x8, addend: 0x0, symName: __RINvMsi_NtCse1nGBsou5OW_5alloc3vecINtB6_3VecRNtNtNtCscOYdFFY2T5N_3std3ffi6os_str8OsStringE16extend_desugaredINtNtNtNtCsfvfooZQ3Axs_4core4iter8adapters6filter6FilterINtNtNtB1R_5slice4iter4IterBH_ENCNvMNtCsdARyWrlPtHl_2cc4toolNtB3c_4Tool10to_command0EEB3e_, symObjAddr: 0x10A4, symBinAddr: 0x10002FBFC, symSize: 0x174 }
  - { offset: 0x51E46, size: 0x8, addend: 0x0, symName: __RINvMsi_NtCse1nGBsou5OW_5alloc3vecINtB6_3VecReE16extend_desugaredINtNtNtCsfvfooZQ3Axs_4core3str4iter5SplitcEECsdARyWrlPtHl_2cc, symObjAddr: 0x1218, symBinAddr: 0x10002FD70, symSize: 0x19C }
  - { offset: 0x52171, size: 0x8, addend: 0x0, symName: __RINvMsi_NtCse1nGBsou5OW_5alloc3vecINtB6_3VechE14extend_trustedINtNtNtNtCsfvfooZQ3Axs_4core4iter8adapters3map3MapINtNtNtB17_5slice4iter4IterhENCNvNtB8_3str13replace_ascii0EECsdARyWrlPtHl_2cc, symObjAddr: 0x13B4, symBinAddr: 0x10002FF0C, symSize: 0x17C }
  - { offset: 0x524C7, size: 0x8, addend: 0x0, symName: __RNvMNtCse1nGBsou5OW_5alloc3vecINtB2_3VecINtNtB4_4sync3ArcNtNtCscOYdFFY2T5N_3std4path4PathEE3newCsdARyWrlPtHl_2cc, symObjAddr: 0x1DF4, symBinAddr: 0x100030608, symSize: 0x14 }
  - { offset: 0x524E4, size: 0x8, addend: 0x0, symName: __RNvMNtCse1nGBsou5OW_5alloc3vecINtB2_3VecINtNtB4_4sync3ArcNtNtNtCscOYdFFY2T5N_3std3ffi6os_str5OsStrEE3newCsdARyWrlPtHl_2cc, symObjAddr: 0x1E08, symBinAddr: 0x10003061C, symSize: 0x14 }
  - { offset: 0x52563, size: 0x8, addend: 0x0, symName: __RNvMNtCse1nGBsou5OW_5alloc3vecINtB2_3VecNtCsdARyWrlPtHl_2cc6ObjectE13with_capacityBE_, symObjAddr: 0x1E1C, symBinAddr: 0x100030630, symSize: 0x48 }
  - { offset: 0x525DB, size: 0x8, addend: 0x0, symName: __RNvMNtCse1nGBsou5OW_5alloc3vecINtB2_3VecNtNtB4_6string6StringE3newCsdARyWrlPtHl_2cc, symObjAddr: 0x1E64, symBinAddr: 0x100030678, symSize: 0x14 }
  - { offset: 0x525F8, size: 0x8, addend: 0x0, symName: __RNvMNtCse1nGBsou5OW_5alloc3vecINtB2_3VecNtNtNtCscOYdFFY2T5N_3std3ffi6os_str8OsStringE3newCsdARyWrlPtHl_2cc, symObjAddr: 0x1E78, symBinAddr: 0x10003068C, symSize: 0x14 }
  - { offset: 0x52615, size: 0x8, addend: 0x0, symName: __RNvMNtCse1nGBsou5OW_5alloc3vecINtB2_3VecTINtNtB4_4sync3ArcNtNtNtCscOYdFFY2T5N_3std3ffi6os_str5OsStrEBD_EE3newCsdARyWrlPtHl_2cc, symObjAddr: 0x1E8C, symBinAddr: 0x1000306A0, symSize: 0x14 }
  - { offset: 0x52632, size: 0x8, addend: 0x0, symName: __RNvMNtCse1nGBsou5OW_5alloc3vecINtB2_3VecTINtNtB4_4sync3ArceEINtNtCsfvfooZQ3Axs_4core6option6OptionBD_EEE3newCsdARyWrlPtHl_2cc, symObjAddr: 0x1EA0, symBinAddr: 0x1000306B4, symSize: 0x14 }
  - { offset: 0x5264F, size: 0x8, addend: 0x0, symName: __RNvMNtCse1nGBsou5OW_5alloc3vecINtB2_3VecTNtNtCscOYdFFY2T5N_3std7process7CommandNtNvMs4_CsdARyWrlPtHl_2ccNtB1n_5Build15compile_objects10KillOnDropNtNtNtB1n_8parallel9job_token8JobTokenEE3newB1n_, symObjAddr: 0x1EB4, symBinAddr: 0x1000306C8, symSize: 0x14 }
  - { offset: 0x5266C, size: 0x8, addend: 0x0, symName: __RNvMNtCse1nGBsou5OW_5alloc3vecINtB2_3VecTNtNtNtCscOYdFFY2T5N_3std3ffi6os_str8OsStringBD_EE3newCsdARyWrlPtHl_2cc, symObjAddr: 0x1EC8, symBinAddr: 0x1000306DC, symSize: 0x14 }
  - { offset: 0x526EB, size: 0x8, addend: 0x0, symName: __RNvMNtCse1nGBsou5OW_5alloc3vecINtB2_3VechE13with_capacityCsdARyWrlPtHl_2cc, symObjAddr: 0x1EDC, symBinAddr: 0x1000306F0, symSize: 0x44 }
  - { offset: 0x52882, size: 0x8, addend: 0x0, symName: __RNvMs0_NtCse1nGBsou5OW_5alloc3vecINtB5_3VechE6resizeCsdARyWrlPtHl_2cc, symObjAddr: 0x1F48, symBinAddr: 0x10003075C, symSize: 0x100 }
  - { offset: 0x52B23, size: 0x8, addend: 0x0, symName: __RNvMs2_NtCse1nGBsou5OW_5alloc3vecINtB5_3VechE11extend_withCsdARyWrlPtHl_2cc, symObjAddr: 0x2048, symBinAddr: 0x10003085C, symSize: 0x230 }
  - { offset: 0x52E85, size: 0x8, addend: 0x0, symName: __RNvMs_NtCse1nGBsou5OW_5alloc3vecINtB4_3VecINtNtB6_4sync3ArcNtNtCscOYdFFY2T5N_3std4path4PathEE8as_sliceCsdARyWrlPtHl_2cc, symObjAddr: 0x2290, symBinAddr: 0x100030A8C, symSize: 0x64 }
  - { offset: 0x5301E, size: 0x8, addend: 0x0, symName: __RNvMs_NtCse1nGBsou5OW_5alloc3vecINtB4_3VecINtNtB6_4sync3ArcNtNtNtCscOYdFFY2T5N_3std3ffi6os_str5OsStrEE4pushCsdARyWrlPtHl_2cc, symObjAddr: 0x22F4, symBinAddr: 0x100030AF0, symSize: 0xF8 }
  - { offset: 0x5328D, size: 0x8, addend: 0x0, symName: __RNvMs_NtCse1nGBsou5OW_5alloc3vecINtB4_3VecINtNtB6_4sync3ArcNtNtNtCscOYdFFY2T5N_3std3ffi6os_str5OsStrEE8as_sliceCsdARyWrlPtHl_2cc, symObjAddr: 0x24B4, symBinAddr: 0x100030BE8, symSize: 0x64 }
  - { offset: 0x5336C, size: 0x8, addend: 0x0, symName: __RNvMs_NtCse1nGBsou5OW_5alloc3vecINtB4_3VecINtNtB6_4sync3ArcNtNtNtCscOYdFFY2T5N_3std3ffi6os_str5OsStrEE8is_emptyCsdARyWrlPtHl_2cc, symObjAddr: 0x2518, symBinAddr: 0x100030C4C, symSize: 0x20 }
  - { offset: 0x534D2, size: 0x8, addend: 0x0, symName: __RNvMs_NtCse1nGBsou5OW_5alloc3vecINtB4_3VecINtNtB6_5boxed3BoxNtNtNtCscOYdFFY2T5N_3std3ffi6os_str5OsStrEE13shrink_to_fitCsdARyWrlPtHl_2cc, symObjAddr: 0x2538, symBinAddr: 0x100030C6C, symSize: 0xEC }
  - { offset: 0x5371E, size: 0x8, addend: 0x0, symName: __RNvMs_NtCse1nGBsou5OW_5alloc3vecINtB4_3VecINtNtB6_5boxed3BoxNtNtNtCscOYdFFY2T5N_3std3ffi6os_str5OsStrEE16into_boxed_sliceCsdARyWrlPtHl_2cc, symObjAddr: 0x2624, symBinAddr: 0x100030D58, symSize: 0x110 }
  - { offset: 0x539F0, size: 0x8, addend: 0x0, symName: __RNvMs_NtCse1nGBsou5OW_5alloc3vecINtB4_3VecINtNtB6_5boxed3BoxNtNtNtCscOYdFFY2T5N_3std3ffi6os_str5OsStrEE7reserveCsdARyWrlPtHl_2cc, symObjAddr: 0x2734, symBinAddr: 0x100030E68, symSize: 0xC8 }
  - { offset: 0x53C5D, size: 0x8, addend: 0x0, symName: __RNvMs_NtCse1nGBsou5OW_5alloc3vecINtB4_3VecNtCsdARyWrlPtHl_2cc6ObjectE4pushBG_, symObjAddr: 0x27FC, symBinAddr: 0x100030F30, symSize: 0x118 }
  - { offset: 0x53EB6, size: 0x8, addend: 0x0, symName: __RNvMs_NtCse1nGBsou5OW_5alloc3vecINtB4_3VecNtCsdARyWrlPtHl_2cc6ObjectE8as_sliceBG_, symObjAddr: 0x2914, symBinAddr: 0x100031048, symSize: 0x64 }
  - { offset: 0x54007, size: 0x8, addend: 0x0, symName: __RNvMs_NtCse1nGBsou5OW_5alloc3vecINtB4_3VecNtNtB6_6string6StringE8as_sliceCsdARyWrlPtHl_2cc, symObjAddr: 0x2978, symBinAddr: 0x1000310AC, symSize: 0x64 }
  - { offset: 0x541A0, size: 0x8, addend: 0x0, symName: __RNvMs_NtCse1nGBsou5OW_5alloc3vecINtB4_3VecNtNtNtCscOYdFFY2T5N_3std3ffi6os_str8OsStringE4pushCsdARyWrlPtHl_2cc, symObjAddr: 0x29DC, symBinAddr: 0x100031110, symSize: 0x108 }
  - { offset: 0x5446A, size: 0x8, addend: 0x0, symName: __RNvMs_NtCse1nGBsou5OW_5alloc3vecINtB4_3VecNtNtNtCscOYdFFY2T5N_3std3ffi6os_str8OsStringE7reserveCsdARyWrlPtHl_2cc, symObjAddr: 0x2AE4, symBinAddr: 0x100031218, symSize: 0xC8 }
  - { offset: 0x54675, size: 0x8, addend: 0x0, symName: __RNvMs_NtCse1nGBsou5OW_5alloc3vecINtB4_3VecNtNtNtCscOYdFFY2T5N_3std3ffi6os_str8OsStringE8as_sliceCsdARyWrlPtHl_2cc, symObjAddr: 0x2BAC, symBinAddr: 0x1000312E0, symSize: 0x64 }
  - { offset: 0x54754, size: 0x8, addend: 0x0, symName: __RNvMs_NtCse1nGBsou5OW_5alloc3vecINtB4_3VecNtNtNtCscOYdFFY2T5N_3std3ffi6os_str8OsStringE8is_emptyCsdARyWrlPtHl_2cc, symObjAddr: 0x2C10, symBinAddr: 0x100031344, symSize: 0x20 }
  - { offset: 0x54886, size: 0x8, addend: 0x0, symName: __RNvMs_NtCse1nGBsou5OW_5alloc3vecINtB4_3VecNtNtNtNtCscOYdFFY2T5N_3std4sync4mpmc5waker5EntryE4pushCsdARyWrlPtHl_2cc, symObjAddr: 0x2C30, symBinAddr: 0x100031364, symSize: 0x108 }
  - { offset: 0x54B10, size: 0x8, addend: 0x0, symName: __RNvMs_NtCse1nGBsou5OW_5alloc3vecINtB4_3VecNtNtNtNtCscOYdFFY2T5N_3std4sync4mpmc5waker5EntryE6removeCsdARyWrlPtHl_2cc, symObjAddr: 0x2D38, symBinAddr: 0x10003146C, symSize: 0x130 }
  - { offset: 0x54DF3, size: 0x8, addend: 0x0, symName: __RNvMs_NtCse1nGBsou5OW_5alloc3vecINtB4_3VecRNtNtCscOYdFFY2T5N_3std4path4PathE7reserveCsdARyWrlPtHl_2cc, symObjAddr: 0x2E68, symBinAddr: 0x10003159C, symSize: 0xC8 }
  - { offset: 0x54FFE, size: 0x8, addend: 0x0, symName: __RNvMs_NtCse1nGBsou5OW_5alloc3vecINtB4_3VecRNtNtCscOYdFFY2T5N_3std4path4PathE8as_sliceCsdARyWrlPtHl_2cc, symObjAddr: 0x2F30, symBinAddr: 0x100031664, symSize: 0x64 }
  - { offset: 0x551CE, size: 0x8, addend: 0x0, symName: __RNvMs_NtCse1nGBsou5OW_5alloc3vecINtB4_3VecRNtNtNtCscOYdFFY2T5N_3std3ffi6os_str8OsStringE7reserveCsdARyWrlPtHl_2cc, symObjAddr: 0x2F94, symBinAddr: 0x1000316C8, symSize: 0xBC }
  - { offset: 0x55414, size: 0x8, addend: 0x0, symName: __RNvMs_NtCse1nGBsou5OW_5alloc3vecINtB4_3VecReE4pushCsdARyWrlPtHl_2cc, symObjAddr: 0x3050, symBinAddr: 0x100031784, symSize: 0xF4 }
  - { offset: 0x556DD, size: 0x8, addend: 0x0, symName: __RNvMs_NtCse1nGBsou5OW_5alloc3vecINtB4_3VecReE7reserveCsdARyWrlPtHl_2cc, symObjAddr: 0x3144, symBinAddr: 0x100031878, symSize: 0xC8 }
  - { offset: 0x558B4, size: 0x8, addend: 0x0, symName: __RNvMs_NtCse1nGBsou5OW_5alloc3vecINtB4_3VecReE8as_sliceCsdARyWrlPtHl_2cc, symObjAddr: 0x320C, symBinAddr: 0x100031940, symSize: 0x64 }
  - { offset: 0x55A39, size: 0x8, addend: 0x0, symName: __RNvMs_NtCse1nGBsou5OW_5alloc3vecINtB4_3VecTINtNtB6_4sync3ArcNtNtNtCscOYdFFY2T5N_3std3ffi6os_str5OsStrEBF_EE8as_sliceCsdARyWrlPtHl_2cc, symObjAddr: 0x3270, symBinAddr: 0x1000319A4, symSize: 0x64 }
  - { offset: 0x55BBE, size: 0x8, addend: 0x0, symName: __RNvMs_NtCse1nGBsou5OW_5alloc3vecINtB4_3VecTINtNtB6_4sync3ArceEINtNtCsfvfooZQ3Axs_4core6option6OptionBF_EEE8as_sliceCsdARyWrlPtHl_2cc, symObjAddr: 0x32D4, symBinAddr: 0x100031A08, symSize: 0x64 }
  - { offset: 0x55D57, size: 0x8, addend: 0x0, symName: __RNvMs_NtCse1nGBsou5OW_5alloc3vecINtB4_3VecTNtNtCscOYdFFY2T5N_3std7process7CommandNtNvMs4_CsdARyWrlPtHl_2ccNtB1p_5Build15compile_objects10KillOnDropNtNtNtB1p_8parallel9job_token8JobTokenEE4pushB1p_, symObjAddr: 0x3338, symBinAddr: 0x100031A6C, symSize: 0x120 }
  - { offset: 0x55F33, size: 0x8, addend: 0x0, symName: __RNvMs_NtCse1nGBsou5OW_5alloc3vecINtB4_3VecTNtNtCscOYdFFY2T5N_3std7process7CommandNtNvMs4_CsdARyWrlPtHl_2ccNtB1p_5Build15compile_objects10KillOnDropNtNtNtB1p_8parallel9job_token8JobTokenEE8is_emptyB1p_, symObjAddr: 0x3458, symBinAddr: 0x100031B8C, symSize: 0x20 }
  - { offset: 0x56099, size: 0x8, addend: 0x0, symName: __RNvMs_NtCse1nGBsou5OW_5alloc3vecINtB4_3VecTNtNtNtCscOYdFFY2T5N_3std3ffi6os_str8OsStringBF_EE4pushCsdARyWrlPtHl_2cc, symObjAddr: 0x3478, symBinAddr: 0x100031BAC, symSize: 0x118 }
  - { offset: 0x562F2, size: 0x8, addend: 0x0, symName: __RNvMs_NtCse1nGBsou5OW_5alloc3vecINtB4_3VecTNtNtNtCscOYdFFY2T5N_3std3ffi6os_str8OsStringBF_EE8as_sliceCsdARyWrlPtHl_2cc, symObjAddr: 0x3590, symBinAddr: 0x100031CC4, symSize: 0x64 }
  - { offset: 0x563D1, size: 0x8, addend: 0x0, symName: __RNvMs_NtCse1nGBsou5OW_5alloc3vecINtB4_3VecTNtNtNtCscOYdFFY2T5N_3std3ffi6os_str8OsStringBF_EE8is_emptyCsdARyWrlPtHl_2cc, symObjAddr: 0x35F4, symBinAddr: 0x100031D28, symSize: 0x20 }
  - { offset: 0x564C2, size: 0x8, addend: 0x0, symName: __RNvMs_NtCse1nGBsou5OW_5alloc3vecINtB4_3VechE12as_mut_sliceCsdARyWrlPtHl_2cc, symObjAddr: 0x3614, symBinAddr: 0x100031D48, symSize: 0x60 }
  - { offset: 0x56697, size: 0x8, addend: 0x0, symName: __RNvMs_NtCse1nGBsou5OW_5alloc3vecINtB4_3VechE13shrink_to_fitCsdARyWrlPtHl_2cc, symObjAddr: 0x3674, symBinAddr: 0x100031DA8, symSize: 0xE4 }
  - { offset: 0x568C5, size: 0x8, addend: 0x0, symName: __RNvMs_NtCse1nGBsou5OW_5alloc3vecINtB4_3VechE16into_boxed_sliceCsdARyWrlPtHl_2cc, symObjAddr: 0x3758, symBinAddr: 0x100031E8C, symSize: 0x110 }
  - { offset: 0x56A8E, size: 0x8, addend: 0x0, symName: __RNvMs_NtCse1nGBsou5OW_5alloc3vecINtB4_3VechE3lenCsdARyWrlPtHl_2cc, symObjAddr: 0x3868, symBinAddr: 0x100031F9C, symSize: 0x18 }
  - { offset: 0x56B33, size: 0x8, addend: 0x0, symName: __RNvMs_NtCse1nGBsou5OW_5alloc3vecINtB4_3VechE8as_sliceCsdARyWrlPtHl_2cc, symObjAddr: 0x3880, symBinAddr: 0x100031FB4, symSize: 0x60 }
  - { offset: 0x58A69, size: 0x8, addend: 0x0, symName: __RINvMsk_NtCscOYdFFY2T5N_3std7processNtB6_7Command10env_removeReECsdARyWrlPtHl_2cc, symObjAddr: 0x0, symBinAddr: 0x100033CAC, symSize: 0x78 }
  - { offset: 0x59343, size: 0x8, addend: 0x0, symName: __RINvNtNtCscOYdFFY2T5N_3std4sync4mpmc7channelINtNtCsfvfooZQ3Axs_4core6result6ResultNtCs4Wq06SSluyi_9jobserver8AcquiredNtNtNtB6_2io5error5ErrorEECsdARyWrlPtHl_2cc, symObjAddr: 0x11CC, symBinAddr: 0x100034D84, symSize: 0x280 }
  - { offset: 0x59619, size: 0x8, addend: 0x0, symName: __RNCNvMs2_NtNtCscOYdFFY2T5N_3std4sync4mpmcINtB7_6SenderINtNtCsfvfooZQ3Axs_4core6result6ResultNtCs4Wq06SSluyi_9jobserver8AcquiredNtNtNtBb_2io5error5ErrorEE4send0CsdARyWrlPtHl_2cc, symObjAddr: 0x1518, symBinAddr: 0x1000350D0, symSize: 0xC0 }
  - { offset: 0x5968D, size: 0x8, addend: 0x0, symName: __RNCNvXs4_NtNtCscOYdFFY2T5N_3std4sync4mpmcINtB7_6SenderINtNtCsfvfooZQ3Axs_4core6result6ResultNtCs4Wq06SSluyi_9jobserver8AcquiredNtNtNtBb_2io5error5ErrorEENtNtNtBV_3ops4drop4Drop4drop0CsdARyWrlPtHl_2cc, symObjAddr: 0x15D8, symBinAddr: 0x100035190, symSize: 0x24 }
  - { offset: 0x596CF, size: 0x8, addend: 0x0, symName: __RNCNvXs4_NtNtCscOYdFFY2T5N_3std4sync4mpmcINtB7_6SenderINtNtCsfvfooZQ3Axs_4core6result6ResultNtCs4Wq06SSluyi_9jobserver8AcquiredNtNtNtBb_2io5error5ErrorEENtNtNtBV_3ops4drop4Drop4drops0_0CsdARyWrlPtHl_2cc, symObjAddr: 0x15FC, symBinAddr: 0x1000351B4, symSize: 0x24 }
  - { offset: 0x59711, size: 0x8, addend: 0x0, symName: __RNCNvXs4_NtNtCscOYdFFY2T5N_3std4sync4mpmcINtB7_6SenderINtNtCsfvfooZQ3Axs_4core6result6ResultNtCs4Wq06SSluyi_9jobserver8AcquiredNtNtNtBb_2io5error5ErrorEENtNtNtBV_3ops4drop4Drop4drops_0CsdARyWrlPtHl_2cc, symObjAddr: 0x1620, symBinAddr: 0x1000351D8, symSize: 0x24 }
  - { offset: 0x59769, size: 0x8, addend: 0x0, symName: __RNvXs4_NtNtCscOYdFFY2T5N_3std4sync4mpmcINtB5_6SenderINtNtCsfvfooZQ3Axs_4core6result6ResultNtCs4Wq06SSluyi_9jobserver8AcquiredNtNtNtB9_2io5error5ErrorEENtNtNtBT_3ops4drop4Drop4dropCsdARyWrlPtHl_2cc, symObjAddr: 0x1D20, symBinAddr: 0x1000358D8, symSize: 0x90 }
  - { offset: 0x59801, size: 0x8, addend: 0x0, symName: __RNCNvXsi_NtNtCscOYdFFY2T5N_3std4sync4mpmcINtB7_8ReceiverINtNtCsfvfooZQ3Axs_4core6result6ResultNtCs4Wq06SSluyi_9jobserver8AcquiredNtNtNtBb_2io5error5ErrorEENtNtNtBX_3ops4drop4Drop4drop0CsdARyWrlPtHl_2cc, symObjAddr: 0x16B4, symBinAddr: 0x10003526C, symSize: 0x24 }
  - { offset: 0x59843, size: 0x8, addend: 0x0, symName: __RNCNvXsi_NtNtCscOYdFFY2T5N_3std4sync4mpmcINtB7_8ReceiverINtNtCsfvfooZQ3Axs_4core6result6ResultNtCs4Wq06SSluyi_9jobserver8AcquiredNtNtNtBb_2io5error5ErrorEENtNtNtBX_3ops4drop4Drop4drops0_0CsdARyWrlPtHl_2cc, symObjAddr: 0x16D8, symBinAddr: 0x100035290, symSize: 0x24 }
  - { offset: 0x59885, size: 0x8, addend: 0x0, symName: __RNCNvXsi_NtNtCscOYdFFY2T5N_3std4sync4mpmcINtB7_8ReceiverINtNtCsfvfooZQ3Axs_4core6result6ResultNtCs4Wq06SSluyi_9jobserver8AcquiredNtNtNtBb_2io5error5ErrorEENtNtNtBX_3ops4drop4Drop4drops_0CsdARyWrlPtHl_2cc, symObjAddr: 0x16FC, symBinAddr: 0x1000352B4, symSize: 0x24 }
  - { offset: 0x598DD, size: 0x8, addend: 0x0, symName: __RNvXsi_NtNtCscOYdFFY2T5N_3std4sync4mpmcINtB5_8ReceiverINtNtCsfvfooZQ3Axs_4core6result6ResultNtCs4Wq06SSluyi_9jobserver8AcquiredNtNtNtB9_2io5error5ErrorEENtNtNtBV_3ops4drop4Drop4dropCsdARyWrlPtHl_2cc, symObjAddr: 0x2070, symBinAddr: 0x100035C28, symSize: 0x90 }
  - { offset: 0x5A2ED, size: 0x8, addend: 0x0, symName: __RNvXs5_NtNtNtCscOYdFFY2T5N_3std2os4unix7processNtNtBb_7process11ChildStderrNtNtNtB9_2fd3raw7AsRawFd9as_raw_fdCsdARyWrlPtHl_2cc, symObjAddr: 0x1DB0, symBinAddr: 0x100035968, symSize: 0x18 }
  - { offset: 0x5A5F0, size: 0x8, addend: 0x0, symName: __RNvXsd_NtNtCscOYdFFY2T5N_3std2io5stdioNtB5_6StdoutNtB7_5Write17is_write_vectoredCsdARyWrlPtHl_2cc, symObjAddr: 0x1EBC, symBinAddr: 0x100035A74, symSize: 0x30 }
  - { offset: 0x5A624, size: 0x8, addend: 0x0, symName: __RNvXse_NtNtCscOYdFFY2T5N_3std2io5stdioRNtB5_6StdoutNtB7_5Write17is_write_vectoredCsdARyWrlPtHl_2cc, symObjAddr: 0x1F64, symBinAddr: 0x100035B1C, symSize: 0x74 }
  - { offset: 0x5A66D, size: 0x8, addend: 0x0, symName: __RNvXsh_NtNtCscOYdFFY2T5N_3std2io5stdioNtB5_10StdoutLockNtB7_5Write17is_write_vectoredCsdARyWrlPtHl_2cc, symObjAddr: 0x1FD8, symBinAddr: 0x100035B90, symSize: 0x98 }
  - { offset: 0x5B2DD, size: 0x8, addend: 0x0, symName: __RNvNvMNtCsdARyWrlPtHl_2cc4toolNtB4_4Tool13with_features9is_zig_cc, symObjAddr: 0x77BC, symBinAddr: 0x10003AB78, symSize: 0x248 }
  - { offset: 0x5B332, size: 0x8, addend: 0x0, symName: __RNCNvNvMNtCsdARyWrlPtHl_2cc4toolNtB6_4Tool13with_features9is_zig_cc0B8_, symObjAddr: 0x7A04, symBinAddr: 0x10003ADC0, symSize: 0xE4 }
  - { offset: 0x5B371, size: 0x8, addend: 0x0, symName: __RNvNvMNtCsdARyWrlPtHl_2cc4toolNtB4_4Tool13with_features24guess_family_from_stdout, symObjAddr: 0x7AE8, symBinAddr: 0x10003AEA4, symSize: 0x48C }
  - { offset: 0x5B46D, size: 0x8, addend: 0x0, symName: __RNvNvMNtCsdARyWrlPtHl_2cc4toolNtB4_4Tool13with_features19detect_family_inner, symObjAddr: 0x7F74, symBinAddr: 0x10003B330, symSize: 0xD44 }
  - { offset: 0x5B7B2, size: 0x8, addend: 0x0, symName: __RNCNvNvMNtCsdARyWrlPtHl_2cc4toolNtB6_4Tool13with_features19detect_family_inner0B8_, symObjAddr: 0x8CB8, symBinAddr: 0x10003C074, symSize: 0x48 }
  - { offset: 0x5B7DA, size: 0x8, addend: 0x0, symName: __RNCNvNvMNtCsdARyWrlPtHl_2cc4toolNtB6_4Tool13with_features19detect_family_inners_0B8_, symObjAddr: 0x8D00, symBinAddr: 0x10003C0BC, symSize: 0x14C }
  - { offset: 0x5B834, size: 0x8, addend: 0x0, symName: __RNCNvNvMNtCsdARyWrlPtHl_2cc4toolNtB6_4Tool13with_features19detect_family_inners0_0B8_, symObjAddr: 0x8E4C, symBinAddr: 0x10003C208, symSize: 0x14C }
  - { offset: 0x5B88E, size: 0x8, addend: 0x0, symName: __RNCNvNvMNtCsdARyWrlPtHl_2cc4toolNtB6_4Tool13with_features19detect_family_inners1_0B8_, symObjAddr: 0x8F98, symBinAddr: 0x10003C354, symSize: 0xB4 }
  - { offset: 0x5B8D3, size: 0x8, addend: 0x0, symName: __RNCNvMNtCsdARyWrlPtHl_2cc4toolNtB4_4Tool13with_features0B6_, symObjAddr: 0x904C, symBinAddr: 0x10003C408, symSize: 0x4DC }
  - { offset: 0x5BA0A, size: 0x8, addend: 0x0, symName: __RNCNvMNtCsdARyWrlPtHl_2cc4toolNtB4_4Tool13with_featuress_0B6_, symObjAddr: 0x9528, symBinAddr: 0x10003C8E4, symSize: 0x568 }
  - { offset: 0x5BB40, size: 0x8, addend: 0x0, symName: __RNCNCNvMNtCsdARyWrlPtHl_2cc4toolNtB6_4Tool13with_featuress_00B8_, symObjAddr: 0x9A90, symBinAddr: 0x10003CE4C, symSize: 0x70 }
  - { offset: 0x5BBB0, size: 0x8, addend: 0x0, symName: __RNCNvMNtCsdARyWrlPtHl_2cc4toolNtB4_4Tool20is_duplicate_opt_arg0B6_, symObjAddr: 0x9E70, symBinAddr: 0x10003D22C, symSize: 0x8C }
  - { offset: 0x5BBF6, size: 0x8, addend: 0x0, symName: __RNCNvMNtCsdARyWrlPtHl_2cc4toolNtB4_4Tool10to_command0B6_, symObjAddr: 0xA2F4, symBinAddr: 0x10003D6B0, symSize: 0x58 }
  - { offset: 0x5BC55, size: 0x8, addend: 0x0, symName: __RNCNvMs_NtCsdARyWrlPtHl_2cc4toolNtB6_10ToolFamily15add_debug_flags0B8_, symObjAddr: 0xABB8, symBinAddr: 0x10003DAF4, symSize: 0x44 }
  - { offset: 0x5BC7F, size: 0x8, addend: 0x0, symName: __RNCNvMs_NtCsdARyWrlPtHl_2cc4toolNtB6_10ToolFamily15add_debug_flagss_0B8_, symObjAddr: 0xABFC, symBinAddr: 0x10003DB38, symSize: 0x80 }
  - { offset: 0x5BCEB, size: 0x8, addend: 0x0, symName: __RNvXs0_NtCsdARyWrlPtHl_2cc4toolNtB5_4ToolNtNtCsfvfooZQ3Axs_4core5clone5Clone5cloneB7_, symObjAddr: 0xAF40, symBinAddr: 0x10003DE7C, symSize: 0x200 }
  - { offset: 0x5BD1D, size: 0x8, addend: 0x0, symName: __RNvXs3_NtCsdARyWrlPtHl_2cc4toolNtB5_10ToolFamilyNtNtCsfvfooZQ3Axs_4core5clone5Clone5cloneB7_, symObjAddr: 0xB140, symBinAddr: 0x10003E07C, symSize: 0x20 }
  - { offset: 0x5BD51, size: 0x8, addend: 0x0, symName: __RNvXs4_NtCsdARyWrlPtHl_2cc4toolNtB5_10ToolFamilyNtNtCsfvfooZQ3Axs_4core3fmt5Debug3fmtB7_, symObjAddr: 0xB160, symBinAddr: 0x10003E09C, symSize: 0x108 }
  - { offset: 0x5BDD0, size: 0x8, addend: 0x0, symName: __RNvXs6_NtCsdARyWrlPtHl_2cc4toolNtB5_10ToolFamilyNtNtCsfvfooZQ3Axs_4core3cmp9PartialEq2eqB7_, symObjAddr: 0xB268, symBinAddr: 0x10003E1A4, symSize: 0x120 }
  - { offset: 0x5BEB8, size: 0x8, addend: 0x0, symName: __RNvNvMs0_NtNtCsdARyWrlPtHl_2cc8parallel9job_tokenNtB7_14JobTokenServer3new9JOBSERVER, symObjAddr: 0x461E0, symBinAddr: 0x100195470, symSize: 0x0 }
  - { offset: 0x5BEC5, size: 0x8, addend: 0x0, symName: __RNCNvMs0_NtNtCsdARyWrlPtHl_2cc8parallel9job_tokenNtB7_14JobTokenServer3new0Bb_, symObjAddr: 0x21E4, symBinAddr: 0x100035D9C, symSize: 0x5C }
  - { offset: 0x5BEF2, size: 0x8, addend: 0x0, symName: __RNCNCNvMs0_NtNtCsdARyWrlPtHl_2cc8parallel9job_tokenNtB9_14JobTokenServer3new00Bd_, symObjAddr: 0x2240, symBinAddr: 0x100035DF8, symSize: 0x4C }
  - { offset: 0x5C1DD, size: 0x8, addend: 0x0, symName: __RNCNvMs0_NtNtNtCsdARyWrlPtHl_2cc8parallel9job_token19inherited_jobserverNtB7_15ActiveJobServer7acquire0Bd_, symObjAddr: 0x2BC0, symBinAddr: 0x100036778, symSize: 0x924 }
  - { offset: 0x5C3CE, size: 0x8, addend: 0x0, symName: __RNCNvMNtNtNtCsdARyWrlPtHl_2cc8parallel9job_token19inherited_jobserverNtB4_9JobServer8from_env0Ba_, symObjAddr: 0x2734, symBinAddr: 0x1000362EC, symSize: 0x88 }
  - { offset: 0x5C417, size: 0x8, addend: 0x0, symName: __RNCNvMs_NtNtNtCsdARyWrlPtHl_2cc8parallel9job_token19inherited_jobserverNtB6_12HelperThread3new0Bc_, symObjAddr: 0x2B50, symBinAddr: 0x100036708, symSize: 0x44 }
  - { offset: 0x5C576, size: 0x8, addend: 0x0, symName: __RNCNvMNtNtNtCsdARyWrlPtHl_2cc8parallel9job_token19inprocess_jobserverNtB4_9JobServer7acquire0Ba_, symObjAddr: 0x36E8, symBinAddr: 0x1000372A0, symSize: 0x238 }
  - { offset: 0x5C62D, size: 0x8, addend: 0x0, symName: __RNCNCNvMNtNtNtCsdARyWrlPtHl_2cc8parallel9job_token19inprocess_jobserverNtB6_9JobServer7acquire00Bc_, symObjAddr: 0x3920, symBinAddr: 0x1000374D8, symSize: 0x40 }
  - { offset: 0x5C671, size: 0x8, addend: 0x0, symName: __RNCNvMNtNtNtCsdARyWrlPtHl_2cc8parallel9job_token19inprocess_jobserverNtB4_9JobServer3new0Ba_, symObjAddr: 0x356C, symBinAddr: 0x100037124, symSize: 0xB4 }
  - { offset: 0x5C6A8, size: 0x8, addend: 0x0, symName: __RNCNvMNtNtNtCsdARyWrlPtHl_2cc8parallel9job_token19inprocess_jobserverNtB4_9JobServer3news_0Ba_, symObjAddr: 0x3620, symBinAddr: 0x1000371D8, symSize: 0x9C }
  - { offset: 0x5C723, size: 0x8, addend: 0x0, symName: __RNvXs_NtNtCsdARyWrlPtHl_2cc8parallel9job_tokenNtB4_8JobTokenNtNtNtCsfvfooZQ3Axs_4core3ops4drop4Drop4drop, symObjAddr: 0x2114, symBinAddr: 0x100035CCC, symSize: 0x8C }
  - { offset: 0x5C788, size: 0x8, addend: 0x0, symName: __RNcNtNtNtNtCsdARyWrlPtHl_2cc8parallel9job_token14JobTokenServer9Inherited0B9_, symObjAddr: 0x21A0, symBinAddr: 0x100035D58, symSize: 0x18 }
  - { offset: 0x5C919, size: 0x8, addend: 0x0, symName: __RNCNvMs1_NtNtCsdARyWrlPtHl_2cc8parallel9job_tokenNtB7_20ActiveJobTokenServer7acquire0Bb_, symObjAddr: 0x236C, symBinAddr: 0x100035F24, symSize: 0x390 }
  - { offset: 0x5CB11, size: 0x8, addend: 0x0, symName: __RNcNtNtNtNtCsdARyWrlPtHl_2cc7windows10find_tools3Env5Arced0B9_, symObjAddr: 0x653C, symBinAddr: 0x10003A0DC, symSize: 0x2C }
  - { offset: 0x5CB40, size: 0x8, addend: 0x0, symName: __RNvXs_NtNtCsdARyWrlPtHl_2cc7windows10find_toolsNtB4_3EnvINtNtCsfvfooZQ3Axs_4core7convert5AsRefNtNtNtCscOYdFFY2T5N_3std3ffi6os_str5OsStrE6as_ref, symObjAddr: 0x6568, symBinAddr: 0x10003A108, symSize: 0x34 }
  - { offset: 0x5CB72, size: 0x8, addend: 0x0, symName: __RNvXs0_NtNtCsdARyWrlPtHl_2cc7windows10find_toolsNtB5_3EnvNtNtNtCsfvfooZQ3Axs_4core3ops5deref5Deref5deref, symObjAddr: 0x659C, symBinAddr: 0x10003A13C, symSize: 0xA8 }
  - { offset: 0x5CCB9, size: 0x8, addend: 0x0, symName: __RNvNtNtCsdARyWrlPtHl_2cc7windows10find_tools15find_tool_inner, symObjAddr: 0x68B4, symBinAddr: 0x10003A1E4, symSize: 0x2BC }
  - { offset: 0x5CDD5, size: 0x8, addend: 0x0, symName: __RNCNvNtNtCsdARyWrlPtHl_2cc7windows10find_tools15find_tool_inner0B7_, symObjAddr: 0x6B70, symBinAddr: 0x10003A4A0, symSize: 0x58 }
  - { offset: 0x5CE23, size: 0x8, addend: 0x0, symName: __RNCNvNtNtCsdARyWrlPtHl_2cc7windows10find_tools15find_tool_inners_0B7_, symObjAddr: 0x6BC8, symBinAddr: 0x10003A4F8, symSize: 0x68 }
  - { offset: 0x5CE9E, size: 0x8, addend: 0x0, symName: __RNCNvNtNtCsdARyWrlPtHl_2cc7windows10find_tools15find_tool_inners0_0B7_, symObjAddr: 0x6C30, symBinAddr: 0x10003A560, symSize: 0x68 }
  - { offset: 0x5D0CA, size: 0x8, addend: 0x0, symName: __RNCNvMNtNtCsdARyWrlPtHl_2cc6target6parserNtB4_21TargetInfoParserInner32from_cargo_environment_variables0B8_, symObjAddr: 0x41A8, symBinAddr: 0x100037D60, symSize: 0xDC }
  - { offset: 0x5D11E, size: 0x8, addend: 0x0, symName: __RNCNvMNtNtCsdARyWrlPtHl_2cc6target6parserNtB4_21TargetInfoParserInner32from_cargo_environment_variabless_0B8_, symObjAddr: 0x4284, symBinAddr: 0x100037E3C, symSize: 0x238 }
  - { offset: 0x5D1D1, size: 0x8, addend: 0x0, symName: __RNCNvMNtNtCsdARyWrlPtHl_2cc6target6parserNtB4_21TargetInfoParserInner32from_cargo_environment_variabless0_0B8_, symObjAddr: 0x44BC, symBinAddr: 0x100038074, symSize: 0x30 }
  - { offset: 0x5D207, size: 0x8, addend: 0x0, symName: __RNCNvMNtNtCsdARyWrlPtHl_2cc6target6parserNtB4_21TargetInfoParserInner32from_cargo_environment_variabless1_0B8_, symObjAddr: 0x44EC, symBinAddr: 0x1000380A4, symSize: 0x30 }
  - { offset: 0x5D23D, size: 0x8, addend: 0x0, symName: __RNCNvMNtNtCsdARyWrlPtHl_2cc6target6parserNtB4_21TargetInfoParserInner32from_cargo_environment_variabless2_0B8_, symObjAddr: 0x451C, symBinAddr: 0x1000380D4, symSize: 0x30 }
  - { offset: 0x5D273, size: 0x8, addend: 0x0, symName: __RNCNvMNtNtCsdARyWrlPtHl_2cc6target6parserNtB4_21TargetInfoParserInner32from_cargo_environment_variabless3_0B8_, symObjAddr: 0x454C, symBinAddr: 0x100038104, symSize: 0x30 }
  - { offset: 0x5D2A9, size: 0x8, addend: 0x0, symName: __RNCNvMNtNtCsdARyWrlPtHl_2cc6target6parserNtB4_21TargetInfoParserInner32from_cargo_environment_variabless4_0B8_, symObjAddr: 0x457C, symBinAddr: 0x100038134, symSize: 0x30 }
  - { offset: 0x5D2DF, size: 0x8, addend: 0x0, symName: __RNCNvMNtNtCsdARyWrlPtHl_2cc6target6parserNtB4_21TargetInfoParserInner32from_cargo_environment_variabless5_0B8_, symObjAddr: 0x45AC, symBinAddr: 0x100038164, symSize: 0x84 }
  - { offset: 0x5D382, size: 0x8, addend: 0x0, symName: __RNvNtNtCsdARyWrlPtHl_2cc6target6parser10parse_arch, symObjAddr: 0x4778, symBinAddr: 0x100038330, symSize: 0xF44 }
  - { offset: 0x5D892, size: 0x8, addend: 0x0, symName: __RNvNtNtCsdARyWrlPtHl_2cc6target6parser12parse_envabi, symObjAddr: 0x56BC, symBinAddr: 0x100039274, symSize: 0xA50 }
  - { offset: 0x5DA5D, size: 0x8, addend: 0x0, symName: __RNCNvMs0_NtNtCsdARyWrlPtHl_2cc6target6parserNtB9_10TargetInfo17from_rustc_target0Bb_, symObjAddr: 0x610C, symBinAddr: 0x100039CC4, symSize: 0x90 }
  - { offset: 0x5DAAA, size: 0x8, addend: 0x0, symName: __RNCNvMs0_NtNtCsdARyWrlPtHl_2cc6target6parserNtB9_10TargetInfo17from_rustc_targets_0Bb_, symObjAddr: 0x619C, symBinAddr: 0x100039D54, symSize: 0xB4 }
  - { offset: 0x5DB12, size: 0x8, addend: 0x0, symName: __RNvXs2_NtNtCsdARyWrlPtHl_2cc6target6parserNtB5_16TargetInfoParserNtNtCsfvfooZQ3Axs_4core7default7Default7defaultB9_, symObjAddr: 0xAF04, symBinAddr: 0x10003DE40, symSize: 0x3C }
  - { offset: 0x5E861, size: 0x8, addend: 0x0, symName: __RINvNtNtNtCse1nGBsou5OW_5alloc11collections5btree3mem7replaceINtNtB4_4node6HandleINtB10_7NodeRefNtNtB10_6marker5DyingNtNtNtCscOYdFFY2T5N_3std3ffi6os_str8OsStringINtNtCsfvfooZQ3Axs_4core6option6OptionB1R_ENtB1y_4LeafENtB1y_4EdgeEIBY_IB1i_B1w_B1R_B2z_NtB1y_14LeafOrInternalENtB1y_2KVENCINvMsm_NtB4_8navigateBX_27deallocating_next_uncheckedNtNtB8_5alloc6GlobalE0ECsdARyWrlPtHl_2cc, symObjAddr: 0x144C, symBinAddr: 0x100035004, symSize: 0xCC }
  - { offset: 0x5EF8D, size: 0x8, addend: 0x0, symName: __RNvNvMNtNtCsfvfooZQ3Axs_4core3ptr9alignmentNtB4_9Alignment13new_unchecked18precondition_checkCsdARyWrlPtHl_2cc, symObjAddr: 0x1A48, symBinAddr: 0x100035600, symSize: 0x50 }
  - { offset: 0x60A6B, size: 0x8, addend: 0x0, symName: __RNvXs1a_NtCsfvfooZQ3Axs_4core3fmtRNtNtCscOYdFFY2T5N_3std7process7CommandNtB6_5Debug3fmtCsdARyWrlPtHl_2cc, symObjAddr: 0x1CA0, symBinAddr: 0x100035858, symSize: 0x30 }
  - { offset: 0x60AB7, size: 0x8, addend: 0x0, symName: __RNvXs1b_NtCsfvfooZQ3Axs_4core3fmtQNtNtCscOYdFFY2T5N_3std7process7CommandNtB6_5Debug3fmtCsdARyWrlPtHl_2cc, symObjAddr: 0x1CD0, symBinAddr: 0x100035888, symSize: 0x30 }
  - { offset: 0x61941, size: 0x8, addend: 0x0, symName: __RNCNvXsd_NtNtCsfvfooZQ3Axs_4core5slice3cmpNtNtNtCscOYdFFY2T5N_3std3ffi6os_str8OsStringNtB7_13SliceContains14slice_contains0CsdARyWrlPtHl_2cc, symObjAddr: 0x1644, symBinAddr: 0x1000351FC, symSize: 0x38 }
  - { offset: 0x61987, size: 0x8, addend: 0x0, symName: __RNCNvXsd_NtNtCsfvfooZQ3Axs_4core5slice3cmpReNtB7_13SliceContains14slice_contains0CsdARyWrlPtHl_2cc, symObjAddr: 0x167C, symBinAddr: 0x100035234, symSize: 0x38 }
  - { offset: 0x619CE, size: 0x8, addend: 0x0, symName: __RNvXsd_NtNtCsfvfooZQ3Axs_4core5slice3cmpReNtB5_13SliceContains14slice_containsCsdARyWrlPtHl_2cc, symObjAddr: 0x1EEC, symBinAddr: 0x100035AA4, symSize: 0x78 }
  - { offset: 0x61B2E, size: 0x8, addend: 0x0, symName: __RNvXsc_NtNtCsfvfooZQ3Axs_4core5slice3cmphNtB5_8SliceOrd7compareCsdARyWrlPtHl_2cc, symObjAddr: 0x1DC8, symBinAddr: 0x100035980, symSize: 0xF4 }
  - { offset: 0x61E05, size: 0x8, addend: 0x0, symName: __RNvXNtCsfvfooZQ3Axs_4core7convertRReINtB2_5AsRefNtNtNtCscOYdFFY2T5N_3std3ffi6os_str5OsStrE6as_refCsdARyWrlPtHl_2cc, symObjAddr: 0x1A98, symBinAddr: 0x100035650, symSize: 0x28 }
  - { offset: 0x61E45, size: 0x8, addend: 0x0, symName: __RNvXNtCsfvfooZQ3Axs_4core7convertReINtB2_5AsRefNtNtCscOYdFFY2T5N_3std4path4PathE6as_refCsdARyWrlPtHl_2cc, symObjAddr: 0x1AC0, symBinAddr: 0x100035678, symSize: 0x30 }
  - { offset: 0x61E85, size: 0x8, addend: 0x0, symName: __RNvXNtCsfvfooZQ3Axs_4core7convertReINtB2_5AsRefeE6as_refCsdARyWrlPtHl_2cc, symObjAddr: 0x1AF0, symBinAddr: 0x1000356A8, symSize: 0x28 }
  - { offset: 0x61ECB, size: 0x8, addend: 0x0, symName: __RNvXs1_NtCsfvfooZQ3Axs_4core7convertNtNtCscOYdFFY2T5N_3std7process5StdioINtB5_4IntoBy_E4intoCsdARyWrlPtHl_2cc, symObjAddr: 0x1B8C, symBinAddr: 0x100035744, symSize: 0x1C }
  - { offset: 0x61F0B, size: 0x8, addend: 0x0, symName: __RNvXs1_NtCsfvfooZQ3Axs_4core7convertReINtB5_4IntoINtNtCse1nGBsou5OW_5alloc4sync3ArceEE4intoCsdARyWrlPtHl_2cc, symObjAddr: 0x1BA8, symBinAddr: 0x100035760, symSize: 0x28 }
  - { offset: 0x61F4B, size: 0x8, addend: 0x0, symName: __RNvXs1_NtCsfvfooZQ3Axs_4core7convertReINtB5_4IntoINtNtCse1nGBsou5OW_5alloc5boxed3BoxeEE4intoCsdARyWrlPtHl_2cc, symObjAddr: 0x1BD0, symBinAddr: 0x100035788, symSize: 0x28 }
  - { offset: 0x61F8B, size: 0x8, addend: 0x0, symName: __RNvXs1_NtCsfvfooZQ3Axs_4core7convertReINtB5_4IntoNtNtCscOYdFFY2T5N_3std4path7PathBufE4intoCsdARyWrlPtHl_2cc, symObjAddr: 0x1BF8, symBinAddr: 0x1000357B0, symSize: 0x28 }
  - { offset: 0x61FCB, size: 0x8, addend: 0x0, symName: __RNvXs1_NtCsfvfooZQ3Axs_4core7convertReINtB5_4IntoNtNtCse1nGBsou5OW_5alloc6string6StringE4intoCsdARyWrlPtHl_2cc, symObjAddr: 0x1C20, symBinAddr: 0x1000357D8, symSize: 0x28 }
  - { offset: 0x6200B, size: 0x8, addend: 0x0, symName: __RNvXs1_NtCsfvfooZQ3Axs_4core7convertReINtB5_4IntoNtNtNtCscOYdFFY2T5N_3std3ffi6os_str8OsStringE4intoCsdARyWrlPtHl_2cc, symObjAddr: 0x1C48, symBinAddr: 0x100035800, symSize: 0x28 }
  - { offset: 0x62051, size: 0x8, addend: 0x0, symName: __RNvXs4_NtCsfvfooZQ3Axs_4core7convertlINtB5_7TryIntojE8try_intoCsdARyWrlPtHl_2cc, symObjAddr: 0x1D00, symBinAddr: 0x1000358B8, symSize: 0x20 }
  - { offset: 0x620AC, size: 0x8, addend: 0x0, symName: __RNvXNtNtCsfvfooZQ3Axs_4core6future11into_futureNCNvMNtNtNtCsdARyWrlPtHl_2cc8parallel9job_token19inprocess_jobserverNtBO_9JobServer7acquire0NtB2_10IntoFuture11into_futureBU_, symObjAddr: 0x1B18, symBinAddr: 0x1000356D0, symSize: 0x14 }
  - { offset: 0x620E1, size: 0x8, addend: 0x0, symName: __RNvXNtNtCsfvfooZQ3Axs_4core6future11into_futureNCNvMs0_NtNtNtCsdARyWrlPtHl_2cc8parallel9job_token19inherited_jobserverNtBR_15ActiveJobServer7acquire0NtB2_10IntoFuture11into_futureBX_, symObjAddr: 0x1B2C, symBinAddr: 0x1000356E4, symSize: 0x30 }
  - { offset: 0x62117, size: 0x8, addend: 0x0, symName: __RNvXNtNtCsfvfooZQ3Axs_4core6future11into_futureNCNvMs1_NtNtCsdARyWrlPtHl_2cc8parallel9job_tokenNtBR_20ActiveJobTokenServer7acquire0NtB2_10IntoFuture11into_futureBV_, symObjAddr: 0x1B5C, symBinAddr: 0x100035714, symSize: 0x30 }
  - { offset: 0x62164, size: 0x8, addend: 0x0, symName: __RNvXs1_NtNtNtCsfvfooZQ3Axs_4core3ops8function5implsQNCNvMNtCsdARyWrlPtHl_2cc4toolNtBT_4Tool10to_command0INtB7_5FnMutTRRNtNtNtCscOYdFFY2T5N_3std3ffi6os_str8OsStringEE8call_mutBV_, symObjAddr: 0x1C70, symBinAddr: 0x100035828, symSize: 0x30 }
  - { offset: 0x62995, size: 0x8, addend: 0x0, symName: __RINvMsk_NtCscOYdFFY2T5N_3std7processNtB6_7Command10env_removeReECsdARyWrlPtHl_2cc, symObjAddr: 0x0, symBinAddr: 0x100033CAC, symSize: 0x78 }
  - { offset: 0x62A0C, size: 0x8, addend: 0x0, symName: __RINvMsk_NtCscOYdFFY2T5N_3std7processNtB6_7Command11current_dirINtNtCse1nGBsou5OW_5alloc6borrow3CowNtNtB8_4path4PathEECsdARyWrlPtHl_2cc, symObjAddr: 0x78, symBinAddr: 0x100033D24, symSize: 0x90 }
  - { offset: 0x62A48, size: 0x8, addend: 0x0, symName: __RINvMsk_NtCscOYdFFY2T5N_3std7processNtB6_7Command3argNtNtCse1nGBsou5OW_5alloc6string6StringECsdARyWrlPtHl_2cc, symObjAddr: 0x108, symBinAddr: 0x100033DB4, symSize: 0x84 }
  - { offset: 0x62A84, size: 0x8, addend: 0x0, symName: __RINvMsk_NtCscOYdFFY2T5N_3std7processNtB6_7Command3argNtNtNtB8_3ffi6os_str8OsStringECsdARyWrlPtHl_2cc, symObjAddr: 0x18C, symBinAddr: 0x100033E38, symSize: 0x84 }
  - { offset: 0x62AC0, size: 0x8, addend: 0x0, symName: __RINvMsk_NtCscOYdFFY2T5N_3std7processNtB6_7Command3argRNtNtB8_4path4PathECsdARyWrlPtHl_2cc, symObjAddr: 0x210, symBinAddr: 0x100033EBC, symSize: 0x70 }
  - { offset: 0x62B08, size: 0x8, addend: 0x0, symName: __RINvMsk_NtCscOYdFFY2T5N_3std7processNtB6_7Command3argRNtNtB8_4path7PathBufECsdARyWrlPtHl_2cc, symObjAddr: 0x280, symBinAddr: 0x100033F2C, symSize: 0x6C }
  - { offset: 0x62B61, size: 0x8, addend: 0x0, symName: __RINvMsk_NtCscOYdFFY2T5N_3std7processNtB6_7Command3argRNtNtNtB8_3ffi6os_str5OsStrECsdARyWrlPtHl_2cc, symObjAddr: 0x2EC, symBinAddr: 0x100033F98, symSize: 0x70 }
  - { offset: 0x62B9C, size: 0x8, addend: 0x0, symName: __RINvMsk_NtCscOYdFFY2T5N_3std7processNtB6_7Command3argReECsdARyWrlPtHl_2cc, symObjAddr: 0x35C, symBinAddr: 0x100034008, symSize: 0x70 }
  - { offset: 0x62C1E, size: 0x8, addend: 0x0, symName: __RINvMsk_NtCscOYdFFY2T5N_3std7processNtB6_7Command3envRINtNtCse1nGBsou5OW_5alloc4sync3ArcNtNtNtB8_3ffi6os_str5OsStrEBP_ECsdARyWrlPtHl_2cc, symObjAddr: 0x3CC, symBinAddr: 0x100034078, symSize: 0x9C }
  - { offset: 0x62CAF, size: 0x8, addend: 0x0, symName: __RINvMsk_NtCscOYdFFY2T5N_3std7processNtB6_7Command3envRNtNtNtB8_3ffi6os_str8OsStringBP_ECsdARyWrlPtHl_2cc, symObjAddr: 0x468, symBinAddr: 0x100034114, symSize: 0x9C }
  - { offset: 0x62D33, size: 0x8, addend: 0x0, symName: __RINvMsk_NtCscOYdFFY2T5N_3std7processNtB6_7Command3envReBP_ECsdARyWrlPtHl_2cc, symObjAddr: 0x504, symBinAddr: 0x1000341B0, symSize: 0xA4 }
  - { offset: 0x62DB7, size: 0x8, addend: 0x0, symName: __RINvMsk_NtCscOYdFFY2T5N_3std7processNtB6_7Command3envReRNtNtNtB8_3ffi6os_str8OsStringECsdARyWrlPtHl_2cc, symObjAddr: 0x5A8, symBinAddr: 0x100034254, symSize: 0xA0 }
  - { offset: 0x62E28, size: 0x8, addend: 0x0, symName: __RINvMsk_NtCscOYdFFY2T5N_3std7processNtB6_7Command3newNtNtB8_4path7PathBufECsdARyWrlPtHl_2cc, symObjAddr: 0x648, symBinAddr: 0x1000342F4, symSize: 0x90 }
  - { offset: 0x62E55, size: 0x8, addend: 0x0, symName: __RINvMsk_NtCscOYdFFY2T5N_3std7processNtB6_7Command3newRNtNtB8_4path4PathECsdARyWrlPtHl_2cc, symObjAddr: 0x6D8, symBinAddr: 0x100034384, symSize: 0x84 }
  - { offset: 0x62E81, size: 0x8, addend: 0x0, symName: __RINvMsk_NtCscOYdFFY2T5N_3std7processNtB6_7Command3newRNtNtB8_4path7PathBufECsdARyWrlPtHl_2cc, symObjAddr: 0x75C, symBinAddr: 0x100034408, symSize: 0x80 }
  - { offset: 0x62EBA, size: 0x8, addend: 0x0, symName: __RINvMsk_NtCscOYdFFY2T5N_3std7processNtB6_7Command3newRNtNtCse1nGBsou5OW_5alloc6string6StringECsdARyWrlPtHl_2cc, symObjAddr: 0x7DC, symBinAddr: 0x100034488, symSize: 0x80 }
  - { offset: 0x62EF3, size: 0x8, addend: 0x0, symName: __RINvMsk_NtCscOYdFFY2T5N_3std7processNtB6_7Command3newRReECsdARyWrlPtHl_2cc, symObjAddr: 0x85C, symBinAddr: 0x100034508, symSize: 0x80 }
  - { offset: 0x62F1F, size: 0x8, addend: 0x0, symName: __RINvMsk_NtCscOYdFFY2T5N_3std7processNtB6_7Command3newReECsdARyWrlPtHl_2cc, symObjAddr: 0x8DC, symBinAddr: 0x100034588, symSize: 0x84 }
  - { offset: 0x62F58, size: 0x8, addend: 0x0, symName: __RINvMsk_NtCscOYdFFY2T5N_3std7processNtB6_7Command4argsARej2_BR_ECsdARyWrlPtHl_2cc, symObjAddr: 0x960, symBinAddr: 0x10003460C, symSize: 0x10C }
  - { offset: 0x62FCA, size: 0x8, addend: 0x0, symName: __RINvMsk_NtCscOYdFFY2T5N_3std7processNtB6_7Command4argsINtNtCse1nGBsou5OW_5alloc3vec3VecNtNtBV_6string6StringEB1n_ECsdARyWrlPtHl_2cc, symObjAddr: 0xA6C, symBinAddr: 0x100034718, symSize: 0x104 }
  - { offset: 0x630BA, size: 0x8, addend: 0x0, symName: __RINvMsk_NtCscOYdFFY2T5N_3std7processNtB6_7Command4argsINtNtNtNtCsfvfooZQ3Axs_4core4iter8adapters3map3MapINtNtNtBZ_5slice4iter4IterINtNtCse1nGBsou5OW_5alloc4sync3ArcNtNtNtB8_3ffi6os_str5OsStrEENvYB24_NtNtNtBZ_3ops5deref5Deref5derefERB2C_ECsdARyWrlPtHl_2cc, symObjAddr: 0xC64, symBinAddr: 0x10003481C, symSize: 0xF4 }
  - { offset: 0x63137, size: 0x8, addend: 0x0, symName: __RINvMsk_NtCscOYdFFY2T5N_3std7processNtB6_7Command4argsRINtNtCse1nGBsou5OW_5alloc3vec3VecNtNtNtB8_3ffi6os_str8OsStringERB1o_ECsdARyWrlPtHl_2cc, symObjAddr: 0xD58, symBinAddr: 0x100034910, symSize: 0xD4 }
  - { offset: 0x631C1, size: 0x8, addend: 0x0, symName: __RINvMsk_NtCscOYdFFY2T5N_3std7processNtB6_7Command4argsRINtNtCse1nGBsou5OW_5alloc3vec3VecRNtNtNtB8_3ffi6os_str8OsStringERB1o_ECsdARyWrlPtHl_2cc, symObjAddr: 0xE2C, symBinAddr: 0x1000349E4, symSize: 0xD4 }
  - { offset: 0x63258, size: 0x8, addend: 0x0, symName: __RINvMsk_NtCscOYdFFY2T5N_3std7processNtB6_7Command4argsRSNtNtCse1nGBsou5OW_5alloc6string6StringRBS_ECsdARyWrlPtHl_2cc, symObjAddr: 0xF00, symBinAddr: 0x100034AB8, symSize: 0xDC }
  - { offset: 0x632FC, size: 0x8, addend: 0x0, symName: __RINvMsk_NtCscOYdFFY2T5N_3std7processNtB6_7Command4argsRSRNtNtB8_4path4PathRBS_ECsdARyWrlPtHl_2cc, symObjAddr: 0xFDC, symBinAddr: 0x100034B94, symSize: 0xDC }
  - { offset: 0x6336C, size: 0x8, addend: 0x0, symName: __RINvMsk_NtCscOYdFFY2T5N_3std7processNtB6_7Command5stdinNtB6_5StdioECsdARyWrlPtHl_2cc, symObjAddr: 0x10B8, symBinAddr: 0x100034C70, symSize: 0x5C }
  - { offset: 0x633A7, size: 0x8, addend: 0x0, symName: __RINvMsk_NtCscOYdFFY2T5N_3std7processNtB6_7Command6stderrNtB6_5StdioECsdARyWrlPtHl_2cc, symObjAddr: 0x1114, symBinAddr: 0x100034CCC, symSize: 0x5C }
  - { offset: 0x633E2, size: 0x8, addend: 0x0, symName: __RINvMsk_NtCscOYdFFY2T5N_3std7processNtB6_7Command6stdoutNtB6_5StdioECsdARyWrlPtHl_2cc, symObjAddr: 0x1170, symBinAddr: 0x100034D28, symSize: 0x5C }
  - { offset: 0x63777, size: 0x8, addend: 0x0, symName: __RNvMs2_NtNtCscOYdFFY2T5N_3std4sync4mpmcINtB5_6SenderINtNtCsfvfooZQ3Axs_4core6result6ResultNtCs4Wq06SSluyi_9jobserver8AcquiredNtNtNtB9_2io5error5ErrorEE4sendCsdARyWrlPtHl_2cc, symObjAddr: 0x1720, symBinAddr: 0x1000352D8, symSize: 0x1CC }
  - { offset: 0x639CF, size: 0x8, addend: 0x0, symName: __RNvMsC_NtCscOYdFFY2T5N_3std7processNtB5_10ExitStatus7successCsdARyWrlPtHl_2cc, symObjAddr: 0x18EC, symBinAddr: 0x1000354A4, symSize: 0x70 }
  - { offset: 0x63B1B, size: 0x8, addend: 0x0, symName: __RNvMsg_NtNtCscOYdFFY2T5N_3std4sync4mpmcINtB5_8ReceiverINtNtCsfvfooZQ3Axs_4core6result6ResultNtCs4Wq06SSluyi_9jobserver8AcquiredNtNtNtB9_2io5error5ErrorEE8try_recvCsdARyWrlPtHl_2cc, symObjAddr: 0x195C, symBinAddr: 0x100035514, symSize: 0xA4 }
  - { offset: 0x63C54, size: 0x8, addend: 0x0, symName: __RNvMsr_NtCscOYdFFY2T5N_3std7processNtB5_5Stdio4nullCsdARyWrlPtHl_2cc, symObjAddr: 0x1A00, symBinAddr: 0x1000355B8, symSize: 0x18 }
  - { offset: 0x63C67, size: 0x8, addend: 0x0, symName: __RNvMsr_NtCscOYdFFY2T5N_3std7processNtB5_5Stdio5pipedCsdARyWrlPtHl_2cc, symObjAddr: 0x1A18, symBinAddr: 0x1000355D0, symSize: 0x18 }
  - { offset: 0x63C7A, size: 0x8, addend: 0x0, symName: __RNvMsr_NtCscOYdFFY2T5N_3std7processNtB5_5Stdio7inheritCsdARyWrlPtHl_2cc, symObjAddr: 0x1A30, symBinAddr: 0x1000355E8, symSize: 0x18 }
  - { offset: 0x63E65, size: 0x8, addend: 0x0, symName: __RNvMNtNtCsdARyWrlPtHl_2cc8parallel9job_tokenNtB2_8JobToken3new, symObjAddr: 0x2100, symBinAddr: 0x100035CB8, symSize: 0x14 }
  - { offset: 0x63E85, size: 0x8, addend: 0x0, symName: __RNvMs0_NtNtCsdARyWrlPtHl_2cc8parallel9job_tokenNtB5_14JobTokenServer3new, symObjAddr: 0x21B8, symBinAddr: 0x100035D70, symSize: 0x2C }
  - { offset: 0x63F48, size: 0x8, addend: 0x0, symName: __RNvMs1_NtNtCsdARyWrlPtHl_2cc8parallel9job_tokenNtB5_20ActiveJobTokenServer3new, symObjAddr: 0x228C, symBinAddr: 0x100035E44, symSize: 0xB4 }
  - { offset: 0x63FB0, size: 0x8, addend: 0x0, symName: __RNvMs1_NtNtCsdARyWrlPtHl_2cc8parallel9job_tokenNtB5_20ActiveJobTokenServer7acquire, symObjAddr: 0x2340, symBinAddr: 0x100035EF8, symSize: 0x2C }
  - { offset: 0x64024, size: 0x8, addend: 0x0, symName: __RNvMNtNtNtCsdARyWrlPtHl_2cc8parallel9job_token19inherited_jobserverNtB2_9JobServer8from_env, symObjAddr: 0x26FC, symBinAddr: 0x1000362B4, symSize: 0x38 }
  - { offset: 0x64044, size: 0x8, addend: 0x0, symName: __RNvMNtNtNtCsdARyWrlPtHl_2cc8parallel9job_token19inherited_jobserverNtB2_9JobServer25get_global_implicit_token, symObjAddr: 0x27BC, symBinAddr: 0x100036374, symSize: 0x50 }
  - { offset: 0x64066, size: 0x8, addend: 0x0, symName: __RNvMNtNtNtCsdARyWrlPtHl_2cc8parallel9job_token19inherited_jobserverNtB2_9JobServer17release_token_raw, symObjAddr: 0x280C, symBinAddr: 0x1000363C4, symSize: 0xF0 }
  - { offset: 0x6409D, size: 0x8, addend: 0x0, symName: __RNvMNtNtNtCsdARyWrlPtHl_2cc8parallel9job_token19inherited_jobserverNtB2_9JobServer12enter_active, symObjAddr: 0x28FC, symBinAddr: 0x1000364B4, symSize: 0x58 }
  - { offset: 0x640BF, size: 0x8, addend: 0x0, symName: __RNvMs_NtNtNtCsdARyWrlPtHl_2cc8parallel9job_token19inherited_jobserverNtB4_12HelperThread3new, symObjAddr: 0x2954, symBinAddr: 0x10003650C, symSize: 0x1FC }
  - { offset: 0x64123, size: 0x8, addend: 0x0, symName: __RNvMs0_NtNtNtCsdARyWrlPtHl_2cc8parallel9job_token19inherited_jobserverNtB5_15ActiveJobServer7acquire, symObjAddr: 0x2B94, symBinAddr: 0x10003674C, symSize: 0x2C }
  - { offset: 0x6416E, size: 0x8, addend: 0x0, symName: __RNvMNtNtNtCsdARyWrlPtHl_2cc8parallel9job_token19inprocess_jobserverNtB2_9JobServer3new, symObjAddr: 0x34E4, symBinAddr: 0x10003709C, symSize: 0x88 }
  - { offset: 0x6419F, size: 0x8, addend: 0x0, symName: __RNvMNtNtNtCsdARyWrlPtHl_2cc8parallel9job_token19inprocess_jobserverNtB2_9JobServer7acquire, symObjAddr: 0x36BC, symBinAddr: 0x100037274, symSize: 0x2C }
  - { offset: 0x641C1, size: 0x8, addend: 0x0, symName: __RNvMNtNtNtCsdARyWrlPtHl_2cc8parallel9job_token19inprocess_jobserverNtB2_9JobServer17release_token_raw, symObjAddr: 0x3960, symBinAddr: 0x100037518, symSize: 0x44 }
  - { offset: 0x64202, size: 0x8, addend: 0x0, symName: __RNvMNtNtCsdARyWrlPtHl_2cc6target6parserNtB2_21TargetInfoParserInner32from_cargo_environment_variables, symObjAddr: 0x39A4, symBinAddr: 0x10003755C, symSize: 0x804 }
  - { offset: 0x64454, size: 0x8, addend: 0x0, symName: __RNvMs_NtNtCsdARyWrlPtHl_2cc6target6parserNtB4_16TargetInfoParser38parse_from_cargo_environment_variables, symObjAddr: 0x4630, symBinAddr: 0x1000381E8, symSize: 0x148 }
  - { offset: 0x6451E, size: 0x8, addend: 0x0, symName: __RNvMNtNtCsdARyWrlPtHl_2cc7windows10find_toolsNtB2_10TargetArch3new, symObjAddr: 0x6250, symBinAddr: 0x100039E08, symSize: 0x2D4 }
  - { offset: 0x645A6, size: 0x8, addend: 0x0, symName: __RNvMNtCsdARyWrlPtHl_2cc4toolNtB2_4Tool3new, symObjAddr: 0x720C, symBinAddr: 0x10003A5C8, symSize: 0xDC }
  - { offset: 0x645F3, size: 0x8, addend: 0x0, symName: __RNvMNtCsdARyWrlPtHl_2cc4toolNtB2_4Tool9with_args, symObjAddr: 0x72E8, symBinAddr: 0x10003A6A4, symSize: 0x74 }
  - { offset: 0x6464F, size: 0x8, addend: 0x0, symName: __RNvMNtCsdARyWrlPtHl_2cc4toolNtB2_4Tool11with_family, symObjAddr: 0x735C, symBinAddr: 0x10003A718, symSize: 0x188 }
  - { offset: 0x64680, size: 0x8, addend: 0x0, symName: __RNvMNtCsdARyWrlPtHl_2cc4toolNtB2_4Tool13with_features, symObjAddr: 0x74E4, symBinAddr: 0x10003A8A0, symSize: 0x2D8 }
  - { offset: 0x6482D, size: 0x8, addend: 0x0, symName: __RNvMNtCsdARyWrlPtHl_2cc4toolNtB2_4Tool10remove_arg, symObjAddr: 0x9B00, symBinAddr: 0x10003CEBC, symSize: 0x3C }
  - { offset: 0x64860, size: 0x8, addend: 0x0, symName: __RNvMNtCsdARyWrlPtHl_2cc4toolNtB2_4Tool11push_cc_arg, symObjAddr: 0x9B3C, symBinAddr: 0x10003CEF8, symSize: 0x11C }
  - { offset: 0x648A0, size: 0x8, addend: 0x0, symName: __RNvMNtCsdARyWrlPtHl_2cc4toolNtB2_4Tool20is_duplicate_opt_arg, symObjAddr: 0x9C58, symBinAddr: 0x10003D014, symSize: 0x218 }
  - { offset: 0x6491D, size: 0x8, addend: 0x0, symName: __RNvMNtCsdARyWrlPtHl_2cc4toolNtB2_4Tool25push_opt_unless_duplicate, symObjAddr: 0x9EFC, symBinAddr: 0x10003D2B8, symSize: 0x130 }
  - { offset: 0x64950, size: 0x8, addend: 0x0, symName: __RNvMNtCsdARyWrlPtHl_2cc4toolNtB2_4Tool10to_command, symObjAddr: 0xA02C, symBinAddr: 0x10003D3E8, symSize: 0x2C8 }
  - { offset: 0x64A0C, size: 0x8, addend: 0x0, symName: __RNvMNtCsdARyWrlPtHl_2cc4toolNtB2_4Tool4path, symObjAddr: 0xA34C, symBinAddr: 0x10003D708, symSize: 0x34 }
  - { offset: 0x64A56, size: 0x8, addend: 0x0, symName: __RNvMNtCsdARyWrlPtHl_2cc4toolNtB2_4Tool4args, symObjAddr: 0xA380, symBinAddr: 0x10003D73C, symSize: 0x34 }
  - { offset: 0x64AA0, size: 0x8, addend: 0x0, symName: __RNvMNtCsdARyWrlPtHl_2cc4toolNtB2_4Tool3env, symObjAddr: 0xA3B4, symBinAddr: 0x10003D770, symSize: 0x34 }
  - { offset: 0x64AC3, size: 0x8, addend: 0x0, symName: __RNvMNtCsdARyWrlPtHl_2cc4toolNtB2_4Tool11is_like_gnu, symObjAddr: 0xA7F0, symBinAddr: 0x10003D7A4, symSize: 0x3C }
  - { offset: 0x64AE6, size: 0x8, addend: 0x0, symName: __RNvMNtCsdARyWrlPtHl_2cc4toolNtB2_4Tool13is_like_clang, symObjAddr: 0xA82C, symBinAddr: 0x10003D7E0, symSize: 0x64 }
  - { offset: 0x64B09, size: 0x8, addend: 0x0, symName: __RNvMNtCsdARyWrlPtHl_2cc4toolNtB2_4Tool20is_xctoolchain_clang, symObjAddr: 0xA890, symBinAddr: 0x10003D844, symSize: 0xAC }
  - { offset: 0x64B42, size: 0x8, addend: 0x0, symName: __RNvMNtCsdARyWrlPtHl_2cc4toolNtB2_4Tool12is_like_msvc, symObjAddr: 0xA93C, symBinAddr: 0x10003D8F0, symSize: 0x64 }
  - { offset: 0x64B65, size: 0x8, addend: 0x0, symName: __RNvMNtCsdARyWrlPtHl_2cc4toolNtB2_4Tool23supports_path_delimiter, symObjAddr: 0xAA18, symBinAddr: 0x10003D954, symSize: 0xBC }
  - { offset: 0x64B95, size: 0x8, addend: 0x0, symName: __RNvMs_NtCsdARyWrlPtHl_2cc4toolNtB4_10ToolFamily15add_debug_flags, symObjAddr: 0xAAD4, symBinAddr: 0x10003DA10, symSize: 0xE4 }
  - { offset: 0x64BD6, size: 0x8, addend: 0x0, symName: __RNvMs_NtCsdARyWrlPtHl_2cc4toolNtB4_10ToolFamily23add_force_frame_pointer, symObjAddr: 0xAC7C, symBinAddr: 0x10003DBB8, symSize: 0x9C }
  - { offset: 0x64C08, size: 0x8, addend: 0x0, symName: __RNvMs_NtCsdARyWrlPtHl_2cc4toolNtB4_10ToolFamily14warnings_flags, symObjAddr: 0xAD18, symBinAddr: 0x10003DC54, symSize: 0x88 }
  - { offset: 0x64C2B, size: 0x8, addend: 0x0, symName: __RNvMs_NtCsdARyWrlPtHl_2cc4toolNtB4_10ToolFamily20extra_warnings_flags, symObjAddr: 0xADA0, symBinAddr: 0x10003DCDC, symSize: 0x78 }
  - { offset: 0x64C4E, size: 0x8, addend: 0x0, symName: __RNvMs_NtCsdARyWrlPtHl_2cc4toolNtB4_10ToolFamily23warnings_to_errors_flag, symObjAddr: 0xAE18, symBinAddr: 0x10003DD54, symSize: 0x88 }
  - { offset: 0x64C71, size: 0x8, addend: 0x0, symName: __RNvMs_NtCsdARyWrlPtHl_2cc4toolNtB4_10ToolFamily14verbose_stderr, symObjAddr: 0xAEA0, symBinAddr: 0x10003DDDC, symSize: 0x64 }
  - { offset: 0x64FE7, size: 0x8, addend: 0x0, symName: __RINvMs4_NtNtCsfvfooZQ3Axs_4core4sync6atomicINtB6_9AtomicPtruE12fetch_updateNCNvMs1_NtNtNtNtCscOYdFFY2T5N_3std3sys4sync6rwlock5queueNtB1j_6RwLock11read_unlock0ECsdARyWrlPtHl_2cc, symObjAddr: 0x0, symBinAddr: 0x10003E2C4, symSize: 0x160 }
  - { offset: 0x65D45, size: 0x8, addend: 0x0, symName: __RINvNtNtCsfvfooZQ3Axs_4core4sync6atomic11atomic_loadOINtNtNtNtCscOYdFFY2T5N_3std4sync4mpmc4list5BlockINtNtB6_6result6ResultNtCs4Wq06SSluyi_9jobserver8AcquiredNtNtNtBY_2io5error5ErrorEEECsdARyWrlPtHl_2cc, symObjAddr: 0x478, symBinAddr: 0x10003E73C, symSize: 0x14C }
  - { offset: 0x65DB7, size: 0x8, addend: 0x0, symName: __RINvNtNtCsfvfooZQ3Axs_4core4sync6atomic11atomic_loadmECsdARyWrlPtHl_2cc, symObjAddr: 0x5C4, symBinAddr: 0x10003E888, symSize: 0x14C }
  - { offset: 0x65E29, size: 0x8, addend: 0x0, symName: __RINvNtNtCsfvfooZQ3Axs_4core4sync6atomic12atomic_storeOINtNtNtNtCscOYdFFY2T5N_3std4sync4mpmc4list5BlockINtNtB6_6result6ResultNtCs4Wq06SSluyi_9jobserver8AcquiredNtNtNtBZ_2io5error5ErrorEEECsdARyWrlPtHl_2cc, symObjAddr: 0x710, symBinAddr: 0x10003E9D4, symSize: 0x150 }
  - { offset: 0x65EA6, size: 0x8, addend: 0x0, symName: __RINvNtNtCsfvfooZQ3Axs_4core4sync6atomic12atomic_storeOuECsdARyWrlPtHl_2cc, symObjAddr: 0x860, symBinAddr: 0x10003EB24, symSize: 0x150 }
  - { offset: 0x65F23, size: 0x8, addend: 0x0, symName: __RINvNtNtCsfvfooZQ3Axs_4core4sync6atomic12atomic_storeyECsdARyWrlPtHl_2cc, symObjAddr: 0x9B0, symBinAddr: 0x10003EC74, symSize: 0x150 }
  - { offset: 0x65FA0, size: 0x8, addend: 0x0, symName: __RINvNtNtCsfvfooZQ3Axs_4core4sync6atomic23atomic_compare_exchangeOINtNtNtNtCscOYdFFY2T5N_3std4sync4mpmc4list5BlockINtNtB6_6result6ResultNtCs4Wq06SSluyi_9jobserver8AcquiredNtNtNtB1a_2io5error5ErrorEEECsdARyWrlPtHl_2cc, symObjAddr: 0xB00, symBinAddr: 0x10003EDC4, symSize: 0x4E8 }
  - { offset: 0x66068, size: 0x8, addend: 0x0, symName: __RINvNtNtCsfvfooZQ3Axs_4core4sync6atomic23atomic_compare_exchangeOuECsdARyWrlPtHl_2cc, symObjAddr: 0xFE8, symBinAddr: 0x10003F2AC, symSize: 0x4E8 }
  - { offset: 0x66130, size: 0x8, addend: 0x0, symName: __RINvNtNtCsfvfooZQ3Axs_4core4sync6atomic28atomic_compare_exchange_weakOuECsdARyWrlPtHl_2cc, symObjAddr: 0x14D0, symBinAddr: 0x10003F794, symSize: 0x4E8 }
  - { offset: 0x661F8, size: 0x8, addend: 0x0, symName: __RINvNtNtCsfvfooZQ3Axs_4core4sync6atomic28atomic_compare_exchange_weakjECsdARyWrlPtHl_2cc, symObjAddr: 0x19B8, symBinAddr: 0x10003FC7C, symSize: 0x4E8 }
  - { offset: 0x662C0, size: 0x8, addend: 0x0, symName: __RINvNtNtCsfvfooZQ3Axs_4core4sync6atomic28atomic_compare_exchange_weakmECsdARyWrlPtHl_2cc, symObjAddr: 0x1EA0, symBinAddr: 0x100040164, symSize: 0x4E8 }
  - { offset: 0x67298, size: 0x8, addend: 0x0, symName: __RNvXs_NvNtNtCsfvfooZQ3Axs_4core3fmt5Write9write_fmtQINtNvNtNtCscOYdFFY2T5N_3std2io5Write9write_fmt7AdapterINtNtNtBV_8buffered9bufwriter9BufWriterNtNtBV_5stdio6StdoutEENtB4_12SpecWriteFmt14spec_write_fmtCsdARyWrlPtHl_2cc, symObjAddr: 0x4B68, symBinAddr: 0x100042E14, symSize: 0x164 }
  - { offset: 0x67345, size: 0x8, addend: 0x0, symName: __RNvXs_NvNtNtCsfvfooZQ3Axs_4core3fmt5Write9write_fmtQINtNvNtNtCscOYdFFY2T5N_3std2io5Write9write_fmt7AdapterNtNtBX_2fs4FileENtB4_12SpecWriteFmt14spec_write_fmtCsdARyWrlPtHl_2cc, symObjAddr: 0x4CCC, symBinAddr: 0x100042F78, symSize: 0x164 }
  - { offset: 0x673F4, size: 0x8, addend: 0x0, symName: __RNvYINtNvNtNtCscOYdFFY2T5N_3std2io5Write9write_fmt7AdapterINtNtNtB9_8buffered9bufwriter9BufWriterNtNtB9_5stdio6StdoutEENtNtCsfvfooZQ3Axs_4core3fmt5Write10write_charCsdARyWrlPtHl_2cc, symObjAddr: 0x4E30, symBinAddr: 0x1000430DC, symSize: 0x70 }
  - { offset: 0x6745C, size: 0x8, addend: 0x0, symName: __RNvYINtNvNtNtCscOYdFFY2T5N_3std2io5Write9write_fmt7AdapterINtNtNtB9_8buffered9bufwriter9BufWriterNtNtB9_5stdio6StdoutEENtNtCsfvfooZQ3Axs_4core3fmt5Write9write_fmtCsdARyWrlPtHl_2cc, symObjAddr: 0x4EA0, symBinAddr: 0x10004314C, symSize: 0x24 }
  - { offset: 0x674A0, size: 0x8, addend: 0x0, symName: __RNvYINtNvNtNtCscOYdFFY2T5N_3std2io5Write9write_fmt7AdapterNtNtBb_2fs4FileENtNtCsfvfooZQ3Axs_4core3fmt5Write10write_charCsdARyWrlPtHl_2cc, symObjAddr: 0x4EC4, symBinAddr: 0x100043170, symSize: 0x70 }
  - { offset: 0x67508, size: 0x8, addend: 0x0, symName: __RNvYINtNvNtNtCscOYdFFY2T5N_3std2io5Write9write_fmt7AdapterNtNtBb_2fs4FileENtNtCsfvfooZQ3Axs_4core3fmt5Write9write_fmtCsdARyWrlPtHl_2cc, symObjAddr: 0x4F34, symBinAddr: 0x1000431E0, symSize: 0x24 }
  - { offset: 0x6813E, size: 0x8, addend: 0x0, symName: __RINvNtNtCsfvfooZQ3Axs_4core5slice5index5rangeINtNtNtB6_3ops5range9RangeFromjEECsdARyWrlPtHl_2cc, symObjAddr: 0x2388, symBinAddr: 0x10004064C, symSize: 0x27C }
  - { offset: 0x68349, size: 0x8, addend: 0x0, symName: __RINvNtNtCsfvfooZQ3Axs_4core5slice5index5rangeNtNtNtB6_3ops5range9RangeFullECsdARyWrlPtHl_2cc, symObjAddr: 0x2604, symBinAddr: 0x1000408C8, symSize: 0x29C }
  - { offset: 0x6862D, size: 0x8, addend: 0x0, symName: __RNvNvXs0_NtNtCsfvfooZQ3Axs_4core5slice5indexjINtB7_10SliceIndexSpE13get_unchecked18precondition_checkCsdARyWrlPtHl_2cc, symObjAddr: 0x42EC, symBinAddr: 0x1000425B0, symSize: 0x40 }
  - { offset: 0x68669, size: 0x8, addend: 0x0, symName: __RNvNvXs0_NtNtCsfvfooZQ3Axs_4core5slice5indexjINtB7_10SliceIndexSpE17get_unchecked_mut18precondition_checkCsdARyWrlPtHl_2cc, symObjAddr: 0x432C, symBinAddr: 0x1000425F0, symSize: 0x40 }
  - { offset: 0x6873B, size: 0x8, addend: 0x0, symName: __RNvNvXs1_NtNtCsfvfooZQ3Axs_4core5slice5indexNtNtNtBb_3ops11index_range10IndexRangeINtB7_10SliceIndexSpE17get_unchecked_mut18precondition_checkCsdARyWrlPtHl_2cc, symObjAddr: 0x436C, symBinAddr: 0x100042630, symSize: 0x40 }
  - { offset: 0x6877D, size: 0x8, addend: 0x0, symName: __RNvNvXs2_NtNtCsfvfooZQ3Axs_4core5slice5indexINtNtNtBb_3ops5range5RangejEINtB7_10SliceIndexSpE13get_unchecked18precondition_checkCsdARyWrlPtHl_2cc, symObjAddr: 0x43AC, symBinAddr: 0x100042670, symSize: 0x60 }
  - { offset: 0x687C7, size: 0x8, addend: 0x0, symName: __RNvNvXs2_NtNtCsfvfooZQ3Axs_4core5slice5indexINtNtNtBb_3ops5range5RangejEINtB7_10SliceIndexSpE17get_unchecked_mut18precondition_checkCsdARyWrlPtHl_2cc, symObjAddr: 0x440C, symBinAddr: 0x1000426D0, symSize: 0x60 }
  - { offset: 0x68E4B, size: 0x8, addend: 0x0, symName: __RNCINvNvXs_NtNtNtCsfvfooZQ3Axs_4core4iter8adapters9enumerateINtB9_9EnumeratepENtNtNtBd_6traits8iterator8Iterator8try_fold9enumerateRNtNtNtNtCscOYdFFY2T5N_3std4sync4mpmc5waker5EntryuINtNtNtBf_3ops12control_flow11ControlFlowTjB25_EENCINvNvB1e_4find5checkB3y_NCNvMB28_NtB28_5Waker10unregister0E0E0CsdARyWrlPtHl_2cc, symObjAddr: 0x28A0, symBinAddr: 0x100040B64, symSize: 0xB4 }
  - { offset: 0x68EE2, size: 0x8, addend: 0x0, symName: __RNvXs_NtNtNtCsfvfooZQ3Axs_4core4iter8adapters9enumerateINtB4_9EnumerateINtNtNtBa_5slice4iter4IterINtNtCse1nGBsou5OW_5alloc4sync3ArcNtNtNtCscOYdFFY2T5N_3std3ffi6os_str5OsStrEEENtNtNtB8_6traits8iterator8Iterator4nextCsdARyWrlPtHl_2cc, symObjAddr: 0x47E8, symBinAddr: 0x100042A94, symSize: 0xE0 }
  - { offset: 0x68FBC, size: 0x8, addend: 0x0, symName: __RNvXs_NtNtNtCsfvfooZQ3Axs_4core4iter8adapters9enumerateINtB4_9EnumerateINtNtNtBa_5slice4iter4IterNtNtCse1nGBsou5OW_5alloc6string6StringEENtNtNtB8_6traits8iterator8Iterator4nextCsdARyWrlPtHl_2cc, symObjAddr: 0x48C8, symBinAddr: 0x100042B74, symSize: 0xE0 }
  - { offset: 0x69096, size: 0x8, addend: 0x0, symName: __RNvXs_NtNtNtCsfvfooZQ3Axs_4core4iter8adapters9enumerateINtB4_9EnumerateINtNtNtBa_5slice4iter4IterNtNtNtCscOYdFFY2T5N_3std3ffi6os_str8OsStringEENtNtNtB8_6traits8iterator8Iterator4nextCsdARyWrlPtHl_2cc, symObjAddr: 0x49A8, symBinAddr: 0x100042C54, symSize: 0xE0 }
  - { offset: 0x69170, size: 0x8, addend: 0x0, symName: __RNvXs_NtNtNtCsfvfooZQ3Axs_4core4iter8adapters9enumerateINtB4_9EnumerateINtNtNtBa_5slice4iter4IterTNtNtNtCscOYdFFY2T5N_3std3ffi6os_str8OsStringB1y_EEENtNtNtB8_6traits8iterator8Iterator4nextCsdARyWrlPtHl_2cc, symObjAddr: 0x4A88, symBinAddr: 0x100042D34, symSize: 0xE0 }
  - { offset: 0x69304, size: 0x8, addend: 0x0, symName: __RNvXNtNtNtCsfvfooZQ3Axs_4core4iter6traits7collectINtNtNtB6_8adapters9enumerate9EnumerateINtNtNtB8_5slice4iter4IterINtNtCse1nGBsou5OW_5alloc4sync3ArcNtNtNtCscOYdFFY2T5N_3std3ffi6os_str5OsStrEEENtB2_12IntoIterator9into_iterCsdARyWrlPtHl_2cc, symObjAddr: 0x446C, symBinAddr: 0x100042730, symSize: 0x18 }
  - { offset: 0x69373, size: 0x8, addend: 0x0, symName: __RNvXsB_NtNtCsfvfooZQ3Axs_4core4iter5rangemNtB5_4Step17forward_uncheckedCsdARyWrlPtHl_2cc, symObjAddr: 0x4640, symBinAddr: 0x1000428EC, symSize: 0x54 }
  - { offset: 0x693D8, size: 0x8, addend: 0x0, symName: __RNvXsF_NtNtCsfvfooZQ3Axs_4core4iter5rangejNtB5_4Step13steps_betweenCsdARyWrlPtHl_2cc, symObjAddr: 0x4694, symBinAddr: 0x100042940, symSize: 0xA4 }
  - { offset: 0x69433, size: 0x8, addend: 0x0, symName: __RNvXsF_NtNtCsfvfooZQ3Axs_4core4iter5rangejNtB5_4Step17forward_uncheckedCsdARyWrlPtHl_2cc, symObjAddr: 0x4738, symBinAddr: 0x1000429E4, symSize: 0x48 }
  - { offset: 0x69492, size: 0x8, addend: 0x0, symName: __RNvXsF_NtNtCsfvfooZQ3Axs_4core4iter5rangejNtB5_4Step18backward_uncheckedCsdARyWrlPtHl_2cc, symObjAddr: 0x4780, symBinAddr: 0x100042A2C, symSize: 0x48 }
  - { offset: 0x69843, size: 0x8, addend: 0x0, symName: __RNvXNvNtNtCscOYdFFY2T5N_3std2io5Write9write_fmtINtB2_7AdapterINtNtNtB6_8buffered9bufwriter9BufWriterNtNtB6_5stdio6StdoutEENtNtCsfvfooZQ3Axs_4core3fmt5Write9write_strCsdARyWrlPtHl_2cc, symObjAddr: 0x449C, symBinAddr: 0x100042748, symSize: 0xB8 }
  - { offset: 0x6989F, size: 0x8, addend: 0x0, symName: __RNvXNvNtNtCscOYdFFY2T5N_3std2io5Write9write_fmtINtB2_7AdapterNtNtB8_2fs4FileENtNtCsfvfooZQ3Axs_4core3fmt5Write9write_strCsdARyWrlPtHl_2cc, symObjAddr: 0x4554, symBinAddr: 0x100042800, symSize: 0xB8 }
  - { offset: 0x69D03, size: 0x8, addend: 0x0, symName: __RINvNtNtCscOYdFFY2T5N_3std4sync4mpsc7channelINtNtCsfvfooZQ3Axs_4core6result6ResultNtCs4Wq06SSluyi_9jobserver8AcquiredNtNtNtB6_2io5error5ErrorEECsdARyWrlPtHl_2cc, symObjAddr: 0x420, symBinAddr: 0x10003E6E4, symSize: 0x58 }
  - { offset: 0x6A048, size: 0x8, addend: 0x0, symName: __RNCNvMs_NtNtNtCscOYdFFY2T5N_3std4sync4mpmc5arrayINtB6_7ChannelINtNtCsfvfooZQ3Axs_4core6result6ResultNtCs4Wq06SSluyi_9jobserver8AcquiredNtNtNtBc_2io5error5ErrorEE4send0CsdARyWrlPtHl_2cc, symObjAddr: 0x2A3C, symBinAddr: 0x100040D00, symSize: 0x1B4 }
  - { offset: 0x6AA92, size: 0x8, addend: 0x0, symName: __RNvXs1_NtNtNtCscOYdFFY2T5N_3std4sync6poison7condvarNtB5_7CondvarNtNtCsfvfooZQ3Axs_4core7default7Default7defaultCsdARyWrlPtHl_2cc, symObjAddr: 0x460C, symBinAddr: 0x1000428B8, symSize: 0x34 }
  - { offset: 0x6AD16, size: 0x8, addend: 0x0, symName: __RNCNvMs1_NtNtNtNtCscOYdFFY2T5N_3std3sys4sync6rwlock5queueNtB7_6RwLock11read_unlock0CsdARyWrlPtHl_2cc, symObjAddr: 0x2954, symBinAddr: 0x100040C18, symSize: 0xE8 }
  - { offset: 0x6ADE6, size: 0x8, addend: 0x0, symName: __RNvNtNtNtNtCscOYdFFY2T5N_3std3sys4sync6rwlock5queue9read_lockCsdARyWrlPtHl_2cc, symObjAddr: 0x41F0, symBinAddr: 0x1000424B4, symSize: 0xFC }
  - { offset: 0x6B1EB, size: 0x8, addend: 0x0, symName: __RNvXs_NtNtCse1nGBsou5OW_5alloc3vec15set_len_on_dropNtB4_12SetLenOnDropNtNtNtCsfvfooZQ3Axs_4core3ops4drop4Drop4dropCsdARyWrlPtHl_2cc, symObjAddr: 0x47C8, symBinAddr: 0x100042A74, symSize: 0x20 }
  - { offset: 0x6B8D1, size: 0x8, addend: 0x0, symName: __RNvNtNtCsdARyWrlPtHl_2cc8parallel6stderr9get_flags, symObjAddr: 0x4F58, symBinAddr: 0x100043204, symSize: 0x1A4 }
  - { offset: 0x6B956, size: 0x8, addend: 0x0, symName: __RNvNtNtCsdARyWrlPtHl_2cc8parallel6stderr9set_flags, symObjAddr: 0x50FC, symBinAddr: 0x1000433A8, symSize: 0x19C }
  - { offset: 0x6B9CC, size: 0x8, addend: 0x0, symName: __RINvNtNtCsdARyWrlPtHl_2cc8parallel6stderr16set_non_blockingNtNtCscOYdFFY2T5N_3std7process11ChildStderrEB6_, symObjAddr: 0x5298, symBinAddr: 0x100043544, symSize: 0xC8 }
  - { offset: 0x6BA58, size: 0x8, addend: 0x0, symName: __RNvNtNtCsdARyWrlPtHl_2cc8parallel6stderr15bytes_available, symObjAddr: 0x5360, symBinAddr: 0x10004360C, symSize: 0x220 }
  - { offset: 0x6BBBB, size: 0x8, addend: 0x0, symName: __RINvMs4_NtNtCsfvfooZQ3Axs_4core4sync6atomicINtB6_9AtomicPtruE12fetch_updateNCNvMs1_NtNtNtNtCscOYdFFY2T5N_3std3sys4sync6rwlock5queueNtB1j_6RwLock11read_unlock0ECsdARyWrlPtHl_2cc, symObjAddr: 0x0, symBinAddr: 0x10003E2C4, symSize: 0x160 }
  - { offset: 0x6BD6B, size: 0x8, addend: 0x0, symName: __RINvMs4_NtNtCsfvfooZQ3Axs_4core4sync6atomicINtB6_9AtomicPtruE12fetch_updateNvNtNtNtNtCscOYdFFY2T5N_3std3sys4sync6rwlock5queue9read_lockECsdARyWrlPtHl_2cc, symObjAddr: 0x160, symBinAddr: 0x10003E424, symSize: 0x160 }
  - { offset: 0x6BEFE, size: 0x8, addend: 0x0, symName: __RINvMsK_NtNtCsfvfooZQ3Axs_4core4sync6atomicNtB6_9AtomicU3212fetch_updateNCNCNvMNtNtNtCsdARyWrlPtHl_2cc8parallel9job_token19inprocess_jobserverNtB1f_9JobServer7acquire00EB1l_, symObjAddr: 0x2C0, symBinAddr: 0x10003E584, symSize: 0x160 }
  - { offset: 0x6C5DA, size: 0x8, addend: 0x0, symName: __RNvMs3_NtNtCscOYdFFY2T5N_3std4sync4mpscINtB5_6SenderINtNtCsfvfooZQ3Axs_4core6result6ResultNtCs4Wq06SSluyi_9jobserver8AcquiredNtNtNtB9_2io5error5ErrorEE4sendCsdARyWrlPtHl_2cc, symObjAddr: 0x2BF0, symBinAddr: 0x100040EB4, symSize: 0x24 }
  - { offset: 0x6C616, size: 0x8, addend: 0x0, symName: __RNvMs3_NtNtCsfvfooZQ3Axs_4core4sync6atomicNtB5_10AtomicBool3newCsdARyWrlPtHl_2cc, symObjAddr: 0x2C14, symBinAddr: 0x100040ED8, symSize: 0x18 }
  - { offset: 0x6C646, size: 0x8, addend: 0x0, symName: __RNvMs3_NtNtCsfvfooZQ3Axs_4core4sync6atomicNtB5_10AtomicBool4loadCsdARyWrlPtHl_2cc, symObjAddr: 0x2C2C, symBinAddr: 0x100040EF0, symSize: 0x38 }
  - { offset: 0x6C678, size: 0x8, addend: 0x0, symName: __RNvMs3_NtNtCsfvfooZQ3Axs_4core4sync6atomicNtB5_10AtomicBool5storeCsdARyWrlPtHl_2cc, symObjAddr: 0x2C64, symBinAddr: 0x100040F28, symSize: 0x34 }
  - { offset: 0x6C899, size: 0x8, addend: 0x0, symName: __RNvMs8_NtCscOYdFFY2T5N_3std2ioNtB5_7IoSlice14advance_slicesCsdARyWrlPtHl_2cc, symObjAddr: 0x2C98, symBinAddr: 0x100040F5C, symSize: 0x2F4 }
  - { offset: 0x6CC5D, size: 0x8, addend: 0x0, symName: __RNvMs9_NtNtCscOYdFFY2T5N_3std4sync4mpscINtB5_8ReceiverINtNtCsfvfooZQ3Axs_4core6result6ResultNtCs4Wq06SSluyi_9jobserver8AcquiredNtNtNtB9_2io5error5ErrorEE8try_recvCsdARyWrlPtHl_2cc, symObjAddr: 0x2F8C, symBinAddr: 0x100041250, symSize: 0x24 }
  - { offset: 0x6CC89, size: 0x8, addend: 0x0, symName: __RNvMsK_NtNtCsfvfooZQ3Axs_4core4sync6atomicNtB5_9AtomicU323newCsdARyWrlPtHl_2cc, symObjAddr: 0x2FB0, symBinAddr: 0x100041274, symSize: 0x18 }
  - { offset: 0x6CCE2, size: 0x8, addend: 0x0, symName: __RNvMsK_NtNtCsfvfooZQ3Axs_4core4sync6atomicNtB5_9AtomicU329fetch_addCsdARyWrlPtHl_2cc, symObjAddr: 0x2FC8, symBinAddr: 0x10004128C, symSize: 0xDC }
  - { offset: 0x6CE42, size: 0x8, addend: 0x0, symName: __RNvMs_NtNtNtCscOYdFFY2T5N_3std4sync4mpmc5arrayINtB4_7ChannelINtNtCsfvfooZQ3Axs_4core6result6ResultNtCs4Wq06SSluyi_9jobserver8AcquiredNtNtNtBa_2io5error5ErrorEE10start_recvCsdARyWrlPtHl_2cc, symObjAddr: 0x30A4, symBinAddr: 0x100041368, symSize: 0x3A0 }
  - { offset: 0x6D2C4, size: 0x8, addend: 0x0, symName: __RNvMs_NtNtNtCscOYdFFY2T5N_3std4sync4mpmc5arrayINtB4_7ChannelINtNtCsfvfooZQ3Axs_4core6result6ResultNtCs4Wq06SSluyi_9jobserver8AcquiredNtNtNtBa_2io5error5ErrorEE10start_sendCsdARyWrlPtHl_2cc, symObjAddr: 0x3444, symBinAddr: 0x100041708, symSize: 0x3B0 }
  - { offset: 0x6D77C, size: 0x8, addend: 0x0, symName: __RNvMs_NtNtNtCscOYdFFY2T5N_3std4sync4mpmc5arrayINtB4_7ChannelINtNtCsfvfooZQ3Axs_4core6result6ResultNtCs4Wq06SSluyi_9jobserver8AcquiredNtNtNtBa_2io5error5ErrorEE18disconnect_sendersCsdARyWrlPtHl_2cc, symObjAddr: 0x37F4, symBinAddr: 0x100041AB8, symSize: 0xA4 }
  - { offset: 0x6D90B, size: 0x8, addend: 0x0, symName: __RNvMs_NtNtNtCscOYdFFY2T5N_3std4sync4mpmc5arrayINtB4_7ChannelINtNtCsfvfooZQ3Axs_4core6result6ResultNtCs4Wq06SSluyi_9jobserver8AcquiredNtNtNtBa_2io5error5ErrorEE20discard_all_messagesCsdARyWrlPtHl_2cc, symObjAddr: 0x3898, symBinAddr: 0x100041B5C, symSize: 0x1D0 }
  - { offset: 0x6DBDB, size: 0x8, addend: 0x0, symName: __RNvMs_NtNtNtCscOYdFFY2T5N_3std4sync4mpmc5arrayINtB4_7ChannelINtNtCsfvfooZQ3Axs_4core6result6ResultNtCs4Wq06SSluyi_9jobserver8AcquiredNtNtNtBa_2io5error5ErrorEE20disconnect_receiversCsdARyWrlPtHl_2cc, symObjAddr: 0x3A68, symBinAddr: 0x100041D2C, symSize: 0xB4 }
  - { offset: 0x6DD66, size: 0x8, addend: 0x0, symName: __RNvMs_NtNtNtCscOYdFFY2T5N_3std4sync4mpmc5arrayINtB4_7ChannelINtNtCsfvfooZQ3Axs_4core6result6ResultNtCs4Wq06SSluyi_9jobserver8AcquiredNtNtNtBa_2io5error5ErrorEE4readCsdARyWrlPtHl_2cc, symObjAddr: 0x3B1C, symBinAddr: 0x100041DE0, symSize: 0x12C }
  - { offset: 0x6DF74, size: 0x8, addend: 0x0, symName: __RNvMs_NtNtNtCscOYdFFY2T5N_3std4sync4mpmc5arrayINtB4_7ChannelINtNtCsfvfooZQ3Axs_4core6result6ResultNtCs4Wq06SSluyi_9jobserver8AcquiredNtNtNtBa_2io5error5ErrorEE4sendCsdARyWrlPtHl_2cc, symObjAddr: 0x3C48, symBinAddr: 0x100041F0C, symSize: 0x2F0 }
  - { offset: 0x6E210, size: 0x8, addend: 0x0, symName: __RNvMs_NtNtNtCscOYdFFY2T5N_3std4sync4mpmc5arrayINtB4_7ChannelINtNtCsfvfooZQ3Axs_4core6result6ResultNtCs4Wq06SSluyi_9jobserver8AcquiredNtNtNtBa_2io5error5ErrorEE5writeCsdARyWrlPtHl_2cc, symObjAddr: 0x3F38, symBinAddr: 0x1000421FC, symSize: 0xDC }
  - { offset: 0x6E381, size: 0x8, addend: 0x0, symName: __RNvMs_NtNtNtCscOYdFFY2T5N_3std4sync4mpmc5arrayINtB4_7ChannelINtNtCsfvfooZQ3Axs_4core6result6ResultNtCs4Wq06SSluyi_9jobserver8AcquiredNtNtNtBa_2io5error5ErrorEE7is_fullCsdARyWrlPtHl_2cc, symObjAddr: 0x4014, symBinAddr: 0x1000422D8, symSize: 0xB4 }
  - { offset: 0x6E4FF, size: 0x8, addend: 0x0, symName: __RNvMs_NtNtNtCscOYdFFY2T5N_3std4sync4mpmc5arrayINtB4_7ChannelINtNtCsfvfooZQ3Axs_4core6result6ResultNtCs4Wq06SSluyi_9jobserver8AcquiredNtNtNtBa_2io5error5ErrorEE8try_recvCsdARyWrlPtHl_2cc, symObjAddr: 0x40C8, symBinAddr: 0x10004238C, symSize: 0xC4 }
  - { offset: 0x6E5AE, size: 0x8, addend: 0x0, symName: __RNvMsq_NtNtCsfvfooZQ3Axs_4core4sync6atomicNtB5_8AtomicU84loadCsdARyWrlPtHl_2cc, symObjAddr: 0x418C, symBinAddr: 0x100042450, symSize: 0x30 }
  - { offset: 0x6E5E0, size: 0x8, addend: 0x0, symName: __RNvMsq_NtNtCsfvfooZQ3Axs_4core4sync6atomicNtB5_8AtomicU85storeCsdARyWrlPtHl_2cc, symObjAddr: 0x41BC, symBinAddr: 0x100042480, symSize: 0x34 }
  - { offset: 0x6E88C, size: 0x8, addend: 0x0, symName: __RNvMNtNtCsdARyWrlPtHl_2cc6target5appleNtB4_10TargetInfo13get_apple_env, symObjAddr: 0x5580, symBinAddr: 0x10004382C, symSize: 0x16C }
  - { offset: 0x6E8AE, size: 0x8, addend: 0x0, symName: __RNvMNtNtCsdARyWrlPtHl_2cc6target5appleNtB4_10TargetInfo14apple_sdk_name, symObjAddr: 0x56EC, symBinAddr: 0x100043998, symSize: 0x3FC }
  - { offset: 0x6E8EE, size: 0x8, addend: 0x0, symName: __RNvMNtNtCsdARyWrlPtHl_2cc6target5appleNtB4_10TargetInfo18apple_version_flag, symObjAddr: 0x5AE8, symBinAddr: 0x100043D94, symSize: 0x690 }
  - { offset: 0x6EA69, size: 0x8, addend: 0x0, symName: __RNvMNtNtCsdARyWrlPtHl_2cc6target4llvmNtB4_10TargetInfo11llvm_target, symObjAddr: 0x6178, symBinAddr: 0x100044424, symSize: 0x123C }
  - { offset: 0x6ED9C, size: 0x8, addend: 0x0, symName: __RNvMs0_NtNtCsdARyWrlPtHl_2cc6target6parserNtB7_10TargetInfo17from_rustc_target, symObjAddr: 0x73B4, symBinAddr: 0x100045660, symSize: 0x13C0 }
  - { offset: 0x6F498, size: 0x8, addend: 0x0, symName: __RNvNvMNtNtCsfvfooZQ3Axs_4core5alloc6layoutNtB4_6Layout25from_size_align_unchecked18precondition_checkCsdARyWrlPtHl_2cc, symObjAddr: 0x2F48, symBinAddr: 0x100049730, symSize: 0x50 }
  - { offset: 0x6F4D4, size: 0x8, addend: 0x0, symName: __RNvNvMNtNtCsfvfooZQ3Axs_4core5alloc6layoutNtB4_6Layout5array5innerCsdARyWrlPtHl_2cc, symObjAddr: 0x2F98, symBinAddr: 0x100049780, symSize: 0x108 }
  - { offset: 0x6F5C2, size: 0x8, addend: 0x0, symName: __RNvXsc_NtNtCsfvfooZQ3Axs_4core5alloc6layoutNtB5_11LayoutErrorNtNtB9_3fmt5Debug3fmtCsdARyWrlPtHl_2cc, symObjAddr: 0x4B54, symBinAddr: 0x10004B33C, symSize: 0x40 }
  - { offset: 0x6F960, size: 0x8, addend: 0x0, symName: __RNvXs1a_NtCsfvfooZQ3Axs_4core3fmtRNtNtNtCscOYdFFY2T5N_3std3ffi6os_str5OsStrNtB6_5Debug3fmtCsdARyWrlPtHl_2cc, symObjAddr: 0x33EC, symBinAddr: 0x100049BD4, symSize: 0x3C }
  - { offset: 0x6F9A6, size: 0x8, addend: 0x0, symName: __RNvXs1a_NtCsfvfooZQ3Axs_4core3fmtRNtNtNtCscOYdFFY2T5N_3std3ffi6os_str8OsStringNtB6_5Debug3fmtCsdARyWrlPtHl_2cc, symObjAddr: 0x3428, symBinAddr: 0x100049C10, symSize: 0x30 }
  - { offset: 0x6F9EC, size: 0x8, addend: 0x0, symName: __RNvXs1a_NtCsfvfooZQ3Axs_4core3fmtRbNtB6_5Debug3fmtCsdARyWrlPtHl_2cc, symObjAddr: 0x3458, symBinAddr: 0x100049C40, symSize: 0x30 }
  - { offset: 0x6FA32, size: 0x8, addend: 0x0, symName: __RNvXs1a_NtCsfvfooZQ3Axs_4core3fmtReNtB6_5Debug3fmtCsdARyWrlPtHl_2cc, symObjAddr: 0x3488, symBinAddr: 0x100049C70, symSize: 0x3C }
  - { offset: 0x6FA7E, size: 0x8, addend: 0x0, symName: __RNvXs1c_NtCsfvfooZQ3Axs_4core3fmtRDNtB6_7DisplayEL_Bx_3fmtCsdARyWrlPtHl_2cc, symObjAddr: 0x34C4, symBinAddr: 0x100049CAC, symSize: 0x3C }
  - { offset: 0x6FAC4, size: 0x8, addend: 0x0, symName: __RNvXs1c_NtCsfvfooZQ3Axs_4core3fmtRINtNtCse1nGBsou5OW_5alloc4sync3ArceENtB6_7Display3fmtCsdARyWrlPtHl_2cc, symObjAddr: 0x3500, symBinAddr: 0x100049CE8, symSize: 0x30 }
  - { offset: 0x6FB0A, size: 0x8, addend: 0x0, symName: __RNvXs1c_NtCsfvfooZQ3Axs_4core3fmtRReNtB6_7Display3fmtCsdARyWrlPtHl_2cc, symObjAddr: 0x3530, symBinAddr: 0x100049D18, symSize: 0x30 }
  - { offset: 0x6FB56, size: 0x8, addend: 0x0, symName: __RNvXsI_NtCsfvfooZQ3Axs_4core3fmtNtB5_5ErrorNtB5_5Debug3fmtCsdARyWrlPtHl_2cc, symObjAddr: 0x4118, symBinAddr: 0x10004A900, symSize: 0x40 }
  - { offset: 0x6FB96, size: 0x8, addend: 0x0, symName: __RNvXsf_NtCsfvfooZQ3Axs_4core3fmtbNtB5_5Debug3fmtCsdARyWrlPtHl_2cc, symObjAddr: 0x4CCC, symBinAddr: 0x10004B4B4, symSize: 0x2C }
  - { offset: 0x70C58, size: 0x8, addend: 0x0, symName: __RNvNvMNtNtCsfvfooZQ3Axs_4core3ptr9const_ptrPp7sub_ptr18precondition_checkCsdARyWrlPtHl_2cc, symObjAddr: 0x2F08, symBinAddr: 0x1000496F0, symSize: 0x40 }
  - { offset: 0x70E3F, size: 0x8, addend: 0x0, symName: __RNvXs7_NtNtCsfvfooZQ3Axs_4core3cmp5implsRNtNtNtCscOYdFFY2T5N_3std3ffi6os_str5OsStrINtB7_9PartialEqReE2neCsdARyWrlPtHl_2cc, symObjAddr: 0x371C, symBinAddr: 0x100049F04, symSize: 0x44 }
  - { offset: 0x70E8E, size: 0x8, addend: 0x0, symName: __RNvXs7_NtNtCsfvfooZQ3Axs_4core3cmp5implsRNtNtNtCscOYdFFY2T5N_3std3ffi6os_str5OsStrNtB7_9PartialEq2eqCsdARyWrlPtHl_2cc, symObjAddr: 0x3760, symBinAddr: 0x100049F48, symSize: 0x44 }
  - { offset: 0x70EDD, size: 0x8, addend: 0x0, symName: __RNvXs7_NtNtCsfvfooZQ3Axs_4core3cmp5implsRNtNtNtCscOYdFFY2T5N_3std3ffi6os_str8OsStringINtB7_9PartialEqReE2eqCsdARyWrlPtHl_2cc, symObjAddr: 0x37A4, symBinAddr: 0x100049F8C, symSize: 0x3C }
  - { offset: 0x70FAB, size: 0x8, addend: 0x0, symName: __RNvYNtNtNtCscOYdFFY2T5N_3std3ffi6os_str5OsStrINtNtCsfvfooZQ3Axs_4core3cmp9PartialEqeE2neCsdARyWrlPtHl_2cc, symObjAddr: 0x5468, symBinAddr: 0x10004BC50, symSize: 0x38 }
  - { offset: 0x70FFA, size: 0x8, addend: 0x0, symName: __RNvYNtNtNtCscOYdFFY2T5N_3std3ffi6os_str5OsStrNtNtCsfvfooZQ3Axs_4core3cmp9PartialEq2neCsdARyWrlPtHl_2cc, symObjAddr: 0x54A0, symBinAddr: 0x10004BC88, symSize: 0x38 }
  - { offset: 0x71049, size: 0x8, addend: 0x0, symName: __RNvYNtNtNtCscOYdFFY2T5N_3std3ffi6os_str8OsStringINtNtCsfvfooZQ3Axs_4core3cmp9PartialEqReE2neCsdARyWrlPtHl_2cc, symObjAddr: 0x54D8, symBinAddr: 0x10004BCC0, symSize: 0x30 }
  - { offset: 0x7308B, size: 0x8, addend: 0x0, symName: __RINvNtNtNtCsfvfooZQ3Axs_4core4iter6traits8iterator12iter_compareINtNtNtB6_8adapters3rev3RevNtNtCscOYdFFY2T5N_3std4path10ComponentsEB10_NCINvNvNtB2_8Iterator5eq_by7compareNtB1t_9ComponentB2I_NCINvYB10_B2g_2eqB10_E0E0uECsdARyWrlPtHl_2cc, symObjAddr: 0x98C, symBinAddr: 0x100047258, symSize: 0xC4 }
  - { offset: 0x731DE, size: 0x8, addend: 0x0, symName: __RNCINvNvNtNtNtNtCsfvfooZQ3Axs_4core4iter6traits8iterator8Iterator12try_for_each4callNtNtCscOYdFFY2T5N_3std4path9ComponentINtNtNtBe_3ops12control_flow11ControlFlowIB1W_uNtNtBe_3cmp8OrderingEENCINvNvB8_12iter_compare7compareINtNtNtBc_8adapters3rev3RevNtB1m_10ComponentsEB1k_uNCINvNvB6_5eq_by7compareB1k_B1k_NCINvYB3y_B6_2eqB3y_E0E0E0E0CsdARyWrlPtHl_2cc, symObjAddr: 0x137C, symBinAddr: 0x100047C48, symSize: 0x40 }
  - { offset: 0x73250, size: 0x8, addend: 0x0, symName: __RNCINvNvNtNtNtNtCsfvfooZQ3Axs_4core4iter6traits8iterator8Iterator4find5checkNtNtCscOYdFFY2T5N_3std4path7PathBufNCNCNvMs4_CsdARyWrlPtHl_2ccNtB1V_5Build11try_compiles_00E0B1V_, symObjAddr: 0x13BC, symBinAddr: 0x100047C88, symSize: 0xAC }
  - { offset: 0x732AD, size: 0x8, addend: 0x0, symName: __RNCINvNvNtNtNtNtCsfvfooZQ3Axs_4core4iter6traits8iterator8Iterator4find5checkNtNtCscOYdFFY2T5N_3std4path7PathBufNCNCNvNtNtNtCsdARyWrlPtHl_2cc7windows10find_tools5impl_21find_msvc_environment0s_0E0B1X_, symObjAddr: 0x1468, symBinAddr: 0x100047D34, symSize: 0xAC }
  - { offset: 0x7330A, size: 0x8, addend: 0x0, symName: __RNCINvNvNtNtNtNtCsfvfooZQ3Axs_4core4iter6traits8iterator8Iterator4find5checkRShQNtNtBe_3str15BytesIsNotEmptyE0CsdARyWrlPtHl_2cc, symObjAddr: 0x1514, symBinAddr: 0x100047DE0, symSize: 0x84 }
  - { offset: 0x73366, size: 0x8, addend: 0x0, symName: __RNCINvNvNtNtNtNtCsfvfooZQ3Axs_4core4iter6traits8iterator8Iterator4find5checkReQNtNtBe_3str10IsNotEmptyE0CsdARyWrlPtHl_2cc, symObjAddr: 0x1598, symBinAddr: 0x100047E64, symSize: 0x84 }
  - { offset: 0x733C2, size: 0x8, addend: 0x0, symName: __RNCINvNvNtNtNtNtCsfvfooZQ3Axs_4core4iter6traits8iterator8Iterator4find5checkTjRNtNtNtNtCscOYdFFY2T5N_3std4sync4mpmc5waker5EntryENCNvMB1h_NtB1h_5Waker10unregister0E0CsdARyWrlPtHl_2cc, symObjAddr: 0x161C, symBinAddr: 0x100047EE8, symSize: 0x84 }
  - { offset: 0x7342A, size: 0x8, addend: 0x0, symName: __RNCINvNvNtNtNtNtCsfvfooZQ3Axs_4core4iter6traits8iterator8Iterator5eq_by7compareNtNtCscOYdFFY2T5N_3std4path9ComponentB1f_NCINvYINtNtNtBc_8adapters3rev3RevNtB1h_10ComponentsEB6_2eqB20_E0E0CsdARyWrlPtHl_2cc, symObjAddr: 0x16A0, symBinAddr: 0x100047F6C, symSize: 0x88 }
  - { offset: 0x734B4, size: 0x8, addend: 0x0, symName: __RNCINvNvNtNtNtNtCsfvfooZQ3Axs_4core4iter6traits8iterator8Iterator8find_map5checkNtNtCscOYdFFY2T5N_3std4path7PathBufB1g_NCNCNvMs4_CsdARyWrlPtHl_2ccNtB23_5Build5which00E0B23_, symObjAddr: 0x1728, symBinAddr: 0x100047FF4, symSize: 0x94 }
  - { offset: 0x73538, size: 0x8, addend: 0x0, symName: __RNCINvNvNtNtNtNtCsfvfooZQ3Axs_4core4iter6traits8iterator8Iterator8find_map5checkNtNtCscOYdFFY2T5N_3std4path7PathBufRReNCNCNvMs4_CsdARyWrlPtHl_2ccNtB22_5Build23find_working_gnu_prefix00E0B22_, symObjAddr: 0x17BC, symBinAddr: 0x100048088, symSize: 0x70 }
  - { offset: 0x735C8, size: 0x8, addend: 0x0, symName: __RNCINvNvNtNtNtNtCsfvfooZQ3Axs_4core4iter6traits8iterator8Iterator8for_each4callINtNtCse1nGBsou5OW_5alloc5boxed3BoxNtNtNtCscOYdFFY2T5N_3std3ffi6os_str5OsStrENCINvMsi_NtB1k_3vecINtB2D_3VecB1f_E14extend_trustedINtNtNtBc_8adapters3map3MapINtNtB3o_5chain5ChainINtNtB3o_6cloned6ClonedINtNtNtBe_5slice4iter4IterRB1O_EEIB3k_IB4t_NtNtB1k_6string6StringEINvMsl_B1Q_B1O_3newB59_EEENvYB4S_INtNtBe_7convert4IntoB1f_E4intoEE0E0CsdARyWrlPtHl_2cc, symObjAddr: 0x18D0, symBinAddr: 0x1000480F8, symSize: 0x30 }
  - { offset: 0x73620, size: 0x8, addend: 0x0, symName: __RNCINvNvNtNtNtNtCsfvfooZQ3Axs_4core4iter6traits8iterator8Iterator8for_each4callNtNtNtCscOYdFFY2T5N_3std3ffi6os_str8OsStringNCINvMsi_NtCse1nGBsou5OW_5alloc3vecINtB26_3VecB1f_E14extend_trustedINtNtNtBe_5array4iter8IntoIterB1f_Kj6_EE0E0CsdARyWrlPtHl_2cc, symObjAddr: 0x1900, symBinAddr: 0x100048128, symSize: 0x3C }
  - { offset: 0x73679, size: 0x8, addend: 0x0, symName: __RNCINvNvNtNtNtNtCsfvfooZQ3Axs_4core4iter6traits8iterator8Iterator8for_each4callRNtNtCscOYdFFY2T5N_3std4path4PathNCINvMsi_NtCse1nGBsou5OW_5alloc3vecINtB1V_3VecB1f_E14extend_trustedINtNtNtBc_8adapters5chain5ChainINtNtB2W_3map3MapINtNtNtBe_5slice4iter4IterNtCsdARyWrlPtHl_2cc6ObjectENCNvMs4_B45_NtB45_5Build8assemble0EIB3n_IB3E_INtNtB1X_4sync3ArcB1g_EENvYB5d_NtNtNtBe_3ops5deref5Deref5derefEEE0E0B45_, symObjAddr: 0x193C, symBinAddr: 0x100048164, symSize: 0x30 }
  - { offset: 0x736D1, size: 0x8, addend: 0x0, symName: __RNCINvNvNtNtNtNtCsfvfooZQ3Axs_4core4iter6traits8iterator8Iterator8for_each4callhNCINvMsi_NtCse1nGBsou5OW_5alloc3vecINtB1p_3VechE14extend_trustedINtNtNtBc_8adapters3map3MapINtNtNtBe_5slice4iter4IterhENCNvNtB1r_3str13replace_ascii0EE0E0CsdARyWrlPtHl_2cc, symObjAddr: 0x196C, symBinAddr: 0x100048194, symSize: 0x28 }
  - { offset: 0x73743, size: 0x8, addend: 0x0, symName: __RNCINvYINtNtNtNtCsfvfooZQ3Axs_4core4iter8adapters3rev3RevNtNtCscOYdFFY2T5N_3std4path10ComponentsENtNtNtBc_6traits8iterator8Iterator2eqB5_E0CsdARyWrlPtHl_2cc, symObjAddr: 0x1994, symBinAddr: 0x1000481BC, symSize: 0x58 }
  - { offset: 0x737AC, size: 0x8, addend: 0x0, symName: __RNCNvYNtNtCscOYdFFY2T5N_3std4path10ComponentsNtNtNtNtCsfvfooZQ3Axs_4core4iter6traits8iterator8Iterator5count0CsdARyWrlPtHl_2cc, symObjAddr: 0x1A5C, symBinAddr: 0x100048284, symSize: 0x64 }
  - { offset: 0x73805, size: 0x8, addend: 0x0, symName: __RNCINvNvNtNtNtCsfvfooZQ3Axs_4core4iter6traits8iterator12iter_compare7compareINtNtNtBa_8adapters3rev3RevNtNtCscOYdFFY2T5N_3std4path10ComponentsENtB1F_9ComponentuNCINvNvNtB6_8Iterator5eq_by7compareB2h_B2h_NCINvYB1c_B2F_2eqB1c_E0E0E0CsdARyWrlPtHl_2cc, symObjAddr: 0x1218, symBinAddr: 0x100047AE4, symSize: 0x164 }
  - { offset: 0x73D42, size: 0x8, addend: 0x0, symName: __RNvXs_NtNtCsfvfooZQ3Axs_4core5slice4iterRSINtNtCse1nGBsou5OW_5alloc4sync3ArcNtNtCscOYdFFY2T5N_3std4path4PathENtNtNtNtB8_4iter6traits7collect12IntoIterator9into_iterCsdARyWrlPtHl_2cc, symObjAddr: 0x490C, symBinAddr: 0x10004B0F4, symSize: 0x50 }
  - { offset: 0x73FE5, size: 0x8, addend: 0x0, symName: __RNvMNtCsfvfooZQ3Axs_4core5sliceSINtNtCse1nGBsou5OW_5alloc4sync3ArcNtNtCscOYdFFY2T5N_3std4path4PathE4iterCsdARyWrlPtHl_2cc, symObjAddr: 0x1C54, symBinAddr: 0x10004847C, symSize: 0x28 }
  - { offset: 0x7401C, size: 0x8, addend: 0x0, symName: __RNvMNtCsfvfooZQ3Axs_4core5sliceSINtNtCse1nGBsou5OW_5alloc4sync3ArcNtNtNtCscOYdFFY2T5N_3std3ffi6os_str5OsStrE4iterCsdARyWrlPtHl_2cc, symObjAddr: 0x1C7C, symBinAddr: 0x1000484A4, symSize: 0x28 }
  - { offset: 0x74053, size: 0x8, addend: 0x0, symName: __RNvMNtCsfvfooZQ3Axs_4core5sliceSNtNtNtCscOYdFFY2T5N_3std3ffi6os_str8OsString4iterCsdARyWrlPtHl_2cc, symObjAddr: 0x1CA4, symBinAddr: 0x1000484CC, symSize: 0x28 }
  - { offset: 0x7408A, size: 0x8, addend: 0x0, symName: __RNvMNtCsfvfooZQ3Axs_4core5sliceSNtNtNtCscOYdFFY2T5N_3std3ffi6os_str8OsString8containsCsdARyWrlPtHl_2cc, symObjAddr: 0x1CCC, symBinAddr: 0x1000484F4, symSize: 0x48 }
  - { offset: 0x740D0, size: 0x8, addend: 0x0, symName: __RNvMNtCsfvfooZQ3Axs_4core5sliceSRNtNtNtCscOYdFFY2T5N_3std3ffi6os_str5OsStr4iterCsdARyWrlPtHl_2cc, symObjAddr: 0x1D14, symBinAddr: 0x10004853C, symSize: 0x28 }
  - { offset: 0x74107, size: 0x8, addend: 0x0, symName: __RNvMNtCsfvfooZQ3Axs_4core5sliceSTINtNtCse1nGBsou5OW_5alloc4sync3ArcNtNtNtCscOYdFFY2T5N_3std3ffi6os_str5OsStrEBv_E4iterCsdARyWrlPtHl_2cc, symObjAddr: 0x1D3C, symBinAddr: 0x100048564, symSize: 0x28 }
  - { offset: 0x7413E, size: 0x8, addend: 0x0, symName: __RNvMNtCsfvfooZQ3Axs_4core5sliceSTINtNtCse1nGBsou5OW_5alloc4sync3ArceEINtNtB4_6option6OptionBv_EE4iterCsdARyWrlPtHl_2cc, symObjAddr: 0x1D64, symBinAddr: 0x10004858C, symSize: 0x28 }
  - { offset: 0x74175, size: 0x8, addend: 0x0, symName: __RNvMNtCsfvfooZQ3Axs_4core5sliceSTNtNtNtCscOYdFFY2T5N_3std3ffi6os_str8OsStringBv_E4iterCsdARyWrlPtHl_2cc, symObjAddr: 0x1D8C, symBinAddr: 0x1000485B4, symSize: 0x28 }
  - { offset: 0x74369, size: 0x8, addend: 0x0, symName: __RNvXsd_NtNtCsfvfooZQ3Axs_4core5slice3cmpNtNtNtCscOYdFFY2T5N_3std3ffi6os_str8OsStringNtB5_13SliceContains14slice_containsCsdARyWrlPtHl_2cc, symObjAddr: 0x4C4C, symBinAddr: 0x10004B434, symSize: 0x80 }
  - { offset: 0x74C09, size: 0x8, addend: 0x0, symName: __RNvXs1_NtNtNtCsfvfooZQ3Axs_4core3ops8function5implsQNCINvNvNtNtNtNtBb_4iter6traits8iterator8Iterator8for_each4callRNtNtCscOYdFFY2T5N_3std4path4PathNCINvMsi_NtCse1nGBsou5OW_5alloc3vecINtB2u_3VecB1O_E14extend_trustedINtNtNtB11_8adapters5chain5ChainINtNtB3v_3map3MapINtNtNtBb_5slice4iter4IterNtCsdARyWrlPtHl_2cc6ObjectENCNvMs4_B4F_NtB4F_5Build8assemble0EIB3X_IB4e_INtNtB2w_4sync3ArcB1P_EENvYB5N_NtNtB9_5deref5Deref5derefEEE0E0INtB7_5FnMutTuB1O_EE8call_mutB4F_, symObjAddr: 0x33B4, symBinAddr: 0x100049B9C, symSize: 0x38 }
  - { offset: 0x74CF3, size: 0x8, addend: 0x0, symName: __RNvXs1_NtCsfvfooZQ3Axs_4core7convertRNtNtNtCscOYdFFY2T5N_3std3ffi6os_str5OsStrINtB5_4IntoINtNtCse1nGBsou5OW_5alloc4sync3ArcBz_EE4intoCsdARyWrlPtHl_2cc, symObjAddr: 0x32FC, symBinAddr: 0x100049AE4, symSize: 0x28 }
  - { offset: 0x74D33, size: 0x8, addend: 0x0, symName: __RNvXs1_NtCsfvfooZQ3Axs_4core7convertRNtNtNtCscOYdFFY2T5N_3std3ffi6os_str5OsStrINtB5_4IntoINtNtCse1nGBsou5OW_5alloc5boxed3BoxBz_EE4intoCsdARyWrlPtHl_2cc, symObjAddr: 0x3324, symBinAddr: 0x100049B0C, symSize: 0x28 }
  - { offset: 0x74D73, size: 0x8, addend: 0x0, symName: __RNvXs1_NtCsfvfooZQ3Axs_4core7convertRNtNtNtCscOYdFFY2T5N_3std3ffi6os_str5OsStrINtB5_4IntoNtBB_8OsStringE4intoCsdARyWrlPtHl_2cc, symObjAddr: 0x334C, symBinAddr: 0x100049B34, symSize: 0x28 }
  - { offset: 0x74DE9, size: 0x8, addend: 0x0, symName: __RNvXNtCsfvfooZQ3Axs_4core7convertRINtNtCse1nGBsou5OW_5alloc4sync3ArcNtNtNtCscOYdFFY2T5N_3std3ffi6os_str5OsStrEINtB2_5AsRefB14_E6as_refCsdARyWrlPtHl_2cc, symObjAddr: 0x30A0, symBinAddr: 0x100049888, symSize: 0x28 }
  - { offset: 0x74E29, size: 0x8, addend: 0x0, symName: __RNvXNtCsfvfooZQ3Axs_4core7convertRNtNtNtCscOYdFFY2T5N_3std3ffi6os_str5OsStrINtB2_5AsRefBw_E6as_refCsdARyWrlPtHl_2cc, symObjAddr: 0x30C8, symBinAddr: 0x1000498B0, symSize: 0x30 }
  - { offset: 0x74E69, size: 0x8, addend: 0x0, symName: __RNvXNtCsfvfooZQ3Axs_4core7convertRNtNtNtCscOYdFFY2T5N_3std3ffi6os_str8OsStringINtB2_5AsRefNtBy_5OsStrE6as_refCsdARyWrlPtHl_2cc, symObjAddr: 0x30F8, symBinAddr: 0x1000498E0, symSize: 0x28 }
  - { offset: 0x74EA9, size: 0x8, addend: 0x0, symName: __RNvXNtCsfvfooZQ3Axs_4core7convertRRNtNtNtCscOYdFFY2T5N_3std3ffi6os_str8OsStringINtB2_5AsRefNtBz_5OsStrE6as_refCsdARyWrlPtHl_2cc, symObjAddr: 0x3120, symBinAddr: 0x100049908, symSize: 0x28 }
  - { offset: 0x750A4, size: 0x8, addend: 0x0, symName: __RNvXs8_NtNtCsfvfooZQ3Axs_4core4task4wakeNtB5_5WakerNtNtNtB9_3ops4drop4Drop4dropCsdARyWrlPtHl_2cc, symObjAddr: 0x3840, symBinAddr: 0x10004A028, symSize: 0x30 }
  - { offset: 0x75245, size: 0x8, addend: 0x0, symName: __RNvNtNtNtCsfvfooZQ3Axs_4core7unicode12unicode_data11white_space6lookupCsdARyWrlPtHl_2cc, symObjAddr: 0x2DBC, symBinAddr: 0x1000495A4, symSize: 0x14C }
  - { offset: 0x75285, size: 0x8, addend: 0x0, symName: __RNvXNtNtCsfvfooZQ3Axs_4core5array4iterANtNtNtCscOYdFFY2T5N_3std3ffi6os_str8OsStringj6_NtNtNtNtB6_4iter6traits7collect12IntoIterator9into_iterCsdARyWrlPtHl_2cc, symObjAddr: 0x3148, symBinAddr: 0x100049930, symSize: 0x58 }
  - { offset: 0x75316, size: 0x8, addend: 0x0, symName: __RNvYNtNvXsh_NtNtCse1nGBsou5OW_5alloc5boxed7convertINtBc_3BoxDNtNtCsfvfooZQ3Axs_4core5error5ErrorNtNtB11_6marker4SendNtB1y_4SyncEL_EINtNtB11_7convert4FromNtNtBe_6string6StringE4from11StringErrorBX_5causeCsdARyWrlPtHl_2cc, symObjAddr: 0x5508, symBinAddr: 0x10004BCF0, symSize: 0x24 }
  - { offset: 0x7534B, size: 0x8, addend: 0x0, symName: __RNvYNtNvXsh_NtNtCse1nGBsou5OW_5alloc5boxed7convertINtBc_3BoxDNtNtCsfvfooZQ3Axs_4core5error5ErrorNtNtB11_6marker4SendNtB1y_4SyncEL_EINtNtB11_7convert4FromNtNtBe_6string6StringE4from11StringErrorBX_6sourceCsdARyWrlPtHl_2cc, symObjAddr: 0x552C, symBinAddr: 0x10004BD14, symSize: 0x24 }
  - { offset: 0x75380, size: 0x8, addend: 0x0, symName: __RNvYNtNvXsh_NtNtCse1nGBsou5OW_5alloc5boxed7convertINtBc_3BoxDNtNtCsfvfooZQ3Axs_4core5error5ErrorNtNtB11_6marker4SendNtB1y_4SyncEL_EINtNtB11_7convert4FromNtNtBe_6string6StringE4from11StringErrorBX_7provideCsdARyWrlPtHl_2cc, symObjAddr: 0x5550, symBinAddr: 0x10004BD38, symSize: 0x18 }
  - { offset: 0x753BF, size: 0x8, addend: 0x0, symName: __RNvYNtNvXsh_NtNtCse1nGBsou5OW_5alloc5boxed7convertINtBc_3BoxDNtNtCsfvfooZQ3Axs_4core5error5ErrorNtNtB11_6marker4SendNtB1y_4SyncEL_EINtNtB11_7convert4FromNtNtBe_6string6StringE4from11StringErrorBX_7type_idCsdARyWrlPtHl_2cc, symObjAddr: 0x5568, symBinAddr: 0x10004BD50, symSize: 0x58 }
  - { offset: 0x75536, size: 0x8, addend: 0x0, symName: __RNvXsB_NtCscOYdFFY2T5N_3std4pathNtNtNtB7_3ffi6os_str8OsStringINtNtCsfvfooZQ3Axs_4core7convert4FromNtB5_7PathBufE4fromCsdARyWrlPtHl_2cc, symObjAddr: 0x3870, symBinAddr: 0x10004A058, symSize: 0x18 }
  - { offset: 0x7556A, size: 0x8, addend: 0x0, symName: __RNvXsQ_NtCscOYdFFY2T5N_3std4pathINtNtCse1nGBsou5OW_5alloc4sync3ArcNtB5_4PathEINtNtCsfvfooZQ3Axs_4core7convert4FromRB12_E4fromCsdARyWrlPtHl_2cc, symObjAddr: 0x4194, symBinAddr: 0x10004A97C, symSize: 0x44 }
  - { offset: 0x75A09, size: 0x8, addend: 0x0, symName: __RINvXsN_NtNtCscOYdFFY2T5N_3std3ffi6os_strNtB6_5OsStrNtNtCsfvfooZQ3Axs_4core4hash4Hash4hashNtNtNtBa_4hash6random13DefaultHasherECsdARyWrlPtHl_2cc, symObjAddr: 0x1124, symBinAddr: 0x1000479F0, symSize: 0x9C }
  - { offset: 0x75B7C, size: 0x8, addend: 0x0, symName: __RNvXs5_NtNtCscOYdFFY2T5N_3std3ffi6os_strNtB5_8OsStringNtNtNtCsfvfooZQ3Axs_4core3ops5deref5Deref5derefCsdARyWrlPtHl_2cc, symObjAddr: 0x36F0, symBinAddr: 0x100049ED8, symSize: 0x2C }
  - { offset: 0x75C28, size: 0x8, addend: 0x0, symName: __RNvXs1_NtNtCscOYdFFY2T5N_3std3ffi6os_strNtB5_8OsStringINtNtCsfvfooZQ3Axs_4core7convert4FromNtNtCse1nGBsou5OW_5alloc6string6StringE4fromCsdARyWrlPtHl_2cc, symObjAddr: 0x3374, symBinAddr: 0x100049B5C, symSize: 0x40 }
  - { offset: 0x75C86, size: 0x8, addend: 0x0, symName: __RNvXs2_NtNtCscOYdFFY2T5N_3std3ffi6os_strNtB5_8OsStringINtNtCsfvfooZQ3Axs_4core7convert4FromRNtB5_5OsStrE4fromCsdARyWrlPtHl_2cc, symObjAddr: 0x3580, symBinAddr: 0x100049D68, symSize: 0x54 }
  - { offset: 0x75CDB, size: 0x8, addend: 0x0, symName: __RNvXs2_NtNtCscOYdFFY2T5N_3std3ffi6os_strNtB5_8OsStringINtNtCsfvfooZQ3Axs_4core7convert4FromRNtNtCse1nGBsou5OW_5alloc6string6StringE4fromCsdARyWrlPtHl_2cc, symObjAddr: 0x35D4, symBinAddr: 0x100049DBC, symSize: 0x50 }
  - { offset: 0x75D30, size: 0x8, addend: 0x0, symName: __RNvXs2_NtNtCscOYdFFY2T5N_3std3ffi6os_strNtB5_8OsStringINtNtCsfvfooZQ3Axs_4core7convert4FromReE4fromCsdARyWrlPtHl_2cc, symObjAddr: 0x3624, symBinAddr: 0x100049E0C, symSize: 0x54 }
  - { offset: 0x75D8B, size: 0x8, addend: 0x0, symName: __RNvXs3_NtNtCscOYdFFY2T5N_3std3ffi6os_strNtB5_8OsStringINtNtNtCsfvfooZQ3Axs_4core3ops5index5IndexNtNtBV_5range9RangeFullE5indexCsdARyWrlPtHl_2cc, symObjAddr: 0x3678, symBinAddr: 0x100049E60, symSize: 0x78 }
  - { offset: 0x75F39, size: 0x8, addend: 0x0, symName: __RNvXs8_NtNtCscOYdFFY2T5N_3std3ffi6os_strNtB5_8OsStringNtNtCsfvfooZQ3Axs_4core5clone5Clone5cloneCsdARyWrlPtHl_2cc, symObjAddr: 0x37E0, symBinAddr: 0x100049FC8, symSize: 0x60 }
  - { offset: 0x75F8B, size: 0x8, addend: 0x0, symName: __RNvXsF_NtNtCscOYdFFY2T5N_3std3ffi6os_strRNtB5_5OsStrNtNtCsfvfooZQ3Axs_4core7default7Default7defaultCsdARyWrlPtHl_2cc, symObjAddr: 0x3888, symBinAddr: 0x10004A070, symSize: 0x10 }
  - { offset: 0x75FAF, size: 0x8, addend: 0x0, symName: __RNvXsG_NtNtCscOYdFFY2T5N_3std3ffi6os_strNtB5_5OsStrNtNtCsfvfooZQ3Axs_4core3cmp9PartialEq2eqCsdARyWrlPtHl_2cc, symObjAddr: 0x3898, symBinAddr: 0x10004A080, symSize: 0x4C }
  - { offset: 0x76145, size: 0x8, addend: 0x0, symName: __RNvXsW_NtNtCscOYdFFY2T5N_3std3ffi6os_streINtNtCsfvfooZQ3Axs_4core7convert5AsRefNtB5_5OsStrE6as_refCsdARyWrlPtHl_2cc, symObjAddr: 0x4350, symBinAddr: 0x10004AB38, symSize: 0x18 }
  - { offset: 0x761B5, size: 0x8, addend: 0x0, symName: __RNvXsH_NtNtCscOYdFFY2T5N_3std3ffi6os_strNtB5_5OsStrINtNtCsfvfooZQ3Axs_4core3cmp9PartialEqeE2eqCsdARyWrlPtHl_2cc, symObjAddr: 0x38E4, symBinAddr: 0x10004A0CC, symSize: 0x58 }
  - { offset: 0x76350, size: 0x8, addend: 0x0, symName: __RNvXsT_NtNtCscOYdFFY2T5N_3std3ffi6os_strNtB5_5OsStrNtNtCse1nGBsou5OW_5alloc6borrow7ToOwned8to_ownedCsdARyWrlPtHl_2cc, symObjAddr: 0x42C8, symBinAddr: 0x10004AAB0, symSize: 0x44 }
  - { offset: 0x763A2, size: 0x8, addend: 0x0, symName: __RNvXsU_NtNtCscOYdFFY2T5N_3std3ffi6os_strNtB5_5OsStrINtNtCsfvfooZQ3Axs_4core7convert5AsRefBC_E6as_refCsdARyWrlPtHl_2cc, symObjAddr: 0x430C, symBinAddr: 0x10004AAF4, symSize: 0x18 }
  - { offset: 0x763D6, size: 0x8, addend: 0x0, symName: __RNvXsV_NtNtCscOYdFFY2T5N_3std3ffi6os_strNtB5_8OsStringINtNtCsfvfooZQ3Axs_4core7convert5AsRefNtB5_5OsStrE6as_refCsdARyWrlPtHl_2cc, symObjAddr: 0x4324, symBinAddr: 0x10004AB0C, symSize: 0x2C }
  - { offset: 0x76428, size: 0x8, addend: 0x0, symName: __RNvXsa_NtNtCscOYdFFY2T5N_3std3ffi6os_strNtB5_8OsStringNtNtCsfvfooZQ3Axs_4core3cmp9PartialEq2eqCsdARyWrlPtHl_2cc, symObjAddr: 0x495C, symBinAddr: 0x10004B144, symSize: 0x134 }
  - { offset: 0x76831, size: 0x8, addend: 0x0, symName: __RNvXsb_NtNtCscOYdFFY2T5N_3std3ffi6os_strNtB5_8OsStringINtNtCsfvfooZQ3Axs_4core3cmp9PartialEqeE2eqCsdARyWrlPtHl_2cc, symObjAddr: 0x4A90, symBinAddr: 0x10004B278, symSize: 0xC4 }
  - { offset: 0x76B4A, size: 0x8, addend: 0x0, symName: __RNvXsd_NtNtCscOYdFFY2T5N_3std3ffi6os_strNtB5_8OsStringINtNtCsfvfooZQ3Axs_4core3cmp9PartialEqReE2eqCsdARyWrlPtHl_2cc, symObjAddr: 0x4B94, symBinAddr: 0x10004B37C, symSize: 0xB8 }
  - { offset: 0x76DFE, size: 0x8, addend: 0x0, symName: __RNvXst_NtNtCscOYdFFY2T5N_3std3ffi6os_strINtNtCse1nGBsou5OW_5alloc4sync3ArcNtB5_5OsStrEINtNtCsfvfooZQ3Axs_4core7convert4FromNtB5_8OsStringE4fromCsdARyWrlPtHl_2cc, symObjAddr: 0x4F6C, symBinAddr: 0x10004B754, symSize: 0x94 }
  - { offset: 0x76EA2, size: 0x8, addend: 0x0, symName: __RNvXsu_NtNtCscOYdFFY2T5N_3std3ffi6os_strINtNtCse1nGBsou5OW_5alloc4sync3ArcNtB5_5OsStrEINtNtCsfvfooZQ3Axs_4core7convert4FromRB1a_E4fromCsdARyWrlPtHl_2cc, symObjAddr: 0x5000, symBinAddr: 0x10004B7E8, symSize: 0x78 }
  - { offset: 0x77D3E, size: 0x8, addend: 0x0, symName: __RNvXs_NtCse1nGBsou5OW_5alloc5allocNtB4_6GlobalNtNtCsfvfooZQ3Axs_4core5alloc9Allocator10deallocateCsdARyWrlPtHl_2cc, symObjAddr: 0x4368, symBinAddr: 0x10004AB50, symSize: 0x88 }
  - { offset: 0x77E19, size: 0x8, addend: 0x0, symName: __RNvXs_NtCse1nGBsou5OW_5alloc5allocNtB4_6GlobalNtNtCsfvfooZQ3Axs_4core5alloc9Allocator15allocate_zeroedCsdARyWrlPtHl_2cc, symObjAddr: 0x43F0, symBinAddr: 0x10004ABD8, symSize: 0x34 }
  - { offset: 0x77EAF, size: 0x8, addend: 0x0, symName: __RNvXs_NtCse1nGBsou5OW_5alloc5allocNtB4_6GlobalNtNtCsfvfooZQ3Axs_4core5alloc9Allocator6shrinkCsdARyWrlPtHl_2cc, symObjAddr: 0x4424, symBinAddr: 0x10004AC0C, symSize: 0x490 }
  - { offset: 0x785FB, size: 0x8, addend: 0x0, symName: __RNvXs_NtCse1nGBsou5OW_5alloc5allocNtB4_6GlobalNtNtCsfvfooZQ3Axs_4core5alloc9Allocator8allocateCsdARyWrlPtHl_2cc, symObjAddr: 0x48B4, symBinAddr: 0x10004B09C, symSize: 0x34 }
  - { offset: 0x78636, size: 0x8, addend: 0x0, symName: __RNvNtCse1nGBsou5OW_5alloc5alloc12alloc_zeroedCsdARyWrlPtHl_2cc, symObjAddr: 0x2C10, symBinAddr: 0x1000493F8, symSize: 0x84 }
  - { offset: 0x786CD, size: 0x8, addend: 0x0, symName: __RNvNtCse1nGBsou5OW_5alloc5alloc15exchange_mallocCsdARyWrlPtHl_2cc, symObjAddr: 0x2C94, symBinAddr: 0x10004947C, symSize: 0xA4 }
  - { offset: 0x78764, size: 0x8, addend: 0x0, symName: __RNvNtCse1nGBsou5OW_5alloc5alloc5allocCsdARyWrlPtHl_2cc, symObjAddr: 0x2D38, symBinAddr: 0x100049520, symSize: 0x84 }
  - { offset: 0x78800, size: 0x8, addend: 0x0, symName: __RNvXs1_NtCse1nGBsou5OW_5alloc5allocNtB5_6GlobalNtNtCsfvfooZQ3Axs_4core5clone5Clone5cloneCsdARyWrlPtHl_2cc, symObjAddr: 0x32EC, symBinAddr: 0x100049AD4, symSize: 0x10 }
  - { offset: 0x78D58, size: 0x8, addend: 0x0, symName: __RNCINvMsm_NtNtNtCse1nGBsou5OW_5alloc11collections5btree8navigateINtNtBa_4node6HandleINtB13_7NodeRefNtNtB13_6marker5DyingNtNtNtCscOYdFFY2T5N_3std3ffi6os_str8OsStringINtNtCsfvfooZQ3Axs_4core6option6OptionB1U_ENtB1B_4LeafENtB1B_4EdgeE27deallocating_next_uncheckedNtNtBe_5alloc6GlobalE0CsdARyWrlPtHl_2cc, symObjAddr: 0x11C0, symBinAddr: 0x100047A8C, symSize: 0x58 }
  - { offset: 0x7944C, size: 0x8, addend: 0x0, symName: __RNCNvMsm_NtCse1nGBsou5OW_5alloc4syncINtB7_3ArcShE18allocate_for_slice0CsdARyWrlPtHl_2cc, symObjAddr: 0x19EC, symBinAddr: 0x100048214, symSize: 0x48 }
  - { offset: 0x794B4, size: 0x8, addend: 0x0, symName: __RNCNvMsm_NtCse1nGBsou5OW_5alloc4syncINtB7_3ArcShE18allocate_for_slices_0CsdARyWrlPtHl_2cc, symObjAddr: 0x1A34, symBinAddr: 0x10004825C, symSize: 0x28 }
  - { offset: 0x79744, size: 0x8, addend: 0x0, symName: __RINvNtCse1nGBsou5OW_5alloc4sync11data_offsetNtNtCscOYdFFY2T5N_3std4path4PathECsdARyWrlPtHl_2cc, symObjAddr: 0x73C, symBinAddr: 0x100047008, symSize: 0x94 }
  - { offset: 0x79833, size: 0x8, addend: 0x0, symName: __RINvNtCse1nGBsou5OW_5alloc4sync11data_offsetNtNtNtCscOYdFFY2T5N_3std3ffi6os_str5OsStrECsdARyWrlPtHl_2cc, symObjAddr: 0x7D0, symBinAddr: 0x10004709C, symSize: 0x94 }
  - { offset: 0x79922, size: 0x8, addend: 0x0, symName: __RINvNtCse1nGBsou5OW_5alloc4sync11data_offsetNtNtNtNtCscOYdFFY2T5N_3std3sys6os_str5bytes5SliceECsdARyWrlPtHl_2cc, symObjAddr: 0x864, symBinAddr: 0x100047130, symSize: 0x94 }
  - { offset: 0x79A11, size: 0x8, addend: 0x0, symName: __RINvNtCse1nGBsou5OW_5alloc4sync11data_offseteECsdARyWrlPtHl_2cc, symObjAddr: 0x8F8, symBinAddr: 0x1000471C4, symSize: 0x94 }
  - { offset: 0x7A1B6, size: 0x8, addend: 0x0, symName: __RNvXs11_NtCse1nGBsou5OW_5alloc4syncINtB6_3ArceEINtNtCsfvfooZQ3Axs_4core7convert4FromReE4fromCsdARyWrlPtHl_2cc, symObjAddr: 0x31A0, symBinAddr: 0x100049988, symSize: 0x50 }
  - { offset: 0x7A2E0, size: 0x8, addend: 0x0, symName: __RNvXs13_NtCse1nGBsou5OW_5alloc4syncINtB6_3ArceEINtNtCsfvfooZQ3Axs_4core7convert4FromNtNtB8_6string6StringE4fromCsdARyWrlPtHl_2cc, symObjAddr: 0x31F0, symBinAddr: 0x1000499D8, symSize: 0xFC }
  - { offset: 0x7A590, size: 0x8, addend: 0x0, symName: __RNvXsr_NtCse1nGBsou5OW_5alloc4syncINtB5_3ArcNtCsdARyWrlPtHl_2cc10BuildCacheENtNtNtCsfvfooZQ3Axs_4core3ops5deref5Deref5derefBI_, symObjAddr: 0x4ED4, symBinAddr: 0x10004B6BC, symSize: 0x1C }
  - { offset: 0x7A603, size: 0x8, addend: 0x0, symName: __RNvXsr_NtCse1nGBsou5OW_5alloc4syncINtB5_3ArcNtNtCscOYdFFY2T5N_3std4path4PathENtNtNtCsfvfooZQ3Axs_4core3ops5deref5Deref5derefCsdARyWrlPtHl_2cc, symObjAddr: 0x4EF0, symBinAddr: 0x10004B6D8, symSize: 0x20 }
  - { offset: 0x7A676, size: 0x8, addend: 0x0, symName: __RNvXsr_NtCse1nGBsou5OW_5alloc4syncINtB5_3ArcNtNtNtCscOYdFFY2T5N_3std3ffi6os_str5OsStrENtNtNtCsfvfooZQ3Axs_4core3ops5deref5Deref5derefCsdARyWrlPtHl_2cc, symObjAddr: 0x4F10, symBinAddr: 0x10004B6F8, symSize: 0x20 }
  - { offset: 0x7A6E9, size: 0x8, addend: 0x0, symName: __RNvXsr_NtCse1nGBsou5OW_5alloc4syncINtB5_3ArcNtNtNtCsfvfooZQ3Axs_4core4sync6atomic10AtomicBoolENtNtNtBM_3ops5deref5Deref5derefCsdARyWrlPtHl_2cc, symObjAddr: 0x4F30, symBinAddr: 0x10004B718, symSize: 0x1C }
  - { offset: 0x7A75C, size: 0x8, addend: 0x0, symName: __RNvXsr_NtCse1nGBsou5OW_5alloc4syncINtB5_3ArceENtNtNtCsfvfooZQ3Axs_4core3ops5deref5Deref5derefCsdARyWrlPtHl_2cc, symObjAddr: 0x4F4C, symBinAddr: 0x10004B734, symSize: 0x20 }
  - { offset: 0x7A7D5, size: 0x8, addend: 0x0, symName: __RNvXs1d_NtCse1nGBsou5OW_5alloc4syncINtB6_3ArcNtNtNtCscOYdFFY2T5N_3std3ffi6os_str5OsStrEINtNtCsfvfooZQ3Axs_4core7convert5AsRefBH_E6as_refCsdARyWrlPtHl_2cc, symObjAddr: 0x3560, symBinAddr: 0x100049D48, symSize: 0x20 }
  - { offset: 0x7A8E8, size: 0x8, addend: 0x0, symName: __RNvXsI_NtCse1nGBsou5OW_5alloc4syncINtB5_4WeakNtCsdARyWrlPtHl_2cc10BuildCacheRNtNtB7_5alloc6GlobalENtNtNtCsfvfooZQ3Axs_4core3ops4drop4Drop4dropBJ_, symObjAddr: 0x393C, symBinAddr: 0x10004A124, symSize: 0x168 }
  - { offset: 0x7AB06, size: 0x8, addend: 0x0, symName: __RNvXsI_NtCse1nGBsou5OW_5alloc4syncINtB5_4WeakNtNtCscOYdFFY2T5N_3std4path4PathRNtNtB7_5alloc6GlobalENtNtNtCsfvfooZQ3Axs_4core3ops4drop4Drop4dropCsdARyWrlPtHl_2cc, symObjAddr: 0x3AA4, symBinAddr: 0x10004A28C, symSize: 0x1C0 }
  - { offset: 0x7AD24, size: 0x8, addend: 0x0, symName: __RNvXsI_NtCse1nGBsou5OW_5alloc4syncINtB5_4WeakNtNtNtCscOYdFFY2T5N_3std3ffi6os_str5OsStrRNtNtB7_5alloc6GlobalENtNtNtCsfvfooZQ3Axs_4core3ops4drop4Drop4dropCsdARyWrlPtHl_2cc, symObjAddr: 0x3C64, symBinAddr: 0x10004A44C, symSize: 0x1B4 }
  - { offset: 0x7AF42, size: 0x8, addend: 0x0, symName: __RNvXsI_NtCse1nGBsou5OW_5alloc4syncINtB5_4WeakNtNtNtCsfvfooZQ3Axs_4core4sync6atomic10AtomicBoolRNtNtB7_5alloc6GlobalENtNtNtBN_3ops4drop4Drop4dropCsdARyWrlPtHl_2cc, symObjAddr: 0x3E18, symBinAddr: 0x10004A600, symSize: 0x168 }
  - { offset: 0x7B160, size: 0x8, addend: 0x0, symName: __RNvXsI_NtCse1nGBsou5OW_5alloc4syncINtB5_4WeakeRNtNtB7_5alloc6GlobalENtNtNtCsfvfooZQ3Axs_4core3ops4drop4Drop4dropCsdARyWrlPtHl_2cc, symObjAddr: 0x3F80, symBinAddr: 0x10004A768, symSize: 0x198 }
  - { offset: 0x7B4F0, size: 0x8, addend: 0x0, symName: __RNvXsP_NtCse1nGBsou5OW_5alloc4syncINtB5_3ArceENtNtCsfvfooZQ3Axs_4core3fmt7Display3fmtCsdARyWrlPtHl_2cc, symObjAddr: 0x4158, symBinAddr: 0x10004A940, symSize: 0x3C }
  - { offset: 0x7B596, size: 0x8, addend: 0x0, symName: __RNvXsS_NtCse1nGBsou5OW_5alloc4syncINtB5_3ArcNtCsdARyWrlPtHl_2cc10BuildCacheENtNtCsfvfooZQ3Axs_4core7default7Default7defaultBI_, symObjAddr: 0x41D8, symBinAddr: 0x10004A9C0, symSize: 0xF0 }
  - { offset: 0x7B6C3, size: 0x8, addend: 0x0, symName: __RNvXsq_NtCse1nGBsou5OW_5alloc4syncINtB5_3ArcNtNtNtCscOYdFFY2T5N_3std3ffi6os_str5OsStrENtNtCsfvfooZQ3Axs_4core5clone5Clone5cloneCsdARyWrlPtHl_2cc, symObjAddr: 0x4CF8, symBinAddr: 0x10004B4E0, symSize: 0xA4 }
  - { offset: 0x7B7B6, size: 0x8, addend: 0x0, symName: __RNvXsq_NtCse1nGBsou5OW_5alloc4syncINtB5_3ArcNtNtNtCsfvfooZQ3Axs_4core4sync6atomic10AtomicBoolENtNtBM_5clone5Clone5cloneCsdARyWrlPtHl_2cc, symObjAddr: 0x4D9C, symBinAddr: 0x10004B584, symSize: 0x94 }
  - { offset: 0x7B8A9, size: 0x8, addend: 0x0, symName: __RNvXsq_NtCse1nGBsou5OW_5alloc4syncINtB5_3ArceENtNtCsfvfooZQ3Axs_4core5clone5Clone5cloneCsdARyWrlPtHl_2cc, symObjAddr: 0x4E30, symBinAddr: 0x10004B618, symSize: 0xA4 }
  - { offset: 0x7B9A2, size: 0x8, addend: 0x0, symName: __RNvXsz_NtCse1nGBsou5OW_5alloc4syncINtB5_3ArcNtCsdARyWrlPtHl_2cc10BuildCacheENtNtNtCsfvfooZQ3Axs_4core3ops4drop4Drop4dropBI_, symObjAddr: 0x5078, symBinAddr: 0x10004B860, symSize: 0xA8 }
  - { offset: 0x7BACC, size: 0x8, addend: 0x0, symName: __RNvXsz_NtCse1nGBsou5OW_5alloc4syncINtB5_3ArcNtNtCscOYdFFY2T5N_3std4path4PathENtNtNtCsfvfooZQ3Axs_4core3ops4drop4Drop4dropCsdARyWrlPtHl_2cc, symObjAddr: 0x5120, symBinAddr: 0x10004B908, symSize: 0xA8 }
  - { offset: 0x7BBF6, size: 0x8, addend: 0x0, symName: __RNvXsz_NtCse1nGBsou5OW_5alloc4syncINtB5_3ArcNtNtNtCscOYdFFY2T5N_3std3ffi6os_str5OsStrENtNtNtCsfvfooZQ3Axs_4core3ops4drop4Drop4dropCsdARyWrlPtHl_2cc, symObjAddr: 0x51C8, symBinAddr: 0x10004B9B0, symSize: 0xA8 }
  - { offset: 0x7BD20, size: 0x8, addend: 0x0, symName: __RNvXsz_NtCse1nGBsou5OW_5alloc4syncINtB5_3ArcNtNtNtCsfvfooZQ3Axs_4core4sync6atomic10AtomicBoolENtNtNtBM_3ops4drop4Drop4dropCsdARyWrlPtHl_2cc, symObjAddr: 0x5270, symBinAddr: 0x10004BA58, symSize: 0xA8 }
  - { offset: 0x7BE4A, size: 0x8, addend: 0x0, symName: __RNvXsz_NtCse1nGBsou5OW_5alloc4syncINtB5_3ArcNtNtNtNtCscOYdFFY2T5N_3std4sync4mpmc7context5InnerENtNtNtCsfvfooZQ3Axs_4core3ops4drop4Drop4dropCsdARyWrlPtHl_2cc, symObjAddr: 0x5318, symBinAddr: 0x10004BB00, symSize: 0xA8 }
  - { offset: 0x7BF74, size: 0x8, addend: 0x0, symName: __RNvXsz_NtCse1nGBsou5OW_5alloc4syncINtB5_3ArceENtNtNtCsfvfooZQ3Axs_4core3ops4drop4Drop4dropCsdARyWrlPtHl_2cc, symObjAddr: 0x53C0, symBinAddr: 0x10004BBA8, symSize: 0xA8 }
  - { offset: 0x7C252, size: 0x8, addend: 0x0, symName: __RINvXNtNtCse1nGBsou5OW_5alloc5slice4hackNtNtNtCscOYdFFY2T5N_3std3ffi6os_str8OsStringNtB3_10ConvertVec6to_vecNtNtB7_5alloc6GlobalECsdARyWrlPtHl_2cc, symObjAddr: 0xA50, symBinAddr: 0x10004731C, symSize: 0x36C }
  - { offset: 0x7C715, size: 0x8, addend: 0x0, symName: __RINvXNtNtCse1nGBsou5OW_5alloc5slice4hackTNtNtNtCscOYdFFY2T5N_3std3ffi6os_str8OsStringBD_ENtB3_10ConvertVec6to_vecNtNtB7_5alloc6GlobalECsdARyWrlPtHl_2cc, symObjAddr: 0xDBC, symBinAddr: 0x100047688, symSize: 0x368 }
  - { offset: 0x7CF1F, size: 0x8, addend: 0x0, symName: __RNvXs_NtCse1nGBsou5OW_5alloc6borrowNtNtNtCscOYdFFY2T5N_3std3ffi6os_str8OsStringNtB4_7ToOwned8to_ownedCsdARyWrlPtHl_2cc, symObjAddr: 0x48E8, symBinAddr: 0x10004B0D0, symSize: 0x24 }
  - { offset: 0x7CF92, size: 0x8, addend: 0x0, symName: __RINvMs0_NtNtCscOYdFFY2T5N_3std3ffi6os_strNtB6_8OsString4pushNtNtBa_4path7PathBufECsdARyWrlPtHl_2cc, symObjAddr: 0x80, symBinAddr: 0x100046A20, symSize: 0x80 }
  - { offset: 0x7D002, size: 0x8, addend: 0x0, symName: __RINvMs0_NtNtCscOYdFFY2T5N_3std3ffi6os_strNtB6_8OsString4pushRNtNtBa_4path4PathECsdARyWrlPtHl_2cc, symObjAddr: 0x168, symBinAddr: 0x100046AA0, symSize: 0x6C }
  - { offset: 0x7D1A1, size: 0x8, addend: 0x0, symName: __RINvMs3_NtCsfvfooZQ3Axs_4core3fmtNtB6_9Arguments6new_v1Kj3_KBS_ECsdARyWrlPtHl_2cc, symObjAddr: 0x240, symBinAddr: 0x100046B0C, symSize: 0x50 }
  - { offset: 0x7D1ED, size: 0x8, addend: 0x0, symName: __RINvMs3_NtCsfvfooZQ3Axs_4core3fmtNtB6_9Arguments6new_v1Kj3_Kj2_ECsdARyWrlPtHl_2cc, symObjAddr: 0x290, symBinAddr: 0x100046B5C, symSize: 0x54 }
  - { offset: 0x7D253, size: 0x8, addend: 0x0, symName: __RINvMs3_NtCsfvfooZQ3Axs_4core3fmtNtB6_9Arguments6new_v1Kj4_KBS_ECsdARyWrlPtHl_2cc, symObjAddr: 0x2E4, symBinAddr: 0x100046BB0, symSize: 0x50 }
  - { offset: 0x7D2B9, size: 0x8, addend: 0x0, symName: __RINvMs3_NtCsfvfooZQ3Axs_4core3fmtNtB6_9Arguments6new_v1Kj5_KBS_ECsdARyWrlPtHl_2cc, symObjAddr: 0x334, symBinAddr: 0x100046C00, symSize: 0x50 }
  - { offset: 0x7D31F, size: 0x8, addend: 0x0, symName: __RINvMs3_NtCsfvfooZQ3Axs_4core3fmtNtB6_9Arguments6new_v1Kj6_KBS_ECsdARyWrlPtHl_2cc, symObjAddr: 0x384, symBinAddr: 0x100046C50, symSize: 0x50 }
  - { offset: 0x7D3E2, size: 0x8, addend: 0x0, symName: __RINvMsb_NtNtNtCse1nGBsou5OW_5alloc11collections5btree8navigateINtB6_13LazyLeafRangeNtNtNtB8_4node6marker5DyingNtNtNtCscOYdFFY2T5N_3std3ffi6os_str8OsStringINtNtCsfvfooZQ3Axs_4core6option6OptionB1K_EE16deallocating_endNtNtBc_5alloc6GlobalECsdARyWrlPtHl_2cc, symObjAddr: 0x3D4, symBinAddr: 0x100046CA0, symSize: 0xA8 }
  - { offset: 0x7D4C1, size: 0x8, addend: 0x0, symName: __RINvMsb_NtNtNtCse1nGBsou5OW_5alloc11collections5btree8navigateINtB6_13LazyLeafRangeNtNtNtB8_4node6marker5DyingNtNtNtCscOYdFFY2T5N_3std3ffi6os_str8OsStringINtNtCsfvfooZQ3Axs_4core6option6OptionB1K_EE27deallocating_next_uncheckedNtNtBc_5alloc6GlobalECsdARyWrlPtHl_2cc, symObjAddr: 0x47C, symBinAddr: 0x100046D48, symSize: 0xA8 }
  - { offset: 0x7D70F, size: 0x8, addend: 0x0, symName: __RINvMsk_NtCse1nGBsou5OW_5alloc4syncINtB6_3ArcShE19allocate_for_layoutNCNvMsm_B6_Bx_18allocate_for_slice0NCB17_s_0ECsdARyWrlPtHl_2cc, symObjAddr: 0x524, symBinAddr: 0x100046DF0, symSize: 0x184 }
  - { offset: 0x7D997, size: 0x8, addend: 0x0, symName: __RINvMsl_NtNtCscOYdFFY2T5N_3std3ffi6os_strNtB6_5OsStr3newINtNtCse1nGBsou5OW_5alloc4sync3ArcBD_EECsdARyWrlPtHl_2cc, symObjAddr: 0x6A8, symBinAddr: 0x100046F74, symSize: 0x24 }
  - { offset: 0x7D9D0, size: 0x8, addend: 0x0, symName: __RINvMsl_NtNtCscOYdFFY2T5N_3std3ffi6os_strNtB6_5OsStr3newNtNtCse1nGBsou5OW_5alloc6string6StringECsdARyWrlPtHl_2cc, symObjAddr: 0x6CC, symBinAddr: 0x100046F98, symSize: 0x24 }
  - { offset: 0x7DA09, size: 0x8, addend: 0x0, symName: __RINvMsl_NtNtCscOYdFFY2T5N_3std3ffi6os_strNtB6_5OsStr3newReECsdARyWrlPtHl_2cc, symObjAddr: 0x6F0, symBinAddr: 0x100046FBC, symSize: 0x24 }
  - { offset: 0x7DA35, size: 0x8, addend: 0x0, symName: __RINvMsl_NtNtCscOYdFFY2T5N_3std3ffi6os_strNtB6_5OsStr3neweECsdARyWrlPtHl_2cc, symObjAddr: 0x714, symBinAddr: 0x100046FE0, symSize: 0x28 }
  - { offset: 0x7E5FF, size: 0x8, addend: 0x0, symName: __RNvMNtCse1nGBsou5OW_5alloc5allocNtB2_6Global10alloc_implCsdARyWrlPtHl_2cc, symObjAddr: 0x1AC0, symBinAddr: 0x1000482E8, symSize: 0x194 }
  - { offset: 0x7E955, size: 0x8, addend: 0x0, symName: __RNvMNtNtCsfvfooZQ3Axs_4core5alloc6layoutNtB2_6Layout18padding_needed_forCsdARyWrlPtHl_2cc, symObjAddr: 0x1DB4, symBinAddr: 0x1000485DC, symSize: 0xA8 }
  - { offset: 0x7EA64, size: 0x8, addend: 0x0, symName: __RNvMs0_NtNtCscOYdFFY2T5N_3std3ffi6os_strNtB5_8OsString9as_os_strCsdARyWrlPtHl_2cc, symObjAddr: 0x1E9C, symBinAddr: 0x100048684, symSize: 0x2C }
  - { offset: 0x7EB69, size: 0x8, addend: 0x0, symName: __RNvMs0_NtNtCsfvfooZQ3Axs_4core4task4wakeNtB5_7Context10from_wakerCsdARyWrlPtHl_2cc, symObjAddr: 0x1EC8, symBinAddr: 0x1000486B0, symSize: 0x40 }
  - { offset: 0x7EB9F, size: 0x8, addend: 0x0, symName: __RNvMs3_NtCsfvfooZQ3Axs_4core3fmtNtB5_9Arguments16new_v1_formattedCsdARyWrlPtHl_2cc, symObjAddr: 0x1F08, symBinAddr: 0x1000486F0, symSize: 0x58 }
  - { offset: 0x7EBEC, size: 0x8, addend: 0x0, symName: __RNvMs6_NtNtCsfvfooZQ3Axs_4core4task4wakeNtB5_5Waker8from_rawCsdARyWrlPtHl_2cc, symObjAddr: 0x1F60, symBinAddr: 0x100048748, symSize: 0x1C }
  - { offset: 0x7EC60, size: 0x8, addend: 0x0, symName: __RNvMsa_NtCsfvfooZQ3Axs_4core3fmtNtB5_9Formatter9write_fmtCsdARyWrlPtHl_2cc, symObjAddr: 0x1F7C, symBinAddr: 0x100048764, symSize: 0x180 }
  - { offset: 0x7EE94, size: 0x8, addend: 0x0, symName: __RNvMsb_NtNtNtCse1nGBsou5OW_5alloc11collections5btree8navigateINtB5_13LazyLeafRangeNtNtNtB7_4node6marker5DyingNtNtNtCscOYdFFY2T5N_3std3ffi6os_str8OsStringINtNtCsfvfooZQ3Axs_4core6option6OptionB1J_EE10take_frontCsdARyWrlPtHl_2cc, symObjAddr: 0x20FC, symBinAddr: 0x1000488E4, symSize: 0x1C4 }
  - { offset: 0x7F22C, size: 0x8, addend: 0x0, symName: __RNvMsc_NtCse1nGBsou5OW_5alloc4syncINtB5_3ArcNtCs4Wq06SSluyi_9jobserver11HelperStateE3newCsdARyWrlPtHl_2cc, symObjAddr: 0x22C0, symBinAddr: 0x100048AA8, symSize: 0xC8 }
  - { offset: 0x7F3FF, size: 0x8, addend: 0x0, symName: __RNvMsc_NtCse1nGBsou5OW_5alloc4syncINtB5_3ArcNtNtNtCsfvfooZQ3Axs_4core4sync6atomic10AtomicBoolE3newCsdARyWrlPtHl_2cc, symObjAddr: 0x2388, symBinAddr: 0x100048B70, symSize: 0xB0 }
  - { offset: 0x7F6AB, size: 0x8, addend: 0x0, symName: __RNvMsc_NtNtNtCse1nGBsou5OW_5alloc11collections5btree8navigateINtB5_13LazyLeafRangeNtNtNtB7_4node6marker5DyingNtNtNtCscOYdFFY2T5N_3std3ffi6os_str8OsStringINtNtCsfvfooZQ3Axs_4core6option6OptionB1J_EE10init_frontCsdARyWrlPtHl_2cc, symObjAddr: 0x2438, symBinAddr: 0x100048C20, symSize: 0x1C4 }
  - { offset: 0x7FC68, size: 0x8, addend: 0x0, symName: __RNvMsj_NtCse1nGBsou5OW_5alloc4syncINtB5_3ArcNtCsdARyWrlPtHl_2cc10BuildCacheE9drop_slowBI_, symObjAddr: 0x25FC, symBinAddr: 0x100048DE4, symSize: 0x74 }
  - { offset: 0x7FD4C, size: 0x8, addend: 0x0, symName: __RNvMsj_NtCse1nGBsou5OW_5alloc4syncINtB5_3ArcNtNtCscOYdFFY2T5N_3std4path4PathE11from_raw_inCsdARyWrlPtHl_2cc, symObjAddr: 0x2670, symBinAddr: 0x100048E58, symSize: 0x8C }
  - { offset: 0x7FE58, size: 0x8, addend: 0x0, symName: __RNvMsj_NtCse1nGBsou5OW_5alloc4syncINtB5_3ArcNtNtCscOYdFFY2T5N_3std4path4PathE9drop_slowCsdARyWrlPtHl_2cc, symObjAddr: 0x26FC, symBinAddr: 0x100048EE4, symSize: 0x54 }
  - { offset: 0x7FF15, size: 0x8, addend: 0x0, symName: __RNvMsj_NtCse1nGBsou5OW_5alloc4syncINtB5_3ArcNtNtNtCscOYdFFY2T5N_3std3ffi6os_str5OsStrE11from_raw_inCsdARyWrlPtHl_2cc, symObjAddr: 0x2750, symBinAddr: 0x100048F38, symSize: 0x8C }
  - { offset: 0x80021, size: 0x8, addend: 0x0, symName: __RNvMsj_NtCse1nGBsou5OW_5alloc4syncINtB5_3ArcNtNtNtCscOYdFFY2T5N_3std3ffi6os_str5OsStrE9drop_slowCsdARyWrlPtHl_2cc, symObjAddr: 0x27DC, symBinAddr: 0x100048FC4, symSize: 0x54 }
  - { offset: 0x80081, size: 0x8, addend: 0x0, symName: __RNvMsj_NtCse1nGBsou5OW_5alloc4syncINtB5_3ArcNtNtNtCsfvfooZQ3Axs_4core4sync6atomic10AtomicBoolE9drop_slowCsdARyWrlPtHl_2cc, symObjAddr: 0x2830, symBinAddr: 0x100049018, symSize: 0x44 }
  - { offset: 0x80165, size: 0x8, addend: 0x0, symName: __RNvMsj_NtCse1nGBsou5OW_5alloc4syncINtB5_3ArcNtNtNtNtCscOYdFFY2T5N_3std3sys6os_str5bytes5SliceE11from_raw_inCsdARyWrlPtHl_2cc, symObjAddr: 0x2874, symBinAddr: 0x10004905C, symSize: 0x8C }
  - { offset: 0x802CE, size: 0x8, addend: 0x0, symName: __RNvMsj_NtCse1nGBsou5OW_5alloc4syncINtB5_3ArceE11from_raw_inCsdARyWrlPtHl_2cc, symObjAddr: 0x2900, symBinAddr: 0x1000490E8, symSize: 0x8C }
  - { offset: 0x803DA, size: 0x8, addend: 0x0, symName: __RNvMsj_NtCse1nGBsou5OW_5alloc4syncINtB5_3ArceE9drop_slowCsdARyWrlPtHl_2cc, symObjAddr: 0x298C, symBinAddr: 0x100049174, symSize: 0x54 }
  - { offset: 0x8042D, size: 0x8, addend: 0x0, symName: __RNvMsl_NtNtCscOYdFFY2T5N_3std3ffi6os_strNtB5_5OsStr15to_string_lossyCsdARyWrlPtHl_2cc, symObjAddr: 0x29E0, symBinAddr: 0x1000491C8, symSize: 0x28 }
  - { offset: 0x80484, size: 0x8, addend: 0x0, symName: __RNvMsl_NtNtCscOYdFFY2T5N_3std3ffi6os_strNtB5_5OsStr6to_strCsdARyWrlPtHl_2cc, symObjAddr: 0x2A08, symBinAddr: 0x1000491F0, symSize: 0x7C }
  - { offset: 0x804DB, size: 0x8, addend: 0x0, symName: __RNvMsl_NtNtCscOYdFFY2T5N_3std3ffi6os_strNtB5_5OsStr8is_emptyCsdARyWrlPtHl_2cc, symObjAddr: 0x2A84, symBinAddr: 0x10004926C, symSize: 0x1C }
  - { offset: 0x8057C, size: 0x8, addend: 0x0, symName: __RNvMsm_NtCse1nGBsou5OW_5alloc4syncINtB5_3ArcShE15copy_from_sliceCsdARyWrlPtHl_2cc, symObjAddr: 0x2AA0, symBinAddr: 0x100049288, symSize: 0xC4 }
  - { offset: 0x806CD, size: 0x8, addend: 0x0, symName: __RNvMsm_NtCse1nGBsou5OW_5alloc4syncINtB5_3ArcShE18allocate_for_sliceCsdARyWrlPtHl_2cc, symObjAddr: 0x2B64, symBinAddr: 0x10004934C, symSize: 0xAC }
  - { offset: 0x824BF, size: 0x8, addend: 0x0, symName: __RINvMs1_NtCsloNvcHxBCre_9hashbrown3mapINtB6_7HashMapINtNtCse1nGBsou5OW_5alloc5boxed3BoxSIBP_NtNtNtCscOYdFFY2T5N_3std3ffi6os_str5OsStrEENtNtCsdARyWrlPtHl_2cc4tool10ToolFamilyNtNtNtB1y_4hash6random11RandomStateE9get_innerBO_EB2d_, symObjAddr: 0x0, symBinAddr: 0x10004BDA8, symSize: 0xF8 }
  - { offset: 0x8253F, size: 0x8, addend: 0x0, symName: __RNvXs5_NtNtCsfvfooZQ3Axs_4core3num5errorNtB5_15TryFromIntErrorNtNtB9_3fmt5Debug3fmtCsdARyWrlPtHl_2cc, symObjAddr: 0x3C64, symBinAddr: 0x10004F790, symSize: 0x54 }
  - { offset: 0x8257F, size: 0x8, addend: 0x0, symName: __RNvXsb_NtNtCsfvfooZQ3Axs_4core3num5errorNtB5_13ParseIntErrorNtNtB9_3fmt5Debug3fmtCsdARyWrlPtHl_2cc, symObjAddr: 0x4308, symBinAddr: 0x10004FE34, symSize: 0x64 }
  - { offset: 0x825BF, size: 0x8, addend: 0x0, symName: __RNvXsg_NtNtCsfvfooZQ3Axs_4core3num5errorNtB5_12IntErrorKindNtNtB9_3fmt5Debug3fmtCsdARyWrlPtHl_2cc, symObjAddr: 0x45EC, symBinAddr: 0x100050118, symSize: 0xF4 }
  - { offset: 0x8533F, size: 0x8, addend: 0x0, symName: __RNvXs1a_NtCsfvfooZQ3Axs_4core3fmtRNtNtNtB8_3num5error12IntErrorKindNtB6_5Debug3fmtCsdARyWrlPtHl_2cc, symObjAddr: 0x3250, symBinAddr: 0x10004ED7C, symSize: 0x30 }
  - { offset: 0x862C2, size: 0x8, addend: 0x0, symName: __RINvXs0_NtNtCsfvfooZQ3Axs_4core4hash5implseNtB8_4Hash4hashNtNtNtCscOYdFFY2T5N_3std4hash6random13DefaultHasherECsdARyWrlPtHl_2cc, symObjAddr: 0x960, symBinAddr: 0x10004C708, symSize: 0x48 }
  - { offset: 0x8630A, size: 0x8, addend: 0x0, symName: __RINvXs3_NtNtCsfvfooZQ3Axs_4core4hash5implsReNtB8_4Hash4hashNtNtNtCscOYdFFY2T5N_3std4hash6random13DefaultHasherECsdARyWrlPtHl_2cc, symObjAddr: 0x9A8, symBinAddr: 0x10004C750, symSize: 0x3C }
  - { offset: 0x8635C, size: 0x8, addend: 0x0, symName: __RINvYNtNtNtCscOYdFFY2T5N_3std4hash6random11RandomStateNtNtCsfvfooZQ3Axs_4core4hash11BuildHasher8hash_oneRINtNtCse1nGBsou5OW_5alloc5boxed3BoxSIB1G_NtNtNtB9_3ffi6os_str5OsStrEEECsdARyWrlPtHl_2cc, symObjAddr: 0xF7C, symBinAddr: 0x10004CD24, symSize: 0x84 }
  - { offset: 0x863C1, size: 0x8, addend: 0x0, symName: __RINvYNtNtNtCscOYdFFY2T5N_3std4hash6random11RandomStateNtNtCsfvfooZQ3Axs_4core4hash11BuildHasher8hash_oneRINtNtCse1nGBsou5OW_5alloc5boxed3BoxeEECsdARyWrlPtHl_2cc, symObjAddr: 0x1000, symBinAddr: 0x10004CDA8, symSize: 0x84 }
  - { offset: 0x86426, size: 0x8, addend: 0x0, symName: __RINvYNtNtNtCscOYdFFY2T5N_3std4hash6random11RandomStateNtNtCsfvfooZQ3Axs_4core4hash11BuildHasher8hash_oneRNtCsdARyWrlPtHl_2cc12CompilerFlagEB1H_, symObjAddr: 0x1084, symBinAddr: 0x10004CE2C, symSize: 0x84 }
  - { offset: 0x8648B, size: 0x8, addend: 0x0, symName: __RINvYNtNtNtCscOYdFFY2T5N_3std4hash6random11RandomStateNtNtCsfvfooZQ3Axs_4core4hash11BuildHasher8hash_oneReECsdARyWrlPtHl_2cc, symObjAddr: 0x1108, symBinAddr: 0x10004CEB0, symSize: 0x88 }
  - { offset: 0x8665D, size: 0x8, addend: 0x0, symName: __RNvYNtNtNtCscOYdFFY2T5N_3std4hash6random13DefaultHasherNtNtCsfvfooZQ3Axs_4core4hash6Hasher11write_usizeCsdARyWrlPtHl_2cc, symObjAddr: 0x4FE4, symBinAddr: 0x100050B10, symSize: 0x3C }
  - { offset: 0x866BD, size: 0x8, addend: 0x0, symName: __RNvYNtNtNtCscOYdFFY2T5N_3std4hash6random13DefaultHasherNtNtCsfvfooZQ3Axs_4core4hash6Hasher19write_length_prefixCsdARyWrlPtHl_2cc, symObjAddr: 0x5020, symBinAddr: 0x100050B4C, symSize: 0x28 }
  - { offset: 0x86715, size: 0x8, addend: 0x0, symName: __RINvXs_NtNtNtCsfvfooZQ3Axs_4core4iter8adapters3revINtB5_3RevNtNtCscOYdFFY2T5N_3std4path10ComponentsENtNtNtB9_6traits8iterator8Iterator8try_folduNCINvNvB1A_12try_for_each4callNtBY_9ComponentINtNtNtBb_3ops12control_flow11ControlFlowIB32_uNtNtBb_3cmp8OrderingEENCINvNvB1C_12iter_compare7compareBM_B2M_uNCINvNvB1A_5eq_by7compareB2M_B2M_NCINvYBM_B1A_2eqBM_E0E0E0E0B31_ECsdARyWrlPtHl_2cc, symObjAddr: 0x9E4, symBinAddr: 0x10004C78C, symSize: 0x2C }
  - { offset: 0x86781, size: 0x8, addend: 0x0, symName: __RNvXs_NtNtNtCsfvfooZQ3Axs_4core4iter8adapters3revINtB4_3RevINtNtNtBa_5slice4iter4IterNtNtCse1nGBsou5OW_5alloc6string6StringEENtNtNtB8_6traits8iterator8Iterator4nextCsdARyWrlPtHl_2cc, symObjAddr: 0x3DD0, symBinAddr: 0x10004F8FC, symSize: 0x24 }
  - { offset: 0x867B6, size: 0x8, addend: 0x0, symName: __RNvXs_NtNtNtCsfvfooZQ3Axs_4core4iter8adapters3revINtB4_3RevNtNtCscOYdFFY2T5N_3std4path10ComponentsENtNtNtB8_6traits8iterator8Iterator4nextCsdARyWrlPtHl_2cc, symObjAddr: 0x3DF4, symBinAddr: 0x10004F920, symSize: 0x24 }
  - { offset: 0x86833, size: 0x8, addend: 0x0, symName: __RINvXs_NtNtNtCsfvfooZQ3Axs_4core4iter8adapters5chainINtB5_5ChainINtNtB7_3map3MapINtNtNtBb_5slice4iter4IterNtCsdARyWrlPtHl_2cc6ObjectENCNvMs4_B1I_NtB1I_5Build8assemble0EIB11_IB1h_INtNtCse1nGBsou5OW_5alloc4sync3ArcNtNtCscOYdFFY2T5N_3std4path4PathEENvYB2Q_NtNtNtBb_3ops5deref5Deref5derefEENtNtNtB9_6traits8iterator8Iterator4folduNCINvNvB4A_8for_each4callRB3o_NCINvMsi_NtB2V_3vecINtB5R_3VecB5D_E14extend_trustedBO_E0E0EB1I_, symObjAddr: 0xA10, symBinAddr: 0x10004C7B8, symSize: 0x1D8 }
  - { offset: 0x868CF, size: 0x8, addend: 0x0, symName: __RINvXs_NtNtNtCsfvfooZQ3Axs_4core4iter8adapters5chainINtB5_5ChainINtNtB7_6cloned6ClonedINtNtNtBb_5slice4iter4IterRNtNtNtCscOYdFFY2T5N_3std3ffi6os_str5OsStrEEINtNtB7_3map3MapIB1n_NtNtCse1nGBsou5OW_5alloc6string6StringEINvMsl_B1P_B1N_3newB2P_EEENtNtNtB9_6traits8iterator8Iterator4folduNCINvB2x_8map_foldB1M_INtNtB2T_5boxed3BoxB1N_EuNvYB1M_INtNtBb_7convert4IntoB4S_E4intoNCINvNvB3S_8for_each4callB4S_NCINvMsi_NtB2T_3vecINtB6v_3VecB4S_E14extend_trustedIB2v_BO_B5h_EE0E0E0ECsdARyWrlPtHl_2cc, symObjAddr: 0xBE8, symBinAddr: 0x10004C990, symSize: 0x1D8 }
  - { offset: 0x8696B, size: 0x8, addend: 0x0, symName: __RNvXs_NtNtNtCsfvfooZQ3Axs_4core4iter8adapters5chainINtB4_5ChainINtNtB6_3map3MapINtNtNtBa_5slice4iter4IterNtCsdARyWrlPtHl_2cc6ObjectENCNvMs4_B1H_NtB1H_5Build8assemble0EIB10_IB1g_INtNtCse1nGBsou5OW_5alloc4sync3ArcNtNtCscOYdFFY2T5N_3std4path4PathEENvYB2P_NtNtNtBa_3ops5deref5Deref5derefEENtNtNtB8_6traits8iterator8Iterator9size_hintB1H_, symObjAddr: 0x3E18, symBinAddr: 0x10004F944, symSize: 0x220 }
  - { offset: 0x86B3F, size: 0x8, addend: 0x0, symName: __RNvXs_NtNtNtCsfvfooZQ3Axs_4core4iter8adapters5chainINtB4_5ChainINtNtB6_6cloned6ClonedINtNtNtBa_5slice4iter4IterRNtNtNtCscOYdFFY2T5N_3std3ffi6os_str5OsStrEEINtNtB6_3map3MapIB1m_NtNtCse1nGBsou5OW_5alloc6string6StringEINvMsl_B1O_B1M_3newB2O_EEENtNtNtB8_6traits8iterator8Iterator9size_hintCsdARyWrlPtHl_2cc, symObjAddr: 0x4038, symBinAddr: 0x10004FB64, symSize: 0x220 }
  - { offset: 0x86ED1, size: 0x8, addend: 0x0, symName: __RINvYINtNtNtNtCsfvfooZQ3Axs_4core4iter8adapters3rev3RevNtNtCscOYdFFY2T5N_3std4path10ComponentsENtNtNtBa_6traits8iterator8Iterator12try_for_eachNCINvNvB1x_12iter_compare7compareB3_NtBT_9ComponentuNCINvNvB1v_5eq_by7compareB2R_B2R_NCINvYB3_B1v_2eqB3_E0E0E0INtNtNtBc_3ops12control_flow11ControlFlowIB44_uNtNtBc_3cmp8OrderingEEECsdARyWrlPtHl_2cc, symObjAddr: 0xDC0, symBinAddr: 0x10004CB68, symSize: 0x2C }
  - { offset: 0x86F29, size: 0x8, addend: 0x0, symName: __RINvYINtNtNtNtCsfvfooZQ3Axs_4core4iter8adapters3rev3RevNtNtCscOYdFFY2T5N_3std4path10ComponentsENtNtNtBa_6traits8iterator8Iterator5eq_byB3_NCINvYB3_B1v_2eqB3_E0ECsdARyWrlPtHl_2cc, symObjAddr: 0xDEC, symBinAddr: 0x10004CB94, symSize: 0x124 }
  - { offset: 0x86FD6, size: 0x8, addend: 0x0, symName: __RINvYINtNtNtNtCsfvfooZQ3Axs_4core4iter8adapters5chain5ChainINtNtB8_3map3MapINtNtNtBc_5slice4iter4IterNtCsdARyWrlPtHl_2cc6ObjectENCNvMs4_B1D_NtB1D_5Build8assemble0EIBW_IB1c_INtNtCse1nGBsou5OW_5alloc4sync3ArcNtNtCscOYdFFY2T5N_3std4path4PathEENvYB2K_NtNtNtBc_3ops5deref5Deref5derefEENtNtNtBa_6traits8iterator8Iterator7collectINtNtB2P_3vec3VecRB3i_EEB1D_, symObjAddr: 0xF10, symBinAddr: 0x10004CCB8, symSize: 0x1C }
  - { offset: 0x87079, size: 0x8, addend: 0x0, symName: __RINvYINtNtNtNtCsfvfooZQ3Axs_4core4iter8adapters5chain5ChainINtNtB8_3map3MapINtNtNtBc_5slice4iter4IterNtCsdARyWrlPtHl_2cc6ObjectENCNvMs4_B1D_NtB1D_5Build8assemble0EIBW_IB1c_INtNtCse1nGBsou5OW_5alloc4sync3ArcNtNtCscOYdFFY2T5N_3std4path4PathEENvYB2K_NtNtNtBc_3ops5deref5Deref5derefEENtNtNtBa_6traits8iterator8Iterator8for_eachNCINvMsi_NtB2P_3vecINtB5k_3VecRB3i_E14extend_trustedB3_E0EB1D_, symObjAddr: 0xF2C, symBinAddr: 0x10004CCD4, symSize: 0x34 }
  - { offset: 0x870E5, size: 0x8, addend: 0x0, symName: __RINvYINtNtNtNtCsfvfooZQ3Axs_4core4iter8adapters5chain5ChainINtNtB8_6cloned6ClonedINtNtNtBc_5slice4iter4IterRNtNtNtCscOYdFFY2T5N_3std3ffi6os_str5OsStrEEINtNtB8_3map3MapIB1i_NtNtCse1nGBsou5OW_5alloc6string6StringEINvMsl_B1K_B1I_3newB2K_EEENtNtNtBa_6traits8iterator8Iterator3mapINtNtB2O_5boxed3BoxB1I_ENvYB1H_INtNtBc_7convert4IntoB4p_E4intoECsdARyWrlPtHl_2cc, symObjAddr: 0xF60, symBinAddr: 0x10004CD08, symSize: 0x1C }
  - { offset: 0x871D3, size: 0x8, addend: 0x0, symName: __RNvXNtNtNtCsfvfooZQ3Axs_4core4iter6traits7collectINtNtNtB6_8adapters3rev3RevINtNtNtB8_5slice4iter4IterNtNtCse1nGBsou5OW_5alloc6string6StringEENtB2_12IntoIterator9into_iterCsdARyWrlPtHl_2cc, symObjAddr: 0x31F0, symBinAddr: 0x10004ED1C, symSize: 0x1C }
  - { offset: 0x8720A, size: 0x8, addend: 0x0, symName: __RNvXNtNtNtCsfvfooZQ3Axs_4core4iter6traits7collectINtNtNtB6_8adapters3rev3RevNtNtCscOYdFFY2T5N_3std4path10ComponentsENtB2_12IntoIterator9into_iterCsdARyWrlPtHl_2cc, symObjAddr: 0x320C, symBinAddr: 0x10004ED38, symSize: 0x30 }
  - { offset: 0x87242, size: 0x8, addend: 0x0, symName: __RNvXNtNtNtCsfvfooZQ3Axs_4core4iter6traits7collectINtNtNtB6_8adapters5chain5ChainINtNtBQ_3map3MapINtNtNtB8_5slice4iter4IterNtCsdARyWrlPtHl_2cc6ObjectENCNvMs4_B1Y_NtB1Y_5Build8assemble0EIB1h_IB1x_INtNtCse1nGBsou5OW_5alloc4sync3ArcNtNtCscOYdFFY2T5N_3std4path4PathEENvYB36_NtNtNtB8_3ops5deref5Deref5derefEENtB2_12IntoIterator9into_iterB1Y_, symObjAddr: 0x323C, symBinAddr: 0x10004ED68, symSize: 0x14 }
  - { offset: 0x877EA, size: 0x8, addend: 0x0, symName: __RNvXsb_NtCsfvfooZQ3Axs_4core5arrayRARej2_NtNtNtNtB7_4iter6traits7collect12IntoIterator9into_iterCsdARyWrlPtHl_2cc, symObjAddr: 0x4258, symBinAddr: 0x10004FD84, symSize: 0x58 }
  - { offset: 0x87932, size: 0x8, addend: 0x0, symName: __RNvXsb_NtCsfvfooZQ3Axs_4core5arrayRARej5_NtNtNtNtB7_4iter6traits7collect12IntoIterator9into_iterCsdARyWrlPtHl_2cc, symObjAddr: 0x42B0, symBinAddr: 0x10004FDDC, symSize: 0x58 }
  - { offset: 0x87AC3, size: 0x8, addend: 0x0, symName: __RNvYINtNtNtNtCscOYdFFY2T5N_3std2io8buffered9bufwriter9BufWriterNtNtB9_5stdio6StdoutENtB9_5Write18write_all_vectoredCsdARyWrlPtHl_2cc, symObjAddr: 0x4D5C, symBinAddr: 0x100050888, symSize: 0x160 }
  - { offset: 0x87B3E, size: 0x8, addend: 0x0, symName: __RNvYINtNtNtNtCscOYdFFY2T5N_3std2io8buffered9bufwriter9BufWriterNtNtB9_5stdio6StdoutENtB9_5Write9write_fmtCsdARyWrlPtHl_2cc, symObjAddr: 0x4EBC, symBinAddr: 0x1000509E8, symSize: 0x128 }
  - { offset: 0x87D74, size: 0x8, addend: 0x0, symName: __RNCNvXs4_NtNtNtCscOYdFFY2T5N_3std2io8buffered9bufwriterINtB7_9BufWriterNtNtBb_5stdio6StdoutENtBb_5Write14write_vectored0CsdARyWrlPtHl_2cc, symObjAddr: 0x16E4, symBinAddr: 0x10004D48C, symSize: 0x80 }
  - { offset: 0x87E1A, size: 0x8, addend: 0x0, symName: __RNCNvXs4_NtNtNtCscOYdFFY2T5N_3std2io8buffered9bufwriterINtB7_9BufWriterNtNtBb_5stdio6StdoutENtBb_5Write14write_vectoreds_0CsdARyWrlPtHl_2cc, symObjAddr: 0x1764, symBinAddr: 0x10004D50C, symSize: 0x88 }
  - { offset: 0x87F40, size: 0x8, addend: 0x0, symName: __RNvXs4_NtNtNtCscOYdFFY2T5N_3std2io8buffered9bufwriterINtB5_9BufWriterNtNtB9_5stdio6StdoutENtB9_5Write14write_vectoredCsdARyWrlPtHl_2cc, symObjAddr: 0x3338, symBinAddr: 0x10004EE64, symSize: 0x7A0 }
  - { offset: 0x88B9B, size: 0x8, addend: 0x0, symName: __RNvXs4_NtNtNtCscOYdFFY2T5N_3std2io8buffered9bufwriterINtB5_9BufWriterNtNtB9_5stdio6StdoutENtB9_5Write17is_write_vectoredCsdARyWrlPtHl_2cc, symObjAddr: 0x3AD8, symBinAddr: 0x10004F604, symSize: 0x18 }
  - { offset: 0x88C13, size: 0x8, addend: 0x0, symName: __RNvXs4_NtNtNtCscOYdFFY2T5N_3std2io8buffered9bufwriterINtB5_9BufWriterNtNtB9_5stdio6StdoutENtB9_5Write5flushCsdARyWrlPtHl_2cc, symObjAddr: 0x3AF0, symBinAddr: 0x10004F61C, symSize: 0x64 }
  - { offset: 0x88CD9, size: 0x8, addend: 0x0, symName: __RNvXs4_NtNtNtCscOYdFFY2T5N_3std2io8buffered9bufwriterINtB5_9BufWriterNtNtB9_5stdio6StdoutENtB9_5Write5writeCsdARyWrlPtHl_2cc, symObjAddr: 0x3B54, symBinAddr: 0x10004F680, symSize: 0x90 }
  - { offset: 0x88D93, size: 0x8, addend: 0x0, symName: __RNvXs4_NtNtNtCscOYdFFY2T5N_3std2io8buffered9bufwriterINtB5_9BufWriterNtNtB9_5stdio6StdoutENtB9_5Write9write_allCsdARyWrlPtHl_2cc, symObjAddr: 0x3BE4, symBinAddr: 0x10004F710, symSize: 0x80 }
  - { offset: 0x88EC0, size: 0x8, addend: 0x0, symName: __RNvXs7_NtNtNtCscOYdFFY2T5N_3std2io8buffered9bufwriterINtB5_9BufWriterNtNtB9_5stdio6StdoutENtNtNtCsfvfooZQ3Axs_4core3ops4drop4Drop4dropCsdARyWrlPtHl_2cc, symObjAddr: 0x3CB8, symBinAddr: 0x10004F7E4, symSize: 0x4C }
  - { offset: 0x892B3, size: 0x8, addend: 0x0, symName: __RNCNvMsd_NtNtNtCscOYdFFY2T5N_3std4sync6poison6rwlockINtB7_15RwLockReadGuardINtNtNtNtBd_11collections4hash3map7HashMapINtNtCse1nGBsou5OW_5alloc5boxed3BoxSIB1S_NtNtNtBd_3ffi6os_str5OsStrEENtNtCsdARyWrlPtHl_2cc4tool10ToolFamilyEE3new0B32_, symObjAddr: 0x14C8, symBinAddr: 0x10004D270, symSize: 0x54 }
  - { offset: 0x89323, size: 0x8, addend: 0x0, symName: __RNCNvMsd_NtNtNtCscOYdFFY2T5N_3std4sync6poison6rwlockINtB7_15RwLockReadGuardINtNtNtNtBd_11collections4hash3map7HashMapINtNtCse1nGBsou5OW_5alloc5boxed3BoxeEINtNtB1W_4sync3ArcNtNtNtBd_3ffi6os_str5OsStrEEE3new0CsdARyWrlPtHl_2cc, symObjAddr: 0x151C, symBinAddr: 0x10004D2C4, symSize: 0x54 }
  - { offset: 0x89393, size: 0x8, addend: 0x0, symName: __RNCNvMsd_NtNtNtCscOYdFFY2T5N_3std4sync6poison6rwlockINtB7_15RwLockReadGuardINtNtNtNtBd_11collections4hash3map7HashMapINtNtCse1nGBsou5OW_5alloc5boxed3BoxeEINtNtB1W_4sync3ArceEEE3new0CsdARyWrlPtHl_2cc, symObjAddr: 0x1570, symBinAddr: 0x10004D318, symSize: 0x54 }
  - { offset: 0x89403, size: 0x8, addend: 0x0, symName: __RNCNvMsd_NtNtNtCscOYdFFY2T5N_3std4sync6poison6rwlockINtB7_15RwLockReadGuardINtNtNtNtBd_11collections4hash3map7HashMapINtNtCse1nGBsou5OW_5alloc5boxed3BoxeEINtNtCsfvfooZQ3Axs_4core6option6OptionINtNtB1W_4sync3ArcNtNtNtBd_3ffi6os_str5OsStrEEEE3new0CsdARyWrlPtHl_2cc, symObjAddr: 0x15C4, symBinAddr: 0x10004D36C, symSize: 0x54 }
  - { offset: 0x89473, size: 0x8, addend: 0x0, symName: __RNCNvMsd_NtNtNtCscOYdFFY2T5N_3std4sync6poison6rwlockINtB7_15RwLockReadGuardINtNtNtNtBd_11collections4hash3map7HashMapNtCsdARyWrlPtHl_2cc12CompilerFlagbEE3new0B1T_, symObjAddr: 0x1618, symBinAddr: 0x10004D3C0, symSize: 0x54 }
  - { offset: 0x894EF, size: 0x8, addend: 0x0, symName: __RNCNvMse_NtNtNtCscOYdFFY2T5N_3std4sync6poison6rwlockINtB7_16RwLockWriteGuardINtNtNtNtBd_11collections4hash3map7HashMapINtNtCse1nGBsou5OW_5alloc5boxed3BoxSIB1T_NtNtNtBd_3ffi6os_str5OsStrEENtNtCsdARyWrlPtHl_2cc4tool10ToolFamilyEE3new0B33_, symObjAddr: 0x166C, symBinAddr: 0x10004D414, symSize: 0x18 }
  - { offset: 0x89537, size: 0x8, addend: 0x0, symName: __RNCNvMse_NtNtNtCscOYdFFY2T5N_3std4sync6poison6rwlockINtB7_16RwLockWriteGuardINtNtNtNtBd_11collections4hash3map7HashMapINtNtCse1nGBsou5OW_5alloc5boxed3BoxeEINtNtB1X_4sync3ArcNtNtNtBd_3ffi6os_str5OsStrEEE3new0CsdARyWrlPtHl_2cc, symObjAddr: 0x1684, symBinAddr: 0x10004D42C, symSize: 0x18 }
  - { offset: 0x8957F, size: 0x8, addend: 0x0, symName: __RNCNvMse_NtNtNtCscOYdFFY2T5N_3std4sync6poison6rwlockINtB7_16RwLockWriteGuardINtNtNtNtBd_11collections4hash3map7HashMapINtNtCse1nGBsou5OW_5alloc5boxed3BoxeEINtNtB1X_4sync3ArceEEE3new0CsdARyWrlPtHl_2cc, symObjAddr: 0x169C, symBinAddr: 0x10004D444, symSize: 0x18 }
  - { offset: 0x895C7, size: 0x8, addend: 0x0, symName: __RNCNvMse_NtNtNtCscOYdFFY2T5N_3std4sync6poison6rwlockINtB7_16RwLockWriteGuardINtNtNtNtBd_11collections4hash3map7HashMapINtNtCse1nGBsou5OW_5alloc5boxed3BoxeEINtNtCsfvfooZQ3Axs_4core6option6OptionINtNtB1X_4sync3ArcNtNtNtBd_3ffi6os_str5OsStrEEEE3new0CsdARyWrlPtHl_2cc, symObjAddr: 0x16B4, symBinAddr: 0x10004D45C, symSize: 0x18 }
  - { offset: 0x8960F, size: 0x8, addend: 0x0, symName: __RNCNvMse_NtNtNtCscOYdFFY2T5N_3std4sync6poison6rwlockINtB7_16RwLockWriteGuardINtNtNtNtBd_11collections4hash3map7HashMapNtCsdARyWrlPtHl_2cc12CompilerFlagbEE3new0B1U_, symObjAddr: 0x16CC, symBinAddr: 0x10004D474, symSize: 0x18 }
  - { offset: 0x89C12, size: 0x8, addend: 0x0, symName: __RNvXsb_NtNtNtCscOYdFFY2T5N_3std4sync6poison6rwlockINtB5_6RwLockINtNtNtNtBb_11collections4hash3map7HashMapINtNtCse1nGBsou5OW_5alloc5boxed3BoxSIB1G_NtNtNtBb_3ffi6os_str5OsStrEENtNtCsdARyWrlPtHl_2cc4tool10ToolFamilyEENtNtCsfvfooZQ3Axs_4core7default7Default7defaultB2Q_, symObjAddr: 0x436C, symBinAddr: 0x10004FE98, symSize: 0x80 }
  - { offset: 0x89CBF, size: 0x8, addend: 0x0, symName: __RNvXsb_NtNtNtCscOYdFFY2T5N_3std4sync6poison6rwlockINtB5_6RwLockINtNtNtNtBb_11collections4hash3map7HashMapINtNtCse1nGBsou5OW_5alloc5boxed3BoxeEINtNtB1K_4sync3ArcNtNtNtBb_3ffi6os_str5OsStrEEENtNtCsfvfooZQ3Axs_4core7default7Default7defaultCsdARyWrlPtHl_2cc, symObjAddr: 0x43EC, symBinAddr: 0x10004FF18, symSize: 0x80 }
  - { offset: 0x89D6C, size: 0x8, addend: 0x0, symName: __RNvXsb_NtNtNtCscOYdFFY2T5N_3std4sync6poison6rwlockINtB5_6RwLockINtNtNtNtBb_11collections4hash3map7HashMapINtNtCse1nGBsou5OW_5alloc5boxed3BoxeEINtNtB1K_4sync3ArceEEENtNtCsfvfooZQ3Axs_4core7default7Default7defaultCsdARyWrlPtHl_2cc, symObjAddr: 0x446C, symBinAddr: 0x10004FF98, symSize: 0x80 }
  - { offset: 0x89E19, size: 0x8, addend: 0x0, symName: __RNvXsb_NtNtNtCscOYdFFY2T5N_3std4sync6poison6rwlockINtB5_6RwLockINtNtNtNtBb_11collections4hash3map7HashMapINtNtCse1nGBsou5OW_5alloc5boxed3BoxeEINtNtCsfvfooZQ3Axs_4core6option6OptionINtNtB1K_4sync3ArcNtNtNtBb_3ffi6os_str5OsStrEEEENtNtB2l_7default7Default7defaultCsdARyWrlPtHl_2cc, symObjAddr: 0x44EC, symBinAddr: 0x100050018, symSize: 0x80 }
  - { offset: 0x89EC6, size: 0x8, addend: 0x0, symName: __RNvXsb_NtNtNtCscOYdFFY2T5N_3std4sync6poison6rwlockINtB5_6RwLockINtNtNtNtBb_11collections4hash3map7HashMapNtCsdARyWrlPtHl_2cc12CompilerFlagbEENtNtCsfvfooZQ3Axs_4core7default7Default7defaultB1H_, symObjAddr: 0x456C, symBinAddr: 0x100050098, symSize: 0x80 }
  - { offset: 0x89F79, size: 0x8, addend: 0x0, symName: __RNvXsn_NtNtNtCscOYdFFY2T5N_3std4sync6poison6rwlockINtB5_15RwLockReadGuardINtNtNtNtBb_11collections4hash3map7HashMapINtNtCse1nGBsou5OW_5alloc5boxed3BoxSIB1Q_NtNtNtBb_3ffi6os_str5OsStrEENtNtCsdARyWrlPtHl_2cc4tool10ToolFamilyEENtNtNtCsfvfooZQ3Axs_4core3ops5deref5Deref5derefB30_, symObjAddr: 0x46E0, symBinAddr: 0x10005020C, symSize: 0x18 }
  - { offset: 0x89FC5, size: 0x8, addend: 0x0, symName: __RNvXsn_NtNtNtCscOYdFFY2T5N_3std4sync6poison6rwlockINtB5_15RwLockReadGuardINtNtNtNtBb_11collections4hash3map7HashMapINtNtCse1nGBsou5OW_5alloc5boxed3BoxeEINtNtB1U_4sync3ArcNtNtNtBb_3ffi6os_str5OsStrEEENtNtNtCsfvfooZQ3Axs_4core3ops5deref5Deref5derefCsdARyWrlPtHl_2cc, symObjAddr: 0x46F8, symBinAddr: 0x100050224, symSize: 0x18 }
  - { offset: 0x8A011, size: 0x8, addend: 0x0, symName: __RNvXsn_NtNtNtCscOYdFFY2T5N_3std4sync6poison6rwlockINtB5_15RwLockReadGuardINtNtNtNtBb_11collections4hash3map7HashMapINtNtCse1nGBsou5OW_5alloc5boxed3BoxeEINtNtB1U_4sync3ArceEEENtNtNtCsfvfooZQ3Axs_4core3ops5deref5Deref5derefCsdARyWrlPtHl_2cc, symObjAddr: 0x4710, symBinAddr: 0x10005023C, symSize: 0x18 }
  - { offset: 0x8A05D, size: 0x8, addend: 0x0, symName: __RNvXsn_NtNtNtCscOYdFFY2T5N_3std4sync6poison6rwlockINtB5_15RwLockReadGuardINtNtNtNtBb_11collections4hash3map7HashMapINtNtCse1nGBsou5OW_5alloc5boxed3BoxeEINtNtCsfvfooZQ3Axs_4core6option6OptionINtNtB1U_4sync3ArcNtNtNtBb_3ffi6os_str5OsStrEEEENtNtNtB2v_3ops5deref5Deref5derefCsdARyWrlPtHl_2cc, symObjAddr: 0x4728, symBinAddr: 0x100050254, symSize: 0x18 }
  - { offset: 0x8A0A9, size: 0x8, addend: 0x0, symName: __RNvXsn_NtNtNtCscOYdFFY2T5N_3std4sync6poison6rwlockINtB5_15RwLockReadGuardINtNtNtNtBb_11collections4hash3map7HashMapNtCsdARyWrlPtHl_2cc12CompilerFlagbEENtNtNtCsfvfooZQ3Axs_4core3ops5deref5Deref5derefB1R_, symObjAddr: 0x4740, symBinAddr: 0x10005026C, symSize: 0x18 }
  - { offset: 0x8A0FB, size: 0x8, addend: 0x0, symName: __RNvXsp_NtNtNtCscOYdFFY2T5N_3std4sync6poison6rwlockINtB5_16RwLockWriteGuardINtNtNtNtBb_11collections4hash3map7HashMapINtNtCse1nGBsou5OW_5alloc5boxed3BoxSIB1R_NtNtNtBb_3ffi6os_str5OsStrEENtNtCsdARyWrlPtHl_2cc4tool10ToolFamilyEENtNtNtCsfvfooZQ3Axs_4core3ops5deref8DerefMut9deref_mutB31_, symObjAddr: 0x4758, symBinAddr: 0x100050284, symSize: 0x1C }
  - { offset: 0x8A147, size: 0x8, addend: 0x0, symName: __RNvXsp_NtNtNtCscOYdFFY2T5N_3std4sync6poison6rwlockINtB5_16RwLockWriteGuardINtNtNtNtBb_11collections4hash3map7HashMapINtNtCse1nGBsou5OW_5alloc5boxed3BoxeEINtNtB1V_4sync3ArcNtNtNtBb_3ffi6os_str5OsStrEEENtNtNtCsfvfooZQ3Axs_4core3ops5deref8DerefMut9deref_mutCsdARyWrlPtHl_2cc, symObjAddr: 0x4774, symBinAddr: 0x1000502A0, symSize: 0x1C }
  - { offset: 0x8A193, size: 0x8, addend: 0x0, symName: __RNvXsp_NtNtNtCscOYdFFY2T5N_3std4sync6poison6rwlockINtB5_16RwLockWriteGuardINtNtNtNtBb_11collections4hash3map7HashMapINtNtCse1nGBsou5OW_5alloc5boxed3BoxeEINtNtB1V_4sync3ArceEEENtNtNtCsfvfooZQ3Axs_4core3ops5deref8DerefMut9deref_mutCsdARyWrlPtHl_2cc, symObjAddr: 0x4790, symBinAddr: 0x1000502BC, symSize: 0x1C }
  - { offset: 0x8A1DF, size: 0x8, addend: 0x0, symName: __RNvXsp_NtNtNtCscOYdFFY2T5N_3std4sync6poison6rwlockINtB5_16RwLockWriteGuardINtNtNtNtBb_11collections4hash3map7HashMapINtNtCse1nGBsou5OW_5alloc5boxed3BoxeEINtNtCsfvfooZQ3Axs_4core6option6OptionINtNtB1V_4sync3ArcNtNtNtBb_3ffi6os_str5OsStrEEEENtNtNtB2w_3ops5deref8DerefMut9deref_mutCsdARyWrlPtHl_2cc, symObjAddr: 0x47AC, symBinAddr: 0x1000502D8, symSize: 0x1C }
  - { offset: 0x8A22B, size: 0x8, addend: 0x0, symName: __RNvXsp_NtNtNtCscOYdFFY2T5N_3std4sync6poison6rwlockINtB5_16RwLockWriteGuardINtNtNtNtBb_11collections4hash3map7HashMapNtCsdARyWrlPtHl_2cc12CompilerFlagbEENtNtNtCsfvfooZQ3Axs_4core3ops5deref8DerefMut9deref_mutB1S_, symObjAddr: 0x47C8, symBinAddr: 0x1000502F4, symSize: 0x1C }
  - { offset: 0x8A27D, size: 0x8, addend: 0x0, symName: __RNvXst_NtNtNtCscOYdFFY2T5N_3std4sync6poison6rwlockINtB5_15RwLockReadGuardINtNtNtNtBb_11collections4hash3map7HashMapINtNtCse1nGBsou5OW_5alloc5boxed3BoxSIB1Q_NtNtNtBb_3ffi6os_str5OsStrEENtNtCsdARyWrlPtHl_2cc4tool10ToolFamilyEENtNtNtCsfvfooZQ3Axs_4core3ops4drop4Drop4dropB30_, symObjAddr: 0x47E4, symBinAddr: 0x100050310, symSize: 0x60 }
  - { offset: 0x8A2DC, size: 0x8, addend: 0x0, symName: __RNvXst_NtNtNtCscOYdFFY2T5N_3std4sync6poison6rwlockINtB5_15RwLockReadGuardINtNtNtNtBb_11collections4hash3map7HashMapINtNtCse1nGBsou5OW_5alloc5boxed3BoxeEINtNtB1U_4sync3ArcNtNtNtBb_3ffi6os_str5OsStrEEENtNtNtCsfvfooZQ3Axs_4core3ops4drop4Drop4dropCsdARyWrlPtHl_2cc, symObjAddr: 0x4844, symBinAddr: 0x100050370, symSize: 0x60 }
  - { offset: 0x8A33B, size: 0x8, addend: 0x0, symName: __RNvXst_NtNtNtCscOYdFFY2T5N_3std4sync6poison6rwlockINtB5_15RwLockReadGuardINtNtNtNtBb_11collections4hash3map7HashMapINtNtCse1nGBsou5OW_5alloc5boxed3BoxeEINtNtB1U_4sync3ArceEEENtNtNtCsfvfooZQ3Axs_4core3ops4drop4Drop4dropCsdARyWrlPtHl_2cc, symObjAddr: 0x48A4, symBinAddr: 0x1000503D0, symSize: 0x60 }
  - { offset: 0x8A39A, size: 0x8, addend: 0x0, symName: __RNvXst_NtNtNtCscOYdFFY2T5N_3std4sync6poison6rwlockINtB5_15RwLockReadGuardINtNtNtNtBb_11collections4hash3map7HashMapINtNtCse1nGBsou5OW_5alloc5boxed3BoxeEINtNtCsfvfooZQ3Axs_4core6option6OptionINtNtB1U_4sync3ArcNtNtNtBb_3ffi6os_str5OsStrEEEENtNtNtB2v_3ops4drop4Drop4dropCsdARyWrlPtHl_2cc, symObjAddr: 0x4904, symBinAddr: 0x100050430, symSize: 0x60 }
  - { offset: 0x8A3F9, size: 0x8, addend: 0x0, symName: __RNvXst_NtNtNtCscOYdFFY2T5N_3std4sync6poison6rwlockINtB5_15RwLockReadGuardINtNtNtNtBb_11collections4hash3map7HashMapNtCsdARyWrlPtHl_2cc12CompilerFlagbEENtNtNtCsfvfooZQ3Axs_4core3ops4drop4Drop4dropB1R_, symObjAddr: 0x4964, symBinAddr: 0x100050490, symSize: 0x60 }
  - { offset: 0x8A45E, size: 0x8, addend: 0x0, symName: __RNvXsu_NtNtNtCscOYdFFY2T5N_3std4sync6poison6rwlockINtB5_16RwLockWriteGuardINtNtNtNtBb_11collections4hash3map7HashMapINtNtCse1nGBsou5OW_5alloc5boxed3BoxSIB1R_NtNtNtBb_3ffi6os_str5OsStrEENtNtCsdARyWrlPtHl_2cc4tool10ToolFamilyEENtNtNtCsfvfooZQ3Axs_4core3ops4drop4Drop4dropB31_, symObjAddr: 0x49C4, symBinAddr: 0x1000504F0, symSize: 0xB8 }
  - { offset: 0x8A50A, size: 0x8, addend: 0x0, symName: __RNvXsu_NtNtNtCscOYdFFY2T5N_3std4sync6poison6rwlockINtB5_16RwLockWriteGuardINtNtNtNtBb_11collections4hash3map7HashMapINtNtCse1nGBsou5OW_5alloc5boxed3BoxeEINtNtB1V_4sync3ArcNtNtNtBb_3ffi6os_str5OsStrEEENtNtNtCsfvfooZQ3Axs_4core3ops4drop4Drop4dropCsdARyWrlPtHl_2cc, symObjAddr: 0x4A7C, symBinAddr: 0x1000505A8, symSize: 0xB8 }
  - { offset: 0x8A5B6, size: 0x8, addend: 0x0, symName: __RNvXsu_NtNtNtCscOYdFFY2T5N_3std4sync6poison6rwlockINtB5_16RwLockWriteGuardINtNtNtNtBb_11collections4hash3map7HashMapINtNtCse1nGBsou5OW_5alloc5boxed3BoxeEINtNtB1V_4sync3ArceEEENtNtNtCsfvfooZQ3Axs_4core3ops4drop4Drop4dropCsdARyWrlPtHl_2cc, symObjAddr: 0x4B34, symBinAddr: 0x100050660, symSize: 0xB8 }
  - { offset: 0x8A662, size: 0x8, addend: 0x0, symName: __RNvXsu_NtNtNtCscOYdFFY2T5N_3std4sync6poison6rwlockINtB5_16RwLockWriteGuardINtNtNtNtBb_11collections4hash3map7HashMapINtNtCse1nGBsou5OW_5alloc5boxed3BoxeEINtNtCsfvfooZQ3Axs_4core6option6OptionINtNtB1V_4sync3ArcNtNtNtBb_3ffi6os_str5OsStrEEEENtNtNtB2w_3ops4drop4Drop4dropCsdARyWrlPtHl_2cc, symObjAddr: 0x4BEC, symBinAddr: 0x100050718, symSize: 0xB8 }
  - { offset: 0x8A70E, size: 0x8, addend: 0x0, symName: __RNvXsu_NtNtNtCscOYdFFY2T5N_3std4sync6poison6rwlockINtB5_16RwLockWriteGuardINtNtNtNtBb_11collections4hash3map7HashMapNtCsdARyWrlPtHl_2cc12CompilerFlagbEENtNtNtCsfvfooZQ3Axs_4core3ops4drop4Drop4dropB1S_, symObjAddr: 0x4CA4, symBinAddr: 0x1000507D0, symSize: 0xB8 }
  - { offset: 0x8AFD2, size: 0x8, addend: 0x0, symName: __RNCNkNvNvMNtNtCscOYdFFY2T5N_3std4hash6randomNtB8_11RandomState3new4KEYS0s_0CsdARyWrlPtHl_2cc, symObjAddr: 0x1460, symBinAddr: 0x10004D208, symSize: 0x3C }
  - { offset: 0x8B010, size: 0x8, addend: 0x0, symName: __RNvNvNvMNtNtCscOYdFFY2T5N_3std4hash6randomNtB6_11RandomState3new4KEYS6___initCsdARyWrlPtHl_2cc, symObjAddr: 0x316C, symBinAddr: 0x10004EC98, symSize: 0x24 }
  - { offset: 0x8B02E, size: 0x8, addend: 0x0, symName: __RNCNvMNtNtCscOYdFFY2T5N_3std4hash6randomNtB4_11RandomState3new0CsdARyWrlPtHl_2cc, symObjAddr: 0x149C, symBinAddr: 0x10004D244, symSize: 0x2C }
  - { offset: 0x8B12D, size: 0x8, addend: 0x0, symName: __RNvXs2_NtNtCscOYdFFY2T5N_3std4hash6randomNtB5_13DefaultHasherNtNtCsfvfooZQ3Axs_4core4hash6Hasher5writeCsdARyWrlPtHl_2cc, symObjAddr: 0x3280, symBinAddr: 0x10004EDAC, symSize: 0x38 }
  - { offset: 0x8B188, size: 0x8, addend: 0x0, symName: __RNvXs2_NtNtCscOYdFFY2T5N_3std4hash6randomNtB5_13DefaultHasherNtNtCsfvfooZQ3Axs_4core4hash6Hasher6finishCsdARyWrlPtHl_2cc, symObjAddr: 0x32B8, symBinAddr: 0x10004EDE4, symSize: 0x2C }
  - { offset: 0x8B1D1, size: 0x8, addend: 0x0, symName: __RNvXs2_NtNtCscOYdFFY2T5N_3std4hash6randomNtB5_13DefaultHasherNtNtCsfvfooZQ3Axs_4core4hash6Hasher9write_strCsdARyWrlPtHl_2cc, symObjAddr: 0x32E4, symBinAddr: 0x10004EE10, symSize: 0x38 }
  - { offset: 0x8B232, size: 0x8, addend: 0x0, symName: __RNvXs3_NtNtCscOYdFFY2T5N_3std4hash6randomNtB5_11RandomStateNtNtCsfvfooZQ3Axs_4core7default7Default7defaultCsdARyWrlPtHl_2cc, symObjAddr: 0x331C, symBinAddr: 0x10004EE48, symSize: 0x1C }
  - { offset: 0x8B26A, size: 0x8, addend: 0x0, symName: __RNvXs_NtNtCscOYdFFY2T5N_3std4hash6randomNtB4_11RandomStateNtNtCsfvfooZQ3Axs_4core4hash11BuildHasher12build_hasherCsdARyWrlPtHl_2cc, symObjAddr: 0x3D04, symBinAddr: 0x10004F830, symSize: 0xCC }
  - { offset: 0x8C7E2, size: 0x8, addend: 0x0, symName: __RNCINvNtCsloNvcHxBCre_9hashbrown3map14equivalent_keyINtNtCse1nGBsou5OW_5alloc5boxed3BoxSIBP_NtNtNtCscOYdFFY2T5N_3std3ffi6os_str5OsStrEEBO_NtNtCsdARyWrlPtHl_2cc4tool10ToolFamilyE0B2g_, symObjAddr: 0x12BC, symBinAddr: 0x10004D064, symSize: 0x30 }
  - { offset: 0x8C839, size: 0x8, addend: 0x0, symName: __RNCINvNtCsloNvcHxBCre_9hashbrown3map14equivalent_keyINtNtCse1nGBsou5OW_5alloc5boxed3BoxeEBO_INtNtBT_4sync3ArcNtNtNtCscOYdFFY2T5N_3std3ffi6os_str5OsStrEE0CsdARyWrlPtHl_2cc, symObjAddr: 0x12EC, symBinAddr: 0x10004D094, symSize: 0x30 }
  - { offset: 0x8C890, size: 0x8, addend: 0x0, symName: __RNCINvNtCsloNvcHxBCre_9hashbrown3map14equivalent_keyINtNtCse1nGBsou5OW_5alloc5boxed3BoxeEBO_INtNtBT_4sync3ArceEE0CsdARyWrlPtHl_2cc, symObjAddr: 0x131C, symBinAddr: 0x10004D0C4, symSize: 0x30 }
  - { offset: 0x8C8E7, size: 0x8, addend: 0x0, symName: __RNCINvNtCsloNvcHxBCre_9hashbrown3map14equivalent_keyINtNtCse1nGBsou5OW_5alloc5boxed3BoxeEBO_INtNtCsfvfooZQ3Axs_4core6option6OptionINtNtBT_4sync3ArcNtNtNtCscOYdFFY2T5N_3std3ffi6os_str5OsStrEEE0CsdARyWrlPtHl_2cc, symObjAddr: 0x134C, symBinAddr: 0x10004D0F4, symSize: 0x30 }
  - { offset: 0x8C93E, size: 0x8, addend: 0x0, symName: __RNCINvNtCsloNvcHxBCre_9hashbrown3map14equivalent_keyNtCsdARyWrlPtHl_2cc12CompilerFlagBO_bE0BQ_, symObjAddr: 0x137C, symBinAddr: 0x10004D124, symSize: 0x30 }
  - { offset: 0x8C995, size: 0x8, addend: 0x0, symName: __RNCINvNtCsloNvcHxBCre_9hashbrown3map14equivalent_keyeINtNtCse1nGBsou5OW_5alloc5boxed3BoxeEINtNtBU_4sync3ArcNtNtNtCscOYdFFY2T5N_3std3ffi6os_str5OsStrEE0CsdARyWrlPtHl_2cc, symObjAddr: 0x13AC, symBinAddr: 0x10004D154, symSize: 0x3C }
  - { offset: 0x8C9EC, size: 0x8, addend: 0x0, symName: __RNCINvNtCsloNvcHxBCre_9hashbrown3map14equivalent_keyeINtNtCse1nGBsou5OW_5alloc5boxed3BoxeEINtNtBU_4sync3ArceEE0CsdARyWrlPtHl_2cc, symObjAddr: 0x13E8, symBinAddr: 0x10004D190, symSize: 0x3C }
  - { offset: 0x8CA43, size: 0x8, addend: 0x0, symName: __RNCINvNtCsloNvcHxBCre_9hashbrown3map14equivalent_keyeINtNtCse1nGBsou5OW_5alloc5boxed3BoxeEINtNtCsfvfooZQ3Axs_4core6option6OptionINtNtBU_4sync3ArcNtNtNtCscOYdFFY2T5N_3std3ffi6os_str5OsStrEEE0CsdARyWrlPtHl_2cc, symObjAddr: 0x1424, symBinAddr: 0x10004D1CC, symSize: 0x3C }
  - { offset: 0x8D29F, size: 0x8, addend: 0x0, symName: __RNCINvNtCsloNvcHxBCre_9hashbrown3map11make_hasherINtNtCse1nGBsou5OW_5alloc5boxed3BoxSIBM_NtNtNtCscOYdFFY2T5N_3std3ffi6os_str5OsStrEENtNtCsdARyWrlPtHl_2cc4tool10ToolFamilyNtNtNtB1v_4hash6random11RandomStateE0B2a_, symObjAddr: 0x1190, symBinAddr: 0x10004CF38, symSize: 0x3C }
  - { offset: 0x8D31B, size: 0x8, addend: 0x0, symName: __RNCINvNtCsloNvcHxBCre_9hashbrown3map11make_hasherINtNtCse1nGBsou5OW_5alloc5boxed3BoxeEINtNtBQ_4sync3ArcNtNtNtCscOYdFFY2T5N_3std3ffi6os_str5OsStrENtNtNtB1J_4hash6random11RandomStateE0CsdARyWrlPtHl_2cc, symObjAddr: 0x11CC, symBinAddr: 0x10004CF74, symSize: 0x3C }
  - { offset: 0x8D397, size: 0x8, addend: 0x0, symName: __RNCINvNtCsloNvcHxBCre_9hashbrown3map11make_hasherINtNtCse1nGBsou5OW_5alloc5boxed3BoxeEINtNtBQ_4sync3ArceENtNtNtCscOYdFFY2T5N_3std4hash6random11RandomStateE0CsdARyWrlPtHl_2cc, symObjAddr: 0x1208, symBinAddr: 0x10004CFB0, symSize: 0x3C }
  - { offset: 0x8D413, size: 0x8, addend: 0x0, symName: __RNCINvNtCsloNvcHxBCre_9hashbrown3map11make_hasherINtNtCse1nGBsou5OW_5alloc5boxed3BoxeEINtNtCsfvfooZQ3Axs_4core6option6OptionINtNtBQ_4sync3ArcNtNtNtCscOYdFFY2T5N_3std3ffi6os_str5OsStrEENtNtNtB2l_4hash6random11RandomStateE0CsdARyWrlPtHl_2cc, symObjAddr: 0x1244, symBinAddr: 0x10004CFEC, symSize: 0x3C }
  - { offset: 0x8D48F, size: 0x8, addend: 0x0, symName: __RNCINvNtCsloNvcHxBCre_9hashbrown3map11make_hasherNtCsdARyWrlPtHl_2cc12CompilerFlagbNtNtNtCscOYdFFY2T5N_3std4hash6random11RandomStateE0BN_, symObjAddr: 0x1280, symBinAddr: 0x10004D028, symSize: 0x3C }
  - { offset: 0x8D713, size: 0x8, addend: 0x0, symName: __RNvXCsloNvcHxBCre_9hashbrowneINtB2_10EquivalentINtNtCse1nGBsou5OW_5alloc5boxed3BoxeEE10equivalentCsdARyWrlPtHl_2cc, symObjAddr: 0x3190, symBinAddr: 0x10004ECBC, symSize: 0x60 }
  - { offset: 0x8D8D4, size: 0x8, addend: 0x0, symName: __RINvMs1_NtCsloNvcHxBCre_9hashbrown3mapINtB6_7HashMapINtNtCse1nGBsou5OW_5alloc5boxed3BoxSIBP_NtNtNtCscOYdFFY2T5N_3std3ffi6os_str5OsStrEENtNtCsdARyWrlPtHl_2cc4tool10ToolFamilyNtNtNtB1y_4hash6random11RandomStateE9get_innerBO_EB2d_, symObjAddr: 0x0, symBinAddr: 0x10004BDA8, symSize: 0xF8 }
  - { offset: 0x8DC0D, size: 0x8, addend: 0x0, symName: __RINvMs1_NtCsloNvcHxBCre_9hashbrown3mapINtB6_7HashMapINtNtCse1nGBsou5OW_5alloc5boxed3BoxeEINtNtBT_4sync3ArcNtNtNtCscOYdFFY2T5N_3std3ffi6os_str5OsStrENtNtNtB1M_4hash6random11RandomStateE9get_innereECsdARyWrlPtHl_2cc, symObjAddr: 0xF8, symBinAddr: 0x10004BEA0, symSize: 0x10C }
  - { offset: 0x8DF2B, size: 0x8, addend: 0x0, symName: __RINvMs1_NtCsloNvcHxBCre_9hashbrown3mapINtB6_7HashMapINtNtCse1nGBsou5OW_5alloc5boxed3BoxeEINtNtBT_4sync3ArceENtNtNtCscOYdFFY2T5N_3std4hash6random11RandomStateE9get_innereECsdARyWrlPtHl_2cc, symObjAddr: 0x204, symBinAddr: 0x10004BFAC, symSize: 0x10C }
  - { offset: 0x8E222, size: 0x8, addend: 0x0, symName: __RINvMs1_NtCsloNvcHxBCre_9hashbrown3mapINtB6_7HashMapINtNtCse1nGBsou5OW_5alloc5boxed3BoxeEINtNtCsfvfooZQ3Axs_4core6option6OptionINtNtBT_4sync3ArcNtNtNtCscOYdFFY2T5N_3std3ffi6os_str5OsStrEENtNtNtB2o_4hash6random11RandomStateE9get_innereECsdARyWrlPtHl_2cc, symObjAddr: 0x310, symBinAddr: 0x10004C0B8, symSize: 0x10C }
  - { offset: 0x8E54D, size: 0x8, addend: 0x0, symName: __RINvMs1_NtCsloNvcHxBCre_9hashbrown3mapINtB6_7HashMapNtCsdARyWrlPtHl_2cc12CompilerFlagbNtNtNtCscOYdFFY2T5N_3std4hash6random11RandomStateE9get_innerBO_EBQ_, symObjAddr: 0x41C, symBinAddr: 0x10004C1C4, symSize: 0xF8 }
  - { offset: 0x8E7C7, size: 0x8, addend: 0x0, symName: __RINvMs_NtNtCsfvfooZQ3Axs_4core3fmt2rtNtB5_8Argument11new_displayINtNtCsdARyWrlPtHl_2cc9utilities10JoinOsStrsINtNtCse1nGBsou5OW_5alloc4sync3ArcNtNtNtCscOYdFFY2T5N_3std3ffi6os_str5OsStrEEEB15_, symObjAddr: 0x514, symBinAddr: 0x10004C2BC, symSize: 0x2C }
  - { offset: 0x8E872, size: 0x8, addend: 0x0, symName: __RINvMs_NtNtCsfvfooZQ3Axs_4core3fmt2rtNtB5_8Argument11new_displayINtNtCsdARyWrlPtHl_2cc9utilities18OptionOsStrDisplayRNtNtNtCscOYdFFY2T5N_3std3ffi6os_str5OsStrEEB15_, symObjAddr: 0x540, symBinAddr: 0x10004C2E8, symSize: 0x2C }
  - { offset: 0x8E8FF, size: 0x8, addend: 0x0, symName: __RINvMs_NtNtCsfvfooZQ3Axs_4core3fmt2rtNtB5_8Argument11new_displayINtNtCse1nGBsou5OW_5alloc4sync3ArceEECsdARyWrlPtHl_2cc, symObjAddr: 0x56C, symBinAddr: 0x10004C314, symSize: 0x2C }
  - { offset: 0x8E98C, size: 0x8, addend: 0x0, symName: __RINvMs_NtNtCsfvfooZQ3Axs_4core3fmt2rtNtB5_8Argument11new_displayINtNtCse1nGBsou5OW_5alloc6borrow3CoweEECsdARyWrlPtHl_2cc, symObjAddr: 0x598, symBinAddr: 0x10004C340, symSize: 0x2C }
  - { offset: 0x8EA19, size: 0x8, addend: 0x0, symName: __RINvMs_NtNtCsfvfooZQ3Axs_4core3fmt2rtNtB5_8Argument11new_displayNtCsdARyWrlPtHl_2cc5ErrorEB12_, symObjAddr: 0x5C4, symBinAddr: 0x10004C36C, symSize: 0x2C }
  - { offset: 0x8EAA6, size: 0x8, addend: 0x0, symName: __RINvMs_NtNtCsfvfooZQ3Axs_4core3fmt2rtNtB5_8Argument11new_displayNtNtCscOYdFFY2T5N_3std3env8VarErrorECsdARyWrlPtHl_2cc, symObjAddr: 0x5F0, symBinAddr: 0x10004C398, symSize: 0x2C }
  - { offset: 0x8EB33, size: 0x8, addend: 0x0, symName: __RINvMs_NtNtCsfvfooZQ3Axs_4core3fmt2rtNtB5_8Argument11new_displayNtNtCscOYdFFY2T5N_3std7process10ExitStatusECsdARyWrlPtHl_2cc, symObjAddr: 0x61C, symBinAddr: 0x10004C3C4, symSize: 0x2C }
  - { offset: 0x8EBC0, size: 0x8, addend: 0x0, symName: __RINvMs_NtNtCsfvfooZQ3Axs_4core3fmt2rtNtB5_8Argument11new_displayNtNtNtCscOYdFFY2T5N_3std2io5error5ErrorECsdARyWrlPtHl_2cc, symObjAddr: 0x648, symBinAddr: 0x10004C3F0, symSize: 0x2C }
  - { offset: 0x8EC95, size: 0x8, addend: 0x0, symName: __RINvMs_NtNtCsfvfooZQ3Axs_4core3fmt2rtNtB5_8Argument11new_displayRDNtB7_7DisplayEL_ECsdARyWrlPtHl_2cc, symObjAddr: 0x674, symBinAddr: 0x10004C41C, symSize: 0x2C }
  - { offset: 0x8ED22, size: 0x8, addend: 0x0, symName: __RINvMs_NtNtCsfvfooZQ3Axs_4core3fmt2rtNtB5_8Argument11new_displayRINtNtCse1nGBsou5OW_5alloc4sync3ArceEECsdARyWrlPtHl_2cc, symObjAddr: 0x6A0, symBinAddr: 0x10004C448, symSize: 0x2C }
  - { offset: 0x8EDBC, size: 0x8, addend: 0x0, symName: __RINvMs_NtNtCsfvfooZQ3Axs_4core3fmt2rtNtB5_8Argument11new_displayRReECsdARyWrlPtHl_2cc, symObjAddr: 0x6CC, symBinAddr: 0x10004C474, symSize: 0x2C }
  - { offset: 0x8EE49, size: 0x8, addend: 0x0, symName: __RINvMs_NtNtCsfvfooZQ3Axs_4core3fmt2rtNtB5_8Argument11new_displaycECsdARyWrlPtHl_2cc, symObjAddr: 0x6F8, symBinAddr: 0x10004C4A0, symSize: 0x2C }
  - { offset: 0x8EED6, size: 0x8, addend: 0x0, symName: __RINvMs_NtNtCsfvfooZQ3Axs_4core3fmt2rtNtB5_8Argument11new_displaylECsdARyWrlPtHl_2cc, symObjAddr: 0x724, symBinAddr: 0x10004C4CC, symSize: 0x2C }
  - { offset: 0x8EF63, size: 0x8, addend: 0x0, symName: __RINvMs_NtNtCsfvfooZQ3Axs_4core3fmt2rtNtB5_8Argument11new_displaymECsdARyWrlPtHl_2cc, symObjAddr: 0x750, symBinAddr: 0x10004C4F8, symSize: 0x2C }
  - { offset: 0x8EFF0, size: 0x8, addend: 0x0, symName: __RINvMs_NtNtCsfvfooZQ3Axs_4core3fmt2rtNtB5_8Argument11new_displayyECsdARyWrlPtHl_2cc, symObjAddr: 0x77C, symBinAddr: 0x10004C524, symSize: 0x2C }
  - { offset: 0x8F053, size: 0x8, addend: 0x0, symName: __RINvMs_NtNtCsfvfooZQ3Axs_4core3fmt2rtNtB5_8Argument13new_lower_hexyECsdARyWrlPtHl_2cc, symObjAddr: 0x7A8, symBinAddr: 0x10004C550, symSize: 0x2C }
  - { offset: 0x8F0E0, size: 0x8, addend: 0x0, symName: __RINvMs_NtNtCsfvfooZQ3Axs_4core3fmt2rtNtB5_8Argument9new_debugNtCsdARyWrlPtHl_2cc9ErrorKindEBZ_, symObjAddr: 0x7D4, symBinAddr: 0x10004C57C, symSize: 0x2C }
  - { offset: 0x8F2A5, size: 0x8, addend: 0x0, symName: __RINvMs_NtNtCsfvfooZQ3Axs_4core3fmt2rtNtB5_8Argument9new_debugNtNtCscOYdFFY2T5N_3std7process7CommandECsdARyWrlPtHl_2cc, symObjAddr: 0x800, symBinAddr: 0x10004C5A8, symSize: 0x2C }
  - { offset: 0x8F332, size: 0x8, addend: 0x0, symName: __RINvMs_NtNtCsfvfooZQ3Axs_4core3fmt2rtNtB5_8Argument9new_debugNtNtCsdARyWrlPtHl_2cc4tool10ToolFamilyEB11_, symObjAddr: 0x82C, symBinAddr: 0x10004C5D4, symSize: 0x2C }
  - { offset: 0x8F3BF, size: 0x8, addend: 0x0, symName: __RINvMs_NtNtCsfvfooZQ3Axs_4core3fmt2rtNtB5_8Argument9new_debugNtNtNtCscOYdFFY2T5N_3std3ffi6os_str8OsStringECsdARyWrlPtHl_2cc, symObjAddr: 0x858, symBinAddr: 0x10004C600, symSize: 0x2C }
  - { offset: 0x8F459, size: 0x8, addend: 0x0, symName: __RINvMs_NtNtCsfvfooZQ3Axs_4core3fmt2rtNtB5_8Argument9new_debugQNtNtCscOYdFFY2T5N_3std7process7CommandECsdARyWrlPtHl_2cc, symObjAddr: 0x884, symBinAddr: 0x10004C62C, symSize: 0x2C }
  - { offset: 0x8F4E6, size: 0x8, addend: 0x0, symName: __RINvMs_NtNtCsfvfooZQ3Axs_4core3fmt2rtNtB5_8Argument9new_debugRNtNtCscOYdFFY2T5N_3std7process7CommandECsdARyWrlPtHl_2cc, symObjAddr: 0x8B0, symBinAddr: 0x10004C658, symSize: 0x2C }
  - { offset: 0x8F573, size: 0x8, addend: 0x0, symName: __RINvMs_NtNtCsfvfooZQ3Axs_4core3fmt2rtNtB5_8Argument9new_debugRNtNtNtCscOYdFFY2T5N_3std3ffi6os_str5OsStrECsdARyWrlPtHl_2cc, symObjAddr: 0x8DC, symBinAddr: 0x10004C684, symSize: 0x2C }
  - { offset: 0x8F600, size: 0x8, addend: 0x0, symName: __RINvMs_NtNtCsfvfooZQ3Axs_4core3fmt2rtNtB5_8Argument9new_debugRNtNtNtCscOYdFFY2T5N_3std3ffi6os_str8OsStringECsdARyWrlPtHl_2cc, symObjAddr: 0x908, symBinAddr: 0x10004C6B0, symSize: 0x2C }
  - { offset: 0x8F680, size: 0x8, addend: 0x0, symName: __RINvMs_NtNtCsfvfooZQ3Axs_4core3fmt2rtNtB5_8Argument9new_debugReECsdARyWrlPtHl_2cc, symObjAddr: 0x934, symBinAddr: 0x10004C6DC, symSize: 0x2C }
  - { offset: 0x8FA66, size: 0x8, addend: 0x0, symName: __RNvMNtNtCscOYdFFY2T5N_3std4hash6randomNtB2_11RandomState3newCsdARyWrlPtHl_2cc, symObjAddr: 0x17EC, symBinAddr: 0x10004D594, symSize: 0x1C }
  - { offset: 0x8FA79, size: 0x8, addend: 0x0, symName: __RNvMNtNtCsfvfooZQ3Axs_4core3fmt2rtNtB2_11Placeholder3newCsdARyWrlPtHl_2cc, symObjAddr: 0x1808, symBinAddr: 0x10004D5B0, symSize: 0x4C }
  - { offset: 0x8FB6C, size: 0x8, addend: 0x0, symName: __RNvMNtNtNtCscOYdFFY2T5N_3std2io8buffered9bufwriterINtB2_9BufWriterNtNtB6_5stdio6StdoutE13with_capacityCsdARyWrlPtHl_2cc, symObjAddr: 0x1854, symBinAddr: 0x10004D5FC, symSize: 0x98 }
  - { offset: 0x8FC53, size: 0x8, addend: 0x0, symName: __RNvMs0_NtNtCscOYdFFY2T5N_3std4hash6randomNtB5_13DefaultHasher3newCsdARyWrlPtHl_2cc, symObjAddr: 0x18EC, symBinAddr: 0x10004D694, symSize: 0xB4 }
  - { offset: 0x8FCC8, size: 0x8, addend: 0x0, symName: __RNvMs0_NtNtCsfvfooZQ3Axs_4core3fmt2rtNtB5_9UnsafeArg3newCsdARyWrlPtHl_2cc, symObjAddr: 0x19A0, symBinAddr: 0x10004D748, symSize: 0x4 }
  - { offset: 0x8FDAE, size: 0x8, addend: 0x0, symName: __RNvMs1_NtCsloNvcHxBCre_9hashbrown3mapINtB5_7HashMapINtNtCse1nGBsou5OW_5alloc5boxed3BoxSIBO_NtNtNtCscOYdFFY2T5N_3std3ffi6os_str5OsStrEENtNtCsdARyWrlPtHl_2cc4tool10ToolFamilyNtNtNtB1x_4hash6random11RandomStateE6insertB2c_, symObjAddr: 0x19A4, symBinAddr: 0x10004D74C, symSize: 0x1F0 }
  - { offset: 0x90048, size: 0x8, addend: 0x0, symName: __RNvMs1_NtCsloNvcHxBCre_9hashbrown3mapINtB5_7HashMapINtNtCse1nGBsou5OW_5alloc5boxed3BoxeEINtNtBS_4sync3ArcNtNtNtCscOYdFFY2T5N_3std3ffi6os_str5OsStrENtNtNtB1L_4hash6random11RandomStateE6insertCsdARyWrlPtHl_2cc, symObjAddr: 0x1B94, symBinAddr: 0x10004D93C, symSize: 0x1EC }
  - { offset: 0x902E3, size: 0x8, addend: 0x0, symName: __RNvMs1_NtCsloNvcHxBCre_9hashbrown3mapINtB5_7HashMapINtNtCse1nGBsou5OW_5alloc5boxed3BoxeEINtNtBS_4sync3ArceENtNtNtCscOYdFFY2T5N_3std4hash6random11RandomStateE6insertCsdARyWrlPtHl_2cc, symObjAddr: 0x1D80, symBinAddr: 0x10004DB28, symSize: 0x1EC }
  - { offset: 0x9057E, size: 0x8, addend: 0x0, symName: __RNvMs1_NtCsloNvcHxBCre_9hashbrown3mapINtB5_7HashMapINtNtCse1nGBsou5OW_5alloc5boxed3BoxeEINtNtCsfvfooZQ3Axs_4core6option6OptionINtNtBS_4sync3ArcNtNtNtCscOYdFFY2T5N_3std3ffi6os_str5OsStrEENtNtNtB2n_4hash6random11RandomStateE6insertCsdARyWrlPtHl_2cc, symObjAddr: 0x1F6C, symBinAddr: 0x10004DD14, symSize: 0x1F8 }
  - { offset: 0x9081A, size: 0x8, addend: 0x0, symName: __RNvMs1_NtCsloNvcHxBCre_9hashbrown3mapINtB5_7HashMapNtCsdARyWrlPtHl_2cc12CompilerFlagbNtNtNtCscOYdFFY2T5N_3std4hash6random11RandomStateE6insertBP_, symObjAddr: 0x2164, symBinAddr: 0x10004DF0C, symSize: 0x1FC }
  - { offset: 0x90A61, size: 0x8, addend: 0x0, symName: __RNvMs9_NtNtNtCscOYdFFY2T5N_3std4sync6poison6rwlockINtB5_6RwLockINtNtNtNtBb_11collections4hash3map7HashMapINtNtCse1nGBsou5OW_5alloc5boxed3BoxSIB1G_NtNtNtBb_3ffi6os_str5OsStrEENtNtCsdARyWrlPtHl_2cc4tool10ToolFamilyEE4readB2Q_, symObjAddr: 0x2360, symBinAddr: 0x10004E108, symSize: 0x7C }
  - { offset: 0x90BA2, size: 0x8, addend: 0x0, symName: __RNvMs9_NtNtNtCscOYdFFY2T5N_3std4sync6poison6rwlockINtB5_6RwLockINtNtNtNtBb_11collections4hash3map7HashMapINtNtCse1nGBsou5OW_5alloc5boxed3BoxSIB1G_NtNtNtBb_3ffi6os_str5OsStrEENtNtCsdARyWrlPtHl_2cc4tool10ToolFamilyEE5writeB2Q_, symObjAddr: 0x23DC, symBinAddr: 0x10004E184, symSize: 0xB4 }
  - { offset: 0x90CF8, size: 0x8, addend: 0x0, symName: __RNvMs9_NtNtNtCscOYdFFY2T5N_3std4sync6poison6rwlockINtB5_6RwLockINtNtNtNtBb_11collections4hash3map7HashMapINtNtCse1nGBsou5OW_5alloc5boxed3BoxeEINtNtB1K_4sync3ArcNtNtNtBb_3ffi6os_str5OsStrEEE4readCsdARyWrlPtHl_2cc, symObjAddr: 0x2490, symBinAddr: 0x10004E238, symSize: 0x7C }
  - { offset: 0x90E12, size: 0x8, addend: 0x0, symName: __RNvMs9_NtNtNtCscOYdFFY2T5N_3std4sync6poison6rwlockINtB5_6RwLockINtNtNtNtBb_11collections4hash3map7HashMapINtNtCse1nGBsou5OW_5alloc5boxed3BoxeEINtNtB1K_4sync3ArcNtNtNtBb_3ffi6os_str5OsStrEEE5writeCsdARyWrlPtHl_2cc, symObjAddr: 0x250C, symBinAddr: 0x10004E2B4, symSize: 0xB4 }
  - { offset: 0x90F68, size: 0x8, addend: 0x0, symName: __RNvMs9_NtNtNtCscOYdFFY2T5N_3std4sync6poison6rwlockINtB5_6RwLockINtNtNtNtBb_11collections4hash3map7HashMapINtNtCse1nGBsou5OW_5alloc5boxed3BoxeEINtNtB1K_4sync3ArceEEE4readCsdARyWrlPtHl_2cc, symObjAddr: 0x25C0, symBinAddr: 0x10004E368, symSize: 0x7C }
  - { offset: 0x91082, size: 0x8, addend: 0x0, symName: __RNvMs9_NtNtNtCscOYdFFY2T5N_3std4sync6poison6rwlockINtB5_6RwLockINtNtNtNtBb_11collections4hash3map7HashMapINtNtCse1nGBsou5OW_5alloc5boxed3BoxeEINtNtB1K_4sync3ArceEEE5writeCsdARyWrlPtHl_2cc, symObjAddr: 0x263C, symBinAddr: 0x10004E3E4, symSize: 0xB4 }
  - { offset: 0x911D8, size: 0x8, addend: 0x0, symName: __RNvMs9_NtNtNtCscOYdFFY2T5N_3std4sync6poison6rwlockINtB5_6RwLockINtNtNtNtBb_11collections4hash3map7HashMapINtNtCse1nGBsou5OW_5alloc5boxed3BoxeEINtNtCsfvfooZQ3Axs_4core6option6OptionINtNtB1K_4sync3ArcNtNtNtBb_3ffi6os_str5OsStrEEEE4readCsdARyWrlPtHl_2cc, symObjAddr: 0x26F0, symBinAddr: 0x10004E498, symSize: 0x7C }
  - { offset: 0x912F2, size: 0x8, addend: 0x0, symName: __RNvMs9_NtNtNtCscOYdFFY2T5N_3std4sync6poison6rwlockINtB5_6RwLockINtNtNtNtBb_11collections4hash3map7HashMapINtNtCse1nGBsou5OW_5alloc5boxed3BoxeEINtNtCsfvfooZQ3Axs_4core6option6OptionINtNtB1K_4sync3ArcNtNtNtBb_3ffi6os_str5OsStrEEEE5writeCsdARyWrlPtHl_2cc, symObjAddr: 0x276C, symBinAddr: 0x10004E514, symSize: 0xB4 }
  - { offset: 0x91448, size: 0x8, addend: 0x0, symName: __RNvMs9_NtNtNtCscOYdFFY2T5N_3std4sync6poison6rwlockINtB5_6RwLockINtNtNtNtBb_11collections4hash3map7HashMapNtCsdARyWrlPtHl_2cc12CompilerFlagbEE4readB1H_, symObjAddr: 0x2820, symBinAddr: 0x10004E5C8, symSize: 0x7C }
  - { offset: 0x91562, size: 0x8, addend: 0x0, symName: __RNvMs9_NtNtNtCscOYdFFY2T5N_3std4sync6poison6rwlockINtB5_6RwLockINtNtNtNtBb_11collections4hash3map7HashMapNtCsdARyWrlPtHl_2cc12CompilerFlagbEE5writeB1H_, symObjAddr: 0x289C, symBinAddr: 0x10004E644, symSize: 0xB4 }
  - { offset: 0x91765, size: 0x8, addend: 0x0, symName: __RNvMs_NtNtNtCscOYdFFY2T5N_3std2io8buffered9bufwriterINtB4_9BufWriterNtNtB8_5stdio6StdoutE10write_coldCsdARyWrlPtHl_2cc, symObjAddr: 0x2950, symBinAddr: 0x10010AF58, symSize: 0x14C }
  - { offset: 0x919E4, size: 0x8, addend: 0x0, symName: __RNvMs_NtNtNtCscOYdFFY2T5N_3std2io8buffered9bufwriterINtB4_9BufWriterNtNtB8_5stdio6StdoutE14write_all_coldCsdARyWrlPtHl_2cc, symObjAddr: 0x2A9C, symBinAddr: 0x10010B0A4, symSize: 0x130 }
  - { offset: 0x91C8E, size: 0x8, addend: 0x0, symName: __RNvMs_NtNtNtCscOYdFFY2T5N_3std2io8buffered9bufwriterINtB4_9BufWriterNtNtB8_5stdio6StdoutE25write_to_buffer_uncheckedCsdARyWrlPtHl_2cc, symObjAddr: 0x2BCC, symBinAddr: 0x10004E6F8, symSize: 0xD8 }
  - { offset: 0x91F08, size: 0x8, addend: 0x0, symName: __RNvMs_NtNtNtCscOYdFFY2T5N_3std2io8buffered9bufwriterINtB4_9BufWriterNtNtB8_5stdio6StdoutE9flush_bufCsdARyWrlPtHl_2cc, symObjAddr: 0x2CA4, symBinAddr: 0x10004E7D0, symSize: 0x20C }
  - { offset: 0x920D6, size: 0x8, addend: 0x0, symName: __RNvMsd_NtNtNtCscOYdFFY2T5N_3std4sync6poison6rwlockINtB5_15RwLockReadGuardINtNtNtNtBb_11collections4hash3map7HashMapINtNtCse1nGBsou5OW_5alloc5boxed3BoxSIB1Q_NtNtNtBb_3ffi6os_str5OsStrEENtNtCsdARyWrlPtHl_2cc4tool10ToolFamilyEE3newB30_, symObjAddr: 0x2EB0, symBinAddr: 0x10004E9DC, symSize: 0x8C }
  - { offset: 0x921C8, size: 0x8, addend: 0x0, symName: __RNvMsd_NtNtNtCscOYdFFY2T5N_3std4sync6poison6rwlockINtB5_15RwLockReadGuardINtNtNtNtBb_11collections4hash3map7HashMapINtNtCse1nGBsou5OW_5alloc5boxed3BoxeEINtNtB1U_4sync3ArcNtNtNtBb_3ffi6os_str5OsStrEEE3newCsdARyWrlPtHl_2cc, symObjAddr: 0x2F3C, symBinAddr: 0x10004EA68, symSize: 0x8C }
  - { offset: 0x922BA, size: 0x8, addend: 0x0, symName: __RNvMsd_NtNtNtCscOYdFFY2T5N_3std4sync6poison6rwlockINtB5_15RwLockReadGuardINtNtNtNtBb_11collections4hash3map7HashMapINtNtCse1nGBsou5OW_5alloc5boxed3BoxeEINtNtB1U_4sync3ArceEEE3newCsdARyWrlPtHl_2cc, symObjAddr: 0x2FC8, symBinAddr: 0x10004EAF4, symSize: 0x8C }
  - { offset: 0x923AC, size: 0x8, addend: 0x0, symName: __RNvMsd_NtNtNtCscOYdFFY2T5N_3std4sync6poison6rwlockINtB5_15RwLockReadGuardINtNtNtNtBb_11collections4hash3map7HashMapINtNtCse1nGBsou5OW_5alloc5boxed3BoxeEINtNtCsfvfooZQ3Axs_4core6option6OptionINtNtB1U_4sync3ArcNtNtNtBb_3ffi6os_str5OsStrEEEE3newCsdARyWrlPtHl_2cc, symObjAddr: 0x3054, symBinAddr: 0x10004EB80, symSize: 0x8C }
  - { offset: 0x9249E, size: 0x8, addend: 0x0, symName: __RNvMsd_NtNtNtCscOYdFFY2T5N_3std4sync6poison6rwlockINtB5_15RwLockReadGuardINtNtNtNtBb_11collections4hash3map7HashMapNtCsdARyWrlPtHl_2cc12CompilerFlagbEE3newB1R_, symObjAddr: 0x30E0, symBinAddr: 0x10004EC0C, symSize: 0x8C }
  - { offset: 0x934AA, size: 0x8, addend: 0x0, symName: __RINvMNtCscOYdFFY2T5N_3std2fsNtB3_4File6createRNtNtB5_4path7PathBufECsdARyWrlPtHl_2cc, symObjAddr: 0x0, symBinAddr: 0x100050B74, symSize: 0xC0 }
  - { offset: 0x9353B, size: 0x8, addend: 0x0, symName: __RNvYNtNtCscOYdFFY2T5N_3std2fs4FileNtNtB6_2io5Write9write_allCsdARyWrlPtHl_2cc, symObjAddr: 0xA490, symBinAddr: 0x10005A428, symSize: 0x180 }
  - { offset: 0x935DC, size: 0x8, addend: 0x0, symName: __RNvYNtNtCscOYdFFY2T5N_3std2fs4FileNtNtB6_2io5Write9write_fmtCsdARyWrlPtHl_2cc, symObjAddr: 0xA610, symBinAddr: 0x10005A5A8, symSize: 0x128 }
  - { offset: 0x93B42, size: 0x8, addend: 0x0, symName: __RINvNtCscOYdFFY2T5N_3std2fs11remove_fileRNtNtB4_4path4PathECsdARyWrlPtHl_2cc, symObjAddr: 0x134, symBinAddr: 0x100050CA8, symSize: 0x68 }
  - { offset: 0x93B79, size: 0x8, addend: 0x0, symName: __RINvNtCscOYdFFY2T5N_3std2fs11remove_fileRNtNtB4_4path7PathBufECsdARyWrlPtHl_2cc, symObjAddr: 0x19C, symBinAddr: 0x100050D10, symSize: 0x64 }
  - { offset: 0x93BB0, size: 0x8, addend: 0x0, symName: __RINvNtCscOYdFFY2T5N_3std2fs14create_dir_allRINtNtCse1nGBsou5OW_5alloc6borrow3CowNtNtB4_4path4PathEECsdARyWrlPtHl_2cc, symObjAddr: 0x200, symBinAddr: 0x100050D74, symSize: 0x88 }
  - { offset: 0x93C1A, size: 0x8, addend: 0x0, symName: __RINvNtCscOYdFFY2T5N_3std2fs14create_dir_allRNtNtB4_4path4PathECsdARyWrlPtHl_2cc, symObjAddr: 0x288, symBinAddr: 0x100050DFC, symSize: 0x8C }
  - { offset: 0x93C84, size: 0x8, addend: 0x0, symName: __RINvNtCscOYdFFY2T5N_3std2fs4copyRNtNtB4_4path4PathRNtBx_7PathBufECsdARyWrlPtHl_2cc, symObjAddr: 0x314, symBinAddr: 0x100050E88, symSize: 0x98 }
  - { offset: 0x93CE8, size: 0x8, addend: 0x0, symName: __RINvNtCscOYdFFY2T5N_3std2fs8metadataRNtNtB4_4path4PathECsdARyWrlPtHl_2cc, symObjAddr: 0x3AC, symBinAddr: 0x100050F20, symSize: 0x100 }
  - { offset: 0x93D6B, size: 0x8, addend: 0x0, symName: __RINvNtCscOYdFFY2T5N_3std2fs9hard_linkRNtNtB4_4path4PathRNtBC_7PathBufECsdARyWrlPtHl_2cc, symObjAddr: 0x4AC, symBinAddr: 0x100051020, symSize: 0x90 }
  - { offset: 0x93DBF, size: 0x8, addend: 0x0, symName: __RNcNtNtCscOYdFFY2T5N_3std2fs8Metadata0CsdARyWrlPtHl_2cc, symObjAddr: 0x7C1C, symBinAddr: 0x100057E5C, symSize: 0x30 }
  - { offset: 0x93DEE, size: 0x8, addend: 0x0, symName: __RNvXs7_NtCscOYdFFY2T5N_3std2fsNtB5_4FileNtNtB7_2io5Write5flushCsdARyWrlPtHl_2cc, symObjAddr: 0x94C4, symBinAddr: 0x1000594D4, symSize: 0x14 }
  - { offset: 0x9451C, size: 0x8, addend: 0x0, symName: __RNvXs0_NtNtNtCscOYdFFY2T5N_3std2os4unix2fsNtNtBb_2fs11OpenOptionsNtB5_14OpenOptionsExt4modeCsdARyWrlPtHl_2cc, symObjAddr: 0x8BBC, symBinAddr: 0x100058C98, symSize: 0x1C }
  - { offset: 0x955CE, size: 0x8, addend: 0x0, symName: __RINvNtCscOYdFFY2T5N_3std3env11split_pathsINtNtCse1nGBsou5OW_5alloc4sync3ArcNtNtNtB4_3ffi6os_str5OsStrEECsdARyWrlPtHl_2cc, symObjAddr: 0x53C, symBinAddr: 0x1000510B0, symSize: 0x94 }
  - { offset: 0x95677, size: 0x8, addend: 0x0, symName: __RINvNtCscOYdFFY2T5N_3std3env11split_pathsNtNtNtB4_3ffi6os_str5OsStrECsdARyWrlPtHl_2cc, symObjAddr: 0x5D0, symBinAddr: 0x100051144, symSize: 0x98 }
  - { offset: 0x95720, size: 0x8, addend: 0x0, symName: __RINvNtCscOYdFFY2T5N_3std3env11split_pathsNtNtNtB4_3ffi6os_str8OsStringECsdARyWrlPtHl_2cc, symObjAddr: 0x668, symBinAddr: 0x1000511DC, symSize: 0x94 }
  - { offset: 0x957C9, size: 0x8, addend: 0x0, symName: __RINvNtCscOYdFFY2T5N_3std3env3varReECsdARyWrlPtHl_2cc, symObjAddr: 0x6FC, symBinAddr: 0x100051270, symSize: 0x68 }
  - { offset: 0x978AA, size: 0x8, addend: 0x0, symName: __RINvNtCsfvfooZQ3Axs_4core3ptr13drop_in_placeANtNtCse1nGBsou5OW_5alloc6string6Stringj4_ECsdARyWrlPtHl_2cc, symObjAddr: 0x764, symBinAddr: 0x1000512D8, symSize: 0xB4 }
  - { offset: 0x978D9, size: 0x8, addend: 0x0, symName: __RINvNtCsfvfooZQ3Axs_4core3ptr13drop_in_placeINtNtB4_4cell10UnsafeCellINtNtB4_6option6OptionINtNtB4_6result6ResultNtCs4Wq06SSluyi_9jobserver8AcquiredNtNtNtCscOYdFFY2T5N_3std2io5error5ErrorEEEECsdARyWrlPtHl_2cc, symObjAddr: 0x860, symBinAddr: 0x10005138C, symSize: 0x24 }
  - { offset: 0x97908, size: 0x8, addend: 0x0, symName: __RINvNtCsfvfooZQ3Axs_4core3ptr13drop_in_placeINtNtB4_4cell10UnsafeCellINtNtB4_6option6OptionNtNtNtNtCscOYdFFY2T5N_3std4sync4mpmc7context7ContextEEECsdARyWrlPtHl_2cc, symObjAddr: 0x884, symBinAddr: 0x1000513B0, symSize: 0x24 }
  - { offset: 0x97937, size: 0x8, addend: 0x0, symName: __RINvNtCsfvfooZQ3Axs_4core3ptr13drop_in_placeINtNtB4_4cell10UnsafeCellINtNtCse1nGBsou5OW_5alloc3vec3VecTNtNtCscOYdFFY2T5N_3std7process7CommandNtNvMs4_CsdARyWrlPtHl_2ccNtB2n_5Build15compile_objects10KillOnDropNtNtNtB2n_8parallel9job_token8JobTokenEEEEB2n_, symObjAddr: 0x8A8, symBinAddr: 0x1000513D4, symSize: 0x24 }
  - { offset: 0x97966, size: 0x8, addend: 0x0, symName: __RINvNtCsfvfooZQ3Axs_4core3ptr13drop_in_placeINtNtB4_4cell10UnsafeCellINtNtNtNtCscOYdFFY2T5N_3std11collections4hash3map7HashMapINtNtCse1nGBsou5OW_5alloc5boxed3BoxSIB21_NtNtNtB1e_3ffi6os_str5OsStrEENtNtCsdARyWrlPtHl_2cc4tool10ToolFamilyEEEB3c_, symObjAddr: 0x8CC, symBinAddr: 0x1000513F8, symSize: 0x24 }
  - { offset: 0x97995, size: 0x8, addend: 0x0, symName: __RINvNtCsfvfooZQ3Axs_4core3ptr13drop_in_placeINtNtB4_4cell10UnsafeCellINtNtNtNtCscOYdFFY2T5N_3std11collections4hash3map7HashMapINtNtCse1nGBsou5OW_5alloc5boxed3BoxeEINtNtB25_4sync3ArcNtNtNtB1e_3ffi6os_str5OsStrEEEECsdARyWrlPtHl_2cc, symObjAddr: 0x8F0, symBinAddr: 0x10005141C, symSize: 0x24 }
  - { offset: 0x979C4, size: 0x8, addend: 0x0, symName: __RINvNtCsfvfooZQ3Axs_4core3ptr13drop_in_placeINtNtB4_4cell10UnsafeCellINtNtNtNtCscOYdFFY2T5N_3std11collections4hash3map7HashMapINtNtCse1nGBsou5OW_5alloc5boxed3BoxeEINtNtB25_4sync3ArceEEEECsdARyWrlPtHl_2cc, symObjAddr: 0x914, symBinAddr: 0x100051440, symSize: 0x24 }
  - { offset: 0x979F3, size: 0x8, addend: 0x0, symName: __RINvNtCsfvfooZQ3Axs_4core3ptr13drop_in_placeINtNtB4_4cell10UnsafeCellINtNtNtNtCscOYdFFY2T5N_3std11collections4hash3map7HashMapINtNtCse1nGBsou5OW_5alloc5boxed3BoxeEINtNtB4_6option6OptionINtNtB25_4sync3ArcNtNtNtB1e_3ffi6os_str5OsStrEEEEECsdARyWrlPtHl_2cc, symObjAddr: 0x938, symBinAddr: 0x100051464, symSize: 0x24 }
  - { offset: 0x97A22, size: 0x8, addend: 0x0, symName: __RINvNtCsfvfooZQ3Axs_4core3ptr13drop_in_placeINtNtB4_4cell10UnsafeCellINtNtNtNtCscOYdFFY2T5N_3std11collections4hash3map7HashMapNtCsdARyWrlPtHl_2cc12CompilerFlagbEEEB22_, symObjAddr: 0x95C, symBinAddr: 0x100051488, symSize: 0x24 }
  - { offset: 0x97A51, size: 0x8, addend: 0x0, symName: __RINvNtCsfvfooZQ3Axs_4core3ptr13drop_in_placeINtNtB4_4cell10UnsafeCellNtNtNtNtCscOYdFFY2T5N_3std4sync4mpmc4zero5InnerEECsdARyWrlPtHl_2cc, symObjAddr: 0x980, symBinAddr: 0x1000514AC, symSize: 0x24 }
  - { offset: 0x97A80, size: 0x8, addend: 0x0, symName: __RINvNtCsfvfooZQ3Axs_4core3ptr13drop_in_placeINtNtB4_4cell10UnsafeCellNtNtNtNtCscOYdFFY2T5N_3std4sync4mpmc5waker5WakerEECsdARyWrlPtHl_2cc, symObjAddr: 0x9A4, symBinAddr: 0x1000514D0, symSize: 0x24 }
  - { offset: 0x97AAF, size: 0x8, addend: 0x0, symName: __RINvNtCsfvfooZQ3Axs_4core3ptr13drop_in_placeINtNtB4_4cell4CellINtNtB4_6option6OptionNtNtNtNtCscOYdFFY2T5N_3std4sync4mpmc7context7ContextEEECsdARyWrlPtHl_2cc, symObjAddr: 0x9C8, symBinAddr: 0x1000514F4, symSize: 0x24 }
  - { offset: 0x97ADE, size: 0x8, addend: 0x0, symName: __RINvNtCsfvfooZQ3Axs_4core3ptr13drop_in_placeINtNtB4_4cell4CellINtNtCse1nGBsou5OW_5alloc3vec3VecTNtNtCscOYdFFY2T5N_3std7process7CommandNtNvMs4_CsdARyWrlPtHl_2ccNtB2g_5Build15compile_objects10KillOnDropNtNtNtB2g_8parallel9job_token8JobTokenEEEEB2g_, symObjAddr: 0x9EC, symBinAddr: 0x100051518, symSize: 0x24 }
  - { offset: 0x97B0D, size: 0x8, addend: 0x0, symName: __RINvNtCsfvfooZQ3Axs_4core3ptr13drop_in_placeINtNtB4_4cell6RefMutINtNtNtNtCscOYdFFY2T5N_3std2io8buffered10linewriter10LineWriterNtNtB17_5stdio9StdoutRawEEECsdARyWrlPtHl_2cc, symObjAddr: 0xA10, symBinAddr: 0x10005153C, symSize: 0x24 }
  - { offset: 0x97B3C, size: 0x8, addend: 0x0, symName: __RINvNtCsfvfooZQ3Axs_4core3ptr13drop_in_placeINtNtB4_6option6OptionIBH_INtNtCse1nGBsou5OW_5alloc4sync3ArcNtNtNtCscOYdFFY2T5N_3std3ffi6os_str5OsStrEEEECsdARyWrlPtHl_2cc, symObjAddr: 0xA34, symBinAddr: 0x100051560, symSize: 0x40 }
  - { offset: 0x97B6B, size: 0x8, addend: 0x0, symName: __RINvNtCsfvfooZQ3Axs_4core3ptr13drop_in_placeINtNtB4_6option6OptionIBH_INtNtCse1nGBsou5OW_5alloc4sync3ArceEEEECsdARyWrlPtHl_2cc, symObjAddr: 0xA74, symBinAddr: 0x1000515A0, symSize: 0x40 }
  - { offset: 0x97B9A, size: 0x8, addend: 0x0, symName: __RINvNtCsfvfooZQ3Axs_4core3ptr13drop_in_placeINtNtB4_6option6OptionINtNtB4_6result6ResultNtCs4Wq06SSluyi_9jobserver8AcquiredNtNtNtCscOYdFFY2T5N_3std2io5error5ErrorEEECsdARyWrlPtHl_2cc, symObjAddr: 0xAB4, symBinAddr: 0x1000515E0, symSize: 0x44 }
  - { offset: 0x97BC9, size: 0x8, addend: 0x0, symName: __RINvNtCsfvfooZQ3Axs_4core3ptr13drop_in_placeINtNtB4_6option6OptionINtNtCse1nGBsou5OW_5alloc3vec3VecNtNtB17_6string6StringEEECsdARyWrlPtHl_2cc, symObjAddr: 0xAF8, symBinAddr: 0x100051624, symSize: 0x48 }
  - { offset: 0x97BF8, size: 0x8, addend: 0x0, symName: __RINvNtCsfvfooZQ3Axs_4core3ptr13drop_in_placeINtNtB4_6option6OptionINtNtCse1nGBsou5OW_5alloc4sync3ArcNtNtCscOYdFFY2T5N_3std4path4PathEEECsdARyWrlPtHl_2cc, symObjAddr: 0xB40, symBinAddr: 0x10005166C, symSize: 0x44 }
  - { offset: 0x97C27, size: 0x8, addend: 0x0, symName: __RINvNtCsfvfooZQ3Axs_4core3ptr13drop_in_placeINtNtB4_6option6OptionINtNtCse1nGBsou5OW_5alloc4sync3ArcNtNtNtCscOYdFFY2T5N_3std3ffi6os_str5OsStrEEECsdARyWrlPtHl_2cc, symObjAddr: 0xB84, symBinAddr: 0x1000516B0, symSize: 0x44 }
  - { offset: 0x97C56, size: 0x8, addend: 0x0, symName: __RINvNtCsfvfooZQ3Axs_4core3ptr13drop_in_placeINtNtB4_6option6OptionINtNtCse1nGBsou5OW_5alloc4sync3ArceEEECsdARyWrlPtHl_2cc, symObjAddr: 0xBC8, symBinAddr: 0x1000516F4, symSize: 0x44 }
  - { offset: 0x97C85, size: 0x8, addend: 0x0, symName: __RINvNtCsfvfooZQ3Axs_4core3ptr13drop_in_placeINtNtB4_6option6OptionINtNtCse1nGBsou5OW_5alloc5boxed3BoxINtNtNtNtCscOYdFFY2T5N_3std4sync4mpmc4list5BlockINtNtB4_6result6ResultNtCs4Wq06SSluyi_9jobserver8AcquiredNtNtNtB1K_2io5error5ErrorEEEEECsdARyWrlPtHl_2cc, symObjAddr: 0xC0C, symBinAddr: 0x100051738, symSize: 0x44 }
  - { offset: 0x97CB4, size: 0x8, addend: 0x0, symName: __RINvNtCsfvfooZQ3Axs_4core3ptr13drop_in_placeINtNtB4_6option6OptionINtNtCse1nGBsou5OW_5alloc5boxed3BoxSmEEECsdARyWrlPtHl_2cc, symObjAddr: 0xC50, symBinAddr: 0x10005177C, symSize: 0x44 }
  - { offset: 0x97CE3, size: 0x8, addend: 0x0, symName: __RINvNtCsfvfooZQ3Axs_4core3ptr13drop_in_placeINtNtB4_6option6OptionINtNtCse1nGBsou5OW_5alloc6borrow3CowNtNtCscOYdFFY2T5N_3std4path4PathEEECsdARyWrlPtHl_2cc, symObjAddr: 0xC94, symBinAddr: 0x1000517C0, symSize: 0x48 }
  - { offset: 0x97D12, size: 0x8, addend: 0x0, symName: __RINvNtCsfvfooZQ3Axs_4core3ptr13drop_in_placeINtNtB4_6option6OptionINtNtCse1nGBsou5OW_5alloc6borrow3CoweEEECsdARyWrlPtHl_2cc, symObjAddr: 0xCDC, symBinAddr: 0x100051808, symSize: 0x48 }
  - { offset: 0x97D41, size: 0x8, addend: 0x0, symName: __RINvNtCsfvfooZQ3Axs_4core3ptr13drop_in_placeINtNtB4_6option6OptionNCNvMs1_NtNtNtCscOYdFFY2T5N_3std4sync4mpmc4zeroINtB1a_7ChannelINtNtB4_6result6ResultNtCs4Wq06SSluyi_9jobserver8AcquiredNtNtNtB1g_2io5error5ErrorEE4send0EECsdARyWrlPtHl_2cc, symObjAddr: 0xD24, symBinAddr: 0x100051850, symSize: 0x44 }
  - { offset: 0x97D70, size: 0x8, addend: 0x0, symName: __RINvNtCsfvfooZQ3Axs_4core3ptr13drop_in_placeINtNtB4_6option6OptionNtCsdARyWrlPtHl_2cc5ErrorEEB14_, symObjAddr: 0xD68, symBinAddr: 0x100051894, symSize: 0x48 }
  - { offset: 0x97D9F, size: 0x8, addend: 0x0, symName: __RINvNtCsfvfooZQ3Axs_4core3ptr13drop_in_placeINtNtB4_6option6OptionNtNtCs4Wq06SSluyi_9jobserver3imp6HelperEECsdARyWrlPtHl_2cc, symObjAddr: 0xDB0, symBinAddr: 0x1000518DC, symSize: 0x44 }
  - { offset: 0x97DCE, size: 0x8, addend: 0x0, symName: __RINvNtCsfvfooZQ3Axs_4core3ptr13drop_in_placeINtNtB4_6option6OptionNtNtCscOYdFFY2T5N_3std2fs4FileEECsdARyWrlPtHl_2cc, symObjAddr: 0xDF4, symBinAddr: 0x100051920, symSize: 0x44 }
  - { offset: 0x97DFD, size: 0x8, addend: 0x0, symName: __RINvNtCsfvfooZQ3Axs_4core3ptr13drop_in_placeINtNtB4_6option6OptionNtNtCscOYdFFY2T5N_3std4path7PathBufEECsdARyWrlPtHl_2cc, symObjAddr: 0xE38, symBinAddr: 0x100051964, symSize: 0x48 }
  - { offset: 0x97E2C, size: 0x8, addend: 0x0, symName: __RINvNtCsfvfooZQ3Axs_4core3ptr13drop_in_placeINtNtB4_6option6OptionNtNtCscOYdFFY2T5N_3std7process10ChildStdinEECsdARyWrlPtHl_2cc, symObjAddr: 0xE80, symBinAddr: 0x1000519AC, symSize: 0x44 }
  - { offset: 0x97E5B, size: 0x8, addend: 0x0, symName: __RINvNtCsfvfooZQ3Axs_4core3ptr13drop_in_placeINtNtB4_6option6OptionNtNtCscOYdFFY2T5N_3std7process11ChildStderrEECsdARyWrlPtHl_2cc, symObjAddr: 0xEC4, symBinAddr: 0x1000519F0, symSize: 0x44 }
  - { offset: 0x97E8A, size: 0x8, addend: 0x0, symName: __RINvNtCsfvfooZQ3Axs_4core3ptr13drop_in_placeINtNtB4_6option6OptionNtNtCscOYdFFY2T5N_3std7process11ChildStdoutEECsdARyWrlPtHl_2cc, symObjAddr: 0xF08, symBinAddr: 0x100051A34, symSize: 0x44 }
  - { offset: 0x97EB9, size: 0x8, addend: 0x0, symName: __RINvNtCsfvfooZQ3Axs_4core3ptr13drop_in_placeINtNtB4_6option6OptionNtNtCscOYdFFY2T5N_3std7process7CommandEECsdARyWrlPtHl_2cc, symObjAddr: 0xF4C, symBinAddr: 0x100051A78, symSize: 0x48 }
  - { offset: 0x97EE8, size: 0x8, addend: 0x0, symName: __RINvNtCsfvfooZQ3Axs_4core3ptr13drop_in_placeINtNtB4_6option6OptionNtNtCsdARyWrlPtHl_2cc4tool4ToolEEB16_, symObjAddr: 0xF94, symBinAddr: 0x100051AC0, symSize: 0x48 }
  - { offset: 0x97F17, size: 0x8, addend: 0x0, symName: __RINvNtCsfvfooZQ3Axs_4core3ptr13drop_in_placeINtNtB4_6option6OptionNtNtNtCscOYdFFY2T5N_3std3ffi6os_str8OsStringEECsdARyWrlPtHl_2cc, symObjAddr: 0xFDC, symBinAddr: 0x100051B08, symSize: 0x48 }
  - { offset: 0x97F46, size: 0x8, addend: 0x0, symName: __RINvNtCsfvfooZQ3Axs_4core3ptr13drop_in_placeINtNtB4_6option6OptionNtNtNtCsdARyWrlPtHl_2cc7windows10find_tools3EnvEEB18_, symObjAddr: 0x1024, symBinAddr: 0x100051B50, symSize: 0x48 }
  - { offset: 0x97F75, size: 0x8, addend: 0x0, symName: __RINvNtCsfvfooZQ3Axs_4core3ptr13drop_in_placeINtNtB4_6option6OptionNtNtNtCse1nGBsou5OW_5alloc3ffi5c_str7CStringEECsdARyWrlPtHl_2cc, symObjAddr: 0x106C, symBinAddr: 0x100051B98, symSize: 0x44 }
  - { offset: 0x97FA4, size: 0x8, addend: 0x0, symName: __RINvNtCsfvfooZQ3Axs_4core3ptr13drop_in_placeINtNtB4_6option6OptionNtNtNtNtCscOYdFFY2T5N_3std4sync4mpmc5waker5EntryEECsdARyWrlPtHl_2cc, symObjAddr: 0x10B0, symBinAddr: 0x100051BDC, symSize: 0x44 }
  - { offset: 0x97FD3, size: 0x8, addend: 0x0, symName: __RINvNtCsfvfooZQ3Axs_4core3ptr13drop_in_placeINtNtB4_6option6OptionNtNtNtNtCscOYdFFY2T5N_3std4sync4mpmc7context7ContextEECsdARyWrlPtHl_2cc, symObjAddr: 0x10F4, symBinAddr: 0x100051C20, symSize: 0x44 }
  - { offset: 0x98002, size: 0x8, addend: 0x0, symName: __RINvNtCsfvfooZQ3Axs_4core3ptr13drop_in_placeINtNtB4_6option6OptionNtNtNtNtCsdARyWrlPtHl_2cc8parallel9job_token19inherited_jobserver12HelperThreadEEB1a_, symObjAddr: 0x1138, symBinAddr: 0x100051C64, symSize: 0x44 }
  - { offset: 0x98031, size: 0x8, addend: 0x0, symName: __RINvNtCsfvfooZQ3Axs_4core3ptr13drop_in_placeINtNtB4_6option6OptionNtNtNtNtNtNtCscOYdFFY2T5N_3std3sys3pal4unix7process14process_common5StdioEECsdARyWrlPtHl_2cc, symObjAddr: 0x117C, symBinAddr: 0x100051CA8, symSize: 0x44 }
  - { offset: 0x98060, size: 0x8, addend: 0x0, symName: __RINvNtCsfvfooZQ3Axs_4core3ptr13drop_in_placeINtNtB4_6option6OptionTNtNtCscOYdFFY2T5N_3std7process11ChildStderrINtNtCse1nGBsou5OW_5alloc3vec3VechEEEECsdARyWrlPtHl_2cc, symObjAddr: 0x11C0, symBinAddr: 0x100051CEC, symSize: 0x48 }
  - { offset: 0x9808F, size: 0x8, addend: 0x0, symName: __RINvNtCsfvfooZQ3Axs_4core3ptr13drop_in_placeINtNtB4_6result6ResultINtNtCse1nGBsou5OW_5alloc3vec3VechENtCsdARyWrlPtHl_2cc5ErrorEEB1D_, symObjAddr: 0x1208, symBinAddr: 0x100051D34, symSize: 0x58 }
  - { offset: 0x980BE, size: 0x8, addend: 0x0, symName: __RINvNtCsfvfooZQ3Axs_4core3ptr13drop_in_placeINtNtB4_6result6ResultINtNtCse1nGBsou5OW_5alloc4sync3ArcNtNtNtCscOYdFFY2T5N_3std3ffi6os_str5OsStrENtCsdARyWrlPtHl_2cc5ErrorEEB2i_, symObjAddr: 0x1260, symBinAddr: 0x100051D8C, symSize: 0x58 }
  - { offset: 0x980ED, size: 0x8, addend: 0x0, symName: __RINvNtCsfvfooZQ3Axs_4core3ptr13drop_in_placeINtNtB4_6result6ResultINtNtCse1nGBsou5OW_5alloc6borrow3CowNtNtCscOYdFFY2T5N_3std4path4PathENtCsdARyWrlPtHl_2cc5ErrorEEB2b_, symObjAddr: 0x12B8, symBinAddr: 0x100051DE4, symSize: 0x58 }
  - { offset: 0x9811C, size: 0x8, addend: 0x0, symName: __RINvNtCsfvfooZQ3Axs_4core3ptr13drop_in_placeINtNtB4_6result6ResultINtNtNtB4_3num7nonzero7NonZerojENtNtNtCscOYdFFY2T5N_3std2io5error5ErrorEECsdARyWrlPtHl_2cc, symObjAddr: 0x1310, symBinAddr: 0x100051E3C, symSize: 0x40 }
  - { offset: 0x9814B, size: 0x8, addend: 0x0, symName: __RINvNtCsfvfooZQ3Axs_4core3ptr13drop_in_placeINtNtB4_6result6ResultNtCs4Wq06SSluyi_9jobserver8AcquiredNtNtNtCscOYdFFY2T5N_3std2io5error5ErrorEECsdARyWrlPtHl_2cc, symObjAddr: 0x1350, symBinAddr: 0x100051E7C, symSize: 0x54 }
  - { offset: 0x9817A, size: 0x8, addend: 0x0, symName: __RINvNtCsfvfooZQ3Axs_4core3ptr13drop_in_placeINtNtB4_6result6ResultNtNtCscOYdFFY2T5N_3std2fs8MetadataNtNtNtB16_2io5error5ErrorEECsdARyWrlPtHl_2cc, symObjAddr: 0x13A4, symBinAddr: 0x100051ED0, symSize: 0x40 }
  - { offset: 0x981A9, size: 0x8, addend: 0x0, symName: __RINvNtCsfvfooZQ3Axs_4core3ptr13drop_in_placeINtNtB4_6result6ResultNtNtCscOYdFFY2T5N_3std7process10ExitStatusNtNtNtB16_2io5error5ErrorEECsdARyWrlPtHl_2cc, symObjAddr: 0x13E4, symBinAddr: 0x100051F10, symSize: 0x40 }
  - { offset: 0x981D8, size: 0x8, addend: 0x0, symName: __RINvNtCsfvfooZQ3Axs_4core3ptr13drop_in_placeINtNtB4_6result6ResultNtNtCscOYdFFY2T5N_3std7process6OutputNtNtNtB16_2io5error5ErrorEECsdARyWrlPtHl_2cc, symObjAddr: 0x1424, symBinAddr: 0x100051F50, symSize: 0x5C }
  - { offset: 0x98207, size: 0x8, addend: 0x0, symName: __RINvNtCsfvfooZQ3Axs_4core3ptr13drop_in_placeINtNtB4_6result6ResultNtNtCsdARyWrlPtHl_2cc4tool4ToolNtB16_5ErrorEEB16_, symObjAddr: 0x1480, symBinAddr: 0x100051FAC, symSize: 0x5C }
  - { offset: 0x98236, size: 0x8, addend: 0x0, symName: __RINvNtCsfvfooZQ3Axs_4core3ptr13drop_in_placeINtNtB4_6result6ResultNtNtCsdARyWrlPtHl_2cc6target10TargetInfoNtB16_5ErrorEEB16_, symObjAddr: 0x14DC, symBinAddr: 0x100052008, symSize: 0x4C }
  - { offset: 0x98265, size: 0x8, addend: 0x0, symName: __RINvNtCsfvfooZQ3Axs_4core3ptr13drop_in_placeINtNtB4_6result6ResultNtNtCse1nGBsou5OW_5alloc6string6StringNtB14_13FromUtf8ErrorEECsdARyWrlPtHl_2cc, symObjAddr: 0x1528, symBinAddr: 0x100052054, symSize: 0x58 }
  - { offset: 0x98294, size: 0x8, addend: 0x0, symName: __RINvNtCsfvfooZQ3Axs_4core3ptr13drop_in_placeINtNtB4_6result6ResultNtNtCse1nGBsou5OW_5alloc6string6StringNtCsdARyWrlPtHl_2cc5ErrorEEB1G_, symObjAddr: 0x1580, symBinAddr: 0x1000520AC, symSize: 0x58 }
  - { offset: 0x982C3, size: 0x8, addend: 0x0, symName: __RINvNtCsfvfooZQ3Axs_4core3ptr13drop_in_placeINtNtB4_6result6ResultNtNtCse1nGBsou5OW_5alloc6string6StringNtNtCscOYdFFY2T5N_3std3env8VarErrorEECsdARyWrlPtHl_2cc, symObjAddr: 0x15D8, symBinAddr: 0x100052104, symSize: 0x50 }
  - { offset: 0x982F2, size: 0x8, addend: 0x0, symName: __RINvNtCsfvfooZQ3Axs_4core3ptr13drop_in_placeINtNtB4_6result6ResultNtNtNtCsdARyWrlPtHl_2cc6target6parser21TargetInfoParserInnerNtB18_5ErrorEEB18_, symObjAddr: 0x1628, symBinAddr: 0x100052154, symSize: 0x58 }
  - { offset: 0x98321, size: 0x8, addend: 0x0, symName: __RINvNtCsfvfooZQ3Axs_4core3ptr13drop_in_placeINtNtB4_6result6ResultbNtCsdARyWrlPtHl_2cc5ErrorEEB15_, symObjAddr: 0x1680, symBinAddr: 0x1000521AC, symSize: 0x48 }
  - { offset: 0x98350, size: 0x8, addend: 0x0, symName: __RINvNtCsfvfooZQ3Axs_4core3ptr13drop_in_placeINtNtB4_6result6ResultjNtCsdARyWrlPtHl_2cc5ErrorEEB15_, symObjAddr: 0x16C8, symBinAddr: 0x1000521F4, symSize: 0x48 }
  - { offset: 0x9837F, size: 0x8, addend: 0x0, symName: __RINvNtCsfvfooZQ3Axs_4core3ptr13drop_in_placeINtNtB4_6result6ResultuIBH_NtCs4Wq06SSluyi_9jobserver8AcquiredNtNtNtCscOYdFFY2T5N_3std2io5error5ErrorEEECsdARyWrlPtHl_2cc, symObjAddr: 0x1710, symBinAddr: 0x10005223C, symSize: 0x44 }
  - { offset: 0x983AE, size: 0x8, addend: 0x0, symName: __RINvNtCsfvfooZQ3Axs_4core3ptr13drop_in_placeINtNtB4_6result6ResultuINtNtNtCscOYdFFY2T5N_3std4sync4mpsc9SendErrorIBH_NtCs4Wq06SSluyi_9jobserver8AcquiredNtNtNtB1a_2io5error5ErrorEEEECsdARyWrlPtHl_2cc, symObjAddr: 0x1754, symBinAddr: 0x100052280, symSize: 0x44 }
  - { offset: 0x983DD, size: 0x8, addend: 0x0, symName: __RINvNtCsfvfooZQ3Axs_4core3ptr13drop_in_placeINtNtB4_6result6ResultuINtNtNtNtCscOYdFFY2T5N_3std4sync4mpmc5error16SendTimeoutErrorIBH_NtCs4Wq06SSluyi_9jobserver8AcquiredNtNtNtB1c_2io5error5ErrorEEEECsdARyWrlPtHl_2cc, symObjAddr: 0x1798, symBinAddr: 0x1000522C4, symSize: 0x44 }
  - { offset: 0x9840C, size: 0x8, addend: 0x0, symName: __RINvNtCsfvfooZQ3Axs_4core3ptr13drop_in_placeINtNtB4_6result6ResultuNtCsdARyWrlPtHl_2cc5ErrorEEB15_, symObjAddr: 0x17DC, symBinAddr: 0x100052308, symSize: 0x48 }
  - { offset: 0x9843B, size: 0x8, addend: 0x0, symName: __RINvNtCsfvfooZQ3Axs_4core3ptr13drop_in_placeINtNtCsdARyWrlPtHl_2cc9utilities8OnceLockINtNtB4_6result6ResultNtNtNtBL_6target6parser21TargetInfoParserInnerNtBL_5ErrorEEEBL_, symObjAddr: 0x1824, symBinAddr: 0x100052350, symSize: 0x24 }
  - { offset: 0x9846A, size: 0x8, addend: 0x0, symName: __RINvNtCsfvfooZQ3Axs_4core3ptr13drop_in_placeINtNtCse1nGBsou5OW_5alloc3vec3VecINtNtBL_4sync3ArcNtNtCscOYdFFY2T5N_3std4path4PathEEECsdARyWrlPtHl_2cc, symObjAddr: 0x186C, symBinAddr: 0x100052374, symSize: 0x5C }
  - { offset: 0x98499, size: 0x8, addend: 0x0, symName: __RINvNtCsfvfooZQ3Axs_4core3ptr13drop_in_placeINtNtCse1nGBsou5OW_5alloc3vec3VecINtNtBL_4sync3ArcNtNtNtCscOYdFFY2T5N_3std3ffi6os_str5OsStrEEECsdARyWrlPtHl_2cc, symObjAddr: 0x18C8, symBinAddr: 0x1000523D0, symSize: 0x5C }
  - { offset: 0x984C8, size: 0x8, addend: 0x0, symName: __RINvNtCsfvfooZQ3Axs_4core3ptr13drop_in_placeINtNtCse1nGBsou5OW_5alloc3vec3VecINtNtBL_5boxed3BoxDINtNtNtB4_3ops8function5FnMutuEp6OutputINtNtB4_6result6ResultuNtNtNtCscOYdFFY2T5N_3std2io5error5ErrorENtNtB4_6marker4SendNtB3c_4SyncEL_EEECsdARyWrlPtHl_2cc, symObjAddr: 0x1924, symBinAddr: 0x10005242C, symSize: 0x5C }
  - { offset: 0x984F7, size: 0x8, addend: 0x0, symName: __RINvNtCsfvfooZQ3Axs_4core3ptr13drop_in_placeINtNtCse1nGBsou5OW_5alloc3vec3VecINtNtBL_5boxed3BoxNtNtNtCscOYdFFY2T5N_3std3ffi6os_str5OsStrEEECsdARyWrlPtHl_2cc, symObjAddr: 0x1980, symBinAddr: 0x100052488, symSize: 0x5C }
  - { offset: 0x98526, size: 0x8, addend: 0x0, symName: __RINvNtCsfvfooZQ3Axs_4core3ptr13drop_in_placeINtNtCse1nGBsou5OW_5alloc3vec3VecNtCsdARyWrlPtHl_2cc6ObjectEEB1f_, symObjAddr: 0x19DC, symBinAddr: 0x1000524E4, symSize: 0x5C }
  - { offset: 0x98555, size: 0x8, addend: 0x0, symName: __RINvNtCsfvfooZQ3Axs_4core3ptr13drop_in_placeINtNtCse1nGBsou5OW_5alloc3vec3VecNtNtNtBL_3ffi5c_str7CStringEECsdARyWrlPtHl_2cc, symObjAddr: 0x1A38, symBinAddr: 0x100052540, symSize: 0x5C }
  - { offset: 0x98584, size: 0x8, addend: 0x0, symName: __RINvNtCsfvfooZQ3Axs_4core3ptr13drop_in_placeINtNtCse1nGBsou5OW_5alloc3vec3VecNtNtNtCscOYdFFY2T5N_3std3ffi6os_str8OsStringEECsdARyWrlPtHl_2cc, symObjAddr: 0x1A94, symBinAddr: 0x10005259C, symSize: 0x5C }
  - { offset: 0x985B3, size: 0x8, addend: 0x0, symName: __RINvNtCsfvfooZQ3Axs_4core3ptr13drop_in_placeINtNtCse1nGBsou5OW_5alloc3vec3VecNtNtNtNtCscOYdFFY2T5N_3std4sync4mpmc5waker5EntryEECsdARyWrlPtHl_2cc, symObjAddr: 0x1AF0, symBinAddr: 0x1000525F8, symSize: 0x5C }
  - { offset: 0x985E2, size: 0x8, addend: 0x0, symName: __RINvNtCsfvfooZQ3Axs_4core3ptr13drop_in_placeINtNtCse1nGBsou5OW_5alloc3vec3VecPaEECsdARyWrlPtHl_2cc, symObjAddr: 0x1B4C, symBinAddr: 0x100052654, symSize: 0x5C }
  - { offset: 0x98611, size: 0x8, addend: 0x0, symName: __RINvNtCsfvfooZQ3Axs_4core3ptr13drop_in_placeINtNtCse1nGBsou5OW_5alloc3vec3VecRNtNtCscOYdFFY2T5N_3std4path4PathEECsdARyWrlPtHl_2cc, symObjAddr: 0x1BA8, symBinAddr: 0x1000526B0, symSize: 0x5C }
  - { offset: 0x98640, size: 0x8, addend: 0x0, symName: __RINvNtCsfvfooZQ3Axs_4core3ptr13drop_in_placeINtNtCse1nGBsou5OW_5alloc3vec3VecRNtNtNtCscOYdFFY2T5N_3std3ffi6os_str8OsStringEECsdARyWrlPtHl_2cc, symObjAddr: 0x1C04, symBinAddr: 0x10005270C, symSize: 0x5C }
  - { offset: 0x9866F, size: 0x8, addend: 0x0, symName: __RINvNtCsfvfooZQ3Axs_4core3ptr13drop_in_placeINtNtCse1nGBsou5OW_5alloc3vec3VecReEECsdARyWrlPtHl_2cc, symObjAddr: 0x1C60, symBinAddr: 0x100052768, symSize: 0x5C }
  - { offset: 0x9869E, size: 0x8, addend: 0x0, symName: __RINvNtCsfvfooZQ3Axs_4core3ptr13drop_in_placeINtNtCse1nGBsou5OW_5alloc3vec3VecTINtNtBL_4sync3ArcNtNtNtCscOYdFFY2T5N_3std3ffi6os_str5OsStrEB1e_EEECsdARyWrlPtHl_2cc, symObjAddr: 0x1CBC, symBinAddr: 0x1000527C4, symSize: 0x5C }
  - { offset: 0x986CD, size: 0x8, addend: 0x0, symName: __RINvNtCsfvfooZQ3Axs_4core3ptr13drop_in_placeINtNtCse1nGBsou5OW_5alloc3vec3VecTINtNtBL_4sync3ArceEINtNtB4_6option6OptionB1e_EEEECsdARyWrlPtHl_2cc, symObjAddr: 0x1D18, symBinAddr: 0x100052820, symSize: 0x5C }
  - { offset: 0x986FC, size: 0x8, addend: 0x0, symName: __RINvNtCsfvfooZQ3Axs_4core3ptr13drop_in_placeINtNtCse1nGBsou5OW_5alloc3vec3VecTNtNtCscOYdFFY2T5N_3std7process7CommandNtNvMs4_CsdARyWrlPtHl_2ccNtB1Y_5Build15compile_objects10KillOnDropNtNtNtB1Y_8parallel9job_token8JobTokenEEEB1Y_, symObjAddr: 0x1D74, symBinAddr: 0x10005287C, symSize: 0x5C }
  - { offset: 0x9872B, size: 0x8, addend: 0x0, symName: __RINvNtCsfvfooZQ3Axs_4core3ptr13drop_in_placeINtNtCse1nGBsou5OW_5alloc3vec3VecTNtNtNtCscOYdFFY2T5N_3std3ffi6os_str8OsStringB1e_EEECsdARyWrlPtHl_2cc, symObjAddr: 0x1DD0, symBinAddr: 0x1000528D8, symSize: 0x5C }
  - { offset: 0x9875A, size: 0x8, addend: 0x0, symName: __RINvNtCsfvfooZQ3Axs_4core3ptr13drop_in_placeINtNtCse1nGBsou5OW_5alloc4sync3ArcNtCsdARyWrlPtHl_2cc10BuildCacheEEB1g_, symObjAddr: 0x1E2C, symBinAddr: 0x100052934, symSize: 0x24 }
  - { offset: 0x98789, size: 0x8, addend: 0x0, symName: __RINvNtCsfvfooZQ3Axs_4core3ptr13drop_in_placeINtNtCse1nGBsou5OW_5alloc4sync3ArcNtNtCscOYdFFY2T5N_3std4path4PathEECsdARyWrlPtHl_2cc, symObjAddr: 0x1E50, symBinAddr: 0x100052958, symSize: 0x24 }
  - { offset: 0x987B8, size: 0x8, addend: 0x0, symName: __RINvNtCsfvfooZQ3Axs_4core3ptr13drop_in_placeINtNtCse1nGBsou5OW_5alloc4sync3ArcNtNtNtB4_4sync6atomic10AtomicBoolEECsdARyWrlPtHl_2cc, symObjAddr: 0x1E74, symBinAddr: 0x10005297C, symSize: 0x24 }
  - { offset: 0x987E7, size: 0x8, addend: 0x0, symName: __RINvNtCsfvfooZQ3Axs_4core3ptr13drop_in_placeINtNtCse1nGBsou5OW_5alloc4sync3ArcNtNtNtCscOYdFFY2T5N_3std3ffi6os_str5OsStrEECsdARyWrlPtHl_2cc, symObjAddr: 0x1E98, symBinAddr: 0x1000529A0, symSize: 0x24 }
  - { offset: 0x98816, size: 0x8, addend: 0x0, symName: __RINvNtCsfvfooZQ3Axs_4core3ptr13drop_in_placeINtNtCse1nGBsou5OW_5alloc4sync3ArcNtNtNtNtCscOYdFFY2T5N_3std4sync4mpmc7context5InnerEECsdARyWrlPtHl_2cc, symObjAddr: 0x1EBC, symBinAddr: 0x1000529C4, symSize: 0x24 }
  - { offset: 0x98845, size: 0x8, addend: 0x0, symName: __RINvNtCsfvfooZQ3Axs_4core3ptr13drop_in_placeINtNtCse1nGBsou5OW_5alloc4sync3ArceEECsdARyWrlPtHl_2cc, symObjAddr: 0x1EE0, symBinAddr: 0x1000529E8, symSize: 0x24 }
  - { offset: 0x98874, size: 0x8, addend: 0x0, symName: __RINvNtCsfvfooZQ3Axs_4core3ptr13drop_in_placeINtNtCse1nGBsou5OW_5alloc4sync4WeakNtCsdARyWrlPtHl_2cc10BuildCacheRNtNtBL_5alloc6GlobalEEB1h_, symObjAddr: 0x1F04, symBinAddr: 0x100052A0C, symSize: 0x24 }
  - { offset: 0x988A3, size: 0x8, addend: 0x0, symName: __RINvNtCsfvfooZQ3Axs_4core3ptr13drop_in_placeINtNtCse1nGBsou5OW_5alloc4sync4WeakNtNtCscOYdFFY2T5N_3std4path4PathRNtNtBL_5alloc6GlobalEECsdARyWrlPtHl_2cc, symObjAddr: 0x1F28, symBinAddr: 0x100052A30, symSize: 0x24 }
  - { offset: 0x988D2, size: 0x8, addend: 0x0, symName: __RINvNtCsfvfooZQ3Axs_4core3ptr13drop_in_placeINtNtCse1nGBsou5OW_5alloc4sync4WeakNtNtNtB4_4sync6atomic10AtomicBoolRNtNtBL_5alloc6GlobalEECsdARyWrlPtHl_2cc, symObjAddr: 0x1F4C, symBinAddr: 0x100052A54, symSize: 0x24 }
  - { offset: 0x98901, size: 0x8, addend: 0x0, symName: __RINvNtCsfvfooZQ3Axs_4core3ptr13drop_in_placeINtNtCse1nGBsou5OW_5alloc4sync4WeakNtNtNtCscOYdFFY2T5N_3std3ffi6os_str5OsStrRNtNtBL_5alloc6GlobalEECsdARyWrlPtHl_2cc, symObjAddr: 0x1F70, symBinAddr: 0x100052A78, symSize: 0x24 }
  - { offset: 0x98930, size: 0x8, addend: 0x0, symName: __RINvNtCsfvfooZQ3Axs_4core3ptr13drop_in_placeINtNtCse1nGBsou5OW_5alloc4sync4WeakeRNtNtBL_5alloc6GlobalEECsdARyWrlPtHl_2cc, symObjAddr: 0x1F94, symBinAddr: 0x100052A9C, symSize: 0x24 }
  - { offset: 0x9895F, size: 0x8, addend: 0x0, symName: __RINvNtCsfvfooZQ3Axs_4core3ptr13drop_in_placeINtNtCse1nGBsou5OW_5alloc4sync8ArcInnerNtCs4Wq06SSluyi_9jobserver11HelperStateEECsdARyWrlPtHl_2cc, symObjAddr: 0x1FB8, symBinAddr: 0x100052AC0, symSize: 0x24 }
  - { offset: 0x9898E, size: 0x8, addend: 0x0, symName: __RINvNtCsfvfooZQ3Axs_4core3ptr13drop_in_placeINtNtCse1nGBsou5OW_5alloc5boxed3BoxDINtNtNtB4_3ops8function5FnMutuEp6OutputINtNtB4_6result6ResultuNtNtNtCscOYdFFY2T5N_3std2io5error5ErrorENtNtB4_6marker4SendNtB2W_4SyncEL_EECsdARyWrlPtHl_2cc, symObjAddr: 0x1FDC, symBinAddr: 0x100052AE4, symSize: 0x80 }
  - { offset: 0x989BD, size: 0x8, addend: 0x0, symName: __RINvNtCsfvfooZQ3Axs_4core3ptr13drop_in_placeINtNtCse1nGBsou5OW_5alloc5boxed3BoxINtNtNtB4_3mem12maybe_uninit11MaybeUninitINtNtBL_4sync8ArcInnerNtCsdARyWrlPtHl_2cc10BuildCacheEEEEB2i_, symObjAddr: 0x205C, symBinAddr: 0x100052B64, symSize: 0x2C }
  - { offset: 0x989EC, size: 0x8, addend: 0x0, symName: __RINvNtCsfvfooZQ3Axs_4core3ptr13drop_in_placeINtNtCse1nGBsou5OW_5alloc5boxed3BoxINtNtNtNtCscOYdFFY2T5N_3std4sync4mpmc4list5BlockINtNtB4_6result6ResultNtCs4Wq06SSluyi_9jobserver8AcquiredNtNtNtB1o_2io5error5ErrorEEEECsdARyWrlPtHl_2cc, symObjAddr: 0x2088, symBinAddr: 0x100052B90, symSize: 0x2C }
  - { offset: 0x98A1B, size: 0x8, addend: 0x0, symName: __RINvNtCsfvfooZQ3Axs_4core3ptr13drop_in_placeINtNtCse1nGBsou5OW_5alloc5boxed3BoxINtNtNtNtCscOYdFFY2T5N_3std4sync4mpmc4zero6PacketINtNtB4_6result6ResultNtCs4Wq06SSluyi_9jobserver8AcquiredNtNtNtB1o_2io5error5ErrorEEEECsdARyWrlPtHl_2cc, symObjAddr: 0x20B4, symBinAddr: 0x100052BBC, symSize: 0x60 }
  - { offset: 0x98A4A, size: 0x8, addend: 0x0, symName: __RINvNtCsfvfooZQ3Axs_4core3ptr13drop_in_placeINtNtCse1nGBsou5OW_5alloc5boxed3BoxINtNtNtNtCscOYdFFY2T5N_3std4sync4mpmc7counter7CounterINtNtB1k_4list7ChannelINtNtB4_6result6ResultNtCs4Wq06SSluyi_9jobserver8AcquiredNtNtNtB1o_2io5error5ErrorEEEEECsdARyWrlPtHl_2cc, symObjAddr: 0x2114, symBinAddr: 0x100052C1C, symSize: 0x60 }
  - { offset: 0x98A79, size: 0x8, addend: 0x0, symName: __RINvNtCsfvfooZQ3Axs_4core3ptr13drop_in_placeINtNtCse1nGBsou5OW_5alloc5boxed3BoxINtNtNtNtCscOYdFFY2T5N_3std4sync4mpmc7counter7CounterINtNtB1k_4zero7ChannelINtNtB4_6result6ResultNtCs4Wq06SSluyi_9jobserver8AcquiredNtNtNtB1o_2io5error5ErrorEEEEECsdARyWrlPtHl_2cc, symObjAddr: 0x2174, symBinAddr: 0x100052C7C, symSize: 0x60 }
  - { offset: 0x98AA8, size: 0x8, addend: 0x0, symName: __RINvNtCsfvfooZQ3Axs_4core3ptr13drop_in_placeINtNtCse1nGBsou5OW_5alloc5boxed3BoxINtNtNtNtCscOYdFFY2T5N_3std4sync4mpmc7counter7CounterINtNtB1k_5array7ChannelINtNtB4_6result6ResultNtCs4Wq06SSluyi_9jobserver8AcquiredNtNtNtB1o_2io5error5ErrorEEEEECsdARyWrlPtHl_2cc, symObjAddr: 0x21D4, symBinAddr: 0x100052CDC, symSize: 0x60 }
  - { offset: 0x98AD7, size: 0x8, addend: 0x0, symName: __RINvNtCsfvfooZQ3Axs_4core3ptr13drop_in_placeINtNtCse1nGBsou5OW_5alloc5boxed3BoxNtNtNtCscOYdFFY2T5N_3std3ffi6os_str5OsStrEECsdARyWrlPtHl_2cc, symObjAddr: 0x2234, symBinAddr: 0x100052D3C, symSize: 0x2C }
  - { offset: 0x98B06, size: 0x8, addend: 0x0, symName: __RINvNtCsfvfooZQ3Axs_4core3ptr13drop_in_placeINtNtCse1nGBsou5OW_5alloc5boxed3BoxSIBH_NtNtNtCscOYdFFY2T5N_3std3ffi6os_str5OsStrEEECsdARyWrlPtHl_2cc, symObjAddr: 0x2260, symBinAddr: 0x100052D68, symSize: 0x68 }
  - { offset: 0x98B35, size: 0x8, addend: 0x0, symName: __RINvNtCsfvfooZQ3Axs_4core3ptr13drop_in_placeINtNtCse1nGBsou5OW_5alloc5boxed3BoxSINtNtNtNtCscOYdFFY2T5N_3std4sync4mpmc5array4SlotINtNtB4_6result6ResultNtCs4Wq06SSluyi_9jobserver8AcquiredNtNtNtB1p_2io5error5ErrorEEEECsdARyWrlPtHl_2cc, symObjAddr: 0x22C8, symBinAddr: 0x100052DD0, symSize: 0x2C }
  - { offset: 0x98B64, size: 0x8, addend: 0x0, symName: __RINvNtCsfvfooZQ3Axs_4core3ptr13drop_in_placeINtNtCse1nGBsou5OW_5alloc5boxed3BoxShEECsdARyWrlPtHl_2cc, symObjAddr: 0x22F4, symBinAddr: 0x100052DFC, symSize: 0x2C }
  - { offset: 0x98B93, size: 0x8, addend: 0x0, symName: __RINvNtCsfvfooZQ3Axs_4core3ptr13drop_in_placeINtNtCse1nGBsou5OW_5alloc5boxed3BoxSmEECsdARyWrlPtHl_2cc, symObjAddr: 0x2320, symBinAddr: 0x100052E28, symSize: 0x2C }
  - { offset: 0x98BC2, size: 0x8, addend: 0x0, symName: __RINvNtCsfvfooZQ3Axs_4core3ptr13drop_in_placeINtNtCse1nGBsou5OW_5alloc5boxed3BoxeEECsdARyWrlPtHl_2cc, symObjAddr: 0x234C, symBinAddr: 0x100052E54, symSize: 0x2C }
  - { offset: 0x98BF1, size: 0x8, addend: 0x0, symName: __RINvNtCsfvfooZQ3Axs_4core3ptr13drop_in_placeINtNtCse1nGBsou5OW_5alloc6borrow3CowNtNtCscOYdFFY2T5N_3std4path4PathEECsdARyWrlPtHl_2cc, symObjAddr: 0x2378, symBinAddr: 0x100052E80, symSize: 0x48 }
  - { offset: 0x98C20, size: 0x8, addend: 0x0, symName: __RINvNtCsfvfooZQ3Axs_4core3ptr13drop_in_placeINtNtCse1nGBsou5OW_5alloc6borrow3CoweEECsdARyWrlPtHl_2cc, symObjAddr: 0x23C0, symBinAddr: 0x100052EC8, symSize: 0x48 }
  - { offset: 0x98C4F, size: 0x8, addend: 0x0, symName: __RINvNtCsfvfooZQ3Axs_4core3ptr13drop_in_placeINtNtCse1nGBsou5OW_5alloc7raw_vec6RawVecINtNtBL_4sync3ArcNtNtCscOYdFFY2T5N_3std4path4PathEEECsdARyWrlPtHl_2cc, symObjAddr: 0x2408, symBinAddr: 0x100052F10, symSize: 0x24 }
  - { offset: 0x98C7E, size: 0x8, addend: 0x0, symName: __RINvNtCsfvfooZQ3Axs_4core3ptr13drop_in_placeINtNtCse1nGBsou5OW_5alloc7raw_vec6RawVecINtNtBL_4sync3ArcNtNtNtCscOYdFFY2T5N_3std3ffi6os_str5OsStrEEECsdARyWrlPtHl_2cc, symObjAddr: 0x242C, symBinAddr: 0x100052F34, symSize: 0x24 }
  - { offset: 0x98CAD, size: 0x8, addend: 0x0, symName: __RINvNtCsfvfooZQ3Axs_4core3ptr13drop_in_placeINtNtCse1nGBsou5OW_5alloc7raw_vec6RawVecINtNtBL_5boxed3BoxDINtNtNtB4_3ops8function5FnMutuEp6OutputINtNtB4_6result6ResultuNtNtNtCscOYdFFY2T5N_3std2io5error5ErrorENtNtB4_6marker4SendNtB3j_4SyncEL_EEECsdARyWrlPtHl_2cc, symObjAddr: 0x2450, symBinAddr: 0x100052F58, symSize: 0x24 }
  - { offset: 0x98CDC, size: 0x8, addend: 0x0, symName: __RINvNtCsfvfooZQ3Axs_4core3ptr13drop_in_placeINtNtCse1nGBsou5OW_5alloc7raw_vec6RawVecINtNtBL_5boxed3BoxNtNtNtCscOYdFFY2T5N_3std3ffi6os_str5OsStrEEECsdARyWrlPtHl_2cc, symObjAddr: 0x2474, symBinAddr: 0x100052F7C, symSize: 0x24 }
  - { offset: 0x98D0B, size: 0x8, addend: 0x0, symName: __RINvNtCsfvfooZQ3Axs_4core3ptr13drop_in_placeINtNtCse1nGBsou5OW_5alloc7raw_vec6RawVecNtCsdARyWrlPtHl_2cc6ObjectEEB1m_, symObjAddr: 0x2498, symBinAddr: 0x100052FA0, symSize: 0x24 }
  - { offset: 0x98D3A, size: 0x8, addend: 0x0, symName: __RINvNtCsfvfooZQ3Axs_4core3ptr13drop_in_placeINtNtCse1nGBsou5OW_5alloc7raw_vec6RawVecNtNtNtBL_3ffi5c_str7CStringEECsdARyWrlPtHl_2cc, symObjAddr: 0x24BC, symBinAddr: 0x100052FC4, symSize: 0x24 }
  - { offset: 0x98D69, size: 0x8, addend: 0x0, symName: __RINvNtCsfvfooZQ3Axs_4core3ptr13drop_in_placeINtNtCse1nGBsou5OW_5alloc7raw_vec6RawVecNtNtNtCscOYdFFY2T5N_3std3ffi6os_str8OsStringEECsdARyWrlPtHl_2cc, symObjAddr: 0x24E0, symBinAddr: 0x100052FE8, symSize: 0x24 }
  - { offset: 0x98D98, size: 0x8, addend: 0x0, symName: __RINvNtCsfvfooZQ3Axs_4core3ptr13drop_in_placeINtNtCse1nGBsou5OW_5alloc7raw_vec6RawVecNtNtNtNtCscOYdFFY2T5N_3std4sync4mpmc5waker5EntryEECsdARyWrlPtHl_2cc, symObjAddr: 0x2504, symBinAddr: 0x10005300C, symSize: 0x24 }
  - { offset: 0x98DC7, size: 0x8, addend: 0x0, symName: __RINvNtCsfvfooZQ3Axs_4core3ptr13drop_in_placeINtNtCse1nGBsou5OW_5alloc7raw_vec6RawVecPaEECsdARyWrlPtHl_2cc, symObjAddr: 0x2528, symBinAddr: 0x100053030, symSize: 0x24 }
  - { offset: 0x98DF6, size: 0x8, addend: 0x0, symName: __RINvNtCsfvfooZQ3Axs_4core3ptr13drop_in_placeINtNtCse1nGBsou5OW_5alloc7raw_vec6RawVecRNtNtCscOYdFFY2T5N_3std4path4PathEECsdARyWrlPtHl_2cc, symObjAddr: 0x254C, symBinAddr: 0x100053054, symSize: 0x24 }
  - { offset: 0x98E25, size: 0x8, addend: 0x0, symName: __RINvNtCsfvfooZQ3Axs_4core3ptr13drop_in_placeINtNtCse1nGBsou5OW_5alloc7raw_vec6RawVecRNtNtNtCscOYdFFY2T5N_3std3ffi6os_str8OsStringEECsdARyWrlPtHl_2cc, symObjAddr: 0x2570, symBinAddr: 0x100053078, symSize: 0x24 }
  - { offset: 0x98E54, size: 0x8, addend: 0x0, symName: __RINvNtCsfvfooZQ3Axs_4core3ptr13drop_in_placeINtNtCse1nGBsou5OW_5alloc7raw_vec6RawVecReEECsdARyWrlPtHl_2cc, symObjAddr: 0x2594, symBinAddr: 0x10005309C, symSize: 0x24 }
  - { offset: 0x98E83, size: 0x8, addend: 0x0, symName: __RINvNtCsfvfooZQ3Axs_4core3ptr13drop_in_placeINtNtCse1nGBsou5OW_5alloc7raw_vec6RawVecTINtNtBL_4sync3ArcNtNtNtCscOYdFFY2T5N_3std3ffi6os_str5OsStrEB1l_EEECsdARyWrlPtHl_2cc, symObjAddr: 0x25B8, symBinAddr: 0x1000530C0, symSize: 0x24 }
  - { offset: 0x98EB2, size: 0x8, addend: 0x0, symName: __RINvNtCsfvfooZQ3Axs_4core3ptr13drop_in_placeINtNtCse1nGBsou5OW_5alloc7raw_vec6RawVecTINtNtBL_4sync3ArceEINtNtB4_6option6OptionB1l_EEEECsdARyWrlPtHl_2cc, symObjAddr: 0x25DC, symBinAddr: 0x1000530E4, symSize: 0x24 }
  - { offset: 0x98EE1, size: 0x8, addend: 0x0, symName: __RINvNtCsfvfooZQ3Axs_4core3ptr13drop_in_placeINtNtCse1nGBsou5OW_5alloc7raw_vec6RawVecTNtNtCscOYdFFY2T5N_3std7process7CommandNtNvMs4_CsdARyWrlPtHl_2ccNtB25_5Build15compile_objects10KillOnDropNtNtNtB25_8parallel9job_token8JobTokenEEEB25_, symObjAddr: 0x2600, symBinAddr: 0x100053108, symSize: 0x24 }
  - { offset: 0x98F10, size: 0x8, addend: 0x0, symName: __RINvNtCsfvfooZQ3Axs_4core3ptr13drop_in_placeINtNtCse1nGBsou5OW_5alloc7raw_vec6RawVecTNtNtNtCscOYdFFY2T5N_3std3ffi6os_str8OsStringB1l_EEECsdARyWrlPtHl_2cc, symObjAddr: 0x2624, symBinAddr: 0x10005312C, symSize: 0x24 }
  - { offset: 0x98F3F, size: 0x8, addend: 0x0, symName: __RINvNtCsfvfooZQ3Axs_4core3ptr13drop_in_placeINtNtCsloNvcHxBCre_9hashbrown10scopeguard10ScopeGuardNtNtBL_3raw13RawTableInnerNCINvMsa_B1z_B1x_14prepare_resizeNtNtCse1nGBsou5OW_5alloc5alloc6GlobalE0EECsdARyWrlPtHl_2cc, symObjAddr: 0x2648, symBinAddr: 0x100053150, symSize: 0x24 }
  - { offset: 0x98F6E, size: 0x8, addend: 0x0, symName: __RINvNtCsfvfooZQ3Axs_4core3ptr13drop_in_placeINtNtCsloNvcHxBCre_9hashbrown10scopeguard10ScopeGuardQNtNtBL_3raw13RawTableInnerNCNvMsa_B1A_B1y_15rehash_in_place0EECsdARyWrlPtHl_2cc, symObjAddr: 0x266C, symBinAddr: 0x100053174, symSize: 0x24 }
  - { offset: 0x98F9D, size: 0x8, addend: 0x0, symName: __RINvNtCsfvfooZQ3Axs_4core3ptr13drop_in_placeINtNtCsloNvcHxBCre_9hashbrown3map7HashMapINtNtCse1nGBsou5OW_5alloc5boxed3BoxSIB1m_NtNtNtCscOYdFFY2T5N_3std3ffi6os_str5OsStrEENtNtCsdARyWrlPtHl_2cc4tool10ToolFamilyNtNtNtB26_4hash6random11RandomStateEEB2L_, symObjAddr: 0x2690, symBinAddr: 0x100053198, symSize: 0x24 }
  - { offset: 0x98FCC, size: 0x8, addend: 0x0, symName: __RINvNtCsfvfooZQ3Axs_4core3ptr13drop_in_placeINtNtCsloNvcHxBCre_9hashbrown3map7HashMapINtNtCse1nGBsou5OW_5alloc5boxed3BoxeEINtNtB1q_4sync3ArcNtNtNtCscOYdFFY2T5N_3std3ffi6os_str5OsStrENtNtNtB2k_4hash6random11RandomStateEECsdARyWrlPtHl_2cc, symObjAddr: 0x26B4, symBinAddr: 0x1000531BC, symSize: 0x24 }
  - { offset: 0x98FFB, size: 0x8, addend: 0x0, symName: __RINvNtCsfvfooZQ3Axs_4core3ptr13drop_in_placeINtNtCsloNvcHxBCre_9hashbrown3map7HashMapINtNtCse1nGBsou5OW_5alloc5boxed3BoxeEINtNtB1q_4sync3ArceENtNtNtCscOYdFFY2T5N_3std4hash6random11RandomStateEECsdARyWrlPtHl_2cc, symObjAddr: 0x26D8, symBinAddr: 0x1000531E0, symSize: 0x24 }
  - { offset: 0x9902A, size: 0x8, addend: 0x0, symName: __RINvNtCsfvfooZQ3Axs_4core3ptr13drop_in_placeINtNtCsloNvcHxBCre_9hashbrown3map7HashMapINtNtCse1nGBsou5OW_5alloc5boxed3BoxeEINtNtB4_6option6OptionINtNtB1q_4sync3ArcNtNtNtCscOYdFFY2T5N_3std3ffi6os_str5OsStrEENtNtNtB2G_4hash6random11RandomStateEECsdARyWrlPtHl_2cc, symObjAddr: 0x26FC, symBinAddr: 0x100053204, symSize: 0x24 }
  - { offset: 0x99059, size: 0x8, addend: 0x0, symName: __RINvNtCsfvfooZQ3Axs_4core3ptr13drop_in_placeINtNtCsloNvcHxBCre_9hashbrown3map7HashMapNtCsdARyWrlPtHl_2cc12CompilerFlagbNtNtNtCscOYdFFY2T5N_3std4hash6random11RandomStateEEB1n_, symObjAddr: 0x2720, symBinAddr: 0x100053228, symSize: 0x24 }
  - { offset: 0x99088, size: 0x8, addend: 0x0, symName: __RINvNtCsfvfooZQ3Axs_4core3ptr13drop_in_placeINtNtCsloNvcHxBCre_9hashbrown3raw8RawTableTINtNtCse1nGBsou5OW_5alloc5boxed3BoxSIB1o_NtNtNtCscOYdFFY2T5N_3std3ffi6os_str5OsStrEENtNtCsdARyWrlPtHl_2cc4tool10ToolFamilyEEEB2N_, symObjAddr: 0x2744, symBinAddr: 0x10005324C, symSize: 0x24 }
  - { offset: 0x990B7, size: 0x8, addend: 0x0, symName: __RINvNtCsfvfooZQ3Axs_4core3ptr13drop_in_placeINtNtCsloNvcHxBCre_9hashbrown3raw8RawTableTINtNtCse1nGBsou5OW_5alloc5boxed3BoxeEINtNtB1s_4sync3ArcNtNtNtCscOYdFFY2T5N_3std3ffi6os_str5OsStrEEEECsdARyWrlPtHl_2cc, symObjAddr: 0x2768, symBinAddr: 0x100053270, symSize: 0x24 }
  - { offset: 0x990E6, size: 0x8, addend: 0x0, symName: __RINvNtCsfvfooZQ3Axs_4core3ptr13drop_in_placeINtNtCsloNvcHxBCre_9hashbrown3raw8RawTableTINtNtCse1nGBsou5OW_5alloc5boxed3BoxeEINtNtB1s_4sync3ArceEEEECsdARyWrlPtHl_2cc, symObjAddr: 0x278C, symBinAddr: 0x100053294, symSize: 0x24 }
  - { offset: 0x99115, size: 0x8, addend: 0x0, symName: __RINvNtCsfvfooZQ3Axs_4core3ptr13drop_in_placeINtNtCsloNvcHxBCre_9hashbrown3raw8RawTableTINtNtCse1nGBsou5OW_5alloc5boxed3BoxeEINtNtB4_6option6OptionINtNtB1s_4sync3ArcNtNtNtCscOYdFFY2T5N_3std3ffi6os_str5OsStrEEEEECsdARyWrlPtHl_2cc, symObjAddr: 0x27B0, symBinAddr: 0x1000532B8, symSize: 0x24 }
  - { offset: 0x99144, size: 0x8, addend: 0x0, symName: __RINvNtCsfvfooZQ3Axs_4core3ptr13drop_in_placeINtNtCsloNvcHxBCre_9hashbrown3raw8RawTableTNtCsdARyWrlPtHl_2cc12CompilerFlagbEEEB1p_, symObjAddr: 0x27D4, symBinAddr: 0x1000532DC, symSize: 0x24 }
  - { offset: 0x99173, size: 0x8, addend: 0x0, symName: __RINvNtCsfvfooZQ3Axs_4core3ptr13drop_in_placeINtNtNtB4_3ops12control_flow11ControlFlowNtNtCscOYdFFY2T5N_3std4path7PathBufEECsdARyWrlPtHl_2cc, symObjAddr: 0x27F8, symBinAddr: 0x100053300, symSize: 0x48 }
  - { offset: 0x991A2, size: 0x8, addend: 0x0, symName: __RINvNtCsfvfooZQ3Axs_4core3ptr13drop_in_placeINtNtNtB4_5array4iter8IntoIterNtNtNtCscOYdFFY2T5N_3std3ffi6os_str8OsStringKj6_EECsdARyWrlPtHl_2cc, symObjAddr: 0x2840, symBinAddr: 0x100053348, symSize: 0x24 }
  - { offset: 0x991D1, size: 0x8, addend: 0x0, symName: __RINvNtCsfvfooZQ3Axs_4core3ptr13drop_in_placeINtNtNtB4_5array4iter8IntoIterReKj2_EECsdARyWrlPtHl_2cc, symObjAddr: 0x2864, symBinAddr: 0x10005336C, symSize: 0x24 }
  - { offset: 0x99200, size: 0x8, addend: 0x0, symName: __RINvNtCsfvfooZQ3Axs_4core3ptr13drop_in_placeINtNtNtB4_5array4iter8IntoIterbKj20_EECsdARyWrlPtHl_2cc, symObjAddr: 0x2888, symBinAddr: 0x100053390, symSize: 0x24 }
  - { offset: 0x9922F, size: 0x8, addend: 0x0, symName: __RINvNtCsfvfooZQ3Axs_4core3ptr13drop_in_placeINtNtNtCscOYdFFY2T5N_3std4sync14reentrant_lock18ReentrantLockGuardINtNtB4_4cell7RefCellINtNtNtNtBN_2io8buffered10linewriter10LineWriterNtNtB2c_5stdio9StdoutRawEEEECsdARyWrlPtHl_2cc, symObjAddr: 0x28AC, symBinAddr: 0x1000533B4, symSize: 0x24 }
  - { offset: 0x9925E, size: 0x8, addend: 0x0, symName: __RINvNtCsfvfooZQ3Axs_4core3ptr13drop_in_placeINtNtNtCscOYdFFY2T5N_3std4sync4mpmc6SenderINtNtB4_6result6ResultNtCs4Wq06SSluyi_9jobserver8AcquiredNtNtNtBN_2io5error5ErrorEEECsdARyWrlPtHl_2cc, symObjAddr: 0x28D0, symBinAddr: 0x1000533D8, symSize: 0x24 }
  - { offset: 0x9928D, size: 0x8, addend: 0x0, symName: __RINvNtCsfvfooZQ3Axs_4core3ptr13drop_in_placeINtNtNtCscOYdFFY2T5N_3std4sync4mpmc8ReceiverINtNtB4_6result6ResultNtCs4Wq06SSluyi_9jobserver8AcquiredNtNtNtBN_2io5error5ErrorEEECsdARyWrlPtHl_2cc, symObjAddr: 0x28F4, symBinAddr: 0x1000533FC, symSize: 0x24 }
  - { offset: 0x992BC, size: 0x8, addend: 0x0, symName: __RINvNtCsfvfooZQ3Axs_4core3ptr13drop_in_placeINtNtNtCscOYdFFY2T5N_3std4sync4mpsc6SenderINtNtB4_6result6ResultNtCs4Wq06SSluyi_9jobserver8AcquiredNtNtNtBN_2io5error5ErrorEEECsdARyWrlPtHl_2cc, symObjAddr: 0x2918, symBinAddr: 0x100053420, symSize: 0x24 }
  - { offset: 0x992EB, size: 0x8, addend: 0x0, symName: __RINvNtCsfvfooZQ3Axs_4core3ptr13drop_in_placeINtNtNtCscOYdFFY2T5N_3std4sync4mpsc8ReceiverINtNtB4_6result6ResultNtCs4Wq06SSluyi_9jobserver8AcquiredNtNtNtBN_2io5error5ErrorEEECsdARyWrlPtHl_2cc, symObjAddr: 0x293C, symBinAddr: 0x100053444, symSize: 0x24 }
  - { offset: 0x9931A, size: 0x8, addend: 0x0, symName: __RINvNtCsfvfooZQ3Axs_4core3ptr13drop_in_placeINtNtNtCscOYdFFY2T5N_3std4sync4mpsc9SendErrorINtNtB4_6result6ResultNtCs4Wq06SSluyi_9jobserver8AcquiredNtNtNtBN_2io5error5ErrorEEECsdARyWrlPtHl_2cc, symObjAddr: 0x2960, symBinAddr: 0x100053468, symSize: 0x24 }
  - { offset: 0x99349, size: 0x8, addend: 0x0, symName: __RINvNtCsfvfooZQ3Axs_4core3ptr13drop_in_placeINtNtNtCscOYdFFY2T5N_3std4sync6poison11PoisonErrorINtNtBJ_5mutex10MutexGuardNtNtNtBL_4mpmc4zero5InnerEEECsdARyWrlPtHl_2cc, symObjAddr: 0x2984, symBinAddr: 0x10005348C, symSize: 0x24 }
  - { offset: 0x99378, size: 0x8, addend: 0x0, symName: __RINvNtCsfvfooZQ3Axs_4core3ptr13drop_in_placeINtNtNtCscOYdFFY2T5N_3std4sync6poison11PoisonErrorINtNtBJ_5mutex10MutexGuardNtNtNtBL_4mpmc5waker5WakerEEECsdARyWrlPtHl_2cc, symObjAddr: 0x29A8, symBinAddr: 0x1000534B0, symSize: 0x24 }
  - { offset: 0x993A7, size: 0x8, addend: 0x0, symName: __RINvNtCsfvfooZQ3Axs_4core3ptr13drop_in_placeINtNtNtCscOYdFFY2T5N_3std4sync6poison11PoisonErrorINtNtBJ_6rwlock15RwLockReadGuardINtNtNtNtBN_11collections4hash3map7HashMapINtNtCse1nGBsou5OW_5alloc5boxed3BoxSIB2H_NtNtNtBN_3ffi6os_str5OsStrEENtNtCsdARyWrlPtHl_2cc4tool10ToolFamilyEEEEB3R_, symObjAddr: 0x29CC, symBinAddr: 0x1000534D4, symSize: 0x24 }
  - { offset: 0x993D6, size: 0x8, addend: 0x0, symName: __RINvNtCsfvfooZQ3Axs_4core3ptr13drop_in_placeINtNtNtCscOYdFFY2T5N_3std4sync6poison11PoisonErrorINtNtBJ_6rwlock15RwLockReadGuardINtNtNtNtBN_11collections4hash3map7HashMapINtNtCse1nGBsou5OW_5alloc5boxed3BoxeEINtNtB2L_4sync3ArcNtNtNtBN_3ffi6os_str5OsStrEEEEECsdARyWrlPtHl_2cc, symObjAddr: 0x29F0, symBinAddr: 0x1000534F8, symSize: 0x24 }
  - { offset: 0x99405, size: 0x8, addend: 0x0, symName: __RINvNtCsfvfooZQ3Axs_4core3ptr13drop_in_placeINtNtNtCscOYdFFY2T5N_3std4sync6poison11PoisonErrorINtNtBJ_6rwlock15RwLockReadGuardINtNtNtNtBN_11collections4hash3map7HashMapINtNtCse1nGBsou5OW_5alloc5boxed3BoxeEINtNtB2L_4sync3ArceEEEEECsdARyWrlPtHl_2cc, symObjAddr: 0x2A14, symBinAddr: 0x10005351C, symSize: 0x24 }
  - { offset: 0x99434, size: 0x8, addend: 0x0, symName: __RINvNtCsfvfooZQ3Axs_4core3ptr13drop_in_placeINtNtNtCscOYdFFY2T5N_3std4sync6poison11PoisonErrorINtNtBJ_6rwlock15RwLockReadGuardINtNtNtNtBN_11collections4hash3map7HashMapINtNtCse1nGBsou5OW_5alloc5boxed3BoxeEINtNtB4_6option6OptionINtNtB2L_4sync3ArcNtNtNtBN_3ffi6os_str5OsStrEEEEEECsdARyWrlPtHl_2cc, symObjAddr: 0x2A38, symBinAddr: 0x100053540, symSize: 0x24 }
  - { offset: 0x99463, size: 0x8, addend: 0x0, symName: __RINvNtCsfvfooZQ3Axs_4core3ptr13drop_in_placeINtNtNtCscOYdFFY2T5N_3std4sync6poison11PoisonErrorINtNtBJ_6rwlock15RwLockReadGuardINtNtNtNtBN_11collections4hash3map7HashMapNtCsdARyWrlPtHl_2cc12CompilerFlagbEEEEB2I_, symObjAddr: 0x2A5C, symBinAddr: 0x100053564, symSize: 0x24 }
  - { offset: 0x99492, size: 0x8, addend: 0x0, symName: __RINvNtCsfvfooZQ3Axs_4core3ptr13drop_in_placeINtNtNtCscOYdFFY2T5N_3std4sync6poison11PoisonErrorINtNtBJ_6rwlock16RwLockWriteGuardINtNtNtNtBN_11collections4hash3map7HashMapINtNtCse1nGBsou5OW_5alloc5boxed3BoxSIB2I_NtNtNtBN_3ffi6os_str5OsStrEENtNtCsdARyWrlPtHl_2cc4tool10ToolFamilyEEEEB3S_, symObjAddr: 0x2A80, symBinAddr: 0x100053588, symSize: 0x24 }
  - { offset: 0x994C1, size: 0x8, addend: 0x0, symName: __RINvNtCsfvfooZQ3Axs_4core3ptr13drop_in_placeINtNtNtCscOYdFFY2T5N_3std4sync6poison11PoisonErrorINtNtBJ_6rwlock16RwLockWriteGuardINtNtNtNtBN_11collections4hash3map7HashMapINtNtCse1nGBsou5OW_5alloc5boxed3BoxeEINtNtB2M_4sync3ArcNtNtNtBN_3ffi6os_str5OsStrEEEEECsdARyWrlPtHl_2cc, symObjAddr: 0x2AA4, symBinAddr: 0x1000535AC, symSize: 0x24 }
  - { offset: 0x994F0, size: 0x8, addend: 0x0, symName: __RINvNtCsfvfooZQ3Axs_4core3ptr13drop_in_placeINtNtNtCscOYdFFY2T5N_3std4sync6poison11PoisonErrorINtNtBJ_6rwlock16RwLockWriteGuardINtNtNtNtBN_11collections4hash3map7HashMapINtNtCse1nGBsou5OW_5alloc5boxed3BoxeEINtNtB2M_4sync3ArceEEEEECsdARyWrlPtHl_2cc, symObjAddr: 0x2AC8, symBinAddr: 0x1000535D0, symSize: 0x24 }
  - { offset: 0x9951F, size: 0x8, addend: 0x0, symName: __RINvNtCsfvfooZQ3Axs_4core3ptr13drop_in_placeINtNtNtCscOYdFFY2T5N_3std4sync6poison11PoisonErrorINtNtBJ_6rwlock16RwLockWriteGuardINtNtNtNtBN_11collections4hash3map7HashMapINtNtCse1nGBsou5OW_5alloc5boxed3BoxeEINtNtB4_6option6OptionINtNtB2M_4sync3ArcNtNtNtBN_3ffi6os_str5OsStrEEEEEECsdARyWrlPtHl_2cc, symObjAddr: 0x2AEC, symBinAddr: 0x1000535F4, symSize: 0x24 }
  - { offset: 0x9954E, size: 0x8, addend: 0x0, symName: __RINvNtCsfvfooZQ3Axs_4core3ptr13drop_in_placeINtNtNtCscOYdFFY2T5N_3std4sync6poison11PoisonErrorINtNtBJ_6rwlock16RwLockWriteGuardINtNtNtNtBN_11collections4hash3map7HashMapNtCsdARyWrlPtHl_2cc12CompilerFlagbEEEEB2J_, symObjAddr: 0x2B10, symBinAddr: 0x100053618, symSize: 0x24 }
  - { offset: 0x9957D, size: 0x8, addend: 0x0, symName: __RINvNtCsfvfooZQ3Axs_4core3ptr13drop_in_placeINtNtNtCse1nGBsou5OW_5alloc3vec5drain5DrainNtNtNtNtCscOYdFFY2T5N_3std4sync4mpmc5waker5EntryEECsdARyWrlPtHl_2cc, symObjAddr: 0x2B7C, symBinAddr: 0x10005363C, symSize: 0x24 }
  - { offset: 0x995AC, size: 0x8, addend: 0x0, symName: __RINvNtCsfvfooZQ3Axs_4core3ptr13drop_in_placeINtNtNtCse1nGBsou5OW_5alloc3vec9into_iter8IntoIterNtNtBN_6string6StringEECsdARyWrlPtHl_2cc, symObjAddr: 0x2BC4, symBinAddr: 0x100053660, symSize: 0x24 }
  - { offset: 0x995DB, size: 0x8, addend: 0x0, symName: __RINvNtCsfvfooZQ3Axs_4core3ptr13drop_in_placeINtNtNtNtCscOYdFFY2T5N_3std11collections4hash3map7HashMapINtNtCse1nGBsou5OW_5alloc5boxed3BoxSIB1C_NtNtNtBP_3ffi6os_str5OsStrEENtNtCsdARyWrlPtHl_2cc4tool10ToolFamilyEEB2M_, symObjAddr: 0x2C30, symBinAddr: 0x100053684, symSize: 0x24 }
  - { offset: 0x9960A, size: 0x8, addend: 0x0, symName: __RINvNtCsfvfooZQ3Axs_4core3ptr13drop_in_placeINtNtNtNtCscOYdFFY2T5N_3std11collections4hash3map7HashMapINtNtCse1nGBsou5OW_5alloc5boxed3BoxeEINtNtB1G_4sync3ArcNtNtNtBP_3ffi6os_str5OsStrEEECsdARyWrlPtHl_2cc, symObjAddr: 0x2C54, symBinAddr: 0x1000536A8, symSize: 0x24 }
  - { offset: 0x99639, size: 0x8, addend: 0x0, symName: __RINvNtCsfvfooZQ3Axs_4core3ptr13drop_in_placeINtNtNtNtCscOYdFFY2T5N_3std11collections4hash3map7HashMapINtNtCse1nGBsou5OW_5alloc5boxed3BoxeEINtNtB1G_4sync3ArceEEECsdARyWrlPtHl_2cc, symObjAddr: 0x2C78, symBinAddr: 0x1000536CC, symSize: 0x24 }
  - { offset: 0x99668, size: 0x8, addend: 0x0, symName: __RINvNtCsfvfooZQ3Axs_4core3ptr13drop_in_placeINtNtNtNtCscOYdFFY2T5N_3std11collections4hash3map7HashMapINtNtCse1nGBsou5OW_5alloc5boxed3BoxeEINtNtB4_6option6OptionINtNtB1G_4sync3ArcNtNtNtBP_3ffi6os_str5OsStrEEEECsdARyWrlPtHl_2cc, symObjAddr: 0x2C9C, symBinAddr: 0x1000536F0, symSize: 0x24 }
  - { offset: 0x99697, size: 0x8, addend: 0x0, symName: __RINvNtCsfvfooZQ3Axs_4core3ptr13drop_in_placeINtNtNtNtCscOYdFFY2T5N_3std11collections4hash3map7HashMapNtCsdARyWrlPtHl_2cc12CompilerFlagbEEB1D_, symObjAddr: 0x2CC0, symBinAddr: 0x100053714, symSize: 0x24 }
  - { offset: 0x996C6, size: 0x8, addend: 0x0, symName: __RINvNtCsfvfooZQ3Axs_4core3ptr13drop_in_placeINtNtNtNtCscOYdFFY2T5N_3std2io8buffered9bufwriter9BufWriterNtNtBN_5stdio6StdoutEECsdARyWrlPtHl_2cc, symObjAddr: 0x2CE4, symBinAddr: 0x100053738, symSize: 0x5C }
  - { offset: 0x996F5, size: 0x8, addend: 0x0, symName: __RINvNtCsfvfooZQ3Axs_4core3ptr13drop_in_placeINtNtNtNtCscOYdFFY2T5N_3std4sync4mpmc4list7ChannelINtNtB4_6result6ResultNtCs4Wq06SSluyi_9jobserver8AcquiredNtNtNtBP_2io5error5ErrorEEECsdARyWrlPtHl_2cc, symObjAddr: 0x2D40, symBinAddr: 0x100053794, symSize: 0x60 }
  - { offset: 0x99724, size: 0x8, addend: 0x0, symName: __RINvNtCsfvfooZQ3Axs_4core3ptr13drop_in_placeINtNtNtNtCscOYdFFY2T5N_3std4sync4mpmc4zero6PacketINtNtB4_6result6ResultNtCs4Wq06SSluyi_9jobserver8AcquiredNtNtNtBP_2io5error5ErrorEEECsdARyWrlPtHl_2cc, symObjAddr: 0x2DA0, symBinAddr: 0x1000537F4, symSize: 0x24 }
  - { offset: 0x99753, size: 0x8, addend: 0x0, symName: __RINvNtCsfvfooZQ3Axs_4core3ptr13drop_in_placeINtNtNtNtCscOYdFFY2T5N_3std4sync4mpmc4zero7ChannelINtNtB4_6result6ResultNtCs4Wq06SSluyi_9jobserver8AcquiredNtNtNtBP_2io5error5ErrorEEECsdARyWrlPtHl_2cc, symObjAddr: 0x2DC4, symBinAddr: 0x100053818, symSize: 0x24 }
  - { offset: 0x99782, size: 0x8, addend: 0x0, symName: __RINvNtCsfvfooZQ3Axs_4core3ptr13drop_in_placeINtNtNtNtCscOYdFFY2T5N_3std4sync4mpmc5array7ChannelINtNtB4_6result6ResultNtCs4Wq06SSluyi_9jobserver8AcquiredNtNtNtBP_2io5error5ErrorEEECsdARyWrlPtHl_2cc, symObjAddr: 0x2DE8, symBinAddr: 0x10005383C, symSize: 0x94 }
  - { offset: 0x997B1, size: 0x8, addend: 0x0, symName: __RINvNtCsfvfooZQ3Axs_4core3ptr13drop_in_placeINtNtNtNtCscOYdFFY2T5N_3std4sync4mpmc5error16SendTimeoutErrorINtNtB4_6result6ResultNtCs4Wq06SSluyi_9jobserver8AcquiredNtNtNtBP_2io5error5ErrorEEECsdARyWrlPtHl_2cc, symObjAddr: 0x2E7C, symBinAddr: 0x1000538D0, symSize: 0x50 }
  - { offset: 0x997E0, size: 0x8, addend: 0x0, symName: __RINvNtCsfvfooZQ3Axs_4core3ptr13drop_in_placeINtNtNtNtCscOYdFFY2T5N_3std4sync4mpmc7counter7CounterINtNtBL_4list7ChannelINtNtB4_6result6ResultNtCs4Wq06SSluyi_9jobserver8AcquiredNtNtNtBP_2io5error5ErrorEEEECsdARyWrlPtHl_2cc, symObjAddr: 0x2ECC, symBinAddr: 0x100053920, symSize: 0x24 }
  - { offset: 0x9980F, size: 0x8, addend: 0x0, symName: __RINvNtCsfvfooZQ3Axs_4core3ptr13drop_in_placeINtNtNtNtCscOYdFFY2T5N_3std4sync4mpmc7counter7CounterINtNtBL_4zero7ChannelINtNtB4_6result6ResultNtCs4Wq06SSluyi_9jobserver8AcquiredNtNtNtBP_2io5error5ErrorEEEECsdARyWrlPtHl_2cc, symObjAddr: 0x2EF0, symBinAddr: 0x100053944, symSize: 0x24 }
  - { offset: 0x9983E, size: 0x8, addend: 0x0, symName: __RINvNtCsfvfooZQ3Axs_4core3ptr13drop_in_placeINtNtNtNtCscOYdFFY2T5N_3std4sync4mpmc7counter7CounterINtNtBL_5array7ChannelINtNtB4_6result6ResultNtCs4Wq06SSluyi_9jobserver8AcquiredNtNtNtBP_2io5error5ErrorEEEECsdARyWrlPtHl_2cc, symObjAddr: 0x2F14, symBinAddr: 0x100053968, symSize: 0x24 }
  - { offset: 0x9986D, size: 0x8, addend: 0x0, symName: __RINvNtCsfvfooZQ3Axs_4core3ptr13drop_in_placeINtNtNtNtCscOYdFFY2T5N_3std4sync6poison5mutex10MutexGuardNtNtNtBN_4mpmc4zero5InnerEECsdARyWrlPtHl_2cc, symObjAddr: 0x2F38, symBinAddr: 0x10005398C, symSize: 0x24 }
  - { offset: 0x9989C, size: 0x8, addend: 0x0, symName: __RINvNtCsfvfooZQ3Axs_4core3ptr13drop_in_placeINtNtNtNtCscOYdFFY2T5N_3std4sync6poison5mutex10MutexGuardNtNtNtBN_4mpmc5waker5WakerEECsdARyWrlPtHl_2cc, symObjAddr: 0x2F5C, symBinAddr: 0x1000539B0, symSize: 0x24 }
  - { offset: 0x998CB, size: 0x8, addend: 0x0, symName: __RINvNtCsfvfooZQ3Axs_4core3ptr13drop_in_placeINtNtNtNtCscOYdFFY2T5N_3std4sync6poison5mutex10MutexGuardbEECsdARyWrlPtHl_2cc, symObjAddr: 0x2F80, symBinAddr: 0x1000539D4, symSize: 0x24 }
  - { offset: 0x998FA, size: 0x8, addend: 0x0, symName: __RINvNtCsfvfooZQ3Axs_4core3ptr13drop_in_placeINtNtNtNtCscOYdFFY2T5N_3std4sync6poison5mutex5MutexNtNtNtBN_4mpmc4zero5InnerEECsdARyWrlPtHl_2cc, symObjAddr: 0x2FA4, symBinAddr: 0x1000539F8, symSize: 0x60 }
  - { offset: 0x99929, size: 0x8, addend: 0x0, symName: __RINvNtCsfvfooZQ3Axs_4core3ptr13drop_in_placeINtNtNtNtCscOYdFFY2T5N_3std4sync6poison5mutex5MutexNtNtNtBN_4mpmc5waker5WakerEECsdARyWrlPtHl_2cc, symObjAddr: 0x3004, symBinAddr: 0x100053A58, symSize: 0x60 }
  - { offset: 0x99958, size: 0x8, addend: 0x0, symName: __RINvNtCsfvfooZQ3Axs_4core3ptr13drop_in_placeINtNtNtNtCscOYdFFY2T5N_3std4sync6poison6rwlock15RwLockReadGuardINtNtNtNtBP_11collections4hash3map7HashMapINtNtCse1nGBsou5OW_5alloc5boxed3BoxSIB2o_NtNtNtBP_3ffi6os_str5OsStrEENtNtCsdARyWrlPtHl_2cc4tool10ToolFamilyEEEB3y_, symObjAddr: 0x3088, symBinAddr: 0x100053AB8, symSize: 0x24 }
  - { offset: 0x99987, size: 0x8, addend: 0x0, symName: __RINvNtCsfvfooZQ3Axs_4core3ptr13drop_in_placeINtNtNtNtCscOYdFFY2T5N_3std4sync6poison6rwlock15RwLockReadGuardINtNtNtNtBP_11collections4hash3map7HashMapINtNtCse1nGBsou5OW_5alloc5boxed3BoxeEINtNtB2s_4sync3ArcNtNtNtBP_3ffi6os_str5OsStrEEEECsdARyWrlPtHl_2cc, symObjAddr: 0x30AC, symBinAddr: 0x100053ADC, symSize: 0x24 }
  - { offset: 0x999B6, size: 0x8, addend: 0x0, symName: __RINvNtCsfvfooZQ3Axs_4core3ptr13drop_in_placeINtNtNtNtCscOYdFFY2T5N_3std4sync6poison6rwlock15RwLockReadGuardINtNtNtNtBP_11collections4hash3map7HashMapINtNtCse1nGBsou5OW_5alloc5boxed3BoxeEINtNtB2s_4sync3ArceEEEECsdARyWrlPtHl_2cc, symObjAddr: 0x30D0, symBinAddr: 0x100053B00, symSize: 0x24 }
  - { offset: 0x999E5, size: 0x8, addend: 0x0, symName: __RINvNtCsfvfooZQ3Axs_4core3ptr13drop_in_placeINtNtNtNtCscOYdFFY2T5N_3std4sync6poison6rwlock15RwLockReadGuardINtNtNtNtBP_11collections4hash3map7HashMapINtNtCse1nGBsou5OW_5alloc5boxed3BoxeEINtNtB4_6option6OptionINtNtB2s_4sync3ArcNtNtNtBP_3ffi6os_str5OsStrEEEEECsdARyWrlPtHl_2cc, symObjAddr: 0x30F4, symBinAddr: 0x100053B24, symSize: 0x24 }
  - { offset: 0x99A14, size: 0x8, addend: 0x0, symName: __RINvNtCsfvfooZQ3Axs_4core3ptr13drop_in_placeINtNtNtNtCscOYdFFY2T5N_3std4sync6poison6rwlock15RwLockReadGuardINtNtNtNtBP_11collections4hash3map7HashMapNtCsdARyWrlPtHl_2cc12CompilerFlagbEEEB2p_, symObjAddr: 0x3118, symBinAddr: 0x100053B48, symSize: 0x24 }
  - { offset: 0x99A43, size: 0x8, addend: 0x0, symName: __RINvNtCsfvfooZQ3Axs_4core3ptr13drop_in_placeINtNtNtNtCscOYdFFY2T5N_3std4sync6poison6rwlock16RwLockWriteGuardINtNtNtNtBP_11collections4hash3map7HashMapINtNtCse1nGBsou5OW_5alloc5boxed3BoxSIB2p_NtNtNtBP_3ffi6os_str5OsStrEENtNtCsdARyWrlPtHl_2cc4tool10ToolFamilyEEEB3z_, symObjAddr: 0x313C, symBinAddr: 0x100053B6C, symSize: 0x24 }
  - { offset: 0x99A72, size: 0x8, addend: 0x0, symName: __RINvNtCsfvfooZQ3Axs_4core3ptr13drop_in_placeINtNtNtNtCscOYdFFY2T5N_3std4sync6poison6rwlock16RwLockWriteGuardINtNtNtNtBP_11collections4hash3map7HashMapINtNtCse1nGBsou5OW_5alloc5boxed3BoxeEINtNtB2t_4sync3ArcNtNtNtBP_3ffi6os_str5OsStrEEEECsdARyWrlPtHl_2cc, symObjAddr: 0x3160, symBinAddr: 0x100053B90, symSize: 0x24 }
  - { offset: 0x99AA1, size: 0x8, addend: 0x0, symName: __RINvNtCsfvfooZQ3Axs_4core3ptr13drop_in_placeINtNtNtNtCscOYdFFY2T5N_3std4sync6poison6rwlock16RwLockWriteGuardINtNtNtNtBP_11collections4hash3map7HashMapINtNtCse1nGBsou5OW_5alloc5boxed3BoxeEINtNtB2t_4sync3ArceEEEECsdARyWrlPtHl_2cc, symObjAddr: 0x3184, symBinAddr: 0x100053BB4, symSize: 0x24 }
  - { offset: 0x99AD0, size: 0x8, addend: 0x0, symName: __RINvNtCsfvfooZQ3Axs_4core3ptr13drop_in_placeINtNtNtNtCscOYdFFY2T5N_3std4sync6poison6rwlock16RwLockWriteGuardINtNtNtNtBP_11collections4hash3map7HashMapINtNtCse1nGBsou5OW_5alloc5boxed3BoxeEINtNtB4_6option6OptionINtNtB2t_4sync3ArcNtNtNtBP_3ffi6os_str5OsStrEEEEECsdARyWrlPtHl_2cc, symObjAddr: 0x31A8, symBinAddr: 0x100053BD8, symSize: 0x24 }
  - { offset: 0x99AFF, size: 0x8, addend: 0x0, symName: __RINvNtCsfvfooZQ3Axs_4core3ptr13drop_in_placeINtNtNtNtCscOYdFFY2T5N_3std4sync6poison6rwlock16RwLockWriteGuardINtNtNtNtBP_11collections4hash3map7HashMapNtCsdARyWrlPtHl_2cc12CompilerFlagbEEEB2q_, symObjAddr: 0x31CC, symBinAddr: 0x100053BFC, symSize: 0x24 }
  - { offset: 0x99B2E, size: 0x8, addend: 0x0, symName: __RINvNtCsfvfooZQ3Axs_4core3ptr13drop_in_placeINtNtNtNtCscOYdFFY2T5N_3std4sync6poison6rwlock6RwLockINtNtNtNtBP_11collections4hash3map7HashMapINtNtCse1nGBsou5OW_5alloc5boxed3BoxSIB2e_NtNtNtBP_3ffi6os_str5OsStrEENtNtCsdARyWrlPtHl_2cc4tool10ToolFamilyEEEB3o_, symObjAddr: 0x31F0, symBinAddr: 0x100053C20, symSize: 0x24 }
  - { offset: 0x99B5D, size: 0x8, addend: 0x0, symName: __RINvNtCsfvfooZQ3Axs_4core3ptr13drop_in_placeINtNtNtNtCscOYdFFY2T5N_3std4sync6poison6rwlock6RwLockINtNtNtNtBP_11collections4hash3map7HashMapINtNtCse1nGBsou5OW_5alloc5boxed3BoxeEINtNtB2i_4sync3ArcNtNtNtBP_3ffi6os_str5OsStrEEEECsdARyWrlPtHl_2cc, symObjAddr: 0x3214, symBinAddr: 0x100053C44, symSize: 0x24 }
  - { offset: 0x99B8C, size: 0x8, addend: 0x0, symName: __RINvNtCsfvfooZQ3Axs_4core3ptr13drop_in_placeINtNtNtNtCscOYdFFY2T5N_3std4sync6poison6rwlock6RwLockINtNtNtNtBP_11collections4hash3map7HashMapINtNtCse1nGBsou5OW_5alloc5boxed3BoxeEINtNtB2i_4sync3ArceEEEECsdARyWrlPtHl_2cc, symObjAddr: 0x3238, symBinAddr: 0x100053C68, symSize: 0x24 }
  - { offset: 0x99BBB, size: 0x8, addend: 0x0, symName: __RINvNtCsfvfooZQ3Axs_4core3ptr13drop_in_placeINtNtNtNtCscOYdFFY2T5N_3std4sync6poison6rwlock6RwLockINtNtNtNtBP_11collections4hash3map7HashMapINtNtCse1nGBsou5OW_5alloc5boxed3BoxeEINtNtB4_6option6OptionINtNtB2i_4sync3ArcNtNtNtBP_3ffi6os_str5OsStrEEEEECsdARyWrlPtHl_2cc, symObjAddr: 0x325C, symBinAddr: 0x100053C8C, symSize: 0x24 }
  - { offset: 0x99BEA, size: 0x8, addend: 0x0, symName: __RINvNtCsfvfooZQ3Axs_4core3ptr13drop_in_placeINtNtNtNtCscOYdFFY2T5N_3std4sync6poison6rwlock6RwLockINtNtNtNtBP_11collections4hash3map7HashMapNtCsdARyWrlPtHl_2cc12CompilerFlagbEEEB2f_, symObjAddr: 0x3280, symBinAddr: 0x100053CB0, symSize: 0x24 }
  - { offset: 0x99C19, size: 0x8, addend: 0x0, symName: __RINvNtCsfvfooZQ3Axs_4core3ptr13drop_in_placeINtNtNtNtCse1nGBsou5OW_5alloc11collections5btree3map8BTreeMapNtNtNtCscOYdFFY2T5N_3std3ffi6os_str8OsStringINtNtB4_6option6OptionB1F_EEECsdARyWrlPtHl_2cc, symObjAddr: 0x32A4, symBinAddr: 0x100053CD4, symSize: 0x24 }
  - { offset: 0x99C48, size: 0x8, addend: 0x0, symName: __RINvNtCsfvfooZQ3Axs_4core3ptr13drop_in_placeINtNtNtNtCse1nGBsou5OW_5alloc11collections5btree3map8IntoIterNtNtNtCscOYdFFY2T5N_3std3ffi6os_str8OsStringINtNtB4_6option6OptionB1F_EEECsdARyWrlPtHl_2cc, symObjAddr: 0x32C8, symBinAddr: 0x100053CF8, symSize: 0x24 }
  - { offset: 0x99C77, size: 0x8, addend: 0x0, symName: __RINvNtCsfvfooZQ3Axs_4core3ptr13drop_in_placeINtNtNtNtNtCscOYdFFY2T5N_3std3sys12thread_local6native4lazy5StateINtNtB4_4cell4CellINtNtB4_6option6OptionNtNtNtNtBR_4sync4mpmc7context7ContextEEuEECsdARyWrlPtHl_2cc, symObjAddr: 0x32EC, symBinAddr: 0x100053D1C, symSize: 0x44 }
  - { offset: 0x99CA6, size: 0x8, addend: 0x0, symName: __RINvNtCsfvfooZQ3Axs_4core3ptr13drop_in_placeINtNvMsT_NtNtNtCse1nGBsou5OW_5alloc11collections5btree4nodeINtBP_6HandleINtBP_7NodeRefNtNtBP_6marker5DyingpppENtB26_2KVE12drop_key_val7DropperINtNtB4_6option6OptionNtNtNtCscOYdFFY2T5N_3std3ffi6os_str8OsStringEEECsdARyWrlPtHl_2cc, symObjAddr: 0x3330, symBinAddr: 0x100053D60, symSize: 0x24 }
  - { offset: 0x99CD5, size: 0x8, addend: 0x0, symName: __RINvNtCsfvfooZQ3Axs_4core3ptr13drop_in_placeINtNvMs_NtCse1nGBsou5OW_5alloc3vecINtBO_3VecppE10retain_mut15BackshiftOnDropTNtNtCscOYdFFY2T5N_3std7process7CommandNtNvMs4_CsdARyWrlPtHl_2ccNtB2F_5Build15compile_objects10KillOnDropNtNtNtB2F_8parallel9job_token8JobTokenENtNtBQ_5alloc6GlobalEEB2F_, symObjAddr: 0x3378, symBinAddr: 0x100053D84, symSize: 0x24 }
  - { offset: 0x99D04, size: 0x8, addend: 0x0, symName: __RINvNtCsfvfooZQ3Axs_4core3ptr13drop_in_placeINtNvNtNtCscOYdFFY2T5N_3std2io5Write9write_fmt7AdapterINtNtNtBN_8buffered9bufwriter9BufWriterNtNtBN_5stdio6StdoutEEECsdARyWrlPtHl_2cc, symObjAddr: 0x339C, symBinAddr: 0x100053DA8, symSize: 0x24 }
  - { offset: 0x99D33, size: 0x8, addend: 0x0, symName: __RINvNtCsfvfooZQ3Axs_4core3ptr13drop_in_placeINtNvNtNtCscOYdFFY2T5N_3std2io5Write9write_fmt7AdapterNtNtBP_2fs4FileEECsdARyWrlPtHl_2cc, symObjAddr: 0x33C0, symBinAddr: 0x100053DCC, symSize: 0x24 }
  - { offset: 0x99D62, size: 0x8, addend: 0x0, symName: __RINvNtCsfvfooZQ3Axs_4core3ptr13drop_in_placeINtNvXNtNtCse1nGBsou5OW_5alloc5slice4hackpNtBM_10ConvertVec6to_vec9DropGuardNtNtBQ_6string6StringNtNtBQ_5alloc6GlobalEECsdARyWrlPtHl_2cc, symObjAddr: 0x33E4, symBinAddr: 0x100053DF0, symSize: 0x24 }
  - { offset: 0x99D91, size: 0x8, addend: 0x0, symName: __RINvNtCsfvfooZQ3Axs_4core3ptr13drop_in_placeINtNvXNtNtCse1nGBsou5OW_5alloc5slice4hackpNtBM_10ConvertVec6to_vec9DropGuardNtNtNtCscOYdFFY2T5N_3std3ffi6os_str8OsStringNtNtBQ_5alloc6GlobalEECsdARyWrlPtHl_2cc, symObjAddr: 0x3408, symBinAddr: 0x100053E14, symSize: 0x24 }
  - { offset: 0x99DC0, size: 0x8, addend: 0x0, symName: __RINvNtCsfvfooZQ3Axs_4core3ptr13drop_in_placeINtNvXNtNtCse1nGBsou5OW_5alloc5slice4hackpNtBM_10ConvertVec6to_vec9DropGuardTNtNtNtCscOYdFFY2T5N_3std3ffi6os_str8OsStringB1V_ENtNtBQ_5alloc6GlobalEECsdARyWrlPtHl_2cc, symObjAddr: 0x342C, symBinAddr: 0x100053E38, symSize: 0x24 }
  - { offset: 0x99DEF, size: 0x8, addend: 0x0, symName: __RINvNtCsfvfooZQ3Axs_4core3ptr13drop_in_placeINtNvXs5_NtNtCse1nGBsou5OW_5alloc3vec5drainINtBP_5DrainppENtNtNtB4_3ops4drop4Drop4drop9DropGuardNtNtNtNtCscOYdFFY2T5N_3std4sync4mpmc5waker5EntryNtNtBT_5alloc6GlobalEECsdARyWrlPtHl_2cc, symObjAddr: 0x3450, symBinAddr: 0x100053E5C, symSize: 0x24 }
  - { offset: 0x99E1E, size: 0x8, addend: 0x0, symName: __RINvNtCsfvfooZQ3Axs_4core3ptr13drop_in_placeINtNvXsd_NtNtCse1nGBsou5OW_5alloc3vec9into_iterINtBP_8IntoIterppENtNtNtB4_3ops4drop4Drop4drop9DropGuardNtNtBT_6string6StringNtNtBT_5alloc6GlobalEECsdARyWrlPtHl_2cc, symObjAddr: 0x3498, symBinAddr: 0x100053E80, symSize: 0x24 }
  - { offset: 0x99E4D, size: 0x8, addend: 0x0, symName: __RINvNtCsfvfooZQ3Axs_4core3ptr13drop_in_placeINtNvXsw_NtNtNtCse1nGBsou5OW_5alloc11collections5btree3mapINtBP_8IntoIterpppENtNtNtB4_3ops4drop4Drop4drop9DropGuardNtNtNtCscOYdFFY2T5N_3std3ffi6os_str8OsStringINtNtB4_6option6OptionB2x_ENtNtBV_5alloc6GlobalEECsdARyWrlPtHl_2cc, symObjAddr: 0x34BC, symBinAddr: 0x100053EA4, symSize: 0x24 }
  - { offset: 0x99E7C, size: 0x8, addend: 0x0, symName: __RINvNtCsfvfooZQ3Axs_4core3ptr13drop_in_placeNCINvMsi_NtCse1nGBsou5OW_5alloc3vecINtBP_3VecINtNtBR_5boxed3BoxNtNtNtCscOYdFFY2T5N_3std3ffi6os_str5OsStrEE14extend_trustedINtNtNtNtB4_4iter8adapters3map3MapINtNtB2J_5chain5ChainINtNtB2J_6cloned6ClonedINtNtNtB4_5slice4iter4IterRB1H_EEIB2F_IB3V_NtNtBR_6string6StringEINvMsl_B1J_B1H_3newB4B_EEENvYB4k_INtNtB4_7convert4IntoB1p_E4intoEE0ECsdARyWrlPtHl_2cc, symObjAddr: 0x3614, symBinAddr: 0x100053EC8, symSize: 0x24 }
  - { offset: 0x99EAB, size: 0x8, addend: 0x0, symName: __RINvNtCsfvfooZQ3Axs_4core3ptr13drop_in_placeNCINvMsi_NtCse1nGBsou5OW_5alloc3vecINtBP_3VecNtNtNtCscOYdFFY2T5N_3std3ffi6os_str8OsStringE14extend_trustedINtNtNtB4_5array4iter8IntoIterB1p_Kj6_EE0ECsdARyWrlPtHl_2cc, symObjAddr: 0x3638, symBinAddr: 0x100053EEC, symSize: 0x24 }
  - { offset: 0x99EDA, size: 0x8, addend: 0x0, symName: __RINvNtCsfvfooZQ3Axs_4core3ptr13drop_in_placeNCINvMsi_NtCse1nGBsou5OW_5alloc3vecINtBP_3VecRNtNtCscOYdFFY2T5N_3std4path4PathE14extend_trustedINtNtNtNtB4_4iter8adapters5chain5ChainINtNtB2i_3map3MapINtNtNtB4_5slice4iter4IterNtCsdARyWrlPtHl_2cc6ObjectENCNvMs4_B3y_NtB3y_5Build8assemble0EIB2Q_IB37_INtNtBR_4sync3ArcB1q_EENvYB4G_NtNtNtB4_3ops5deref5Deref5derefEEE0EB3y_, symObjAddr: 0x365C, symBinAddr: 0x100053F10, symSize: 0x24 }
  - { offset: 0x99F09, size: 0x8, addend: 0x0, symName: __RINvNtCsfvfooZQ3Axs_4core3ptr13drop_in_placeNCINvMsi_NtCse1nGBsou5OW_5alloc3vecINtBP_3VechE14extend_trustedINtNtNtNtB4_4iter8adapters3map3MapINtNtNtB4_5slice4iter4IterhENCNvNtBR_3str13replace_ascii0EE0ECsdARyWrlPtHl_2cc, symObjAddr: 0x3680, symBinAddr: 0x100053F34, symSize: 0x24 }
  - { offset: 0x99F38, size: 0x8, addend: 0x0, symName: __RINvNtCsfvfooZQ3Axs_4core3ptr13drop_in_placeNCINvNtNtNtB4_4iter8adapters3map8map_foldRINtNtCse1nGBsou5OW_5alloc4sync3ArcNtNtCscOYdFFY2T5N_3std4path4PathERB1U_uNvYB1m_NtNtNtB4_3ops5deref5Deref5derefNCINvNvNtNtNtBP_6traits8iterator8Iterator8for_each4callB2r_NCINvMsi_NtB1r_3vecINtB4f_3VecB2r_E14extend_trustedINtNtBN_5chain5ChainINtBL_3MapINtNtNtB4_5slice4iter4IterNtCsdARyWrlPtHl_2cc6ObjectENCNvMs4_B5R_NtB5R_5Build8assemble0EIB5g_IB5q_B1m_EB2x_EEE0E0E0EB5R_, symObjAddr: 0x36C8, symBinAddr: 0x100053F58, symSize: 0x24 }
  - { offset: 0x99F67, size: 0x8, addend: 0x0, symName: __RINvNtCsfvfooZQ3Axs_4core3ptr13drop_in_placeNCINvNtNtNtB4_4iter8adapters3map8map_foldRNtNtCse1nGBsou5OW_5alloc6string6StringRNtNtNtCscOYdFFY2T5N_3std3ffi6os_str5OsStruINvMsl_B21_B1Z_3newB1m_ENCIBJ_B1Y_INtNtB1q_5boxed3BoxB1Z_EuNvYB1Y_INtNtB4_7convert4IntoB3d_E4intoNCINvNvNtNtNtBP_6traits8iterator8Iterator8for_each4callB3d_NCINvMsi_NtB1q_3vecINtB5k_3VecB3d_E14extend_trustedINtBL_3MapINtNtBN_5chain5ChainINtNtBN_6cloned6ClonedINtNtNtB4_5slice4iter4IterB1Y_EEIB61_IB6R_B1m_EB2F_EEB3C_EE0E0E0E0ECsdARyWrlPtHl_2cc, symObjAddr: 0x36EC, symBinAddr: 0x100053F7C, symSize: 0x24 }
  - { offset: 0x99F96, size: 0x8, addend: 0x0, symName: __RINvNtCsfvfooZQ3Axs_4core3ptr13drop_in_placeNCINvNtNtNtB4_4iter8adapters3map8map_foldRNtNtNtCscOYdFFY2T5N_3std3ffi6os_str5OsStrINtNtCse1nGBsou5OW_5alloc5boxed3BoxB1m_EuNvYB1l_INtNtB4_7convert4IntoB21_E4intoNCINvNvNtNtNtBP_6traits8iterator8Iterator8for_each4callB21_NCINvMsi_NtB26_3vecINtB4o_3VecB21_E14extend_trustedINtBL_3MapINtNtBN_5chain5ChainINtNtBN_6cloned6ClonedINtNtNtB4_5slice4iter4IterB1l_EEIB55_IB5V_NtNtB26_6string6StringEINvMsl_B1o_B1m_3newB6A_EEEB2G_EE0E0E0ECsdARyWrlPtHl_2cc, symObjAddr: 0x3710, symBinAddr: 0x100053FA0, symSize: 0x24 }
  - { offset: 0x99FC5, size: 0x8, addend: 0x0, symName: __RINvNtCsfvfooZQ3Axs_4core3ptr13drop_in_placeNCINvNtNtNtB4_4iter8adapters3map8map_foldRhhuNCNvNtCse1nGBsou5OW_5alloc3str13replace_ascii0NCINvNvNtNtNtBP_6traits8iterator8Iterator8for_each4callhNCINvMsi_NtB1v_3vecINtB3c_3VechE14extend_trustedINtBL_3MapINtNtNtB4_5slice4iter4IterhEB1p_EE0E0E0ECsdARyWrlPtHl_2cc, symObjAddr: 0x3734, symBinAddr: 0x100053FC4, symSize: 0x24 }
  - { offset: 0x99FF4, size: 0x8, addend: 0x0, symName: __RINvNtCsfvfooZQ3Axs_4core3ptr13drop_in_placeNCINvNvNtNtNtNtB4_4iter6traits8iterator8Iterator8for_each4callINtNtCse1nGBsou5OW_5alloc5boxed3BoxNtNtNtCscOYdFFY2T5N_3std3ffi6os_str5OsStrENCINvMsi_NtB1L_3vecINtB34_3VecB1G_E14extend_trustedINtNtNtBT_8adapters3map3MapINtNtB3P_5chain5ChainINtNtB3P_6cloned6ClonedINtNtNtB4_5slice4iter4IterRB2f_EEIB3L_IB4U_NtNtB1L_6string6StringEINvMsl_B2h_B2f_3newB5A_EEENvYB5j_INtNtB4_7convert4IntoB1G_E4intoEE0E0ECsdARyWrlPtHl_2cc, symObjAddr: 0x377C, symBinAddr: 0x100053FE8, symSize: 0x24 }
  - { offset: 0x9A023, size: 0x8, addend: 0x0, symName: __RINvNtCsfvfooZQ3Axs_4core3ptr13drop_in_placeNCINvNvNtNtNtNtB4_4iter6traits8iterator8Iterator8for_each4callNtNtNtCscOYdFFY2T5N_3std3ffi6os_str8OsStringNCINvMsi_NtCse1nGBsou5OW_5alloc3vecINtB2x_3VecB1G_E14extend_trustedINtNtNtB4_5array4iter8IntoIterB1G_Kj6_EE0E0ECsdARyWrlPtHl_2cc, symObjAddr: 0x37A0, symBinAddr: 0x10005400C, symSize: 0x24 }
  - { offset: 0x9A052, size: 0x8, addend: 0x0, symName: __RINvNtCsfvfooZQ3Axs_4core3ptr13drop_in_placeNCINvNvNtNtNtNtB4_4iter6traits8iterator8Iterator8for_each4callRNtNtCscOYdFFY2T5N_3std4path4PathNCINvMsi_NtCse1nGBsou5OW_5alloc3vecINtB2m_3VecB1G_E14extend_trustedINtNtNtBT_8adapters5chain5ChainINtNtB3n_3map3MapINtNtNtB4_5slice4iter4IterNtCsdARyWrlPtHl_2cc6ObjectENCNvMs4_B4w_NtB4w_5Build8assemble0EIB3O_IB45_INtNtB2o_4sync3ArcB1H_EENvYB5E_NtNtNtB4_3ops5deref5Deref5derefEEE0E0EB4w_, symObjAddr: 0x37C4, symBinAddr: 0x100054030, symSize: 0x24 }
  - { offset: 0x9A081, size: 0x8, addend: 0x0, symName: __RINvNtCsfvfooZQ3Axs_4core3ptr13drop_in_placeNCINvNvNtNtNtNtB4_4iter6traits8iterator8Iterator8for_each4callhNCINvMsi_NtCse1nGBsou5OW_5alloc3vecINtB1Q_3VechE14extend_trustedINtNtNtBT_8adapters3map3MapINtNtNtB4_5slice4iter4IterhENCNvNtB1S_3str13replace_ascii0EE0E0ECsdARyWrlPtHl_2cc, symObjAddr: 0x37E8, symBinAddr: 0x100054054, symSize: 0x24 }
  - { offset: 0x9A0B0, size: 0x8, addend: 0x0, symName: __RINvNtCsfvfooZQ3Axs_4core3ptr13drop_in_placeNCNCNvMs4_CsdARyWrlPtHl_2ccNtBQ_5Build15compile_objectss_00EBQ_, symObjAddr: 0x380C, symBinAddr: 0x100054078, symSize: 0xC0 }
  - { offset: 0x9A0DF, size: 0x8, addend: 0x0, symName: __RINvNtCsfvfooZQ3Axs_4core3ptr13drop_in_placeNCNvMNtNtNtCsdARyWrlPtHl_2cc8parallel9job_token19inprocess_jobserverNtBL_9JobServer7acquire0EBR_, symObjAddr: 0x38CC, symBinAddr: 0x100054138, symSize: 0x44 }
  - { offset: 0x9A121, size: 0x8, addend: 0x0, symName: __RINvNtCsfvfooZQ3Axs_4core3ptr13drop_in_placeNCNvMs0_NtNtNtCsdARyWrlPtHl_2cc8parallel9job_token19inherited_jobserverNtBO_15ActiveJobServer7acquire0EBU_, symObjAddr: 0x3910, symBinAddr: 0x10005417C, symSize: 0x174 }
  - { offset: 0x9A193, size: 0x8, addend: 0x0, symName: __RINvNtCsfvfooZQ3Axs_4core3ptr13drop_in_placeNCNvMs1_NtNtCsdARyWrlPtHl_2cc8parallel9job_tokenNtBO_20ActiveJobTokenServer7acquire0EBS_, symObjAddr: 0x3A84, symBinAddr: 0x1000542F0, symSize: 0xC4 }
  - { offset: 0x9A219, size: 0x8, addend: 0x0, symName: __RINvNtCsfvfooZQ3Axs_4core3ptr13drop_in_placeNCNvMs1_NtNtNtCscOYdFFY2T5N_3std4sync4mpmc4zeroINtBO_7ChannelINtNtB4_6result6ResultNtCs4Wq06SSluyi_9jobserver8AcquiredNtNtNtBU_2io5error5ErrorEE4send0ECsdARyWrlPtHl_2cc, symObjAddr: 0x3B48, symBinAddr: 0x1000543B4, symSize: 0x60 }
  - { offset: 0x9A248, size: 0x8, addend: 0x0, symName: __RINvNtCsfvfooZQ3Axs_4core3ptr13drop_in_placeNCNvMs4_CsdARyWrlPtHl_2ccNtBO_5Build15compile_objects0EBO_, symObjAddr: 0x3BA8, symBinAddr: 0x100054414, symSize: 0xC0 }
  - { offset: 0x9A2E8, size: 0x8, addend: 0x0, symName: __RINvNtCsfvfooZQ3Axs_4core3ptr13drop_in_placeNCNvMs4_CsdARyWrlPtHl_2ccNtBO_5Build15compile_objectss_0EBO_, symObjAddr: 0x3C68, symBinAddr: 0x1000544D4, symSize: 0xD0 }
  - { offset: 0x9A3DA, size: 0x8, addend: 0x0, symName: __RINvNtCsfvfooZQ3Axs_4core3ptr13drop_in_placeNCNvMs_NtNtNtCsdARyWrlPtHl_2cc8parallel9job_token19inherited_jobserverNtBN_12HelperThread3new0EBT_, symObjAddr: 0x3D38, symBinAddr: 0x1000545A4, symSize: 0x24 }
  - { offset: 0x9A409, size: 0x8, addend: 0x0, symName: __RINvNtCsfvfooZQ3Axs_4core3ptr13drop_in_placeNtCs4Wq06SSluyi_9jobserver12HelperThreadECsdARyWrlPtHl_2cc, symObjAddr: 0x3D5C, symBinAddr: 0x1000545C8, symSize: 0x88 }
  - { offset: 0x9A438, size: 0x8, addend: 0x0, symName: __RINvNtCsfvfooZQ3Axs_4core3ptr13drop_in_placeNtCsdARyWrlPtHl_2cc10BuildCacheEBI_, symObjAddr: 0x3DE4, symBinAddr: 0x100054650, symSize: 0x120 }
  - { offset: 0x9A467, size: 0x8, addend: 0x0, symName: __RINvNtCsfvfooZQ3Axs_4core3ptr13drop_in_placeNtCsdARyWrlPtHl_2cc12CompilerFlagEBI_, symObjAddr: 0x3F04, symBinAddr: 0x100054770, symSize: 0x60 }
  - { offset: 0x9A496, size: 0x8, addend: 0x0, symName: __RINvNtCsfvfooZQ3Axs_4core3ptr13drop_in_placeNtCsdARyWrlPtHl_2cc5BuildEBI_, symObjAddr: 0x3F64, symBinAddr: 0x1000547D0, symSize: 0x44C }
  - { offset: 0x9A4C5, size: 0x8, addend: 0x0, symName: __RINvNtCsfvfooZQ3Axs_4core3ptr13drop_in_placeNtCsdARyWrlPtHl_2cc5ErrorEBI_, symObjAddr: 0x43B0, symBinAddr: 0x100054C1C, symSize: 0x24 }
  - { offset: 0x9A4F4, size: 0x8, addend: 0x0, symName: __RINvNtCsfvfooZQ3Axs_4core3ptr13drop_in_placeNtCsdARyWrlPtHl_2cc6ObjectEBI_, symObjAddr: 0x43D4, symBinAddr: 0x100054C40, symSize: 0x60 }
  - { offset: 0x9A523, size: 0x8, addend: 0x0, symName: __RINvNtCsfvfooZQ3Axs_4core3ptr13drop_in_placeNtNtB4_4cell12BorrowRefMutECsdARyWrlPtHl_2cc, symObjAddr: 0x4464, symBinAddr: 0x100054CA0, symSize: 0x24 }
  - { offset: 0x9A552, size: 0x8, addend: 0x0, symName: __RINvNtCsfvfooZQ3Axs_4core3ptr13drop_in_placeNtNtCs4Wq06SSluyi_9jobserver3imp6HelperECsdARyWrlPtHl_2cc, symObjAddr: 0x4488, symBinAddr: 0x100054CC4, symSize: 0x60 }
  - { offset: 0x9A581, size: 0x8, addend: 0x0, symName: __RINvNtCsfvfooZQ3Axs_4core3ptr13drop_in_placeNtNtCscOYdFFY2T5N_3std3env8VarErrorECsdARyWrlPtHl_2cc, symObjAddr: 0x44E8, symBinAddr: 0x100054D24, symSize: 0x48 }
  - { offset: 0x9A5B0, size: 0x8, addend: 0x0, symName: __RINvNtCsfvfooZQ3Axs_4core3ptr13drop_in_placeNtNtCscOYdFFY2T5N_3std4path7PathBufECsdARyWrlPtHl_2cc, symObjAddr: 0x4530, symBinAddr: 0x100054D6C, symSize: 0x24 }
  - { offset: 0x9A5DF, size: 0x8, addend: 0x0, symName: __RINvNtCsfvfooZQ3Axs_4core3ptr13drop_in_placeNtNtCscOYdFFY2T5N_3std7process10ChildStdinECsdARyWrlPtHl_2cc, symObjAddr: 0x4554, symBinAddr: 0x100054D90, symSize: 0x24 }
  - { offset: 0x9A60E, size: 0x8, addend: 0x0, symName: __RINvNtCsfvfooZQ3Axs_4core3ptr13drop_in_placeNtNtCscOYdFFY2T5N_3std7process11ChildStderrECsdARyWrlPtHl_2cc, symObjAddr: 0x4588, symBinAddr: 0x100054DB4, symSize: 0x24 }
  - { offset: 0x9A63D, size: 0x8, addend: 0x0, symName: __RINvNtCsfvfooZQ3Axs_4core3ptr13drop_in_placeNtNtCscOYdFFY2T5N_3std7process11ChildStdoutECsdARyWrlPtHl_2cc, symObjAddr: 0x45AC, symBinAddr: 0x100054DD8, symSize: 0x24 }
  - { offset: 0x9A66C, size: 0x8, addend: 0x0, symName: __RINvNtCsfvfooZQ3Axs_4core3ptr13drop_in_placeNtNtCscOYdFFY2T5N_3std7process5ChildECsdARyWrlPtHl_2cc, symObjAddr: 0x45D0, symBinAddr: 0x100054DFC, symSize: 0x94 }
  - { offset: 0x9A69B, size: 0x8, addend: 0x0, symName: __RINvNtCsfvfooZQ3Axs_4core3ptr13drop_in_placeNtNtCscOYdFFY2T5N_3std7process6OutputECsdARyWrlPtHl_2cc, symObjAddr: 0x4664, symBinAddr: 0x100054E90, symSize: 0x60 }
  - { offset: 0x9A6CA, size: 0x8, addend: 0x0, symName: __RINvNtCsfvfooZQ3Axs_4core3ptr13drop_in_placeNtNtCscOYdFFY2T5N_3std7process7CommandECsdARyWrlPtHl_2cc, symObjAddr: 0x46C4, symBinAddr: 0x100054EF0, symSize: 0x24 }
  - { offset: 0x9A6F9, size: 0x8, addend: 0x0, symName: __RINvNtCsfvfooZQ3Axs_4core3ptr13drop_in_placeNtNtCsdARyWrlPtHl_2cc15command_helpers11CargoOutputEBK_, symObjAddr: 0x46E8, symBinAddr: 0x100054F14, symSize: 0x24 }
  - { offset: 0x9A728, size: 0x8, addend: 0x0, symName: __RINvNtCsfvfooZQ3Axs_4core3ptr13drop_in_placeNtNtCsdARyWrlPtHl_2cc15command_helpers15StderrForwarderEBK_, symObjAddr: 0x470C, symBinAddr: 0x100054F38, symSize: 0x24 }
  - { offset: 0x9A757, size: 0x8, addend: 0x0, symName: __RINvNtCsfvfooZQ3Axs_4core3ptr13drop_in_placeNtNtCsdARyWrlPtHl_2cc4tool4ToolEBK_, symObjAddr: 0x4730, symBinAddr: 0x100054F5C, symSize: 0x120 }
  - { offset: 0x9A786, size: 0x8, addend: 0x0, symName: __RINvNtCsfvfooZQ3Axs_4core3ptr13drop_in_placeNtNtCsdARyWrlPtHl_2cc8tempfile13NamedTempfileEBK_, symObjAddr: 0x4850, symBinAddr: 0x10005507C, symSize: 0x88 }
  - { offset: 0x9A7B5, size: 0x8, addend: 0x0, symName: __RINvNtCsfvfooZQ3Axs_4core3ptr13drop_in_placeNtNtCse1nGBsou5OW_5alloc6string13FromUtf8ErrorECsdARyWrlPtHl_2cc, symObjAddr: 0x48D8, symBinAddr: 0x100055104, symSize: 0x24 }
  - { offset: 0x9A7E4, size: 0x8, addend: 0x0, symName: __RINvNtCsfvfooZQ3Axs_4core3ptr13drop_in_placeNtNtNtB4_4task4wake5WakerECsdARyWrlPtHl_2cc, symObjAddr: 0x491C, symBinAddr: 0x100055128, symSize: 0x24 }
  - { offset: 0x9A813, size: 0x8, addend: 0x0, symName: __RINvNtCsfvfooZQ3Axs_4core3ptr13drop_in_placeNtNtNtCscOYdFFY2T5N_3std10sys_common7process10CommandEnvECsdARyWrlPtHl_2cc, symObjAddr: 0x4950, symBinAddr: 0x10005514C, symSize: 0x24 }
  - { offset: 0x9A842, size: 0x8, addend: 0x0, symName: __RINvNtCsfvfooZQ3Axs_4core3ptr13drop_in_placeNtNtNtCscOYdFFY2T5N_3std2io5stdio10StdoutLockECsdARyWrlPtHl_2cc, symObjAddr: 0x4974, symBinAddr: 0x100055170, symSize: 0x24 }
  - { offset: 0x9A871, size: 0x8, addend: 0x0, symName: __RINvNtCsfvfooZQ3Axs_4core3ptr13drop_in_placeNtNtNtCsdARyWrlPtHl_2cc6target6parser16TargetInfoParserEBM_, symObjAddr: 0x4998, symBinAddr: 0x100055194, symSize: 0x24 }
  - { offset: 0x9A8A0, size: 0x8, addend: 0x0, symName: __RINvNtCsfvfooZQ3Axs_4core3ptr13drop_in_placeNtNtNtCsdARyWrlPtHl_2cc6target6parser21TargetInfoParserInnerEBM_, symObjAddr: 0x49BC, symBinAddr: 0x1000551B8, symSize: 0x120 }
  - { offset: 0x9A8CF, size: 0x8, addend: 0x0, symName: __RINvNtCsfvfooZQ3Axs_4core3ptr13drop_in_placeNtNtNtCsdARyWrlPtHl_2cc7windows10find_tools3EnvEBM_, symObjAddr: 0x4AEC, symBinAddr: 0x1000552D8, symSize: 0x5C }
  - { offset: 0x9A8FE, size: 0x8, addend: 0x0, symName: __RINvNtCsfvfooZQ3Axs_4core3ptr13drop_in_placeNtNtNtCsdARyWrlPtHl_2cc8parallel9job_token20ActiveJobTokenServerEBM_, symObjAddr: 0x4B90, symBinAddr: 0x100055334, symSize: 0x48 }
  - { offset: 0x9A92D, size: 0x8, addend: 0x0, symName: __RINvNtCsfvfooZQ3Axs_4core3ptr13drop_in_placeNtNtNtCsdARyWrlPtHl_2cc8parallel9job_token8JobTokenEBM_, symObjAddr: 0x4BD8, symBinAddr: 0x10005537C, symSize: 0x24 }
  - { offset: 0x9A95C, size: 0x8, addend: 0x0, symName: __RINvNtCsfvfooZQ3Axs_4core3ptr13drop_in_placeNtNtNtCse1nGBsou5OW_5alloc3ffi5c_str7CStringECsdARyWrlPtHl_2cc, symObjAddr: 0x4BFC, symBinAddr: 0x1000553A0, symSize: 0x5C }
  - { offset: 0x9A98B, size: 0x8, addend: 0x0, symName: __RINvNtCsfvfooZQ3Axs_4core3ptr13drop_in_placeNtNtNtCse1nGBsou5OW_5alloc3vec15set_len_on_drop12SetLenOnDropECsdARyWrlPtHl_2cc, symObjAddr: 0x4C58, symBinAddr: 0x1000553FC, symSize: 0x24 }
  - { offset: 0x9A9BA, size: 0x8, addend: 0x0, symName: __RINvNtCsfvfooZQ3Axs_4core3ptr13drop_in_placeNtNtNtNtCscOYdFFY2T5N_3std4sync4mpmc4zero5InnerECsdARyWrlPtHl_2cc, symObjAddr: 0x4C7C, symBinAddr: 0x100055420, symSize: 0x60 }
  - { offset: 0x9A9E9, size: 0x8, addend: 0x0, symName: __RINvNtCsfvfooZQ3Axs_4core3ptr13drop_in_placeNtNtNtNtCscOYdFFY2T5N_3std4sync4mpmc5waker5EntryECsdARyWrlPtHl_2cc, symObjAddr: 0x4CDC, symBinAddr: 0x100055480, symSize: 0x24 }
  - { offset: 0x9AA18, size: 0x8, addend: 0x0, symName: __RINvNtCsfvfooZQ3Axs_4core3ptr13drop_in_placeNtNtNtNtCscOYdFFY2T5N_3std4sync4mpmc5waker5WakerECsdARyWrlPtHl_2cc, symObjAddr: 0x4D00, symBinAddr: 0x1000554A4, symSize: 0x88 }
  - { offset: 0x9AA47, size: 0x8, addend: 0x0, symName: __RINvNtCsfvfooZQ3Axs_4core3ptr13drop_in_placeNtNtNtNtCscOYdFFY2T5N_3std4sync4mpmc5waker9SyncWakerECsdARyWrlPtHl_2cc, symObjAddr: 0x4D88, symBinAddr: 0x10005552C, symSize: 0x5C }
  - { offset: 0x9AA76, size: 0x8, addend: 0x0, symName: __RINvNtCsfvfooZQ3Axs_4core3ptr13drop_in_placeNtNtNtNtCscOYdFFY2T5N_3std4sync4mpmc7context7ContextECsdARyWrlPtHl_2cc, symObjAddr: 0x4DE4, symBinAddr: 0x100055588, symSize: 0x24 }
  - { offset: 0x9AAA5, size: 0x8, addend: 0x0, symName: __RINvNtCsfvfooZQ3Axs_4core3ptr13drop_in_placeNtNtNtNtCsdARyWrlPtHl_2cc8parallel9job_token19inherited_jobserver12HelperThreadEBO_, symObjAddr: 0x4E08, symBinAddr: 0x1000555AC, symSize: 0x5C }
  - { offset: 0x9AAD4, size: 0x8, addend: 0x0, symName: __RINvNtCsfvfooZQ3Axs_4core3ptr13drop_in_placeNtNtNtNtCsdARyWrlPtHl_2cc8parallel9job_token19inherited_jobserver15ActiveJobServerEBO_, symObjAddr: 0x4E64, symBinAddr: 0x100055608, symSize: 0x24 }
  - { offset: 0x9AB03, size: 0x8, addend: 0x0, symName: __RINvNtCsfvfooZQ3Axs_4core3ptr13drop_in_placeNtNtNtNtNtCscOYdFFY2T5N_3std3sys3pal4unix4pipe8AnonPipeECsdARyWrlPtHl_2cc, symObjAddr: 0x4EE4, symBinAddr: 0x10005562C, symSize: 0x24 }
  - { offset: 0x9AB32, size: 0x8, addend: 0x0, symName: __RINvNtCsfvfooZQ3Axs_4core3ptr13drop_in_placeNtNtNtNtNtNtCscOYdFFY2T5N_3std3sys3pal4unix7process14process_common4ArgvECsdARyWrlPtHl_2cc, symObjAddr: 0x4F08, symBinAddr: 0x100055650, symSize: 0x24 }
  - { offset: 0x9AB61, size: 0x8, addend: 0x0, symName: __RINvNtCsfvfooZQ3Axs_4core3ptr13drop_in_placeNtNtNtNtNtNtCscOYdFFY2T5N_3std3sys3pal4unix7process14process_common5StdioECsdARyWrlPtHl_2cc, symObjAddr: 0x4F2C, symBinAddr: 0x100055674, symSize: 0x44 }
  - { offset: 0x9AB90, size: 0x8, addend: 0x0, symName: __RINvNtCsfvfooZQ3Axs_4core3ptr13drop_in_placeNtNtNtNtNtNtCscOYdFFY2T5N_3std3sys3pal4unix7process14process_common7CommandECsdARyWrlPtHl_2cc, symObjAddr: 0x4F70, symBinAddr: 0x1000556B8, symSize: 0x1DC }
  - { offset: 0x9ABBF, size: 0x8, addend: 0x0, symName: __RINvNtCsfvfooZQ3Axs_4core3ptr13drop_in_placeNtNvMs4_CsdARyWrlPtHl_2ccNtBO_5Build15compile_objects10KillOnDropEBO_, symObjAddr: 0x514C, symBinAddr: 0x100055894, symSize: 0x88 }
  - { offset: 0x9ABEE, size: 0x8, addend: 0x0, symName: __RINvNtCsfvfooZQ3Axs_4core3ptr13drop_in_placeNtNvMs_NtNtNtCscOYdFFY2T5N_3std2io8buffered9bufwriterINtBN_9BufWriterpE9flush_buf8BufGuardECsdARyWrlPtHl_2cc, symObjAddr: 0x51E4, symBinAddr: 0x10005591C, symSize: 0x24 }
  - { offset: 0x9AC1D, size: 0x8, addend: 0x0, symName: __RINvNtCsfvfooZQ3Axs_4core3ptr13drop_in_placeNtNvNtCsdARyWrlPtHl_2cc15command_helpers5spawn11ResetStderrEBM_, symObjAddr: 0x5208, symBinAddr: 0x100055940, symSize: 0x24 }
  - { offset: 0x9AC4C, size: 0x8, addend: 0x0, symName: __RINvNtCsfvfooZQ3Axs_4core3ptr13drop_in_placeNtNvNtNtCscOYdFFY2T5N_3std3sys12thread_local20abort_on_dtor_unwind15DtorUnwindGuardECsdARyWrlPtHl_2cc, symObjAddr: 0x522C, symBinAddr: 0x100055964, symSize: 0x24 }
  - { offset: 0x9AC7B, size: 0x8, addend: 0x0, symName: __RINvNtCsfvfooZQ3Axs_4core3ptr13drop_in_placeNtNvNtNtNtCse1nGBsou5OW_5alloc11collections5btree3mem7replace10PanicGuardECsdARyWrlPtHl_2cc, symObjAddr: 0x5250, symBinAddr: 0x100055988, symSize: 0x24 }
  - { offset: 0x9ACAA, size: 0x8, addend: 0x0, symName: __RINvNtCsfvfooZQ3Axs_4core3ptr13drop_in_placeNtNvXsh_NtNtCse1nGBsou5OW_5alloc5boxed7convertINtBQ_3BoxDNtNtB4_5error5ErrorNtNtB4_6marker4SendNtB1W_4SyncEL_EINtNtB4_7convert4FromNtNtBS_6string6StringE4from11StringErrorECsdARyWrlPtHl_2cc, symObjAddr: 0x5274, symBinAddr: 0x1000559AC, symSize: 0x24 }
  - { offset: 0x9ACD9, size: 0x8, addend: 0x0, symName: __RINvNtCsfvfooZQ3Axs_4core3ptr13drop_in_placeSINtNtCse1nGBsou5OW_5alloc4sync3ArcNtNtCscOYdFFY2T5N_3std4path4PathEECsdARyWrlPtHl_2cc, symObjAddr: 0x52E8, symBinAddr: 0x1000559D0, symSize: 0xB4 }
  - { offset: 0x9AD08, size: 0x8, addend: 0x0, symName: __RINvNtCsfvfooZQ3Axs_4core3ptr13drop_in_placeSINtNtCse1nGBsou5OW_5alloc4sync3ArcNtNtNtCscOYdFFY2T5N_3std3ffi6os_str5OsStrEECsdARyWrlPtHl_2cc, symObjAddr: 0x539C, symBinAddr: 0x100055A84, symSize: 0xB4 }
  - { offset: 0x9AD37, size: 0x8, addend: 0x0, symName: __RINvNtCsfvfooZQ3Axs_4core3ptr13drop_in_placeSINtNtCse1nGBsou5OW_5alloc5boxed3BoxDINtNtNtB4_3ops8function5FnMutuEp6OutputINtNtB4_6result6ResultuNtNtNtCscOYdFFY2T5N_3std2io5error5ErrorENtNtB4_6marker4SendNtB2X_4SyncEL_EECsdARyWrlPtHl_2cc, symObjAddr: 0x5450, symBinAddr: 0x100055B38, symSize: 0xB4 }
  - { offset: 0x9AD66, size: 0x8, addend: 0x0, symName: __RINvNtCsfvfooZQ3Axs_4core3ptr13drop_in_placeSINtNtCse1nGBsou5OW_5alloc5boxed3BoxNtNtNtCscOYdFFY2T5N_3std3ffi6os_str5OsStrEECsdARyWrlPtHl_2cc, symObjAddr: 0x5504, symBinAddr: 0x100055BEC, symSize: 0xB4 }
  - { offset: 0x9AD95, size: 0x8, addend: 0x0, symName: __RINvNtCsfvfooZQ3Axs_4core3ptr13drop_in_placeSNtCsdARyWrlPtHl_2cc6ObjectEBJ_, symObjAddr: 0x55B8, symBinAddr: 0x100055CA0, symSize: 0xC4 }
  - { offset: 0x9ADC4, size: 0x8, addend: 0x0, symName: __RINvNtCsfvfooZQ3Axs_4core3ptr13drop_in_placeSNtNtNtCscOYdFFY2T5N_3std3ffi6os_str8OsStringECsdARyWrlPtHl_2cc, symObjAddr: 0x5740, symBinAddr: 0x100055D64, symSize: 0xC4 }
  - { offset: 0x9ADF3, size: 0x8, addend: 0x0, symName: __RINvNtCsfvfooZQ3Axs_4core3ptr13drop_in_placeSNtNtNtCse1nGBsou5OW_5alloc3ffi5c_str7CStringECsdARyWrlPtHl_2cc, symObjAddr: 0x5804, symBinAddr: 0x100055E28, symSize: 0xB4 }
  - { offset: 0x9AE22, size: 0x8, addend: 0x0, symName: __RINvNtCsfvfooZQ3Axs_4core3ptr13drop_in_placeSNtNtNtNtCscOYdFFY2T5N_3std4sync4mpmc5waker5EntryECsdARyWrlPtHl_2cc, symObjAddr: 0x58B8, symBinAddr: 0x100055EDC, symSize: 0xC4 }
  - { offset: 0x9AE51, size: 0x8, addend: 0x0, symName: __RINvNtCsfvfooZQ3Axs_4core3ptr13drop_in_placeSTINtNtCse1nGBsou5OW_5alloc4sync3ArcNtNtNtCscOYdFFY2T5N_3std3ffi6os_str5OsStrEBI_EECsdARyWrlPtHl_2cc, symObjAddr: 0x597C, symBinAddr: 0x100055FA0, symSize: 0xB4 }
  - { offset: 0x9AE80, size: 0x8, addend: 0x0, symName: __RINvNtCsfvfooZQ3Axs_4core3ptr13drop_in_placeSTINtNtCse1nGBsou5OW_5alloc4sync3ArceEINtNtB4_6option6OptionBI_EEECsdARyWrlPtHl_2cc, symObjAddr: 0x5A30, symBinAddr: 0x100056054, symSize: 0xB4 }
  - { offset: 0x9AEAF, size: 0x8, addend: 0x0, symName: __RINvNtCsfvfooZQ3Axs_4core3ptr13drop_in_placeSTNtNtCscOYdFFY2T5N_3std7process7CommandNtNvMs4_CsdARyWrlPtHl_2ccNtB1s_5Build15compile_objects10KillOnDropNtNtNtB1s_8parallel9job_token8JobTokenEEB1s_, symObjAddr: 0x5AE4, symBinAddr: 0x100056108, symSize: 0xC4 }
  - { offset: 0x9AEDE, size: 0x8, addend: 0x0, symName: __RINvNtCsfvfooZQ3Axs_4core3ptr13drop_in_placeSTNtNtNtCscOYdFFY2T5N_3std3ffi6os_str8OsStringBI_EECsdARyWrlPtHl_2cc, symObjAddr: 0x5BA8, symBinAddr: 0x1000561CC, symSize: 0xC4 }
  - { offset: 0x9AF0D, size: 0x8, addend: 0x0, symName: __RINvNtCsfvfooZQ3Axs_4core3ptr13drop_in_placeTINtNtCse1nGBsou5OW_5alloc4sync3ArcNtNtNtCscOYdFFY2T5N_3std3ffi6os_str5OsStrEBH_EECsdARyWrlPtHl_2cc, symObjAddr: 0x5C6C, symBinAddr: 0x100056290, symSize: 0x60 }
  - { offset: 0x9AF3C, size: 0x8, addend: 0x0, symName: __RINvNtCsfvfooZQ3Axs_4core3ptr13drop_in_placeTINtNtCse1nGBsou5OW_5alloc4sync3ArceEINtNtB4_6option6OptionBH_EEECsdARyWrlPtHl_2cc, symObjAddr: 0x5CCC, symBinAddr: 0x1000562F0, symSize: 0x60 }
  - { offset: 0x9AF6B, size: 0x8, addend: 0x0, symName: __RINvNtCsfvfooZQ3Axs_4core3ptr13drop_in_placeTINtNtCse1nGBsou5OW_5alloc5boxed3BoxSIBI_NtNtNtCscOYdFFY2T5N_3std3ffi6os_str5OsStrEENtNtCsdARyWrlPtHl_2cc4tool10ToolFamilyEEB26_, symObjAddr: 0x5D2C, symBinAddr: 0x100056350, symSize: 0x24 }
  - { offset: 0x9AF9A, size: 0x8, addend: 0x0, symName: __RINvNtCsfvfooZQ3Axs_4core3ptr13drop_in_placeTINtNtCse1nGBsou5OW_5alloc5boxed3BoxeEINtNtB4_6option6OptionINtNtBM_4sync3ArcNtNtNtCscOYdFFY2T5N_3std3ffi6os_str5OsStrEEEECsdARyWrlPtHl_2cc, symObjAddr: 0x5D50, symBinAddr: 0x100056374, symSize: 0x60 }
  - { offset: 0x9AFC9, size: 0x8, addend: 0x0, symName: __RINvNtCsfvfooZQ3Axs_4core3ptr13drop_in_placeTINtNtCse1nGBsou5OW_5alloc5boxed3BoxeEINtNtBM_4sync3ArcNtNtNtCscOYdFFY2T5N_3std3ffi6os_str5OsStrEEECsdARyWrlPtHl_2cc, symObjAddr: 0x5DB0, symBinAddr: 0x1000563D4, symSize: 0x60 }
  - { offset: 0x9AFF8, size: 0x8, addend: 0x0, symName: __RINvNtCsfvfooZQ3Axs_4core3ptr13drop_in_placeTINtNtCse1nGBsou5OW_5alloc5boxed3BoxeEINtNtBM_4sync3ArceEEECsdARyWrlPtHl_2cc, symObjAddr: 0x5E10, symBinAddr: 0x100056434, symSize: 0x60 }
  - { offset: 0x9B027, size: 0x8, addend: 0x0, symName: __RINvNtCsfvfooZQ3Axs_4core3ptr13drop_in_placeTNtCsdARyWrlPtHl_2cc12CompilerFlagbEEBJ_, symObjAddr: 0x5E70, symBinAddr: 0x100056494, symSize: 0x24 }
  - { offset: 0x9B056, size: 0x8, addend: 0x0, symName: __RINvNtCsfvfooZQ3Axs_4core3ptr13drop_in_placeTNtNtCscOYdFFY2T5N_3std7process11ChildStderrINtNtCse1nGBsou5OW_5alloc3vec3VechEEECsdARyWrlPtHl_2cc, symObjAddr: 0x5E94, symBinAddr: 0x1000564B8, symSize: 0x60 }
  - { offset: 0x9B085, size: 0x8, addend: 0x0, symName: __RINvNtCsfvfooZQ3Axs_4core3ptr13drop_in_placeTNtNtCscOYdFFY2T5N_3std7process7CommandNtNvMs4_CsdARyWrlPtHl_2ccNtB1r_5Build15compile_objects10KillOnDropNtNtNtB1r_8parallel9job_token8JobTokenEEB1r_, symObjAddr: 0x5EF4, symBinAddr: 0x100056518, symSize: 0x90 }
  - { offset: 0x9B0B4, size: 0x8, addend: 0x0, symName: __RINvNtCsfvfooZQ3Axs_4core3ptr13drop_in_placeTNtNtNtCscOYdFFY2T5N_3std3ffi6os_str8OsStringBH_EECsdARyWrlPtHl_2cc, symObjAddr: 0x5F84, symBinAddr: 0x1000565A8, symSize: 0x60 }
  - { offset: 0x9BC9C, size: 0x8, addend: 0x0, symName: __RNCINvNtNtNtCsfvfooZQ3Axs_4core4iter8adapters3map8map_foldRINtNtCse1nGBsou5OW_5alloc4sync3ArcNtNtCscOYdFFY2T5N_3std4path4PathERB1t_uNvYBV_NtNtNtBa_3ops5deref5Deref5derefNCINvNvNtNtNtB8_6traits8iterator8Iterator8for_each4callB20_NCINvMsi_NtB10_3vecINtB3N_3VecB20_E14extend_trustedINtNtB6_5chain5ChainINtB4_3MapINtNtNtBa_5slice4iter4IterNtCsdARyWrlPtHl_2cc6ObjectENCNvMs4_B5p_NtB5p_5Build8assemble0EIB4O_IB4Y_BV_EB26_EEE0E0E0B5p_, symObjAddr: 0x73C4, symBinAddr: 0x100057620, symSize: 0x84 }
  - { offset: 0x9BD21, size: 0x8, addend: 0x0, symName: __RNCINvNtNtNtCsfvfooZQ3Axs_4core4iter8adapters3map8map_foldRINtNtCse1nGBsou5OW_5alloc4sync3ArcNtNtCscOYdFFY2T5N_3std4path4PathEjjNCINvNvXs1_NtB6_6filterINtB2d_6FilterppENtNtNtB8_6traits8iterator8Iterator5count8to_usizeBU_NCNvMs4_CsdARyWrlPtHl_2ccNtB3E_5Build15cuda_file_count0E0NCINvXsK_NtB2K_5accumjNtB4A_3Sum3sumINtB4_3MapINtNtNtBa_5slice4iter4IterBV_EB22_EE0E0B3E_, symObjAddr: 0x7448, symBinAddr: 0x1000576A4, symSize: 0x98 }
  - { offset: 0x9BDA8, size: 0x8, addend: 0x0, symName: __RNCINvNtNtNtCsfvfooZQ3Axs_4core4iter8adapters3map8map_foldRNtCsdARyWrlPtHl_2cc6ObjectRNtNtCscOYdFFY2T5N_3std4path4PathuNCNvMs4_BX_NtBX_5Build8assemble0QNCINvNvNtNtNtB8_6traits8iterator8Iterator8for_each4callB1l_NCINvMsi_NtCse1nGBsou5OW_5alloc3vecINtB3w_3VecB1l_E14extend_trustedINtNtB6_5chain5ChainINtB4_3MapINtNtNtBa_5slice4iter4IterBV_EB1T_EIB4N_IB4X_INtNtB3y_4sync3ArcB1m_EENvYB5F_NtNtNtBa_3ops5deref5Deref5derefEEE0E0E0BX_, symObjAddr: 0x74E0, symBinAddr: 0x10005773C, symSize: 0x84 }
  - { offset: 0x9BE2D, size: 0x8, addend: 0x0, symName: __RNCINvNtNtNtCsfvfooZQ3Axs_4core4iter8adapters3map8map_foldRNtNtCse1nGBsou5OW_5alloc6string6StringRNtNtNtCscOYdFFY2T5N_3std3ffi6os_str5OsStruINvMsl_B1A_B1y_3newBV_ENCIB2_B1x_INtNtBZ_5boxed3BoxB1y_EuNvYB1x_INtNtBa_7convert4IntoB2L_E4intoNCINvNvNtNtNtB8_6traits8iterator8Iterator8for_each4callB2L_NCINvMsi_NtBZ_3vecINtB4R_3VecB2L_E14extend_trustedINtB4_3MapINtNtB6_5chain5ChainINtNtB6_6cloned6ClonedINtNtNtBa_5slice4iter4IterB1x_EEIB5x_IB6n_BV_EB2e_EEB39_EE0E0E0E0CsdARyWrlPtHl_2cc, symObjAddr: 0x7564, symBinAddr: 0x1000577C0, symSize: 0x84 }
  - { offset: 0x9BEB2, size: 0x8, addend: 0x0, symName: __RNCINvNtNtNtCsfvfooZQ3Axs_4core4iter8adapters3map8map_foldRNtNtNtCscOYdFFY2T5N_3std3ffi6os_str5OsStrINtNtCse1nGBsou5OW_5alloc5boxed3BoxBV_EuNvYBU_INtNtBa_7convert4IntoB1A_E4intoNCINvNvNtNtNtB8_6traits8iterator8Iterator8for_each4callB1A_NCINvMsi_NtB1F_3vecINtB3V_3VecB1A_E14extend_trustedINtB4_3MapINtNtB6_5chain5ChainINtNtB6_6cloned6ClonedINtNtNtBa_5slice4iter4IterBU_EEIB4C_IB5s_NtNtB1F_6string6StringEINvMsl_BX_BV_3newB66_EEEB2e_EE0E0E0CsdARyWrlPtHl_2cc, symObjAddr: 0x75E8, symBinAddr: 0x100057844, symSize: 0x88 }
  - { offset: 0x9BF37, size: 0x8, addend: 0x0, symName: __RNCINvNtNtNtCsfvfooZQ3Axs_4core4iter8adapters3map8map_foldRRNtNtNtCscOYdFFY2T5N_3std3ffi6os_str5OsStrBV_uNvYBV_NtNtBa_5clone5Clone5cloneQNCIB2_BV_INtNtCse1nGBsou5OW_5alloc5boxed3BoxBW_EuNvYBV_INtNtBa_7convert4IntoB2k_E4intoNCINvNvNtNtNtB8_6traits8iterator8Iterator8for_each4callB2k_NCINvMsi_NtB2p_3vecINtB4F_3VecB2k_E14extend_trustedINtB4_3MapINtNtB6_5chain5ChainINtNtB6_6cloned6ClonedINtNtNtBa_5slice4iter4IterBV_EEIB5m_IB6c_NtNtB2p_6string6StringEINvMsl_BY_BW_3newB6Q_EEEB2Y_EE0E0E0E0CsdARyWrlPtHl_2cc, symObjAddr: 0x7670, symBinAddr: 0x1000578CC, symSize: 0x84 }
  - { offset: 0x9BFBC, size: 0x8, addend: 0x0, symName: __RNCINvNtNtNtCsfvfooZQ3Axs_4core4iter8adapters3map8map_foldRhhuNCNvNtCse1nGBsou5OW_5alloc3str13replace_ascii0NCINvNvNtNtNtB8_6traits8iterator8Iterator8for_each4callhNCINvMsi_NtB14_3vecINtB2L_3VechE14extend_trustedINtB4_3MapINtNtNtBa_5slice4iter4IterhEBY_EE0E0E0CsdARyWrlPtHl_2cc, symObjAddr: 0x76F4, symBinAddr: 0x100057950, symSize: 0x7C }
  - { offset: 0x9C041, size: 0x8, addend: 0x0, symName: __RNCINvNtNtNtCsfvfooZQ3Axs_4core4iter8adapters3map8map_foldbhhNCNvXNtNtBa_3str4iterNtB12_5CharsNtNtNtB8_6traits8iterator8Iterator10advance_by0NCINvXsq_NtB1y_5accumhNtB2o_3Sum3sumINtB4_3MapINtNtNtBa_5array4iter8IntoIterbKj20_EBX_EE0E0CsdARyWrlPtHl_2cc, symObjAddr: 0x7770, symBinAddr: 0x1000579CC, symSize: 0x94 }
  - { offset: 0x9C0EC, size: 0x8, addend: 0x0, symName: __RINvXs0_NtNtNtCsfvfooZQ3Axs_4core4iter8adapters3mapINtB6_3MapINtNtB8_5chain5ChainINtNtB8_6cloned6ClonedINtNtNtBc_5slice4iter4IterRNtNtNtCscOYdFFY2T5N_3std3ffi6os_str5OsStrEEIBO_IB1E_NtNtCse1nGBsou5OW_5alloc6string6StringEINvMsl_B26_B24_3newB2U_EEENvYB23_INtNtBc_7convert4IntoINtNtB2Y_5boxed3BoxB24_EE4intoENtNtNtBa_6traits8iterator8Iterator4folduNCINvNvB4U_8for_each4callB4p_NCINvMsi_NtB2Y_3vecINtB6a_3VecB4p_E14extend_trustedBN_E0E0ECsdARyWrlPtHl_2cc, symObjAddr: 0x5FE4, symBinAddr: 0x100056608, symSize: 0x4C }
  - { offset: 0x9C185, size: 0x8, addend: 0x0, symName: __RINvXs0_NtNtNtCsfvfooZQ3Axs_4core4iter8adapters3mapINtB6_3MapINtNtNtBc_5slice4iter4IterINtNtCse1nGBsou5OW_5alloc4sync3ArcNtNtCscOYdFFY2T5N_3std4path4PathEENvYB1n_NtNtNtBc_3ops5deref5Deref5derefENtNtNtBa_6traits8iterator8Iterator4folduNCINvNvB36_8for_each4callRB1V_NCINvMsi_NtB1s_3vecINtB4n_3VecB49_E14extend_trustedINtNtB8_5chain5ChainIBO_IBY_NtCsdARyWrlPtHl_2cc6ObjectENCNvMs4_B5x_NtB5x_5Build8assemble0EBN_EE0E0EB5x_, symObjAddr: 0x6030, symBinAddr: 0x100056654, symSize: 0x44 }
  - { offset: 0x9C21D, size: 0x8, addend: 0x0, symName: __RINvXs0_NtNtNtCsfvfooZQ3Axs_4core4iter8adapters3mapINtB6_3MapINtNtNtBc_5slice4iter4IterNtCsdARyWrlPtHl_2cc6ObjectENCNvMs4_B1p_NtB1p_5Build8assemble0ENtNtNtBa_6traits8iterator8Iterator4folduQNCINvNvB2n_8for_each4callRNtNtCscOYdFFY2T5N_3std4path4PathNCINvMsi_NtCse1nGBsou5OW_5alloc3vecINtB47_3VecB3r_E14extend_trustedINtNtB8_5chain5ChainBN_IBO_IBY_INtNtB49_4sync3ArcB3s_EENvYB5y_NtNtNtBc_3ops5deref5Deref5derefEEE0E0EB1p_, symObjAddr: 0x60A4, symBinAddr: 0x100056698, symSize: 0x34 }
  - { offset: 0x9C28E, size: 0x8, addend: 0x0, symName: __RINvXs0_NtNtNtCsfvfooZQ3Axs_4core4iter8adapters3mapINtB6_3MapINtNtNtBc_5slice4iter4IterNtNtCse1nGBsou5OW_5alloc6string6StringEINvMsl_NtNtCscOYdFFY2T5N_3std3ffi6os_strNtB27_5OsStr3newB1n_EENtNtNtBa_6traits8iterator8Iterator4folduNCINvB6_8map_foldRB2E_INtNtB1r_5boxed3BoxB2E_EuNvYB3V_INtNtBc_7convert4IntoB40_E4intoNCINvNvB30_8for_each4callB40_NCINvMsi_NtB1r_3vecINtB5D_3VecB40_E14extend_trustedIBO_INtNtB8_5chain5ChainINtNtB8_6cloned6ClonedIBY_B3V_EEBN_EB4p_EE0E0E0ECsdARyWrlPtHl_2cc, symObjAddr: 0x60D8, symBinAddr: 0x1000566CC, symSize: 0x44 }
  - { offset: 0x9C326, size: 0x8, addend: 0x0, symName: __RINvXs0_NtNtNtCsfvfooZQ3Axs_4core4iter8adapters3mapINtB6_3MapINtNtNtBc_5slice4iter4IterhENCNvNtCse1nGBsou5OW_5alloc3str13replace_ascii0ENtNtNtBa_6traits8iterator8Iterator4folduNCINvNvB2a_8for_each4callhNCINvMsi_NtB1v_3vecINtB3n_3VechE14extend_trustedBN_E0E0ECsdARyWrlPtHl_2cc, symObjAddr: 0x611C, symBinAddr: 0x100056710, symSize: 0x58 }
  - { offset: 0x9C3BF, size: 0x8, addend: 0x0, symName: __RINvXs0_NtNtNtCsfvfooZQ3Axs_4core4iter8adapters3mapINtB6_3MapNtNtCscOYdFFY2T5N_3std3env10SplitPathsNCNCNvNtNtNtCsdARyWrlPtHl_2cc7windows10find_tools5impl_21find_msvc_environment00ENtNtNtBa_6traits8iterator8Iterator8try_folduNCINvNvB2S_4find5checkNtNtB11_4path7PathBufNCB1B_s_0E0INtNtNtBc_3ops12control_flow11ControlFlowB3W_EEB1L_, symObjAddr: 0x620C, symBinAddr: 0x100056768, symSize: 0x30 }
  - { offset: 0x9C498, size: 0x8, addend: 0x0, symName: __RNvXs0_NtNtNtCsfvfooZQ3Axs_4core4iter8adapters3mapINtB5_3MapINtNtB7_5chain5ChainINtNtB7_6cloned6ClonedINtNtNtBb_5slice4iter4IterRNtNtNtCscOYdFFY2T5N_3std3ffi6os_str5OsStrEEIBN_IB1D_NtNtCse1nGBsou5OW_5alloc6string6StringEINvMsl_B25_B23_3newB2T_EEENvYB22_INtNtBb_7convert4IntoINtNtB2X_5boxed3BoxB23_EE4intoENtNtNtB9_6traits8iterator8Iterator9size_hintCsdARyWrlPtHl_2cc, symObjAddr: 0x8BD8, symBinAddr: 0x100058CB4, symSize: 0x24 }
  - { offset: 0x9C4DF, size: 0x8, addend: 0x0, symName: __RNvXs0_NtNtNtCsfvfooZQ3Axs_4core4iter8adapters3mapINtB5_3MapINtNtB7_6filter6FilterINtNtNtBb_5slice4iter5SplithNtNtBb_3str17IsAsciiWhitespaceENtB1M_15BytesIsNotEmptyENtB1M_16UnsafeBytesToStrENtNtNtB9_6traits8iterator8Iterator4nextCsdARyWrlPtHl_2cc, symObjAddr: 0x8BFC, symBinAddr: 0x100058CD8, symSize: 0x88 }
  - { offset: 0x9C559, size: 0x8, addend: 0x0, symName: __RNvXs0_NtNtNtCsfvfooZQ3Axs_4core4iter8adapters3mapINtB5_3MapINtNtNtBb_3str4iter5SplitcENCNCNvMs4_CsdARyWrlPtHl_2ccNtB1x_5Build23apple_deployment_targets0_00ENtNtNtB9_6traits8iterator8Iterator4nextB1x_, symObjAddr: 0x8C84, symBinAddr: 0x100058D60, symSize: 0x8C }
  - { offset: 0x9C5D3, size: 0x8, addend: 0x0, symName: __RNvXs0_NtNtNtCsfvfooZQ3Axs_4core4iter8adapters3mapINtB5_3MapINtNtNtBb_5slice4iter4IterINtNtCse1nGBsou5OW_5alloc4sync3ArcNtNtCscOYdFFY2T5N_3std4path4PathEENvYB1m_NtNtNtBb_3ops5deref5Deref5derefENtNtNtB9_6traits8iterator8Iterator9size_hintCsdARyWrlPtHl_2cc, symObjAddr: 0x8D8C, symBinAddr: 0x100058DEC, symSize: 0x24 }
  - { offset: 0x9C61A, size: 0x8, addend: 0x0, symName: __RNvXs0_NtNtNtCsfvfooZQ3Axs_4core4iter8adapters3mapINtB5_3MapINtNtNtBb_5slice4iter4IterINtNtCse1nGBsou5OW_5alloc4sync3ArcNtNtNtCscOYdFFY2T5N_3std3ffi6os_str5OsStrEENvYB1m_NtNtNtBb_3ops5deref5Deref5derefENtNtNtB9_6traits8iterator8Iterator4nextCsdARyWrlPtHl_2cc, symObjAddr: 0x8DB0, symBinAddr: 0x100058E10, symSize: 0x7C }
  - { offset: 0x9C694, size: 0x8, addend: 0x0, symName: __RNvXs0_NtNtNtCsfvfooZQ3Axs_4core4iter8adapters3mapINtB5_3MapINtNtNtBb_5slice4iter4IterNtCsdARyWrlPtHl_2cc6ObjectENCNvMs4_B1o_NtB1o_5Build8assemble0ENtNtNtB9_6traits8iterator8Iterator9size_hintB1o_, symObjAddr: 0x8E2C, symBinAddr: 0x100058E8C, symSize: 0x24 }
  - { offset: 0x9C6DB, size: 0x8, addend: 0x0, symName: __RNvXs0_NtNtNtCsfvfooZQ3Axs_4core4iter8adapters3mapINtB5_3MapINtNtNtBb_5slice4iter4IterNtNtCse1nGBsou5OW_5alloc6string6StringEINvMsl_NtNtCscOYdFFY2T5N_3std3ffi6os_strNtB26_5OsStr3newB1m_EENtNtNtB9_6traits8iterator8Iterator9size_hintCsdARyWrlPtHl_2cc, symObjAddr: 0x8E50, symBinAddr: 0x100058EB0, symSize: 0x24 }
  - { offset: 0x9C722, size: 0x8, addend: 0x0, symName: __RNvXs0_NtNtNtCsfvfooZQ3Axs_4core4iter8adapters3mapINtB5_3MapINtNtNtBb_5slice4iter4IterhENCNvNtCse1nGBsou5OW_5alloc3str13replace_ascii0ENtNtNtB9_6traits8iterator8Iterator9size_hintCsdARyWrlPtHl_2cc, symObjAddr: 0x8E74, symBinAddr: 0x100058ED4, symSize: 0x24 }
  - { offset: 0x9C769, size: 0x8, addend: 0x0, symName: __RNvXs0_NtNtNtCsfvfooZQ3Axs_4core4iter8adapters3mapINtB5_3MapNtNtNtBb_3str4iter15SplitWhitespaceNCNvMs4_CsdARyWrlPtHl_2ccNtB1D_5Build8env_tool0ENtNtNtB9_6traits8iterator8Iterator4nextB1D_, symObjAddr: 0x8EBC, symBinAddr: 0x100058EF8, symSize: 0x9C }
  - { offset: 0x9C7E3, size: 0x8, addend: 0x0, symName: __RNvXs0_NtNtNtCsfvfooZQ3Axs_4core4iter8adapters3mapINtB5_3MapNtNtNtBb_3str4iter15SplitWhitespaceNCNvMs4_CsdARyWrlPtHl_2ccNtB1D_5Build8env_tool0ENtNtNtB9_6traits8iterator8Iterator9size_hintB1D_, symObjAddr: 0x8F58, symBinAddr: 0x100058F94, symSize: 0x24 }
  - { offset: 0x9C82A, size: 0x8, addend: 0x0, symName: __RNvXs0_NtNtNtCsfvfooZQ3Axs_4core4iter8adapters3mapINtB5_3MapNtNtNtBb_3str4iter15SplitWhitespaceNCNvMs4_CsdARyWrlPtHl_2ccNtB1D_5Build8env_tools_0ENtNtNtB9_6traits8iterator8Iterator4nextB1D_, symObjAddr: 0x8F7C, symBinAddr: 0x100058FB8, symSize: 0x9C }
  - { offset: 0x9C8A4, size: 0x8, addend: 0x0, symName: __RNvXs0_NtNtNtCsfvfooZQ3Axs_4core4iter8adapters3mapINtB5_3MapNtNtNtBb_3str4iter15SplitWhitespaceNCNvMs4_CsdARyWrlPtHl_2ccNtB1D_5Build8env_tools_0ENtNtNtB9_6traits8iterator8Iterator9size_hintB1D_, symObjAddr: 0x9018, symBinAddr: 0x100059054, symSize: 0x24 }
  - { offset: 0x9C8EB, size: 0x8, addend: 0x0, symName: __RNvXs0_NtNtNtCsfvfooZQ3Axs_4core4iter8adapters3mapINtB5_3MapNtNtNtBb_3str4iter20SplitAsciiWhitespaceNvYeNtNtCse1nGBsou5OW_5alloc6string8ToString9to_stringENtNtNtB9_6traits8iterator8Iterator4nextCsdARyWrlPtHl_2cc, symObjAddr: 0x903C, symBinAddr: 0x100059078, symSize: 0x9C }
  - { offset: 0x9C965, size: 0x8, addend: 0x0, symName: __RNvXs0_NtNtNtCsfvfooZQ3Axs_4core4iter8adapters3mapINtB5_3MapNtNtNtBb_3str4iter20SplitAsciiWhitespaceNvYeNtNtCse1nGBsou5OW_5alloc6string8ToString9to_stringENtNtNtB9_6traits8iterator8Iterator9size_hintCsdARyWrlPtHl_2cc, symObjAddr: 0x90D8, symBinAddr: 0x100059114, symSize: 0x24 }
  - { offset: 0x9CBD9, size: 0x8, addend: 0x0, symName: __RNCINvNtNtNtCsfvfooZQ3Axs_4core4iter8adapters3map12map_try_foldNtNtCscOYdFFY2T5N_3std4path7PathBufBZ_uINtNtNtBa_3ops12control_flow11ControlFlowBZ_ENCNCNvNtNtNtCsdARyWrlPtHl_2cc7windows10find_tools5impl_21find_msvc_environment00NCINvNvNtNtNtB8_6traits8iterator8Iterator4find5checkBZ_NCB2n_s_0E0E0B2x_, symObjAddr: 0x71F0, symBinAddr: 0x100057574, symSize: 0xAC }
  - { offset: 0x9CE2E, size: 0x8, addend: 0x0, symName: __RINvXs_NtNtNtCsfvfooZQ3Axs_4core4iter8adapters6clonedINtB5_6ClonedINtNtNtBb_5slice4iter4IterRNtNtNtCscOYdFFY2T5N_3std3ffi6os_str5OsStrEENtNtNtB9_6traits8iterator8Iterator4folduQNCINvNtB7_3map8map_foldB1s_INtNtCse1nGBsou5OW_5alloc5boxed3BoxB1t_EuNvYB1s_INtNtBb_7convert4IntoB3g_E4intoNCINvNvB2a_8for_each4callB3g_NCINvMsi_NtB3l_3vecINtB59_3VecB3g_E14extend_trustedINtB2U_3MapINtNtB7_5chain5ChainBP_IB5Q_IB13_NtNtB3l_6string6StringEINvMsl_B1v_B1t_3newB6x_EEEB3V_EE0E0E0ECsdARyWrlPtHl_2cc, symObjAddr: 0x623C, symBinAddr: 0x100056798, symSize: 0xB8 }
  - { offset: 0x9CEC3, size: 0x8, addend: 0x0, symName: __RNvXs_NtNtNtCsfvfooZQ3Axs_4core4iter8adapters6clonedINtB4_6ClonedINtNtNtBa_5slice4iter4IterRNtNtNtCscOYdFFY2T5N_3std3ffi6os_str5OsStrEENtNtNtB8_6traits8iterator8Iterator9size_hintCsdARyWrlPtHl_2cc, symObjAddr: 0x96C4, symBinAddr: 0x100059690, symSize: 0x24 }
  - { offset: 0x9D1C5, size: 0x8, addend: 0x0, symName: __RINvYINtNtNtNtCsfvfooZQ3Axs_4core4iter8adapters3map3MapINtNtB8_5chain5ChainINtNtB8_6cloned6ClonedINtNtNtBc_5slice4iter4IterRNtNtNtCscOYdFFY2T5N_3std3ffi6os_str5OsStrEEIB4_IB1y_NtNtCse1nGBsou5OW_5alloc6string6StringEINvMsl_B20_B1Y_3newB2O_EEENvYB1X_INtNtBc_7convert4IntoINtNtB2S_5boxed3BoxB1Y_EE4intoENtNtNtBa_6traits8iterator8Iterator7collectIB4k_SB4j_EECsdARyWrlPtHl_2cc, symObjAddr: 0x62F4, symBinAddr: 0x100056850, symSize: 0x14 }
  - { offset: 0x9D206, size: 0x8, addend: 0x0, symName: __RINvYINtNtNtNtCsfvfooZQ3Axs_4core4iter8adapters3map3MapINtNtB8_5chain5ChainINtNtB8_6cloned6ClonedINtNtNtBc_5slice4iter4IterRNtNtNtCscOYdFFY2T5N_3std3ffi6os_str5OsStrEEIB4_IB1y_NtNtCse1nGBsou5OW_5alloc6string6StringEINvMsl_B20_B1Y_3newB2O_EEENvYB1X_INtNtBc_7convert4IntoINtNtB2S_5boxed3BoxB1Y_EE4intoENtNtNtBa_6traits8iterator8Iterator7collectINtNtB2S_3vec3VecB4j_EECsdARyWrlPtHl_2cc, symObjAddr: 0x6308, symBinAddr: 0x100056864, symSize: 0x1C }
  - { offset: 0x9D247, size: 0x8, addend: 0x0, symName: __RINvYINtNtNtNtCsfvfooZQ3Axs_4core4iter8adapters3map3MapINtNtB8_5chain5ChainINtNtB8_6cloned6ClonedINtNtNtBc_5slice4iter4IterRNtNtNtCscOYdFFY2T5N_3std3ffi6os_str5OsStrEEIB4_IB1y_NtNtCse1nGBsou5OW_5alloc6string6StringEINvMsl_B20_B1Y_3newB2O_EEENvYB1X_INtNtBc_7convert4IntoINtNtB2S_5boxed3BoxB1Y_EE4intoENtNtNtBa_6traits8iterator8Iterator8for_eachNCINvMsi_NtB2S_3vecINtB5E_3VecB4j_E14extend_trustedB3_E0ECsdARyWrlPtHl_2cc, symObjAddr: 0x6324, symBinAddr: 0x100056880, symSize: 0x34 }
  - { offset: 0x9D2B3, size: 0x8, addend: 0x0, symName: __RINvYINtNtNtNtCsfvfooZQ3Axs_4core4iter8adapters3map3MapINtNtNtBc_5slice4iter4IterNtCsdARyWrlPtHl_2cc6ObjectENCNvMs4_B1j_NtB1j_5Build8assemble0ENtNtNtBa_6traits8iterator8Iterator5chainIB4_IBS_INtNtCse1nGBsou5OW_5alloc4sync3ArcNtNtCscOYdFFY2T5N_3std4path4PathEENvYB33_NtNtNtBc_3ops5deref5Deref5derefEEB1j_, symObjAddr: 0x63DC, symBinAddr: 0x1000568B4, symSize: 0xD8 }
  - { offset: 0x9D329, size: 0x8, addend: 0x0, symName: __RINvYINtNtNtNtCsfvfooZQ3Axs_4core4iter8adapters3map3MapINtNtNtBc_5slice4iter4IterhENCNvNtCse1nGBsou5OW_5alloc3str13replace_ascii0ENtNtNtBa_6traits8iterator8Iterator8for_eachNCINvMsi_NtB1p_3vecINtB2U_3VechE14extend_trustedB3_E0ECsdARyWrlPtHl_2cc, symObjAddr: 0x64B4, symBinAddr: 0x10005698C, symSize: 0x34 }
  - { offset: 0x9D395, size: 0x8, addend: 0x0, symName: __RINvYINtNtNtNtCsfvfooZQ3Axs_4core4iter8adapters3map3MapNtNtCscOYdFFY2T5N_3std3env10SplitPathsNCNCNvNtNtNtCsdARyWrlPtHl_2cc7windows10find_tools5impl_21find_msvc_environment00ENtNtNtBa_6traits8iterator8Iterator4findNCB1v_s_0EB1F_, symObjAddr: 0x6538, symBinAddr: 0x1000569C0, symSize: 0xA4 }
  - { offset: 0x9D410, size: 0x8, addend: 0x0, symName: __RINvYINtNtNtNtCsfvfooZQ3Axs_4core4iter8adapters3map3MapNtNtNtBc_3str4iter15SplitWhitespaceNCNvMs4_CsdARyWrlPtHl_2ccNtB1y_5Build8env_tool0ENtNtNtBa_6traits8iterator8Iterator7collectINtNtCse1nGBsou5OW_5alloc3vec3VecNtNtB2X_6string6StringEEB1y_, symObjAddr: 0x65DC, symBinAddr: 0x100056A64, symSize: 0x1C }
  - { offset: 0x9D451, size: 0x8, addend: 0x0, symName: __RINvYINtNtNtNtCsfvfooZQ3Axs_4core4iter8adapters3map3MapNtNtNtBc_3str4iter15SplitWhitespaceNCNvMs4_CsdARyWrlPtHl_2ccNtB1y_5Build8env_tools_0ENtNtNtBa_6traits8iterator8Iterator7collectINtNtCse1nGBsou5OW_5alloc3vec3VecNtNtB2Z_6string6StringEEB1y_, symObjAddr: 0x65F8, symBinAddr: 0x100056A80, symSize: 0x1C }
  - { offset: 0x9D492, size: 0x8, addend: 0x0, symName: __RINvYINtNtNtNtCsfvfooZQ3Axs_4core4iter8adapters6cloned6ClonedINtNtNtBc_5slice4iter4IterRNtNtNtCscOYdFFY2T5N_3std3ffi6os_str5OsStrEENtNtNtBa_6traits8iterator8Iterator5chainINtNtB8_3map3MapIBY_NtNtCse1nGBsou5OW_5alloc6string6StringEINvMsl_B1q_B1o_3newB33_EEECsdARyWrlPtHl_2cc, symObjAddr: 0x6614, symBinAddr: 0x100056A9C, symSize: 0xD8 }
  - { offset: 0x9D508, size: 0x8, addend: 0x0, symName: __RINvYNtNtCscOYdFFY2T5N_3std3env10SplitPathsNtNtNtNtCsfvfooZQ3Axs_4core4iter6traits8iterator8Iterator3mapNtNtB7_4path7PathBufNCNCNvNtNtNtCsdARyWrlPtHl_2cc7windows10find_tools5impl_21find_msvc_environment00EB2a_, symObjAddr: 0x66EC, symBinAddr: 0x100056B74, symSize: 0x4C }
  - { offset: 0x9D576, size: 0x8, addend: 0x0, symName: __RINvYNtNtCscOYdFFY2T5N_3std3env10SplitPathsNtNtNtNtCsfvfooZQ3Axs_4core4iter6traits8iterator8Iterator4findNCNCNvMs4_CsdARyWrlPtHl_2ccNtB1P_5Build11try_compiles_00EB1P_, symObjAddr: 0x6738, symBinAddr: 0x100056BC0, symSize: 0xA4 }
  - { offset: 0x9D5F1, size: 0x8, addend: 0x0, symName: __RINvYNtNtCscOYdFFY2T5N_3std3env10SplitPathsNtNtNtNtCsfvfooZQ3Axs_4core4iter6traits8iterator8Iterator8find_mapNtNtB7_4path7PathBufNCNCNvMs4_CsdARyWrlPtHl_2ccNtB2d_5Build5which00EB2d_, symObjAddr: 0x67DC, symBinAddr: 0x100056C64, symSize: 0xAC }
  - { offset: 0x9D6E0, size: 0x8, addend: 0x0, symName: __RINvYNtNtCscOYdFFY2T5N_3std3env10SplitPathsNtNtNtNtCsfvfooZQ3Axs_4core4iter6traits8iterator8Iterator8find_mapRReNCNCNvMs4_CsdARyWrlPtHl_2ccNtB1W_5Build23find_working_gnu_prefix00EB1W_, symObjAddr: 0x6888, symBinAddr: 0x100056D10, symSize: 0x8C }
  - { offset: 0x9D784, size: 0x8, addend: 0x0, symName: __RINvYNtNtCscOYdFFY2T5N_3std3env10SplitPathsNtNtNtNtCsfvfooZQ3Axs_4core4iter6traits8iterator8Iterator8try_folduNCINvNtNtBL_8adapters3map12map_try_foldNtNtB7_4path7PathBufB2n_uINtNtNtBN_3ops12control_flow11ControlFlowB2n_ENCNCNvNtNtNtCsdARyWrlPtHl_2cc7windows10find_tools5impl_21find_msvc_environment00NCINvNvBF_4find5checkB2n_NCB3y_s_0E0E0B2M_EB3I_, symObjAddr: 0x6914, symBinAddr: 0x100056D9C, symSize: 0x164 }
  - { offset: 0x9D840, size: 0x8, addend: 0x0, symName: __RINvYNtNtCscOYdFFY2T5N_3std3env10SplitPathsNtNtNtNtCsfvfooZQ3Axs_4core4iter6traits8iterator8Iterator8try_folduNCINvNvBF_4find5checkNtNtB7_4path7PathBufNCNCNvMs4_CsdARyWrlPtHl_2ccNtB2z_5Build11try_compiles_00E0INtNtNtBN_3ops12control_flow11ControlFlowB25_EEB2z_, symObjAddr: 0x6A78, symBinAddr: 0x100056F00, symSize: 0x17C }
  - { offset: 0x9D8FC, size: 0x8, addend: 0x0, symName: __RINvYNtNtCscOYdFFY2T5N_3std3env10SplitPathsNtNtNtNtCsfvfooZQ3Axs_4core4iter6traits8iterator8Iterator8try_folduNCINvNvBF_8find_map5checkNtNtB7_4path7PathBufB29_NCNCNvMs4_CsdARyWrlPtHl_2ccNtB2H_5Build5which00E0INtNtNtBN_3ops12control_flow11ControlFlowB29_EEB2H_, symObjAddr: 0x6BF4, symBinAddr: 0x10005707C, symSize: 0x164 }
  - { offset: 0x9D9B8, size: 0x8, addend: 0x0, symName: __RINvYNtNtCscOYdFFY2T5N_3std3env10SplitPathsNtNtNtNtCsfvfooZQ3Axs_4core4iter6traits8iterator8Iterator8try_folduNCINvNvBF_8find_map5checkNtNtB7_4path7PathBufRReNCNCNvMs4_CsdARyWrlPtHl_2ccNtB2G_5Build23find_working_gnu_prefix00E0INtNtNtBN_3ops12control_flow11ControlFlowB2t_EEB2G_, symObjAddr: 0x6D58, symBinAddr: 0x1000571E0, symSize: 0x164 }
  - { offset: 0x9DA74, size: 0x8, addend: 0x0, symName: __RINvYNtNtNtCsfvfooZQ3Axs_4core3ops11index_range10IndexRangeNtNtNtNtB9_4iter6traits8iterator8Iterator8try_foldhNCINvMNtB7_9try_traitINtB1Q_17NeverShortCircuithE10wrap_mut_2hjNCINvXs0_NtNtB9_5array4iterINtB2U_8IntoIterbKj20_EBV_4foldhNCINvNtNtB11_8adapters3map8map_foldbhhNCNvXNtNtB9_3str4iterNtB4p_5CharsBV_10advance_by0NCINvXsq_NtBZ_5accumhNtB5g_3Sum3sumINtB3N_3MapB3c_B4k_EE0E0E0E0B25_ECsdARyWrlPtHl_2cc, symObjAddr: 0x6EBC, symBinAddr: 0x100057344, symSize: 0x138 }
  - { offset: 0x9DB12, size: 0x8, addend: 0x0, symName: __RINvYNtNtNtCsfvfooZQ3Axs_4core3ops11index_range10IndexRangeNtNtNtNtB9_4iter6traits8iterator8Iterator8try_folduNCINvMNtB7_9try_traitINtB1Q_17NeverShortCircuituE10wrap_mut_2ujNCINvXs0_NtNtB9_5array4iterINtB2U_8IntoIterNtNtNtCscOYdFFY2T5N_3std3ffi6os_str8OsStringKj6_EBV_4folduNCINvNvBV_8for_each4callB3s_NCINvMsi_NtCse1nGBsou5OW_5alloc3vecINtB4Z_3VecB3s_E14extend_trustedB3c_E0E0E0E0B25_ECsdARyWrlPtHl_2cc, symObjAddr: 0x6FF4, symBinAddr: 0x10005747C, symSize: 0xF8 }
  - { offset: 0x9DBE8, size: 0x8, addend: 0x0, symName: __RNvXNtNtNtCsfvfooZQ3Axs_4core4iter6traits7collectINtNtNtB6_8adapters3map3MapINtNtBQ_5chain5ChainINtNtBQ_6cloned6ClonedINtNtNtB8_5slice4iter4IterRNtNtNtCscOYdFFY2T5N_3std3ffi6os_str5OsStrEEIBM_IB1T_NtNtCse1nGBsou5OW_5alloc6string6StringEINvMsl_B2l_B2j_3newB39_EEENvYB2i_INtNtB8_7convert4IntoINtNtB3d_5boxed3BoxB2j_EE4intoENtB2_12IntoIterator9into_iterCsdARyWrlPtHl_2cc, symObjAddr: 0x89EC, symBinAddr: 0x100058BB8, symSize: 0x14 }
  - { offset: 0x9DC1F, size: 0x8, addend: 0x0, symName: __RNvXNtNtNtCsfvfooZQ3Axs_4core4iter6traits7collectINtNtNtB6_8adapters3map3MapINtNtNtB8_5slice4iter4IterINtNtCse1nGBsou5OW_5alloc4sync3ArcNtNtCscOYdFFY2T5N_3std4path4PathEENvYB1C_NtNtNtB8_3ops5deref5Deref5derefENtB2_12IntoIterator9into_iterCsdARyWrlPtHl_2cc, symObjAddr: 0x8A00, symBinAddr: 0x100058BCC, symSize: 0x1C }
  - { offset: 0x9DC56, size: 0x8, addend: 0x0, symName: __RNvXNtNtNtCsfvfooZQ3Axs_4core4iter6traits7collectINtNtNtB6_8adapters3map3MapINtNtNtB8_5slice4iter4IterINtNtCse1nGBsou5OW_5alloc4sync3ArcNtNtNtCscOYdFFY2T5N_3std3ffi6os_str5OsStrEENvYB1C_NtNtNtB8_3ops5deref5Deref5derefENtB2_12IntoIterator9into_iterCsdARyWrlPtHl_2cc, symObjAddr: 0x8A1C, symBinAddr: 0x100058BE8, symSize: 0x1C }
  - { offset: 0x9DC8D, size: 0x8, addend: 0x0, symName: __RNvXNtNtNtCsfvfooZQ3Axs_4core4iter6traits7collectINtNtNtB6_8adapters3map3MapINtNtNtB8_5slice4iter4IterNtNtCse1nGBsou5OW_5alloc6string6StringEINvMsl_NtNtCscOYdFFY2T5N_3std3ffi6os_strNtB2m_5OsStr3newB1C_EENtB2_12IntoIterator9into_iterCsdARyWrlPtHl_2cc, symObjAddr: 0x8A38, symBinAddr: 0x100058C04, symSize: 0x1C }
  - { offset: 0x9DCC4, size: 0x8, addend: 0x0, symName: __RNvXNtNtNtCsfvfooZQ3Axs_4core4iter6traits7collectINtNtNtB6_8adapters3map3MapNtNtNtB8_3str4iter15SplitWhitespaceNCNvMs4_CsdARyWrlPtHl_2ccNtB1T_5Build8env_tool0ENtB2_12IntoIterator9into_iterB1T_, symObjAddr: 0x8A7C, symBinAddr: 0x100058C20, symSize: 0x30 }
  - { offset: 0x9DCFC, size: 0x8, addend: 0x0, symName: __RNvXNtNtNtCsfvfooZQ3Axs_4core4iter6traits7collectINtNtNtB6_8adapters3map3MapNtNtNtB8_3str4iter15SplitWhitespaceNCNvMs4_CsdARyWrlPtHl_2ccNtB1T_5Build8env_tools_0ENtB2_12IntoIterator9into_iterB1T_, symObjAddr: 0x8AAC, symBinAddr: 0x100058C50, symSize: 0x30 }
  - { offset: 0x9DD34, size: 0x8, addend: 0x0, symName: __RNvXNtNtNtCsfvfooZQ3Axs_4core4iter6traits7collectINtNtNtB6_8adapters3map3MapNtNtNtB8_3str4iter20SplitAsciiWhitespaceNvYeNtNtCse1nGBsou5OW_5alloc6string8ToString9to_stringENtB2_12IntoIterator9into_iterCsdARyWrlPtHl_2cc, symObjAddr: 0x8ADC, symBinAddr: 0x100058C80, symSize: 0x18 }
  - { offset: 0x9E4D3, size: 0x8, addend: 0x0, symName: __RNcNtINtNtNtCsfvfooZQ3Axs_4core3ops12control_flow11ControlFlowuNtNtBa_3cmp8OrderingE5Break0CsdARyWrlPtHl_2cc, symObjAddr: 0x7C04, symBinAddr: 0x100057E44, symSize: 0x18 }
  - { offset: 0x9E594, size: 0x8, addend: 0x0, symName: __RNvXNtNtCsfvfooZQ3Axs_4core3ops12control_flowINtB2_11ControlFlowIBI_uNtNtB6_3cmp8OrderingEENtNtB4_9try_trait3Try11from_outputCsdARyWrlPtHl_2cc, symObjAddr: 0x86B4, symBinAddr: 0x1000588F4, symSize: 0x18 }
  - { offset: 0x9E5D2, size: 0x8, addend: 0x0, symName: __RNvXNtNtCsfvfooZQ3Axs_4core3ops12control_flowINtB2_11ControlFlowIBI_uNtNtB6_3cmp8OrderingEENtNtB4_9try_trait3Try6branchCsdARyWrlPtHl_2cc, symObjAddr: 0x86CC, symBinAddr: 0x10005890C, symSize: 0x4C }
  - { offset: 0x9E64A, size: 0x8, addend: 0x0, symName: __RNvXNtNtCsfvfooZQ3Axs_4core3ops12control_flowINtB2_11ControlFlowNtNtCscOYdFFY2T5N_3std4path7PathBufENtNtB4_9try_trait3Try11from_outputCsdARyWrlPtHl_2cc, symObjAddr: 0x878C, symBinAddr: 0x100058958, symSize: 0x18 }
  - { offset: 0x9E688, size: 0x8, addend: 0x0, symName: __RNvXNtNtCsfvfooZQ3Axs_4core3ops12control_flowINtB2_11ControlFlowNtNtCscOYdFFY2T5N_3std4path7PathBufENtNtB4_9try_trait3Try6branchCsdARyWrlPtHl_2cc, symObjAddr: 0x87A4, symBinAddr: 0x100058970, symSize: 0x78 }
  - { offset: 0x9E702, size: 0x8, addend: 0x0, symName: __RNvXNtNtCsfvfooZQ3Axs_4core3ops12control_flowINtB2_11ControlFlowRReENtNtB4_9try_trait3Try11from_outputCsdARyWrlPtHl_2cc, symObjAddr: 0x881C, symBinAddr: 0x1000589E8, symSize: 0x14 }
  - { offset: 0x9E740, size: 0x8, addend: 0x0, symName: __RNvXNtNtCsfvfooZQ3Axs_4core3ops12control_flowINtB2_11ControlFlowRReENtNtB4_9try_trait3Try6branchCsdARyWrlPtHl_2cc, symObjAddr: 0x8830, symBinAddr: 0x1000589FC, symSize: 0x48 }
  - { offset: 0x9E7B8, size: 0x8, addend: 0x0, symName: __RNvXNtNtCsfvfooZQ3Axs_4core3ops12control_flowINtB2_11ControlFlowRShENtNtB4_9try_trait3Try11from_outputCsdARyWrlPtHl_2cc, symObjAddr: 0x8878, symBinAddr: 0x100058A44, symSize: 0x18 }
  - { offset: 0x9E7F6, size: 0x8, addend: 0x0, symName: __RNvXNtNtCsfvfooZQ3Axs_4core3ops12control_flowINtB2_11ControlFlowRShENtNtB4_9try_trait3Try6branchCsdARyWrlPtHl_2cc, symObjAddr: 0x8890, symBinAddr: 0x100058A5C, symSize: 0x64 }
  - { offset: 0x9E86F, size: 0x8, addend: 0x0, symName: __RNvXNtNtCsfvfooZQ3Axs_4core3ops12control_flowINtB2_11ControlFlowReENtNtB4_9try_trait3Try11from_outputCsdARyWrlPtHl_2cc, symObjAddr: 0x88F4, symBinAddr: 0x100058AC0, symSize: 0x18 }
  - { offset: 0x9E8AD, size: 0x8, addend: 0x0, symName: __RNvXNtNtCsfvfooZQ3Axs_4core3ops12control_flowINtB2_11ControlFlowReENtNtB4_9try_trait3Try6branchCsdARyWrlPtHl_2cc, symObjAddr: 0x890C, symBinAddr: 0x100058AD8, symSize: 0x64 }
  - { offset: 0x9E926, size: 0x8, addend: 0x0, symName: __RNvXNtNtCsfvfooZQ3Axs_4core3ops12control_flowINtB2_11ControlFlowTjRNtNtNtNtCscOYdFFY2T5N_3std4sync4mpmc5waker5EntryEENtNtB4_9try_trait3Try11from_outputCsdARyWrlPtHl_2cc, symObjAddr: 0x8970, symBinAddr: 0x100058B3C, symSize: 0x18 }
  - { offset: 0x9E964, size: 0x8, addend: 0x0, symName: __RNvXNtNtCsfvfooZQ3Axs_4core3ops12control_flowINtB2_11ControlFlowTjRNtNtNtNtCscOYdFFY2T5N_3std4sync4mpmc5waker5EntryEENtNtB4_9try_trait3Try6branchCsdARyWrlPtHl_2cc, symObjAddr: 0x8988, symBinAddr: 0x100058B54, symSize: 0x64 }
  - { offset: 0x9E9E3, size: 0x8, addend: 0x0, symName: __RNvXs_NtNtCsfvfooZQ3Axs_4core3ops12control_flowINtB4_11ControlFlowIBK_uNtNtB8_3cmp8OrderingEEINtNtB6_9try_trait12FromResidualIBK_B12_NtNtB8_7convert10InfallibleEE13from_residualCsdARyWrlPtHl_2cc, symObjAddr: 0x95B8, symBinAddr: 0x1000595A4, symSize: 0x1C }
  - { offset: 0x9EA21, size: 0x8, addend: 0x0, symName: __RNvXs_NtNtCsfvfooZQ3Axs_4core3ops12control_flowINtB4_11ControlFlowNtNtCscOYdFFY2T5N_3std4path7PathBufEINtNtB6_9try_trait12FromResidualIBK_B12_NtNtB8_7convert10InfallibleEE13from_residualCsdARyWrlPtHl_2cc, symObjAddr: 0x95F4, symBinAddr: 0x1000595C0, symSize: 0x30 }
  - { offset: 0x9EA5F, size: 0x8, addend: 0x0, symName: __RNvXs_NtNtCsfvfooZQ3Axs_4core3ops12control_flowINtB4_11ControlFlowRReEINtNtB6_9try_trait12FromResidualIBK_B12_NtNtB8_7convert10InfallibleEE13from_residualCsdARyWrlPtHl_2cc, symObjAddr: 0x9624, symBinAddr: 0x1000595F0, symSize: 0x1C }
  - { offset: 0x9EA9D, size: 0x8, addend: 0x0, symName: __RNvXs_NtNtCsfvfooZQ3Axs_4core3ops12control_flowINtB4_11ControlFlowRShEINtNtB6_9try_trait12FromResidualIBK_B12_NtNtB8_7convert10InfallibleEE13from_residualCsdARyWrlPtHl_2cc, symObjAddr: 0x9640, symBinAddr: 0x10005960C, symSize: 0x2C }
  - { offset: 0x9EADB, size: 0x8, addend: 0x0, symName: __RNvXs_NtNtCsfvfooZQ3Axs_4core3ops12control_flowINtB4_11ControlFlowReEINtNtB6_9try_trait12FromResidualIBK_B12_NtNtB8_7convert10InfallibleEE13from_residualCsdARyWrlPtHl_2cc, symObjAddr: 0x966C, symBinAddr: 0x100059638, symSize: 0x2C }
  - { offset: 0x9EB19, size: 0x8, addend: 0x0, symName: __RNvXs_NtNtCsfvfooZQ3Axs_4core3ops12control_flowINtB4_11ControlFlowTjRNtNtNtNtCscOYdFFY2T5N_3std4sync4mpmc5waker5EntryEEINtNtB6_9try_trait12FromResidualIBK_B12_NtNtB8_7convert10InfallibleEE13from_residualCsdARyWrlPtHl_2cc, symObjAddr: 0x9698, symBinAddr: 0x100059664, symSize: 0x2C }
  - { offset: 0x9F391, size: 0x8, addend: 0x0, symName: __RNSNvYNCINvMs0_NtNtNtCscOYdFFY2T5N_3std4sync6poison4onceNtBd_4Once9call_onceNCINvMs1_NtCsdARyWrlPtHl_2cc9utilitiesINtB1l_8OnceLockINtNtCsfvfooZQ3Axs_4core6result6ResultNtNtNtB1n_6target6parser21TargetInfoParserInnerNtB1n_5ErrorEE11get_or_initNvMB2I_B2G_32from_cargo_environment_variablesE0E0INtNtNtB29_3ops8function6FnOnceTRNtBd_9OnceStateEE9call_once6vtableB1n_, symObjAddr: 0x7820, symBinAddr: 0x100057A60, symSize: 0x30 }
  - { offset: 0x9F3D1, size: 0x8, addend: 0x0, symName: __RNSNvYNCINvMs0_NtNtNtCscOYdFFY2T5N_3std4sync6poison4onceNtBd_4Once9call_onceNCINvMs1_NtCsdARyWrlPtHl_2cc9utilitiesINtB1l_8OnceLockNtNtNtB1n_8parallel9job_token14JobTokenServerE11get_or_initNCNvMs0_B26_B24_3new0E0E0INtNtNtCsfvfooZQ3Axs_4core3ops8function6FnOnceTRNtBd_9OnceStateEE9call_once6vtableB1n_, symObjAddr: 0x7850, symBinAddr: 0x100057A90, symSize: 0x30 }
  - { offset: 0x9F411, size: 0x8, addend: 0x0, symName: __RNSNvYNCINvMs6_NtCsloNvcHxBCre_9hashbrown3rawINtBd_8RawTableTINtNtCse1nGBsou5OW_5alloc5boxed3BoxSIBY_NtNtNtCscOYdFFY2T5N_3std3ffi6os_str5OsStrEENtNtCsdARyWrlPtHl_2cc4tool10ToolFamilyEE14reserve_rehashNCINvNtBf_3map11make_hasherBX_B2i_NtNtNtB1H_4hash6random11RandomStateE0E0INtNtNtCsfvfooZQ3Axs_4core3ops8function6FnOnceTQNtBd_13RawTableInnerjEE9call_once6vtableB2m_, symObjAddr: 0x7880, symBinAddr: 0x100057AC0, symSize: 0x38 }
  - { offset: 0x9F455, size: 0x8, addend: 0x0, symName: __RNSNvYNCINvMs6_NtCsloNvcHxBCre_9hashbrown3rawINtBd_8RawTableTINtNtCse1nGBsou5OW_5alloc5boxed3BoxSIBY_NtNtNtCscOYdFFY2T5N_3std3ffi6os_str5OsStrEENtNtCsdARyWrlPtHl_2cc4tool10ToolFamilyEE24find_or_find_insert_slotNCINvNtBf_3map14equivalent_keyBX_BX_B2i_E0NCINvB3r_11make_hasherBX_B2i_NtNtNtB1H_4hash6random11RandomStateE0E0INtNtNtCsfvfooZQ3Axs_4core3ops8function6FnOnceTjEE9call_once6vtableB2m_, symObjAddr: 0x78B8, symBinAddr: 0x100057AF8, symSize: 0x38 }
  - { offset: 0x9F499, size: 0x8, addend: 0x0, symName: __RNSNvYNCINvMs6_NtCsloNvcHxBCre_9hashbrown3rawINtBd_8RawTableTINtNtCse1nGBsou5OW_5alloc5boxed3BoxSIBY_NtNtNtCscOYdFFY2T5N_3std3ffi6os_str5OsStrEENtNtCsdARyWrlPtHl_2cc4tool10ToolFamilyEE4findNCINvNtBf_3map14equivalent_keyBX_BX_B2i_E0E0INtNtNtCsfvfooZQ3Axs_4core3ops8function6FnOnceTjEE9call_once6vtableB2m_, symObjAddr: 0x78F0, symBinAddr: 0x100057B30, symSize: 0x38 }
  - { offset: 0x9F4DD, size: 0x8, addend: 0x0, symName: __RNSNvYNCINvMs6_NtCsloNvcHxBCre_9hashbrown3rawINtBd_8RawTableTINtNtCse1nGBsou5OW_5alloc5boxed3BoxeEINtNtB12_4sync3ArcNtNtNtCscOYdFFY2T5N_3std3ffi6os_str5OsStrEEE14reserve_rehashNCINvNtBf_3map11make_hasherBX_B1y_NtNtNtB1W_4hash6random11RandomStateE0E0INtNtNtCsfvfooZQ3Axs_4core3ops8function6FnOnceTQNtBd_13RawTableInnerjEE9call_once6vtableCsdARyWrlPtHl_2cc, symObjAddr: 0x7928, symBinAddr: 0x100057B68, symSize: 0x38 }
  - { offset: 0x9F521, size: 0x8, addend: 0x0, symName: __RNSNvYNCINvMs6_NtCsloNvcHxBCre_9hashbrown3rawINtBd_8RawTableTINtNtCse1nGBsou5OW_5alloc5boxed3BoxeEINtNtB12_4sync3ArcNtNtNtCscOYdFFY2T5N_3std3ffi6os_str5OsStrEEE24find_or_find_insert_slotNCINvNtBf_3map14equivalent_keyBX_BX_B1y_E0NCINvB33_11make_hasherBX_B1y_NtNtNtB1W_4hash6random11RandomStateE0E0INtNtNtCsfvfooZQ3Axs_4core3ops8function6FnOnceTjEE9call_once6vtableCsdARyWrlPtHl_2cc, symObjAddr: 0x7960, symBinAddr: 0x100057BA0, symSize: 0x38 }
  - { offset: 0x9F565, size: 0x8, addend: 0x0, symName: __RNSNvYNCINvMs6_NtCsloNvcHxBCre_9hashbrown3rawINtBd_8RawTableTINtNtCse1nGBsou5OW_5alloc5boxed3BoxeEINtNtB12_4sync3ArcNtNtNtCscOYdFFY2T5N_3std3ffi6os_str5OsStrEEE4findNCINvNtBf_3map14equivalent_keyeBX_B1y_E0E0INtNtNtCsfvfooZQ3Axs_4core3ops8function6FnOnceTjEE9call_once6vtableCsdARyWrlPtHl_2cc, symObjAddr: 0x7998, symBinAddr: 0x100057BD8, symSize: 0x38 }
  - { offset: 0x9F5A9, size: 0x8, addend: 0x0, symName: __RNSNvYNCINvMs6_NtCsloNvcHxBCre_9hashbrown3rawINtBd_8RawTableTINtNtCse1nGBsou5OW_5alloc5boxed3BoxeEINtNtB12_4sync3ArceEEE14reserve_rehashNCINvNtBf_3map11make_hasherBX_B1y_NtNtNtCscOYdFFY2T5N_3std4hash6random11RandomStateE0E0INtNtNtCsfvfooZQ3Axs_4core3ops8function6FnOnceTQNtBd_13RawTableInnerjEE9call_once6vtableCsdARyWrlPtHl_2cc, symObjAddr: 0x79D0, symBinAddr: 0x100057C10, symSize: 0x38 }
  - { offset: 0x9F5ED, size: 0x8, addend: 0x0, symName: __RNSNvYNCINvMs6_NtCsloNvcHxBCre_9hashbrown3rawINtBd_8RawTableTINtNtCse1nGBsou5OW_5alloc5boxed3BoxeEINtNtB12_4sync3ArceEEE24find_or_find_insert_slotNCINvNtBf_3map14equivalent_keyBX_BX_B1y_E0NCINvB2p_11make_hasherBX_B1y_NtNtNtCscOYdFFY2T5N_3std4hash6random11RandomStateE0E0INtNtNtCsfvfooZQ3Axs_4core3ops8function6FnOnceTjEE9call_once6vtableCsdARyWrlPtHl_2cc, symObjAddr: 0x7A08, symBinAddr: 0x100057C48, symSize: 0x38 }
  - { offset: 0x9F631, size: 0x8, addend: 0x0, symName: __RNSNvYNCINvMs6_NtCsloNvcHxBCre_9hashbrown3rawINtBd_8RawTableTINtNtCse1nGBsou5OW_5alloc5boxed3BoxeEINtNtB12_4sync3ArceEEE4findNCINvNtBf_3map14equivalent_keyeBX_B1y_E0E0INtNtNtCsfvfooZQ3Axs_4core3ops8function6FnOnceTjEE9call_once6vtableCsdARyWrlPtHl_2cc, symObjAddr: 0x7A40, symBinAddr: 0x100057C80, symSize: 0x38 }
  - { offset: 0x9F675, size: 0x8, addend: 0x0, symName: __RNSNvYNCINvMs6_NtCsloNvcHxBCre_9hashbrown3rawINtBd_8RawTableTINtNtCse1nGBsou5OW_5alloc5boxed3BoxeEINtNtCsfvfooZQ3Axs_4core6option6OptionINtNtB12_4sync3ArcNtNtNtCscOYdFFY2T5N_3std3ffi6os_str5OsStrEEEE14reserve_rehashNCINvNtBf_3map11make_hasherBX_B1y_NtNtNtB2y_4hash6random11RandomStateE0E0INtNtNtB1D_3ops8function6FnOnceTQNtBd_13RawTableInnerjEE9call_once6vtableCsdARyWrlPtHl_2cc, symObjAddr: 0x7A78, symBinAddr: 0x100057CB8, symSize: 0x38 }
  - { offset: 0x9F6B9, size: 0x8, addend: 0x0, symName: __RNSNvYNCINvMs6_NtCsloNvcHxBCre_9hashbrown3rawINtBd_8RawTableTINtNtCse1nGBsou5OW_5alloc5boxed3BoxeEINtNtCsfvfooZQ3Axs_4core6option6OptionINtNtB12_4sync3ArcNtNtNtCscOYdFFY2T5N_3std3ffi6os_str5OsStrEEEE24find_or_find_insert_slotNCINvNtBf_3map14equivalent_keyBX_BX_B1y_E0NCINvB3G_11make_hasherBX_B1y_NtNtNtB2y_4hash6random11RandomStateE0E0INtNtNtB1D_3ops8function6FnOnceTjEE9call_once6vtableCsdARyWrlPtHl_2cc, symObjAddr: 0x7AB0, symBinAddr: 0x100057CF0, symSize: 0x38 }
  - { offset: 0x9F6FD, size: 0x8, addend: 0x0, symName: __RNSNvYNCINvMs6_NtCsloNvcHxBCre_9hashbrown3rawINtBd_8RawTableTINtNtCse1nGBsou5OW_5alloc5boxed3BoxeEINtNtCsfvfooZQ3Axs_4core6option6OptionINtNtB12_4sync3ArcNtNtNtCscOYdFFY2T5N_3std3ffi6os_str5OsStrEEEE4findNCINvNtBf_3map14equivalent_keyeBX_B1y_E0E0INtNtNtB1D_3ops8function6FnOnceTjEE9call_once6vtableCsdARyWrlPtHl_2cc, symObjAddr: 0x7AE8, symBinAddr: 0x100057D28, symSize: 0x38 }
  - { offset: 0x9F741, size: 0x8, addend: 0x0, symName: __RNSNvYNCINvMs6_NtCsloNvcHxBCre_9hashbrown3rawINtBd_8RawTableTNtCsdARyWrlPtHl_2cc12CompilerFlagbEE14reserve_rehashNCINvNtBf_3map11make_hasherBX_bNtNtNtCscOYdFFY2T5N_3std4hash6random11RandomStateE0E0INtNtNtCsfvfooZQ3Axs_4core3ops8function6FnOnceTQNtBd_13RawTableInnerjEE9call_once6vtableBZ_, symObjAddr: 0x7B20, symBinAddr: 0x100057D60, symSize: 0x38 }
  - { offset: 0x9F785, size: 0x8, addend: 0x0, symName: __RNSNvYNCINvMs6_NtCsloNvcHxBCre_9hashbrown3rawINtBd_8RawTableTNtCsdARyWrlPtHl_2cc12CompilerFlagbEE24find_or_find_insert_slotNCINvNtBf_3map14equivalent_keyBX_BX_bE0NCINvB22_11make_hasherBX_bNtNtNtCscOYdFFY2T5N_3std4hash6random11RandomStateE0E0INtNtNtCsfvfooZQ3Axs_4core3ops8function6FnOnceTjEE9call_once6vtableBZ_, symObjAddr: 0x7B58, symBinAddr: 0x100057D98, symSize: 0x38 }
  - { offset: 0x9F7C9, size: 0x8, addend: 0x0, symName: __RNSNvYNCINvMs6_NtCsloNvcHxBCre_9hashbrown3rawINtBd_8RawTableTNtCsdARyWrlPtHl_2cc12CompilerFlagbEE4findNCINvNtBf_3map14equivalent_keyBX_BX_bE0E0INtNtNtCsfvfooZQ3Axs_4core3ops8function6FnOnceTjEE9call_once6vtableBZ_, symObjAddr: 0x7B90, symBinAddr: 0x100057DD0, symSize: 0x38 }
  - { offset: 0x9F80D, size: 0x8, addend: 0x0, symName: __RNSNvYNCNvMs_NtNtNtCsdARyWrlPtHl_2cc8parallel9job_token19inherited_jobserverNtBb_12HelperThread3new0INtNtNtCsfvfooZQ3Axs_4core3ops8function6FnOnceTINtNtB1H_6result6ResultNtCs4Wq06SSluyi_9jobserver8AcquiredNtNtNtCscOYdFFY2T5N_3std2io5error5ErrorEEE9call_once6vtableBh_, symObjAddr: 0x7BC8, symBinAddr: 0x100057E08, symSize: 0x3C }
  - { offset: 0x9F84D, size: 0x8, addend: 0x0, symName: __RNvYINvMs12_NtCscOYdFFY2T5N_3std4pathNtBa_4Path3neweEINtNtNtCsfvfooZQ3Axs_4core3ops8function6FnOnceTReEE9call_onceCsdARyWrlPtHl_2cc, symObjAddr: 0x96E8, symBinAddr: 0x1000596B4, symSize: 0x2C }
  - { offset: 0x9F891, size: 0x8, addend: 0x0, symName: __RNvYINvNvMNtCsdARyWrlPtHl_2cc5flagsNtB8_17RustcCodegenFlags14set_rustc_flag10arg_to_u32ReEINtNtNtCsfvfooZQ3Axs_4core3ops8function6FnOnceTB1n_EE9call_onceBa_, symObjAddr: 0x973C, symBinAddr: 0x100059708, symSize: 0x2C }
  - { offset: 0x9F8D5, size: 0x8, addend: 0x0, symName: __RNvYINvNvMNtCsdARyWrlPtHl_2cc5flagsNtB8_17RustcCodegenFlags14set_rustc_flag11arg_to_boolReEINtNtNtCsfvfooZQ3Axs_4core3ops8function6FnOnceTB1o_EE9call_onceBa_, symObjAddr: 0x9768, symBinAddr: 0x100059734, symSize: 0x2C }
  - { offset: 0x9F919, size: 0x8, addend: 0x0, symName: __RNvYNCINvMs0_NtNtNtCscOYdFFY2T5N_3std4sync6poison4onceNtBb_4Once9call_onceNCINvMs1_NtCsdARyWrlPtHl_2cc9utilitiesINtB1j_8OnceLockINtNtCsfvfooZQ3Axs_4core6result6ResultNtNtNtB1l_6target6parser21TargetInfoParserInnerNtB1l_5ErrorEE11get_or_initNvMB2G_B2E_32from_cargo_environment_variablesE0E0INtNtNtB27_3ops8function6FnOnceTRNtBb_9OnceStateEE9call_onceB1l_, symObjAddr: 0x9794, symBinAddr: 0x100059760, symSize: 0x4C }
  - { offset: 0x9F959, size: 0x8, addend: 0x0, symName: __RNvYNCINvMs0_NtNtNtCscOYdFFY2T5N_3std4sync6poison4onceNtBb_4Once9call_onceNCINvMs1_NtCsdARyWrlPtHl_2cc9utilitiesINtB1j_8OnceLockNtNtNtB1l_8parallel9job_token14JobTokenServerE11get_or_initNCNvMs0_B24_B22_3new0E0E0INtNtNtCsfvfooZQ3Axs_4core3ops8function6FnOnceTRNtBb_9OnceStateEE9call_onceB1l_, symObjAddr: 0x97E0, symBinAddr: 0x1000597AC, symSize: 0x4C }
  - { offset: 0x9F999, size: 0x8, addend: 0x0, symName: __RNvYNCINvMs6_NtCsloNvcHxBCre_9hashbrown3rawINtBb_8RawTableTINtNtCse1nGBsou5OW_5alloc5boxed3BoxSIBW_NtNtNtCscOYdFFY2T5N_3std3ffi6os_str5OsStrEENtNtCsdARyWrlPtHl_2cc4tool10ToolFamilyEE14reserve_rehashNCINvNtBd_3map11make_hasherBV_B2g_NtNtNtB1F_4hash6random11RandomStateE0E0INtNtNtCsfvfooZQ3Axs_4core3ops8function6FnOnceTQNtBb_13RawTableInnerjEE9call_onceB2k_, symObjAddr: 0x982C, symBinAddr: 0x1000597F8, symSize: 0x5C }
  - { offset: 0x9F9DD, size: 0x8, addend: 0x0, symName: __RNvYNCINvMs6_NtCsloNvcHxBCre_9hashbrown3rawINtBb_8RawTableTINtNtCse1nGBsou5OW_5alloc5boxed3BoxSIBW_NtNtNtCscOYdFFY2T5N_3std3ffi6os_str5OsStrEENtNtCsdARyWrlPtHl_2cc4tool10ToolFamilyEE14reserve_rehashNCINvNtBd_3map11make_hasherBV_B2g_NtNtNtB1F_4hash6random11RandomStateE0Es_0INtNtNtCsfvfooZQ3Axs_4core3ops8function6FnOnceTOhEE9call_onceB2k_, symObjAddr: 0x9888, symBinAddr: 0x100059854, symSize: 0x44 }
  - { offset: 0x9FA1D, size: 0x8, addend: 0x0, symName: __RNvYNCINvMs6_NtCsloNvcHxBCre_9hashbrown3rawINtBb_8RawTableTINtNtCse1nGBsou5OW_5alloc5boxed3BoxSIBW_NtNtNtCscOYdFFY2T5N_3std3ffi6os_str5OsStrEENtNtCsdARyWrlPtHl_2cc4tool10ToolFamilyEE24find_or_find_insert_slotNCINvNtBd_3map14equivalent_keyBV_BV_B2g_E0NCINvB3p_11make_hasherBV_B2g_NtNtNtB1F_4hash6random11RandomStateE0E0INtNtNtCsfvfooZQ3Axs_4core3ops8function6FnOnceTjEE9call_onceB2k_, symObjAddr: 0x98CC, symBinAddr: 0x100059898, symSize: 0x58 }
  - { offset: 0x9FA61, size: 0x8, addend: 0x0, symName: __RNvYNCINvMs6_NtCsloNvcHxBCre_9hashbrown3rawINtBb_8RawTableTINtNtCse1nGBsou5OW_5alloc5boxed3BoxSIBW_NtNtNtCscOYdFFY2T5N_3std3ffi6os_str5OsStrEENtNtCsdARyWrlPtHl_2cc4tool10ToolFamilyEE4findNCINvNtBd_3map14equivalent_keyBV_BV_B2g_E0E0INtNtNtCsfvfooZQ3Axs_4core3ops8function6FnOnceTjEE9call_onceB2k_, symObjAddr: 0x9924, symBinAddr: 0x1000598F0, symSize: 0x58 }
  - { offset: 0x9FAA5, size: 0x8, addend: 0x0, symName: __RNvYNCINvMs6_NtCsloNvcHxBCre_9hashbrown3rawINtBb_8RawTableTINtNtCse1nGBsou5OW_5alloc5boxed3BoxeEINtNtB10_4sync3ArcNtNtNtCscOYdFFY2T5N_3std3ffi6os_str5OsStrEEE14reserve_rehashNCINvNtBd_3map11make_hasherBV_B1w_NtNtNtB1U_4hash6random11RandomStateE0E0INtNtNtCsfvfooZQ3Axs_4core3ops8function6FnOnceTQNtBb_13RawTableInnerjEE9call_onceCsdARyWrlPtHl_2cc, symObjAddr: 0x997C, symBinAddr: 0x100059948, symSize: 0x5C }
  - { offset: 0x9FAE9, size: 0x8, addend: 0x0, symName: __RNvYNCINvMs6_NtCsloNvcHxBCre_9hashbrown3rawINtBb_8RawTableTINtNtCse1nGBsou5OW_5alloc5boxed3BoxeEINtNtB10_4sync3ArcNtNtNtCscOYdFFY2T5N_3std3ffi6os_str5OsStrEEE14reserve_rehashNCINvNtBd_3map11make_hasherBV_B1w_NtNtNtB1U_4hash6random11RandomStateE0Es_0INtNtNtCsfvfooZQ3Axs_4core3ops8function6FnOnceTOhEE9call_onceCsdARyWrlPtHl_2cc, symObjAddr: 0x99D8, symBinAddr: 0x1000599A4, symSize: 0x44 }
  - { offset: 0x9FB29, size: 0x8, addend: 0x0, symName: __RNvYNCINvMs6_NtCsloNvcHxBCre_9hashbrown3rawINtBb_8RawTableTINtNtCse1nGBsou5OW_5alloc5boxed3BoxeEINtNtB10_4sync3ArcNtNtNtCscOYdFFY2T5N_3std3ffi6os_str5OsStrEEE24find_or_find_insert_slotNCINvNtBd_3map14equivalent_keyBV_BV_B1w_E0NCINvB31_11make_hasherBV_B1w_NtNtNtB1U_4hash6random11RandomStateE0E0INtNtNtCsfvfooZQ3Axs_4core3ops8function6FnOnceTjEE9call_onceCsdARyWrlPtHl_2cc, symObjAddr: 0x9A1C, symBinAddr: 0x1000599E8, symSize: 0x58 }
  - { offset: 0x9FB6D, size: 0x8, addend: 0x0, symName: __RNvYNCINvMs6_NtCsloNvcHxBCre_9hashbrown3rawINtBb_8RawTableTINtNtCse1nGBsou5OW_5alloc5boxed3BoxeEINtNtB10_4sync3ArcNtNtNtCscOYdFFY2T5N_3std3ffi6os_str5OsStrEEE4findNCINvNtBd_3map14equivalent_keyeBV_B1w_E0E0INtNtNtCsfvfooZQ3Axs_4core3ops8function6FnOnceTjEE9call_onceCsdARyWrlPtHl_2cc, symObjAddr: 0x9A74, symBinAddr: 0x100059A40, symSize: 0x58 }
  - { offset: 0x9FBB1, size: 0x8, addend: 0x0, symName: __RNvYNCINvMs6_NtCsloNvcHxBCre_9hashbrown3rawINtBb_8RawTableTINtNtCse1nGBsou5OW_5alloc5boxed3BoxeEINtNtB10_4sync3ArceEEE14reserve_rehashNCINvNtBd_3map11make_hasherBV_B1w_NtNtNtCscOYdFFY2T5N_3std4hash6random11RandomStateE0E0INtNtNtCsfvfooZQ3Axs_4core3ops8function6FnOnceTQNtBb_13RawTableInnerjEE9call_onceCsdARyWrlPtHl_2cc, symObjAddr: 0x9ACC, symBinAddr: 0x100059A98, symSize: 0x5C }
  - { offset: 0x9FBF5, size: 0x8, addend: 0x0, symName: __RNvYNCINvMs6_NtCsloNvcHxBCre_9hashbrown3rawINtBb_8RawTableTINtNtCse1nGBsou5OW_5alloc5boxed3BoxeEINtNtB10_4sync3ArceEEE14reserve_rehashNCINvNtBd_3map11make_hasherBV_B1w_NtNtNtCscOYdFFY2T5N_3std4hash6random11RandomStateE0Es_0INtNtNtCsfvfooZQ3Axs_4core3ops8function6FnOnceTOhEE9call_onceCsdARyWrlPtHl_2cc, symObjAddr: 0x9B28, symBinAddr: 0x100059AF4, symSize: 0x44 }
  - { offset: 0x9FC35, size: 0x8, addend: 0x0, symName: __RNvYNCINvMs6_NtCsloNvcHxBCre_9hashbrown3rawINtBb_8RawTableTINtNtCse1nGBsou5OW_5alloc5boxed3BoxeEINtNtB10_4sync3ArceEEE24find_or_find_insert_slotNCINvNtBd_3map14equivalent_keyBV_BV_B1w_E0NCINvB2n_11make_hasherBV_B1w_NtNtNtCscOYdFFY2T5N_3std4hash6random11RandomStateE0E0INtNtNtCsfvfooZQ3Axs_4core3ops8function6FnOnceTjEE9call_onceCsdARyWrlPtHl_2cc, symObjAddr: 0x9B6C, symBinAddr: 0x100059B38, symSize: 0x58 }
  - { offset: 0x9FC79, size: 0x8, addend: 0x0, symName: __RNvYNCINvMs6_NtCsloNvcHxBCre_9hashbrown3rawINtBb_8RawTableTINtNtCse1nGBsou5OW_5alloc5boxed3BoxeEINtNtB10_4sync3ArceEEE4findNCINvNtBd_3map14equivalent_keyeBV_B1w_E0E0INtNtNtCsfvfooZQ3Axs_4core3ops8function6FnOnceTjEE9call_onceCsdARyWrlPtHl_2cc, symObjAddr: 0x9BC4, symBinAddr: 0x100059B90, symSize: 0x58 }
  - { offset: 0x9FCBD, size: 0x8, addend: 0x0, symName: __RNvYNCINvMs6_NtCsloNvcHxBCre_9hashbrown3rawINtBb_8RawTableTINtNtCse1nGBsou5OW_5alloc5boxed3BoxeEINtNtCsfvfooZQ3Axs_4core6option6OptionINtNtB10_4sync3ArcNtNtNtCscOYdFFY2T5N_3std3ffi6os_str5OsStrEEEE14reserve_rehashNCINvNtBd_3map11make_hasherBV_B1w_NtNtNtB2w_4hash6random11RandomStateE0E0INtNtNtB1B_3ops8function6FnOnceTQNtBb_13RawTableInnerjEE9call_onceCsdARyWrlPtHl_2cc, symObjAddr: 0x9C1C, symBinAddr: 0x100059BE8, symSize: 0x5C }
  - { offset: 0x9FD01, size: 0x8, addend: 0x0, symName: __RNvYNCINvMs6_NtCsloNvcHxBCre_9hashbrown3rawINtBb_8RawTableTINtNtCse1nGBsou5OW_5alloc5boxed3BoxeEINtNtCsfvfooZQ3Axs_4core6option6OptionINtNtB10_4sync3ArcNtNtNtCscOYdFFY2T5N_3std3ffi6os_str5OsStrEEEE14reserve_rehashNCINvNtBd_3map11make_hasherBV_B1w_NtNtNtB2w_4hash6random11RandomStateE0Es_0INtNtNtB1B_3ops8function6FnOnceTOhEE9call_onceCsdARyWrlPtHl_2cc, symObjAddr: 0x9C78, symBinAddr: 0x100059C44, symSize: 0x44 }
  - { offset: 0x9FD41, size: 0x8, addend: 0x0, symName: __RNvYNCINvMs6_NtCsloNvcHxBCre_9hashbrown3rawINtBb_8RawTableTINtNtCse1nGBsou5OW_5alloc5boxed3BoxeEINtNtCsfvfooZQ3Axs_4core6option6OptionINtNtB10_4sync3ArcNtNtNtCscOYdFFY2T5N_3std3ffi6os_str5OsStrEEEE24find_or_find_insert_slotNCINvNtBd_3map14equivalent_keyBV_BV_B1w_E0NCINvB3E_11make_hasherBV_B1w_NtNtNtB2w_4hash6random11RandomStateE0E0INtNtNtB1B_3ops8function6FnOnceTjEE9call_onceCsdARyWrlPtHl_2cc, symObjAddr: 0x9CBC, symBinAddr: 0x100059C88, symSize: 0x58 }
  - { offset: 0x9FD85, size: 0x8, addend: 0x0, symName: __RNvYNCINvMs6_NtCsloNvcHxBCre_9hashbrown3rawINtBb_8RawTableTINtNtCse1nGBsou5OW_5alloc5boxed3BoxeEINtNtCsfvfooZQ3Axs_4core6option6OptionINtNtB10_4sync3ArcNtNtNtCscOYdFFY2T5N_3std3ffi6os_str5OsStrEEEE4findNCINvNtBd_3map14equivalent_keyeBV_B1w_E0E0INtNtNtB1B_3ops8function6FnOnceTjEE9call_onceCsdARyWrlPtHl_2cc, symObjAddr: 0x9D14, symBinAddr: 0x100059CE0, symSize: 0x58 }
  - { offset: 0x9FDC9, size: 0x8, addend: 0x0, symName: __RNvYNCINvMs6_NtCsloNvcHxBCre_9hashbrown3rawINtBb_8RawTableTNtCsdARyWrlPtHl_2cc12CompilerFlagbEE14reserve_rehashNCINvNtBd_3map11make_hasherBV_bNtNtNtCscOYdFFY2T5N_3std4hash6random11RandomStateE0E0INtNtNtCsfvfooZQ3Axs_4core3ops8function6FnOnceTQNtBb_13RawTableInnerjEE9call_onceBX_, symObjAddr: 0x9D6C, symBinAddr: 0x100059D38, symSize: 0x5C }
  - { offset: 0x9FE0D, size: 0x8, addend: 0x0, symName: __RNvYNCINvMs6_NtCsloNvcHxBCre_9hashbrown3rawINtBb_8RawTableTNtCsdARyWrlPtHl_2cc12CompilerFlagbEE14reserve_rehashNCINvNtBd_3map11make_hasherBV_bNtNtNtCscOYdFFY2T5N_3std4hash6random11RandomStateE0Es_0INtNtNtCsfvfooZQ3Axs_4core3ops8function6FnOnceTOhEE9call_onceBX_, symObjAddr: 0x9DC8, symBinAddr: 0x100059D94, symSize: 0x44 }
  - { offset: 0x9FE4D, size: 0x8, addend: 0x0, symName: __RNvYNCINvMs6_NtCsloNvcHxBCre_9hashbrown3rawINtBb_8RawTableTNtCsdARyWrlPtHl_2cc12CompilerFlagbEE24find_or_find_insert_slotNCINvNtBd_3map14equivalent_keyBV_BV_bE0NCINvB20_11make_hasherBV_bNtNtNtCscOYdFFY2T5N_3std4hash6random11RandomStateE0E0INtNtNtCsfvfooZQ3Axs_4core3ops8function6FnOnceTjEE9call_onceBX_, symObjAddr: 0x9E0C, symBinAddr: 0x100059DD8, symSize: 0x58 }
  - { offset: 0x9FE91, size: 0x8, addend: 0x0, symName: __RNvYNCINvMs6_NtCsloNvcHxBCre_9hashbrown3rawINtBb_8RawTableTNtCsdARyWrlPtHl_2cc12CompilerFlagbEE4findNCINvNtBd_3map14equivalent_keyBV_BV_bE0E0INtNtNtCsfvfooZQ3Axs_4core3ops8function6FnOnceTjEE9call_onceBX_, symObjAddr: 0x9E64, symBinAddr: 0x100059E30, symSize: 0x58 }
  - { offset: 0x9FED5, size: 0x8, addend: 0x0, symName: __RNvYNCNkNvNvMNtNtCscOYdFFY2T5N_3std4hash6randomNtBb_11RandomState3new4KEYS0s_0INtNtNtCsfvfooZQ3Axs_4core3ops8function6FnOnceTINtNtB1l_6option6OptionQIB20_INtNtB1l_4cell4CellTyyEEEEEE9call_onceCsdARyWrlPtHl_2cc, symObjAddr: 0x9EBC, symBinAddr: 0x100059E88, symSize: 0x4C }
  - { offset: 0x9FF19, size: 0x8, addend: 0x0, symName: __RNvYNCNkNvNvMNtNtNtCscOYdFFY2T5N_3std4sync4mpmc7contextNtBb_7Context4with7CONTEXT00INtNtNtCsfvfooZQ3Axs_4core3ops8function6FnOnceTINtNtB1q_6option6OptionQIB25_INtNtB1q_4cell4CellIB25_BR_EEEEEE9call_onceCsdARyWrlPtHl_2cc, symObjAddr: 0x9F08, symBinAddr: 0x100059ED4, symSize: 0x4C }
  - { offset: 0x9FF5D, size: 0x8, addend: 0x0, symName: __RNvYNCNkNvNvNtNtNtCscOYdFFY2T5N_3std4sync4mpmc5waker17current_thread_id5DUMMY0s_0INtNtNtCsfvfooZQ3Axs_4core3ops8function6FnOnceTINtNtB1o_6option6OptionQIB23_hEEEE9call_onceCsdARyWrlPtHl_2cc, symObjAddr: 0x9F54, symBinAddr: 0x100059F20, symSize: 0x4C }
  - { offset: 0x9FFA1, size: 0x8, addend: 0x0, symName: __RNvYNCNvMs4_CsdARyWrlPtHl_2ccNtBa_5Build23apple_deployment_target0INtNtNtCsfvfooZQ3Axs_4core3ops8function6FnOnceuE9call_onceBa_, symObjAddr: 0x9FA0, symBinAddr: 0x100059F6C, symSize: 0x58 }
  - { offset: 0x9FFE5, size: 0x8, addend: 0x0, symName: __RNvYNCNvMs4_CsdARyWrlPtHl_2ccNtBa_5Build23apple_deployment_targets0_0INtNtNtCsfvfooZQ3Axs_4core3ops8function6FnOnceTINtNtCse1nGBsou5OW_5alloc4sync3ArceEEE9call_onceBa_, symObjAddr: 0x9FF8, symBinAddr: 0x100059FC4, symSize: 0x68 }
  - { offset: 0xA0029, size: 0x8, addend: 0x0, symName: __RNvYNCNvMs4_CsdARyWrlPtHl_2ccNtBa_5Build5which0INtNtNtCsfvfooZQ3Axs_4core3ops8function6FnOnceTRNtNtNtCscOYdFFY2T5N_3std3ffi6os_str5OsStrEE9call_onceBa_, symObjAddr: 0xA060, symBinAddr: 0x10005A02C, symSize: 0x54 }
  - { offset: 0xA006D, size: 0x8, addend: 0x0, symName: __RNvYNCNvMs_NtNtNtCsdARyWrlPtHl_2cc8parallel9job_token19inherited_jobserverNtB9_12HelperThread3new0INtNtNtCsfvfooZQ3Axs_4core3ops8function6FnOnceTINtNtB1F_6result6ResultNtCs4Wq06SSluyi_9jobserver8AcquiredNtNtNtCscOYdFFY2T5N_3std2io5error5ErrorEEE9call_onceBf_, symObjAddr: 0xA0B4, symBinAddr: 0x10005A080, symSize: 0x6C }
  - { offset: 0xA00AD, size: 0x8, addend: 0x0, symName: __RNvYNCNvNtNtCsdARyWrlPtHl_2cc8parallel14async_executor17NOOP_WAKER_VTABLE0INtNtNtCsfvfooZQ3Axs_4core3ops8function6FnOnceTPuEE9call_onceBa_, symObjAddr: 0xA120, symBinAddr: 0x10005A0EC, symSize: 0x54 }
  - { offset: 0xA00F1, size: 0x8, addend: 0x0, symName: __RNvYNCNvNtNtCsdARyWrlPtHl_2cc8parallel14async_executor17NOOP_WAKER_VTABLEs0_0INtNtNtCsfvfooZQ3Axs_4core3ops8function6FnOnceTPuEE9call_onceBa_, symObjAddr: 0xA174, symBinAddr: 0x10005A140, symSize: 0x44 }
  - { offset: 0xA0131, size: 0x8, addend: 0x0, symName: __RNvYNCNvNtNtCsdARyWrlPtHl_2cc8parallel14async_executor17NOOP_WAKER_VTABLEs1_0INtNtNtCsfvfooZQ3Axs_4core3ops8function6FnOnceTPuEE9call_onceBa_, symObjAddr: 0xA1B8, symBinAddr: 0x10005A184, symSize: 0x44 }
  - { offset: 0xA0171, size: 0x8, addend: 0x0, symName: __RNvYNCNvNtNtCsdARyWrlPtHl_2cc8parallel14async_executor17NOOP_WAKER_VTABLEs_0INtNtNtCsfvfooZQ3Axs_4core3ops8function6FnOnceTPuEE9call_onceBa_, symObjAddr: 0xA1FC, symBinAddr: 0x10005A1C8, symSize: 0x44 }
  - { offset: 0xA01B1, size: 0x8, addend: 0x0, symName: __RNvYNCNvNtNtNtCsdARyWrlPtHl_2cc7windows10find_tools5impl_21find_msvc_environment0INtNtNtCsfvfooZQ3Axs_4core3ops8function6FnOnceTRNtNtNtCscOYdFFY2T5N_3std3ffi6os_str5OsStrEE9call_onceBc_, symObjAddr: 0xA240, symBinAddr: 0x10005A20C, symSize: 0x54 }
  - { offset: 0xA01F5, size: 0x8, addend: 0x0, symName: __RNvYNcNtINtNtCse1nGBsou5OW_5alloc6borrow3CowNtNtCscOYdFFY2T5N_3std4path4PathE5Owned0INtNtNtCsfvfooZQ3Axs_4core3ops8function6FnOnceTNtBI_7PathBufEE9call_onceCsdARyWrlPtHl_2cc, symObjAddr: 0xA294, symBinAddr: 0x10005A260, symSize: 0x34 }
  - { offset: 0xA0239, size: 0x8, addend: 0x0, symName: __RNvYNcNtINtNtCse1nGBsou5OW_5alloc6borrow3CowNtNtCscOYdFFY2T5N_3std4path4PathE8Borrowed0INtNtNtCsfvfooZQ3Axs_4core3ops8function6FnOnceTRBG_EE9call_onceCsdARyWrlPtHl_2cc, symObjAddr: 0xA2C8, symBinAddr: 0x10005A294, symSize: 0x2C }
  - { offset: 0xA027D, size: 0x8, addend: 0x0, symName: __RNvYNcNtINtNtCse1nGBsou5OW_5alloc6borrow3CoweE5Owned0INtNtNtCsfvfooZQ3Axs_4core3ops8function6FnOnceTNtNtBb_6string6StringEE9call_onceCsdARyWrlPtHl_2cc, symObjAddr: 0xA2F4, symBinAddr: 0x10005A2C0, symSize: 0x34 }
  - { offset: 0xA02C1, size: 0x8, addend: 0x0, symName: __RNvYNcNtINtNtCse1nGBsou5OW_5alloc6borrow3CoweE8Borrowed0INtNtNtCsfvfooZQ3Axs_4core3ops8function6FnOnceTReEE9call_onceCsdARyWrlPtHl_2cc, symObjAddr: 0xA328, symBinAddr: 0x10005A2F4, symSize: 0x2C }
  - { offset: 0xA0305, size: 0x8, addend: 0x0, symName: __RNvYNcNtINtNtCsfvfooZQ3Axs_4core6result6ResultuINtNtNtBb_3num7nonzero7NonZerojEE3Err0INtNtNtBb_3ops8function6FnOnceTBJ_EE9call_onceCsdARyWrlPtHl_2cc, symObjAddr: 0xA354, symBinAddr: 0x10005A320, symSize: 0x24 }
  - { offset: 0xA0349, size: 0x8, addend: 0x0, symName: __RNvYNcNtINtNtNtCsfvfooZQ3Axs_4core3ops12control_flow11ControlFlowuNtNtBd_3cmp8OrderingE5Break0INtNtBb_8function6FnOnceTuEE9call_onceCsdARyWrlPtHl_2cc, symObjAddr: 0xA378, symBinAddr: 0x10005A344, symSize: 0x1C }
  - { offset: 0xA038D, size: 0x8, addend: 0x0, symName: __RNvYNcNtINtNtNtNtCscOYdFFY2T5N_3std4sync4mpmc5error16SendTimeoutErrorINtNtCsfvfooZQ3Axs_4core6result6ResultNtCs4Wq06SSluyi_9jobserver8AcquiredNtNtNtBf_2io5error5ErrorEE12Disconnected0INtNtNtB1a_3ops8function6FnOnceTB15_EE9call_onceCsdARyWrlPtHl_2cc, symObjAddr: 0xA394, symBinAddr: 0x10005A360, symSize: 0x28 }
  - { offset: 0xA03D1, size: 0x8, addend: 0x0, symName: __RNvYNcNtNtCscOYdFFY2T5N_3std2fs8Metadata0INtNtNtCsfvfooZQ3Axs_4core3ops8function6FnOnceTNtNtNtNtNtB8_3sys3pal4unix2fs8FileAttrEE9call_onceCsdARyWrlPtHl_2cc, symObjAddr: 0xA3BC, symBinAddr: 0x10005A388, symSize: 0x40 }
  - { offset: 0xA0415, size: 0x8, addend: 0x0, symName: __RNvYNcNtNtNtNtCsdARyWrlPtHl_2cc7windows10find_tools3Env5Arced0INtNtNtCsfvfooZQ3Axs_4core3ops8function6FnOnceTINtNtCse1nGBsou5OW_5alloc4sync3ArcNtNtNtCscOYdFFY2T5N_3std3ffi6os_str5OsStrEEE9call_onceBc_, symObjAddr: 0xA3FC, symBinAddr: 0x10005A3C8, symSize: 0x2C }
  - { offset: 0xA0459, size: 0x8, addend: 0x0, symName: __RNvYNcNtNtNtNtCsdARyWrlPtHl_2cc8parallel9job_token14JobTokenServer9Inherited0INtNtNtCsfvfooZQ3Axs_4core3ops8function6FnOnceTNtNtB8_19inherited_jobserver9JobServerEE9call_onceBc_, symObjAddr: 0xA45C, symBinAddr: 0x10005A3F4, symSize: 0x34 }
  - { offset: 0xA049D, size: 0x8, addend: 0x0, symName: __RNvYNvMNtCscOYdFFY2T5N_3std4pathNtB5_6Prefix11is_verbatimINtNtNtCsfvfooZQ3Axs_4core3ops8function6FnOnceTRBu_EE9call_onceCsdARyWrlPtHl_2cc, symObjAddr: 0xA738, symBinAddr: 0x10005A6D0, symSize: 0x24 }
  - { offset: 0xA04E1, size: 0x8, addend: 0x0, symName: __RNvYNvMNtCsfvfooZQ3Axs_4core6optionINtB5_6OptionINtNtB7_4cell4CellIBy_NtNtNtNtCscOYdFFY2T5N_3std4sync4mpmc7context7ContextEEE4takeINtNtNtB7_3ops8function6FnOnceTQBx_EE9call_onceCsdARyWrlPtHl_2cc, symObjAddr: 0xA75C, symBinAddr: 0x10005A6F4, symSize: 0x24 }
  - { offset: 0xA0525, size: 0x8, addend: 0x0, symName: __RNvYNvMNtCsfvfooZQ3Axs_4core6optionINtB5_6OptionINtNtB7_4cell4CellTyyEEE4takeINtNtNtB7_3ops8function6FnOnceTQBx_EE9call_onceCsdARyWrlPtHl_2cc, symObjAddr: 0xA780, symBinAddr: 0x10005A718, symSize: 0x24 }
  - { offset: 0xA0569, size: 0x8, addend: 0x0, symName: __RNvYNvMNtCsfvfooZQ3Axs_4core6optionINtB5_6OptionhE4takeINtNtNtB7_3ops8function6FnOnceTQBx_EE9call_onceCsdARyWrlPtHl_2cc, symObjAddr: 0xA7A4, symBinAddr: 0x10005A73C, symSize: 0x28 }
  - { offset: 0xA05AD, size: 0x8, addend: 0x0, symName: __RNvYNvMNtNtCsdARyWrlPtHl_2cc6target6parserNtB5_21TargetInfoParserInner32from_cargo_environment_variablesINtNtNtCsfvfooZQ3Axs_4core3ops8function6FnOnceuE9call_onceB9_, symObjAddr: 0xA7CC, symBinAddr: 0x10005A764, symSize: 0x1C }
  - { offset: 0xA05F1, size: 0x8, addend: 0x0, symName: __RNvYNvMs2_NtNtCscOYdFFY2T5N_3std4sync6poisonINtB8_11PoisonErrorINtNtB8_5mutex10MutexGuardbEE10into_innerINtNtNtCsfvfooZQ3Axs_4core3ops8function6FnOnceTBG_EE9call_onceCsdARyWrlPtHl_2cc, symObjAddr: 0xA7E8, symBinAddr: 0x10005A780, symSize: 0x34 }
  - { offset: 0xA0635, size: 0x8, addend: 0x0, symName: __RNvYNvMsl_NtNtCscOYdFFY2T5N_3std3ffi6os_strNtB8_5OsStr15to_string_lossyINtNtNtCsfvfooZQ3Axs_4core3ops8function6FnOnceTRBF_EE9call_onceCsdARyWrlPtHl_2cc, symObjAddr: 0xA84C, symBinAddr: 0x10005A7B4, symSize: 0x2C }
  - { offset: 0xA0679, size: 0x8, addend: 0x0, symName: __RNvYNvNvNvMNtNtCscOYdFFY2T5N_3std4hash6randomNtB9_11RandomState3new4KEYS6___initINtNtNtCsfvfooZQ3Axs_4core3ops8function6FnOnceuE9call_onceCsdARyWrlPtHl_2cc, symObjAddr: 0xA8A0, symBinAddr: 0x10005A808, symSize: 0x1C }
  - { offset: 0xA06BD, size: 0x8, addend: 0x0, symName: __RNvYNvNvNvMNtNtNtCscOYdFFY2T5N_3std4sync4mpmc7contextNtB9_7Context4with7CONTEXT6___initINtNtNtCsfvfooZQ3Axs_4core3ops8function6FnOnceuE9call_onceCsdARyWrlPtHl_2cc, symObjAddr: 0xA8BC, symBinAddr: 0x10005A824, symSize: 0x1C }
  - { offset: 0xA0701, size: 0x8, addend: 0x0, symName: __RNvYNvNvNvNtNtNtCscOYdFFY2T5N_3std4sync4mpmc5waker17current_thread_id5DUMMY6___initINtNtNtCsfvfooZQ3Axs_4core3ops8function6FnOnceuE9call_onceCsdARyWrlPtHl_2cc, symObjAddr: 0xA8D8, symBinAddr: 0x10005A840, symSize: 0x1C }
  - { offset: 0xA0745, size: 0x8, addend: 0x0, symName: __RNvYNvYINtNtCse1nGBsou5OW_5alloc4sync3ArcNtNtNtCscOYdFFY2T5N_3std3ffi6os_str5OsStrEINtNtCsfvfooZQ3Axs_4core7convert4FromNtBF_8OsStringE4fromINtNtNtB1o_3ops8function6FnOnceTB1U_EE9call_onceCsdARyWrlPtHl_2cc, symObjAddr: 0xA91C, symBinAddr: 0x10005A884, symSize: 0x34 }
  - { offset: 0xA0789, size: 0x8, addend: 0x0, symName: __RNvYNvYINtNtCse1nGBsou5OW_5alloc4sync3ArceEINtNtCsfvfooZQ3Axs_4core7convert4FromReE4fromINtNtNtBK_3ops8function6FnOnceTB1g_EE9call_onceCsdARyWrlPtHl_2cc, symObjAddr: 0xA978, symBinAddr: 0x10005A8E0, symSize: 0x2C }
  - { offset: 0xA07CD, size: 0x8, addend: 0x0, symName: __RNvYNvYNtNtCscOYdFFY2T5N_3std4path7PathBufINtNtCsfvfooZQ3Axs_4core7convert4FromRNtNtNtB9_3ffi6os_str5OsStrE4fromINtNtNtBJ_3ops8function6FnOnceTB1f_EE9call_onceCsdARyWrlPtHl_2cc, symObjAddr: 0xA9A4, symBinAddr: 0x10005A90C, symSize: 0x2C }
  - { offset: 0xA0811, size: 0x8, addend: 0x0, symName: __RNvYNvYNtNtCse1nGBsou5OW_5alloc6string6StringINtNtCsfvfooZQ3Axs_4core7convert4FromReE4fromINtNtNtBM_3ops8function6FnOnceTB1i_EE9call_onceCsdARyWrlPtHl_2cc, symObjAddr: 0xA9D0, symBinAddr: 0x10005A938, symSize: 0x2C }
  - { offset: 0xA0855, size: 0x8, addend: 0x0, symName: __RNvYNvYeNtNtCse1nGBsou5OW_5alloc6string8ToString9to_stringINtNtNtCsfvfooZQ3Axs_4core3ops8function6FnOnceTReEE9call_onceCsdARyWrlPtHl_2cc, symObjAddr: 0xAA8C, symBinAddr: 0x10005A9F4, symSize: 0x2C }
  - { offset: 0xA08A4, size: 0x8, addend: 0x0, symName: __RNvXs1_NtNtNtCsfvfooZQ3Axs_4core3ops8function5implsQNCINvNtNtNtBb_4iter8adapters3map8map_foldRNtNtNtCscOYdFFY2T5N_3std3ffi6os_str5OsStrINtNtCse1nGBsou5OW_5alloc5boxed3BoxB1u_EuNvYB1t_INtNtBb_7convert4IntoB29_E4intoNCINvNvNtNtNtBX_6traits8iterator8Iterator8for_each4callB29_NCINvMsi_NtB2e_3vecINtB4w_3VecB29_E14extend_trustedINtBT_3MapINtNtBV_5chain5ChainINtNtBV_6cloned6ClonedINtNtNtBb_5slice4iter4IterB1t_EEIB5d_IB63_NtNtB2e_6string6StringEINvMsl_B1w_B1u_3newB6I_EEEB2O_EE0E0E0INtB7_5FnMutTuB1t_EE8call_mutCsdARyWrlPtHl_2cc, symObjAddr: 0x9434, symBinAddr: 0x100059470, symSize: 0x38 }
  - { offset: 0xA08F5, size: 0x8, addend: 0x0, symName: __RNvXs2_NtNtNtCsfvfooZQ3Axs_4core3ops8function5implsQNvYINtNtCse1nGBsou5OW_5alloc4sync3ArcNtNtNtCscOYdFFY2T5N_3std3ffi6os_str5OsStrENtNtB9_5deref5Deref5derefINtB7_6FnOnceTRBR_EE9call_onceCsdARyWrlPtHl_2cc, symObjAddr: 0x9498, symBinAddr: 0x1000594A8, symSize: 0x2C }
  - { offset: 0xA094B, size: 0x8, addend: 0x0, symName: __RNvYINvMsl_NtNtCscOYdFFY2T5N_3std3ffi6os_strNtB9_5OsStr3newNtNtCse1nGBsou5OW_5alloc6string6StringEINtNtNtCsfvfooZQ3Axs_4core3ops8function5FnMutTRBV_EE8call_mutCsdARyWrlPtHl_2cc, symObjAddr: 0x9714, symBinAddr: 0x1000596E0, symSize: 0x28 }
  - { offset: 0xA098F, size: 0x8, addend: 0x0, symName: __RNvYNvNtNtNtNtCscOYdFFY2T5N_3std3sys4sync6rwlock5queue9read_lockINtNtNtCsfvfooZQ3Axs_4core3ops8function5FnMutTOuEE8call_mutCsdARyWrlPtHl_2cc, symObjAddr: 0xA878, symBinAddr: 0x10005A7E0, symSize: 0x28 }
  - { offset: 0xA09D3, size: 0x8, addend: 0x0, symName: __RNvYNvYINtNtCse1nGBsou5OW_5alloc4sync3ArcNtNtCscOYdFFY2T5N_3std4path4PathENtNtNtCsfvfooZQ3Axs_4core3ops5deref5Deref5derefINtNtB1e_8function5FnMutTRB5_EE8call_mutCsdARyWrlPtHl_2cc, symObjAddr: 0xA8F4, symBinAddr: 0x10005A85C, symSize: 0x28 }
  - { offset: 0xA0A17, size: 0x8, addend: 0x0, symName: __RNvYNvYINtNtCse1nGBsou5OW_5alloc4sync3ArcNtNtNtCscOYdFFY2T5N_3std3ffi6os_str5OsStrENtNtNtCsfvfooZQ3Axs_4core3ops5deref5Deref5derefINtNtB1n_8function5FnMutTRB5_EE8call_mutCsdARyWrlPtHl_2cc, symObjAddr: 0xA950, symBinAddr: 0x10005A8B8, symSize: 0x28 }
  - { offset: 0xA0A5B, size: 0x8, addend: 0x0, symName: __RNvYNvYRNtNtNtCscOYdFFY2T5N_3std3ffi6os_str5OsStrINtNtCsfvfooZQ3Axs_4core7convert4IntoINtNtCse1nGBsou5OW_5alloc5boxed3BoxB6_EE4intoINtNtNtBQ_3ops8function5FnMutTB5_EE8call_mutCsdARyWrlPtHl_2cc, symObjAddr: 0xA9FC, symBinAddr: 0x10005A964, symSize: 0x38 }
  - { offset: 0xA0A9F, size: 0x8, addend: 0x0, symName: __RNvYNvYRNtNtNtCscOYdFFY2T5N_3std3ffi6os_str5OsStrNtNtCsfvfooZQ3Axs_4core5clone5Clone5cloneINtNtNtBP_3ops8function5FnMutTRB5_EE8call_mutCsdARyWrlPtHl_2cc, symObjAddr: 0xAA34, symBinAddr: 0x10005A99C, symSize: 0x28 }
  - { offset: 0xA0B00, size: 0x8, addend: 0x0, symName: __RNvYNvYeNtNtCse1nGBsou5OW_5alloc6string8ToString9to_stringINtNtNtCsfvfooZQ3Axs_4core3ops8function5FnMutTReEE8call_mutCsdARyWrlPtHl_2cc, symObjAddr: 0xAA5C, symBinAddr: 0x10005A9C4, symSize: 0x30 }
  - { offset: 0xA0BBD, size: 0x8, addend: 0x0, symName: __RNvXs_NtNtCsfvfooZQ3Axs_4core3ops11index_rangeNtB4_10IndexRangeNtNtNtNtB8_4iter6traits8iterator8Iterator4nextCsdARyWrlPtHl_2cc, symObjAddr: 0x94FC, symBinAddr: 0x1000594E8, symSize: 0xBC }
  - { offset: 0xA2D89, size: 0x8, addend: 0x0, symName: __RNvNtNtNtNtCsfvfooZQ3Axs_4core9core_arch10arm_shared4neon9generated18vreinterpret_s8_u8CsdARyWrlPtHl_2cc, symObjAddr: 0x85DC, symBinAddr: 0x10005881C, symSize: 0xC }
  - { offset: 0xA2DB7, size: 0x8, addend: 0x0, symName: __RNvNtNtNtNtCsfvfooZQ3Axs_4core9core_arch10arm_shared4neon9generated19vreinterpret_u64_u8CsdARyWrlPtHl_2cc, symObjAddr: 0x85E8, symBinAddr: 0x100058828, symSize: 0xC }
  - { offset: 0xA2DE5, size: 0x8, addend: 0x0, symName: __RNvNtNtNtNtCsfvfooZQ3Axs_4core9core_arch10arm_shared4neon9generated7vceq_u8CsdARyWrlPtHl_2cc, symObjAddr: 0x85F4, symBinAddr: 0x100058834, symSize: 0x14 }
  - { offset: 0xA2E22, size: 0x8, addend: 0x0, symName: __RNvNtNtNtNtCsfvfooZQ3Axs_4core9core_arch10arm_shared4neon9generated7vorr_u8CsdARyWrlPtHl_2cc, symObjAddr: 0x8608, symBinAddr: 0x100058848, symSize: 0x14 }
  - { offset: 0xA2EE2, size: 0x8, addend: 0x0, symName: __RNvNvNtNtCsfvfooZQ3Axs_4core4char7convert18from_u32_unchecked18precondition_checkCsdARyWrlPtHl_2cc, symObjAddr: 0x861C, symBinAddr: 0x10005885C, symSize: 0x98 }
  - { offset: 0xA31F2, size: 0x8, addend: 0x0, symName: __RNvYTNtNtNtCscOYdFFY2T5N_3std3ffi6os_str8OsStringB3_ENtNtCsfvfooZQ3Axs_4core5clone5Clone5cloneCsdARyWrlPtHl_2cc, symObjAddr: 0xAAB8, symBinAddr: 0x10005AA20, symSize: 0x68 }
  - { offset: 0xA5189, size: 0x8, addend: 0x0, symName: __RNvXs1_NtCse1nGBsou5OW_5alloc7raw_vecINtB5_6RawVecINtNtB7_4sync3ArcNtNtCscOYdFFY2T5N_3std4path4PathEENtNtNtCsfvfooZQ3Axs_4core3ops4drop4Drop4dropCsdARyWrlPtHl_2cc, symObjAddr: 0x90FC, symBinAddr: 0x100059138, symSize: 0x34 }
  - { offset: 0xA51C5, size: 0x8, addend: 0x0, symName: __RNvXs1_NtCse1nGBsou5OW_5alloc7raw_vecINtB5_6RawVecINtNtB7_4sync3ArcNtNtNtCscOYdFFY2T5N_3std3ffi6os_str5OsStrEENtNtNtCsfvfooZQ3Axs_4core3ops4drop4Drop4dropCsdARyWrlPtHl_2cc, symObjAddr: 0x9130, symBinAddr: 0x10005916C, symSize: 0x34 }
  - { offset: 0xA5201, size: 0x8, addend: 0x0, symName: __RNvXs1_NtCse1nGBsou5OW_5alloc7raw_vecINtB5_6RawVecINtNtB7_5boxed3BoxDINtNtNtCsfvfooZQ3Axs_4core3ops8function5FnMutuEp6OutputINtNtB1c_6result6ResultuNtNtNtCscOYdFFY2T5N_3std2io5error5ErrorENtNtB1c_6marker4SendNtB32_4SyncEL_EENtNtB1a_4drop4Drop4dropCsdARyWrlPtHl_2cc, symObjAddr: 0x9164, symBinAddr: 0x1000591A0, symSize: 0x34 }
  - { offset: 0xA523D, size: 0x8, addend: 0x0, symName: __RNvXs1_NtCse1nGBsou5OW_5alloc7raw_vecINtB5_6RawVecINtNtB7_5boxed3BoxNtNtNtCscOYdFFY2T5N_3std3ffi6os_str5OsStrEENtNtNtCsfvfooZQ3Axs_4core3ops4drop4Drop4dropCsdARyWrlPtHl_2cc, symObjAddr: 0x9198, symBinAddr: 0x1000591D4, symSize: 0x34 }
  - { offset: 0xA5279, size: 0x8, addend: 0x0, symName: __RNvXs1_NtCse1nGBsou5OW_5alloc7raw_vecINtB5_6RawVecNtCsdARyWrlPtHl_2cc6ObjectENtNtNtCsfvfooZQ3Axs_4core3ops4drop4Drop4dropBO_, symObjAddr: 0x91CC, symBinAddr: 0x100059208, symSize: 0x34 }
  - { offset: 0xA52B5, size: 0x8, addend: 0x0, symName: __RNvXs1_NtCse1nGBsou5OW_5alloc7raw_vecINtB5_6RawVecNtNtNtB7_3ffi5c_str7CStringENtNtNtCsfvfooZQ3Axs_4core3ops4drop4Drop4dropCsdARyWrlPtHl_2cc, symObjAddr: 0x9200, symBinAddr: 0x10005923C, symSize: 0x34 }
  - { offset: 0xA52F1, size: 0x8, addend: 0x0, symName: __RNvXs1_NtCse1nGBsou5OW_5alloc7raw_vecINtB5_6RawVecNtNtNtCscOYdFFY2T5N_3std3ffi6os_str8OsStringENtNtNtCsfvfooZQ3Axs_4core3ops4drop4Drop4dropCsdARyWrlPtHl_2cc, symObjAddr: 0x9234, symBinAddr: 0x100059270, symSize: 0x34 }
  - { offset: 0xA532D, size: 0x8, addend: 0x0, symName: __RNvXs1_NtCse1nGBsou5OW_5alloc7raw_vecINtB5_6RawVecNtNtNtNtCscOYdFFY2T5N_3std4sync4mpmc5waker5EntryENtNtNtCsfvfooZQ3Axs_4core3ops4drop4Drop4dropCsdARyWrlPtHl_2cc, symObjAddr: 0x9268, symBinAddr: 0x1000592A4, symSize: 0x34 }
  - { offset: 0xA5369, size: 0x8, addend: 0x0, symName: __RNvXs1_NtCse1nGBsou5OW_5alloc7raw_vecINtB5_6RawVecPaENtNtNtCsfvfooZQ3Axs_4core3ops4drop4Drop4dropCsdARyWrlPtHl_2cc, symObjAddr: 0x929C, symBinAddr: 0x1000592D8, symSize: 0x30 }
  - { offset: 0xA53A5, size: 0x8, addend: 0x0, symName: __RNvXs1_NtCse1nGBsou5OW_5alloc7raw_vecINtB5_6RawVecRNtNtCscOYdFFY2T5N_3std4path4PathENtNtNtCsfvfooZQ3Axs_4core3ops4drop4Drop4dropCsdARyWrlPtHl_2cc, symObjAddr: 0x92CC, symBinAddr: 0x100059308, symSize: 0x34 }
  - { offset: 0xA53E1, size: 0x8, addend: 0x0, symName: __RNvXs1_NtCse1nGBsou5OW_5alloc7raw_vecINtB5_6RawVecRNtNtNtCscOYdFFY2T5N_3std3ffi6os_str8OsStringENtNtNtCsfvfooZQ3Axs_4core3ops4drop4Drop4dropCsdARyWrlPtHl_2cc, symObjAddr: 0x9300, symBinAddr: 0x10005933C, symSize: 0x30 }
  - { offset: 0xA541D, size: 0x8, addend: 0x0, symName: __RNvXs1_NtCse1nGBsou5OW_5alloc7raw_vecINtB5_6RawVecReENtNtNtCsfvfooZQ3Axs_4core3ops4drop4Drop4dropCsdARyWrlPtHl_2cc, symObjAddr: 0x9330, symBinAddr: 0x10005936C, symSize: 0x34 }
  - { offset: 0xA5459, size: 0x8, addend: 0x0, symName: __RNvXs1_NtCse1nGBsou5OW_5alloc7raw_vecINtB5_6RawVecTINtNtB7_4sync3ArcNtNtNtCscOYdFFY2T5N_3std3ffi6os_str5OsStrEBN_EENtNtNtCsfvfooZQ3Axs_4core3ops4drop4Drop4dropCsdARyWrlPtHl_2cc, symObjAddr: 0x9364, symBinAddr: 0x1000593A0, symSize: 0x34 }
  - { offset: 0xA5495, size: 0x8, addend: 0x0, symName: __RNvXs1_NtCse1nGBsou5OW_5alloc7raw_vecINtB5_6RawVecTINtNtB7_4sync3ArceEINtNtCsfvfooZQ3Axs_4core6option6OptionBN_EEENtNtNtB1b_3ops4drop4Drop4dropCsdARyWrlPtHl_2cc, symObjAddr: 0x9398, symBinAddr: 0x1000593D4, symSize: 0x34 }
  - { offset: 0xA54D1, size: 0x8, addend: 0x0, symName: __RNvXs1_NtCse1nGBsou5OW_5alloc7raw_vecINtB5_6RawVecTNtNtCscOYdFFY2T5N_3std7process7CommandNtNvMs4_CsdARyWrlPtHl_2ccNtB1x_5Build15compile_objects10KillOnDropNtNtNtB1x_8parallel9job_token8JobTokenEENtNtNtCsfvfooZQ3Axs_4core3ops4drop4Drop4dropB1x_, symObjAddr: 0x93CC, symBinAddr: 0x100059408, symSize: 0x34 }
  - { offset: 0xA550D, size: 0x8, addend: 0x0, symName: __RNvXs1_NtCse1nGBsou5OW_5alloc7raw_vecINtB5_6RawVecTNtNtNtCscOYdFFY2T5N_3std3ffi6os_str8OsStringBN_EENtNtNtCsfvfooZQ3Axs_4core3ops4drop4Drop4dropCsdARyWrlPtHl_2cc, symObjAddr: 0x9400, symBinAddr: 0x10005943C, symSize: 0x34 }
  - { offset: 0xA6440, size: 0x8, addend: 0x0, symName: __RINvMNtCscOYdFFY2T5N_3std2fsNtB3_4File6createRNtNtB5_4path7PathBufECsdARyWrlPtHl_2cc, symObjAddr: 0x0, symBinAddr: 0x100050B74, symSize: 0xC0 }
  - { offset: 0xA6564, size: 0x8, addend: 0x0, symName: __RINvMsw_NtCscOYdFFY2T5N_3std2fsNtB6_10DirBuilder6createRNtNtB8_4path4PathECsdARyWrlPtHl_2cc, symObjAddr: 0xC0, symBinAddr: 0x100050C34, symSize: 0x74 }
  - { offset: 0xA6C6A, size: 0x8, addend: 0x0, symName: __RNvMs0_NtCse1nGBsou5OW_5alloc7raw_vecINtB5_6RawVecINtNtB7_4sync3ArcNtNtNtCscOYdFFY2T5N_3std3ffi6os_str5OsStrEE8grow_oneCsdARyWrlPtHl_2cc, symObjAddr: 0x7C4C, symBinAddr: 0x100057E8C, symSize: 0x94 }
  - { offset: 0xA6F21, size: 0x8, addend: 0x0, symName: __RNvMs0_NtCse1nGBsou5OW_5alloc7raw_vecINtB5_6RawVecINtNtB7_5boxed3BoxNtNtNtCscOYdFFY2T5N_3std3ffi6os_str5OsStrEE8into_boxCsdARyWrlPtHl_2cc, symObjAddr: 0x7CE0, symBinAddr: 0x100057F20, symSize: 0x90 }
  - { offset: 0xA711C, size: 0x8, addend: 0x0, symName: __RNvMs0_NtCse1nGBsou5OW_5alloc7raw_vecINtB5_6RawVecNtCsdARyWrlPtHl_2cc6ObjectE8grow_oneBO_, symObjAddr: 0x7D70, symBinAddr: 0x100057FB0, symSize: 0x94 }
  - { offset: 0xA721C, size: 0x8, addend: 0x0, symName: __RNvMs0_NtCse1nGBsou5OW_5alloc7raw_vecINtB5_6RawVecNtNtNtNtCscOYdFFY2T5N_3std4sync4mpmc5waker5EntryE8grow_oneCsdARyWrlPtHl_2cc, symObjAddr: 0x7E04, symBinAddr: 0x100058044, symSize: 0x94 }
  - { offset: 0xA72CA, size: 0x8, addend: 0x0, symName: __RNvMs0_NtCse1nGBsou5OW_5alloc7raw_vecINtB5_6RawVecReE8grow_oneCsdARyWrlPtHl_2cc, symObjAddr: 0x7E98, symBinAddr: 0x1000580D8, symSize: 0x94 }
  - { offset: 0xA74D4, size: 0x8, addend: 0x0, symName: __RNvMs0_NtCse1nGBsou5OW_5alloc7raw_vecINtB5_6RawVecTNtNtCscOYdFFY2T5N_3std7process7CommandNtNvMs4_CsdARyWrlPtHl_2ccNtB1x_5Build15compile_objects10KillOnDropNtNtNtB1x_8parallel9job_token8JobTokenEE8grow_oneB1x_, symObjAddr: 0x7F2C, symBinAddr: 0x10005816C, symSize: 0x94 }
  - { offset: 0xA7683, size: 0x8, addend: 0x0, symName: __RNvMs0_NtCse1nGBsou5OW_5alloc7raw_vecINtB5_6RawVechE8into_boxCsdARyWrlPtHl_2cc, symObjAddr: 0x7FC0, symBinAddr: 0x100058200, symSize: 0x90 }
  - { offset: 0xA78BD, size: 0x8, addend: 0x0, symName: __RNvMs2_NtCse1nGBsou5OW_5alloc7raw_vecNtB5_11RawVecInner14current_memoryCsdARyWrlPtHl_2cc, symObjAddr: 0x8050, symBinAddr: 0x100058290, symSize: 0x11C }
  - { offset: 0xA7B1A, size: 0x8, addend: 0x0, symName: __RNvMs2_NtCse1nGBsou5OW_5alloc7raw_vecNtB5_11RawVecInner16shrink_uncheckedCsdARyWrlPtHl_2cc, symObjAddr: 0x816C, symBinAddr: 0x1000583AC, symSize: 0x2F0 }
  - { offset: 0xA7EB2, size: 0x8, addend: 0x0, symName: __RNvMs2_NtCse1nGBsou5OW_5alloc7raw_vecNtB5_11RawVecInner6shrinkCsdARyWrlPtHl_2cc, symObjAddr: 0x845C, symBinAddr: 0x10005869C, symSize: 0xE8 }
  - { offset: 0xA7F7A, size: 0x8, addend: 0x0, symName: __RNvMsc_NtCscOYdFFY2T5N_3std2fsNtB5_11OpenOptions10create_newCsdARyWrlPtHl_2cc, symObjAddr: 0x8544, symBinAddr: 0x100058784, symSize: 0x1C }
  - { offset: 0xA7FC7, size: 0x8, addend: 0x0, symName: __RNvMsc_NtCscOYdFFY2T5N_3std2fsNtB5_11OpenOptions3newCsdARyWrlPtHl_2cc, symObjAddr: 0x8560, symBinAddr: 0x1000587A0, symSize: 0x44 }
  - { offset: 0xA7FF6, size: 0x8, addend: 0x0, symName: __RNvMsc_NtCscOYdFFY2T5N_3std2fsNtB5_11OpenOptions4readCsdARyWrlPtHl_2cc, symObjAddr: 0x85A4, symBinAddr: 0x1000587E4, symSize: 0x1C }
  - { offset: 0xA8043, size: 0x8, addend: 0x0, symName: __RNvMsc_NtCscOYdFFY2T5N_3std2fsNtB5_11OpenOptions5writeCsdARyWrlPtHl_2cc, symObjAddr: 0x85C0, symBinAddr: 0x100058800, symSize: 0x1C }
  - { offset: 0xAACE0, size: 0x8, addend: 0x0, symName: __RINvMNtCsfvfooZQ3Axs_4core4boolb9then_someNtNtCscOYdFFY2T5N_3std4path7PathBufECsdARyWrlPtHl_2cc, symObjAddr: 0x0, symBinAddr: 0x10005AA88, symSize: 0x70 }
  - { offset: 0xAAFA7, size: 0x8, addend: 0x0, symName: __RNCNvMs1_NtNtNtCscOYdFFY2T5N_3std4sync4mpmc4zeroINtB7_7ChannelINtNtCsfvfooZQ3Axs_4core6result6ResultNtCs4Wq06SSluyi_9jobserver8AcquiredNtNtNtBd_2io5error5ErrorEE4send0CsdARyWrlPtHl_2cc, symObjAddr: 0x165C, symBinAddr: 0x10005B9A8, symSize: 0x654 }
  - { offset: 0xAB77E, size: 0x8, addend: 0x0, symName: __RNcNtINtNtNtNtCscOYdFFY2T5N_3std4sync4mpmc5error16SendTimeoutErrorINtNtCsfvfooZQ3Axs_4core6result6ResultNtCs4Wq06SSluyi_9jobserver8AcquiredNtNtNtBc_2io5error5ErrorEE12Disconnected0CsdARyWrlPtHl_2cc, symObjAddr: 0x1CE0, symBinAddr: 0x10005C02C, symSize: 0x18 }
  - { offset: 0xAC001, size: 0x8, addend: 0x0, symName: __RINvNtNtNtNtCscOYdFFY2T5N_3std3sys12thread_local6native4lazy7destroyINtNtCsfvfooZQ3Axs_4core4cell4CellINtNtB19_6option6OptionNtNtNtNtBa_4sync4mpmc7context7ContextEEECsdARyWrlPtHl_2cc, symObjAddr: 0x1540, symBinAddr: 0x10005B88C, symSize: 0x30 }
  - { offset: 0xAC037, size: 0x8, addend: 0x0, symName: __RINvXNtNtNtNtCscOYdFFY2T5N_3std3sys12thread_local6native4lazyzNtB3_14DestroyedState13register_dtorINtNtCsfvfooZQ3Axs_4core4cell4CellTyyEEECsdARyWrlPtHl_2cc, symObjAddr: 0x1570, symBinAddr: 0x10005B8BC, symSize: 0x10 }
  - { offset: 0xAC064, size: 0x8, addend: 0x0, symName: __RINvXNtNtNtNtCscOYdFFY2T5N_3std3sys12thread_local6native4lazyzNtB3_14DestroyedState13register_dtorhECsdARyWrlPtHl_2cc, symObjAddr: 0x1580, symBinAddr: 0x10005B8CC, symSize: 0x10 }
  - { offset: 0xAC097, size: 0x8, addend: 0x0, symName: __RINvXs_NtNtNtNtCscOYdFFY2T5N_3std3sys12thread_local6native4lazyuNtB5_14DestroyedState13register_dtorINtNtCsfvfooZQ3Axs_4core4cell4CellINtNtB1F_6option6OptionNtNtNtNtBd_4sync4mpmc7context7ContextEEECsdARyWrlPtHl_2cc, symObjAddr: 0x1590, symBinAddr: 0x10005B8DC, symSize: 0x34 }
  - { offset: 0xAC0EB, size: 0x8, addend: 0x0, symName: __RNCINvNtNtNtNtCscOYdFFY2T5N_3std3sys12thread_local6native4lazy7destroyINtNtCsfvfooZQ3Axs_4core4cell4CellINtNtB1b_6option6OptionNtNtNtNtBc_4sync4mpmc7context7ContextEEE0CsdARyWrlPtHl_2cc, symObjAddr: 0x15C4, symBinAddr: 0x10005B910, symSize: 0x98 }
  - { offset: 0xAC662, size: 0x8, addend: 0x0, symName: __RNvXsi_NtNtCscOYdFFY2T5N_3std2io5errorNtB5_9ErrorKindNtNtCsfvfooZQ3Axs_4core3cmp9PartialEq2eqCsdARyWrlPtHl_2cc, symObjAddr: 0x4538, symBinAddr: 0x10005E884, symSize: 0x2C }
  - { offset: 0xAD119, size: 0x8, addend: 0x0, symName: __RINvNtNtCse1nGBsou5OW_5alloc5slice4hack8into_vecReNtNtB6_5alloc6GlobalECsdARyWrlPtHl_2cc, symObjAddr: 0x14AC, symBinAddr: 0x10005B7F8, symSize: 0x94 }
  - { offset: 0xAD31B, size: 0x8, addend: 0x0, symName: __RNvXNvXNtNtCse1nGBsou5OW_5alloc5slice4hackpNtB5_10ConvertVec6to_vecINtB2_9DropGuardNtNtB9_6string6StringNtNtB9_5alloc6GlobalENtNtNtCsfvfooZQ3Axs_4core3ops4drop4Drop4dropCsdARyWrlPtHl_2cc, symObjAddr: 0x3170, symBinAddr: 0x10005D4BC, symSize: 0x20 }
  - { offset: 0xAD369, size: 0x8, addend: 0x0, symName: __RNvXNvXNtNtCse1nGBsou5OW_5alloc5slice4hackpNtB5_10ConvertVec6to_vecINtB2_9DropGuardNtNtNtCscOYdFFY2T5N_3std3ffi6os_str8OsStringNtNtB9_5alloc6GlobalENtNtNtCsfvfooZQ3Axs_4core3ops4drop4Drop4dropCsdARyWrlPtHl_2cc, symObjAddr: 0x3190, symBinAddr: 0x10005D4DC, symSize: 0x20 }
  - { offset: 0xAD3B7, size: 0x8, addend: 0x0, symName: __RNvXNvXNtNtCse1nGBsou5OW_5alloc5slice4hackpNtB5_10ConvertVec6to_vecINtB2_9DropGuardTNtNtNtCscOYdFFY2T5N_3std3ffi6os_str8OsStringB1k_ENtNtB9_5alloc6GlobalENtNtNtCsfvfooZQ3Axs_4core3ops4drop4Drop4dropCsdARyWrlPtHl_2cc, symObjAddr: 0x31B0, symBinAddr: 0x10005D4FC, symSize: 0x20 }
  - { offset: 0xADD9F, size: 0x8, addend: 0x0, symName: __RNvXsG_NtCsfvfooZQ3Axs_4core4cellNtB5_12BorrowRefMutNtNtNtB7_3ops4drop4Drop4dropCsdARyWrlPtHl_2cc, symObjAddr: 0x40C0, symBinAddr: 0x10005E40C, symSize: 0x28 }
  - { offset: 0xAF6D7, size: 0x8, addend: 0x0, symName: __RNvNvMs1_NtNtCsfvfooZQ3Axs_4core3ptr8non_nullINtB7_7NonNullpE13new_unchecked18precondition_checkCsdARyWrlPtHl_2cc, symObjAddr: 0x3124, symBinAddr: 0x10005D470, symSize: 0x38 }
  - { offset: 0xB0A53, size: 0x8, addend: 0x0, symName: __RINvMNtCsfvfooZQ3Axs_4core4boolb9then_someNtNtCscOYdFFY2T5N_3std4path7PathBufECsdARyWrlPtHl_2cc, symObjAddr: 0x0, symBinAddr: 0x10005AA88, symSize: 0x70 }
  - { offset: 0xB0A97, size: 0x8, addend: 0x0, symName: __RINvMNtCsfvfooZQ3Axs_4core4boolb9then_someNtNtCse1nGBsou5OW_5alloc6string6StringECsdARyWrlPtHl_2cc, symObjAddr: 0x70, symBinAddr: 0x10005AAF8, symSize: 0x70 }
  - { offset: 0xB1A57, size: 0x8, addend: 0x0, symName: __RNCNvXs4_NtNtCsfvfooZQ3Axs_4core3str7patternAcj2_NtB7_11MultiCharEq7matches0CsdARyWrlPtHl_2cc, symObjAddr: 0x1CB0, symBinAddr: 0x10005BFFC, symSize: 0x30 }
  - { offset: 0xB1A94, size: 0x8, addend: 0x0, symName: __RNvXs4_NtNtCsfvfooZQ3Axs_4core3str7patternAcj2_NtB5_11MultiCharEq7matchesCsdARyWrlPtHl_2cc, symObjAddr: 0x3984, symBinAddr: 0x10005DCD0, symSize: 0x74 }
  - { offset: 0xB1C4B, size: 0x8, addend: 0x0, symName: __RNvXs0_NtNtCsfvfooZQ3Axs_4core3str7patternNtB5_12CharSearcherNtB5_15ReverseSearcher15next_match_backCsdARyWrlPtHl_2cc, symObjAddr: 0x31D0, symBinAddr: 0x10005D51C, symSize: 0x38C }
  - { offset: 0xB2159, size: 0x8, addend: 0x0, symName: __RNvXs0_NtNtCsfvfooZQ3Axs_4core3str7patternNtB5_12CharSearcherNtB5_15ReverseSearcher9next_backCsdARyWrlPtHl_2cc, symObjAddr: 0x355C, symBinAddr: 0x10005D8A8, symSize: 0x1CC }
  - { offset: 0xB246F, size: 0x8, addend: 0x0, symName: __RNvXst_NtNtCsfvfooZQ3Axs_4core3str7patternReNtB5_7Pattern12is_prefix_ofCsdARyWrlPtHl_2cc, symObjAddr: 0x4638, symBinAddr: 0x10005E984, symSize: 0x4C }
  - { offset: 0xB24AC, size: 0x8, addend: 0x0, symName: __RNvXst_NtNtCsfvfooZQ3Axs_4core3str7patternReNtB5_7Pattern12is_suffix_ofCsdARyWrlPtHl_2cc, symObjAddr: 0x4684, symBinAddr: 0x10005E9D0, symSize: 0x4C }
  - { offset: 0xB24E9, size: 0x8, addend: 0x0, symName: __RNvXst_NtNtCsfvfooZQ3Axs_4core3str7patternReNtB5_7Pattern13into_searcherCsdARyWrlPtHl_2cc, symObjAddr: 0x46D0, symBinAddr: 0x10005EA1C, symSize: 0x4C }
  - { offset: 0xB2526, size: 0x8, addend: 0x0, symName: __RNvXst_NtNtCsfvfooZQ3Axs_4core3str7patternReNtB5_7Pattern15as_utf8_patternCsdARyWrlPtHl_2cc, symObjAddr: 0x471C, symBinAddr: 0x10005EA68, symSize: 0x38 }
  - { offset: 0xB257E, size: 0x8, addend: 0x0, symName: __RNvXst_NtNtCsfvfooZQ3Axs_4core3str7patternReNtB5_7Pattern15is_contained_inCsdARyWrlPtHl_2cc, symObjAddr: 0x4754, symBinAddr: 0x10005EAA0, symSize: 0x1D0 }
  - { offset: 0xB282D, size: 0x8, addend: 0x0, symName: __RNvXst_NtNtCsfvfooZQ3Axs_4core3str7patternReNtB5_7Pattern15strip_prefix_ofCsdARyWrlPtHl_2cc, symObjAddr: 0x4924, symBinAddr: 0x10005EC70, symSize: 0xE0 }
  - { offset: 0xB29CF, size: 0x8, addend: 0x0, symName: __RNvXst_NtNtCsfvfooZQ3Axs_4core3str7patternReNtB5_7Pattern15strip_suffix_ofCsdARyWrlPtHl_2cc, symObjAddr: 0x4A04, symBinAddr: 0x10005ED50, symSize: 0xE0 }
  - { offset: 0xB2B0E, size: 0x8, addend: 0x0, symName: __RNvXs2_NtNtCsfvfooZQ3Axs_4core3str7patterncNtB5_7Pattern12is_prefix_ofCsdARyWrlPtHl_2cc, symObjAddr: 0x374C, symBinAddr: 0x10005DA98, symSize: 0x78 }
  - { offset: 0xB2BB5, size: 0x8, addend: 0x0, symName: __RNvXs2_NtNtCsfvfooZQ3Axs_4core3str7patterncNtB5_7Pattern12is_suffix_ofCsdARyWrlPtHl_2cc, symObjAddr: 0x37C4, symBinAddr: 0x10005DB10, symSize: 0x78 }
  - { offset: 0xB2C5C, size: 0x8, addend: 0x0, symName: __RNvXs2_NtNtCsfvfooZQ3Axs_4core3str7patterncNtB5_7Pattern13into_searcherCsdARyWrlPtHl_2cc, symObjAddr: 0x383C, symBinAddr: 0x10005DB88, symSize: 0x114 }
  - { offset: 0xB2D74, size: 0x8, addend: 0x0, symName: __RNvXs2_NtNtCsfvfooZQ3Axs_4core3str7patterncNtB5_7Pattern15as_utf8_patternCsdARyWrlPtHl_2cc, symObjAddr: 0x3950, symBinAddr: 0x10005DC9C, symSize: 0x34 }
  - { offset: 0xB2DA8, size: 0x8, addend: 0x0, symName: __RNvXs7_NtNtCsfvfooZQ3Axs_4core3str7patternINtB5_18MultiCharEqPatternAcj2_ENtB5_7Pattern13into_searcherCsdARyWrlPtHl_2cc, symObjAddr: 0x39F8, symBinAddr: 0x10005DD44, symSize: 0xB8 }
  - { offset: 0xB2E04, size: 0x8, addend: 0x0, symName: __RNvXs7_NtNtCsfvfooZQ3Axs_4core3str7patternINtB5_18MultiCharEqPatternNCNvMB7_e4trim0ENtB5_7Pattern13into_searcherCsdARyWrlPtHl_2cc, symObjAddr: 0x3AB0, symBinAddr: 0x10005DDFC, symSize: 0x90 }
  - { offset: 0xB2E60, size: 0x8, addend: 0x0, symName: __RNvXs7_NtNtCsfvfooZQ3Axs_4core3str7patternINtB5_18MultiCharEqPatternNtB7_12IsWhitespaceENtB5_7Pattern13into_searcherCsdARyWrlPtHl_2cc, symObjAddr: 0x3B40, symBinAddr: 0x10005DE8C, symSize: 0x90 }
  - { offset: 0xB2EC2, size: 0x8, addend: 0x0, symName: __RNvXs8_NtNtCsfvfooZQ3Axs_4core3str7patternINtB5_19MultiCharEqSearcherAcj2_ENtB5_8Searcher4nextCsdARyWrlPtHl_2cc, symObjAddr: 0x3BD0, symBinAddr: 0x10005DF1C, symSize: 0x13C }
  - { offset: 0xB2FE2, size: 0x8, addend: 0x0, symName: __RNvXs8_NtNtCsfvfooZQ3Axs_4core3str7patternINtB5_19MultiCharEqSearcherNCNvMB7_e4trim0ENtB5_8Searcher4nextCsdARyWrlPtHl_2cc, symObjAddr: 0x3D0C, symBinAddr: 0x10005E058, symSize: 0x13C }
  - { offset: 0xB3102, size: 0x8, addend: 0x0, symName: __RNvXs8_NtNtCsfvfooZQ3Axs_4core3str7patternINtB5_19MultiCharEqSearcherNtB7_12IsWhitespaceENtB5_8Searcher4nextCsdARyWrlPtHl_2cc, symObjAddr: 0x3E48, symBinAddr: 0x10005E194, symSize: 0x13C }
  - { offset: 0xB325E, size: 0x8, addend: 0x0, symName: __RNvXs9_NtNtCsfvfooZQ3Axs_4core3str7patternINtB5_19MultiCharEqSearcherNCNvMB7_e4trim0ENtB5_15ReverseSearcher9next_backCsdARyWrlPtHl_2cc, symObjAddr: 0x3F84, symBinAddr: 0x10005E2D0, symSize: 0x13C }
  - { offset: 0xB3384, size: 0x8, addend: 0x0, symName: __RNvXs_NtNtCsfvfooZQ3Axs_4core3str7patternNtB4_12CharSearcherNtB4_8Searcher10next_matchCsdARyWrlPtHl_2cc, symObjAddr: 0x40E8, symBinAddr: 0x10005E434, symSize: 0x384 }
  - { offset: 0xB3825, size: 0x8, addend: 0x0, symName: __RNvXs_NtNtCsfvfooZQ3Axs_4core3str7patternNtB4_12CharSearcherNtB4_8Searcher8haystackCsdARyWrlPtHl_2cc, symObjAddr: 0x446C, symBinAddr: 0x10005E7B8, symSize: 0x20 }
  - { offset: 0xB3859, size: 0x8, addend: 0x0, symName: __RNvXsb_NtNtCsfvfooZQ3Axs_4core3str7patternAcj2_NtB5_7Pattern13into_searcherCsdARyWrlPtHl_2cc, symObjAddr: 0x448C, symBinAddr: 0x10005E7D8, symSize: 0x68 }
  - { offset: 0xB389C, size: 0x8, addend: 0x0, symName: __RNvXsc_NtNtCsfvfooZQ3Axs_4core3str7patternINtB5_17CharArraySearcherKj2_ENtB5_8Searcher10next_matchCsdARyWrlPtHl_2cc, symObjAddr: 0x44F4, symBinAddr: 0x10005E840, symSize: 0x24 }
  - { offset: 0xB38CA, size: 0x8, addend: 0x0, symName: __RNvXsc_NtNtCsfvfooZQ3Axs_4core3str7patternINtB5_17CharArraySearcherKj2_ENtB5_8Searcher8haystackCsdARyWrlPtHl_2cc, symObjAddr: 0x4518, symBinAddr: 0x10005E864, symSize: 0x20 }
  - { offset: 0xB3913, size: 0x8, addend: 0x0, symName: __RNvXso_NtNtCsfvfooZQ3Axs_4core3str7patternINtB5_21CharPredicateSearcherNCNvMB7_e4trim0ENtB5_8Searcher11next_rejectCsdARyWrlPtHl_2cc, symObjAddr: 0x4564, symBinAddr: 0x10005E8B0, symSize: 0x24 }
  - { offset: 0xB394A, size: 0x8, addend: 0x0, symName: __RNvXso_NtNtCsfvfooZQ3Axs_4core3str7patternINtB5_21CharPredicateSearcherNtB7_12IsWhitespaceENtB5_8Searcher10next_matchCsdARyWrlPtHl_2cc, symObjAddr: 0x4588, symBinAddr: 0x10005E8D4, symSize: 0x24 }
  - { offset: 0xB3981, size: 0x8, addend: 0x0, symName: __RNvXso_NtNtCsfvfooZQ3Axs_4core3str7patternINtB5_21CharPredicateSearcherNtB7_12IsWhitespaceENtB5_8Searcher8haystackCsdARyWrlPtHl_2cc, symObjAddr: 0x45AC, symBinAddr: 0x10005E8F8, symSize: 0x20 }
  - { offset: 0xB39D3, size: 0x8, addend: 0x0, symName: __RNvXsp_NtNtCsfvfooZQ3Axs_4core3str7patternINtB5_21CharPredicateSearcherNCNvMB7_e4trim0ENtB5_15ReverseSearcher16next_reject_backCsdARyWrlPtHl_2cc, symObjAddr: 0x45CC, symBinAddr: 0x10005E918, symSize: 0x24 }
  - { offset: 0xB3A27, size: 0x8, addend: 0x0, symName: __RNvXss_NtNtCsfvfooZQ3Axs_4core3str7patternRReNtB5_7Pattern15is_contained_inCsdARyWrlPtHl_2cc, symObjAddr: 0x45F0, symBinAddr: 0x10005E93C, symSize: 0x48 }
  - { offset: 0xB3B4D, size: 0x8, addend: 0x0, symName: __RNvXsv_NtNtCsfvfooZQ3Axs_4core3str7patternNtB5_11StrSearcherNtB5_8Searcher10next_matchCsdARyWrlPtHl_2cc, symObjAddr: 0x4AE4, symBinAddr: 0x10005EE30, symSize: 0x148 }
  - { offset: 0xB3BD9, size: 0x8, addend: 0x0, symName: __RNvXsv_NtNtCsfvfooZQ3Axs_4core3str7patternNtB5_11StrSearcherNtB5_8Searcher4nextCsdARyWrlPtHl_2cc, symObjAddr: 0x4C2C, symBinAddr: 0x10005EF78, symSize: 0x444 }
  - { offset: 0xB3EDE, size: 0x8, addend: 0x0, symName: __RNvXsv_NtNtCsfvfooZQ3Axs_4core3str7patternNtB5_11StrSearcherNtB5_8Searcher8haystackCsdARyWrlPtHl_2cc, symObjAddr: 0x5070, symBinAddr: 0x10005F3BC, symSize: 0x20 }
  - { offset: 0xB3F12, size: 0x8, addend: 0x0, symName: __RNvXsy_NtNtCsfvfooZQ3Axs_4core3str7patternNtB5_9MatchOnlyNtB5_14TwoWayStrategy16use_early_rejectCsdARyWrlPtHl_2cc, symObjAddr: 0x5090, symBinAddr: 0x10005F3DC, symSize: 0xC }
  - { offset: 0xB3F30, size: 0x8, addend: 0x0, symName: __RNvXsy_NtNtCsfvfooZQ3Axs_4core3str7patternNtB5_9MatchOnlyNtB5_14TwoWayStrategy8matchingCsdARyWrlPtHl_2cc, symObjAddr: 0x509C, symBinAddr: 0x10005F3E8, symSize: 0x28 }
  - { offset: 0xB3F6D, size: 0x8, addend: 0x0, symName: __RNvXsy_NtNtCsfvfooZQ3Axs_4core3str7patternNtB5_9MatchOnlyNtB5_14TwoWayStrategy9rejectingCsdARyWrlPtHl_2cc, symObjAddr: 0x50C4, symBinAddr: 0x10005F410, symSize: 0x18 }
  - { offset: 0xB3FB0, size: 0x8, addend: 0x0, symName: __RNvXsz_NtNtCsfvfooZQ3Axs_4core3str7patternNtB5_14RejectAndMatchNtB5_14TwoWayStrategy16use_early_rejectCsdARyWrlPtHl_2cc, symObjAddr: 0x50DC, symBinAddr: 0x10005F428, symSize: 0xC }
  - { offset: 0xB3FCE, size: 0x8, addend: 0x0, symName: __RNvXsz_NtNtCsfvfooZQ3Axs_4core3str7patternNtB5_14RejectAndMatchNtB5_14TwoWayStrategy8matchingCsdARyWrlPtHl_2cc, symObjAddr: 0x50E8, symBinAddr: 0x10005F434, symSize: 0x20 }
  - { offset: 0xB400B, size: 0x8, addend: 0x0, symName: __RNvXsz_NtNtCsfvfooZQ3Axs_4core3str7patternNtB5_14RejectAndMatchNtB5_14TwoWayStrategy9rejectingCsdARyWrlPtHl_2cc, symObjAddr: 0x5108, symBinAddr: 0x10005F454, symSize: 0x28 }
  - { offset: 0xB404E, size: 0x8, addend: 0x0, symName: __RNvYINtNtNtCsfvfooZQ3Axs_4core3str7pattern19MultiCharEqSearcherAcj2_ENtB5_8Searcher10next_matchCsdARyWrlPtHl_2cc, symObjAddr: 0x5130, symBinAddr: 0x10005F47C, symSize: 0x90 }
  - { offset: 0xB40AF, size: 0x8, addend: 0x0, symName: __RNvYINtNtNtCsfvfooZQ3Axs_4core3str7pattern19MultiCharEqSearcherNCNvMB7_e4trim0ENtB5_8Searcher11next_rejectCsdARyWrlPtHl_2cc, symObjAddr: 0x5250, symBinAddr: 0x10005F59C, symSize: 0x90 }
  - { offset: 0xB4114, size: 0x8, addend: 0x0, symName: __RNvYINtNtNtCsfvfooZQ3Axs_4core3str7pattern19MultiCharEqSearcherNtB7_12IsWhitespaceENtB5_8Searcher10next_matchCsdARyWrlPtHl_2cc, symObjAddr: 0x52E0, symBinAddr: 0x10005F62C, symSize: 0x90 }
  - { offset: 0xB417B, size: 0x8, addend: 0x0, symName: __RNvYINtNtNtCsfvfooZQ3Axs_4core3str7pattern19MultiCharEqSearcherNCNvMB7_e4trim0ENtB5_15ReverseSearcher16next_reject_backCsdARyWrlPtHl_2cc, symObjAddr: 0x51C0, symBinAddr: 0x10005F50C, symSize: 0x90 }
  - { offset: 0xB41E0, size: 0x8, addend: 0x0, symName: __RNvYNtNtNtCsfvfooZQ3Axs_4core3str7pattern12CharSearcherNtB4_15ReverseSearcher16next_reject_backCsdARyWrlPtHl_2cc, symObjAddr: 0x5370, symBinAddr: 0x10005F6BC, symSize: 0x90 }
  - { offset: 0xB4C15, size: 0x8, addend: 0x0, symName: __RNvXNtNtNtCsfvfooZQ3Axs_4core4iter6traits7collectNtCs9APsZDMLctY_5shlex5ShlexNtB2_12IntoIterator9into_iterCsdARyWrlPtHl_2cc, symObjAddr: 0x315C, symBinAddr: 0x10005D4A8, symSize: 0x14 }
  - { offset: 0xB526F, size: 0x8, addend: 0x0, symName: __RNvXs1_NtCsfvfooZQ3Axs_4core7convertNtNtNtCscOYdFFY2T5N_3std2io5error5ErrorINtB5_4IntoNtCsdARyWrlPtHl_2cc5ErrorE4intoB1o_, symObjAddr: 0x3728, symBinAddr: 0x10005DA74, symSize: 0x24 }
  - { offset: 0xB5827, size: 0x8, addend: 0x0, symName: __RINvMs0_NtNtNtNtCscOYdFFY2T5N_3std3sys12thread_local6native4lazyINtB6_7StorageINtNtCsfvfooZQ3Axs_4core4cell4CellINtNtB1j_6option6OptionNtNtNtNtBe_4sync4mpmc7context7ContextEEuE10initializeNvNvNvMB2b_B29_4with7CONTEXT6___initECsdARyWrlPtHl_2cc, symObjAddr: 0xE0, symBinAddr: 0x10010B1D4, symSize: 0x26C }
  - { offset: 0xB5A73, size: 0x8, addend: 0x0, symName: __RINvMs0_NtNtNtNtCscOYdFFY2T5N_3std3sys12thread_local6native4lazyINtB6_7StorageINtNtCsfvfooZQ3Axs_4core4cell4CellINtNtB1j_6option6OptionNtNtNtNtBe_4sync4mpmc7context7ContextEEuE11get_or_initNvNvNvMB2b_B29_4with7CONTEXT6___initECsdARyWrlPtHl_2cc, symObjAddr: 0x34C, symBinAddr: 0x10005AB68, symSize: 0xC4 }
  - { offset: 0xB5C7B, size: 0x8, addend: 0x0, symName: __RINvMs0_NtNtNtNtCscOYdFFY2T5N_3std3sys12thread_local6native4lazyINtB6_7StorageINtNtCsfvfooZQ3Axs_4core4cell4CellTyyEEzE10initializeNvNvNvMNtNtBe_4hash6randomNtB2c_11RandomState3new4KEYS6___initECsdARyWrlPtHl_2cc, symObjAddr: 0x410, symBinAddr: 0x10010B440, symSize: 0x264 }
  - { offset: 0xB5ECF, size: 0x8, addend: 0x0, symName: __RINvMs0_NtNtNtNtCscOYdFFY2T5N_3std3sys12thread_local6native4lazyINtB6_7StorageINtNtCsfvfooZQ3Axs_4core4cell4CellTyyEEzE11get_or_initNvNvNvMNtNtBe_4hash6randomNtB2d_11RandomState3new4KEYS6___initECsdARyWrlPtHl_2cc, symObjAddr: 0x674, symBinAddr: 0x10005AC2C, symSize: 0xC4 }
  - { offset: 0xB60A5, size: 0x8, addend: 0x0, symName: __RINvMs0_NtNtNtNtCscOYdFFY2T5N_3std3sys12thread_local6native4lazyINtB6_7StoragehzE10initializeNvNvNvNtNtNtBe_4sync4mpmc5waker17current_thread_id5DUMMY6___initECsdARyWrlPtHl_2cc, symObjAddr: 0x738, symBinAddr: 0x10010B6A4, symSize: 0x26C }
  - { offset: 0xB62C6, size: 0x8, addend: 0x0, symName: __RINvMs0_NtNtNtNtCscOYdFFY2T5N_3std3sys12thread_local6native4lazyINtB6_7StoragehzE11get_or_initNvNvNvNtNtNtBe_4sync4mpmc5waker17current_thread_id5DUMMY6___initECsdARyWrlPtHl_2cc, symObjAddr: 0x9A4, symBinAddr: 0x10005ACF0, symSize: 0xCC }
  - { offset: 0xB6401, size: 0x8, addend: 0x0, symName: __RINvMs5_NtNtCscOYdFFY2T5N_3std2io5errorNtB6_5Error3newNtNtCse1nGBsou5OW_5alloc6string6StringECsdARyWrlPtHl_2cc, symObjAddr: 0xA70, symBinAddr: 0x10005ADBC, symSize: 0x4C }
  - { offset: 0xB64D8, size: 0x8, addend: 0x0, symName: __RINvMsx_NtNtCsfvfooZQ3Axs_4core3str7patternNtB6_14TwoWaySearcher4nextNtB6_14RejectAndMatchECsdARyWrlPtHl_2cc, symObjAddr: 0xABC, symBinAddr: 0x10005AE08, symSize: 0x4F8 }
  - { offset: 0xB6828, size: 0x8, addend: 0x0, symName: __RINvMsx_NtNtCsfvfooZQ3Axs_4core3str7patternNtB6_14TwoWaySearcher4nextNtB6_9MatchOnlyECsdARyWrlPtHl_2cc, symObjAddr: 0xFB4, symBinAddr: 0x10005B300, symSize: 0x4F8 }
  - { offset: 0xB6FA6, size: 0x8, addend: 0x0, symName: __RNvMNtNtNtCsfvfooZQ3Axs_4core4iter8adapters7step_byINtB2_6StepByINtNtNtB8_3ops5range5RangejEE3newCsdARyWrlPtHl_2cc, symObjAddr: 0x1CF8, symBinAddr: 0x10005C044, symSize: 0xE0 }
  - { offset: 0xB7065, size: 0x8, addend: 0x0, symName: __RNvMs0_NtNtNtCscOYdFFY2T5N_3std4sync4mpmc4zeroINtB5_6PacketINtNtCsfvfooZQ3Axs_4core6result6ResultNtCs4Wq06SSluyi_9jobserver8AcquiredNtNtNtBb_2io5error5ErrorEE10wait_readyCsdARyWrlPtHl_2cc, symObjAddr: 0x1DD8, symBinAddr: 0x10005C124, symSize: 0x70 }
  - { offset: 0xB7151, size: 0x8, addend: 0x0, symName: __RNvMs1_NtNtCsfvfooZQ3Axs_4core3ptr8non_nullINtB5_7NonNullINtNtCse1nGBsou5OW_5alloc4sync3ArcNtNtCscOYdFFY2T5N_3std4path4PathEE7sub_ptrCsdARyWrlPtHl_2cc, symObjAddr: 0x1E48, symBinAddr: 0x10005C194, symSize: 0x74 }
  - { offset: 0xB7257, size: 0x8, addend: 0x0, symName: __RNvMs1_NtNtCsfvfooZQ3Axs_4core3ptr8non_nullINtB5_7NonNullNtCsdARyWrlPtHl_2cc6ObjectE7sub_ptrBV_, symObjAddr: 0x1EBC, symBinAddr: 0x10005C208, symSize: 0x74 }
  - { offset: 0xB735D, size: 0x8, addend: 0x0, symName: __RNvMs1_NtNtCsfvfooZQ3Axs_4core3ptr8non_nullINtB5_7NonNullNtNtCse1nGBsou5OW_5alloc6string6StringE7sub_ptrCsdARyWrlPtHl_2cc, symObjAddr: 0x1F30, symBinAddr: 0x10005C27C, symSize: 0x74 }
  - { offset: 0xB7463, size: 0x8, addend: 0x0, symName: __RNvMs1_NtNtCsfvfooZQ3Axs_4core3ptr8non_nullINtB5_7NonNullNtNtNtCscOYdFFY2T5N_3std3ffi6os_str8OsStringE7sub_ptrCsdARyWrlPtHl_2cc, symObjAddr: 0x1FA4, symBinAddr: 0x10005C2F0, symSize: 0x74 }
  - { offset: 0xB7569, size: 0x8, addend: 0x0, symName: __RNvMs1_NtNtCsfvfooZQ3Axs_4core3ptr8non_nullINtB5_7NonNullNtNtNtNtCscOYdFFY2T5N_3std4sync4mpmc5waker5EntryE7sub_ptrCsdARyWrlPtHl_2cc, symObjAddr: 0x2018, symBinAddr: 0x10005C364, symSize: 0x74 }
  - { offset: 0xB7696, size: 0x8, addend: 0x0, symName: __RNvMs1_NtNtCsfvfooZQ3Axs_4core3ptr8non_nullINtB5_7NonNullRNtNtNtCscOYdFFY2T5N_3std3ffi6os_str5OsStrE7sub_ptrCsdARyWrlPtHl_2cc, symObjAddr: 0x208C, symBinAddr: 0x10005C3D8, symSize: 0x74 }
  - { offset: 0xB7782, size: 0x8, addend: 0x0, symName: __RNvMs1_NtNtCsfvfooZQ3Axs_4core3ptr8non_nullINtB5_7NonNullhE7sub_ptrCsdARyWrlPtHl_2cc, symObjAddr: 0x2100, symBinAddr: 0x10005C44C, symSize: 0x74 }
  - { offset: 0xB7889, size: 0x8, addend: 0x0, symName: __RNvMs1_NtNtNtCscOYdFFY2T5N_3std4sync4mpmc4zeroINtB5_7ChannelINtNtCsfvfooZQ3Axs_4core6result6ResultNtCs4Wq06SSluyi_9jobserver8AcquiredNtNtNtBb_2io5error5ErrorEE10disconnectCsdARyWrlPtHl_2cc, symObjAddr: 0x2174, symBinAddr: 0x10005C4C0, symSize: 0x188 }
  - { offset: 0xB7A8D, size: 0x8, addend: 0x0, symName: __RNvMs1_NtNtNtCscOYdFFY2T5N_3std4sync4mpmc4zeroINtB5_7ChannelINtNtCsfvfooZQ3Axs_4core6result6ResultNtCs4Wq06SSluyi_9jobserver8AcquiredNtNtNtBb_2io5error5ErrorEE4readCsdARyWrlPtHl_2cc, symObjAddr: 0x22FC, symBinAddr: 0x10005C648, symSize: 0x244 }
  - { offset: 0xB7E0D, size: 0x8, addend: 0x0, symName: __RNvMs1_NtNtNtCscOYdFFY2T5N_3std4sync4mpmc4zeroINtB5_7ChannelINtNtCsfvfooZQ3Axs_4core6result6ResultNtCs4Wq06SSluyi_9jobserver8AcquiredNtNtNtBb_2io5error5ErrorEE4sendCsdARyWrlPtHl_2cc, symObjAddr: 0x2540, symBinAddr: 0x10005C88C, symSize: 0x3E0 }
  - { offset: 0xB7FE3, size: 0x8, addend: 0x0, symName: __RNvMs1_NtNtNtCscOYdFFY2T5N_3std4sync4mpmc4zeroINtB5_7ChannelINtNtCsfvfooZQ3Axs_4core6result6ResultNtCs4Wq06SSluyi_9jobserver8AcquiredNtNtNtBb_2io5error5ErrorEE5writeCsdARyWrlPtHl_2cc, symObjAddr: 0x2920, symBinAddr: 0x10005CC6C, symSize: 0xC4 }
  - { offset: 0xB8156, size: 0x8, addend: 0x0, symName: __RNvMs1_NtNtNtCscOYdFFY2T5N_3std4sync4mpmc4zeroINtB5_7ChannelINtNtCsfvfooZQ3Axs_4core6result6ResultNtCs4Wq06SSluyi_9jobserver8AcquiredNtNtNtBb_2io5error5ErrorEE8try_recvCsdARyWrlPtHl_2cc, symObjAddr: 0x29E4, symBinAddr: 0x10005CD30, symSize: 0x304 }
  - { offset: 0xB84E0, size: 0x8, addend: 0x0, symName: __RNvMs5_NtNtCscOYdFFY2T5N_3std2io5errorNtB5_5Error13last_os_errorCsdARyWrlPtHl_2cc, symObjAddr: 0x2CE8, symBinAddr: 0x10005D034, symSize: 0x78 }
  - { offset: 0xB860C, size: 0x8, addend: 0x0, symName: __RNvMs5_NtNtCscOYdFFY2T5N_3std2io5errorNtB5_5Error14is_interruptedCsdARyWrlPtHl_2cc, symObjAddr: 0x2D60, symBinAddr: 0x10005D0AC, symSize: 0x138 }
  - { offset: 0xB8768, size: 0x8, addend: 0x0, symName: __RNvMs5_NtNtCscOYdFFY2T5N_3std2io5errorNtB5_5Error4kindCsdARyWrlPtHl_2cc, symObjAddr: 0x2E98, symBinAddr: 0x10005D1E4, symSize: 0xC0 }
  - { offset: 0xB8994, size: 0x8, addend: 0x0, symName: __RNvMs7_NtCsfvfooZQ3Axs_4core4cellINtB5_4CellINtNtCse1nGBsou5OW_5alloc3vec3VecTNtNtCscOYdFFY2T5N_3std7process7CommandNtNvMs4_CsdARyWrlPtHl_2ccNtB1Y_5Build15compile_objects10KillOnDropNtNtNtB1Y_8parallel9job_token8JobTokenEEE3newB1Y_, symObjAddr: 0x2F58, symBinAddr: 0x10005D2A4, symSize: 0x30 }
  - { offset: 0xB8A0A, size: 0x8, addend: 0x0, symName: __RNvMs7_NtCsfvfooZQ3Axs_4core4cellINtB5_4CellINtNtCse1nGBsou5OW_5alloc3vec3VecTNtNtCscOYdFFY2T5N_3std7process7CommandNtNvMs4_CsdARyWrlPtHl_2ccNtB1Y_5Build15compile_objects10KillOnDropNtNtNtB1Y_8parallel9job_token8JobTokenEEE3setB1Y_, symObjAddr: 0x2F88, symBinAddr: 0x10005D2D4, symSize: 0x4C }
  - { offset: 0xB8AAC, size: 0x8, addend: 0x0, symName: __RNvMs7_NtCsfvfooZQ3Axs_4core4cellINtB5_4CellbE3newCsdARyWrlPtHl_2cc, symObjAddr: 0x2FD4, symBinAddr: 0x10005D320, symSize: 0x10 }
  - { offset: 0xB8B0D, size: 0x8, addend: 0x0, symName: __RNvMs7_NtCsfvfooZQ3Axs_4core4cellINtB5_4CellbE3setCsdARyWrlPtHl_2cc, symObjAddr: 0x2FE4, symBinAddr: 0x10005D330, symSize: 0x1C }
  - { offset: 0xB8B99, size: 0x8, addend: 0x0, symName: __RNvMs8_NtCsfvfooZQ3Axs_4core4cellINtB5_4CellbE3getCsdARyWrlPtHl_2cc, symObjAddr: 0x3000, symBinAddr: 0x10005D34C, symSize: 0x1C }
  - { offset: 0xB8BED, size: 0x8, addend: 0x0, symName: __RNvMsa_NtCsfvfooZQ3Axs_4core4cellINtB5_4CellINtNtCse1nGBsou5OW_5alloc3vec3VecTNtNtCscOYdFFY2T5N_3std7process7CommandNtNvMs4_CsdARyWrlPtHl_2ccNtB1Y_5Build15compile_objects10KillOnDropNtNtNtB1Y_8parallel9job_token8JobTokenEEE4takeB1Y_, symObjAddr: 0x301C, symBinAddr: 0x10005D368, symSize: 0x54 }
  - { offset: 0xB8D8C, size: 0x8, addend: 0x0, symName: __RNvMsl_NtCsfvfooZQ3Axs_4core4cellINtB5_7RefCellINtNtNtNtCscOYdFFY2T5N_3std2io8buffered10linewriter10LineWriterNtNtBQ_5stdio9StdoutRawEE14try_borrow_mutCsdARyWrlPtHl_2cc, symObjAddr: 0x3070, symBinAddr: 0x10005D3BC, symSize: 0xB4 }
  - { offset: 0xB9A19, size: 0x8, addend: 0x0, symName: __RNvNvNtNtNtNtCscOYdFFY2T5N_3std3sys3pal4unix2os11split_paths12is_separatorCsdARyWrlPtHl_2cc, symObjAddr: 0x2724, symBinAddr: 0x100061C2C, symSize: 0x20 }
  - { offset: 0xBA0B5, size: 0x8, addend: 0x0, symName: __RNvXs6_NtNtNtCscOYdFFY2T5N_3std11collections4hash3mapINtB5_7HashMapINtNtCse1nGBsou5OW_5alloc5boxed3BoxSIB14_NtNtNtBb_3ffi6os_str5OsStrEENtNtCsdARyWrlPtHl_2cc4tool10ToolFamilyENtNtCsfvfooZQ3Axs_4core7default7Default7defaultB2e_, symObjAddr: 0x3218, symBinAddr: 0x100062668, symSize: 0x74 }
  - { offset: 0xBA138, size: 0x8, addend: 0x0, symName: __RNvXs6_NtNtNtCscOYdFFY2T5N_3std11collections4hash3mapINtB5_7HashMapINtNtCse1nGBsou5OW_5alloc5boxed3BoxeEINtNtB18_4sync3ArcNtNtNtBb_3ffi6os_str5OsStrEENtNtCsfvfooZQ3Axs_4core7default7Default7defaultCsdARyWrlPtHl_2cc, symObjAddr: 0x328C, symBinAddr: 0x1000626DC, symSize: 0x74 }
  - { offset: 0xBA1BB, size: 0x8, addend: 0x0, symName: __RNvXs6_NtNtNtCscOYdFFY2T5N_3std11collections4hash3mapINtB5_7HashMapINtNtCse1nGBsou5OW_5alloc5boxed3BoxeEINtNtB18_4sync3ArceEENtNtCsfvfooZQ3Axs_4core7default7Default7defaultCsdARyWrlPtHl_2cc, symObjAddr: 0x3300, symBinAddr: 0x100062750, symSize: 0x74 }
  - { offset: 0xBA23E, size: 0x8, addend: 0x0, symName: __RNvXs6_NtNtNtCscOYdFFY2T5N_3std11collections4hash3mapINtB5_7HashMapINtNtCse1nGBsou5OW_5alloc5boxed3BoxeEINtNtCsfvfooZQ3Axs_4core6option6OptionINtNtB18_4sync3ArcNtNtNtBb_3ffi6os_str5OsStrEEENtNtB1J_7default7Default7defaultCsdARyWrlPtHl_2cc, symObjAddr: 0x3374, symBinAddr: 0x1000627C4, symSize: 0x74 }
  - { offset: 0xBA2C1, size: 0x8, addend: 0x0, symName: __RNvXs6_NtNtNtCscOYdFFY2T5N_3std11collections4hash3mapINtB5_7HashMapNtCsdARyWrlPtHl_2cc12CompilerFlagbENtNtCsfvfooZQ3Axs_4core7default7Default7defaultB15_, symObjAddr: 0x33E8, symBinAddr: 0x100062838, symSize: 0x74 }
  - { offset: 0xBCA0E, size: 0x8, addend: 0x0, symName: __RNvMs6_NtCsfvfooZQ3Axs_4core3numm11checked_subCsdARyWrlPtHl_2cc, symObjAddr: 0x15FC, symBinAddr: 0x100060B04, symSize: 0x6C }
  - { offset: 0xBCA4B, size: 0x8, addend: 0x0, symName: __RNvMs6_NtCsfvfooZQ3Axs_4core3numm3powCsdARyWrlPtHl_2cc, symObjAddr: 0x1668, symBinAddr: 0x100060B70, symSize: 0x1FC }
  - { offset: 0xBCB99, size: 0x8, addend: 0x0, symName: __RNvNvMs6_NtCsfvfooZQ3Axs_4core3numm13unchecked_add18precondition_checkCsdARyWrlPtHl_2cc, symObjAddr: 0x261C, symBinAddr: 0x100061B24, symSize: 0x44 }
  - { offset: 0xBCC3C, size: 0x8, addend: 0x0, symName: __RNvMsA_NtCsfvfooZQ3Axs_4core3numm16from_ascii_radixCsdARyWrlPtHl_2cc, symObjAddr: 0x1864, symBinAddr: 0x100060D6C, symSize: 0x53C }
  - { offset: 0xBCEDB, size: 0x8, addend: 0x0, symName: __RNvNvMs3_NtCsfvfooZQ3Axs_4core3numi13unchecked_neg18precondition_checkCsdARyWrlPtHl_2cc, symObjAddr: 0x25D0, symBinAddr: 0x100061AD8, symSize: 0x4C }
  - { offset: 0xBCF75, size: 0x8, addend: 0x0, symName: __RNvNvMs9_NtCsfvfooZQ3Axs_4core3numj13unchecked_add18precondition_checkCsdARyWrlPtHl_2cc, symObjAddr: 0x2660, symBinAddr: 0x100061B68, symSize: 0x44 }
  - { offset: 0xBD001, size: 0x8, addend: 0x0, symName: __RNvNvMs9_NtCsfvfooZQ3Axs_4core3numj13unchecked_mul18precondition_checkCsdARyWrlPtHl_2cc, symObjAddr: 0x26A4, symBinAddr: 0x100061BAC, symSize: 0x40 }
  - { offset: 0xBD063, size: 0x8, addend: 0x0, symName: __RNvNvMs9_NtCsfvfooZQ3Axs_4core3numj13unchecked_sub18precondition_checkCsdARyWrlPtHl_2cc, symObjAddr: 0x26E4, symBinAddr: 0x100061BEC, symSize: 0x40 }
  - { offset: 0xBD0C4, size: 0x8, addend: 0x0, symName: __RNvXsz_NtCsfvfooZQ3Axs_4core3nummNtNtNtB7_3str6traits7FromStr8from_strCsdARyWrlPtHl_2cc, symObjAddr: 0x3808, symBinAddr: 0x100062BF0, symSize: 0x40 }
  - { offset: 0xBD511, size: 0x8, addend: 0x0, symName: __RINvMNtCsfvfooZQ3Axs_4core3stre10split_oncecECsdARyWrlPtHl_2cc, symObjAddr: 0x1C8, symBinAddr: 0x10005F74C, symSize: 0x1B4 }
  - { offset: 0xBD7E9, size: 0x8, addend: 0x0, symName: __RINvMNtCsfvfooZQ3Axs_4core3stre11starts_withReECsdARyWrlPtHl_2cc, symObjAddr: 0x37C, symBinAddr: 0x10005F900, symSize: 0x4C }
  - { offset: 0xBD82F, size: 0x8, addend: 0x0, symName: __RINvMNtCsfvfooZQ3Axs_4core3stre11starts_withcECsdARyWrlPtHl_2cc, symObjAddr: 0x3C8, symBinAddr: 0x10005F94C, symSize: 0x44 }
  - { offset: 0xBD875, size: 0x8, addend: 0x0, symName: __RINvMNtCsfvfooZQ3Axs_4core3stre12strip_prefixReECsdARyWrlPtHl_2cc, symObjAddr: 0x40C, symBinAddr: 0x10005F990, symSize: 0x4C }
  - { offset: 0xBD8BB, size: 0x8, addend: 0x0, symName: __RINvMNtCsfvfooZQ3Axs_4core3stre12strip_suffixReECsdARyWrlPtHl_2cc, symObjAddr: 0x458, symBinAddr: 0x10005F9DC, symSize: 0x4C }
  - { offset: 0xBD935, size: 0x8, addend: 0x0, symName: __RINvMNtCsfvfooZQ3Axs_4core3stre12trim_matchesNCNvB2_4trim0ECsdARyWrlPtHl_2cc, symObjAddr: 0x4A4, symBinAddr: 0x10005FA28, symSize: 0x128 }
  - { offset: 0xBDB06, size: 0x8, addend: 0x0, symName: __RINvMNtCsfvfooZQ3Axs_4core3stre16trim_end_matchescECsdARyWrlPtHl_2cc, symObjAddr: 0x5CC, symBinAddr: 0x10005FB50, symSize: 0xE8 }
  - { offset: 0xBDC3A, size: 0x8, addend: 0x0, symName: __RINvMNtCsfvfooZQ3Axs_4core3stre5parsemECsdARyWrlPtHl_2cc, symObjAddr: 0x6B4, symBinAddr: 0x10005FC38, symSize: 0x38 }
  - { offset: 0xBDC7E, size: 0x8, addend: 0x0, symName: __RINvMNtCsfvfooZQ3Axs_4core3stre5rfindcECsdARyWrlPtHl_2cc, symObjAddr: 0x6EC, symBinAddr: 0x10005FC70, symSize: 0xC8 }
  - { offset: 0xBDD06, size: 0x8, addend: 0x0, symName: __RINvMNtCsfvfooZQ3Axs_4core3stre5splitAcj2_ECsdARyWrlPtHl_2cc, symObjAddr: 0x7B4, symBinAddr: 0x10005FD38, symSize: 0xA8 }
  - { offset: 0xBDD4C, size: 0x8, addend: 0x0, symName: __RINvMNtCsfvfooZQ3Axs_4core3stre5splitReECsdARyWrlPtHl_2cc, symObjAddr: 0x85C, symBinAddr: 0x10005FDE0, symSize: 0xA4 }
  - { offset: 0xBDD92, size: 0x8, addend: 0x0, symName: __RINvMNtCsfvfooZQ3Axs_4core3stre8containsRReECsdARyWrlPtHl_2cc, symObjAddr: 0x900, symBinAddr: 0x10005FE84, symSize: 0x48 }
  - { offset: 0xBDDD8, size: 0x8, addend: 0x0, symName: __RINvMNtCsfvfooZQ3Axs_4core3stre8containsReECsdARyWrlPtHl_2cc, symObjAddr: 0x948, symBinAddr: 0x10005FECC, symSize: 0x4C }
  - { offset: 0xBDE1E, size: 0x8, addend: 0x0, symName: __RINvMNtCsfvfooZQ3Axs_4core3stre9ends_withReECsdARyWrlPtHl_2cc, symObjAddr: 0x994, symBinAddr: 0x10005FF18, symSize: 0x4C }
  - { offset: 0xBDE64, size: 0x8, addend: 0x0, symName: __RINvMNtCsfvfooZQ3Axs_4core3stre9ends_withcECsdARyWrlPtHl_2cc, symObjAddr: 0x9E0, symBinAddr: 0x10005FF64, symSize: 0x44 }
  - { offset: 0xBDEAF, size: 0x8, addend: 0x0, symName: __RNCNvMNtCsfvfooZQ3Axs_4core3stre4trim0CsdARyWrlPtHl_2cc, symObjAddr: 0xF54, symBinAddr: 0x1000604D8, symSize: 0x94 }
  - { offset: 0xBDFAE, size: 0x8, addend: 0x0, symName: __RNvMNtCsfvfooZQ3Axs_4core3stre16split_at_checkedCsdARyWrlPtHl_2cc, symObjAddr: 0x1144, symBinAddr: 0x1000606C8, symSize: 0x100 }
  - { offset: 0xBE05B, size: 0x8, addend: 0x0, symName: __RNvMNtCsfvfooZQ3Axs_4core3stre16split_whitespaceCsdARyWrlPtHl_2cc, symObjAddr: 0x1244, symBinAddr: 0x1000607C8, symSize: 0xCC }
  - { offset: 0xBE111, size: 0x8, addend: 0x0, symName: __RNvMNtCsfvfooZQ3Axs_4core3stre22split_ascii_whitespaceCsdARyWrlPtHl_2cc, symObjAddr: 0x1310, symBinAddr: 0x100060894, symSize: 0x58 }
  - { offset: 0xBE1C1, size: 0x8, addend: 0x0, symName: __RNvMNtCsfvfooZQ3Axs_4core3stre3lenCsdARyWrlPtHl_2cc, symObjAddr: 0x1368, symBinAddr: 0x1000608EC, symSize: 0x1C }
  - { offset: 0xBE1ED, size: 0x8, addend: 0x0, symName: __RNvMNtCsfvfooZQ3Axs_4core3stre4trimCsdARyWrlPtHl_2cc, symObjAddr: 0x1384, symBinAddr: 0x100060908, symSize: 0x28 }
  - { offset: 0xBE21B, size: 0x8, addend: 0x0, symName: __RNvMNtCsfvfooZQ3Axs_4core3stre5charsCsdARyWrlPtHl_2cc, symObjAddr: 0x13AC, symBinAddr: 0x100060930, symSize: 0x20 }
  - { offset: 0xBE289, size: 0x8, addend: 0x0, symName: __RNvMNtCsfvfooZQ3Axs_4core3stre8is_emptyCsdARyWrlPtHl_2cc, symObjAddr: 0x13CC, symBinAddr: 0x100060950, symSize: 0x1C }
  - { offset: 0xBE2B5, size: 0x8, addend: 0x0, symName: __RNvMNtCsfvfooZQ3Axs_4core3stre8split_atCsdARyWrlPtHl_2cc, symObjAddr: 0x13E8, symBinAddr: 0x10006096C, symSize: 0x84 }
  - { offset: 0xBE5DE, size: 0x8, addend: 0x0, symName: __RNCNvMsp_NtNtCsfvfooZQ3Axs_4core3str4iterINtB7_20MatchIndicesInternalReE4next0CsdARyWrlPtHl_2cc, symObjAddr: 0xFE8, symBinAddr: 0x10006056C, symSize: 0xA0 }
  - { offset: 0xBE71A, size: 0x8, addend: 0x0, symName: __RNCNvMsp_NtNtCsfvfooZQ3Axs_4core3str4iterINtB7_20MatchIndicesInternalcE4next0CsdARyWrlPtHl_2cc, symObjAddr: 0x1088, symBinAddr: 0x10006060C, symSize: 0xA0 }
  - { offset: 0xBE862, size: 0x8, addend: 0x0, symName: __RNCNvXNtNtCsfvfooZQ3Axs_4core3str4iterNtB4_5CharsNtNtNtNtB8_4iter6traits8iterator8Iterator10advance_by0CsdARyWrlPtHl_2cc, symObjAddr: 0x1128, symBinAddr: 0x1000606AC, symSize: 0x1C }
  - { offset: 0xBE8A0, size: 0x8, addend: 0x0, symName: __RNvXNtNtCsfvfooZQ3Axs_4core3str4iterNtB2_5CharsNtNtNtNtB6_4iter6traits8iterator8Iterator10advance_byCsdARyWrlPtHl_2cc, symObjAddr: 0x2744, symBinAddr: 0x100061C4C, symSize: 0x584 }
  - { offset: 0xBED88, size: 0x8, addend: 0x0, symName: __RNvXNtNtCsfvfooZQ3Axs_4core3str4iterNtB2_5CharsNtNtNtNtB6_4iter6traits8iterator8Iterator4nextCsdARyWrlPtHl_2cc, symObjAddr: 0x2CC8, symBinAddr: 0x1000621D0, symSize: 0x70 }
  - { offset: 0xBEF59, size: 0x8, addend: 0x0, symName: __RNvXs3_NtNtCsfvfooZQ3Axs_4core3str4iterNtB5_11CharIndicesNtNtNtNtB9_4iter6traits8iterator8Iterator4nextCsdARyWrlPtHl_2cc, symObjAddr: 0x2F6C, symBinAddr: 0x1000623BC, symSize: 0x120 }
  - { offset: 0xBF192, size: 0x8, addend: 0x0, symName: __RNvXs4_NtNtCsfvfooZQ3Axs_4core3str4iterNtB5_11CharIndicesNtNtNtNtB9_4iter6traits12double_ended19DoubleEndedIterator9next_backCsdARyWrlPtHl_2cc, symObjAddr: 0x30DC, symBinAddr: 0x10006252C, symSize: 0x13C }
  - { offset: 0xBF2E5, size: 0x8, addend: 0x0, symName: __RNvXsD_NtNtCsfvfooZQ3Axs_4core3str4iterNtB5_20SplitAsciiWhitespaceNtNtNtNtB9_4iter6traits8iterator8Iterator4nextCsdARyWrlPtHl_2cc, symObjAddr: 0x345C, symBinAddr: 0x1000628AC, symSize: 0x24 }
  - { offset: 0xBF313, size: 0x8, addend: 0x0, symName: __RNvXsD_NtNtCsfvfooZQ3Axs_4core3str4iterNtB5_20SplitAsciiWhitespaceNtNtNtNtB9_4iter6traits8iterator8Iterator9size_hintCsdARyWrlPtHl_2cc, symObjAddr: 0x3480, symBinAddr: 0x1000628D0, symSize: 0x5C }
  - { offset: 0xBF398, size: 0x8, addend: 0x0, symName: __RNvXsX_NtNtCsfvfooZQ3Axs_4core3str4iterINtB5_5SplitAcj2_ENtNtNtNtB9_4iter6traits8iterator8Iterator4nextCsdARyWrlPtHl_2cc, symObjAddr: 0x34DC, symBinAddr: 0x10006292C, symSize: 0x24 }
  - { offset: 0xBF3CF, size: 0x8, addend: 0x0, symName: __RNvXsX_NtNtCsfvfooZQ3Axs_4core3str4iterINtB5_5SplitNtB7_12IsWhitespaceENtNtNtNtB9_4iter6traits8iterator8Iterator4nextCsdARyWrlPtHl_2cc, symObjAddr: 0x3500, symBinAddr: 0x100062950, symSize: 0x24 }
  - { offset: 0xBF406, size: 0x8, addend: 0x0, symName: __RNvXsX_NtNtCsfvfooZQ3Axs_4core3str4iterINtB5_5SplitReENtNtNtNtB9_4iter6traits8iterator8Iterator4nextCsdARyWrlPtHl_2cc, symObjAddr: 0x3524, symBinAddr: 0x100062974, symSize: 0x24 }
  - { offset: 0xBF443, size: 0x8, addend: 0x0, symName: __RNvXsz_NtNtCsfvfooZQ3Axs_4core3str4iterNtB5_15SplitWhitespaceNtNtNtNtB9_4iter6traits8iterator8Iterator4nextCsdARyWrlPtHl_2cc, symObjAddr: 0x3848, symBinAddr: 0x100062C30, symSize: 0x30 }
  - { offset: 0xBF48F, size: 0x8, addend: 0x0, symName: __RNvXsz_NtNtCsfvfooZQ3Axs_4core3str4iterNtB5_15SplitWhitespaceNtNtNtNtB9_4iter6traits8iterator8Iterator9size_hintCsdARyWrlPtHl_2cc, symObjAddr: 0x3878, symBinAddr: 0x100062C60, symSize: 0x34 }
  - { offset: 0xBF5F3, size: 0x8, addend: 0x0, symName: __RNvXsr_NtNtCsfvfooZQ3Axs_4core3str7patternNCNvMB7_e4trim0NtB5_7Pattern13into_searcherCsdARyWrlPtHl_2cc, symObjAddr: 0x3784, symBinAddr: 0x100062B6C, symSize: 0x48 }
  - { offset: 0xBF7C1, size: 0x8, addend: 0x0, symName: __RNvXs3_NtNtCsfvfooZQ3Axs_4core3str7patternNCNvMB7_e4trim0NtB5_11MultiCharEq7matchesCsdARyWrlPtHl_2cc, symObjAddr: 0x308C, symBinAddr: 0x1000624DC, symSize: 0x28 }
  - { offset: 0xBF807, size: 0x8, addend: 0x0, symName: __RNvXs3_NtNtCsfvfooZQ3Axs_4core3str7patternNtB7_12IsWhitespaceNtB5_11MultiCharEq7matchesCsdARyWrlPtHl_2cc, symObjAddr: 0x30B4, symBinAddr: 0x100062504, symSize: 0x28 }
  - { offset: 0xBF910, size: 0x8, addend: 0x0, symName: __RNvXsf_NtCsfvfooZQ3Axs_4core3strNtB5_12IsWhitespaceINtNtNtB7_3ops8function2FnTcEE4callCsdARyWrlPtHl_2cc, symObjAddr: 0x35B0, symBinAddr: 0x100062998, symSize: 0x2C }
  - { offset: 0xBF969, size: 0x8, addend: 0x0, symName: __RNvXsg_NtCsfvfooZQ3Axs_4core3strNtB5_12IsWhitespaceINtNtNtB7_3ops8function5FnMutTcEE8call_mutCsdARyWrlPtHl_2cc, symObjAddr: 0x35DC, symBinAddr: 0x1000629C4, symSize: 0x30 }
  - { offset: 0xBF9C2, size: 0x8, addend: 0x0, symName: __RNvXsi_NtCsfvfooZQ3Axs_4core3strNtB5_17IsAsciiWhitespaceINtNtNtB7_3ops8function2FnTRhEE4callCsdARyWrlPtHl_2cc, symObjAddr: 0x360C, symBinAddr: 0x1000629F4, symSize: 0x80 }
  - { offset: 0xBFA39, size: 0x8, addend: 0x0, symName: __RNvXsj_NtCsfvfooZQ3Axs_4core3strNtB5_17IsAsciiWhitespaceINtNtNtB7_3ops8function5FnMutTRhEE8call_mutCsdARyWrlPtHl_2cc, symObjAddr: 0x368C, symBinAddr: 0x100062A74, symSize: 0x30 }
  - { offset: 0xBFA92, size: 0x8, addend: 0x0, symName: __RNvXsl_NtCsfvfooZQ3Axs_4core3strNtB5_10IsNotEmptyINtNtNtB7_3ops8function2FnTRReEE4callCsdARyWrlPtHl_2cc, symObjAddr: 0x36BC, symBinAddr: 0x100062AA4, symSize: 0x24 }
  - { offset: 0xBFAE3, size: 0x8, addend: 0x0, symName: __RNvXsm_NtCsfvfooZQ3Axs_4core3strNtB5_10IsNotEmptyINtNtNtB7_3ops8function5FnMutTRReEE8call_mutCsdARyWrlPtHl_2cc, symObjAddr: 0x36E0, symBinAddr: 0x100062AC8, symSize: 0x30 }
  - { offset: 0xBFB3C, size: 0x8, addend: 0x0, symName: __RNvXso_NtCsfvfooZQ3Axs_4core3strNtB5_15BytesIsNotEmptyINtNtNtB7_3ops8function2FnTRRShEE4callCsdARyWrlPtHl_2cc, symObjAddr: 0x3710, symBinAddr: 0x100062AF8, symSize: 0x24 }
  - { offset: 0xBFB8D, size: 0x8, addend: 0x0, symName: __RNvXsp_NtCsfvfooZQ3Axs_4core3strNtB5_15BytesIsNotEmptyINtNtNtB7_3ops8function5FnMutTRRShEE8call_mutCsdARyWrlPtHl_2cc, symObjAddr: 0x3734, symBinAddr: 0x100062B1C, symSize: 0x30 }
  - { offset: 0xBFBE6, size: 0x8, addend: 0x0, symName: __RNvXsr_NtCsfvfooZQ3Axs_4core3strNtB5_16UnsafeBytesToStrINtNtNtB7_3ops8function2FnTRShEE4callCsdARyWrlPtHl_2cc, symObjAddr: 0x3764, symBinAddr: 0x100062B4C, symSize: 0x20 }
  - { offset: 0xBFC22, size: 0x8, addend: 0x0, symName: __RNvXss_NtCsfvfooZQ3Axs_4core3strNtB5_16UnsafeBytesToStrINtNtNtB7_3ops8function5FnMutTRShEE8call_mutCsdARyWrlPtHl_2cc, symObjAddr: 0x37CC, symBinAddr: 0x100062BB4, symSize: 0x3C }
  - { offset: 0xBFF67, size: 0x8, addend: 0x0, symName: __RNvXs1_NtNtNtCsfvfooZQ3Axs_4core3ops8function5implsQNtNtBb_3str10IsNotEmptyINtB7_5FnMutTRReEE8call_mutCsdARyWrlPtHl_2cc, symObjAddr: 0x2ED8, symBinAddr: 0x100062328, symSize: 0x30 }
  - { offset: 0xBFFB6, size: 0x8, addend: 0x0, symName: __RNvXs1_NtNtNtCsfvfooZQ3Axs_4core3ops8function5implsQNtNtBb_3str15BytesIsNotEmptyINtB7_5FnMutTRRShEE8call_mutCsdARyWrlPtHl_2cc, symObjAddr: 0x2F08, symBinAddr: 0x100062358, symSize: 0x30 }
  - { offset: 0xC000B, size: 0x8, addend: 0x0, symName: __RNvXs2_NtNtNtCsfvfooZQ3Axs_4core3ops8function5implsQNtNtBb_3str16UnsafeBytesToStrINtB7_6FnOnceTRShEE9call_onceCsdARyWrlPtHl_2cc, symObjAddr: 0x2F38, symBinAddr: 0x100062388, symSize: 0x34 }
  - { offset: 0xC0331, size: 0x8, addend: 0x0, symName: __RINvYINtNtNtCsfvfooZQ3Axs_4core3str4iter5SplitNtB8_12IsWhitespaceENtNtNtNtBa_4iter6traits8iterator8Iterator4findQNtB8_10IsNotEmptyECsdARyWrlPtHl_2cc, symObjAddr: 0xC60, symBinAddr: 0x1000601E4, symSize: 0x90 }
  - { offset: 0xC03AC, size: 0x8, addend: 0x0, symName: __RINvYINtNtNtCsfvfooZQ3Axs_4core3str4iter5SplitNtB8_12IsWhitespaceENtNtNtNtBa_4iter6traits8iterator8Iterator8try_folduNCINvNvB12_4find5checkReQNtB8_10IsNotEmptyE0INtNtNtBa_3ops12control_flow11ControlFlowB2d_EECsdARyWrlPtHl_2cc, symObjAddr: 0xCF0, symBinAddr: 0x100060274, symSize: 0x198 }
  - { offset: 0xC046A, size: 0x8, addend: 0x0, symName: __RINvYINtNtNtCsfvfooZQ3Axs_4core3str4iter5SplitcENtNtNtNtBa_4iter6traits8iterator8Iterator3mapmNCNCNvMs4_CsdARyWrlPtHl_2ccNtB1E_5Build23apple_deployment_targets0_00EB1E_, symObjAddr: 0xE88, symBinAddr: 0x10006040C, symSize: 0x30 }
  - { offset: 0xC04D8, size: 0x8, addend: 0x0, symName: __RINvYINtNtNtCsfvfooZQ3Axs_4core3str4iter5SplitcENtNtNtNtBa_4iter6traits8iterator8Iterator7collectINtNtCse1nGBsou5OW_5alloc3vec3VecReEECsdARyWrlPtHl_2cc, symObjAddr: 0xEB8, symBinAddr: 0x10006043C, symSize: 0x1C }
