---
triple:          'arm64-apple-darwin'
binary-path:     '/Users/cedric/orange/ran-llm-claude-flow/src/rust-pipeline/target/debug/deps/libpdf_derive-d0a868d092ca7aad.dylib'
relocations:
  - { offset: 0x1E, size: 0x8, addend: 0x0, symName: __RNvXs1_NtNtNtCsfvfooZQ3Axs_4core3ops8function5implsQNCNvCsLP87wc3c6O_10pdf_derive22impl_object_for_stream0INtB7_5FnMutTRNtNtCs5AlOhPCr03V_3syn4data5FieldEE8call_mutBS_, symObjAddr: 0x0, symBinAddr: 0xC50, symSize: 0x30 }
  - { offset: 0x40, size: 0x8, addend: 0x0, symName: ___rustc_proc_macro_decls_8fc0d3f8f417e40__, symObjAddr: 0xD640, symBinAddr: 0x208450, symSize: 0x0 }
  - { offset: 0x4E, size: 0x8, addend: 0x0, symName: __RNvCsLP87wc3c6O_10pdf_derive6object, symObjAddr: 0x1F0, symBinAddr: 0xE40, symSize: 0x168 }
  - { offset: 0xC4, size: 0x8, addend: 0x0, symName: __RNvCsLP87wc3c6O_10pdf_derive11objectwrite, symObjAddr: 0x358, symBinAddr: 0xFA8, symSize: 0x168 }
  - { offset: 0x1D7, size: 0x8, addend: 0x0, symName: __RNCNvMCsLP87wc3c6O_10pdf_deriveNtB4_10FieldAttrs7default0B4_, symObjAddr: 0x598, symBinAddr: 0x11E8, symSize: 0xC8 }
  - { offset: 0x21A, size: 0x8, addend: 0x0, symName: __RNCNvMCsLP87wc3c6O_10pdf_deriveNtB4_10FieldAttrs5parse0B4_, symObjAddr: 0xF34, symBinAddr: 0x1B84, symSize: 0x4C }
  - { offset: 0x250, size: 0x8, addend: 0x0, symName: __RNCNvMCsLP87wc3c6O_10pdf_deriveNtB4_10FieldAttrs5parses_0B4_, symObjAddr: 0xB958, symBinAddr: 0xC5A8, symSize: 0x38 }
  - { offset: 0x2EE, size: 0x8, addend: 0x0, symName: __RNCNvMs_CsLP87wc3c6O_10pdf_deriveNtB6_11GlobalAttrs8from_ast0B6_, symObjAddr: 0x1884, symBinAddr: 0x24D4, symSize: 0x4C }
  - { offset: 0x324, size: 0x8, addend: 0x0, symName: __RNCNvMs_CsLP87wc3c6O_10pdf_deriveNtB6_11GlobalAttrs8from_asts_0B6_, symObjAddr: 0x18D0, symBinAddr: 0x2520, symSize: 0x38 }
  - { offset: 0x36A, size: 0x8, addend: 0x0, symName: __RNvCsLP87wc3c6O_10pdf_derive11impl_object, symObjAddr: 0x1908, symBinAddr: 0x2558, symSize: 0x280 }
  - { offset: 0x3FF, size: 0x8, addend: 0x0, symName: __RNvCsLP87wc3c6O_10pdf_derive16impl_objectwrite, symObjAddr: 0x1B88, symBinAddr: 0x27D8, symSize: 0x190 }
  - { offset: 0x46C, size: 0x8, addend: 0x0, symName: __RNvCsLP87wc3c6O_10pdf_derive10enum_pairs, symObjAddr: 0x1D18, symBinAddr: 0x2968, symSize: 0x570 }
  - { offset: 0x593, size: 0x8, addend: 0x0, symName: __RNCNvCsLP87wc3c6O_10pdf_derive10enum_pairs0B3_, symObjAddr: 0x2288, symBinAddr: 0x2ED8, symSize: 0x6C }
  - { offset: 0x5CC, size: 0x8, addend: 0x0, symName: __RNCNvCsLP87wc3c6O_10pdf_derive10enum_pairss_0B3_, symObjAddr: 0x22F4, symBinAddr: 0x2F44, symSize: 0x38 }
  - { offset: 0x604, size: 0x8, addend: 0x0, symName: __RNvCsLP87wc3c6O_10pdf_derive20impl_object_for_enum, symObjAddr: 0x232C, symBinAddr: 0x2F7C, symSize: 0x11F0 }
  - { offset: 0x8FB, size: 0x8, addend: 0x0, symName: __RNCNvCsLP87wc3c6O_10pdf_derive20impl_object_for_enum0B3_, symObjAddr: 0x351C, symBinAddr: 0x416C, symSize: 0x128 }
  - { offset: 0x98A, size: 0x8, addend: 0x0, symName: __RNvCsLP87wc3c6O_10pdf_derive25impl_objectwrite_for_enum, symObjAddr: 0x3644, symBinAddr: 0x4294, symSize: 0xAC4 }
  - { offset: 0xBC9, size: 0x8, addend: 0x0, symName: __RNCNvCsLP87wc3c6O_10pdf_derive25impl_objectwrite_for_enum0B3_, symObjAddr: 0x4108, symBinAddr: 0x4D58, symSize: 0xBC }
  - { offset: 0xC42, size: 0x8, addend: 0x0, symName: __RNvCsLP87wc3c6O_10pdf_derive21impl_enum_from_stream, symObjAddr: 0x41C4, symBinAddr: 0x4E14, symSize: 0x1208 }
  - { offset: 0xF32, size: 0x8, addend: 0x0, symName: __RNCNvCsLP87wc3c6O_10pdf_derive21impl_enum_from_stream0B3_, symObjAddr: 0x53CC, symBinAddr: 0x601C, symSize: 0x5FC }
  - { offset: 0x10BA, size: 0x8, addend: 0x0, symName: __RNCNCNvCsLP87wc3c6O_10pdf_derive21impl_enum_from_stream00B5_, symObjAddr: 0x59C8, symBinAddr: 0x6618, symSize: 0x6C }
  - { offset: 0x10F3, size: 0x8, addend: 0x0, symName: __RNCNCNvCsLP87wc3c6O_10pdf_derive21impl_enum_from_stream0s_0B5_, symObjAddr: 0x5A34, symBinAddr: 0x6684, symSize: 0x3C }
  - { offset: 0x113F, size: 0x8, addend: 0x0, symName: __RNvCsLP87wc3c6O_10pdf_derive9is_option, symObjAddr: 0x5A70, symBinAddr: 0x66C0, symSize: 0x228 }
  - { offset: 0x123E, size: 0x8, addend: 0x0, symName: __RNvCsLP87wc3c6O_10pdf_derive22impl_object_for_struct, symObjAddr: 0x5C98, symBinAddr: 0x68E8, symSize: 0x13E0 }
  - { offset: 0x1658, size: 0x8, addend: 0x0, symName: __RNCNvCsLP87wc3c6O_10pdf_derive22impl_object_for_struct0B3_, symObjAddr: 0x7078, symBinAddr: 0x7CC8, symSize: 0x1D28 }
  - { offset: 0x1A17, size: 0x8, addend: 0x0, symName: __RNCNvCsLP87wc3c6O_10pdf_derive22impl_object_for_structs_0B3_, symObjAddr: 0x8DA0, symBinAddr: 0x99F0, symSize: 0xC4 }
  - { offset: 0x1A7C, size: 0x8, addend: 0x0, symName: __RNCNvCsLP87wc3c6O_10pdf_derive22impl_object_for_structs0_0B3_, symObjAddr: 0x8E64, symBinAddr: 0x9AB4, symSize: 0x1AC }
  - { offset: 0x1B25, size: 0x8, addend: 0x0, symName: __RNvCsLP87wc3c6O_10pdf_derive27impl_objectwrite_for_struct, symObjAddr: 0x9010, symBinAddr: 0x9C60, symSize: 0x1220 }
  - { offset: 0x1E94, size: 0x8, addend: 0x0, symName: __RNCNvCsLP87wc3c6O_10pdf_derive27impl_objectwrite_for_struct0B3_, symObjAddr: 0xA230, symBinAddr: 0xAE80, symSize: 0x100 }
  - { offset: 0x1ECD, size: 0x8, addend: 0x0, symName: __RNCNvCsLP87wc3c6O_10pdf_derive27impl_objectwrite_for_structs_0B3_, symObjAddr: 0xA330, symBinAddr: 0xAF80, symSize: 0x72C }
  - { offset: 0x201E, size: 0x8, addend: 0x0, symName: __RNCNvCsLP87wc3c6O_10pdf_derive27impl_objectwrite_for_structs0_0B3_, symObjAddr: 0xAA5C, symBinAddr: 0xB6AC, symSize: 0x298 }
  - { offset: 0x20D3, size: 0x8, addend: 0x0, symName: __RNvCsLP87wc3c6O_10pdf_derive22impl_object_for_stream, symObjAddr: 0xACF4, symBinAddr: 0xB944, symSize: 0xB60 }
  - { offset: 0x228D, size: 0x8, addend: 0x0, symName: __RNCNvCsLP87wc3c6O_10pdf_derive22impl_object_for_stream0B3_, symObjAddr: 0xB854, symBinAddr: 0xC4A4, symSize: 0x104 }
  - { offset: 0x22E9, size: 0x8, addend: 0x0, symName: __RNvXs1_CsLP87wc3c6O_10pdf_deriveNtB5_11GlobalAttrsNtNtCsfvfooZQ3Axs_4core7default7Default7defaultB5_, symObjAddr: 0xB990, symBinAddr: 0xC5E0, symSize: 0x8C }
  - { offset: 0x4BC3, size: 0x8, addend: 0x0, symName: __RNvXs1_NtNtNtCsfvfooZQ3Axs_4core3ops8function5implsQNCNvCsLP87wc3c6O_10pdf_derive22impl_object_for_stream0INtB7_5FnMutTRNtNtCs5AlOhPCr03V_3syn4data5FieldEE8call_mutBS_, symObjAddr: 0x0, symBinAddr: 0xC50, symSize: 0x30 }
  - { offset: 0x4C12, size: 0x8, addend: 0x0, symName: __RNvXs1_NtNtNtCsfvfooZQ3Axs_4core3ops8function5implsQNCNvMCsLP87wc3c6O_10pdf_deriveNtBT_10FieldAttrs5parse0INtB7_5FnMutTRRNtNtCs5AlOhPCr03V_3syn4attr9AttributeEE8call_mutBT_, symObjAddr: 0x30, symBinAddr: 0xC80, symSize: 0x30 }
  - { offset: 0x4C61, size: 0x8, addend: 0x0, symName: __RNvXs1_NtNtNtCsfvfooZQ3Axs_4core3ops8function5implsQNCNvMs_CsLP87wc3c6O_10pdf_deriveNtBV_11GlobalAttrs8from_ast0INtB7_5FnMutTRRNtNtCs5AlOhPCr03V_3syn4attr9AttributeEE8call_mutBV_, symObjAddr: 0x60, symBinAddr: 0xCB0, symSize: 0x30 }
  - { offset: 0x4CB6, size: 0x8, addend: 0x0, symName: __RNvXs2_NtNtNtCsfvfooZQ3Axs_4core3ops8function5implsQNCNvCsLP87wc3c6O_10pdf_derive21impl_enum_from_stream0INtB7_6FnOnceTRNtNtCs5AlOhPCr03V_3syn4data7VariantEE9call_onceBS_, symObjAddr: 0x90, symBinAddr: 0xCE0, symSize: 0x2C }
  - { offset: 0x4D05, size: 0x8, addend: 0x0, symName: __RNvXs2_NtNtNtCsfvfooZQ3Axs_4core3ops8function5implsQNCNvCsLP87wc3c6O_10pdf_derive22impl_object_for_struct0INtB7_6FnOnceTRNtNtCs5AlOhPCr03V_3syn4data5FieldEE9call_onceBS_, symObjAddr: 0xBC, symBinAddr: 0xD0C, symSize: 0x2C }
  - { offset: 0x4D54, size: 0x8, addend: 0x0, symName: __RNvXs2_NtNtNtCsfvfooZQ3Axs_4core3ops8function5implsQNCNvCsLP87wc3c6O_10pdf_derive22impl_object_for_structs_0INtB7_6FnOnceTRNtNtCs5AlOhPCr03V_3syn4data5FieldEE9call_onceBS_, symObjAddr: 0xE8, symBinAddr: 0xD38, symSize: 0x2C }
  - { offset: 0x4DA3, size: 0x8, addend: 0x0, symName: __RNvXs2_NtNtNtCsfvfooZQ3Axs_4core3ops8function5implsQNCNvCsLP87wc3c6O_10pdf_derive27impl_objectwrite_for_struct0INtB7_6FnOnceTRNtNtCs5AlOhPCr03V_3syn4data5FieldEE9call_onceBS_, symObjAddr: 0x114, symBinAddr: 0xD64, symSize: 0x2C }
  - { offset: 0x4DF2, size: 0x8, addend: 0x0, symName: __RNvXs2_NtNtNtCsfvfooZQ3Axs_4core3ops8function5implsQNCNvCsLP87wc3c6O_10pdf_derive27impl_objectwrite_for_structs0_0INtB7_6FnOnceTRTNtNtCse1nGBsou5OW_5alloc6string6StringB24_EEE9call_onceBS_, symObjAddr: 0x140, symBinAddr: 0xD90, symSize: 0x2C }
  - { offset: 0x4E41, size: 0x8, addend: 0x0, symName: __RNvXs2_NtNtNtCsfvfooZQ3Axs_4core3ops8function5implsQNCNvCsLP87wc3c6O_10pdf_derive27impl_objectwrite_for_structs_0INtB7_6FnOnceTRTINtNtBb_6option6OptionNtCs3cP53eQoTwO_11proc_macro25IdentENtBS_10FieldAttrsIB24_NtNtCs5AlOhPCr03V_3syn2ty4TypeEEEE9call_onceBS_, symObjAddr: 0x16C, symBinAddr: 0xDBC, symSize: 0x2C }
  - { offset: 0x4E90, size: 0x8, addend: 0x0, symName: __RNvXs2_NtNtNtCsfvfooZQ3Axs_4core3ops8function5implsQNCNvMCsLP87wc3c6O_10pdf_deriveNtBT_10FieldAttrs5parses_0INtB7_6FnOnceTRNtNtCs5AlOhPCr03V_3syn4path11PathSegmentEE9call_onceBT_, symObjAddr: 0x198, symBinAddr: 0xDE8, symSize: 0x2C }
  - { offset: 0x4EDF, size: 0x8, addend: 0x0, symName: __RNvXs2_NtNtNtCsfvfooZQ3Axs_4core3ops8function5implsQNCNvMs_CsLP87wc3c6O_10pdf_deriveNtBV_11GlobalAttrs8from_asts_0INtB7_6FnOnceTRNtNtCs5AlOhPCr03V_3syn4path11PathSegmentEE9call_onceBV_, symObjAddr: 0x1C4, symBinAddr: 0xE14, symSize: 0x2C }
  - { offset: 0xB868, size: 0x8, addend: 0x0, symName: __RNvMCsLP87wc3c6O_10pdf_deriveNtB2_10FieldAttrs3new, symObjAddr: 0x4C0, symBinAddr: 0x1110, symSize: 0x48 }
  - { offset: 0xB895, size: 0x8, addend: 0x0, symName: __RNvMCsLP87wc3c6O_10pdf_deriveNtB2_10FieldAttrs3key, symObjAddr: 0x508, symBinAddr: 0x1158, symSize: 0x50 }
  - { offset: 0xBDBB, size: 0x8, addend: 0x0, symName: __RNvMCsLP87wc3c6O_10pdf_deriveNtB2_10FieldAttrs7default, symObjAddr: 0x558, symBinAddr: 0x11A8, symSize: 0x40 }
  - { offset: 0xBE04, size: 0x8, addend: 0x0, symName: __RNvMCsLP87wc3c6O_10pdf_deriveNtB2_10FieldAttrs5parse, symObjAddr: 0x660, symBinAddr: 0x12B0, symSize: 0x8D4 }
  - { offset: 0xBF86, size: 0x8, addend: 0x0, symName: __RNvMs_CsLP87wc3c6O_10pdf_deriveNtB4_11GlobalAttrs8from_ast, symObjAddr: 0xF80, symBinAddr: 0x1BD0, symSize: 0x904 }
  - { offset: 0xC68C, size: 0x8, addend: 0x0, symName: __RINvCs5AlOhPCr03V_3syn9parse_strNtNtB2_4expr4ExprECsLP87wc3c6O_10pdf_derive, symObjAddr: 0x0, symBinAddr: 0xC66C, symSize: 0x38 }
  - { offset: 0xCCAF, size: 0x8, addend: 0x0, symName: __RNCNCNvXsx_NtCs5AlOhPCr03V_3syn10punctuatedINtB9_11PrivateIterNtNtBb_4attr10NestedMetaNtNtBb_5token5CommaENtNtNtNtCsfvfooZQ3Axs_4core4iter6traits12double_ended19DoubleEndedIterator9next_back00CsLP87wc3c6O_10pdf_derive, symObjAddr: 0x2CD4, symBinAddr: 0xF340, symSize: 0x24 }
  - { offset: 0xCCFA, size: 0x8, addend: 0x0, symName: __RNCNCNvXsx_NtCs5AlOhPCr03V_3syn10punctuatedINtB9_11PrivateIterNtNtBb_4data7VariantNtNtBb_5token5CommaENtNtNtNtCsfvfooZQ3Axs_4core4iter6traits12double_ended19DoubleEndedIterator9next_back00CsLP87wc3c6O_10pdf_derive, symObjAddr: 0x2CF8, symBinAddr: 0xF364, symSize: 0x24 }
  - { offset: 0xCD45, size: 0x8, addend: 0x0, symName: __RNCNCNvXsx_NtCs5AlOhPCr03V_3syn10punctuatedINtB9_11PrivateIterNtNtBb_4path15GenericArgumentNtNtBb_5token5CommaENtNtNtNtCsfvfooZQ3Axs_4core4iter6traits12double_ended19DoubleEndedIterator9next_back00CsLP87wc3c6O_10pdf_derive, symObjAddr: 0x2D1C, symBinAddr: 0xF388, symSize: 0x24 }
  - { offset: 0xCDA6, size: 0x8, addend: 0x0, symName: __RNCNvXsx_NtCs5AlOhPCr03V_3syn10punctuatedINtB7_11PrivateIterNtNtB9_4attr10NestedMetaNtNtB9_5token5CommaENtNtNtNtCsfvfooZQ3Axs_4core4iter6traits12double_ended19DoubleEndedIterator9next_back0CsLP87wc3c6O_10pdf_derive, symObjAddr: 0x2E94, symBinAddr: 0xF500, symSize: 0x3C }
  - { offset: 0xCDE8, size: 0x8, addend: 0x0, symName: __RNCNvXsx_NtCs5AlOhPCr03V_3syn10punctuatedINtB7_11PrivateIterNtNtB9_4data7VariantNtNtB9_5token5CommaENtNtNtNtCsfvfooZQ3Axs_4core4iter6traits12double_ended19DoubleEndedIterator9next_back0CsLP87wc3c6O_10pdf_derive, symObjAddr: 0x2ED0, symBinAddr: 0xF53C, symSize: 0x3C }
  - { offset: 0xCE2A, size: 0x8, addend: 0x0, symName: __RNCNvXsx_NtCs5AlOhPCr03V_3syn10punctuatedINtB7_11PrivateIterNtNtB9_4path15GenericArgumentNtNtB9_5token5CommaENtNtNtNtCsfvfooZQ3Axs_4core4iter6traits12double_ended19DoubleEndedIterator9next_back0CsLP87wc3c6O_10pdf_derive, symObjAddr: 0x2F0C, symBinAddr: 0xF578, symSize: 0x3C }
  - { offset: 0xCE6D, size: 0x8, addend: 0x0, symName: __RNvXsx_NtCs5AlOhPCr03V_3syn10punctuatedINtB5_11PrivateIterNtNtB7_4attr10NestedMetaNtNtB7_5token5CommaENtNtNtNtCsfvfooZQ3Axs_4core4iter6traits12double_ended19DoubleEndedIterator9next_backCsLP87wc3c6O_10pdf_derive, symObjAddr: 0x54A0, symBinAddr: 0x11B08, symSize: 0x48 }
  - { offset: 0xCEAD, size: 0x8, addend: 0x0, symName: __RNvXsx_NtCs5AlOhPCr03V_3syn10punctuatedINtB5_11PrivateIterNtNtB7_4data7VariantNtNtB7_5token5CommaENtNtNtNtCsfvfooZQ3Axs_4core4iter6traits12double_ended19DoubleEndedIterator9next_backCsLP87wc3c6O_10pdf_derive, symObjAddr: 0x54E8, symBinAddr: 0x11B50, symSize: 0x48 }
  - { offset: 0xCEED, size: 0x8, addend: 0x0, symName: __RNvXsx_NtCs5AlOhPCr03V_3syn10punctuatedINtB5_11PrivateIterNtNtB7_4path15GenericArgumentNtNtB7_5token5CommaENtNtNtNtCsfvfooZQ3Axs_4core4iter6traits12double_ended19DoubleEndedIterator9next_backCsLP87wc3c6O_10pdf_derive, symObjAddr: 0x5530, symBinAddr: 0x11B98, symSize: 0x48 }
  - { offset: 0xCF38, size: 0x8, addend: 0x0, symName: __RNCNvXsw_NtCs5AlOhPCr03V_3syn10punctuatedINtB7_11PrivateIterNtNtB9_4attr10NestedMetaNtNtB9_5token5CommaENtNtNtNtCsfvfooZQ3Axs_4core4iter6traits8iterator8Iterator4next0CsLP87wc3c6O_10pdf_derive, symObjAddr: 0x2D74, symBinAddr: 0xF3E0, symSize: 0x24 }
  - { offset: 0xCF83, size: 0x8, addend: 0x0, symName: __RNCNvXsw_NtCs5AlOhPCr03V_3syn10punctuatedINtB7_11PrivateIterNtNtB9_4attr10NestedMetaNtNtB9_5token5CommaENtNtNtNtCsfvfooZQ3Axs_4core4iter6traits8iterator8Iterator4nexts_0CsLP87wc3c6O_10pdf_derive, symObjAddr: 0x2D98, symBinAddr: 0xF404, symSize: 0x3C }
  - { offset: 0xCFC5, size: 0x8, addend: 0x0, symName: __RNCNvXsw_NtCs5AlOhPCr03V_3syn10punctuatedINtB7_11PrivateIterNtNtB9_4data7VariantNtNtB9_5token5CommaENtNtNtNtCsfvfooZQ3Axs_4core4iter6traits8iterator8Iterator4next0CsLP87wc3c6O_10pdf_derive, symObjAddr: 0x2DD4, symBinAddr: 0xF440, symSize: 0x24 }
  - { offset: 0xD010, size: 0x8, addend: 0x0, symName: __RNCNvXsw_NtCs5AlOhPCr03V_3syn10punctuatedINtB7_11PrivateIterNtNtB9_4data7VariantNtNtB9_5token5CommaENtNtNtNtCsfvfooZQ3Axs_4core4iter6traits8iterator8Iterator4nexts_0CsLP87wc3c6O_10pdf_derive, symObjAddr: 0x2DF8, symBinAddr: 0xF464, symSize: 0x3C }
  - { offset: 0xD052, size: 0x8, addend: 0x0, symName: __RNCNvXsw_NtCs5AlOhPCr03V_3syn10punctuatedINtB7_11PrivateIterNtNtB9_4path15GenericArgumentNtNtB9_5token5CommaENtNtNtNtCsfvfooZQ3Axs_4core4iter6traits8iterator8Iterator4next0CsLP87wc3c6O_10pdf_derive, symObjAddr: 0x2E34, symBinAddr: 0xF4A0, symSize: 0x24 }
  - { offset: 0xD09D, size: 0x8, addend: 0x0, symName: __RNCNvXsw_NtCs5AlOhPCr03V_3syn10punctuatedINtB7_11PrivateIterNtNtB9_4path15GenericArgumentNtNtB9_5token5CommaENtNtNtNtCsfvfooZQ3Axs_4core4iter6traits8iterator8Iterator4nexts_0CsLP87wc3c6O_10pdf_derive, symObjAddr: 0x2E58, symBinAddr: 0xF4C4, symSize: 0x3C }
  - { offset: 0xD0F5, size: 0x8, addend: 0x0, symName: __RNvXsw_NtCs5AlOhPCr03V_3syn10punctuatedINtB5_11PrivateIterNtNtB7_4attr10NestedMetaNtNtB7_5token5CommaENtNtNtNtCsfvfooZQ3Axs_4core4iter6traits8iterator8Iterator4nextCsLP87wc3c6O_10pdf_derive, symObjAddr: 0x53C8, symBinAddr: 0x11A30, symSize: 0x48 }
  - { offset: 0xD135, size: 0x8, addend: 0x0, symName: __RNvXsw_NtCs5AlOhPCr03V_3syn10punctuatedINtB5_11PrivateIterNtNtB7_4data7VariantNtNtB7_5token5CommaENtNtNtNtCsfvfooZQ3Axs_4core4iter6traits8iterator8Iterator4nextCsLP87wc3c6O_10pdf_derive, symObjAddr: 0x5410, symBinAddr: 0x11A78, symSize: 0x48 }
  - { offset: 0xD175, size: 0x8, addend: 0x0, symName: __RNvXsw_NtCs5AlOhPCr03V_3syn10punctuatedINtB5_11PrivateIterNtNtB7_4path15GenericArgumentNtNtB7_5token5CommaENtNtNtNtCsfvfooZQ3Axs_4core4iter6traits8iterator8Iterator4nextCsLP87wc3c6O_10pdf_derive, symObjAddr: 0x5458, symBinAddr: 0x11AC0, symSize: 0x48 }
  - { offset: 0xD1F7, size: 0x8, addend: 0x0, symName: __RNvXsA_NtCs5AlOhPCr03V_3syn10punctuatedINtB5_11PrivateIterNtNtB7_4attr10NestedMetaNtNtB7_5token5CommaEINtB5_9IterTraitBU_E9clone_boxCsLP87wc3c6O_10pdf_derive, symObjAddr: 0x4A5C, symBinAddr: 0x110C4, symSize: 0x94 }
  - { offset: 0xD255, size: 0x8, addend: 0x0, symName: __RNvXsA_NtCs5AlOhPCr03V_3syn10punctuatedINtB5_11PrivateIterNtNtB7_4data7VariantNtNtB7_5token5CommaEINtB5_9IterTraitBU_E9clone_boxCsLP87wc3c6O_10pdf_derive, symObjAddr: 0x4AF0, symBinAddr: 0x11158, symSize: 0x94 }
  - { offset: 0xD2B3, size: 0x8, addend: 0x0, symName: __RNvXsA_NtCs5AlOhPCr03V_3syn10punctuatedINtB5_11PrivateIterNtNtB7_4path15GenericArgumentNtNtB7_5token5CommaEINtB5_9IterTraitBU_E9clone_boxCsLP87wc3c6O_10pdf_derive, symObjAddr: 0x4B84, symBinAddr: 0x111EC, symSize: 0x94 }
  - { offset: 0xD317, size: 0x8, addend: 0x0, symName: __RNvXst_NtCs5AlOhPCr03V_3syn10punctuatedINtB5_4IterNtNtB7_4attr10NestedMetaENtNtNtNtCsfvfooZQ3Axs_4core4iter6traits8iterator8Iterator4nextCsLP87wc3c6O_10pdf_derive, symObjAddr: 0x5010, symBinAddr: 0x11678, symSize: 0x48 }
  - { offset: 0xD34E, size: 0x8, addend: 0x0, symName: __RNvXst_NtCs5AlOhPCr03V_3syn10punctuatedINtB5_4IterNtNtB7_4data5FieldENtNtNtNtCsfvfooZQ3Axs_4core4iter6traits8iterator8Iterator4nextCsLP87wc3c6O_10pdf_derive, symObjAddr: 0x5058, symBinAddr: 0x116C0, symSize: 0x48 }
  - { offset: 0xD385, size: 0x8, addend: 0x0, symName: __RNvXst_NtCs5AlOhPCr03V_3syn10punctuatedINtB5_4IterNtNtB7_4data5FieldENtNtNtNtCsfvfooZQ3Axs_4core4iter6traits8iterator8Iterator9size_hintCsLP87wc3c6O_10pdf_derive, symObjAddr: 0x50A0, symBinAddr: 0x11708, symSize: 0x7C }
  - { offset: 0xD3BC, size: 0x8, addend: 0x0, symName: __RNvXst_NtCs5AlOhPCr03V_3syn10punctuatedINtB5_4IterNtNtB7_4data7VariantENtNtNtNtCsfvfooZQ3Axs_4core4iter6traits8iterator8Iterator4nextCsLP87wc3c6O_10pdf_derive, symObjAddr: 0x511C, symBinAddr: 0x11784, symSize: 0x48 }
  - { offset: 0xD3F3, size: 0x8, addend: 0x0, symName: __RNvXst_NtCs5AlOhPCr03V_3syn10punctuatedINtB5_4IterNtNtB7_4data7VariantENtNtNtNtCsfvfooZQ3Axs_4core4iter6traits8iterator8Iterator9size_hintCsLP87wc3c6O_10pdf_derive, symObjAddr: 0x5164, symBinAddr: 0x117CC, symSize: 0x7C }
  - { offset: 0xD42A, size: 0x8, addend: 0x0, symName: __RNvXst_NtCs5AlOhPCr03V_3syn10punctuatedINtB5_4IterNtNtB7_4path11PathSegmentENtNtNtNtCsfvfooZQ3Axs_4core4iter6traits8iterator8Iterator9size_hintCsLP87wc3c6O_10pdf_derive, symObjAddr: 0x51E0, symBinAddr: 0x11848, symSize: 0x7C }
  - { offset: 0xD461, size: 0x8, addend: 0x0, symName: __RNvXst_NtCs5AlOhPCr03V_3syn10punctuatedINtB5_4IterNtNtB7_4path15GenericArgumentENtNtNtNtCsfvfooZQ3Axs_4core4iter6traits8iterator8Iterator4nextCsLP87wc3c6O_10pdf_derive, symObjAddr: 0x525C, symBinAddr: 0x118C4, symSize: 0x48 }
  - { offset: 0xD49E, size: 0x8, addend: 0x0, symName: __RNvXsv_NtCs5AlOhPCr03V_3syn10punctuatedINtB5_4IterNtNtB7_4data5FieldENtNtNtNtCsfvfooZQ3Axs_4core4iter6traits10exact_size17ExactSizeIterator3lenCsLP87wc3c6O_10pdf_derive, symObjAddr: 0x52F0, symBinAddr: 0x11958, symSize: 0x48 }
  - { offset: 0xD4D5, size: 0x8, addend: 0x0, symName: __RNvXsv_NtCs5AlOhPCr03V_3syn10punctuatedINtB5_4IterNtNtB7_4data7VariantENtNtNtNtCsfvfooZQ3Axs_4core4iter6traits10exact_size17ExactSizeIterator3lenCsLP87wc3c6O_10pdf_derive, symObjAddr: 0x5338, symBinAddr: 0x119A0, symSize: 0x48 }
  - { offset: 0xD50C, size: 0x8, addend: 0x0, symName: __RNvXsv_NtCs5AlOhPCr03V_3syn10punctuatedINtB5_4IterNtNtB7_4path11PathSegmentENtNtNtNtCsfvfooZQ3Axs_4core4iter6traits10exact_size17ExactSizeIterator3lenCsLP87wc3c6O_10pdf_derive, symObjAddr: 0x5380, symBinAddr: 0x119E8, symSize: 0x48 }
  - { offset: 0xD549, size: 0x8, addend: 0x0, symName: __RNvXsy_NtCs5AlOhPCr03V_3syn10punctuatedINtB5_11PrivateIterNtNtB7_4attr10NestedMetaNtNtB7_5token5CommaENtNtNtNtCsfvfooZQ3Axs_4core4iter6traits10exact_size17ExactSizeIterator3lenCsLP87wc3c6O_10pdf_derive, symObjAddr: 0x5578, symBinAddr: 0x11BE0, symSize: 0x94 }
  - { offset: 0xD5BD, size: 0x8, addend: 0x0, symName: __RNvXsy_NtCs5AlOhPCr03V_3syn10punctuatedINtB5_11PrivateIterNtNtB7_4data7VariantNtNtB7_5token5CommaENtNtNtNtCsfvfooZQ3Axs_4core4iter6traits10exact_size17ExactSizeIterator3lenCsLP87wc3c6O_10pdf_derive, symObjAddr: 0x560C, symBinAddr: 0x11C74, symSize: 0x94 }
  - { offset: 0xD631, size: 0x8, addend: 0x0, symName: __RNvXsy_NtCs5AlOhPCr03V_3syn10punctuatedINtB5_11PrivateIterNtNtB7_4path15GenericArgumentNtNtB7_5token5CommaENtNtNtNtCsfvfooZQ3Axs_4core4iter6traits10exact_size17ExactSizeIterator3lenCsLP87wc3c6O_10pdf_derive, symObjAddr: 0x56A0, symBinAddr: 0x11D08, symSize: 0x94 }
  - { offset: 0xD6AB, size: 0x8, addend: 0x0, symName: __RNvXsz_NtCs5AlOhPCr03V_3syn10punctuatedINtB5_11PrivateIterNtNtB7_4attr10NestedMetaNtNtB7_5token5CommaENtNtCsfvfooZQ3Axs_4core5clone5Clone5cloneCsLP87wc3c6O_10pdf_derive, symObjAddr: 0x5734, symBinAddr: 0x11D9C, symSize: 0x68 }
  - { offset: 0xD6EB, size: 0x8, addend: 0x0, symName: __RNvXsz_NtCs5AlOhPCr03V_3syn10punctuatedINtB5_11PrivateIterNtNtB7_4data7VariantNtNtB7_5token5CommaENtNtCsfvfooZQ3Axs_4core5clone5Clone5cloneCsLP87wc3c6O_10pdf_derive, symObjAddr: 0x579C, symBinAddr: 0x11E04, symSize: 0x68 }
  - { offset: 0xD72B, size: 0x8, addend: 0x0, symName: __RNvXsz_NtCs5AlOhPCr03V_3syn10punctuatedINtB5_11PrivateIterNtNtB7_4path15GenericArgumentNtNtB7_5token5CommaENtNtCsfvfooZQ3Axs_4core5clone5Clone5cloneCsLP87wc3c6O_10pdf_derive, symObjAddr: 0x5804, symBinAddr: 0x11E6C, symSize: 0x68 }
  - { offset: 0x12166, size: 0x8, addend: 0x0, symName: __RINvCs5AlOhPCr03V_3syn9parse_strNtNtB2_4expr4ExprECsLP87wc3c6O_10pdf_derive, symObjAddr: 0x0, symBinAddr: 0xC66C, symSize: 0x38 }
  - { offset: 0x155B3, size: 0x8, addend: 0x0, symName: __RNvNvMs1_NtNtCsfvfooZQ3Axs_4core3ptr8non_nullINtB7_7NonNullpE13new_unchecked18precondition_checkCsLP87wc3c6O_10pdf_derive, symObjAddr: 0x381C, symBinAddr: 0xFE84, symSize: 0x38 }
  - { offset: 0x167C4, size: 0x8, addend: 0x0, symName: __RNvNvXs2_NtNtCsfvfooZQ3Axs_4core5slice5indexINtNtNtBb_3ops5range5RangejEINtB7_10SliceIndexSpE17get_unchecked_mut18precondition_checkCsLP87wc3c6O_10pdf_derive, symObjAddr: 0x3CA8, symBinAddr: 0x10310, symSize: 0x60 }
  - { offset: 0x16A79, size: 0x8, addend: 0x0, symName: __RNvMNtCsfvfooZQ3Axs_4core5sliceSNtCs3cP53eQoTwO_11proc_macro211TokenStream4iterCsLP87wc3c6O_10pdf_derive, symObjAddr: 0x33CC, symBinAddr: 0xFA38, symSize: 0x28 }
  - { offset: 0x16AFE, size: 0x8, addend: 0x0, symName: __RNvMNtCsfvfooZQ3Axs_4core5sliceSh15copy_from_sliceCsLP87wc3c6O_10pdf_derive, symObjAddr: 0x33F4, symBinAddr: 0xFA60, symSize: 0xA4 }
  - { offset: 0x16EC2, size: 0x8, addend: 0x0, symName: __RINvMNtCsfvfooZQ3Axs_4core3stre9ends_withReECsLP87wc3c6O_10pdf_derive, symObjAddr: 0x38, symBinAddr: 0xC6A4, symSize: 0x4C }
  - { offset: 0x16F0E, size: 0x8, addend: 0x0, symName: __RNvXs_NtCsfvfooZQ3Axs_4core3streINtNtB6_7convert5AsRefShE6as_refCsLP87wc3c6O_10pdf_derive, symObjAddr: 0x4E4C, symBinAddr: 0x114B4, symSize: 0x18 }
  - { offset: 0x16F47, size: 0x8, addend: 0x0, symName: __RNvXst_NtNtCsfvfooZQ3Axs_4core3str7patternReNtB5_7Pattern12is_suffix_ofCsLP87wc3c6O_10pdf_derive, symObjAddr: 0x52A4, symBinAddr: 0x1190C, symSize: 0x4C }
  - { offset: 0x177F3, size: 0x8, addend: 0x0, symName: __RNvXs2_NtNtNtCsfvfooZQ3Axs_4core3ops8function5implsQNCINvNtCse1nGBsou5OW_5alloc3str17join_generic_copyehNtNtBV_6string6StringEs_0INtB7_6FnOnceTRB1E_EE9call_onceCsLP87wc3c6O_10pdf_derive, symObjAddr: 0x445C, symBinAddr: 0x10AC4, symSize: 0x2C }
  - { offset: 0x17BE4, size: 0x8, addend: 0x0, symName: __RNvXso_NtCsfvfooZQ3Axs_4core6resultINtB5_6ResultNtNtCs5AlOhPCr03V_3syn6derive11DeriveInputNtNtBO_5error5ErrorENtNtNtB7_3ops9try_trait3Try6branchCsLP87wc3c6O_10pdf_derive, symObjAddr: 0x4EE0, symBinAddr: 0x11548, symSize: 0xB4 }
  - { offset: 0x17C68, size: 0x8, addend: 0x0, symName: __RNvXsp_NtCsfvfooZQ3Axs_4core6resultINtB5_6ResultNtNtCs5AlOhPCr03V_3syn4expr4ExprNtNtBO_5error5ErrorEINtNtNtB7_3ops9try_trait12FromResidualIBy_NtNtB7_7convert10InfallibleNtCs3cP53eQoTwO_11proc_macro28LexErrorEE13from_residualCsLP87wc3c6O_10pdf_derive, symObjAddr: 0x4F94, symBinAddr: 0x115FC, symSize: 0x50 }
  - { offset: 0x18010, size: 0x8, addend: 0x0, symName: __RNvNvNtCsfvfooZQ3Axs_4core10intrinsics19copy_nonoverlapping18precondition_checkCsLP87wc3c6O_10pdf_derive, symObjAddr: 0x3854, symBinAddr: 0xFEBC, symSize: 0x2E4 }
  - { offset: 0x183B5, size: 0x8, addend: 0x0, symName: __RINvXs0_NtNtNtCsfvfooZQ3Axs_4core4iter8adapters3mapINtB6_3MapINtNtNtBc_5slice4iter4IterTNtNtCse1nGBsou5OW_5alloc6string6StringB1o_EENCNvCsLP87wc3c6O_10pdf_derive22impl_object_for_structs0_0ENtNtNtBa_6traits8iterator8Iterator4folduNCINvNvB32_8for_each4callNtCs3cP53eQoTwO_11proc_macro211TokenStreamNCINvMsi_NtB1s_3vecINtB4U_3VecB45_E14extend_trustedBN_E0E0EB2a_, symObjAddr: 0x1CA8, symBinAddr: 0xE314, symSize: 0x4C }
  - { offset: 0x1844E, size: 0x8, addend: 0x0, symName: __RINvXs0_NtNtNtCsfvfooZQ3Axs_4core4iter8adapters3mapINtB6_3MapINtNtNtBc_5slice4iter4IterTNtNtCse1nGBsou5OW_5alloc6string6StringNtCs3cP53eQoTwO_11proc_macro211TokenStreamEENCNvCsLP87wc3c6O_10pdf_derive20impl_object_for_enum0ENtNtNtBa_6traits8iterator8Iterator4folduNCINvNvB3z_8for_each4callB20_NCINvMsi_NtB1s_3vecINtB4P_3VecB20_E14extend_trustedBN_E0E0EB2M_, symObjAddr: 0x1CF4, symBinAddr: 0xE360, symSize: 0x44 }
  - { offset: 0x184E6, size: 0x8, addend: 0x0, symName: __RINvXs0_NtNtNtCsfvfooZQ3Axs_4core4iter8adapters3mapINtB6_3MapINtNtNtBc_5slice4iter4IterTNtNtCse1nGBsou5OW_5alloc6string6StringNtCs3cP53eQoTwO_11proc_macro211TokenStreamEENCNvCsLP87wc3c6O_10pdf_derive25impl_objectwrite_for_enum0ENtNtNtBa_6traits8iterator8Iterator4folduNCINvNvB3E_8for_each4callB20_NCINvMsi_NtB1s_3vecINtB4U_3VecB20_E14extend_trustedBN_E0E0EB2M_, symObjAddr: 0x1D38, symBinAddr: 0xE3A4, symSize: 0x44 }
  - { offset: 0x1857E, size: 0x8, addend: 0x0, symName: __RNvXs0_NtNtNtCsfvfooZQ3Axs_4core4iter8adapters3mapINtB5_3MapINtNtCs5AlOhPCr03V_3syn10punctuated4IterNtNtB11_4data5FieldENCNvCsLP87wc3c6O_10pdf_derive22impl_object_for_struct0ENtNtNtB9_6traits8iterator8Iterator4nextB1Y_, symObjAddr: 0x3EBC, symBinAddr: 0x10524, symSize: 0x90 }
  - { offset: 0x185F8, size: 0x8, addend: 0x0, symName: __RNvXs0_NtNtNtCsfvfooZQ3Axs_4core4iter8adapters3mapINtB5_3MapINtNtCs5AlOhPCr03V_3syn10punctuated4IterNtNtB11_4data5FieldENCNvCsLP87wc3c6O_10pdf_derive22impl_object_for_structs_0ENtNtNtB9_6traits8iterator8Iterator4nextB1Y_, symObjAddr: 0x3F4C, symBinAddr: 0x105B4, symSize: 0x90 }
  - { offset: 0x18672, size: 0x8, addend: 0x0, symName: __RNvXs0_NtNtNtCsfvfooZQ3Axs_4core4iter8adapters3mapINtB5_3MapINtNtCs5AlOhPCr03V_3syn10punctuated4IterNtNtB11_4data5FieldENCNvCsLP87wc3c6O_10pdf_derive27impl_objectwrite_for_struct0ENtNtNtB9_6traits8iterator8Iterator4nextB1Y_, symObjAddr: 0x3FDC, symBinAddr: 0x10644, symSize: 0xA0 }
  - { offset: 0x186EC, size: 0x8, addend: 0x0, symName: __RNvXs0_NtNtNtCsfvfooZQ3Axs_4core4iter8adapters3mapINtB5_3MapINtNtCs5AlOhPCr03V_3syn10punctuated4IterNtNtB11_4data5FieldENCNvCsLP87wc3c6O_10pdf_derive27impl_objectwrite_for_struct0ENtNtNtB9_6traits8iterator8Iterator9size_hintB1Y_, symObjAddr: 0x407C, symBinAddr: 0x106E4, symSize: 0x24 }
  - { offset: 0x18733, size: 0x8, addend: 0x0, symName: __RNvXs0_NtNtNtCsfvfooZQ3Axs_4core4iter8adapters3mapINtB5_3MapINtNtCs5AlOhPCr03V_3syn10punctuated4IterNtNtB11_4data7VariantENCNvCsLP87wc3c6O_10pdf_derive21impl_enum_from_stream0ENtNtNtB9_6traits8iterator8Iterator4nextB20_, symObjAddr: 0x40A0, symBinAddr: 0x10708, symSize: 0x90 }
  - { offset: 0x187AD, size: 0x8, addend: 0x0, symName: __RNvXs0_NtNtNtCsfvfooZQ3Axs_4core4iter8adapters3mapINtB5_3MapINtNtCs5AlOhPCr03V_3syn10punctuated4IterNtNtB11_4data7VariantENCNvCsLP87wc3c6O_10pdf_derive21impl_enum_from_stream0ENtNtNtB9_6traits8iterator8Iterator9size_hintB20_, symObjAddr: 0x4130, symBinAddr: 0x10798, symSize: 0x24 }
  - { offset: 0x187F4, size: 0x8, addend: 0x0, symName: __RNvXs0_NtNtNtCsfvfooZQ3Axs_4core4iter8adapters3mapINtB5_3MapINtNtCs5AlOhPCr03V_3syn10punctuated4IterNtNtB11_4path11PathSegmentENCNvMCsLP87wc3c6O_10pdf_deriveNtB26_10FieldAttrs5parses_0ENtNtNtB9_6traits8iterator8Iterator4nextB26_, symObjAddr: 0x4154, symBinAddr: 0x107BC, symSize: 0x90 }
  - { offset: 0x1886E, size: 0x8, addend: 0x0, symName: __RNvXs0_NtNtNtCsfvfooZQ3Axs_4core4iter8adapters3mapINtB5_3MapINtNtCs5AlOhPCr03V_3syn10punctuated4IterNtNtB11_4path11PathSegmentENCNvMCsLP87wc3c6O_10pdf_deriveNtB26_10FieldAttrs5parses_0ENtNtNtB9_6traits8iterator8Iterator9size_hintB26_, symObjAddr: 0x41E4, symBinAddr: 0x1084C, symSize: 0x24 }
  - { offset: 0x188B5, size: 0x8, addend: 0x0, symName: __RNvXs0_NtNtNtCsfvfooZQ3Axs_4core4iter8adapters3mapINtB5_3MapINtNtCs5AlOhPCr03V_3syn10punctuated4IterNtNtB11_4path11PathSegmentENCNvMs_CsLP87wc3c6O_10pdf_deriveNtB28_11GlobalAttrs8from_asts_0ENtNtNtB9_6traits8iterator8Iterator4nextB28_, symObjAddr: 0x4208, symBinAddr: 0x10870, symSize: 0x90 }
  - { offset: 0x1892F, size: 0x8, addend: 0x0, symName: __RNvXs0_NtNtNtCsfvfooZQ3Axs_4core4iter8adapters3mapINtB5_3MapINtNtCs5AlOhPCr03V_3syn10punctuated4IterNtNtB11_4path11PathSegmentENCNvMs_CsLP87wc3c6O_10pdf_deriveNtB28_11GlobalAttrs8from_asts_0ENtNtNtB9_6traits8iterator8Iterator9size_hintB28_, symObjAddr: 0x4298, symBinAddr: 0x10900, symSize: 0x24 }
  - { offset: 0x18976, size: 0x8, addend: 0x0, symName: __RNvXs0_NtNtNtCsfvfooZQ3Axs_4core4iter8adapters3mapINtB5_3MapINtNtNtBb_5slice4iter4IterTINtNtBb_6option6OptionNtCs3cP53eQoTwO_11proc_macro25IdentENtCsLP87wc3c6O_10pdf_derive10FieldAttrsIB1o_NtNtCs5AlOhPCr03V_3syn2ty4TypeEEENCNvB2l_27impl_objectwrite_for_structs_0ENtNtNtB9_6traits8iterator8Iterator4nextB2l_, symObjAddr: 0x42BC, symBinAddr: 0x10924, symSize: 0x90 }
  - { offset: 0x189F0, size: 0x8, addend: 0x0, symName: __RNvXs0_NtNtNtCsfvfooZQ3Axs_4core4iter8adapters3mapINtB5_3MapINtNtNtBb_5slice4iter4IterTNtNtCse1nGBsou5OW_5alloc6string6StringB1n_EENCNvCsLP87wc3c6O_10pdf_derive22impl_object_for_structs0_0ENtNtNtB9_6traits8iterator8Iterator9size_hintB29_, symObjAddr: 0x434C, symBinAddr: 0x109B4, symSize: 0x24 }
  - { offset: 0x18A37, size: 0x8, addend: 0x0, symName: __RNvXs0_NtNtNtCsfvfooZQ3Axs_4core4iter8adapters3mapINtB5_3MapINtNtNtBb_5slice4iter4IterTNtNtCse1nGBsou5OW_5alloc6string6StringB1n_EENCNvCsLP87wc3c6O_10pdf_derive27impl_objectwrite_for_structs0_0ENtNtNtB9_6traits8iterator8Iterator4nextB29_, symObjAddr: 0x4370, symBinAddr: 0x109D8, symSize: 0x90 }
  - { offset: 0x18AB1, size: 0x8, addend: 0x0, symName: __RNvXs0_NtNtNtCsfvfooZQ3Axs_4core4iter8adapters3mapINtB5_3MapINtNtNtBb_5slice4iter4IterTNtNtCse1nGBsou5OW_5alloc6string6StringNtCs3cP53eQoTwO_11proc_macro211TokenStreamEENCNvCsLP87wc3c6O_10pdf_derive20impl_object_for_enum0ENtNtNtB9_6traits8iterator8Iterator9size_hintB2L_, symObjAddr: 0x4400, symBinAddr: 0x10A68, symSize: 0x24 }
  - { offset: 0x18AF8, size: 0x8, addend: 0x0, symName: __RNvXs0_NtNtNtCsfvfooZQ3Axs_4core4iter8adapters3mapINtB5_3MapINtNtNtBb_5slice4iter4IterTNtNtCse1nGBsou5OW_5alloc6string6StringNtCs3cP53eQoTwO_11proc_macro211TokenStreamEENCNvCsLP87wc3c6O_10pdf_derive25impl_objectwrite_for_enum0ENtNtNtB9_6traits8iterator8Iterator9size_hintB2L_, symObjAddr: 0x4424, symBinAddr: 0x10A8C, symSize: 0x24 }
  - { offset: 0x18C52, size: 0x8, addend: 0x0, symName: __RNCINvNtNtNtCsfvfooZQ3Axs_4core4iter8adapters3map8map_foldRTNtNtCse1nGBsou5OW_5alloc6string6StringBW_ENtCs3cP53eQoTwO_11proc_macro211TokenStreamuNCNvCsLP87wc3c6O_10pdf_derive22impl_object_for_structs0_0NCINvNvNtNtNtB8_6traits8iterator8Iterator8for_each4callB1C_NCINvMsi_NtB10_3vecINtB4k_3VecB1C_E14extend_trustedINtB4_3MapINtNtNtBa_5slice4iter4IterBV_EB2j_EE0E0E0B2n_, symObjAddr: 0x2A48, symBinAddr: 0xF0B4, symSize: 0x8C }
  - { offset: 0x18CD7, size: 0x8, addend: 0x0, symName: __RNCINvNtNtNtCsfvfooZQ3Axs_4core4iter8adapters3map8map_foldRTNtNtCse1nGBsou5OW_5alloc6string6StringNtCs3cP53eQoTwO_11proc_macro211TokenStreamEB1y_uNCNvCsLP87wc3c6O_10pdf_derive20impl_object_for_enum0NCINvNvNtNtNtB8_6traits8iterator8Iterator8for_each4callB1y_NCINvMsi_NtB10_3vecINtB4g_3VecB1y_E14extend_trustedINtB4_3MapINtNtNtBa_5slice4iter4IterBV_EB2k_EE0E0E0B2o_, symObjAddr: 0x2AD4, symBinAddr: 0xF140, symSize: 0x8C }
  - { offset: 0x18D5C, size: 0x8, addend: 0x0, symName: __RNCINvNtNtNtCsfvfooZQ3Axs_4core4iter8adapters3map8map_foldRTNtNtCse1nGBsou5OW_5alloc6string6StringNtCs3cP53eQoTwO_11proc_macro211TokenStreamEB1y_uNCNvCsLP87wc3c6O_10pdf_derive25impl_objectwrite_for_enum0NCINvNvNtNtNtB8_6traits8iterator8Iterator8for_each4callB1y_NCINvMsi_NtB10_3vecINtB4l_3VecB1y_E14extend_trustedINtB4_3MapINtNtNtBa_5slice4iter4IterBV_EB2k_EE0E0E0B2o_, symObjAddr: 0x2B60, symBinAddr: 0xF1CC, symSize: 0x8C }
  - { offset: 0x18F4D, size: 0x8, addend: 0x0, symName: __RNCINvNtNtNtCsfvfooZQ3Axs_4core4iter8adapters3map12map_try_foldRNtNtCse1nGBsou5OW_5alloc6string6StringjjINtNtBa_6option6OptionjENCNCINvNtB14_3str17join_generic_copyehB10_E00NvMs9_NtBa_3numj11checked_addE0CsLP87wc3c6O_10pdf_derive, symObjAddr: 0x29A0, symBinAddr: 0xF00C, symSize: 0xA8 }
  - { offset: 0x19356, size: 0x8, addend: 0x0, symName: __RINvYINtNtCs5AlOhPCr03V_3syn10punctuated4IterNtNtB8_4data5FieldENtNtNtNtCsfvfooZQ3Axs_4core4iter6traits8iterator8Iterator10filter_mapNtNtB8_2ty4TypeNCNvCsLP87wc3c6O_10pdf_derive22impl_object_for_stream0EB2q_, symObjAddr: 0x1D7C, symBinAddr: 0xE3E8, symSize: 0x1C }
  - { offset: 0x193AE, size: 0x8, addend: 0x0, symName: __RINvYINtNtCs5AlOhPCr03V_3syn10punctuated4IterNtNtB8_4data5FieldENtNtNtNtCsfvfooZQ3Axs_4core4iter6traits8iterator8Iterator3mapNtCs3cP53eQoTwO_11proc_macro211TokenStreamNCNvCsLP87wc3c6O_10pdf_derive22impl_object_for_struct0EB2J_, symObjAddr: 0x1D98, symBinAddr: 0xE404, symSize: 0x30 }
  - { offset: 0x1941B, size: 0x8, addend: 0x0, symName: __RINvYINtNtCs5AlOhPCr03V_3syn10punctuated4IterNtNtB8_4data5FieldENtNtNtNtCsfvfooZQ3Axs_4core4iter6traits8iterator8Iterator3mapNtCs3cP53eQoTwO_11proc_macro211TokenStreamNCNvCsLP87wc3c6O_10pdf_derive22impl_object_for_structs_0EB2J_, symObjAddr: 0x1DC8, symBinAddr: 0xE434, symSize: 0x1C }
  - { offset: 0x19473, size: 0x8, addend: 0x0, symName: __RINvYINtNtCs5AlOhPCr03V_3syn10punctuated4IterNtNtB8_4data5FieldENtNtNtNtCsfvfooZQ3Axs_4core4iter6traits8iterator8Iterator3mapTINtNtB18_6option6OptionNtCs3cP53eQoTwO_11proc_macro25IdentENtCsLP87wc3c6O_10pdf_derive10FieldAttrsIB21_NtNtB8_2ty4TypeEENCNvB2Z_27impl_objectwrite_for_struct0EB2Z_, symObjAddr: 0x1DE4, symBinAddr: 0xE450, symSize: 0x1C }
  - { offset: 0x194CB, size: 0x8, addend: 0x0, symName: __RINvYINtNtCs5AlOhPCr03V_3syn10punctuated4IterNtNtB8_4data5FieldENtNtNtNtCsfvfooZQ3Axs_4core4iter6traits8iterator8Iterator8find_mapNtNtB8_2ty4TypeQNCNvCsLP87wc3c6O_10pdf_derive22impl_object_for_stream0EB2o_, symObjAddr: 0x1E00, symBinAddr: 0xE46C, symSize: 0xC8 }
  - { offset: 0x19550, size: 0x8, addend: 0x0, symName: __RINvYINtNtCs5AlOhPCr03V_3syn10punctuated4IterNtNtB8_4data5FieldENtNtNtNtCsfvfooZQ3Axs_4core4iter6traits8iterator8Iterator8try_folduNCINvNvB10_8find_map5checkRBH_NtNtB8_2ty4TypeQNCNvCsLP87wc3c6O_10pdf_derive22impl_object_for_stream0E0INtNtNtB18_3ops12control_flow11ControlFlowB2z_EEB2T_, symObjAddr: 0x1EC8, symBinAddr: 0xE534, symSize: 0x150 }
  - { offset: 0x1960B, size: 0x8, addend: 0x0, symName: __RINvYINtNtCs5AlOhPCr03V_3syn10punctuated4IterNtNtB8_4data7VariantENtNtNtNtCsfvfooZQ3Axs_4core4iter6traits8iterator8Iterator3mapNtCs3cP53eQoTwO_11proc_macro211TokenStreamNCNvCsLP87wc3c6O_10pdf_derive21impl_enum_from_stream0EB2L_, symObjAddr: 0x2018, symBinAddr: 0xE684, symSize: 0x30 }
  - { offset: 0x19678, size: 0x8, addend: 0x0, symName: __RINvYINtNtCs5AlOhPCr03V_3syn10punctuated4IterNtNtB8_4path11PathSegmentENtNtNtNtCsfvfooZQ3Axs_4core4iter6traits8iterator8Iterator3mapNtNtCse1nGBsou5OW_5alloc6string6StringNCNvMCsLP87wc3c6O_10pdf_deriveNtB2N_10FieldAttrs5parses_0EB2N_, symObjAddr: 0x2048, symBinAddr: 0xE6B4, symSize: 0x1C }
  - { offset: 0x196D0, size: 0x8, addend: 0x0, symName: __RINvYINtNtCs5AlOhPCr03V_3syn10punctuated4IterNtNtB8_4path11PathSegmentENtNtNtNtCsfvfooZQ3Axs_4core4iter6traits8iterator8Iterator3mapNtNtCse1nGBsou5OW_5alloc6string6StringNCNvMs_CsLP87wc3c6O_10pdf_deriveNtB2P_11GlobalAttrs8from_asts_0EB2P_, symObjAddr: 0x2064, symBinAddr: 0xE6D0, symSize: 0x1C }
  - { offset: 0x19728, size: 0x8, addend: 0x0, symName: __RINvYINtNtNtNtCsfvfooZQ3Axs_4core4iter8adapters3map3MapINtNtCs5AlOhPCr03V_3syn10punctuated4IterNtNtBW_4data5FieldENCNvCsLP87wc3c6O_10pdf_derive27impl_objectwrite_for_struct0ENtNtNtBa_6traits8iterator8Iterator7collectINtNtCse1nGBsou5OW_5alloc3vec3VecTINtNtBc_6option6OptionNtCs3cP53eQoTwO_11proc_macro25IdentENtB1S_10FieldAttrsIB41_NtNtBW_2ty4TypeEEEEB1S_, symObjAddr: 0x2080, symBinAddr: 0xE6EC, symSize: 0x34 }
  - { offset: 0x19768, size: 0x8, addend: 0x0, symName: __RINvYINtNtNtNtCsfvfooZQ3Axs_4core4iter8adapters3map3MapINtNtCs5AlOhPCr03V_3syn10punctuated4IterNtNtBW_4data7VariantENCNvCsLP87wc3c6O_10pdf_derive21impl_enum_from_stream0ENtNtNtBa_6traits8iterator8Iterator7collectINtNtCse1nGBsou5OW_5alloc3vec3VecNtCs3cP53eQoTwO_11proc_macro211TokenStreamEEB1U_, symObjAddr: 0x20B4, symBinAddr: 0xE720, symSize: 0x1C }
  - { offset: 0x197A9, size: 0x8, addend: 0x0, symName: __RINvYINtNtNtNtCsfvfooZQ3Axs_4core4iter8adapters3map3MapINtNtCs5AlOhPCr03V_3syn10punctuated4IterNtNtBW_4path11PathSegmentENCNvMCsLP87wc3c6O_10pdf_deriveNtB20_10FieldAttrs5parses_0ENtNtNtBa_6traits8iterator8Iterator7collectINtNtCse1nGBsou5OW_5alloc3vec3VecNtNtB3C_6string6StringEEB20_, symObjAddr: 0x20D0, symBinAddr: 0xE73C, symSize: 0x34 }
  - { offset: 0x197E9, size: 0x8, addend: 0x0, symName: __RINvYINtNtNtNtCsfvfooZQ3Axs_4core4iter8adapters3map3MapINtNtCs5AlOhPCr03V_3syn10punctuated4IterNtNtBW_4path11PathSegmentENCNvMs_CsLP87wc3c6O_10pdf_deriveNtB22_11GlobalAttrs8from_asts_0ENtNtNtBa_6traits8iterator8Iterator7collectINtNtCse1nGBsou5OW_5alloc3vec3VecNtNtB3I_6string6StringEEB22_, symObjAddr: 0x2104, symBinAddr: 0xE770, symSize: 0x34 }
  - { offset: 0x19829, size: 0x8, addend: 0x0, symName: __RINvYINtNtNtNtCsfvfooZQ3Axs_4core4iter8adapters3map3MapINtNtNtBc_5slice4iter4IterTNtNtCse1nGBsou5OW_5alloc6string6StringB1i_EENCNvCsLP87wc3c6O_10pdf_derive22impl_object_for_structs0_0ENtNtNtBa_6traits8iterator8Iterator7collectINtNtB1m_3vec3VecNtCs3cP53eQoTwO_11proc_macro211TokenStreamEEB24_, symObjAddr: 0x2138, symBinAddr: 0xE7A4, symSize: 0x1C }
  - { offset: 0x1986A, size: 0x8, addend: 0x0, symName: __RINvYINtNtNtNtCsfvfooZQ3Axs_4core4iter8adapters3map3MapINtNtNtBc_5slice4iter4IterTNtNtCse1nGBsou5OW_5alloc6string6StringB1i_EENCNvCsLP87wc3c6O_10pdf_derive22impl_object_for_structs0_0ENtNtNtBa_6traits8iterator8Iterator8for_eachNCINvMsi_NtB1m_3vecINtB3M_3VecNtCs3cP53eQoTwO_11proc_macro211TokenStreamE14extend_trustedB3_E0EB24_, symObjAddr: 0x2154, symBinAddr: 0xE7C0, symSize: 0x34 }
  - { offset: 0x198D6, size: 0x8, addend: 0x0, symName: __RINvYINtNtNtNtCsfvfooZQ3Axs_4core4iter8adapters3map3MapINtNtNtBc_5slice4iter4IterTNtNtCse1nGBsou5OW_5alloc6string6StringNtCs3cP53eQoTwO_11proc_macro211TokenStreamEENCNvCsLP87wc3c6O_10pdf_derive20impl_object_for_enum0ENtNtNtBa_6traits8iterator8Iterator7collectINtNtB1m_3vec3VecB1U_EEB2G_, symObjAddr: 0x2188, symBinAddr: 0xE7F4, symSize: 0x34 }
  - { offset: 0x19916, size: 0x8, addend: 0x0, symName: __RINvYINtNtNtNtCsfvfooZQ3Axs_4core4iter8adapters3map3MapINtNtNtBc_5slice4iter4IterTNtNtCse1nGBsou5OW_5alloc6string6StringNtCs3cP53eQoTwO_11proc_macro211TokenStreamEENCNvCsLP87wc3c6O_10pdf_derive20impl_object_for_enum0ENtNtNtBa_6traits8iterator8Iterator8for_eachNCINvMsi_NtB1m_3vecINtB4j_3VecB1U_E14extend_trustedB3_E0EB2G_, symObjAddr: 0x21BC, symBinAddr: 0xE828, symSize: 0x44 }
  - { offset: 0x19981, size: 0x8, addend: 0x0, symName: __RINvYINtNtNtNtCsfvfooZQ3Axs_4core4iter8adapters3map3MapINtNtNtBc_5slice4iter4IterTNtNtCse1nGBsou5OW_5alloc6string6StringNtCs3cP53eQoTwO_11proc_macro211TokenStreamEENCNvCsLP87wc3c6O_10pdf_derive25impl_objectwrite_for_enum0ENtNtNtBa_6traits8iterator8Iterator7collectINtNtB1m_3vec3VecB1U_EEB2G_, symObjAddr: 0x2200, symBinAddr: 0xE86C, symSize: 0x34 }
  - { offset: 0x199C1, size: 0x8, addend: 0x0, symName: __RINvYINtNtNtNtCsfvfooZQ3Axs_4core4iter8adapters3map3MapINtNtNtBc_5slice4iter4IterTNtNtCse1nGBsou5OW_5alloc6string6StringNtCs3cP53eQoTwO_11proc_macro211TokenStreamEENCNvCsLP87wc3c6O_10pdf_derive25impl_objectwrite_for_enum0ENtNtNtBa_6traits8iterator8Iterator8for_eachNCINvMsi_NtB1m_3vecINtB4o_3VecB1U_E14extend_trustedB3_E0EB2G_, symObjAddr: 0x2234, symBinAddr: 0xE8A0, symSize: 0x44 }
  - { offset: 0x19A2C, size: 0x8, addend: 0x0, symName: __RNvYINtNtCs5AlOhPCr03V_3syn10punctuated11PrivateIterNtNtB7_4attr10NestedMetaNtNtB7_5token5CommaENtNtNtNtCsfvfooZQ3Axs_4core4iter6traits8iterator8Iterator10advance_byCsLP87wc3c6O_10pdf_derive, symObjAddr: 0x5A34, symBinAddr: 0x1209C, symSize: 0x134 }
  - { offset: 0x19B82, size: 0x8, addend: 0x0, symName: __RNvYINtNtCs5AlOhPCr03V_3syn10punctuated11PrivateIterNtNtB7_4attr10NestedMetaNtNtB7_5token5CommaENtNtNtNtCsfvfooZQ3Axs_4core4iter6traits8iterator8Iterator3nthCsLP87wc3c6O_10pdf_derive, symObjAddr: 0x5B68, symBinAddr: 0x121D0, symSize: 0x80 }
  - { offset: 0x19C4E, size: 0x8, addend: 0x0, symName: __RNvYINtNtCs5AlOhPCr03V_3syn10punctuated11PrivateIterNtNtB7_4attr10NestedMetaNtNtB7_5token5CommaENtNtNtNtCsfvfooZQ3Axs_4core4iter6traits8iterator8Iterator9size_hintCsLP87wc3c6O_10pdf_derive, symObjAddr: 0x5BE8, symBinAddr: 0x12250, symSize: 0x34 }
  - { offset: 0x19C83, size: 0x8, addend: 0x0, symName: __RNvYINtNtCs5AlOhPCr03V_3syn10punctuated11PrivateIterNtNtB7_4data7VariantNtNtB7_5token5CommaENtNtNtNtCsfvfooZQ3Axs_4core4iter6traits8iterator8Iterator10advance_byCsLP87wc3c6O_10pdf_derive, symObjAddr: 0x5DE4, symBinAddr: 0x1244C, symSize: 0x134 }
  - { offset: 0x19DD9, size: 0x8, addend: 0x0, symName: __RNvYINtNtCs5AlOhPCr03V_3syn10punctuated11PrivateIterNtNtB7_4data7VariantNtNtB7_5token5CommaENtNtNtNtCsfvfooZQ3Axs_4core4iter6traits8iterator8Iterator3nthCsLP87wc3c6O_10pdf_derive, symObjAddr: 0x5F18, symBinAddr: 0x12580, symSize: 0x80 }
  - { offset: 0x19EA5, size: 0x8, addend: 0x0, symName: __RNvYINtNtCs5AlOhPCr03V_3syn10punctuated11PrivateIterNtNtB7_4data7VariantNtNtB7_5token5CommaENtNtNtNtCsfvfooZQ3Axs_4core4iter6traits8iterator8Iterator9size_hintCsLP87wc3c6O_10pdf_derive, symObjAddr: 0x5F98, symBinAddr: 0x12600, symSize: 0x34 }
  - { offset: 0x19EDA, size: 0x8, addend: 0x0, symName: __RNvYINtNtCs5AlOhPCr03V_3syn10punctuated11PrivateIterNtNtB7_4path15GenericArgumentNtNtB7_5token5CommaENtNtNtNtCsfvfooZQ3Axs_4core4iter6traits8iterator8Iterator10advance_byCsLP87wc3c6O_10pdf_derive, symObjAddr: 0x6194, symBinAddr: 0x127FC, symSize: 0x134 }
  - { offset: 0x1A030, size: 0x8, addend: 0x0, symName: __RNvYINtNtCs5AlOhPCr03V_3syn10punctuated11PrivateIterNtNtB7_4path15GenericArgumentNtNtB7_5token5CommaENtNtNtNtCsfvfooZQ3Axs_4core4iter6traits8iterator8Iterator3nthCsLP87wc3c6O_10pdf_derive, symObjAddr: 0x62C8, symBinAddr: 0x12930, symSize: 0x80 }
  - { offset: 0x1A0FC, size: 0x8, addend: 0x0, symName: __RNvYINtNtCs5AlOhPCr03V_3syn10punctuated11PrivateIterNtNtB7_4path15GenericArgumentNtNtB7_5token5CommaENtNtNtNtCsfvfooZQ3Axs_4core4iter6traits8iterator8Iterator9size_hintCsLP87wc3c6O_10pdf_derive, symObjAddr: 0x6348, symBinAddr: 0x129B0, symSize: 0x34 }
  - { offset: 0x1A15C, size: 0x8, addend: 0x0, symName: __RNvXNtNtNtCsfvfooZQ3Axs_4core4iter6traits7collectINtNtCs5AlOhPCr03V_3syn10punctuated4IterNtNtBQ_4attr10NestedMetaENtB2_12IntoIterator9into_iterCsLP87wc3c6O_10pdf_derive, symObjAddr: 0x3DC8, symBinAddr: 0x10430, symSize: 0x1C }
  - { offset: 0x1A193, size: 0x8, addend: 0x0, symName: __RNvXNtNtNtCsfvfooZQ3Axs_4core4iter6traits7collectINtNtCs5AlOhPCr03V_3syn10punctuated4IterNtNtBQ_4data7VariantENtB2_12IntoIterator9into_iterCsLP87wc3c6O_10pdf_derive, symObjAddr: 0x3DE4, symBinAddr: 0x1044C, symSize: 0x1C }
  - { offset: 0x1A1CA, size: 0x8, addend: 0x0, symName: __RNvXNtNtNtCsfvfooZQ3Axs_4core4iter6traits7collectINtNtNtB6_8adapters3map3MapINtNtCs5AlOhPCr03V_3syn10punctuated4IterNtNtB1h_4data5FieldENCNvCsLP87wc3c6O_10pdf_derive27impl_objectwrite_for_struct0ENtB2_12IntoIterator9into_iterB2e_, symObjAddr: 0x3E00, symBinAddr: 0x10468, symSize: 0x1C }
  - { offset: 0x1A201, size: 0x8, addend: 0x0, symName: __RNvXNtNtNtCsfvfooZQ3Axs_4core4iter6traits7collectINtNtNtB6_8adapters3map3MapINtNtCs5AlOhPCr03V_3syn10punctuated4IterNtNtB1h_4data7VariantENCNvCsLP87wc3c6O_10pdf_derive21impl_enum_from_stream0ENtB2_12IntoIterator9into_iterB2g_, symObjAddr: 0x3E1C, symBinAddr: 0x10484, symSize: 0x18 }
  - { offset: 0x1A238, size: 0x8, addend: 0x0, symName: __RNvXNtNtNtCsfvfooZQ3Axs_4core4iter6traits7collectINtNtNtB6_8adapters3map3MapINtNtCs5AlOhPCr03V_3syn10punctuated4IterNtNtB1h_4path11PathSegmentENCNvMCsLP87wc3c6O_10pdf_deriveNtB2m_10FieldAttrs5parses_0ENtB2_12IntoIterator9into_iterB2m_, symObjAddr: 0x3E34, symBinAddr: 0x1049C, symSize: 0x1C }
  - { offset: 0x1A26F, size: 0x8, addend: 0x0, symName: __RNvXNtNtNtCsfvfooZQ3Axs_4core4iter6traits7collectINtNtNtB6_8adapters3map3MapINtNtCs5AlOhPCr03V_3syn10punctuated4IterNtNtB1h_4path11PathSegmentENCNvMs_CsLP87wc3c6O_10pdf_deriveNtB2o_11GlobalAttrs8from_asts_0ENtB2_12IntoIterator9into_iterB2o_, symObjAddr: 0x3E50, symBinAddr: 0x104B8, symSize: 0x1C }
  - { offset: 0x1A2A6, size: 0x8, addend: 0x0, symName: __RNvXNtNtNtCsfvfooZQ3Axs_4core4iter6traits7collectINtNtNtB6_8adapters3map3MapINtNtNtB8_5slice4iter4IterTNtNtCse1nGBsou5OW_5alloc6string6StringB1D_EENCNvCsLP87wc3c6O_10pdf_derive22impl_object_for_structs0_0ENtB2_12IntoIterator9into_iterB2p_, symObjAddr: 0x3E6C, symBinAddr: 0x104D4, symSize: 0x18 }
  - { offset: 0x1A2DD, size: 0x8, addend: 0x0, symName: __RNvXNtNtNtCsfvfooZQ3Axs_4core4iter6traits7collectINtNtNtB6_8adapters3map3MapINtNtNtB8_5slice4iter4IterTNtNtCse1nGBsou5OW_5alloc6string6StringNtCs3cP53eQoTwO_11proc_macro211TokenStreamEENCNvCsLP87wc3c6O_10pdf_derive20impl_object_for_enum0ENtB2_12IntoIterator9into_iterB31_, symObjAddr: 0x3E84, symBinAddr: 0x104EC, symSize: 0x1C }
  - { offset: 0x1A314, size: 0x8, addend: 0x0, symName: __RNvXNtNtNtCsfvfooZQ3Axs_4core4iter6traits7collectINtNtNtB6_8adapters3map3MapINtNtNtB8_5slice4iter4IterTNtNtCse1nGBsou5OW_5alloc6string6StringNtCs3cP53eQoTwO_11proc_macro211TokenStreamEENCNvCsLP87wc3c6O_10pdf_derive25impl_objectwrite_for_enum0ENtB2_12IntoIterator9into_iterB31_, symObjAddr: 0x3EA0, symBinAddr: 0x10508, symSize: 0x1C }
  - { offset: 0x1A357, size: 0x8, addend: 0x0, symName: __RNvYINtNtCs5AlOhPCr03V_3syn10punctuated11PrivateIterNtNtB7_4attr10NestedMetaNtNtB7_5token5CommaENtNtNtNtCsfvfooZQ3Axs_4core4iter6traits10exact_size17ExactSizeIterator8is_emptyCsLP87wc3c6O_10pdf_derive, symObjAddr: 0x586C, symBinAddr: 0x11ED4, symSize: 0x2C }
  - { offset: 0x1A38C, size: 0x8, addend: 0x0, symName: __RNvYINtNtCs5AlOhPCr03V_3syn10punctuated11PrivateIterNtNtB7_4data7VariantNtNtB7_5token5CommaENtNtNtNtCsfvfooZQ3Axs_4core4iter6traits10exact_size17ExactSizeIterator8is_emptyCsLP87wc3c6O_10pdf_derive, symObjAddr: 0x5C1C, symBinAddr: 0x12284, symSize: 0x2C }
  - { offset: 0x1A3C1, size: 0x8, addend: 0x0, symName: __RNvYINtNtCs5AlOhPCr03V_3syn10punctuated11PrivateIterNtNtB7_4path15GenericArgumentNtNtB7_5token5CommaENtNtNtNtCsfvfooZQ3Axs_4core4iter6traits10exact_size17ExactSizeIterator8is_emptyCsLP87wc3c6O_10pdf_derive, symObjAddr: 0x5FCC, symBinAddr: 0x12634, symSize: 0x2C }
  - { offset: 0x1A402, size: 0x8, addend: 0x0, symName: __RNvYINtNtCs5AlOhPCr03V_3syn10punctuated11PrivateIterNtNtB7_4attr10NestedMetaNtNtB7_5token5CommaENtNtNtNtCsfvfooZQ3Axs_4core4iter6traits12double_ended19DoubleEndedIterator15advance_back_byCsLP87wc3c6O_10pdf_derive, symObjAddr: 0x5898, symBinAddr: 0x11F00, symSize: 0x134 }
  - { offset: 0x1A550, size: 0x8, addend: 0x0, symName: __RNvYINtNtCs5AlOhPCr03V_3syn10punctuated11PrivateIterNtNtB7_4attr10NestedMetaNtNtB7_5token5CommaENtNtNtNtCsfvfooZQ3Axs_4core4iter6traits12double_ended19DoubleEndedIterator8nth_backCsLP87wc3c6O_10pdf_derive, symObjAddr: 0x59CC, symBinAddr: 0x12034, symSize: 0x68 }
  - { offset: 0x1A5CE, size: 0x8, addend: 0x0, symName: __RNvYINtNtCs5AlOhPCr03V_3syn10punctuated11PrivateIterNtNtB7_4data7VariantNtNtB7_5token5CommaENtNtNtNtCsfvfooZQ3Axs_4core4iter6traits12double_ended19DoubleEndedIterator15advance_back_byCsLP87wc3c6O_10pdf_derive, symObjAddr: 0x5C48, symBinAddr: 0x122B0, symSize: 0x134 }
  - { offset: 0x1A71C, size: 0x8, addend: 0x0, symName: __RNvYINtNtCs5AlOhPCr03V_3syn10punctuated11PrivateIterNtNtB7_4data7VariantNtNtB7_5token5CommaENtNtNtNtCsfvfooZQ3Axs_4core4iter6traits12double_ended19DoubleEndedIterator8nth_backCsLP87wc3c6O_10pdf_derive, symObjAddr: 0x5D7C, symBinAddr: 0x123E4, symSize: 0x68 }
  - { offset: 0x1A79A, size: 0x8, addend: 0x0, symName: __RNvYINtNtCs5AlOhPCr03V_3syn10punctuated11PrivateIterNtNtB7_4path15GenericArgumentNtNtB7_5token5CommaENtNtNtNtCsfvfooZQ3Axs_4core4iter6traits12double_ended19DoubleEndedIterator15advance_back_byCsLP87wc3c6O_10pdf_derive, symObjAddr: 0x5FF8, symBinAddr: 0x12660, symSize: 0x134 }
  - { offset: 0x1A8E8, size: 0x8, addend: 0x0, symName: __RNvYINtNtCs5AlOhPCr03V_3syn10punctuated11PrivateIterNtNtB7_4path15GenericArgumentNtNtB7_5token5CommaENtNtNtNtCsfvfooZQ3Axs_4core4iter6traits12double_ended19DoubleEndedIterator8nth_backCsLP87wc3c6O_10pdf_derive, symObjAddr: 0x612C, symBinAddr: 0x12794, symSize: 0x68 }
  - { offset: 0x1AC5F, size: 0x8, addend: 0x0, symName: __RNvNvNtCsfvfooZQ3Axs_4core9ub_checks23maybe_is_nonoverlapping7runtimeCsLP87wc3c6O_10pdf_derive, symObjAddr: 0x3B38, symBinAddr: 0x101A0, symSize: 0xD8 }
  - { offset: 0x1AE48, size: 0x8, addend: 0x0, symName: __RNvNvNtNtCsfvfooZQ3Axs_4core4char7convert18from_u32_unchecked18precondition_checkCsLP87wc3c6O_10pdf_derive, symObjAddr: 0x3C10, symBinAddr: 0x10278, symSize: 0x98 }
  - { offset: 0x1AED4, size: 0x8, addend: 0x0, symName: __RNvXs1_NtCsfvfooZQ3Axs_4core7convertNtCs3cP53eQoTwO_11proc_macro211TokenStreamINtB5_4IntoNtCs9i5KxIbZ5ph_10proc_macro11TokenStreamE4intoCsLP87wc3c6O_10pdf_derive, symObjAddr: 0x4448, symBinAddr: 0x10AB0, symSize: 0x14 }
  - { offset: 0x1B7E8, size: 0x8, addend: 0x0, symName: __RNCINvNtNtCs9i5KxIbZ5ph_10proc_macro6bridge6client10run_clientNtB4_11TokenStreamINtNtCsfvfooZQ3Axs_4core6option6OptionBY_ENCNCINvMs7_B4_INtB4_6ClientNtB8_11TokenStreamB2n_E7expand1NvCsLP87wc3c6O_10pdf_derive11objectwriteE00E0B2U_, symObjAddr: 0x2358, symBinAddr: 0xE9C4, symSize: 0x324 }
  - { offset: 0x1BA4B, size: 0x8, addend: 0x0, symName: __RNCINvNtNtCs9i5KxIbZ5ph_10proc_macro6bridge6client10run_clientNtB4_11TokenStreamINtNtCsfvfooZQ3Axs_4core6option6OptionBY_ENCNCINvMs7_B4_INtB4_6ClientNtB8_11TokenStreamB2n_E7expand1NvCsLP87wc3c6O_10pdf_derive6objectE00E0B2U_, symObjAddr: 0x267C, symBinAddr: 0xECE8, symSize: 0x324 }
  - { offset: 0x1BCB3, size: 0x8, addend: 0x0, symName: __RNCNCINvNtNtCs9i5KxIbZ5ph_10proc_macro6bridge6client10run_clientNtB6_11TokenStreamINtNtCsfvfooZQ3Axs_4core6option6OptionB10_ENCNCINvMs7_B6_INtB6_6ClientNtBa_11TokenStreamB2q_E7expand1NvCsLP87wc3c6O_10pdf_derive11objectwriteE00E00B2X_, symObjAddr: 0x2C84, symBinAddr: 0xF2F0, symSize: 0x28 }
  - { offset: 0x1BD0D, size: 0x8, addend: 0x0, symName: __RNCNCINvNtNtCs9i5KxIbZ5ph_10proc_macro6bridge6client10run_clientNtB6_11TokenStreamINtNtCsfvfooZQ3Axs_4core6option6OptionB10_ENCNCINvMs7_B6_INtB6_6ClientNtBa_11TokenStreamB2q_E7expand1NvCsLP87wc3c6O_10pdf_derive6objectE00E00B2X_, symObjAddr: 0x2CAC, symBinAddr: 0xF318, symSize: 0x28 }
  - { offset: 0x1BDDA, size: 0x8, addend: 0x0, symName: __RNCNCINvMs7_NtNtCs9i5KxIbZ5ph_10proc_macro6bridge6clientINtBa_6ClientNtBe_11TokenStreamB15_E7expand1NvCsLP87wc3c6O_10pdf_derive11objectwriteE00B1C_, symObjAddr: 0x2BEC, symBinAddr: 0xF258, symSize: 0x30 }
  - { offset: 0x1BE22, size: 0x8, addend: 0x0, symName: __RNCNCINvMs7_NtNtCs9i5KxIbZ5ph_10proc_macro6bridge6clientINtBa_6ClientNtBe_11TokenStreamB15_E7expand1NvCsLP87wc3c6O_10pdf_derive6objectE00B1C_, symObjAddr: 0x2C1C, symBinAddr: 0xF288, symSize: 0x30 }
  - { offset: 0x1BE6B, size: 0x8, addend: 0x0, symName: __RNCINvMs7_NtNtCs9i5KxIbZ5ph_10proc_macro6bridge6clientINtB8_6ClientNtBc_11TokenStreamB13_E7expand1NvCsLP87wc3c6O_10pdf_derive11objectwriteE0B1A_, symObjAddr: 0x2278, symBinAddr: 0xE8E4, symSize: 0x30 }
  - { offset: 0x1BEB4, size: 0x8, addend: 0x0, symName: __RNCINvMs7_NtNtCs9i5KxIbZ5ph_10proc_macro6bridge6clientINtB8_6ClientNtBc_11TokenStreamB13_E7expand1NvCsLP87wc3c6O_10pdf_derive6objectE0B1A_, symObjAddr: 0x22A8, symBinAddr: 0xE914, symSize: 0x30 }
  - { offset: 0x1BEFF, size: 0x8, addend: 0x0, symName: __RINvNtNtCs9i5KxIbZ5ph_10proc_macro6bridge6client10run_clientNtB2_11TokenStreamINtNtCsfvfooZQ3Axs_4core6option6OptionBW_ENCNCINvMs7_B2_INtB2_6ClientNtB6_11TokenStreamB2l_E7expand1NvCsLP87wc3c6O_10pdf_derive11objectwriteE00EB2S_, symObjAddr: 0x16A0, symBinAddr: 0xDD0C, symSize: 0x21C }
  - { offset: 0x1C0BF, size: 0x8, addend: 0x0, symName: __RINvNtNtCs9i5KxIbZ5ph_10proc_macro6bridge6client10run_clientNtB2_11TokenStreamINtNtCsfvfooZQ3Axs_4core6option6OptionBW_ENCNCINvMs7_B2_INtB2_6ClientNtB6_11TokenStreamB2l_E7expand1NvCsLP87wc3c6O_10pdf_derive6objectE00EB2S_, symObjAddr: 0x18BC, symBinAddr: 0xDF28, symSize: 0x21C }
  - { offset: 0x1C2B1, size: 0x8, addend: 0x0, symName: __RINvNtNtNtCs9i5KxIbZ5ph_10proc_macro6bridge6client5state3setINtNtCsfvfooZQ3Axs_4core6option6OptionNtB4_11TokenStreamENCNCINvB4_10run_clientB1y_BW_NCNCINvMs7_B4_INtB4_6ClientNtB8_11TokenStreamB2L_E7expand1NvCsLP87wc3c6O_10pdf_derive11objectwriteE00E00EB3i_, symObjAddr: 0x1AD8, symBinAddr: 0xE144, symSize: 0xE8 }
  - { offset: 0x1C386, size: 0x8, addend: 0x0, symName: __RINvNtNtNtCs9i5KxIbZ5ph_10proc_macro6bridge6client5state3setINtNtCsfvfooZQ3Axs_4core6option6OptionNtB4_11TokenStreamENCNCINvB4_10run_clientB1y_BW_NCNCINvMs7_B4_INtB4_6ClientNtB8_11TokenStreamB2L_E7expand1NvCsLP87wc3c6O_10pdf_derive6objectE00E00EB3i_, symObjAddr: 0x1BC0, symBinAddr: 0xE22C, symSize: 0xE8 }
  - { offset: 0x1C465, size: 0x8, addend: 0x0, symName: __RNCNkNvNtNtNtCs9i5KxIbZ5ph_10proc_macro6bridge6client5state12BRIDGE_STATE0s_0CsLP87wc3c6O_10pdf_derive, symObjAddr: 0x2D40, symBinAddr: 0xF3AC, symSize: 0x34 }
  - { offset: 0x1C4C1, size: 0x8, addend: 0x0, symName: __RNvXsg_NtNtCs9i5KxIbZ5ph_10proc_macro6bridge6clientNtB5_11TokenStreamINtNtB7_3rpc6EncodeuE6encodeCsLP87wc3c6O_10pdf_derive, symObjAddr: 0x4E64, symBinAddr: 0x114CC, symSize: 0x50 }
  - { offset: 0x1C5D2, size: 0x8, addend: 0x0, symName: __RNvXsj_NtNtCs9i5KxIbZ5ph_10proc_macro6bridge6clientNtB5_11TokenStreamINtNtB7_3rpc9DecodeMutuE6decodeCsLP87wc3c6O_10pdf_derive, symObjAddr: 0x4EB4, symBinAddr: 0x1151C, symSize: 0x2C }
  - { offset: 0x1C61B, size: 0x8, addend: 0x0, symName: __RNvXsq_NtNtCs9i5KxIbZ5ph_10proc_macro6bridge6clientNtB5_4SpanINtNtB7_3rpc9DecodeMutuE6decodeCsLP87wc3c6O_10pdf_derive, symObjAddr: 0x4FE4, symBinAddr: 0x1164C, symSize: 0x2C }
  - { offset: 0x1CBB6, size: 0x8, addend: 0x0, symName: __RNvXsV_NtCs9i5KxIbZ5ph_10proc_macro6bridgeINtNtCsfvfooZQ3Axs_4core6result6ResultINtNtBJ_6option6OptionNtNtB5_6client11TokenStreamEuEINtNtB5_3rpc6EncodeuE6encodeCsLP87wc3c6O_10pdf_derive, symObjAddr: 0x4C18, symBinAddr: 0x11280, symSize: 0x108 }
  - { offset: 0x1CC7A, size: 0x8, addend: 0x0, symName: __RNvXsV_NtCs9i5KxIbZ5ph_10proc_macro6bridgeINtNtCsfvfooZQ3Axs_4core6result6ResultuNtNtB5_3rpc12PanicMessageEINtB1j_6EncodeuE6encodeCsLP87wc3c6O_10pdf_derive, symObjAddr: 0x4D20, symBinAddr: 0x11388, symSize: 0x12C }
  - { offset: 0x1E0D7, size: 0x8, addend: 0x0, symName: __RNCNCINvNtCse1nGBsou5OW_5alloc3str17join_generic_copyehNtNtB8_6string6StringE00CsLP87wc3c6O_10pdf_derive, symObjAddr: 0x2C4C, symBinAddr: 0xF2B8, symSize: 0x38 }
  - { offset: 0x1E130, size: 0x8, addend: 0x0, symName: __RNCINvNtCse1nGBsou5OW_5alloc3str17join_generic_copyehNtNtB6_6string6StringEs_0CsLP87wc3c6O_10pdf_derive, symObjAddr: 0x22D8, symBinAddr: 0xE944, symSize: 0x80 }
  - { offset: 0x1E1FE, size: 0x8, addend: 0x0, symName: __RINvNtCse1nGBsou5OW_5alloc3str17join_generic_copyehNtNtB4_6string6StringECsLP87wc3c6O_10pdf_derive, symObjAddr: 0x84, symBinAddr: 0xC6F0, symSize: 0x161C }
  - { offset: 0x1F77A, size: 0x8, addend: 0x0, symName: __RNvXs6_NtCse1nGBsou5OW_5alloc5boxedINtB5_3BoxDNtNtCsfvfooZQ3Axs_4core5error5ErrorNtNtBM_6marker4SendNtB1j_4SyncEL_ENtNtNtBM_3ops4drop4Drop4dropCsLP87wc3c6O_10pdf_derive, symObjAddr: 0x4488, symBinAddr: 0x10AF0, symSize: 0xC4 }
  - { offset: 0x1F8B1, size: 0x8, addend: 0x0, symName: __RNvXs6_NtCse1nGBsou5OW_5alloc5boxedINtB5_3BoxINtNtCs5AlOhPCr03V_3syn5drops6NoDropDINtNtBM_10punctuated9IterTraitNtNtBM_4attr10NestedMetaEp4ItemRB1M_EL_EENtNtNtCsfvfooZQ3Axs_4core3ops4drop4Drop4dropCsLP87wc3c6O_10pdf_derive, symObjAddr: 0x454C, symBinAddr: 0x10BB4, symSize: 0x118 }
  - { offset: 0x1F9E8, size: 0x8, addend: 0x0, symName: __RNvXs6_NtCse1nGBsou5OW_5alloc5boxedINtB5_3BoxINtNtCs5AlOhPCr03V_3syn5drops6NoDropDINtNtBM_10punctuated9IterTraitNtNtBM_4data5FieldEp4ItemRB1M_EL_EENtNtNtCsfvfooZQ3Axs_4core3ops4drop4Drop4dropCsLP87wc3c6O_10pdf_derive, symObjAddr: 0x4664, symBinAddr: 0x10CCC, symSize: 0x118 }
  - { offset: 0x1FB1F, size: 0x8, addend: 0x0, symName: __RNvXs6_NtCse1nGBsou5OW_5alloc5boxedINtB5_3BoxINtNtCs5AlOhPCr03V_3syn5drops6NoDropDINtNtBM_10punctuated9IterTraitNtNtBM_4data7VariantEp4ItemRB1M_EL_EENtNtNtCsfvfooZQ3Axs_4core3ops4drop4Drop4dropCsLP87wc3c6O_10pdf_derive, symObjAddr: 0x477C, symBinAddr: 0x10DE4, symSize: 0x118 }
  - { offset: 0x1FC56, size: 0x8, addend: 0x0, symName: __RNvXs6_NtCse1nGBsou5OW_5alloc5boxedINtB5_3BoxINtNtCs5AlOhPCr03V_3syn5drops6NoDropDINtNtBM_10punctuated9IterTraitNtNtBM_4path15GenericArgumentEp4ItemRB1M_EL_EENtNtNtCsfvfooZQ3Axs_4core3ops4drop4Drop4dropCsLP87wc3c6O_10pdf_derive, symObjAddr: 0x4894, symBinAddr: 0x10EFC, symSize: 0x118 }
  - { offset: 0x1FD8D, size: 0x8, addend: 0x0, symName: __RNvXs6_NtCse1nGBsou5OW_5alloc5boxedINtB5_3BoxNtNtNtCscOYdFFY2T5N_3std2io5error6CustomENtNtNtCsfvfooZQ3Axs_4core3ops4drop4Drop4dropCsLP87wc3c6O_10pdf_derive, symObjAddr: 0x49AC, symBinAddr: 0x11014, symSize: 0xB0 }
  - { offset: 0x216DA, size: 0x8, addend: 0x0, symName: __RNvMNtCs5AlOhPCr03V_3syn10punctuatedINtB2_10PunctuatedNtNtB4_4attr10NestedMetaNtNtB4_5token5CommaE4iterCsLP87wc3c6O_10pdf_derive, symObjAddr: 0x2F48, symBinAddr: 0xF5B4, symSize: 0xC8 }
  - { offset: 0x21745, size: 0x8, addend: 0x0, symName: __RNvMNtCs5AlOhPCr03V_3syn10punctuatedINtB2_10PunctuatedNtNtB4_4data5FieldNtNtB4_5token5CommaE5firstCsLP87wc3c6O_10pdf_derive, symObjAddr: 0x3010, symBinAddr: 0xF67C, symSize: 0x84 }
  - { offset: 0x21786, size: 0x8, addend: 0x0, symName: __RNvMNtCs5AlOhPCr03V_3syn10punctuatedINtB2_10PunctuatedNtNtB4_4data7VariantNtNtB4_5token5CommaE3lenCsLP87wc3c6O_10pdf_derive, symObjAddr: 0x3094, symBinAddr: 0xF700, symSize: 0xA0 }
  - { offset: 0x217C7, size: 0x8, addend: 0x0, symName: __RNvMNtCs5AlOhPCr03V_3syn10punctuatedINtB2_10PunctuatedNtNtB4_4data7VariantNtNtB4_5token5CommaE4iterCsLP87wc3c6O_10pdf_derive, symObjAddr: 0x3134, symBinAddr: 0xF7A0, symSize: 0xC8 }
  - { offset: 0x21832, size: 0x8, addend: 0x0, symName: __RNvMNtCs5AlOhPCr03V_3syn10punctuatedINtB2_10PunctuatedNtNtB4_4path11PathSegmentNtNtB4_5token6Colon2E5firstCsLP87wc3c6O_10pdf_derive, symObjAddr: 0x31FC, symBinAddr: 0xF868, symSize: 0x84 }
  - { offset: 0x218AE, size: 0x8, addend: 0x0, symName: __RNvMNtCs5AlOhPCr03V_3syn10punctuatedINtB2_10PunctuatedNtNtB4_4path15GenericArgumentNtNtB4_5token5CommaE4iterCsLP87wc3c6O_10pdf_derive, symObjAddr: 0x3280, symBinAddr: 0xF8EC, symSize: 0xC8 }
  - { offset: 0x218FF, size: 0x8, addend: 0x0, symName: __RNvMNtCs5AlOhPCr03V_3syn10punctuatedINtB2_10PunctuatedNtNtB4_4path15GenericArgumentNtNtB4_5token5CommaE5firstCsLP87wc3c6O_10pdf_derive, symObjAddr: 0x3348, symBinAddr: 0xF9B4, symSize: 0x84 }
  - { offset: 0x21951, size: 0x8, addend: 0x0, symName: __RNvMNtCsfvfooZQ3Axs_4core6resultINtB2_6ResultNtNtCs5AlOhPCr03V_3syn4expr4ExprNtNtBL_5error5ErrorE6expectCsLP87wc3c6O_10pdf_derive, symObjAddr: 0x3498, symBinAddr: 0xFB04, symSize: 0xC8 }
  - { offset: 0x219D0, size: 0x8, addend: 0x0, symName: __RNvMs1_NtNtCsfvfooZQ3Axs_4core3ptr8non_nullINtB5_7NonNullNtNtCse1nGBsou5OW_5alloc6string6StringE7sub_ptrCsLP87wc3c6O_10pdf_derive, symObjAddr: 0x3560, symBinAddr: 0xFBCC, symSize: 0x74 }
  - { offset: 0x21AC9, size: 0x8, addend: 0x0, symName: __RNvMs1_NtNtCsfvfooZQ3Axs_4core3ptr8non_nullINtB5_7NonNullTNtNtCs5AlOhPCr03V_3syn4attr10NestedMetaNtNtBY_5token5CommaEE7sub_ptrCsLP87wc3c6O_10pdf_derive, symObjAddr: 0x35D4, symBinAddr: 0xFC40, symSize: 0x74 }
  - { offset: 0x21BC2, size: 0x8, addend: 0x0, symName: __RNvMs1_NtNtCsfvfooZQ3Axs_4core3ptr8non_nullINtB5_7NonNullTNtNtCs5AlOhPCr03V_3syn4data7VariantNtNtBY_5token5CommaEE7sub_ptrCsLP87wc3c6O_10pdf_derive, symObjAddr: 0x3648, symBinAddr: 0xFCB4, symSize: 0x74 }
  - { offset: 0x21CBB, size: 0x8, addend: 0x0, symName: __RNvMs1_NtNtCsfvfooZQ3Axs_4core3ptr8non_nullINtB5_7NonNullTNtNtCs5AlOhPCr03V_3syn4path15GenericArgumentNtNtBY_5token5CommaEE7sub_ptrCsLP87wc3c6O_10pdf_derive, symObjAddr: 0x36BC, symBinAddr: 0xFD28, symSize: 0x74 }
  - { offset: 0x21DC1, size: 0x8, addend: 0x0, symName: __RNvMs1_NtNtCsfvfooZQ3Axs_4core3ptr8non_nullINtB5_7NonNullTNtNtCse1nGBsou5OW_5alloc6string6StringBU_EE7sub_ptrCsLP87wc3c6O_10pdf_derive, symObjAddr: 0x3730, symBinAddr: 0xFD9C, symSize: 0x74 }
  - { offset: 0x21EC7, size: 0x8, addend: 0x0, symName: __RNvMs1_NtNtCsfvfooZQ3Axs_4core3ptr8non_nullINtB5_7NonNullTNtNtCse1nGBsou5OW_5alloc6string6StringNtCs3cP53eQoTwO_11proc_macro211TokenStreamEE7sub_ptrCsLP87wc3c6O_10pdf_derive, symObjAddr: 0x37A4, symBinAddr: 0xFE10, symSize: 0x74 }
  - { offset: 0x21FEC, size: 0x8, addend: 0x0, symName: __RNvXNtCs2cqEZUIJimJ_5quote9to_tokensRNtCs3cP53eQoTwO_11proc_macro211TokenStreamNtB2_8ToTokens9to_tokensCsLP87wc3c6O_10pdf_derive, symObjAddr: 0x3D08, symBinAddr: 0x10370, symSize: 0x40 }
  - { offset: 0x2202B, size: 0x8, addend: 0x0, symName: __RNvXNtCs2cqEZUIJimJ_5quote9to_tokensRNtCs3cP53eQoTwO_11proc_macro25IdentNtB2_8ToTokens9to_tokensCsLP87wc3c6O_10pdf_derive, symObjAddr: 0x3D48, symBinAddr: 0x103B0, symSize: 0x40 }
  - { offset: 0x2206A, size: 0x8, addend: 0x0, symName: __RNvXNtCs2cqEZUIJimJ_5quote9to_tokensRNtNtCs5AlOhPCr03V_3syn8generics11WhereClauseNtB2_8ToTokens9to_tokensCsLP87wc3c6O_10pdf_derive, symObjAddr: 0x3D88, symBinAddr: 0x103F0, symSize: 0x40 }
  - { offset: 0x220BA, size: 0x8, addend: 0x0, symName: __RNvYINtNtNtNtCsfvfooZQ3Axs_4core4iter8adapters3map3MapINtNtCs5AlOhPCr03V_3syn10punctuated4IterNtNtBV_4data5FieldENCNvCsLP87wc3c6O_10pdf_derive22impl_object_for_struct0ENtNtNtCs2cqEZUIJimJ_5quote9___private3ext14RepIteratorExt15quote_into_iterB1R_, symObjAddr: 0x637C, symBinAddr: 0x129E4, symSize: 0x28 }
  - { offset: 0x220EF, size: 0x8, addend: 0x0, symName: __RNvYINtNtNtNtCsfvfooZQ3Axs_4core4iter8adapters3map3MapINtNtCs5AlOhPCr03V_3syn10punctuated4IterNtNtBV_4data5FieldENCNvCsLP87wc3c6O_10pdf_derive22impl_object_for_structs_0ENtNtNtCs2cqEZUIJimJ_5quote9___private3ext14RepIteratorExt15quote_into_iterB1R_, symObjAddr: 0x63A4, symBinAddr: 0x12A0C, symSize: 0x2C }
  - { offset: 0x22124, size: 0x8, addend: 0x0, symName: __RNvYINtNtNtNtCsfvfooZQ3Axs_4core4iter8adapters3map3MapINtNtNtBb_5slice4iter4IterTINtNtBb_6option6OptionNtCs3cP53eQoTwO_11proc_macro25IdentENtCsLP87wc3c6O_10pdf_derive10FieldAttrsIB1i_NtNtCs5AlOhPCr03V_3syn2ty4TypeEEENCNvB2f_27impl_objectwrite_for_structs_0ENtNtNtCs2cqEZUIJimJ_5quote9___private3ext14RepIteratorExt15quote_into_iterB2f_, symObjAddr: 0x63D0, symBinAddr: 0x12A38, symSize: 0x2C }
  - { offset: 0x22159, size: 0x8, addend: 0x0, symName: __RNvYINtNtNtNtCsfvfooZQ3Axs_4core4iter8adapters3map3MapINtNtNtBb_5slice4iter4IterTNtNtCse1nGBsou5OW_5alloc6string6StringB1h_EENCNvCsLP87wc3c6O_10pdf_derive27impl_objectwrite_for_structs0_0ENtNtNtCs2cqEZUIJimJ_5quote9___private3ext14RepIteratorExt15quote_into_iterB23_, symObjAddr: 0x63FC, symBinAddr: 0x12A64, symSize: 0x2C }
  - { offset: 0x2316B, size: 0x8, addend: 0x0, symName: __RINvMNtCse1nGBsou5OW_5alloc5sliceSNtNtB5_6string6String4joinReECsLP87wc3c6O_10pdf_derive, symObjAddr: 0x0, symBinAddr: 0x12AE4, symSize: 0x34 }
  - { offset: 0x23693, size: 0x8, addend: 0x0, symName: __RINvNvNtNtCs9i5KxIbZ5ph_10proc_macro6bridge14selfless_reify31reify_to_extern_c_fn_hrt_bridge7wrapperNtNtB6_6buffer6BufferNCINvMs7_NtB6_6clientINtB24_6ClientNtB8_11TokenStreamB2u_E7expand1NvCsLP87wc3c6O_10pdf_derive11objectwriteE0EB31_, symObjAddr: 0x22E0, symBinAddr: 0x14D4C, symSize: 0x5C }
  - { offset: 0x236EF, size: 0x8, addend: 0x0, symName: __RINvNvNtNtCs9i5KxIbZ5ph_10proc_macro6bridge14selfless_reify31reify_to_extern_c_fn_hrt_bridge7wrapperNtNtB6_6buffer6BufferNCINvMs7_NtB6_6clientINtB24_6ClientNtB8_11TokenStreamB2u_E7expand1NvCsLP87wc3c6O_10pdf_derive6objectE0EB31_, symObjAddr: 0x233C, symBinAddr: 0x14DA8, symSize: 0x5C }
  - { offset: 0x243D1, size: 0x8, addend: 0x0, symName: __RNvNvMNtNtCsfvfooZQ3Axs_4core3ptr9const_ptrPp7sub_ptr18precondition_checkCsLP87wc3c6O_10pdf_derive, symObjAddr: 0x3C74, symBinAddr: 0x166E0, symSize: 0x40 }
  - { offset: 0x24C46, size: 0x8, addend: 0x0, symName: __RINvNtCsfvfooZQ3Axs_4core3ptr13drop_in_placeINtNtB4_4cell10UnsafeCellNtNtNtCs9i5KxIbZ5ph_10proc_macro6bridge6client6BridgeEECsLP87wc3c6O_10pdf_derive, symObjAddr: 0xE78, symBinAddr: 0x13914, symSize: 0x24 }
  - { offset: 0x24C75, size: 0x8, addend: 0x0, symName: __RINvNtCsfvfooZQ3Axs_4core3ptr13drop_in_placeINtNtB4_4cell7RefCellNtNtNtCs9i5KxIbZ5ph_10proc_macro6bridge6client6BridgeEECsLP87wc3c6O_10pdf_derive, symObjAddr: 0xE9C, symBinAddr: 0x13938, symSize: 0x24 }
  - { offset: 0x24CA4, size: 0x8, addend: 0x0, symName: __RINvNtCsfvfooZQ3Axs_4core3ptr13drop_in_placeINtNtB4_6option6OptionTIBH_NtCs3cP53eQoTwO_11proc_macro25IdentENtCsLP87wc3c6O_10pdf_derive10FieldAttrsIBH_NtNtCs5AlOhPCr03V_3syn2ty4TypeEEEEB1J_, symObjAddr: 0xEC0, symBinAddr: 0x1395C, symSize: 0x4C }
  - { offset: 0x24CD3, size: 0x8, addend: 0x0, symName: __RINvNtCsfvfooZQ3Axs_4core3ptr13drop_in_placeINtNtCs2cqEZUIJimJ_5quote9___private9RepInterpNtCs3cP53eQoTwO_11proc_macro211TokenStreamEECsLP87wc3c6O_10pdf_derive, symObjAddr: 0xF0C, symBinAddr: 0x139A8, symSize: 0x24 }
  - { offset: 0x24D02, size: 0x8, addend: 0x0, symName: __RINvNtCsfvfooZQ3Axs_4core3ptr13drop_in_placeINtNtCs5AlOhPCr03V_3syn10punctuated4IterNtNtBL_4attr10NestedMetaEECsLP87wc3c6O_10pdf_derive, symObjAddr: 0xF60, symBinAddr: 0x139CC, symSize: 0x24 }
  - { offset: 0x24D31, size: 0x8, addend: 0x0, symName: __RINvNtCsfvfooZQ3Axs_4core3ptr13drop_in_placeINtNtCs5AlOhPCr03V_3syn10punctuated4IterNtNtBL_4data5FieldEECsLP87wc3c6O_10pdf_derive, symObjAddr: 0xF84, symBinAddr: 0x139F0, symSize: 0x24 }
  - { offset: 0x24D60, size: 0x8, addend: 0x0, symName: __RINvNtCsfvfooZQ3Axs_4core3ptr13drop_in_placeINtNtCs5AlOhPCr03V_3syn10punctuated4IterNtNtBL_4data7VariantEECsLP87wc3c6O_10pdf_derive, symObjAddr: 0xFA8, symBinAddr: 0x13A14, symSize: 0x24 }
  - { offset: 0x24D8F, size: 0x8, addend: 0x0, symName: __RINvNtCsfvfooZQ3Axs_4core3ptr13drop_in_placeINtNtCs5AlOhPCr03V_3syn10punctuated4IterNtNtBL_4path15GenericArgumentEECsLP87wc3c6O_10pdf_derive, symObjAddr: 0xFCC, symBinAddr: 0x13A38, symSize: 0x24 }
  - { offset: 0x24DBE, size: 0x8, addend: 0x0, symName: __RINvNtCsfvfooZQ3Axs_4core3ptr13drop_in_placeINtNtCse1nGBsou5OW_5alloc3vec3VecNtCs3cP53eQoTwO_11proc_macro211TokenStreamEECsLP87wc3c6O_10pdf_derive, symObjAddr: 0xFF0, symBinAddr: 0x13A5C, symSize: 0x5C }
  - { offset: 0x24DED, size: 0x8, addend: 0x0, symName: __RINvNtCsfvfooZQ3Axs_4core3ptr13drop_in_placeINtNtCse1nGBsou5OW_5alloc3vec3VecNtNtBL_6string6StringEECsLP87wc3c6O_10pdf_derive, symObjAddr: 0x104C, symBinAddr: 0x13AB8, symSize: 0x5C }
  - { offset: 0x24E1C, size: 0x8, addend: 0x0, symName: __RINvNtCsfvfooZQ3Axs_4core3ptr13drop_in_placeINtNtCse1nGBsou5OW_5alloc3vec3VecTINtNtB4_6option6OptionNtCs3cP53eQoTwO_11proc_macro25IdentENtCsLP87wc3c6O_10pdf_derive10FieldAttrsIB1f_NtNtCs5AlOhPCr03V_3syn2ty4TypeEEEEB2c_, symObjAddr: 0x10A8, symBinAddr: 0x13B14, symSize: 0x5C }
  - { offset: 0x24E4B, size: 0x8, addend: 0x0, symName: __RINvNtCsfvfooZQ3Axs_4core3ptr13drop_in_placeINtNtCse1nGBsou5OW_5alloc3vec3VecTNtNtBL_6string6StringB1e_EEECsLP87wc3c6O_10pdf_derive, symObjAddr: 0x1104, symBinAddr: 0x13B70, symSize: 0x5C }
  - { offset: 0x24E7A, size: 0x8, addend: 0x0, symName: __RINvNtCsfvfooZQ3Axs_4core3ptr13drop_in_placeINtNtCse1nGBsou5OW_5alloc3vec3VecTNtNtBL_6string6StringNtCs3cP53eQoTwO_11proc_macro211TokenStreamEEECsLP87wc3c6O_10pdf_derive, symObjAddr: 0x1160, symBinAddr: 0x13BCC, symSize: 0x5C }
  - { offset: 0x24EA9, size: 0x8, addend: 0x0, symName: __RINvNtCsfvfooZQ3Axs_4core3ptr13drop_in_placeINtNtCse1nGBsou5OW_5alloc5boxed3BoxDNtNtB4_5error5ErrorNtNtB4_6marker4SendNtB1B_4SyncEL_EECsLP87wc3c6O_10pdf_derive, symObjAddr: 0x11BC, symBinAddr: 0x13C28, symSize: 0x80 }
  - { offset: 0x24ED8, size: 0x8, addend: 0x0, symName: __RINvNtCsfvfooZQ3Axs_4core3ptr13drop_in_placeINtNtCse1nGBsou5OW_5alloc5boxed3BoxINtNtCs5AlOhPCr03V_3syn5drops6NoDropDINtNtB1k_10punctuated9IterTraitNtNtB1k_4attr10NestedMetaEp4ItemRB2l_EL_EEECsLP87wc3c6O_10pdf_derive, symObjAddr: 0x123C, symBinAddr: 0x13CA8, symSize: 0x2C }
  - { offset: 0x24F07, size: 0x8, addend: 0x0, symName: __RINvNtCsfvfooZQ3Axs_4core3ptr13drop_in_placeINtNtCse1nGBsou5OW_5alloc5boxed3BoxINtNtCs5AlOhPCr03V_3syn5drops6NoDropDINtNtB1k_10punctuated9IterTraitNtNtB1k_4data5FieldEp4ItemRB2l_EL_EEECsLP87wc3c6O_10pdf_derive, symObjAddr: 0x1268, symBinAddr: 0x13CD4, symSize: 0x2C }
  - { offset: 0x24F36, size: 0x8, addend: 0x0, symName: __RINvNtCsfvfooZQ3Axs_4core3ptr13drop_in_placeINtNtCse1nGBsou5OW_5alloc5boxed3BoxINtNtCs5AlOhPCr03V_3syn5drops6NoDropDINtNtB1k_10punctuated9IterTraitNtNtB1k_4data7VariantEp4ItemRB2l_EL_EEECsLP87wc3c6O_10pdf_derive, symObjAddr: 0x1294, symBinAddr: 0x13D00, symSize: 0x2C }
  - { offset: 0x24F65, size: 0x8, addend: 0x0, symName: __RINvNtCsfvfooZQ3Axs_4core3ptr13drop_in_placeINtNtCse1nGBsou5OW_5alloc5boxed3BoxINtNtCs5AlOhPCr03V_3syn5drops6NoDropDINtNtB1k_10punctuated9IterTraitNtNtB1k_4path15GenericArgumentEp4ItemRB2l_EL_EEECsLP87wc3c6O_10pdf_derive, symObjAddr: 0x12C0, symBinAddr: 0x13D2C, symSize: 0x2C }
  - { offset: 0x24F94, size: 0x8, addend: 0x0, symName: __RINvNtCsfvfooZQ3Axs_4core3ptr13drop_in_placeINtNtCse1nGBsou5OW_5alloc5boxed3BoxNtNtNtCscOYdFFY2T5N_3std2io5error6CustomEECsLP87wc3c6O_10pdf_derive, symObjAddr: 0x12EC, symBinAddr: 0x13D58, symSize: 0x60 }
  - { offset: 0x24FC3, size: 0x8, addend: 0x0, symName: __RINvNtCsfvfooZQ3Axs_4core3ptr13drop_in_placeINtNtCse1nGBsou5OW_5alloc7raw_vec6RawVecNtCs3cP53eQoTwO_11proc_macro211TokenStreamEECsLP87wc3c6O_10pdf_derive, symObjAddr: 0x134C, symBinAddr: 0x13DB8, symSize: 0x24 }
  - { offset: 0x24FF2, size: 0x8, addend: 0x0, symName: __RINvNtCsfvfooZQ3Axs_4core3ptr13drop_in_placeINtNtCse1nGBsou5OW_5alloc7raw_vec6RawVecNtNtBL_6string6StringEECsLP87wc3c6O_10pdf_derive, symObjAddr: 0x1370, symBinAddr: 0x13DDC, symSize: 0x24 }
  - { offset: 0x25021, size: 0x8, addend: 0x0, symName: __RINvNtCsfvfooZQ3Axs_4core3ptr13drop_in_placeINtNtCse1nGBsou5OW_5alloc7raw_vec6RawVecTINtNtB4_6option6OptionNtCs3cP53eQoTwO_11proc_macro25IdentENtCsLP87wc3c6O_10pdf_derive10FieldAttrsIB1m_NtNtCs5AlOhPCr03V_3syn2ty4TypeEEEEB2j_, symObjAddr: 0x1394, symBinAddr: 0x13E00, symSize: 0x24 }
  - { offset: 0x25050, size: 0x8, addend: 0x0, symName: __RINvNtCsfvfooZQ3Axs_4core3ptr13drop_in_placeINtNtCse1nGBsou5OW_5alloc7raw_vec6RawVecTNtNtBL_6string6StringB1l_EEECsLP87wc3c6O_10pdf_derive, symObjAddr: 0x13B8, symBinAddr: 0x13E24, symSize: 0x24 }
  - { offset: 0x2507F, size: 0x8, addend: 0x0, symName: __RINvNtCsfvfooZQ3Axs_4core3ptr13drop_in_placeINtNtCse1nGBsou5OW_5alloc7raw_vec6RawVecTNtNtBL_6string6StringNtCs3cP53eQoTwO_11proc_macro211TokenStreamEEECsLP87wc3c6O_10pdf_derive, symObjAddr: 0x13DC, symBinAddr: 0x13E48, symSize: 0x24 }
  - { offset: 0x250AE, size: 0x8, addend: 0x0, symName: __RINvNtCsfvfooZQ3Axs_4core3ptr13drop_in_placeINtNtNtB4_3ops12control_flow11ControlFlowNtNtCs5AlOhPCr03V_3syn2ty4TypeEECsLP87wc3c6O_10pdf_derive, symObjAddr: 0x1400, symBinAddr: 0x13E6C, symSize: 0x4C }
  - { offset: 0x250DD, size: 0x8, addend: 0x0, symName: __RINvNtCsfvfooZQ3Axs_4core3ptr13drop_in_placeINtNtNtCscOYdFFY2T5N_3std2io5error9ErrorDataINtNtCse1nGBsou5OW_5alloc5boxed3BoxNtBJ_6CustomEEECsLP87wc3c6O_10pdf_derive, symObjAddr: 0x144C, symBinAddr: 0x13EB8, symSize: 0x48 }
  - { offset: 0x2510C, size: 0x8, addend: 0x0, symName: __RINvNtCsfvfooZQ3Axs_4core3ptr13drop_in_placeINtNtNtNtB4_4iter8adapters10filter_map9FilterMapINtNtCs5AlOhPCr03V_3syn10punctuated4IterNtNtB1x_4data5FieldENCNvCsLP87wc3c6O_10pdf_derive22impl_object_for_stream0EEB2u_, symObjAddr: 0x1494, symBinAddr: 0x13F00, symSize: 0x24 }
  - { offset: 0x2513B, size: 0x8, addend: 0x0, symName: __RINvNtCsfvfooZQ3Axs_4core3ptr13drop_in_placeINtNtNtNtB4_4iter8adapters3map3MapINtNtCs5AlOhPCr03V_3syn10punctuated4IterNtNtB1j_4data5FieldENCNvCsLP87wc3c6O_10pdf_derive22impl_object_for_struct0EEB2g_, symObjAddr: 0x14B8, symBinAddr: 0x13F24, symSize: 0x24 }
  - { offset: 0x2516A, size: 0x8, addend: 0x0, symName: __RINvNtCsfvfooZQ3Axs_4core3ptr13drop_in_placeINtNtNtNtB4_4iter8adapters3map3MapINtNtCs5AlOhPCr03V_3syn10punctuated4IterNtNtB1j_4data5FieldENCNvCsLP87wc3c6O_10pdf_derive22impl_object_for_structs_0EEB2g_, symObjAddr: 0x14DC, symBinAddr: 0x13F48, symSize: 0x24 }
  - { offset: 0x25199, size: 0x8, addend: 0x0, symName: __RINvNtCsfvfooZQ3Axs_4core3ptr13drop_in_placeINtNtNtNtB4_4iter8adapters3map3MapINtNtCs5AlOhPCr03V_3syn10punctuated4IterNtNtB1j_4data5FieldENCNvCsLP87wc3c6O_10pdf_derive27impl_objectwrite_for_struct0EEB2g_, symObjAddr: 0x1500, symBinAddr: 0x13F6C, symSize: 0x24 }
  - { offset: 0x251C8, size: 0x8, addend: 0x0, symName: __RINvNtCsfvfooZQ3Axs_4core3ptr13drop_in_placeINtNtNtNtB4_4iter8adapters3map3MapINtNtCs5AlOhPCr03V_3syn10punctuated4IterNtNtB1j_4data7VariantENCNvCsLP87wc3c6O_10pdf_derive21impl_enum_from_stream0EEB2i_, symObjAddr: 0x1524, symBinAddr: 0x13F90, symSize: 0x24 }
  - { offset: 0x251F7, size: 0x8, addend: 0x0, symName: __RINvNtCsfvfooZQ3Axs_4core3ptr13drop_in_placeINtNtNtNtB4_4iter8adapters3map3MapINtNtCs5AlOhPCr03V_3syn10punctuated4IterNtNtB1j_4path11PathSegmentENCNvMCsLP87wc3c6O_10pdf_deriveNtB2o_10FieldAttrs5parses_0EEB2o_, symObjAddr: 0x1548, symBinAddr: 0x13FB4, symSize: 0x24 }
  - { offset: 0x25226, size: 0x8, addend: 0x0, symName: __RINvNtCsfvfooZQ3Axs_4core3ptr13drop_in_placeINtNtNtNtB4_4iter8adapters3map3MapINtNtCs5AlOhPCr03V_3syn10punctuated4IterNtNtB1j_4path11PathSegmentENCNvMs_CsLP87wc3c6O_10pdf_deriveNtB2q_11GlobalAttrs8from_asts_0EEB2q_, symObjAddr: 0x156C, symBinAddr: 0x13FD8, symSize: 0x24 }
  - { offset: 0x25255, size: 0x8, addend: 0x0, symName: __RINvNtCsfvfooZQ3Axs_4core3ptr13drop_in_placeNCINvMsi_NtCse1nGBsou5OW_5alloc3vecINtBP_3VecNtCs3cP53eQoTwO_11proc_macro211TokenStreamE14extend_trustedINtNtNtNtB4_4iter8adapters3map3MapINtNtNtB4_5slice4iter4IterTNtNtBR_6string6StringB1p_EENCNvCsLP87wc3c6O_10pdf_derive20impl_object_for_enum0EE0EB3Q_, symObjAddr: 0x1590, symBinAddr: 0x13FFC, symSize: 0x24 }
  - { offset: 0x25284, size: 0x8, addend: 0x0, symName: __RINvNtCsfvfooZQ3Axs_4core3ptr13drop_in_placeNCINvMsi_NtCse1nGBsou5OW_5alloc3vecINtBP_3VecNtCs3cP53eQoTwO_11proc_macro211TokenStreamE14extend_trustedINtNtNtNtB4_4iter8adapters3map3MapINtNtNtB4_5slice4iter4IterTNtNtBR_6string6StringB1p_EENCNvCsLP87wc3c6O_10pdf_derive25impl_objectwrite_for_enum0EE0EB3Q_, symObjAddr: 0x15B4, symBinAddr: 0x14020, symSize: 0x24 }
  - { offset: 0x252B3, size: 0x8, addend: 0x0, symName: __RINvNtCsfvfooZQ3Axs_4core3ptr13drop_in_placeNCINvMsi_NtCse1nGBsou5OW_5alloc3vecINtBP_3VecNtCs3cP53eQoTwO_11proc_macro211TokenStreamE14extend_trustedINtNtNtNtB4_4iter8adapters3map3MapINtNtNtB4_5slice4iter4IterTNtNtBR_6string6StringB3l_EENCNvCsLP87wc3c6O_10pdf_derive22impl_object_for_structs0_0EE0EB3Q_, symObjAddr: 0x15D8, symBinAddr: 0x14044, symSize: 0x24 }
  - { offset: 0x252E2, size: 0x8, addend: 0x0, symName: __RINvNtCsfvfooZQ3Axs_4core3ptr13drop_in_placeNCINvNtNtNtB4_4iter8adapters3map8map_foldRTNtNtCse1nGBsou5OW_5alloc6string6StringB1n_ENtCs3cP53eQoTwO_11proc_macro211TokenStreamuNCNvCsLP87wc3c6O_10pdf_derive22impl_object_for_structs0_0NCINvNvNtNtNtBP_6traits8iterator8Iterator8for_each4callB24_NCINvMsi_NtB1r_3vecINtB4M_3VecB24_E14extend_trustedINtBL_3MapINtNtNtB4_5slice4iter4IterB1m_EB2L_EE0E0E0EB2P_, symObjAddr: 0x15FC, symBinAddr: 0x14068, symSize: 0x24 }
  - { offset: 0x25311, size: 0x8, addend: 0x0, symName: __RINvNtCsfvfooZQ3Axs_4core3ptr13drop_in_placeNCINvNtNtNtB4_4iter8adapters3map8map_foldRTNtNtCse1nGBsou5OW_5alloc6string6StringNtCs3cP53eQoTwO_11proc_macro211TokenStreamEB1Z_uNCNvCsLP87wc3c6O_10pdf_derive20impl_object_for_enum0NCINvNvNtNtNtBP_6traits8iterator8Iterator8for_each4callB1Z_NCINvMsi_NtB1r_3vecINtB4H_3VecB1Z_E14extend_trustedINtBL_3MapINtNtNtB4_5slice4iter4IterB1m_EB2L_EE0E0E0EB2P_, symObjAddr: 0x1620, symBinAddr: 0x1408C, symSize: 0x24 }
  - { offset: 0x25340, size: 0x8, addend: 0x0, symName: __RINvNtCsfvfooZQ3Axs_4core3ptr13drop_in_placeNCINvNtNtNtB4_4iter8adapters3map8map_foldRTNtNtCse1nGBsou5OW_5alloc6string6StringNtCs3cP53eQoTwO_11proc_macro211TokenStreamEB1Z_uNCNvCsLP87wc3c6O_10pdf_derive25impl_objectwrite_for_enum0NCINvNvNtNtNtBP_6traits8iterator8Iterator8for_each4callB1Z_NCINvMsi_NtB1r_3vecINtB4M_3VecB1Z_E14extend_trustedINtBL_3MapINtNtNtB4_5slice4iter4IterB1m_EB2L_EE0E0E0EB2P_, symObjAddr: 0x1644, symBinAddr: 0x140B0, symSize: 0x24 }
  - { offset: 0x2536F, size: 0x8, addend: 0x0, symName: __RINvNtCsfvfooZQ3Axs_4core3ptr13drop_in_placeNCINvNvNtNtNtNtB4_4iter6traits8iterator8Iterator8for_each4callNtCs3cP53eQoTwO_11proc_macro211TokenStreamNCINvMsi_NtCse1nGBsou5OW_5alloc3vecINtB2v_3VecB1G_E14extend_trustedINtNtNtBT_8adapters3map3MapINtNtNtB4_5slice4iter4IterTNtNtB2x_6string6StringB1G_EENCNvCsLP87wc3c6O_10pdf_derive20impl_object_for_enum0EE0E0EB4P_, symObjAddr: 0x1668, symBinAddr: 0x140D4, symSize: 0x24 }
  - { offset: 0x2539E, size: 0x8, addend: 0x0, symName: __RINvNtCsfvfooZQ3Axs_4core3ptr13drop_in_placeNCINvNvNtNtNtNtB4_4iter6traits8iterator8Iterator8for_each4callNtCs3cP53eQoTwO_11proc_macro211TokenStreamNCINvMsi_NtCse1nGBsou5OW_5alloc3vecINtB2v_3VecB1G_E14extend_trustedINtNtNtBT_8adapters3map3MapINtNtNtB4_5slice4iter4IterTNtNtB2x_6string6StringB1G_EENCNvCsLP87wc3c6O_10pdf_derive25impl_objectwrite_for_enum0EE0E0EB4P_, symObjAddr: 0x168C, symBinAddr: 0x140F8, symSize: 0x24 }
  - { offset: 0x253CD, size: 0x8, addend: 0x0, symName: __RINvNtCsfvfooZQ3Axs_4core3ptr13drop_in_placeNCINvNvNtNtNtNtB4_4iter6traits8iterator8Iterator8for_each4callNtCs3cP53eQoTwO_11proc_macro211TokenStreamNCINvMsi_NtCse1nGBsou5OW_5alloc3vecINtB2v_3VecB1G_E14extend_trustedINtNtNtBT_8adapters3map3MapINtNtNtB4_5slice4iter4IterTNtNtB2x_6string6StringB4j_EENCNvCsLP87wc3c6O_10pdf_derive22impl_object_for_structs0_0EE0E0EB4P_, symObjAddr: 0x16B0, symBinAddr: 0x1411C, symSize: 0x24 }
  - { offset: 0x253FC, size: 0x8, addend: 0x0, symName: __RINvNtCsfvfooZQ3Axs_4core3ptr13drop_in_placeNCNCINvNtNtCs9i5KxIbZ5ph_10proc_macro6bridge6client10run_clientNtBN_11TokenStreamINtNtB4_6option6OptionB1H_ENCNCINvMs7_BN_INtBN_6ClientNtBR_11TokenStreamB2R_E7expand1NvCsLP87wc3c6O_10pdf_derive11objectwriteE00E00EB3o_, symObjAddr: 0x16D4, symBinAddr: 0x14140, symSize: 0x24 }
  - { offset: 0x2542B, size: 0x8, addend: 0x0, symName: __RINvNtCsfvfooZQ3Axs_4core3ptr13drop_in_placeNCNCINvNtNtCs9i5KxIbZ5ph_10proc_macro6bridge6client10run_clientNtBN_11TokenStreamINtNtB4_6option6OptionB1H_ENCNCINvMs7_BN_INtBN_6ClientNtBR_11TokenStreamB2R_E7expand1NvCsLP87wc3c6O_10pdf_derive6objectE00E00EB3o_, symObjAddr: 0x16F8, symBinAddr: 0x14164, symSize: 0x24 }
  - { offset: 0x2545A, size: 0x8, addend: 0x0, symName: __RINvNtCsfvfooZQ3Axs_4core3ptr13drop_in_placeNtCsLP87wc3c6O_10pdf_derive10FieldAttrsEBI_, symObjAddr: 0x171C, symBinAddr: 0x14188, symSize: 0x90 }
  - { offset: 0x25489, size: 0x8, addend: 0x0, symName: __RINvNtCsfvfooZQ3Axs_4core3ptr13drop_in_placeNtCsLP87wc3c6O_10pdf_derive11GlobalAttrsEBI_, symObjAddr: 0x17AC, symBinAddr: 0x14218, symSize: 0x60 }
  - { offset: 0x254B8, size: 0x8, addend: 0x0, symName: __RINvNtCsfvfooZQ3Axs_4core3ptr13drop_in_placeNtNtCs5AlOhPCr03V_3syn6derive11DeriveInputECsLP87wc3c6O_10pdf_derive, symObjAddr: 0x180C, symBinAddr: 0x14278, symSize: 0xEC }
  - { offset: 0x254E7, size: 0x8, addend: 0x0, symName: __RINvNtCsfvfooZQ3Axs_4core3ptr13drop_in_placeNtNtNtCs9i5KxIbZ5ph_10proc_macro6bridge3rpc12PanicMessageECsLP87wc3c6O_10pdf_derive, symObjAddr: 0x18F8, symBinAddr: 0x14364, symSize: 0x50 }
  - { offset: 0x25516, size: 0x8, addend: 0x0, symName: __RINvNtCsfvfooZQ3Axs_4core3ptr13drop_in_placeNtNtNtCs9i5KxIbZ5ph_10proc_macro6bridge6buffer6BufferECsLP87wc3c6O_10pdf_derive, symObjAddr: 0x1948, symBinAddr: 0x143B4, symSize: 0x24 }
  - { offset: 0x25545, size: 0x8, addend: 0x0, symName: __RINvNtCsfvfooZQ3Axs_4core3ptr13drop_in_placeNtNtNtCs9i5KxIbZ5ph_10proc_macro6bridge6client6BridgeECsLP87wc3c6O_10pdf_derive, symObjAddr: 0x196C, symBinAddr: 0x143D8, symSize: 0x24 }
  - { offset: 0x25574, size: 0x8, addend: 0x0, symName: __RINvNtCsfvfooZQ3Axs_4core3ptr13drop_in_placeNtNtNtCscOYdFFY2T5N_3std2io5error5ErrorECsLP87wc3c6O_10pdf_derive, symObjAddr: 0x1990, symBinAddr: 0x143FC, symSize: 0x24 }
  - { offset: 0x255A3, size: 0x8, addend: 0x0, symName: __RINvNtCsfvfooZQ3Axs_4core3ptr13drop_in_placeNtNtNtCscOYdFFY2T5N_3std2io5error6CustomECsLP87wc3c6O_10pdf_derive, symObjAddr: 0x19B4, symBinAddr: 0x14420, symSize: 0x24 }
  - { offset: 0x255D2, size: 0x8, addend: 0x0, symName: __RINvNtCsfvfooZQ3Axs_4core3ptr13drop_in_placeNtNtNtNtCscOYdFFY2T5N_3std2io5error14repr_bitpacked4ReprECsLP87wc3c6O_10pdf_derive, symObjAddr: 0x19D8, symBinAddr: 0x14444, symSize: 0x24 }
  - { offset: 0x25601, size: 0x8, addend: 0x0, symName: __RINvNtCsfvfooZQ3Axs_4core3ptr13drop_in_placeNtNvNtNtNtCs9i5KxIbZ5ph_10proc_macro6bridge6client5state3set13RestoreOnDropECsLP87wc3c6O_10pdf_derive, symObjAddr: 0x19FC, symBinAddr: 0x14468, symSize: 0x24 }
  - { offset: 0x25630, size: 0x8, addend: 0x0, symName: __RINvNtCsfvfooZQ3Axs_4core3ptr13drop_in_placeSNtCs3cP53eQoTwO_11proc_macro211TokenStreamECsLP87wc3c6O_10pdf_derive, symObjAddr: 0x1A20, symBinAddr: 0x1448C, symSize: 0xB4 }
  - { offset: 0x2565F, size: 0x8, addend: 0x0, symName: __RINvNtCsfvfooZQ3Axs_4core3ptr13drop_in_placeSNtNtCse1nGBsou5OW_5alloc6string6StringECsLP87wc3c6O_10pdf_derive, symObjAddr: 0x1AD4, symBinAddr: 0x14540, symSize: 0xC4 }
  - { offset: 0x2568E, size: 0x8, addend: 0x0, symName: __RINvNtCsfvfooZQ3Axs_4core3ptr13drop_in_placeSTINtNtB4_6option6OptionNtCs3cP53eQoTwO_11proc_macro25IdentENtCsLP87wc3c6O_10pdf_derive10FieldAttrsIBJ_NtNtCs5AlOhPCr03V_3syn2ty4TypeEEEB1G_, symObjAddr: 0x1B98, symBinAddr: 0x14604, symSize: 0xC4 }
  - { offset: 0x256BD, size: 0x8, addend: 0x0, symName: __RINvNtCsfvfooZQ3Axs_4core3ptr13drop_in_placeSTNtNtCse1nGBsou5OW_5alloc6string6StringBI_EECsLP87wc3c6O_10pdf_derive, symObjAddr: 0x1C5C, symBinAddr: 0x146C8, symSize: 0xC4 }
  - { offset: 0x256EC, size: 0x8, addend: 0x0, symName: __RINvNtCsfvfooZQ3Axs_4core3ptr13drop_in_placeSTNtNtCse1nGBsou5OW_5alloc6string6StringNtCs3cP53eQoTwO_11proc_macro211TokenStreamEECsLP87wc3c6O_10pdf_derive, symObjAddr: 0x1D20, symBinAddr: 0x1478C, symSize: 0xC4 }
  - { offset: 0x2571B, size: 0x8, addend: 0x0, symName: __RINvNtCsfvfooZQ3Axs_4core3ptr13drop_in_placeTINtNtB4_6option6OptionNtCs3cP53eQoTwO_11proc_macro25IdentENtCsLP87wc3c6O_10pdf_derive10FieldAttrsIBI_NtNtCs5AlOhPCr03V_3syn2ty4TypeEEEB1F_, symObjAddr: 0x1DE4, symBinAddr: 0x14850, symSize: 0x8C }
  - { offset: 0x2574A, size: 0x8, addend: 0x0, symName: __RINvNtCsfvfooZQ3Axs_4core3ptr13drop_in_placeTNtNtCse1nGBsou5OW_5alloc6string6StringBH_EECsLP87wc3c6O_10pdf_derive, symObjAddr: 0x1E70, symBinAddr: 0x148DC, symSize: 0x60 }
  - { offset: 0x25779, size: 0x8, addend: 0x0, symName: __RINvNtCsfvfooZQ3Axs_4core3ptr13drop_in_placeTNtNtCse1nGBsou5OW_5alloc6string6StringNtCs3cP53eQoTwO_11proc_macro211TokenStreamEECsLP87wc3c6O_10pdf_derive, symObjAddr: 0x1ED0, symBinAddr: 0x1493C, symSize: 0x60 }
  - { offset: 0x25A7D, size: 0x8, addend: 0x0, symName: __RNvNvNtCsfvfooZQ3Axs_4core3ptr13read_volatile18precondition_checkCsLP87wc3c6O_10pdf_derive, symObjAddr: 0x3CB4, symBinAddr: 0x16720, symSize: 0x100 }
  - { offset: 0x287F2, size: 0x8, addend: 0x0, symName: __RNvXNtNtCsfvfooZQ3Axs_4core3ops12control_flowINtB2_11ControlFlowNtNtCs5AlOhPCr03V_3syn2ty4TypeENtNtB4_9try_trait3Try11from_outputCsLP87wc3c6O_10pdf_derive, symObjAddr: 0x48E0, symBinAddr: 0x1734C, symSize: 0x1C }
  - { offset: 0x28830, size: 0x8, addend: 0x0, symName: __RNvXNtNtCsfvfooZQ3Axs_4core3ops12control_flowINtB2_11ControlFlowNtNtCs5AlOhPCr03V_3syn2ty4TypeENtNtB4_9try_trait3Try6branchCsLP87wc3c6O_10pdf_derive, symObjAddr: 0x48FC, symBinAddr: 0x17368, symSize: 0x9C }
  - { offset: 0x288AF, size: 0x8, addend: 0x0, symName: __RNvXs_NtNtCsfvfooZQ3Axs_4core3ops12control_flowINtB4_11ControlFlowNtNtCs5AlOhPCr03V_3syn2ty4TypeEINtNtB6_9try_trait12FromResidualIBK_B12_NtNtB8_7convert10InfallibleEE13from_residualCsLP87wc3c6O_10pdf_derive, symObjAddr: 0x535C, symBinAddr: 0x17DC8, symSize: 0x50 }
  - { offset: 0x28A82, size: 0x8, addend: 0x0, symName: __RNvYNCNkNvNtNtNtCs9i5KxIbZ5ph_10proc_macro6bridge6client5state12BRIDGE_STATE0s_0INtNtNtCsfvfooZQ3Axs_4core3ops8function6FnOnceTINtNtB1n_6option6OptionQIB22_INtNtB1n_4cell4CellPuEEEEE9call_onceCsLP87wc3c6O_10pdf_derive, symObjAddr: 0x556C, symBinAddr: 0x17FD8, symSize: 0x4C }
  - { offset: 0x28AC6, size: 0x8, addend: 0x0, symName: __RNvYNvYNtNtCs5AlOhPCr03V_3syn4expr4ExprNtNtB9_5parse5Parse5parseINtNtNtCsfvfooZQ3Axs_4core3ops8function6FnOnceTRNtBD_11ParseBufferEE9call_onceCsLP87wc3c6O_10pdf_derive, symObjAddr: 0x5638, symBinAddr: 0x180A4, symSize: 0x24 }
  - { offset: 0x28B0A, size: 0x8, addend: 0x0, symName: __RNvYNvYNtNtCs5AlOhPCr03V_3syn6derive11DeriveInputNtNtB9_17parse_macro_input15ParseMacroInput5parseINtNtNtCsfvfooZQ3Axs_4core3ops8function6FnOnceTRNtNtB9_5parse11ParseBufferEE9call_onceCsLP87wc3c6O_10pdf_derive, symObjAddr: 0x565C, symBinAddr: 0x180C8, symSize: 0x24 }
  - { offset: 0x28B4E, size: 0x8, addend: 0x0, symName: __RNvYNvYNtNtNtCs9i5KxIbZ5ph_10proc_macro6bridge3rpc12PanicMessageINtNtCsfvfooZQ3Axs_4core7convert4FromINtNtCse1nGBsou5OW_5alloc5boxed3BoxDNtNtB15_3any3AnyNtNtB15_6marker4SendEL_EE4fromINtNtNtB15_3ops8function6FnOnceTB1B_EE9call_onceCsLP87wc3c6O_10pdf_derive, symObjAddr: 0x5680, symBinAddr: 0x180EC, symSize: 0x2C }
  - { offset: 0x28B98, size: 0x8, addend: 0x0, symName: __RNvYNvCsLP87wc3c6O_10pdf_derive11objectwriteINtNtNtCsfvfooZQ3Axs_4core3ops8function2FnTNtCs9i5KxIbZ5ph_10proc_macro11TokenStreamEE4callB4_, symObjAddr: 0x55B8, symBinAddr: 0x18024, symSize: 0x28 }
  - { offset: 0x28BDC, size: 0x8, addend: 0x0, symName: __RNvYNvCsLP87wc3c6O_10pdf_derive6objectINtNtNtCsfvfooZQ3Axs_4core3ops8function2FnTNtCs9i5KxIbZ5ph_10proc_macro11TokenStreamEE4callB4_, symObjAddr: 0x55E0, symBinAddr: 0x1804C, symSize: 0x28 }
  - { offset: 0x28C26, size: 0x8, addend: 0x0, symName: __RNvYNvMs9_NtCsfvfooZQ3Axs_4core3numj11checked_addINtNtNtBa_3ops8function5FnMutTjjEE8call_mutCsLP87wc3c6O_10pdf_derive, symObjAddr: 0x5608, symBinAddr: 0x18074, symSize: 0x30 }
  - { offset: 0x29613, size: 0x8, addend: 0x0, symName: __RNvXs0_NtNtNtCsfvfooZQ3Axs_4core4iter8adapters10filter_mapINtB5_9FilterMapINtNtCs5AlOhPCr03V_3syn10punctuated4IterNtNtB1f_4data5FieldENCNvCsLP87wc3c6O_10pdf_derive22impl_object_for_stream0ENtNtNtB9_6traits8iterator8Iterator4nextB2c_, symObjAddr: 0x4AB4, symBinAddr: 0x17520, symSize: 0x2C }
  - { offset: 0x29A28, size: 0x8, addend: 0x0, symName: __RNvMNtCsfvfooZQ3Axs_4core5sliceSTNtNtCse1nGBsou5OW_5alloc6string6StringBv_E4iterCsLP87wc3c6O_10pdf_derive, symObjAddr: 0x2B20, symBinAddr: 0x1558C, symSize: 0x28 }
  - { offset: 0x29A5F, size: 0x8, addend: 0x0, symName: __RNvMNtCsfvfooZQ3Axs_4core5sliceSTNtNtCse1nGBsou5OW_5alloc6string6StringNtCs3cP53eQoTwO_11proc_macro211TokenStreamE4iterCsLP87wc3c6O_10pdf_derive, symObjAddr: 0x2B48, symBinAddr: 0x155B4, symSize: 0x28 }
  - { offset: 0x29B16, size: 0x8, addend: 0x0, symName: __RNvXsn_NtNtCsfvfooZQ3Axs_4core5panic11unwind_safeINtB5_16AssertUnwindSafeNCINvNtNtCs9i5KxIbZ5ph_10proc_macro6bridge6client10run_clientNtB1e_11TokenStreamINtNtB9_6option6OptionB28_ENCNCINvMs7_B1e_INtB1e_6ClientNtB1i_11TokenStreamB3l_E7expand1NvCsLP87wc3c6O_10pdf_derive11objectwriteE00E0EINtNtNtB9_3ops8function6FnOnceuE9call_onceB3T_, symObjAddr: 0x54C4, symBinAddr: 0x17F30, symSize: 0x38 }
  - { offset: 0x29B6E, size: 0x8, addend: 0x0, symName: __RNvXsn_NtNtCsfvfooZQ3Axs_4core5panic11unwind_safeINtB5_16AssertUnwindSafeNCINvNtNtCs9i5KxIbZ5ph_10proc_macro6bridge6client10run_clientNtB1e_11TokenStreamINtNtB9_6option6OptionB28_ENCNCINvMs7_B1e_INtB1e_6ClientNtB1i_11TokenStreamB3l_E7expand1NvCsLP87wc3c6O_10pdf_derive6objectE00E0EINtNtNtB9_3ops8function6FnOnceuE9call_onceB3T_, symObjAddr: 0x54FC, symBinAddr: 0x17F68, symSize: 0x38 }
  - { offset: 0x2A34B, size: 0x8, addend: 0x0, symName: __RNCNvXs1_NtNtNtCscOYdFFY2T5N_3std2io5error14repr_bitpackedNtB7_4ReprNtNtNtCsfvfooZQ3Axs_4core3ops4drop4Drop4drop0CsLP87wc3c6O_10pdf_derive, symObjAddr: 0x262C, symBinAddr: 0x15098, symSize: 0x34 }
  - { offset: 0x2A400, size: 0x8, addend: 0x0, symName: __RNvXs1_NtNtNtCscOYdFFY2T5N_3std2io5error14repr_bitpackedNtB5_4ReprNtNtNtCsfvfooZQ3Axs_4core3ops4drop4Drop4dropCsLP87wc3c6O_10pdf_derive, symObjAddr: 0x4BE4, symBinAddr: 0x17650, symSize: 0x38 }
  - { offset: 0x2A429, size: 0x8, addend: 0x0, symName: __RINvNtNtNtCscOYdFFY2T5N_3std2io5error14repr_bitpacked11decode_reprINtNtCse1nGBsou5OW_5alloc5boxed3BoxNtB4_6CustomENCNvXs1_B2_NtB2_4ReprNtNtNtCsfvfooZQ3Axs_4core3ops4drop4Drop4drop0ECsLP87wc3c6O_10pdf_derive, symObjAddr: 0x1F30, symBinAddr: 0x1499C, symSize: 0x230 }
  - { offset: 0x2A6CE, size: 0x8, addend: 0x0, symName: __RNvNtNtNtCscOYdFFY2T5N_3std2io5error14repr_bitpacked14kind_from_primCsLP87wc3c6O_10pdf_derive, symObjAddr: 0x366C, symBinAddr: 0x160D8, symSize: 0x608 }
  - { offset: 0x2B09E, size: 0x8, addend: 0x0, symName: __RNCNvMs3_NtNtCscOYdFFY2T5N_3std6thread5localINtB7_8LocalKeyINtNtCsfvfooZQ3Axs_4core4cell4CellPuEE7replace0CsLP87wc3c6O_10pdf_derive, symObjAddr: 0x2604, symBinAddr: 0x15070, symSize: 0x28 }
  - { offset: 0x2B16E, size: 0x8, addend: 0x0, symName: __RINvNvNtCscOYdFFY2T5N_3std9panicking3try7do_callINtNtNtCsfvfooZQ3Axs_4core5panic11unwind_safe16AssertUnwindSafeNCINvNtNtCs9i5KxIbZ5ph_10proc_macro6bridge6client10run_clientNtB1Q_11TokenStreamINtNtBR_6option6OptionB2K_ENCNCINvMs7_B1Q_INtB1Q_6ClientNtB1U_11TokenStreamB3X_E7expand1NvCsLP87wc3c6O_10pdf_derive11objectwriteE00E0EuEB4v_, symObjAddr: 0x2160, symBinAddr: 0x14BCC, symSize: 0x50 }
  - { offset: 0x2B236, size: 0x8, addend: 0x0, symName: __RINvNvNtCscOYdFFY2T5N_3std9panicking3try7do_callINtNtNtCsfvfooZQ3Axs_4core5panic11unwind_safe16AssertUnwindSafeNCINvNtNtCs9i5KxIbZ5ph_10proc_macro6bridge6client10run_clientNtB1Q_11TokenStreamINtNtBR_6option6OptionB2K_ENCNCINvMs7_B1Q_INtB1Q_6ClientNtB1U_11TokenStreamB3X_E7expand1NvCsLP87wc3c6O_10pdf_derive6objectE00E0EuEB4v_, symObjAddr: 0x21B0, symBinAddr: 0x14C1C, symSize: 0x50 }
  - { offset: 0x2B2FE, size: 0x8, addend: 0x0, symName: __RINvNvNtCscOYdFFY2T5N_3std9panicking3try8do_catchINtNtNtCsfvfooZQ3Axs_4core5panic11unwind_safe16AssertUnwindSafeNCINvNtNtCs9i5KxIbZ5ph_10proc_macro6bridge6client10run_clientNtB1R_11TokenStreamINtNtBS_6option6OptionB2L_ENCNCINvMs7_B1R_INtB1R_6ClientNtB1V_11TokenStreamB3Y_E7expand1NvCsLP87wc3c6O_10pdf_derive11objectwriteE00E0EuEB4w_, symObjAddr: 0x2200, symBinAddr: 0x14C6C, symSize: 0x70 }
  - { offset: 0x2B393, size: 0x8, addend: 0x0, symName: __RINvNvNtCscOYdFFY2T5N_3std9panicking3try8do_catchINtNtNtCsfvfooZQ3Axs_4core5panic11unwind_safe16AssertUnwindSafeNCINvNtNtCs9i5KxIbZ5ph_10proc_macro6bridge6client10run_clientNtB1R_11TokenStreamINtNtBS_6option6OptionB2L_ENCNCINvMs7_B1R_INtB1R_6ClientNtB1V_11TokenStreamB3Y_E7expand1NvCsLP87wc3c6O_10pdf_derive6objectE00E0EuEB4w_, symObjAddr: 0x2270, symBinAddr: 0x14CDC, symSize: 0x70 }
  - { offset: 0x2B4B7, size: 0x8, addend: 0x0, symName: __RINvMNtCse1nGBsou5OW_5alloc5sliceSNtNtB5_6string6String4joinReECsLP87wc3c6O_10pdf_derive, symObjAddr: 0x0, symBinAddr: 0x12AE4, symSize: 0x34 }
  - { offset: 0x2B69A, size: 0x8, addend: 0x0, symName: __RNvNtCse1nGBsou5OW_5alloc5alloc12alloc_zeroedCsLP87wc3c6O_10pdf_derive, symObjAddr: 0x34C0, symBinAddr: 0x15F2C, symSize: 0x84 }
  - { offset: 0x2B75E, size: 0x8, addend: 0x0, symName: __RNvXs_NtCse1nGBsou5OW_5alloc5allocNtB4_6GlobalNtNtCsfvfooZQ3Axs_4core5alloc9Allocator10deallocateCsLP87wc3c6O_10pdf_derive, symObjAddr: 0x4E0C, symBinAddr: 0x17878, symSize: 0x88 }
  - { offset: 0x2B83A, size: 0x8, addend: 0x0, symName: __RNvNtCse1nGBsou5OW_5alloc5alloc15exchange_mallocCsLP87wc3c6O_10pdf_derive, symObjAddr: 0x3544, symBinAddr: 0x15FB0, symSize: 0xA4 }
  - { offset: 0x2B8D1, size: 0x8, addend: 0x0, symName: __RNvNtCse1nGBsou5OW_5alloc5alloc5allocCsLP87wc3c6O_10pdf_derive, symObjAddr: 0x35E8, symBinAddr: 0x16054, symSize: 0x84 }
  - { offset: 0x2C7B5, size: 0x8, addend: 0x0, symName: __RINvXsd_NtCse1nGBsou5OW_5alloc3vecINtB6_3VecNtCs3cP53eQoTwO_11proc_macro211TokenStreamEINtNtNtNtCsfvfooZQ3Axs_4core4iter6traits7collect12FromIteratorBG_E9from_iterINtNtNtB1u_8adapters3map3MapINtNtCs5AlOhPCr03V_3syn10punctuated4IterNtNtB38_4data7VariantENCNvCsLP87wc3c6O_10pdf_derive21impl_enum_from_stream0EEB47_, symObjAddr: 0x2398, symBinAddr: 0x14E04, symSize: 0x3C }
  - { offset: 0x2C7F6, size: 0x8, addend: 0x0, symName: __RINvXsd_NtCse1nGBsou5OW_5alloc3vecINtB6_3VecNtCs3cP53eQoTwO_11proc_macro211TokenStreamEINtNtNtNtCsfvfooZQ3Axs_4core4iter6traits7collect12FromIteratorBG_E9from_iterINtNtNtB1u_8adapters3map3MapINtNtNtB1w_5slice4iter4IterTNtNtB8_6string6StringB3v_EENCNvCsLP87wc3c6O_10pdf_derive22impl_object_for_structs0_0EEB40_, symObjAddr: 0x23D4, symBinAddr: 0x14E40, symSize: 0x3C }
  - { offset: 0x2C837, size: 0x8, addend: 0x0, symName: __RINvXsd_NtCse1nGBsou5OW_5alloc3vecINtB6_3VecNtCs3cP53eQoTwO_11proc_macro211TokenStreamEINtNtNtNtCsfvfooZQ3Axs_4core4iter6traits7collect12FromIteratorBG_E9from_iterINtNtNtB1u_8adapters3map3MapINtNtNtB1w_5slice4iter4IterTNtNtB8_6string6StringBG_EENCNvCsLP87wc3c6O_10pdf_derive20impl_object_for_enum0EEB3Z_, symObjAddr: 0x2410, symBinAddr: 0x14E7C, symSize: 0x40 }
  - { offset: 0x2C877, size: 0x8, addend: 0x0, symName: __RINvXsd_NtCse1nGBsou5OW_5alloc3vecINtB6_3VecNtCs3cP53eQoTwO_11proc_macro211TokenStreamEINtNtNtNtCsfvfooZQ3Axs_4core4iter6traits7collect12FromIteratorBG_E9from_iterINtNtNtB1u_8adapters3map3MapINtNtNtB1w_5slice4iter4IterTNtNtB8_6string6StringBG_EENCNvCsLP87wc3c6O_10pdf_derive25impl_objectwrite_for_enum0EEB3Z_, symObjAddr: 0x2450, symBinAddr: 0x14EBC, symSize: 0x40 }
  - { offset: 0x2C8B7, size: 0x8, addend: 0x0, symName: __RINvXsd_NtCse1nGBsou5OW_5alloc3vecINtB6_3VecNtNtB8_6string6StringEINtNtNtNtCsfvfooZQ3Axs_4core4iter6traits7collect12FromIteratorBG_E9from_iterINtNtNtB19_8adapters3map3MapINtNtCs5AlOhPCr03V_3syn10punctuated4IterNtNtB2N_4path11PathSegmentENCNvMCsLP87wc3c6O_10pdf_deriveNtB3S_10FieldAttrs5parses_0EEB3S_, symObjAddr: 0x2490, symBinAddr: 0x14EFC, symSize: 0x40 }
  - { offset: 0x2C8F7, size: 0x8, addend: 0x0, symName: __RINvXsd_NtCse1nGBsou5OW_5alloc3vecINtB6_3VecNtNtB8_6string6StringEINtNtNtNtCsfvfooZQ3Axs_4core4iter6traits7collect12FromIteratorBG_E9from_iterINtNtNtB19_8adapters3map3MapINtNtCs5AlOhPCr03V_3syn10punctuated4IterNtNtB2N_4path11PathSegmentENCNvMs_CsLP87wc3c6O_10pdf_deriveNtB3U_11GlobalAttrs8from_asts_0EEB3U_, symObjAddr: 0x24D0, symBinAddr: 0x14F3C, symSize: 0x40 }
  - { offset: 0x2C937, size: 0x8, addend: 0x0, symName: __RINvXsd_NtCse1nGBsou5OW_5alloc3vecINtB6_3VecTINtNtCsfvfooZQ3Axs_4core6option6OptionNtCs3cP53eQoTwO_11proc_macro25IdentENtCsLP87wc3c6O_10pdf_derive10FieldAttrsIBI_NtNtCs5AlOhPCr03V_3syn2ty4TypeEEEINtNtNtNtBM_4iter6traits7collect12FromIteratorBG_E9from_iterINtNtNtB3e_8adapters3map3MapINtNtB2E_10punctuated4IterNtNtB2E_4data5FieldENCNvB1V_27impl_objectwrite_for_struct0EEB1V_, symObjAddr: 0x2510, symBinAddr: 0x14F7C, symSize: 0x40 }
  - { offset: 0x2C982, size: 0x8, addend: 0x0, symName: __RNCINvMsi_NtCse1nGBsou5OW_5alloc3vecINtB8_3VecNtCs3cP53eQoTwO_11proc_macro211TokenStreamE14extend_trustedINtNtNtNtCsfvfooZQ3Axs_4core4iter8adapters3map3MapINtNtNtB1O_5slice4iter4IterTNtNtBa_6string6StringB2V_EENCNvCsLP87wc3c6O_10pdf_derive22impl_object_for_structs0_0EE0B3q_, symObjAddr: 0x2550, symBinAddr: 0x14FBC, symSize: 0x3C }
  - { offset: 0x2CA37, size: 0x8, addend: 0x0, symName: __RNCINvMsi_NtCse1nGBsou5OW_5alloc3vecINtB8_3VecNtCs3cP53eQoTwO_11proc_macro211TokenStreamE14extend_trustedINtNtNtNtCsfvfooZQ3Axs_4core4iter8adapters3map3MapINtNtNtB1O_5slice4iter4IterTNtNtBa_6string6StringBI_EENCNvCsLP87wc3c6O_10pdf_derive20impl_object_for_enum0EE0B3p_, symObjAddr: 0x258C, symBinAddr: 0x14FF8, symSize: 0x3C }
  - { offset: 0x2CAEC, size: 0x8, addend: 0x0, symName: __RNCINvMsi_NtCse1nGBsou5OW_5alloc3vecINtB8_3VecNtCs3cP53eQoTwO_11proc_macro211TokenStreamE14extend_trustedINtNtNtNtCsfvfooZQ3Axs_4core4iter8adapters3map3MapINtNtNtB1O_5slice4iter4IterTNtNtBa_6string6StringBI_EENCNvCsLP87wc3c6O_10pdf_derive25impl_objectwrite_for_enum0EE0B3p_, symObjAddr: 0x25C8, symBinAddr: 0x15034, symSize: 0x3C }
  - { offset: 0x2CE5C, size: 0x8, addend: 0x0, symName: __RNvXNtNtCse1nGBsou5OW_5alloc3vec11spec_extendINtB4_3VecNtCs3cP53eQoTwO_11proc_macro211TokenStreamEINtB2_10SpecExtendBR_INtNtNtNtCsfvfooZQ3Axs_4core4iter8adapters3map3MapINtNtCs5AlOhPCr03V_3syn10punctuated4IterNtNtB2M_4data7VariantENCNvCsLP87wc3c6O_10pdf_derive21impl_enum_from_stream0EE11spec_extendB3L_, symObjAddr: 0x3E68, symBinAddr: 0x168D4, symSize: 0x24 }
  - { offset: 0x2CEAE, size: 0x8, addend: 0x0, symName: __RNvXNtNtCse1nGBsou5OW_5alloc3vec11spec_extendINtB4_3VecNtNtB6_6string6StringEINtB2_10SpecExtendBR_INtNtNtNtCsfvfooZQ3Axs_4core4iter8adapters3map3MapINtNtCs5AlOhPCr03V_3syn10punctuated4IterNtNtB2r_4path11PathSegmentENCNvMCsLP87wc3c6O_10pdf_deriveNtB3w_10FieldAttrs5parses_0EE11spec_extendB3w_, symObjAddr: 0x3E8C, symBinAddr: 0x168F8, symSize: 0x34 }
  - { offset: 0x2CEFF, size: 0x8, addend: 0x0, symName: __RNvXNtNtCse1nGBsou5OW_5alloc3vec11spec_extendINtB4_3VecNtNtB6_6string6StringEINtB2_10SpecExtendBR_INtNtNtNtCsfvfooZQ3Axs_4core4iter8adapters3map3MapINtNtCs5AlOhPCr03V_3syn10punctuated4IterNtNtB2r_4path11PathSegmentENCNvMs_CsLP87wc3c6O_10pdf_deriveNtB3y_11GlobalAttrs8from_asts_0EE11spec_extendB3y_, symObjAddr: 0x3EC0, symBinAddr: 0x1692C, symSize: 0x34 }
  - { offset: 0x2CF50, size: 0x8, addend: 0x0, symName: __RNvXNtNtCse1nGBsou5OW_5alloc3vec11spec_extendINtB4_3VecTINtNtCsfvfooZQ3Axs_4core6option6OptionNtCs3cP53eQoTwO_11proc_macro25IdentENtCsLP87wc3c6O_10pdf_derive10FieldAttrsIBT_NtNtCs5AlOhPCr03V_3syn2ty4TypeEEEINtB2_10SpecExtendBR_INtNtNtNtBX_4iter8adapters3map3MapINtNtB2P_10punctuated4IterNtNtB2P_4data5FieldENCNvB26_27impl_objectwrite_for_struct0EE11spec_extendB26_, symObjAddr: 0x3EF4, symBinAddr: 0x16960, symSize: 0x34 }
  - { offset: 0x2CFA7, size: 0x8, addend: 0x0, symName: __RNvXs_NtNtCse1nGBsou5OW_5alloc3vec11spec_extendINtB6_3VecNtCs3cP53eQoTwO_11proc_macro211TokenStreamEINtB4_10SpecExtendBT_INtNtNtNtCsfvfooZQ3Axs_4core4iter8adapters3map3MapINtNtNtB24_5slice4iter4IterTNtNtB8_6string6StringB3b_EENCNvCsLP87wc3c6O_10pdf_derive22impl_object_for_structs0_0EE11spec_extendB3G_, symObjAddr: 0x4E94, symBinAddr: 0x17900, symSize: 0x24 }
  - { offset: 0x2CFF9, size: 0x8, addend: 0x0, symName: __RNvXs_NtNtCse1nGBsou5OW_5alloc3vec11spec_extendINtB6_3VecNtCs3cP53eQoTwO_11proc_macro211TokenStreamEINtB4_10SpecExtendBT_INtNtNtNtCsfvfooZQ3Axs_4core4iter8adapters3map3MapINtNtNtB24_5slice4iter4IterTNtNtB8_6string6StringBT_EENCNvCsLP87wc3c6O_10pdf_derive20impl_object_for_enum0EE11spec_extendB3F_, symObjAddr: 0x4EB8, symBinAddr: 0x17924, symSize: 0x34 }
  - { offset: 0x2D04A, size: 0x8, addend: 0x0, symName: __RNvXs_NtNtCse1nGBsou5OW_5alloc3vec11spec_extendINtB6_3VecNtCs3cP53eQoTwO_11proc_macro211TokenStreamEINtB4_10SpecExtendBT_INtNtNtNtCsfvfooZQ3Axs_4core4iter8adapters3map3MapINtNtNtB24_5slice4iter4IterTNtNtB8_6string6StringBT_EENCNvCsLP87wc3c6O_10pdf_derive25impl_objectwrite_for_enum0EE11spec_extendB3F_, symObjAddr: 0x4EEC, symBinAddr: 0x17958, symSize: 0x34 }
  - { offset: 0x2D0A7, size: 0x8, addend: 0x0, symName: __RNvXNtNtCse1nGBsou5OW_5alloc3vec14spec_from_iterINtB4_3VecNtCs3cP53eQoTwO_11proc_macro211TokenStreamEINtB2_12SpecFromIterBU_INtNtNtNtCsfvfooZQ3Axs_4core4iter8adapters3map3MapINtNtCs5AlOhPCr03V_3syn10punctuated4IterNtNtB2R_4data7VariantENCNvCsLP87wc3c6O_10pdf_derive21impl_enum_from_stream0EE9from_iterB3Q_, symObjAddr: 0x3F28, symBinAddr: 0x16994, symSize: 0x14 }
  - { offset: 0x2D0E6, size: 0x8, addend: 0x0, symName: __RNvXNtNtCse1nGBsou5OW_5alloc3vec14spec_from_iterINtB4_3VecNtCs3cP53eQoTwO_11proc_macro211TokenStreamEINtB2_12SpecFromIterBU_INtNtNtNtCsfvfooZQ3Axs_4core4iter8adapters3map3MapINtNtNtB27_5slice4iter4IterTNtNtB6_6string6StringB3e_EENCNvCsLP87wc3c6O_10pdf_derive22impl_object_for_structs0_0EE9from_iterB3J_, symObjAddr: 0x3F3C, symBinAddr: 0x169A8, symSize: 0x14 }
  - { offset: 0x2D125, size: 0x8, addend: 0x0, symName: __RNvXNtNtCse1nGBsou5OW_5alloc3vec14spec_from_iterINtB4_3VecNtCs3cP53eQoTwO_11proc_macro211TokenStreamEINtB2_12SpecFromIterBU_INtNtNtNtCsfvfooZQ3Axs_4core4iter8adapters3map3MapINtNtNtB27_5slice4iter4IterTNtNtB6_6string6StringBU_EENCNvCsLP87wc3c6O_10pdf_derive20impl_object_for_enum0EE9from_iterB3I_, symObjAddr: 0x3F50, symBinAddr: 0x169BC, symSize: 0x2C }
  - { offset: 0x2D163, size: 0x8, addend: 0x0, symName: __RNvXNtNtCse1nGBsou5OW_5alloc3vec14spec_from_iterINtB4_3VecNtCs3cP53eQoTwO_11proc_macro211TokenStreamEINtB2_12SpecFromIterBU_INtNtNtNtCsfvfooZQ3Axs_4core4iter8adapters3map3MapINtNtNtB27_5slice4iter4IterTNtNtB6_6string6StringBU_EENCNvCsLP87wc3c6O_10pdf_derive25impl_objectwrite_for_enum0EE9from_iterB3I_, symObjAddr: 0x3F7C, symBinAddr: 0x169E8, symSize: 0x2C }
  - { offset: 0x2D1A1, size: 0x8, addend: 0x0, symName: __RNvXNtNtCse1nGBsou5OW_5alloc3vec14spec_from_iterINtB4_3VecNtNtB6_6string6StringEINtB2_12SpecFromIterBU_INtNtNtNtCsfvfooZQ3Axs_4core4iter8adapters3map3MapINtNtCs5AlOhPCr03V_3syn10punctuated4IterNtNtB2w_4path11PathSegmentENCNvMCsLP87wc3c6O_10pdf_deriveNtB3B_10FieldAttrs5parses_0EE9from_iterB3B_, symObjAddr: 0x3FA8, symBinAddr: 0x16A14, symSize: 0x2C }
  - { offset: 0x2D1DF, size: 0x8, addend: 0x0, symName: __RNvXNtNtCse1nGBsou5OW_5alloc3vec14spec_from_iterINtB4_3VecNtNtB6_6string6StringEINtB2_12SpecFromIterBU_INtNtNtNtCsfvfooZQ3Axs_4core4iter8adapters3map3MapINtNtCs5AlOhPCr03V_3syn10punctuated4IterNtNtB2w_4path11PathSegmentENCNvMs_CsLP87wc3c6O_10pdf_deriveNtB3D_11GlobalAttrs8from_asts_0EE9from_iterB3D_, symObjAddr: 0x3FD4, symBinAddr: 0x16A40, symSize: 0x2C }
  - { offset: 0x2D21D, size: 0x8, addend: 0x0, symName: __RNvXNtNtCse1nGBsou5OW_5alloc3vec14spec_from_iterINtB4_3VecTINtNtCsfvfooZQ3Axs_4core6option6OptionNtCs3cP53eQoTwO_11proc_macro25IdentENtCsLP87wc3c6O_10pdf_derive10FieldAttrsIBW_NtNtCs5AlOhPCr03V_3syn2ty4TypeEEEINtB2_12SpecFromIterBU_INtNtNtNtB10_4iter8adapters3map3MapINtNtB2S_10punctuated4IterNtNtB2S_4data5FieldENCNvB29_27impl_objectwrite_for_struct0EE9from_iterB29_, symObjAddr: 0x4000, symBinAddr: 0x16A6C, symSize: 0x2C }
  - { offset: 0x2D267, size: 0x8, addend: 0x0, symName: __RNvXNtNtCse1nGBsou5OW_5alloc3vec21spec_from_iter_nestedINtB4_3VecNtCs3cP53eQoTwO_11proc_macro211TokenStreamEINtB2_18SpecFromIterNestedB11_INtNtNtNtCsfvfooZQ3Axs_4core4iter8adapters3map3MapINtNtCs5AlOhPCr03V_3syn10punctuated4IterNtNtB35_4data7VariantENCNvCsLP87wc3c6O_10pdf_derive21impl_enum_from_stream0EE9from_iterB44_, symObjAddr: 0x402C, symBinAddr: 0x16A98, symSize: 0x228 }
  - { offset: 0x2D485, size: 0x8, addend: 0x0, symName: __RNvXNtNtCse1nGBsou5OW_5alloc3vec21spec_from_iter_nestedINtB4_3VecNtNtB6_6string6StringEINtB2_18SpecFromIterNestedB11_INtNtNtNtCsfvfooZQ3Axs_4core4iter8adapters3map3MapINtNtCs5AlOhPCr03V_3syn10punctuated4IterNtNtB2K_4path11PathSegmentENCNvMCsLP87wc3c6O_10pdf_deriveNtB3P_10FieldAttrs5parses_0EE9from_iterB3P_, symObjAddr: 0x4254, symBinAddr: 0x16CC0, symSize: 0x224 }
  - { offset: 0x2D6A3, size: 0x8, addend: 0x0, symName: __RNvXNtNtCse1nGBsou5OW_5alloc3vec21spec_from_iter_nestedINtB4_3VecNtNtB6_6string6StringEINtB2_18SpecFromIterNestedB11_INtNtNtNtCsfvfooZQ3Axs_4core4iter8adapters3map3MapINtNtCs5AlOhPCr03V_3syn10punctuated4IterNtNtB2K_4path11PathSegmentENCNvMs_CsLP87wc3c6O_10pdf_deriveNtB3R_11GlobalAttrs8from_asts_0EE9from_iterB3R_, symObjAddr: 0x4478, symBinAddr: 0x16EE4, symSize: 0x224 }
  - { offset: 0x2D8C1, size: 0x8, addend: 0x0, symName: __RNvXNtNtCse1nGBsou5OW_5alloc3vec21spec_from_iter_nestedINtB4_3VecTINtNtCsfvfooZQ3Axs_4core6option6OptionNtCs3cP53eQoTwO_11proc_macro25IdentENtCsLP87wc3c6O_10pdf_derive10FieldAttrsIB13_NtNtCs5AlOhPCr03V_3syn2ty4TypeEEEINtB2_18SpecFromIterNestedB11_INtNtNtNtB17_4iter8adapters3map3MapINtNtB30_10punctuated4IterNtNtB30_4data5FieldENCNvB2g_27impl_objectwrite_for_struct0EE9from_iterB2g_, symObjAddr: 0x469C, symBinAddr: 0x17108, symSize: 0x244 }
  - { offset: 0x2DAE6, size: 0x8, addend: 0x0, symName: __RNvXs_NtNtCse1nGBsou5OW_5alloc3vec21spec_from_iter_nestedINtB6_3VecNtCs3cP53eQoTwO_11proc_macro211TokenStreamEINtB4_18SpecFromIterNestedB13_INtNtNtNtCsfvfooZQ3Axs_4core4iter8adapters3map3MapINtNtNtB2n_5slice4iter4IterTNtNtB8_6string6StringB13_EENCNvCsLP87wc3c6O_10pdf_derive20impl_object_for_enum0EE9from_iterB3Z_, symObjAddr: 0x4F20, symBinAddr: 0x1798C, symSize: 0x168 }
  - { offset: 0x2DBBC, size: 0x8, addend: 0x0, symName: __RNvXs_NtNtCse1nGBsou5OW_5alloc3vec21spec_from_iter_nestedINtB6_3VecNtCs3cP53eQoTwO_11proc_macro211TokenStreamEINtB4_18SpecFromIterNestedB13_INtNtNtNtCsfvfooZQ3Axs_4core4iter8adapters3map3MapINtNtNtB2n_5slice4iter4IterTNtNtB8_6string6StringB13_EENCNvCsLP87wc3c6O_10pdf_derive25impl_objectwrite_for_enum0EE9from_iterB3Z_, symObjAddr: 0x5088, symBinAddr: 0x17AF4, symSize: 0x168 }
  - { offset: 0x2DC92, size: 0x8, addend: 0x0, symName: __RNvXs_NtNtCse1nGBsou5OW_5alloc3vec21spec_from_iter_nestedINtB6_3VecNtCs3cP53eQoTwO_11proc_macro211TokenStreamEINtB4_18SpecFromIterNestedB13_INtNtNtNtCsfvfooZQ3Axs_4core4iter8adapters3map3MapINtNtNtB2n_5slice4iter4IterTNtNtB8_6string6StringB3u_EENCNvCsLP87wc3c6O_10pdf_derive22impl_object_for_structs0_0EE9from_iterB3Z_, symObjAddr: 0x51F0, symBinAddr: 0x17C5C, symSize: 0x16C }
  - { offset: 0x2DD70, size: 0x8, addend: 0x0, symName: __RNvXs6_NtCse1nGBsou5OW_5alloc3vecINtB5_3VecNtCs3cP53eQoTwO_11proc_macro211TokenStreamENtNtNtCsfvfooZQ3Axs_4core3ops5deref5Deref5derefCsLP87wc3c6O_10pdf_derive, symObjAddr: 0x4C54, symBinAddr: 0x176C0, symSize: 0x24 }
  - { offset: 0x2DDB0, size: 0x8, addend: 0x0, symName: __RNvXs6_NtCse1nGBsou5OW_5alloc3vecINtB5_3VecNtNtB7_6string6StringENtNtNtCsfvfooZQ3Axs_4core3ops5deref5Deref5derefCsLP87wc3c6O_10pdf_derive, symObjAddr: 0x4C78, symBinAddr: 0x176E4, symSize: 0x24 }
  - { offset: 0x2DDF0, size: 0x8, addend: 0x0, symName: __RNvXs6_NtCse1nGBsou5OW_5alloc3vecINtB5_3VecTINtNtCsfvfooZQ3Axs_4core6option6OptionNtCs3cP53eQoTwO_11proc_macro25IdentENtCsLP87wc3c6O_10pdf_derive10FieldAttrsIBH_NtNtCs5AlOhPCr03V_3syn2ty4TypeEEENtNtNtBL_3ops5deref5Deref5derefB1U_, symObjAddr: 0x4C9C, symBinAddr: 0x17708, symSize: 0x24 }
  - { offset: 0x2DE30, size: 0x8, addend: 0x0, symName: __RNvXs6_NtCse1nGBsou5OW_5alloc3vecINtB5_3VecTNtNtB7_6string6StringBG_EENtNtNtCsfvfooZQ3Axs_4core3ops5deref5Deref5derefCsLP87wc3c6O_10pdf_derive, symObjAddr: 0x4CC0, symBinAddr: 0x1772C, symSize: 0x24 }
  - { offset: 0x2DE70, size: 0x8, addend: 0x0, symName: __RNvXs6_NtCse1nGBsou5OW_5alloc3vecINtB5_3VecTNtNtB7_6string6StringNtCs3cP53eQoTwO_11proc_macro211TokenStreamEENtNtNtCsfvfooZQ3Axs_4core3ops5deref5Deref5derefCsLP87wc3c6O_10pdf_derive, symObjAddr: 0x4CE4, symBinAddr: 0x17750, symSize: 0x24 }
  - { offset: 0x2DEB6, size: 0x8, addend: 0x0, symName: __RNvXsn_NtCse1nGBsou5OW_5alloc3vecINtB5_3VecNtCs3cP53eQoTwO_11proc_macro211TokenStreamENtNtNtCsfvfooZQ3Axs_4core3ops4drop4Drop4dropCsLP87wc3c6O_10pdf_derive, symObjAddr: 0x53AC, symBinAddr: 0x17E18, symSize: 0x38 }
  - { offset: 0x2DF66, size: 0x8, addend: 0x0, symName: __RNvXsn_NtCse1nGBsou5OW_5alloc3vecINtB5_3VecNtNtB7_6string6StringENtNtNtCsfvfooZQ3Axs_4core3ops4drop4Drop4dropCsLP87wc3c6O_10pdf_derive, symObjAddr: 0x53E4, symBinAddr: 0x17E50, symSize: 0x38 }
  - { offset: 0x2E016, size: 0x8, addend: 0x0, symName: __RNvXsn_NtCse1nGBsou5OW_5alloc3vecINtB5_3VecTINtNtCsfvfooZQ3Axs_4core6option6OptionNtCs3cP53eQoTwO_11proc_macro25IdentENtCsLP87wc3c6O_10pdf_derive10FieldAttrsIBH_NtNtCs5AlOhPCr03V_3syn2ty4TypeEEENtNtNtBL_3ops4drop4Drop4dropB1U_, symObjAddr: 0x541C, symBinAddr: 0x17E88, symSize: 0x38 }
  - { offset: 0x2E0C6, size: 0x8, addend: 0x0, symName: __RNvXsn_NtCse1nGBsou5OW_5alloc3vecINtB5_3VecTNtNtB7_6string6StringBG_EENtNtNtCsfvfooZQ3Axs_4core3ops4drop4Drop4dropCsLP87wc3c6O_10pdf_derive, symObjAddr: 0x5454, symBinAddr: 0x17EC0, symSize: 0x38 }
  - { offset: 0x2E176, size: 0x8, addend: 0x0, symName: __RNvXsn_NtCse1nGBsou5OW_5alloc3vecINtB5_3VecTNtNtB7_6string6StringNtCs3cP53eQoTwO_11proc_macro211TokenStreamEENtNtNtCsfvfooZQ3Axs_4core3ops4drop4Drop4dropCsLP87wc3c6O_10pdf_derive, symObjAddr: 0x548C, symBinAddr: 0x17EF8, symSize: 0x38 }
  - { offset: 0x2E22C, size: 0x8, addend: 0x0, symName: __RNvXso_NtCse1nGBsou5OW_5alloc3vecINtB5_3VecTNtNtB7_6string6StringBG_EENtNtCsfvfooZQ3Axs_4core7default7Default7defaultCsLP87wc3c6O_10pdf_derive, symObjAddr: 0x5534, symBinAddr: 0x17FA0, symSize: 0x14 }
  - { offset: 0x2E24E, size: 0x8, addend: 0x0, symName: __RNvXso_NtCse1nGBsou5OW_5alloc3vecINtB5_3VecTNtNtB7_6string6StringBG_EENtNtCsfvfooZQ3Axs_4core7default7Default7defaultCsLP87wc3c6O_10pdf_derive, symObjAddr: 0x5534, symBinAddr: 0x17FA0, symSize: 0x14 }
  - { offset: 0x2EFED, size: 0x8, addend: 0x0, symName: __RNvXs1_NtCse1nGBsou5OW_5alloc7raw_vecINtB5_6RawVecNtCs3cP53eQoTwO_11proc_macro211TokenStreamENtNtNtCsfvfooZQ3Axs_4core3ops4drop4Drop4dropCsLP87wc3c6O_10pdf_derive, symObjAddr: 0x4AE0, symBinAddr: 0x1754C, symSize: 0x34 }
  - { offset: 0x2F029, size: 0x8, addend: 0x0, symName: __RNvXs1_NtCse1nGBsou5OW_5alloc7raw_vecINtB5_6RawVecNtNtB7_6string6StringENtNtNtCsfvfooZQ3Axs_4core3ops4drop4Drop4dropCsLP87wc3c6O_10pdf_derive, symObjAddr: 0x4B14, symBinAddr: 0x17580, symSize: 0x34 }
  - { offset: 0x2F065, size: 0x8, addend: 0x0, symName: __RNvXs1_NtCse1nGBsou5OW_5alloc7raw_vecINtB5_6RawVecTINtNtCsfvfooZQ3Axs_4core6option6OptionNtCs3cP53eQoTwO_11proc_macro25IdentENtCsLP87wc3c6O_10pdf_derive10FieldAttrsIBO_NtNtCs5AlOhPCr03V_3syn2ty4TypeEEENtNtNtBS_3ops4drop4Drop4dropB21_, symObjAddr: 0x4B48, symBinAddr: 0x175B4, symSize: 0x34 }
  - { offset: 0x2F0A1, size: 0x8, addend: 0x0, symName: __RNvXs1_NtCse1nGBsou5OW_5alloc7raw_vecINtB5_6RawVecTNtNtB7_6string6StringBN_EENtNtNtCsfvfooZQ3Axs_4core3ops4drop4Drop4dropCsLP87wc3c6O_10pdf_derive, symObjAddr: 0x4B7C, symBinAddr: 0x175E8, symSize: 0x34 }
  - { offset: 0x2F0DD, size: 0x8, addend: 0x0, symName: __RNvXs1_NtCse1nGBsou5OW_5alloc7raw_vecINtB5_6RawVecTNtNtB7_6string6StringNtCs3cP53eQoTwO_11proc_macro211TokenStreamEENtNtNtCsfvfooZQ3Axs_4core3ops4drop4Drop4dropCsLP87wc3c6O_10pdf_derive, symObjAddr: 0x4BB0, symBinAddr: 0x1761C, symSize: 0x34 }
  - { offset: 0x2F1B0, size: 0x8, addend: 0x0, symName: __RNvXss_NtCse1nGBsou5OW_5alloc6stringNtB5_6StringNtNtNtCsfvfooZQ3Axs_4core3ops5deref5Deref5derefCsLP87wc3c6O_10pdf_derive, symObjAddr: 0x5548, symBinAddr: 0x17FB4, symSize: 0x24 }
  - { offset: 0x2F2D5, size: 0x8, addend: 0x0, symName: __RNvXs0_NtCse1nGBsou5OW_5alloc3strNtNtB7_6string6StringINtNtCsfvfooZQ3Axs_4core6borrow6BorroweE6borrowCsLP87wc3c6O_10pdf_derive, symObjAddr: 0x4A88, symBinAddr: 0x174F4, symSize: 0x2C }
  - { offset: 0x2F307, size: 0x8, addend: 0x0, symName: __RNvXs_NtCse1nGBsou5OW_5alloc3strSNtNtB6_6string6StringINtNtB6_5slice4JoinReE4joinCsLP87wc3c6O_10pdf_derive, symObjAddr: 0x4DBC, symBinAddr: 0x17828, symSize: 0x50 }
  - { offset: 0x2F3BD, size: 0x8, addend: 0x0, symName: __RINvMs2_NtNtCscOYdFFY2T5N_3std6thread5localINtB6_8LocalKeyINtNtCsfvfooZQ3Axs_4core4cell4CellPuEE4withNCNvMs3_B6_BF_7replace0B1s_ECsLP87wc3c6O_10pdf_derive, symObjAddr: 0x34, symBinAddr: 0x12B18, symSize: 0x54 }
  - { offset: 0x2F476, size: 0x8, addend: 0x0, symName: __RINvMs2_NtNtCscOYdFFY2T5N_3std6thread5localINtB6_8LocalKeyINtNtCsfvfooZQ3Axs_4core4cell4CellPuEE8try_withNCNvMs3_B6_BF_7replace0B1s_ECsLP87wc3c6O_10pdf_derive, symObjAddr: 0x88, symBinAddr: 0x12B6C, symSize: 0xE4 }
  - { offset: 0x345F8, size: 0x8, addend: 0x0, symName: __RNvXs0_NtCs5AlOhPCr03V_3syn5dropsINtB5_6NoDropDINtNtB7_10punctuated9IterTraitNtNtB7_4attr10NestedMetaEp4ItemRB1d_EL_ENtNtNtCsfvfooZQ3Axs_4core3ops5deref8DerefMut9deref_mutCsLP87wc3c6O_10pdf_derive, symObjAddr: 0x4998, symBinAddr: 0x17404, symSize: 0x3C }
  - { offset: 0x3462D, size: 0x8, addend: 0x0, symName: __RNvXs0_NtCs5AlOhPCr03V_3syn5dropsINtB5_6NoDropDINtNtB7_10punctuated9IterTraitNtNtB7_4data5FieldEp4ItemRB1d_EL_ENtNtNtCsfvfooZQ3Axs_4core3ops5deref8DerefMut9deref_mutCsLP87wc3c6O_10pdf_derive, symObjAddr: 0x49D4, symBinAddr: 0x17440, symSize: 0x3C }
  - { offset: 0x34662, size: 0x8, addend: 0x0, symName: __RNvXs0_NtCs5AlOhPCr03V_3syn5dropsINtB5_6NoDropDINtNtB7_10punctuated9IterTraitNtNtB7_4data7VariantEp4ItemRB1d_EL_ENtNtNtCsfvfooZQ3Axs_4core3ops5deref8DerefMut9deref_mutCsLP87wc3c6O_10pdf_derive, symObjAddr: 0x4A10, symBinAddr: 0x1747C, symSize: 0x3C }
  - { offset: 0x34697, size: 0x8, addend: 0x0, symName: __RNvXs0_NtCs5AlOhPCr03V_3syn5dropsINtB5_6NoDropDINtNtB7_10punctuated9IterTraitNtNtB7_4path15GenericArgumentEp4ItemRB1d_EL_ENtNtNtCsfvfooZQ3Axs_4core3ops5deref8DerefMut9deref_mutCsLP87wc3c6O_10pdf_derive, symObjAddr: 0x4A4C, symBinAddr: 0x174B8, symSize: 0x3C }
  - { offset: 0x346D2, size: 0x8, addend: 0x0, symName: __RNvXs_NtCs5AlOhPCr03V_3syn5dropsINtB4_6NoDropDINtNtB6_10punctuated9IterTraitNtNtB6_4data5FieldEp4ItemRB1c_EL_ENtNtNtCsfvfooZQ3Axs_4core3ops5deref5Deref5derefCsLP87wc3c6O_10pdf_derive, symObjAddr: 0x4D08, symBinAddr: 0x17774, symSize: 0x3C }
  - { offset: 0x34707, size: 0x8, addend: 0x0, symName: __RNvXs_NtCs5AlOhPCr03V_3syn5dropsINtB4_6NoDropDINtNtB6_10punctuated9IterTraitNtNtB6_4data7VariantEp4ItemRB1c_EL_ENtNtNtCsfvfooZQ3Axs_4core3ops5deref5Deref5derefCsLP87wc3c6O_10pdf_derive, symObjAddr: 0x4D44, symBinAddr: 0x177B0, symSize: 0x3C }
  - { offset: 0x3473C, size: 0x8, addend: 0x0, symName: __RNvXs_NtCs5AlOhPCr03V_3syn5dropsINtB4_6NoDropDINtNtB6_10punctuated9IterTraitNtNtB6_4path11PathSegmentEp4ItemRB1c_EL_ENtNtNtCsfvfooZQ3Axs_4core3ops5deref5Deref5derefCsLP87wc3c6O_10pdf_derive, symObjAddr: 0x4D80, symBinAddr: 0x177EC, symSize: 0x3C }
  - { offset: 0x347B9, size: 0x8, addend: 0x0, symName: __RNvXNtCs5AlOhPCr03V_3syn17parse_macro_inputNtNtB4_6derive11DeriveInputNtB2_15ParseMacroInput5parseCsLP87wc3c6O_10pdf_derive, symObjAddr: 0x3E34, symBinAddr: 0x168A0, symSize: 0x34 }
  - { offset: 0x35088, size: 0x8, addend: 0x0, symName: __RINvMs6_NtNtCs5AlOhPCr03V_3syn4path7parsingNtB8_4Path8is_identeECsLP87wc3c6O_10pdf_derive, symObjAddr: 0x16C, symBinAddr: 0x12C50, symSize: 0x94 }
  - { offset: 0x351A5, size: 0x8, addend: 0x0, symName: __RINvMs_NtNtCsfvfooZQ3Axs_4core3fmt2rtNtB5_8Argument11new_displayNtNtCs5AlOhPCr03V_3syn5error5ErrorECsLP87wc3c6O_10pdf_derive, symObjAddr: 0x200, symBinAddr: 0x12CE4, symSize: 0x2C }
  - { offset: 0x35526, size: 0x8, addend: 0x0, symName: __RINvMsi_NtCse1nGBsou5OW_5alloc3vecINtB6_3VecNtCs3cP53eQoTwO_11proc_macro211TokenStreamE14extend_trustedINtNtNtNtCsfvfooZQ3Axs_4core4iter8adapters3map3MapINtNtNtB1M_5slice4iter4IterTNtNtB8_6string6StringB2T_EENCNvCsLP87wc3c6O_10pdf_derive22impl_object_for_structs0_0EEB3o_, symObjAddr: 0x22C, symBinAddr: 0x12D10, symSize: 0x17C }
  - { offset: 0x357FC, size: 0x8, addend: 0x0, symName: __RINvMsi_NtCse1nGBsou5OW_5alloc3vecINtB6_3VecNtCs3cP53eQoTwO_11proc_macro211TokenStreamE14extend_trustedINtNtNtNtCsfvfooZQ3Axs_4core4iter8adapters3map3MapINtNtNtB1M_5slice4iter4IterTNtNtB8_6string6StringBG_EENCNvCsLP87wc3c6O_10pdf_derive20impl_object_for_enum0EEB3n_, symObjAddr: 0x3A8, symBinAddr: 0x12E8C, symSize: 0x170 }
  - { offset: 0x35A99, size: 0x8, addend: 0x0, symName: __RINvMsi_NtCse1nGBsou5OW_5alloc3vecINtB6_3VecNtCs3cP53eQoTwO_11proc_macro211TokenStreamE14extend_trustedINtNtNtNtCsfvfooZQ3Axs_4core4iter8adapters3map3MapINtNtNtB1M_5slice4iter4IterTNtNtB8_6string6StringBG_EENCNvCsLP87wc3c6O_10pdf_derive25impl_objectwrite_for_enum0EEB3n_, symObjAddr: 0x518, symBinAddr: 0x12FFC, symSize: 0x170 }
  - { offset: 0x35E39, size: 0x8, addend: 0x0, symName: __RINvMsi_NtCse1nGBsou5OW_5alloc3vecINtB6_3VecNtCs3cP53eQoTwO_11proc_macro211TokenStreamE16extend_desugaredINtNtNtNtCsfvfooZQ3Axs_4core4iter8adapters3map3MapINtNtCs5AlOhPCr03V_3syn10punctuated4IterNtNtB2y_4data7VariantENCNvCsLP87wc3c6O_10pdf_derive21impl_enum_from_stream0EEB3x_, symObjAddr: 0x688, symBinAddr: 0x1316C, symSize: 0x1D8 }
  - { offset: 0x3623E, size: 0x8, addend: 0x0, symName: __RINvMsi_NtCse1nGBsou5OW_5alloc3vecINtB6_3VecNtNtB8_6string6StringE16extend_desugaredINtNtNtNtCsfvfooZQ3Axs_4core4iter8adapters3map3MapINtNtCs5AlOhPCr03V_3syn10punctuated4IterNtNtB2d_4path11PathSegmentENCNvMCsLP87wc3c6O_10pdf_deriveNtB3i_10FieldAttrs5parses_0EEB3i_, symObjAddr: 0x860, symBinAddr: 0x13344, symSize: 0x1E4 }
  - { offset: 0x365D3, size: 0x8, addend: 0x0, symName: __RINvMsi_NtCse1nGBsou5OW_5alloc3vecINtB6_3VecNtNtB8_6string6StringE16extend_desugaredINtNtNtNtCsfvfooZQ3Axs_4core4iter8adapters3map3MapINtNtCs5AlOhPCr03V_3syn10punctuated4IterNtNtB2d_4path11PathSegmentENCNvMs_CsLP87wc3c6O_10pdf_deriveNtB3k_11GlobalAttrs8from_asts_0EEB3k_, symObjAddr: 0xA44, symBinAddr: 0x13528, symSize: 0x1E4 }
  - { offset: 0x36A01, size: 0x8, addend: 0x0, symName: __RINvMsi_NtCse1nGBsou5OW_5alloc3vecINtB6_3VecTINtNtCsfvfooZQ3Axs_4core6option6OptionNtCs3cP53eQoTwO_11proc_macro25IdentENtCsLP87wc3c6O_10pdf_derive10FieldAttrsIBI_NtNtCs5AlOhPCr03V_3syn2ty4TypeEEE16extend_desugaredINtNtNtNtBM_4iter8adapters3map3MapINtNtB2E_10punctuated4IterNtNtB2E_4data5FieldENCNvB1V_27impl_objectwrite_for_struct0EEB1V_, symObjAddr: 0xC28, symBinAddr: 0x1370C, symSize: 0x208 }
  - { offset: 0x36FAC, size: 0x8, addend: 0x0, symName: __RNvMNtCs5AlOhPCr03V_3syn5dropsINtB2_6NoDropINtNtB4_10punctuated11PrivateIterNtNtB4_4attr10NestedMetaNtNtB4_5token5CommaEE3newCsLP87wc3c6O_10pdf_derive, symObjAddr: 0x2660, symBinAddr: 0x150CC, symSize: 0x40 }
  - { offset: 0x37036, size: 0x8, addend: 0x0, symName: __RNvMNtCs5AlOhPCr03V_3syn5dropsINtB2_6NoDropINtNtB4_10punctuated11PrivateIterNtNtB4_4data7VariantNtNtB4_5token5CommaEE3newCsLP87wc3c6O_10pdf_derive, symObjAddr: 0x26A0, symBinAddr: 0x1510C, symSize: 0x40 }
  - { offset: 0x370C0, size: 0x8, addend: 0x0, symName: __RNvMNtCs5AlOhPCr03V_3syn5dropsINtB2_6NoDropINtNtB4_10punctuated11PrivateIterNtNtB4_4path15GenericArgumentNtNtB4_5token5CommaEE3newCsLP87wc3c6O_10pdf_derive, symObjAddr: 0x26E0, symBinAddr: 0x1514C, symSize: 0x40 }
  - { offset: 0x3716A, size: 0x8, addend: 0x0, symName: __RNvMNtCse1nGBsou5OW_5alloc3vecINtB2_3VecTNtNtB4_6string6StringNtCs3cP53eQoTwO_11proc_macro211TokenStreamEE13with_capacityCsLP87wc3c6O_10pdf_derive, symObjAddr: 0x2720, symBinAddr: 0x1518C, symSize: 0x48 }
  - { offset: 0x37350, size: 0x8, addend: 0x0, symName: __RNvMNtCse1nGBsou5OW_5alloc5allocNtB2_6Global10alloc_implCsLP87wc3c6O_10pdf_derive, symObjAddr: 0x2768, symBinAddr: 0x151D4, symSize: 0x194 }
  - { offset: 0x37845, size: 0x8, addend: 0x0, symName: __RNvMNtCse1nGBsou5OW_5alloc6stringNtB2_6String3popCsLP87wc3c6O_10pdf_derive, symObjAddr: 0x28FC, symBinAddr: 0x15368, symSize: 0x1B4 }
  - { offset: 0x37CB3, size: 0x8, addend: 0x0, symName: __RNvMNtCse1nGBsou5OW_5alloc6stringNtB2_6String6as_strCsLP87wc3c6O_10pdf_derive, symObjAddr: 0x2AB0, symBinAddr: 0x1551C, symSize: 0x70 }
  - { offset: 0x37E0E, size: 0x8, addend: 0x0, symName: __RNvMs0_NtCse1nGBsou5OW_5alloc7raw_vecINtB5_6RawVecNtCs3cP53eQoTwO_11proc_macro211TokenStreamE8grow_oneCsLP87wc3c6O_10pdf_derive, symObjAddr: 0x2B70, symBinAddr: 0x155DC, symSize: 0x94 }
  - { offset: 0x37EBC, size: 0x8, addend: 0x0, symName: __RNvMs0_NtCse1nGBsou5OW_5alloc7raw_vecINtB5_6RawVecTNtNtB7_6string6StringBN_EE8grow_oneCsLP87wc3c6O_10pdf_derive, symObjAddr: 0x2C04, symBinAddr: 0x15670, symSize: 0x94 }
  - { offset: 0x37F6A, size: 0x8, addend: 0x0, symName: __RNvMs0_NtCse1nGBsou5OW_5alloc7raw_vecINtB5_6RawVecTNtNtB7_6string6StringNtCs3cP53eQoTwO_11proc_macro211TokenStreamEE8grow_oneCsLP87wc3c6O_10pdf_derive, symObjAddr: 0x2C98, symBinAddr: 0x15704, symSize: 0x94 }
  - { offset: 0x380B2, size: 0x8, addend: 0x0, symName: __RNvMs_NtCse1nGBsou5OW_5alloc3vecINtB4_3VecNtCs3cP53eQoTwO_11proc_macro211TokenStreamE4pushCsLP87wc3c6O_10pdf_derive, symObjAddr: 0x2D2C, symBinAddr: 0x15798, symSize: 0x100 }
  - { offset: 0x3836F, size: 0x8, addend: 0x0, symName: __RNvMs_NtCse1nGBsou5OW_5alloc3vecINtB4_3VecNtCs3cP53eQoTwO_11proc_macro211TokenStreamE7reserveCsLP87wc3c6O_10pdf_derive, symObjAddr: 0x2E2C, symBinAddr: 0x15898, symSize: 0xC8 }
  - { offset: 0x3856D, size: 0x8, addend: 0x0, symName: __RNvMs_NtCse1nGBsou5OW_5alloc3vecINtB4_3VecNtCs3cP53eQoTwO_11proc_macro211TokenStreamE8as_sliceCsLP87wc3c6O_10pdf_derive, symObjAddr: 0x2EF4, symBinAddr: 0x15960, symSize: 0x64 }
  - { offset: 0x3873D, size: 0x8, addend: 0x0, symName: __RNvMs_NtCse1nGBsou5OW_5alloc3vecINtB4_3VecNtNtB6_6string6StringE7reserveCsLP87wc3c6O_10pdf_derive, symObjAddr: 0x2F58, symBinAddr: 0x159C4, symSize: 0xC8 }
  - { offset: 0x3893B, size: 0x8, addend: 0x0, symName: __RNvMs_NtCse1nGBsou5OW_5alloc3vecINtB4_3VecNtNtB6_6string6StringE8as_sliceCsLP87wc3c6O_10pdf_derive, symObjAddr: 0x3020, symBinAddr: 0x15A8C, symSize: 0x64 }
  - { offset: 0x38B0B, size: 0x8, addend: 0x0, symName: __RNvMs_NtCse1nGBsou5OW_5alloc3vecINtB4_3VecTINtNtCsfvfooZQ3Axs_4core6option6OptionNtCs3cP53eQoTwO_11proc_macro25IdentENtCsLP87wc3c6O_10pdf_derive10FieldAttrsIBG_NtNtCs5AlOhPCr03V_3syn2ty4TypeEEE7reserveB1T_, symObjAddr: 0x3084, symBinAddr: 0x15AF0, symSize: 0xC8 }
  - { offset: 0x38D09, size: 0x8, addend: 0x0, symName: __RNvMs_NtCse1nGBsou5OW_5alloc3vecINtB4_3VecTINtNtCsfvfooZQ3Axs_4core6option6OptionNtCs3cP53eQoTwO_11proc_macro25IdentENtCsLP87wc3c6O_10pdf_derive10FieldAttrsIBG_NtNtCs5AlOhPCr03V_3syn2ty4TypeEEE8as_sliceB1T_, symObjAddr: 0x314C, symBinAddr: 0x15BB8, symSize: 0x64 }
  - { offset: 0x38EC9, size: 0x8, addend: 0x0, symName: __RNvMs_NtCse1nGBsou5OW_5alloc3vecINtB4_3VecTNtNtB6_6string6StringBF_EE4pushCsLP87wc3c6O_10pdf_derive, symObjAddr: 0x31B0, symBinAddr: 0x15C1C, symSize: 0x118 }
  - { offset: 0x39122, size: 0x8, addend: 0x0, symName: __RNvMs_NtCse1nGBsou5OW_5alloc3vecINtB4_3VecTNtNtB6_6string6StringBF_EE8as_sliceCsLP87wc3c6O_10pdf_derive, symObjAddr: 0x32C8, symBinAddr: 0x15D34, symSize: 0x64 }
  - { offset: 0x392E2, size: 0x8, addend: 0x0, symName: __RNvMs_NtCse1nGBsou5OW_5alloc3vecINtB4_3VecTNtNtB6_6string6StringNtCs3cP53eQoTwO_11proc_macro211TokenStreamEE4pushCsLP87wc3c6O_10pdf_derive, symObjAddr: 0x332C, symBinAddr: 0x15D98, symSize: 0x118 }
  - { offset: 0x3953B, size: 0x8, addend: 0x0, symName: __RNvMs_NtCse1nGBsou5OW_5alloc3vecINtB4_3VecTNtNtB6_6string6StringNtCs3cP53eQoTwO_11proc_macro211TokenStreamEE8as_sliceCsLP87wc3c6O_10pdf_derive, symObjAddr: 0x3444, symBinAddr: 0x15EB0, symSize: 0x64 }
  - { offset: 0x39602, size: 0x8, addend: 0x0, symName: __RNvMs_NtCse1nGBsou5OW_5alloc3vecINtB4_3VecTNtNtCs5AlOhPCr03V_3syn4data7VariantNtNtBJ_5token5CommaEE3lenCsLP87wc3c6O_10pdf_derive, symObjAddr: 0x34A8, symBinAddr: 0x15F14, symSize: 0x18 }
  - { offset: 0x396CB, size: 0x8, addend: 0x0, symName: __RNvXNtCs2cqEZUIJimJ_5quote9to_tokensRNtNtCs5AlOhPCr03V_3syn3lit6LitStrNtB2_8ToTokens9to_tokensCsLP87wc3c6O_10pdf_derive, symObjAddr: 0x3DB4, symBinAddr: 0x16820, symSize: 0x40 }
  - { offset: 0x3970A, size: 0x8, addend: 0x0, symName: __RNvXNtCs2cqEZUIJimJ_5quote9to_tokensRNtNtCse1nGBsou5OW_5alloc6string6StringNtB2_8ToTokens9to_tokensCsLP87wc3c6O_10pdf_derive, symObjAddr: 0x3DF4, symBinAddr: 0x16860, symSize: 0x40 }
  - { offset: 0x3975A, size: 0x8, addend: 0x0, symName: __RNvXs4_NtNtCs2cqEZUIJimJ_5quote9___private3extINtNtCse1nGBsou5OW_5alloc3vec3VecNtCs3cP53eQoTwO_11proc_macro211TokenStreamENtB5_16RepAsIteratorExt15quote_into_iterCsLP87wc3c6O_10pdf_derive, symObjAddr: 0x4C1C, symBinAddr: 0x17688, symSize: 0x38 }
  - { offset: 0x3A8F6, size: 0x8, addend: 0x0, symName: __RINvMNtCsfvfooZQ3Axs_4core6optionINtB3_6OptionNtNtCs5AlOhPCr03V_3syn3lit6LitStrE3mapNtNtCse1nGBsou5OW_5alloc6string6StringNCNCNvCsLP87wc3c6O_10pdf_derive21impl_enum_from_stream00EB22_, symObjAddr: 0x0, symBinAddr: 0x18118, symSize: 0x6C }
  - { offset: 0x3E54B, size: 0x8, addend: 0x0, symName: __RNvXs4_NtCsfvfooZQ3Axs_4core6optionINtB5_6OptionNtNtCse1nGBsou5OW_5alloc6string6StringENtNtB7_7default7Default7defaultCsLP87wc3c6O_10pdf_derive, symObjAddr: 0x2850, symBinAddr: 0x1A968, symSize: 0x10 }
  - { offset: 0x3E721, size: 0x8, addend: 0x0, symName: __RNvXsO_NtCsfvfooZQ3Axs_4core6optionINtB5_8IntoIterRNtNtCs5AlOhPCr03V_3syn4attr10NestedMetaENtNtB7_5clone5Clone5cloneCsLP87wc3c6O_10pdf_derive, symObjAddr: 0x2A74, symBinAddr: 0x1AB8C, symSize: 0x68 }
  - { offset: 0x3E7C8, size: 0x8, addend: 0x0, symName: __RNvXsO_NtCsfvfooZQ3Axs_4core6optionINtB5_8IntoIterRNtNtCs5AlOhPCr03V_3syn4data7VariantENtNtB7_5clone5Clone5cloneCsLP87wc3c6O_10pdf_derive, symObjAddr: 0x2ADC, symBinAddr: 0x1ABF4, symSize: 0x68 }
  - { offset: 0x3E86F, size: 0x8, addend: 0x0, symName: __RNvXsO_NtCsfvfooZQ3Axs_4core6optionINtB5_8IntoIterRNtNtCs5AlOhPCr03V_3syn4path15GenericArgumentENtNtB7_5clone5Clone5cloneCsLP87wc3c6O_10pdf_derive, symObjAddr: 0x2B44, symBinAddr: 0x1AC5C, symSize: 0x68 }
  - { offset: 0x3EA2B, size: 0x8, addend: 0x0, symName: __RNvXsv_NtCsfvfooZQ3Axs_4core6optionINtB5_8IntoIterRNtNtCs5AlOhPCr03V_3syn4attr10NestedMetaENtNtNtNtB7_4iter6traits8iterator8Iterator9size_hintCsLP87wc3c6O_10pdf_derive, symObjAddr: 0x3754, symBinAddr: 0x1B86C, symSize: 0x44 }
  - { offset: 0x3EAA3, size: 0x8, addend: 0x0, symName: __RNvXsv_NtCsfvfooZQ3Axs_4core6optionINtB5_8IntoIterRNtNtCs5AlOhPCr03V_3syn4data7VariantENtNtNtNtB7_4iter6traits8iterator8Iterator9size_hintCsLP87wc3c6O_10pdf_derive, symObjAddr: 0x3798, symBinAddr: 0x1B8B0, symSize: 0x44 }
  - { offset: 0x3EB1B, size: 0x8, addend: 0x0, symName: __RNvXsv_NtCsfvfooZQ3Axs_4core6optionINtB5_8IntoIterRNtNtCs5AlOhPCr03V_3syn4path15GenericArgumentENtNtNtNtB7_4iter6traits8iterator8Iterator9size_hintCsLP87wc3c6O_10pdf_derive, symObjAddr: 0x37DC, symBinAddr: 0x1B8F4, symSize: 0x44 }
  - { offset: 0x3EFD5, size: 0x8, addend: 0x0, symName: __RNvNvMsc_NtNtCsfvfooZQ3Axs_4core3num7nonzeroINtB7_7NonZeropE13new_unchecked18precondition_checkCsLP87wc3c6O_10pdf_derive, symObjAddr: 0x1BE8, symBinAddr: 0x19D00, symSize: 0x1C }
  - { offset: 0x3F0DA, size: 0x8, addend: 0x0, symName: __RNvMs9_NtCsfvfooZQ3Axs_4core3numj11checked_addCsLP87wc3c6O_10pdf_derive, symObjAddr: 0x1A94, symBinAddr: 0x19BAC, symSize: 0x74 }
  - { offset: 0x3F164, size: 0x8, addend: 0x0, symName: __RNvNvMs9_NtCsfvfooZQ3Axs_4core3numj13unchecked_add18precondition_checkCsLP87wc3c6O_10pdf_derive, symObjAddr: 0x1BA4, symBinAddr: 0x19CBC, symSize: 0x44 }
  - { offset: 0x3F2E1, size: 0x8, addend: 0x0, symName: __RNvNvMs3_NtCsfvfooZQ3Axs_4core3numi13unchecked_neg18precondition_checkCsLP87wc3c6O_10pdf_derive, symObjAddr: 0x1B58, symBinAddr: 0x19C70, symSize: 0x4C }
  - { offset: 0x3F67D, size: 0x8, addend: 0x0, symName: __RINvXs2U_NtNtCsfvfooZQ3Axs_4core5slice4iterINtB7_4IterNtNtCs5AlOhPCr03V_3syn4attr9AttributeENtNtNtNtBb_4iter6traits8iterator8Iterator4findQNCNvMCsLP87wc3c6O_10pdf_deriveNtB2i_10FieldAttrs5parse0EB2i_, symObjAddr: 0xB24, symBinAddr: 0x18C3C, symSize: 0xB4 }
  - { offset: 0x3F6E2, size: 0x8, addend: 0x0, symName: __RINvXs2U_NtNtCsfvfooZQ3Axs_4core5slice4iterINtB7_4IterNtNtCs5AlOhPCr03V_3syn4attr9AttributeENtNtNtNtBb_4iter6traits8iterator8Iterator4findQNCNvMs_CsLP87wc3c6O_10pdf_deriveNtB2k_11GlobalAttrs8from_ast0EB2k_, symObjAddr: 0xBD8, symBinAddr: 0x18CF0, symSize: 0xB4 }
  - { offset: 0x3F747, size: 0x8, addend: 0x0, symName: __RINvXs2U_NtNtCsfvfooZQ3Axs_4core5slice4iterINtB7_4IterTNtNtCse1nGBsou5OW_5alloc6string6StringBR_EENtNtNtNtBb_4iter6traits8iterator8Iterator4folduNCINvNtNtB1E_8adapters3map8map_foldRBQ_NtCs3cP53eQoTwO_11proc_macro211TokenStreamuNCNvCsLP87wc3c6O_10pdf_derive22impl_object_for_structs0_0NCINvNvB1y_8for_each4callB2W_NCINvMsi_NtBV_3vecINtB5a_3VecB2W_E14extend_trustedINtB2o_3MapBF_B3D_EE0E0E0EB3H_, symObjAddr: 0xC8C, symBinAddr: 0x18DA4, symSize: 0x1B8 }
  - { offset: 0x3F89B, size: 0x8, addend: 0x0, symName: __RINvXs2U_NtNtCsfvfooZQ3Axs_4core5slice4iterINtB7_4IterTNtNtCse1nGBsou5OW_5alloc6string6StringNtCs3cP53eQoTwO_11proc_macro211TokenStreamEENtNtNtNtBb_4iter6traits8iterator8Iterator4folduNCINvNtNtB2h_8adapters3map8map_foldRBQ_B1t_uNCNvCsLP87wc3c6O_10pdf_derive20impl_object_for_enum0NCINvNvB2b_8for_each4callB1t_NCINvMsi_NtBV_3vecINtB56_3VecB1t_E14extend_trustedINtB31_3MapBF_B3E_EE0E0E0EB3I_, symObjAddr: 0xE44, symBinAddr: 0x18F5C, symSize: 0x1B8 }
  - { offset: 0x3F9EF, size: 0x8, addend: 0x0, symName: __RINvXs2U_NtNtCsfvfooZQ3Axs_4core5slice4iterINtB7_4IterTNtNtCse1nGBsou5OW_5alloc6string6StringNtCs3cP53eQoTwO_11proc_macro211TokenStreamEENtNtNtNtBb_4iter6traits8iterator8Iterator4folduNCINvNtNtB2h_8adapters3map8map_foldRBQ_B1t_uNCNvCsLP87wc3c6O_10pdf_derive25impl_objectwrite_for_enum0NCINvNvB2b_8for_each4callB1t_NCINvMsi_NtBV_3vecINtB5b_3VecB1t_E14extend_trustedINtB31_3MapBF_B3E_EE0E0E0EB3I_, symObjAddr: 0xFFC, symBinAddr: 0x19114, symSize: 0x1B8 }
  - { offset: 0x3FB43, size: 0x8, addend: 0x0, symName: __RNvXs2U_NtNtCsfvfooZQ3Axs_4core5slice4iterINtB6_4IterNtCs3cP53eQoTwO_11proc_macro211TokenStreamENtNtNtNtBa_4iter6traits8iterator8Iterator4nextCsLP87wc3c6O_10pdf_derive, symObjAddr: 0x2084, symBinAddr: 0x1A19C, symSize: 0xBC }
  - { offset: 0x3FC91, size: 0x8, addend: 0x0, symName: __RNvXs2U_NtNtCsfvfooZQ3Axs_4core5slice4iterINtB6_4IterNtNtCse1nGBsou5OW_5alloc6string6StringENtNtNtNtBa_4iter6traits8iterator8Iterator4nextCsLP87wc3c6O_10pdf_derive, symObjAddr: 0x2140, symBinAddr: 0x1A258, symSize: 0xBC }
  - { offset: 0x3FDDF, size: 0x8, addend: 0x0, symName: __RNvXs2U_NtNtCsfvfooZQ3Axs_4core5slice4iterINtB6_4IterTINtNtBa_6option6OptionNtCs3cP53eQoTwO_11proc_macro25IdentENtCsLP87wc3c6O_10pdf_derive10FieldAttrsIBR_NtNtCs5AlOhPCr03V_3syn2ty4TypeEEENtNtNtNtBa_4iter6traits8iterator8Iterator4nextB1O_, symObjAddr: 0x21FC, symBinAddr: 0x1A314, symSize: 0xBC }
  - { offset: 0x3FF2D, size: 0x8, addend: 0x0, symName: __RNvXs2U_NtNtCsfvfooZQ3Axs_4core5slice4iterINtB6_4IterTNtNtCse1nGBsou5OW_5alloc6string6StringBQ_EENtNtNtNtBa_4iter6traits8iterator8Iterator4nextCsLP87wc3c6O_10pdf_derive, symObjAddr: 0x22B8, symBinAddr: 0x1A3D0, symSize: 0xBC }
  - { offset: 0x4007B, size: 0x8, addend: 0x0, symName: __RNvXs2U_NtNtCsfvfooZQ3Axs_4core5slice4iterINtB6_4IterTNtNtCse1nGBsou5OW_5alloc6string6StringBQ_EENtNtNtNtBa_4iter6traits8iterator8Iterator9size_hintCsLP87wc3c6O_10pdf_derive, symObjAddr: 0x2374, symBinAddr: 0x1A48C, symSize: 0x70 }
  - { offset: 0x400EA, size: 0x8, addend: 0x0, symName: __RNvXs2U_NtNtCsfvfooZQ3Axs_4core5slice4iterINtB6_4IterTNtNtCse1nGBsou5OW_5alloc6string6StringNtCs3cP53eQoTwO_11proc_macro211TokenStreamEENtNtNtNtBa_4iter6traits8iterator8Iterator9size_hintCsLP87wc3c6O_10pdf_derive, symObjAddr: 0x23E4, symBinAddr: 0x1A4FC, symSize: 0x70 }
  - { offset: 0x40413, size: 0x8, addend: 0x0, symName: __RNvXs2V_NtNtCsfvfooZQ3Axs_4core5slice4iterINtB6_4IterTNtNtCs5AlOhPCr03V_3syn4attr10NestedMetaNtNtBU_5token5CommaEENtNtNtNtBa_4iter6traits12double_ended19DoubleEndedIterator9next_backCsLP87wc3c6O_10pdf_derive, symObjAddr: 0x2454, symBinAddr: 0x1A56C, symSize: 0x100 }
  - { offset: 0x4056F, size: 0x8, addend: 0x0, symName: __RNvXs2V_NtNtCsfvfooZQ3Axs_4core5slice4iterINtB6_4IterTNtNtCs5AlOhPCr03V_3syn4data7VariantNtNtBU_5token5CommaEENtNtNtNtBa_4iter6traits12double_ended19DoubleEndedIterator9next_backCsLP87wc3c6O_10pdf_derive, symObjAddr: 0x2554, symBinAddr: 0x1A66C, symSize: 0x100 }
  - { offset: 0x406CB, size: 0x8, addend: 0x0, symName: __RNvXs2V_NtNtCsfvfooZQ3Axs_4core5slice4iterINtB6_4IterTNtNtCs5AlOhPCr03V_3syn4path15GenericArgumentNtNtBU_5token5CommaEENtNtNtNtBa_4iter6traits12double_ended19DoubleEndedIterator9next_backCsLP87wc3c6O_10pdf_derive, symObjAddr: 0x2654, symBinAddr: 0x1A76C, symSize: 0x100 }
  - { offset: 0x4082D, size: 0x8, addend: 0x0, symName: __RNvXs5_NtNtCsfvfooZQ3Axs_4core5slice4iterINtB5_4IterTNtNtCs5AlOhPCr03V_3syn4attr10NestedMetaNtNtBT_5token5CommaEENtNtB9_5clone5Clone5cloneCsLP87wc3c6O_10pdf_derive, symObjAddr: 0x28EC, symBinAddr: 0x1AA04, symSize: 0x20 }
  - { offset: 0x40862, size: 0x8, addend: 0x0, symName: __RNvXs5_NtNtCsfvfooZQ3Axs_4core5slice4iterINtB5_4IterTNtNtCs5AlOhPCr03V_3syn4data7VariantNtNtBT_5token5CommaEENtNtB9_5clone5Clone5cloneCsLP87wc3c6O_10pdf_derive, symObjAddr: 0x290C, symBinAddr: 0x1AA24, symSize: 0x20 }
  - { offset: 0x40897, size: 0x8, addend: 0x0, symName: __RNvXs5_NtNtCsfvfooZQ3Axs_4core5slice4iterINtB5_4IterTNtNtCs5AlOhPCr03V_3syn4path15GenericArgumentNtNtBT_5token5CommaEENtNtB9_5clone5Clone5cloneCsLP87wc3c6O_10pdf_derive, symObjAddr: 0x292C, symBinAddr: 0x1AA44, symSize: 0x20 }
  - { offset: 0x40957, size: 0x8, addend: 0x0, symName: __RNvMNtCsfvfooZQ3Axs_4core5sliceSTINtNtB4_6option6OptionNtCs3cP53eQoTwO_11proc_macro25IdentENtCsLP87wc3c6O_10pdf_derive10FieldAttrsIBw_NtNtCs5AlOhPCr03V_3syn2ty4TypeEE4iterB1t_, symObjAddr: 0x155C, symBinAddr: 0x19674, symSize: 0x28 }
  - { offset: 0x409C0, size: 0x8, addend: 0x0, symName: __RNvNvNtNtCsfvfooZQ3Axs_4core5slice3raw14from_raw_parts18precondition_checkCsLP87wc3c6O_10pdf_derive, symObjAddr: 0x1C20, symBinAddr: 0x19D38, symSize: 0x168 }
  - { offset: 0x40B06, size: 0x8, addend: 0x0, symName: __RNvNvNtNtCsfvfooZQ3Axs_4core5slice3raw18from_raw_parts_mut18precondition_checkCsLP87wc3c6O_10pdf_derive, symObjAddr: 0x1D88, symBinAddr: 0x19EA0, symSize: 0x168 }
  - { offset: 0x41010, size: 0x8, addend: 0x0, symName: __RINvYINtNtNtCsfvfooZQ3Axs_4core5slice4iter4IterNtNtCs5AlOhPCr03V_3syn4attr9AttributeENtNtNtNtBa_4iter6traits8iterator8Iterator6filterNCNvMCsLP87wc3c6O_10pdf_deriveNtB2c_10FieldAttrs5parse0EB2c_, symObjAddr: 0x11B4, symBinAddr: 0x192CC, symSize: 0x1C }
  - { offset: 0x4105F, size: 0x8, addend: 0x0, symName: __RINvYINtNtNtCsfvfooZQ3Axs_4core5slice4iter4IterNtNtCs5AlOhPCr03V_3syn4attr9AttributeENtNtNtNtBa_4iter6traits8iterator8Iterator6filterNCNvMs_CsLP87wc3c6O_10pdf_deriveNtB2e_11GlobalAttrs8from_ast0EB2e_, symObjAddr: 0x11D0, symBinAddr: 0x192E8, symSize: 0x1C }
  - { offset: 0x410AE, size: 0x8, addend: 0x0, symName: __RINvYINtNtNtCsfvfooZQ3Axs_4core5slice4iter4IterNtNtCse1nGBsou5OW_5alloc6string6StringENtNtNtNtBa_4iter6traits8iterator8Iterator8try_foldjNCINvNtNtB1s_8adapters3map12map_try_foldRBJ_jjINtNtBa_6option6OptionjENCNCINvNtBN_3str17join_generic_copyehBJ_E00NvMs9_NtBa_3numj11checked_addE0B2V_ECsLP87wc3c6O_10pdf_derive, symObjAddr: 0x11EC, symBinAddr: 0x19304, symSize: 0x180 }
  - { offset: 0x4116A, size: 0x8, addend: 0x0, symName: __RINvYINtNtNtCsfvfooZQ3Axs_4core5slice4iter4IterTINtNtBa_6option6OptionNtCs3cP53eQoTwO_11proc_macro25IdentENtCsLP87wc3c6O_10pdf_derive10FieldAttrsIBL_NtNtCs5AlOhPCr03V_3syn2ty4TypeEEENtNtNtNtBa_4iter6traits8iterator8Iterator3mapNtB18_11TokenStreamNCNvB1I_27impl_objectwrite_for_structs_0EB1I_, symObjAddr: 0x136C, symBinAddr: 0x19484, symSize: 0x1C }
  - { offset: 0x411C2, size: 0x8, addend: 0x0, symName: __RINvYINtNtNtCsfvfooZQ3Axs_4core5slice4iter4IterTNtNtCse1nGBsou5OW_5alloc6string6StringBK_EENtNtNtNtBa_4iter6traits8iterator8Iterator3mapNtCs3cP53eQoTwO_11proc_macro211TokenStreamNCNvCsLP87wc3c6O_10pdf_derive22impl_object_for_structs0_0EB2U_, symObjAddr: 0x1388, symBinAddr: 0x194A0, symSize: 0x30 }
  - { offset: 0x4122F, size: 0x8, addend: 0x0, symName: __RINvYINtNtNtCsfvfooZQ3Axs_4core5slice4iter4IterTNtNtCse1nGBsou5OW_5alloc6string6StringBK_EENtNtNtNtBa_4iter6traits8iterator8Iterator3mapNtCs3cP53eQoTwO_11proc_macro211TokenStreamNCNvCsLP87wc3c6O_10pdf_derive27impl_objectwrite_for_structs0_0EB2U_, symObjAddr: 0x13B8, symBinAddr: 0x194D0, symSize: 0x1C }
  - { offset: 0x41287, size: 0x8, addend: 0x0, symName: __RINvYINtNtNtCsfvfooZQ3Axs_4core5slice4iter4IterTNtNtCse1nGBsou5OW_5alloc6string6StringNtCs3cP53eQoTwO_11proc_macro211TokenStreamEENtNtNtNtBa_4iter6traits8iterator8Iterator3mapB1m_NCNvCsLP87wc3c6O_10pdf_derive20impl_object_for_enum0EB2V_, symObjAddr: 0x13D4, symBinAddr: 0x194EC, symSize: 0x1C }
  - { offset: 0x412DF, size: 0x8, addend: 0x0, symName: __RINvYINtNtNtCsfvfooZQ3Axs_4core5slice4iter4IterTNtNtCse1nGBsou5OW_5alloc6string6StringNtCs3cP53eQoTwO_11proc_macro211TokenStreamEENtNtNtNtBa_4iter6traits8iterator8Iterator3mapB1m_NCNvCsLP87wc3c6O_10pdf_derive25impl_objectwrite_for_enum0EB2V_, symObjAddr: 0x13F0, symBinAddr: 0x19508, symSize: 0x1C }
  - { offset: 0x41341, size: 0x8, addend: 0x0, symName: __RNCINvNvNtNtNtNtCsfvfooZQ3Axs_4core4iter6traits8iterator8Iterator8find_map5checkRNtNtCs5AlOhPCr03V_3syn4data5FieldNtNtB1l_2ty4TypeQNCNvCsLP87wc3c6O_10pdf_derive22impl_object_for_stream0E0B29_, symObjAddr: 0x140C, symBinAddr: 0x19524, symSize: 0x9C }
  - { offset: 0x413D1, size: 0x8, addend: 0x0, symName: __RNCINvNvNtNtNtNtCsfvfooZQ3Axs_4core4iter6traits8iterator8Iterator8for_each4callNtCs3cP53eQoTwO_11proc_macro211TokenStreamNCINvMsi_NtCse1nGBsou5OW_5alloc3vecINtB24_3VecB1f_E14extend_trustedINtNtNtBc_8adapters3map3MapINtNtNtBe_5slice4iter4IterTNtNtB26_6string6StringB1f_EENCNvCsLP87wc3c6O_10pdf_derive20impl_object_for_enum0EE0E0B4o_, symObjAddr: 0x14A8, symBinAddr: 0x195C0, symSize: 0x3C }
  - { offset: 0x4142A, size: 0x8, addend: 0x0, symName: __RNCINvNvNtNtNtNtCsfvfooZQ3Axs_4core4iter6traits8iterator8Iterator8for_each4callNtCs3cP53eQoTwO_11proc_macro211TokenStreamNCINvMsi_NtCse1nGBsou5OW_5alloc3vecINtB24_3VecB1f_E14extend_trustedINtNtNtBc_8adapters3map3MapINtNtNtBe_5slice4iter4IterTNtNtB26_6string6StringB1f_EENCNvCsLP87wc3c6O_10pdf_derive25impl_objectwrite_for_enum0EE0E0B4o_, symObjAddr: 0x14E4, symBinAddr: 0x195FC, symSize: 0x3C }
  - { offset: 0x41483, size: 0x8, addend: 0x0, symName: __RNCINvNvNtNtNtNtCsfvfooZQ3Axs_4core4iter6traits8iterator8Iterator8for_each4callNtCs3cP53eQoTwO_11proc_macro211TokenStreamNCINvMsi_NtCse1nGBsou5OW_5alloc3vecINtB24_3VecB1f_E14extend_trustedINtNtNtBc_8adapters3map3MapINtNtNtBe_5slice4iter4IterTNtNtB26_6string6StringB3S_EENCNvCsLP87wc3c6O_10pdf_derive22impl_object_for_structs0_0EE0E0B4o_, symObjAddr: 0x1520, symBinAddr: 0x19638, symSize: 0x3C }
  - { offset: 0x41523, size: 0x8, addend: 0x0, symName: __RNvXNtNtNtCsfvfooZQ3Axs_4core4iter6traits7collectINtNtNtB6_8adapters6filter6FilterINtNtNtB8_5slice4iter4IterNtNtCs5AlOhPCr03V_3syn4attr9AttributeENCNvMCsLP87wc3c6O_10pdf_deriveNtB2p_10FieldAttrs5parse0ENtB2_12IntoIterator9into_iterB2p_, symObjAddr: 0x1F44, symBinAddr: 0x1A05C, symSize: 0x1C }
  - { offset: 0x4155A, size: 0x8, addend: 0x0, symName: __RNvXNtNtNtCsfvfooZQ3Axs_4core4iter6traits7collectINtNtNtB6_8adapters6filter6FilterINtNtNtB8_5slice4iter4IterNtNtCs5AlOhPCr03V_3syn4attr9AttributeENCNvMs_CsLP87wc3c6O_10pdf_deriveNtB2r_11GlobalAttrs8from_ast0ENtB2_12IntoIterator9into_iterB2r_, symObjAddr: 0x1F60, symBinAddr: 0x1A078, symSize: 0x1C }
  - { offset: 0x4159D, size: 0x8, addend: 0x0, symName: __RNvYINtNtCsfvfooZQ3Axs_4core6option8IntoIterRNtNtCs5AlOhPCr03V_3syn4attr10NestedMetaENtNtNtNtB7_4iter6traits10exact_size17ExactSizeIterator3lenCsLP87wc3c6O_10pdf_derive, symObjAddr: 0x3820, symBinAddr: 0x1B938, symSize: 0xF4 }
  - { offset: 0x41690, size: 0x8, addend: 0x0, symName: __RNvYINtNtCsfvfooZQ3Axs_4core6option8IntoIterRNtNtCs5AlOhPCr03V_3syn4data7VariantENtNtNtNtB7_4iter6traits10exact_size17ExactSizeIterator3lenCsLP87wc3c6O_10pdf_derive, symObjAddr: 0x3914, symBinAddr: 0x1BA2C, symSize: 0xF4 }
  - { offset: 0x41783, size: 0x8, addend: 0x0, symName: __RNvYINtNtCsfvfooZQ3Axs_4core6option8IntoIterRNtNtCs5AlOhPCr03V_3syn4path15GenericArgumentENtNtNtNtB7_4iter6traits10exact_size17ExactSizeIterator3lenCsLP87wc3c6O_10pdf_derive, symObjAddr: 0x3A08, symBinAddr: 0x1BB20, symSize: 0xF4 }
  - { offset: 0x41A3D, size: 0x8, addend: 0x0, symName: __RNvXs1_NtNtNtCsfvfooZQ3Axs_4core4iter8adapters6filterINtB5_6FilterINtNtNtBb_5slice4iter4IterNtNtCs5AlOhPCr03V_3syn4attr9AttributeENCNvMCsLP87wc3c6O_10pdf_deriveNtB29_10FieldAttrs5parse0ENtNtNtB9_6traits8iterator8Iterator4nextB29_, symObjAddr: 0x202C, symBinAddr: 0x1A144, symSize: 0x2C }
  - { offset: 0x41A7B, size: 0x8, addend: 0x0, symName: __RNvXs1_NtNtNtCsfvfooZQ3Axs_4core4iter8adapters6filterINtB5_6FilterINtNtNtBb_5slice4iter4IterNtNtCs5AlOhPCr03V_3syn4attr9AttributeENCNvMs_CsLP87wc3c6O_10pdf_deriveNtB2b_11GlobalAttrs8from_ast0ENtNtNtB9_6traits8iterator8Iterator4nextB2b_, symObjAddr: 0x2058, symBinAddr: 0x1A170, symSize: 0x2C }
  - { offset: 0x41B2C, size: 0x8, addend: 0x0, symName: __RNvXsF_NtNtCsfvfooZQ3Axs_4core4iter5rangejNtB5_4Step17forward_uncheckedCsLP87wc3c6O_10pdf_derive, symObjAddr: 0x2A2C, symBinAddr: 0x1AB44, symSize: 0x48 }
  - { offset: 0x41BA2, size: 0x8, addend: 0x0, symName: __RNvNvMNtNtCsfvfooZQ3Axs_4core5alloc6layoutNtB4_6Layout25from_size_align_unchecked18precondition_checkCsLP87wc3c6O_10pdf_derive, symObjAddr: 0x1B08, symBinAddr: 0x19C20, symSize: 0x50 }
  - { offset: 0x41BE6, size: 0x8, addend: 0x0, symName: __RNvNvNtCsfvfooZQ3Axs_4core4hint21unreachable_unchecked18precondition_checkCsLP87wc3c6O_10pdf_derive, symObjAddr: 0x1C04, symBinAddr: 0x19D1C, symSize: 0x1C }
  - { offset: 0x4279D, size: 0x8, addend: 0x0, symName: __RNvXs5_NtNtCs9i5KxIbZ5ph_10proc_macro6bridge6bufferNtB5_6BufferNtNtNtCsfvfooZQ3Axs_4core3ops4drop4Drop4dropCsLP87wc3c6O_10pdf_derive, symObjAddr: 0x2860, symBinAddr: 0x1A978, symSize: 0x8C }
  - { offset: 0x428D9, size: 0x8, addend: 0x0, symName: __RNvXNtNtCs9i5KxIbZ5ph_10proc_macro6bridge3rpcuINtB2_6EncodeuE6encodeCsLP87wc3c6O_10pdf_derive, symObjAddr: 0x1F30, symBinAddr: 0x1A048, symSize: 0x14 }
  - { offset: 0x42920, size: 0x8, addend: 0x0, symName: __RNvXs7_NtNtCs9i5KxIbZ5ph_10proc_macro6bridge3rpcINtNtNtCsfvfooZQ3Axs_4core3num7nonzero7NonZeromEINtB5_9DecodeMutuE6decodeCsLP87wc3c6O_10pdf_derive, symObjAddr: 0x294C, symBinAddr: 0x1AA64, symSize: 0x5C }
  - { offset: 0x429A3, size: 0x8, addend: 0x0, symName: __RNvXs9_NtNtCs9i5KxIbZ5ph_10proc_macro6bridge3rpcTINtB7_11ExpnGlobalsNtNtB7_6client4SpanENtB16_11TokenStreamEINtB5_9DecodeMutuE6decodeCsLP87wc3c6O_10pdf_derive, symObjAddr: 0x29A8, symBinAddr: 0x1AAC0, symSize: 0x84 }
  - { offset: 0x42A90, size: 0x8, addend: 0x0, symName: __RNvXsa_NtNtCs9i5KxIbZ5ph_10proc_macro6bridge3rpcRShINtB5_6EncodeuE6encodeCsLP87wc3c6O_10pdf_derive, symObjAddr: 0x2D50, symBinAddr: 0x1AE68, symSize: 0xD0 }
  - { offset: 0x42B92, size: 0x8, addend: 0x0, symName: __RNvXsc_NtNtCs9i5KxIbZ5ph_10proc_macro6bridge3rpcReINtB5_6EncodeuE6encodeCsLP87wc3c6O_10pdf_derive, symObjAddr: 0x2E20, symBinAddr: 0x1AF38, symSize: 0x38 }
  - { offset: 0x42C7A, size: 0x8, addend: 0x0, symName: __RNvXsl_NtNtCs9i5KxIbZ5ph_10proc_macro6bridge3rpcNtB5_12PanicMessageINtB5_6EncodeuE6encodeCsLP87wc3c6O_10pdf_derive, symObjAddr: 0x3524, symBinAddr: 0x1B63C, symSize: 0x128 }
  - { offset: 0x42E40, size: 0x8, addend: 0x0, symName: __RNvXso_NtNtCs9i5KxIbZ5ph_10proc_macro6bridge3rpcmINtB5_9DecodeMutuE6decodeCsLP87wc3c6O_10pdf_derive, symObjAddr: 0x364C, symBinAddr: 0x1B764, symSize: 0x108 }
  - { offset: 0x42F8E, size: 0x8, addend: 0x0, symName: __RNvXs1J_NtCs9i5KxIbZ5ph_10proc_macro6bridgeINtB6_11ExpnGlobalsNtNtB6_6client4SpanEINtNtB6_3rpc9DecodeMutuE6decodeCsLP87wc3c6O_10pdf_derive, symObjAddr: 0x1F7C, symBinAddr: 0x1A094, symSize: 0xB0 }
  - { offset: 0x42FE0, size: 0x8, addend: 0x0, symName: __RNvXsR_NtCs9i5KxIbZ5ph_10proc_macro6bridgeINtNtCsfvfooZQ3Axs_4core6option6OptionNtNtB5_6client11TokenStreamEINtNtB5_3rpc6EncodeuE6encodeCsLP87wc3c6O_10pdf_derive, symObjAddr: 0x2BAC, symBinAddr: 0x1ACC4, symSize: 0xCC }
  - { offset: 0x43086, size: 0x8, addend: 0x0, symName: __RNvXsR_NtCs9i5KxIbZ5ph_10proc_macro6bridgeINtNtCsfvfooZQ3Axs_4core6option6OptionReEINtNtB5_3rpc6EncodeuE6encodeCsLP87wc3c6O_10pdf_derive, symObjAddr: 0x2C78, symBinAddr: 0x1AD90, symSize: 0xD8 }
  - { offset: 0x4866C, size: 0x8, addend: 0x0, symName: __RINvNtCs5AlOhPCr03V_3syn17parse_macro_input5parseNtNtB4_6derive11DeriveInputECsLP87wc3c6O_10pdf_derive, symObjAddr: 0xAF4, symBinAddr: 0x18C0C, symSize: 0x30 }
  - { offset: 0x486AC, size: 0x8, addend: 0x0, symName: __RNvXsf_NtCs5AlOhPCr03V_3syn5parseNvYNtNtB7_4expr4ExprNtB5_5Parse5parseNtB5_6Parser6parse2CsLP87wc3c6O_10pdf_derive, symObjAddr: 0x2E58, symBinAddr: 0x1AF70, symSize: 0x374 }
  - { offset: 0x487AC, size: 0x8, addend: 0x0, symName: __RNvXsf_NtCs5AlOhPCr03V_3syn5parseNvYNtNtB7_6derive11DeriveInputNtNtB7_17parse_macro_input15ParseMacroInput5parseNtB5_6Parser6parse2CsLP87wc3c6O_10pdf_derive, symObjAddr: 0x31CC, symBinAddr: 0x1B2E4, symSize: 0x358 }
  - { offset: 0x488B2, size: 0x8, addend: 0x0, symName: __RNvYNvYNtNtCs5AlOhPCr03V_3syn4expr4ExprNtNtB9_5parse5Parse5parseNtBD_6Parser9parse_strCsLP87wc3c6O_10pdf_derive, symObjAddr: 0x3AFC, symBinAddr: 0x1BC14, symSize: 0x11C }
  - { offset: 0x48916, size: 0x8, addend: 0x0, symName: __RNvYNvYNtNtCs5AlOhPCr03V_3syn6derive11DeriveInputNtNtB9_17parse_macro_input15ParseMacroInput5parseNtNtB9_5parse6Parser5parseCsLP87wc3c6O_10pdf_derive, symObjAddr: 0x3C18, symBinAddr: 0x1BD30, symSize: 0x88 }
  - { offset: 0x49E27, size: 0x8, addend: 0x0, symName: __RINvMNtCsfvfooZQ3Axs_4core6optionINtB3_6OptionNtNtCs5AlOhPCr03V_3syn3lit6LitStrE3mapNtNtCse1nGBsou5OW_5alloc6string6StringNCNCNvCsLP87wc3c6O_10pdf_derive21impl_enum_from_stream00EB22_, symObjAddr: 0x0, symBinAddr: 0x18118, symSize: 0x6C }
  - { offset: 0x49E92, size: 0x8, addend: 0x0, symName: __RINvMNtCsfvfooZQ3Axs_4core6optionINtB3_6OptionNtNtCs5AlOhPCr03V_3syn3lit6LitStrE3mapNtNtCse1nGBsou5OW_5alloc6string6StringNCNvCsLP87wc3c6O_10pdf_derive10enum_pairs0EB20_, symObjAddr: 0x6C, symBinAddr: 0x18184, symSize: 0x6C }
  - { offset: 0x4A428, size: 0x8, addend: 0x0, symName: __RINvMNtCsfvfooZQ3Axs_4core6optionINtB3_6OptionNtNtCse1nGBsou5OW_5alloc6string6StringE14unwrap_or_elseNCNCNvCsLP87wc3c6O_10pdf_derive21impl_enum_from_stream0s_0EB1H_, symObjAddr: 0xD8, symBinAddr: 0x181F0, symSize: 0x7C }
  - { offset: 0x4A4A5, size: 0x8, addend: 0x0, symName: __RINvMNtCsfvfooZQ3Axs_4core6optionINtB3_6OptionNtNtCse1nGBsou5OW_5alloc6string6StringE14unwrap_or_elseNCNvCsLP87wc3c6O_10pdf_derive10enum_pairss_0EB1F_, symObjAddr: 0x154, symBinAddr: 0x1826C, symSize: 0x7C }
  - { offset: 0x4A515, size: 0x8, addend: 0x0, symName: __RINvMNtCsfvfooZQ3Axs_4core6optionINtB3_6OptionRNtNtCs5AlOhPCr03V_3syn3lit6LitStrE3mapNtNtBN_4expr4ExprNCNvMCsLP87wc3c6O_10pdf_deriveNtB1H_10FieldAttrs7default0EB1H_, symObjAddr: 0x1D0, symBinAddr: 0x182E8, symSize: 0x7C }
  - { offset: 0x4A5EC, size: 0x8, addend: 0x0, symName: __RINvMNtCsfvfooZQ3Axs_4core6optionINtB3_6OptionRNtNtCs5AlOhPCr03V_3syn4attr10NestedMetaE7or_elseNCNvXsw_NtBN_10punctuatedINtB1D_11PrivateIterBJ_NtNtBN_5token5CommaENtNtNtNtB5_4iter6traits8iterator8Iterator4nexts_0ECsLP87wc3c6O_10pdf_derive, symObjAddr: 0x24C, symBinAddr: 0x18364, symSize: 0xA8 }
  - { offset: 0x4A64E, size: 0x8, addend: 0x0, symName: __RINvMNtCsfvfooZQ3Axs_4core6optionINtB3_6OptionRNtNtCs5AlOhPCr03V_3syn4attr10NestedMetaE7or_elseNCNvXsx_NtBN_10punctuatedINtB1D_11PrivateIterBJ_NtNtBN_5token5CommaENtNtNtNtB5_4iter6traits12double_ended19DoubleEndedIterator9next_back0ECsLP87wc3c6O_10pdf_derive, symObjAddr: 0x2F4, symBinAddr: 0x1840C, symSize: 0xA8 }
  - { offset: 0x4A6E4, size: 0x8, addend: 0x0, symName: __RINvMNtCsfvfooZQ3Axs_4core6optionINtB3_6OptionRNtNtCs5AlOhPCr03V_3syn4data7VariantE7or_elseNCNvXsw_NtBN_10punctuatedINtB1z_11PrivateIterBJ_NtNtBN_5token5CommaENtNtNtNtB5_4iter6traits8iterator8Iterator4nexts_0ECsLP87wc3c6O_10pdf_derive, symObjAddr: 0x39C, symBinAddr: 0x184B4, symSize: 0xA8 }
  - { offset: 0x4A746, size: 0x8, addend: 0x0, symName: __RINvMNtCsfvfooZQ3Axs_4core6optionINtB3_6OptionRNtNtCs5AlOhPCr03V_3syn4data7VariantE7or_elseNCNvXsx_NtBN_10punctuatedINtB1z_11PrivateIterBJ_NtNtBN_5token5CommaENtNtNtNtB5_4iter6traits12double_ended19DoubleEndedIterator9next_back0ECsLP87wc3c6O_10pdf_derive, symObjAddr: 0x444, symBinAddr: 0x1855C, symSize: 0xA8 }
  - { offset: 0x4A7E9, size: 0x8, addend: 0x0, symName: __RINvMNtCsfvfooZQ3Axs_4core6optionINtB3_6OptionRNtNtCs5AlOhPCr03V_3syn4path15GenericArgumentE7or_elseNCNvXsw_NtBN_10punctuatedINtB1I_11PrivateIterBJ_NtNtBN_5token5CommaENtNtNtNtB5_4iter6traits8iterator8Iterator4nexts_0ECsLP87wc3c6O_10pdf_derive, symObjAddr: 0x4EC, symBinAddr: 0x18604, symSize: 0xA8 }
  - { offset: 0x4A84B, size: 0x8, addend: 0x0, symName: __RINvMNtCsfvfooZQ3Axs_4core6optionINtB3_6OptionRNtNtCs5AlOhPCr03V_3syn4path15GenericArgumentE7or_elseNCNvXsx_NtBN_10punctuatedINtB1I_11PrivateIterBJ_NtNtBN_5token5CommaENtNtNtNtB5_4iter6traits12double_ended19DoubleEndedIterator9next_back0ECsLP87wc3c6O_10pdf_derive, symObjAddr: 0x594, symBinAddr: 0x186AC, symSize: 0xA8 }
  - { offset: 0x4A8AD, size: 0x8, addend: 0x0, symName: __RINvMNtCsfvfooZQ3Axs_4core6optionINtB3_6OptionRTNtNtCs5AlOhPCr03V_3syn4attr10NestedMetaNtNtBO_5token5CommaEE3mapRBK_NCNCNvXsx_NtBO_10punctuatedINtB20_11PrivateIterBK_B1n_ENtNtNtNtB5_4iter6traits12double_ended19DoubleEndedIterator9next_back00ECsLP87wc3c6O_10pdf_derive, symObjAddr: 0x63C, symBinAddr: 0x18754, symSize: 0x50 }
  - { offset: 0x4A918, size: 0x8, addend: 0x0, symName: __RINvMNtCsfvfooZQ3Axs_4core6optionINtB3_6OptionRTNtNtCs5AlOhPCr03V_3syn4attr10NestedMetaNtNtBO_5token5CommaEE3mapRBK_NCNvXsw_NtBO_10punctuatedINtB1Y_11PrivateIterBK_B1n_ENtNtNtNtB5_4iter6traits8iterator8Iterator4next0ECsLP87wc3c6O_10pdf_derive, symObjAddr: 0x68C, symBinAddr: 0x187A4, symSize: 0x50 }
  - { offset: 0x4A983, size: 0x8, addend: 0x0, symName: __RINvMNtCsfvfooZQ3Axs_4core6optionINtB3_6OptionRTNtNtCs5AlOhPCr03V_3syn4data7VariantNtNtBO_5token5CommaEE3mapRBK_NCNCNvXsx_NtBO_10punctuatedINtB1W_11PrivateIterBK_B1j_ENtNtNtNtB5_4iter6traits12double_ended19DoubleEndedIterator9next_back00ECsLP87wc3c6O_10pdf_derive, symObjAddr: 0x6DC, symBinAddr: 0x187F4, symSize: 0x50 }
  - { offset: 0x4A9EE, size: 0x8, addend: 0x0, symName: __RINvMNtCsfvfooZQ3Axs_4core6optionINtB3_6OptionRTNtNtCs5AlOhPCr03V_3syn4data7VariantNtNtBO_5token5CommaEE3mapRBK_NCNvXsw_NtBO_10punctuatedINtB1U_11PrivateIterBK_B1j_ENtNtNtNtB5_4iter6traits8iterator8Iterator4next0ECsLP87wc3c6O_10pdf_derive, symObjAddr: 0x72C, symBinAddr: 0x18844, symSize: 0x50 }
  - { offset: 0x4AA59, size: 0x8, addend: 0x0, symName: __RINvMNtCsfvfooZQ3Axs_4core6optionINtB3_6OptionRTNtNtCs5AlOhPCr03V_3syn4path15GenericArgumentNtNtBO_5token5CommaEE3mapRBK_NCNCNvXsx_NtBO_10punctuatedINtB25_11PrivateIterBK_B1s_ENtNtNtNtB5_4iter6traits12double_ended19DoubleEndedIterator9next_back00ECsLP87wc3c6O_10pdf_derive, symObjAddr: 0x77C, symBinAddr: 0x18894, symSize: 0x50 }
  - { offset: 0x4AAC4, size: 0x8, addend: 0x0, symName: __RINvMNtCsfvfooZQ3Axs_4core6optionINtB3_6OptionRTNtNtCs5AlOhPCr03V_3syn4path15GenericArgumentNtNtBO_5token5CommaEE3mapRBK_NCNvXsw_NtBO_10punctuatedINtB23_11PrivateIterBK_B1s_ENtNtNtNtB5_4iter6traits8iterator8Iterator4next0ECsLP87wc3c6O_10pdf_derive, symObjAddr: 0x7CC, symBinAddr: 0x188E4, symSize: 0x50 }
  - { offset: 0x4ABC4, size: 0x8, addend: 0x0, symName: __RINvMs3_NtNtCs9i5KxIbZ5ph_10proc_macro6bridge6bufferNtB6_6Buffer17extend_from_arrayKj4_ECsLP87wc3c6O_10pdf_derive, symObjAddr: 0x81C, symBinAddr: 0x18934, symSize: 0x16C }
  - { offset: 0x4AD8A, size: 0x8, addend: 0x0, symName: __RINvMs3_NtNtCs9i5KxIbZ5ph_10proc_macro6bridge6bufferNtB6_6Buffer17extend_from_arrayKj8_ECsLP87wc3c6O_10pdf_derive, symObjAddr: 0x988, symBinAddr: 0x18AA0, symSize: 0x16C }
  - { offset: 0x4B0BA, size: 0x8, addend: 0x0, symName: __RNvMNtCsfvfooZQ3Axs_4core6optionINtB2_6OptionNtCs3cP53eQoTwO_11proc_macro211TokenStreamE7is_someCsLP87wc3c6O_10pdf_derive, symObjAddr: 0x1584, symBinAddr: 0x1969C, symSize: 0x2C }
  - { offset: 0x4B0F3, size: 0x8, addend: 0x0, symName: __RNvMNtCsfvfooZQ3Axs_4core6optionINtB2_6OptionNtCs3cP53eQoTwO_11proc_macro25IdentE6as_refCsLP87wc3c6O_10pdf_derive, symObjAddr: 0x15B0, symBinAddr: 0x196C8, symSize: 0x4C }
  - { offset: 0x4B14A, size: 0x8, addend: 0x0, symName: __RNvMNtCsfvfooZQ3Axs_4core6optionINtB2_6OptionNtNtCs5AlOhPCr03V_3syn3lit6LitStrE6as_refCsLP87wc3c6O_10pdf_derive, symObjAddr: 0x15FC, symBinAddr: 0x19714, symSize: 0x4C }
  - { offset: 0x4B194, size: 0x8, addend: 0x0, symName: __RNvMNtCsfvfooZQ3Axs_4core6optionINtB2_6OptionRNtNtCs5AlOhPCr03V_3syn3lit6LitStrE6expectCsLP87wc3c6O_10pdf_derive, symObjAddr: 0x1648, symBinAddr: 0x19760, symSize: 0x5C }
  - { offset: 0x4B1E1, size: 0x8, addend: 0x0, symName: __RNvMs3_NtNtCs9i5KxIbZ5ph_10proc_macro6bridge6bufferNtB5_6Buffer17extend_from_sliceCsLP87wc3c6O_10pdf_derive, symObjAddr: 0x16A4, symBinAddr: 0x197BC, symSize: 0x164 }
  - { offset: 0x4B39D, size: 0x8, addend: 0x0, symName: __RNvMs3_NtNtCs9i5KxIbZ5ph_10proc_macro6bridge6bufferNtB5_6Buffer4pushCsLP87wc3c6O_10pdf_derive, symObjAddr: 0x1808, symBinAddr: 0x19920, symSize: 0x134 }
  - { offset: 0x4B569, size: 0x8, addend: 0x0, symName: __RNvMs4_NtNtCsfvfooZQ3Axs_4core5slice4iterINtB5_4IterNtCs3cP53eQoTwO_11proc_macro211TokenStreamE3newCsLP87wc3c6O_10pdf_derive, symObjAddr: 0x193C, symBinAddr: 0x19A54, symSize: 0x50 }
  - { offset: 0x4B77B, size: 0x8, addend: 0x0, symName: __RNvMs4_NtNtCsfvfooZQ3Axs_4core5slice4iterINtB5_4IterTINtNtB9_6option6OptionNtCs3cP53eQoTwO_11proc_macro25IdentENtCsLP87wc3c6O_10pdf_derive10FieldAttrsIBQ_NtNtCs5AlOhPCr03V_3syn2ty4TypeEEE3newB1N_, symObjAddr: 0x198C, symBinAddr: 0x19AA4, symSize: 0x58 }
  - { offset: 0x4B93C, size: 0x8, addend: 0x0, symName: __RNvMs4_NtNtCsfvfooZQ3Axs_4core5slice4iterINtB5_4IterTNtNtCse1nGBsou5OW_5alloc6string6StringBP_EE3newCsLP87wc3c6O_10pdf_derive, symObjAddr: 0x19E4, symBinAddr: 0x19AFC, symSize: 0x58 }
  - { offset: 0x4BB0A, size: 0x8, addend: 0x0, symName: __RNvMs4_NtNtCsfvfooZQ3Axs_4core5slice4iterINtB5_4IterTNtNtCse1nGBsou5OW_5alloc6string6StringNtCs3cP53eQoTwO_11proc_macro211TokenStreamEE3newCsLP87wc3c6O_10pdf_derive, symObjAddr: 0x1A3C, symBinAddr: 0x19B54, symSize: 0x58 }
  - { offset: 0x4BDB1, size: 0x8, addend: 0x0, symName: __RNvXNtCs2cqEZUIJimJ_5quote9to_tokensRINtNtCsfvfooZQ3Axs_4core6option6OptionNtCs3cP53eQoTwO_11proc_macro25IdentENtB2_8ToTokens9to_tokensCsLP87wc3c6O_10pdf_derive, symObjAddr: 0x1EF0, symBinAddr: 0x1A008, symSize: 0x40 }
  - { offset: 0x4BDF6, size: 0x8, addend: 0x0, symName: __RNvXs3_NtCs2cqEZUIJimJ_5quote9to_tokensINtNtCsfvfooZQ3Axs_4core6option6OptionRNtNtCs5AlOhPCr03V_3syn8generics11WhereClauseENtB5_8ToTokens9to_tokensCsLP87wc3c6O_10pdf_derive, symObjAddr: 0x2754, symBinAddr: 0x1A86C, symSize: 0x84 }
  - { offset: 0x4BE5E, size: 0x8, addend: 0x0, symName: __RNvXs4_NtCs2cqEZUIJimJ_5quote9___privateINtB5_9RepInterpNtCs3cP53eQoTwO_11proc_macro211TokenStreamENtNtB7_9to_tokens8ToTokens9to_tokensCsLP87wc3c6O_10pdf_derive, symObjAddr: 0x27D8, symBinAddr: 0x1A8F0, symSize: 0x3C }
  - { offset: 0x4BE9D, size: 0x8, addend: 0x0, symName: __RNvXs4_NtCs2cqEZUIJimJ_5quote9___privateINtB5_9RepInterpRNtCs3cP53eQoTwO_11proc_macro211TokenStreamENtNtB7_9to_tokens8ToTokens9to_tokensCsLP87wc3c6O_10pdf_derive, symObjAddr: 0x2814, symBinAddr: 0x1A92C, symSize: 0x3C }
  - { offset: 0x4CAE8, size: 0x8, addend: 0x0, symName: __RINvXNtNtCse1nGBsou5OW_5alloc5slice4hackNtNtCs5AlOhPCr03V_3syn4item11ForeignItemNtB3_10ConvertVec6to_vecNtNtB7_5alloc6GlobalEBG_, symObjAddr: 0x0, symBinAddr: 0x1BDCC, symSize: 0x36C }
  - { offset: 0x4DC98, size: 0x8, addend: 0x0, symName: __RNvXNtNtCs5AlOhPCr03V_3syn4item7parsingNtB4_4ItemNtNtB6_5parse5Parse5parse, symObjAddr: 0x34F4, symBinAddr: 0x1D7CC, symSize: 0x4190 }
  - { offset: 0x4E60F, size: 0x8, addend: 0x0, symName: __RNvXs0_NtNtCs5AlOhPCr03V_3syn4item7parsingNtB7_9ItemMacroNtNtB9_5parse5Parse5parse, symObjAddr: 0x7684, symBinAddr: 0x2195C, symSize: 0x5C4 }
  - { offset: 0x4E7DD, size: 0x8, addend: 0x0, symName: __RNvXs1_NtNtCs5AlOhPCr03V_3syn4item7parsingNtB7_10ItemMacro2NtNtB9_5parse5Parse5parse, symObjAddr: 0x7C48, symBinAddr: 0x21F20, symSize: 0xBAC }
  - { offset: 0x4EAF5, size: 0x8, addend: 0x0, symName: __RNvXs2_NtNtCs5AlOhPCr03V_3syn4item7parsingNtB7_15ItemExternCrateNtNtB9_5parse5Parse5parse, symObjAddr: 0x87F4, symBinAddr: 0x22ACC, symSize: 0x934 }
  - { offset: 0x4ECFF, size: 0x8, addend: 0x0, symName: __RNvXs3_NtNtCs5AlOhPCr03V_3syn4item7parsingNtB7_7ItemUseNtNtB9_5parse5Parse5parse, symObjAddr: 0x9128, symBinAddr: 0x23400, symSize: 0x5FC }
  - { offset: 0x4EE4A, size: 0x8, addend: 0x0, symName: __RNvXs4_NtNtCs5AlOhPCr03V_3syn4item7parsingNtB7_7UseTreeNtNtB9_5parse5Parse5parse, symObjAddr: 0x9724, symBinAddr: 0x239FC, symSize: 0xBF0 }
  - { offset: 0x4F025, size: 0x8, addend: 0x0, symName: __RNvXs7_NtNtCs5AlOhPCr03V_3syn4item7parsingNtB7_9SignatureNtNtB9_5parse5Parse5parse, symObjAddr: 0xB898, symBinAddr: 0x245EC, symSize: 0xA98 }
  - { offset: 0x4F346, size: 0x8, addend: 0x0, symName: __RNvXs9_NtNtCs5AlOhPCr03V_3syn4item7parsingNtB7_5FnArgNtNtB9_5parse5Parse5parse, symObjAddr: 0xC68C, symBinAddr: 0x25084, symSize: 0x4F4 }
  - { offset: 0x4F44A, size: 0x8, addend: 0x0, symName: __RNvXsa_NtNtCs5AlOhPCr03V_3syn4item7parsingNtB7_8ReceiverNtNtB9_5parse5Parse5parse, symObjAddr: 0xCB80, symBinAddr: 0x25578, symSize: 0x410 }
  - { offset: 0x4F4EA, size: 0x8, addend: 0x0, symName: __RNvXsb_NtNtCs5AlOhPCr03V_3syn4item7parsingNtB7_7ItemModNtNtB9_5parse5Parse5parse, symObjAddr: 0xCF90, symBinAddr: 0x25988, symSize: 0xB0C }
  - { offset: 0x4F71F, size: 0x8, addend: 0x0, symName: __RNvXsc_NtNtCs5AlOhPCr03V_3syn4item7parsingNtB7_14ItemForeignModNtNtB9_5parse5Parse5parse, symObjAddr: 0xDA9C, symBinAddr: 0x26494, symSize: 0x564 }
  - { offset: 0x4F8A2, size: 0x8, addend: 0x0, symName: __RNvXsd_NtNtCs5AlOhPCr03V_3syn4item7parsingNtB7_11ForeignItemNtNtB9_5parse5Parse5parse, symObjAddr: 0xE000, symBinAddr: 0x269F8, symSize: 0x1B80 }
  - { offset: 0x4FDF4, size: 0x8, addend: 0x0, symName: __RNvXsh_NtNtCs5AlOhPCr03V_3syn4item7parsingNtB7_16ForeignItemMacroNtNtB9_5parse5Parse5parse, symObjAddr: 0x10C50, symBinAddr: 0x28578, symSize: 0x328 }
  - { offset: 0x4FF08, size: 0x8, addend: 0x0, symName: __RNvXsj_NtNtCs5AlOhPCr03V_3syn4item7parsingNtB7_10ItemStructNtNtB9_5parse5Parse5parse, symObjAddr: 0x11948, symBinAddr: 0x288A0, symSize: 0x630 }
  - { offset: 0x50105, size: 0x8, addend: 0x0, symName: __RNvXsk_NtNtCs5AlOhPCr03V_3syn4item7parsingNtB7_8ItemEnumNtNtB9_5parse5Parse5parse, symObjAddr: 0x11F78, symBinAddr: 0x28ED0, symSize: 0x624 }
  - { offset: 0x50301, size: 0x8, addend: 0x0, symName: __RNvXsl_NtNtCs5AlOhPCr03V_3syn4item7parsingNtB7_9ItemUnionNtNtB9_5parse5Parse5parse, symObjAddr: 0x1259C, symBinAddr: 0x294F4, symSize: 0x61C }
  - { offset: 0x504ED, size: 0x8, addend: 0x0, symName: __RNvXsm_NtNtCs5AlOhPCr03V_3syn4item7parsingNtB7_9ItemTraitNtNtB9_5parse5Parse5parse, symObjAddr: 0x12BB8, symBinAddr: 0x29B10, symSize: 0x62C }
  - { offset: 0x506F4, size: 0x8, addend: 0x0, symName: __RNvXso_NtNtCs5AlOhPCr03V_3syn4item7parsingNtB7_9TraitItemNtNtB9_5parse5Parse5parse, symObjAddr: 0x1345C, symBinAddr: 0x2A13C, symSize: 0xD5C }
  - { offset: 0x50947, size: 0x8, addend: 0x0, symName: __RNvXsp_NtNtCs5AlOhPCr03V_3syn4item7parsingNtB7_14TraitItemConstNtNtB9_5parse5Parse5parse, symObjAddr: 0x141B8, symBinAddr: 0x2AE98, symSize: 0x8E0 }
  - { offset: 0x50AF5, size: 0x8, addend: 0x0, symName: __RNvXsq_NtNtCs5AlOhPCr03V_3syn4item7parsingNtB7_15TraitItemMethodNtNtB9_5parse5Parse5parse, symObjAddr: 0x14A98, symBinAddr: 0x2B778, symSize: 0x7D4 }
  - { offset: 0x50CF7, size: 0x8, addend: 0x0, symName: __RNvXss_NtNtCs5AlOhPCr03V_3syn4item7parsingNtB7_14TraitItemMacroNtNtB9_5parse5Parse5parse, symObjAddr: 0x15D08, symBinAddr: 0x2BF4C, symSize: 0x328 }
  - { offset: 0x50E0B, size: 0x8, addend: 0x0, symName: __RNvXsu_NtNtCs5AlOhPCr03V_3syn4item7parsingNtB7_8ImplItemNtNtB9_5parse5Parse5parse, symObjAddr: 0x16090, symBinAddr: 0x2C274, symSize: 0x1648 }
  - { offset: 0x511F5, size: 0x8, addend: 0x0, symName: __RNvXsw_NtNtCs5AlOhPCr03V_3syn4item7parsingNtB7_14ImplItemMethodNtNtB9_5parse5Parse5parse, symObjAddr: 0x18304, symBinAddr: 0x2D8BC, symSize: 0x9C8 }
  - { offset: 0x51458, size: 0x8, addend: 0x0, symName: __RNvXsy_NtNtCs5AlOhPCr03V_3syn4item7parsingNtB7_13ImplItemMacroNtNtB9_5parse5Parse5parse, symObjAddr: 0x1950C, symBinAddr: 0x2E284, symSize: 0x328 }
  - { offset: 0x51572, size: 0x8, addend: 0x0, symName: __RNvXNtNtCs5AlOhPCr03V_3syn4item8printingNtB4_15ItemExternCrateNtNtCs2cqEZUIJimJ_5quote9to_tokens8ToTokens9to_tokens, symObjAddr: 0x19834, symBinAddr: 0x2E5AC, symSize: 0x110 }
  - { offset: 0x515DF, size: 0x8, addend: 0x0, symName: __RNvXs_NtNtCs5AlOhPCr03V_3syn4item8printingNtB6_7ItemUseNtNtCs2cqEZUIJimJ_5quote9to_tokens8ToTokens9to_tokens, symObjAddr: 0x19944, symBinAddr: 0x2E6BC, symSize: 0xA4 }
  - { offset: 0x5161E, size: 0x8, addend: 0x0, symName: __RNvXs0_NtNtCs5AlOhPCr03V_3syn4item8printingNtB7_10ItemStaticNtNtCs2cqEZUIJimJ_5quote9to_tokens8ToTokens9to_tokens, symObjAddr: 0x199E8, symBinAddr: 0x2E760, symSize: 0xE4 }
  - { offset: 0x5165D, size: 0x8, addend: 0x0, symName: __RNvXs1_NtNtCs5AlOhPCr03V_3syn4item8printingNtB7_9ItemConstNtNtCs2cqEZUIJimJ_5quote9to_tokens8ToTokens9to_tokens, symObjAddr: 0x19ACC, symBinAddr: 0x2E844, symSize: 0xD4 }
  - { offset: 0x5169C, size: 0x8, addend: 0x0, symName: __RNvXs2_NtNtCs5AlOhPCr03V_3syn4item8printingNtB7_6ItemFnNtNtCs2cqEZUIJimJ_5quote9to_tokens8ToTokens9to_tokens, symObjAddr: 0x19BA0, symBinAddr: 0x2E918, symSize: 0xB0 }
  - { offset: 0x516DB, size: 0x8, addend: 0x0, symName: __RNvXs3_NtNtCs5AlOhPCr03V_3syn4item8printingNtB7_7ItemModNtNtCs2cqEZUIJimJ_5quote9to_tokens8ToTokens9to_tokens, symObjAddr: 0x19C50, symBinAddr: 0x2E9C8, symSize: 0x104 }
  - { offset: 0x51748, size: 0x8, addend: 0x0, symName: __RNvXs4_NtNtCs5AlOhPCr03V_3syn4item8printingNtB7_14ItemForeignModNtNtCs2cqEZUIJimJ_5quote9to_tokens8ToTokens9to_tokens, symObjAddr: 0x19D54, symBinAddr: 0x2EACC, symSize: 0x80 }
  - { offset: 0x51787, size: 0x8, addend: 0x0, symName: __RNvXs5_NtNtCs5AlOhPCr03V_3syn4item8printingNtB7_8ItemTypeNtNtCs2cqEZUIJimJ_5quote9to_tokens8ToTokens9to_tokens, symObjAddr: 0x19DD4, symBinAddr: 0x2EB4C, symSize: 0xD4 }
  - { offset: 0x517C6, size: 0x8, addend: 0x0, symName: __RNvXs6_NtNtCs5AlOhPCr03V_3syn4item8printingNtB7_8ItemEnumNtNtCs2cqEZUIJimJ_5quote9to_tokens8ToTokens9to_tokens, symObjAddr: 0x19EA8, symBinAddr: 0x2EC20, symSize: 0xC0 }
  - { offset: 0x51805, size: 0x8, addend: 0x0, symName: __RNvXs7_NtNtCs5AlOhPCr03V_3syn4item8printingNtB7_10ItemStructNtNtCs2cqEZUIJimJ_5quote9to_tokens8ToTokens9to_tokens, symObjAddr: 0x19F68, symBinAddr: 0x2ECE0, symSize: 0x188 }
  - { offset: 0x51880, size: 0x8, addend: 0x0, symName: __RNvXs8_NtNtCs5AlOhPCr03V_3syn4item8printingNtB7_9ItemUnionNtNtCs2cqEZUIJimJ_5quote9to_tokens8ToTokens9to_tokens, symObjAddr: 0x1A0F0, symBinAddr: 0x2EE68, symSize: 0xB4 }
  - { offset: 0x518BF, size: 0x8, addend: 0x0, symName: __RNvXs9_NtNtCs5AlOhPCr03V_3syn4item8printingNtB7_9ItemTraitNtNtCs2cqEZUIJimJ_5quote9to_tokens8ToTokens9to_tokens, symObjAddr: 0x1A1A4, symBinAddr: 0x2EF1C, symSize: 0x138 }
  - { offset: 0x518FE, size: 0x8, addend: 0x0, symName: __RNvXsa_NtNtCs5AlOhPCr03V_3syn4item8printingNtB7_14ItemTraitAliasNtNtCs2cqEZUIJimJ_5quote9to_tokens8ToTokens9to_tokens, symObjAddr: 0x1A2DC, symBinAddr: 0x2F054, symSize: 0xD4 }
  - { offset: 0x5193D, size: 0x8, addend: 0x0, symName: __RNvXsb_NtNtCs5AlOhPCr03V_3syn4item8printingNtB7_8ItemImplNtNtCs2cqEZUIJimJ_5quote9to_tokens8ToTokens9to_tokens, symObjAddr: 0x1A3B0, symBinAddr: 0x2F128, symSize: 0x158 }
  - { offset: 0x519BA, size: 0x8, addend: 0x0, symName: __RNvXsc_NtNtCs5AlOhPCr03V_3syn4item8printingNtB7_9ItemMacroNtNtCs2cqEZUIJimJ_5quote9to_tokens8ToTokens9to_tokens, symObjAddr: 0x1A508, symBinAddr: 0x2F280, symSize: 0x148 }
  - { offset: 0x51A4B, size: 0x8, addend: 0x0, symName: __RNvXsd_NtNtCs5AlOhPCr03V_3syn4item8printingNtB7_10ItemMacro2NtNtCs2cqEZUIJimJ_5quote9to_tokens8ToTokens9to_tokens, symObjAddr: 0x1A650, symBinAddr: 0x2F3C8, symSize: 0x94 }
  - { offset: 0x51A8A, size: 0x8, addend: 0x0, symName: __RNvXse_NtNtCs5AlOhPCr03V_3syn4item8printingNtB7_7UsePathNtNtCs2cqEZUIJimJ_5quote9to_tokens8ToTokens9to_tokens, symObjAddr: 0x1A6E4, symBinAddr: 0x2F45C, symSize: 0x60 }
  - { offset: 0x51AC9, size: 0x8, addend: 0x0, symName: __RNvXsf_NtNtCs5AlOhPCr03V_3syn4item8printingNtB7_7UseNameNtNtCs2cqEZUIJimJ_5quote9to_tokens8ToTokens9to_tokens, symObjAddr: 0x1A744, symBinAddr: 0x2F4BC, symSize: 0x3C }
  - { offset: 0x51B08, size: 0x8, addend: 0x0, symName: __RNvXsg_NtNtCs5AlOhPCr03V_3syn4item8printingNtB7_9UseRenameNtNtCs2cqEZUIJimJ_5quote9to_tokens8ToTokens9to_tokens, symObjAddr: 0x1A780, symBinAddr: 0x2F4F8, symSize: 0x60 }
  - { offset: 0x51B47, size: 0x8, addend: 0x0, symName: __RNvXsh_NtNtCs5AlOhPCr03V_3syn4item8printingNtB7_7UseGlobNtNtCs2cqEZUIJimJ_5quote9to_tokens8ToTokens9to_tokens, symObjAddr: 0x1A7E0, symBinAddr: 0x2F558, symSize: 0x3C }
  - { offset: 0x51B86, size: 0x8, addend: 0x0, symName: __RNvXsi_NtNtCs5AlOhPCr03V_3syn4item8printingNtB7_8UseGroupNtNtCs2cqEZUIJimJ_5quote9to_tokens8ToTokens9to_tokens, symObjAddr: 0x1A81C, symBinAddr: 0x2F594, symSize: 0x44 }
  - { offset: 0x51BC5, size: 0x8, addend: 0x0, symName: __RNvXsj_NtNtCs5AlOhPCr03V_3syn4item8printingNtB7_14TraitItemConstNtNtCs2cqEZUIJimJ_5quote9to_tokens8ToTokens9to_tokens, symObjAddr: 0x1A860, symBinAddr: 0x2F5D8, symSize: 0x118 }
  - { offset: 0x51C32, size: 0x8, addend: 0x0, symName: __RNvXsk_NtNtCs5AlOhPCr03V_3syn4item8printingNtB7_15TraitItemMethodNtNtCs2cqEZUIJimJ_5quote9to_tokens8ToTokens9to_tokens, symObjAddr: 0x1A978, symBinAddr: 0x2F6F0, symSize: 0xDC }
  - { offset: 0x51C8F, size: 0x8, addend: 0x0, symName: __RNvXsl_NtNtCs5AlOhPCr03V_3syn4item8printingNtB7_13TraitItemTypeNtNtCs2cqEZUIJimJ_5quote9to_tokens8ToTokens9to_tokens, symObjAddr: 0x1AA54, symBinAddr: 0x2F7CC, symSize: 0x178 }
  - { offset: 0x51CFC, size: 0x8, addend: 0x0, symName: __RNvXsm_NtNtCs5AlOhPCr03V_3syn4item8printingNtB7_14TraitItemMacroNtNtCs2cqEZUIJimJ_5quote9to_tokens8ToTokens9to_tokens, symObjAddr: 0x1ABCC, symBinAddr: 0x2F944, symSize: 0x74 }
  - { offset: 0x51D3B, size: 0x8, addend: 0x0, symName: __RNvXsn_NtNtCs5AlOhPCr03V_3syn4item8printingNtB7_13ImplItemConstNtNtCs2cqEZUIJimJ_5quote9to_tokens8ToTokens9to_tokens, symObjAddr: 0x1AC40, symBinAddr: 0x2F9B8, symSize: 0xE4 }
  - { offset: 0x51D7A, size: 0x8, addend: 0x0, symName: __RNvXso_NtNtCs5AlOhPCr03V_3syn4item8printingNtB7_14ImplItemMethodNtNtCs2cqEZUIJimJ_5quote9to_tokens8ToTokens9to_tokens, symObjAddr: 0x1AD24, symBinAddr: 0x2FA9C, symSize: 0x1E8 }
  - { offset: 0x51DCF, size: 0x8, addend: 0x0, symName: __RNvXsp_NtNtCs5AlOhPCr03V_3syn4item8printingNtB7_12ImplItemTypeNtNtCs2cqEZUIJimJ_5quote9to_tokens8ToTokens9to_tokens, symObjAddr: 0x1AF0C, symBinAddr: 0x2FC84, symSize: 0xE4 }
  - { offset: 0x51E0E, size: 0x8, addend: 0x0, symName: __RNvXsq_NtNtCs5AlOhPCr03V_3syn4item8printingNtB7_13ImplItemMacroNtNtCs2cqEZUIJimJ_5quote9to_tokens8ToTokens9to_tokens, symObjAddr: 0x1AFF0, symBinAddr: 0x2FD68, symSize: 0x74 }
  - { offset: 0x51E4D, size: 0x8, addend: 0x0, symName: __RNvXsr_NtNtCs5AlOhPCr03V_3syn4item8printingNtB7_13ForeignItemFnNtNtCs2cqEZUIJimJ_5quote9to_tokens8ToTokens9to_tokens, symObjAddr: 0x1B064, symBinAddr: 0x2FDDC, symSize: 0x84 }
  - { offset: 0x51E8C, size: 0x8, addend: 0x0, symName: __RNvXss_NtNtCs5AlOhPCr03V_3syn4item8printingNtB7_17ForeignItemStaticNtNtCs2cqEZUIJimJ_5quote9to_tokens8ToTokens9to_tokens, symObjAddr: 0x1B0E8, symBinAddr: 0x2FE60, symSize: 0xC4 }
  - { offset: 0x51ECB, size: 0x8, addend: 0x0, symName: __RNvXst_NtNtCs5AlOhPCr03V_3syn4item8printingNtB7_15ForeignItemTypeNtNtCs2cqEZUIJimJ_5quote9to_tokens8ToTokens9to_tokens, symObjAddr: 0x1B1AC, symBinAddr: 0x2FF24, symSize: 0x94 }
  - { offset: 0x51F0A, size: 0x8, addend: 0x0, symName: __RNvXsu_NtNtCs5AlOhPCr03V_3syn4item8printingNtB7_16ForeignItemMacroNtNtCs2cqEZUIJimJ_5quote9to_tokens8ToTokens9to_tokens, symObjAddr: 0x1B240, symBinAddr: 0x2FFB8, symSize: 0x74 }
  - { offset: 0x51F49, size: 0x8, addend: 0x0, symName: __RNvXsv_NtNtCs5AlOhPCr03V_3syn4item8printingNtB7_9SignatureNtNtCs2cqEZUIJimJ_5quote9to_tokens8ToTokens9to_tokens, symObjAddr: 0x1B2B4, symBinAddr: 0x3002C, symSize: 0xDC }
  - { offset: 0x51F88, size: 0x8, addend: 0x0, symName: __RNvXsw_NtNtCs5AlOhPCr03V_3syn4item8printingNtB7_8ReceiverNtNtCs2cqEZUIJimJ_5quote9to_tokens8ToTokens9to_tokens, symObjAddr: 0x1B390, symBinAddr: 0x30108, symSize: 0xE0 }
  - { offset: 0x51FFB, size: 0x8, addend: 0x0, symName: __RNcNtNtNtCs5AlOhPCr03V_3syn4item4Item4Enum0B7_, symObjAddr: 0x1B470, symBinAddr: 0x301E8, symSize: 0x3C }
  - { offset: 0x5202A, size: 0x8, addend: 0x0, symName: __RNcNtNtNtCs5AlOhPCr03V_3syn4item4Item11ExternCrate0B7_, symObjAddr: 0x1B4AC, symBinAddr: 0x30224, symSize: 0x3C }
  - { offset: 0x52059, size: 0x8, addend: 0x0, symName: __RNcNtNtNtCs5AlOhPCr03V_3syn4item4Item2Fn0B7_, symObjAddr: 0x1B4E8, symBinAddr: 0x30260, symSize: 0x30 }
  - { offset: 0x52088, size: 0x8, addend: 0x0, symName: __RNcNtNtNtCs5AlOhPCr03V_3syn4item4Item10ForeignMod0B7_, symObjAddr: 0x1B518, symBinAddr: 0x30290, symSize: 0x3C }
  - { offset: 0x520B7, size: 0x8, addend: 0x0, symName: __RNcNtNtNtCs5AlOhPCr03V_3syn4item4Item5Macro0B7_, symObjAddr: 0x1B554, symBinAddr: 0x302CC, symSize: 0x3C }
  - { offset: 0x520E6, size: 0x8, addend: 0x0, symName: __RNcNtNtNtCs5AlOhPCr03V_3syn4item4Item6Macro20B7_, symObjAddr: 0x1B590, symBinAddr: 0x30308, symSize: 0x3C }
  - { offset: 0x52115, size: 0x8, addend: 0x0, symName: __RNcNtNtNtCs5AlOhPCr03V_3syn4item4Item3Mod0B7_, symObjAddr: 0x1B5CC, symBinAddr: 0x30344, symSize: 0x3C }
  - { offset: 0x52144, size: 0x8, addend: 0x0, symName: __RNcNtNtNtCs5AlOhPCr03V_3syn4item4Item6Struct0B7_, symObjAddr: 0x1B608, symBinAddr: 0x30380, symSize: 0x3C }
  - { offset: 0x52173, size: 0x8, addend: 0x0, symName: __RNcNtNtNtCs5AlOhPCr03V_3syn4item4Item5Trait0B7_, symObjAddr: 0x1B644, symBinAddr: 0x303BC, symSize: 0x3C }
  - { offset: 0x521A2, size: 0x8, addend: 0x0, symName: __RNcNtNtNtCs5AlOhPCr03V_3syn4item4Item10TraitAlias0B7_, symObjAddr: 0x1B680, symBinAddr: 0x303F8, symSize: 0x3C }
  - { offset: 0x521D1, size: 0x8, addend: 0x0, symName: __RNcNtNtNtCs5AlOhPCr03V_3syn4item4Item5Union0B7_, symObjAddr: 0x1B6BC, symBinAddr: 0x30434, symSize: 0x3C }
  - { offset: 0x52200, size: 0x8, addend: 0x0, symName: __RNcNtNtNtCs5AlOhPCr03V_3syn4item4Item3Use0B7_, symObjAddr: 0x1B6F8, symBinAddr: 0x30470, symSize: 0x3C }
  - { offset: 0x52230, size: 0x8, addend: 0x0, symName: __RNvXsl_NtCs5AlOhPCr03V_3syn4itemNtB5_4ItemNtNtCs2cqEZUIJimJ_5quote9to_tokens8ToTokens9to_tokens, symObjAddr: 0x1BBE8, symBinAddr: 0x304AC, symSize: 0x24C }
  - { offset: 0x5245F, size: 0x8, addend: 0x0, symName: __RNvXsr_NtCs5AlOhPCr03V_3syn4itemNtB5_7UseTreeNtNtCs2cqEZUIJimJ_5quote9to_tokens8ToTokens9to_tokens, symObjAddr: 0x1BF78, symBinAddr: 0x306F8, symSize: 0x114 }
  - { offset: 0x52531, size: 0x8, addend: 0x0, symName: __RNcNtNtNtCs5AlOhPCr03V_3syn4item11ForeignItem5Macro0B7_, symObjAddr: 0x1C08C, symBinAddr: 0x3080C, symSize: 0x3C }
  - { offset: 0x52563, size: 0x8, addend: 0x0, symName: __RNvXsw_NtCs5AlOhPCr03V_3syn4itemNtB5_11ForeignItemNtNtCs2cqEZUIJimJ_5quote9to_tokens8ToTokens9to_tokens, symObjAddr: 0x1C1EC, symBinAddr: 0x30848, symSize: 0x118 }
  - { offset: 0x52635, size: 0x8, addend: 0x0, symName: __RNcNtNtNtCs5AlOhPCr03V_3syn4item9TraitItem5Const0B7_, symObjAddr: 0x1C304, symBinAddr: 0x30960, symSize: 0x30 }
  - { offset: 0x52666, size: 0x8, addend: 0x0, symName: __RNcNtNtNtCs5AlOhPCr03V_3syn4item9TraitItem6Method0B7_, symObjAddr: 0x1C334, symBinAddr: 0x30990, symSize: 0x3C }
  - { offset: 0x52697, size: 0x8, addend: 0x0, symName: __RNcNtNtNtCs5AlOhPCr03V_3syn4item9TraitItem5Macro0B7_, symObjAddr: 0x1C370, symBinAddr: 0x309CC, symSize: 0x40 }
  - { offset: 0x526C9, size: 0x8, addend: 0x0, symName: __RNvXsB_NtCs5AlOhPCr03V_3syn4itemNtB5_9TraitItemNtNtCs2cqEZUIJimJ_5quote9to_tokens8ToTokens9to_tokens, symObjAddr: 0x1C4D8, symBinAddr: 0x30A0C, symSize: 0x11C }
  - { offset: 0x5279B, size: 0x8, addend: 0x0, symName: __RNcNtNtNtCs5AlOhPCr03V_3syn4item8ImplItem6Method0B7_, symObjAddr: 0x1C5F4, symBinAddr: 0x30B28, symSize: 0x3C }
  - { offset: 0x527CC, size: 0x8, addend: 0x0, symName: __RNcNtNtNtCs5AlOhPCr03V_3syn4item8ImplItem5Macro0B7_, symObjAddr: 0x1C630, symBinAddr: 0x30B64, symSize: 0x40 }
  - { offset: 0x527FE, size: 0x8, addend: 0x0, symName: __RNvXsG_NtCs5AlOhPCr03V_3syn4itemNtB5_8ImplItemNtNtCs2cqEZUIJimJ_5quote9to_tokens8ToTokens9to_tokens, symObjAddr: 0x1C798, symBinAddr: 0x30BA4, symSize: 0x11C }
  - { offset: 0x56380, size: 0x8, addend: 0x0, symName: __RNvXs12_NtNtCs5AlOhPCr03V_3syn3gen5cloneNtNtBa_4item5FnArgNtNtCsfvfooZQ3Axs_4core5clone5Clone5clone, symObjAddr: 0x1C9CC, symBinAddr: 0x30CC0, symSize: 0xDC }
  - { offset: 0x563E8, size: 0x8, addend: 0x0, symName: __RNvXs13_NtNtCs5AlOhPCr03V_3syn3gen5cloneNtNtBa_4item11ForeignItemNtNtCsfvfooZQ3Axs_4core5clone5Clone5clone, symObjAddr: 0x1CAA8, symBinAddr: 0x30D9C, symSize: 0x218 }
  - { offset: 0x564AA, size: 0x8, addend: 0x0, symName: __RNvXs14_NtNtCs5AlOhPCr03V_3syn3gen5cloneNtNtBa_4item13ForeignItemFnNtNtCsfvfooZQ3Axs_4core5clone5Clone5clone, symObjAddr: 0x1CCC0, symBinAddr: 0x30FB4, symSize: 0x13C }
  - { offset: 0x564DE, size: 0x8, addend: 0x0, symName: __RNvXs15_NtNtCs5AlOhPCr03V_3syn3gen5cloneNtNtBa_4item16ForeignItemMacroNtNtCsfvfooZQ3Axs_4core5clone5Clone5clone, symObjAddr: 0x1CDFC, symBinAddr: 0x310F0, symSize: 0xF4 }
  - { offset: 0x56512, size: 0x8, addend: 0x0, symName: __RNvXs16_NtNtCs5AlOhPCr03V_3syn3gen5cloneNtNtBa_4item17ForeignItemStaticNtNtCsfvfooZQ3Axs_4core5clone5Clone5clone, symObjAddr: 0x1CEF0, symBinAddr: 0x311E4, symSize: 0x1DC }
  - { offset: 0x56546, size: 0x8, addend: 0x0, symName: __RNvXs17_NtNtCs5AlOhPCr03V_3syn3gen5cloneNtNtBa_4item15ForeignItemTypeNtNtCsfvfooZQ3Axs_4core5clone5Clone5clone, symObjAddr: 0x1D0CC, symBinAddr: 0x313C0, symSize: 0x148 }
  - { offset: 0x5657A, size: 0x8, addend: 0x0, symName: __RNvXs1c_NtNtCs5AlOhPCr03V_3syn3gen5cloneNtNtBa_4item8ImplItemNtNtCsfvfooZQ3Axs_4core5clone5Clone5clone, symObjAddr: 0x1D214, symBinAddr: 0x31508, symSize: 0x230 }
  - { offset: 0x5663C, size: 0x8, addend: 0x0, symName: __RNvXs1d_NtNtCs5AlOhPCr03V_3syn3gen5cloneNtNtBa_4item13ImplItemConstNtNtCsfvfooZQ3Axs_4core5clone5Clone5clone, symObjAddr: 0x1D444, symBinAddr: 0x31738, symSize: 0x264 }
  - { offset: 0x56670, size: 0x8, addend: 0x0, symName: __RNvXs1e_NtNtCs5AlOhPCr03V_3syn3gen5cloneNtNtBa_4item13ImplItemMacroNtNtCsfvfooZQ3Axs_4core5clone5Clone5clone, symObjAddr: 0x1D6A8, symBinAddr: 0x3199C, symSize: 0xF4 }
  - { offset: 0x566A4, size: 0x8, addend: 0x0, symName: __RNvXs1f_NtNtCs5AlOhPCr03V_3syn3gen5cloneNtNtBa_4item14ImplItemMethodNtNtCsfvfooZQ3Axs_4core5clone5Clone5clone, symObjAddr: 0x1D79C, symBinAddr: 0x31A90, symSize: 0x15C }
  - { offset: 0x566D8, size: 0x8, addend: 0x0, symName: __RNvXs1g_NtNtCs5AlOhPCr03V_3syn3gen5cloneNtNtBa_4item12ImplItemTypeNtNtCsfvfooZQ3Axs_4core5clone5Clone5clone, symObjAddr: 0x1D8F8, symBinAddr: 0x31BEC, symSize: 0x238 }
  - { offset: 0x5670C, size: 0x8, addend: 0x0, symName: __RNvXs1i_NtNtCs5AlOhPCr03V_3syn3gen5cloneNtNtBa_4item4ItemNtNtCsfvfooZQ3Axs_4core5clone5Clone5clone, symObjAddr: 0x1DB30, symBinAddr: 0x31E24, symSize: 0x628 }
  - { offset: 0x56942, size: 0x8, addend: 0x0, symName: __RNvXs1j_NtNtCs5AlOhPCr03V_3syn3gen5cloneNtNtBa_4item9ItemConstNtNtCsfvfooZQ3Axs_4core5clone5Clone5clone, symObjAddr: 0x1E158, symBinAddr: 0x3244C, symSize: 0x220 }
  - { offset: 0x56976, size: 0x8, addend: 0x0, symName: __RNvXs1k_NtNtCs5AlOhPCr03V_3syn3gen5cloneNtNtBa_4item8ItemEnumNtNtCsfvfooZQ3Axs_4core5clone5Clone5clone, symObjAddr: 0x1E378, symBinAddr: 0x3266C, symSize: 0x1AC }
  - { offset: 0x569AA, size: 0x8, addend: 0x0, symName: __RNvXs1l_NtNtCs5AlOhPCr03V_3syn3gen5cloneNtNtBa_4item15ItemExternCrateNtNtCsfvfooZQ3Axs_4core5clone5Clone5clone, symObjAddr: 0x1E524, symBinAddr: 0x32818, symSize: 0x1A4 }
  - { offset: 0x569DE, size: 0x8, addend: 0x0, symName: __RNvXs1m_NtNtCs5AlOhPCr03V_3syn3gen5cloneNtNtBa_4item6ItemFnNtNtCsfvfooZQ3Axs_4core5clone5Clone5clone, symObjAddr: 0x1E6C8, symBinAddr: 0x329BC, symSize: 0x12C }
  - { offset: 0x56A12, size: 0x8, addend: 0x0, symName: __RNvXs1n_NtNtCs5AlOhPCr03V_3syn3gen5cloneNtNtBa_4item14ItemForeignModNtNtCsfvfooZQ3Axs_4core5clone5Clone5clone, symObjAddr: 0x1E7F4, symBinAddr: 0x32AE8, symSize: 0x11C }
  - { offset: 0x56A46, size: 0x8, addend: 0x0, symName: __RNvXs1o_NtNtCs5AlOhPCr03V_3syn3gen5cloneNtNtBa_4item8ItemImplNtNtCsfvfooZQ3Axs_4core5clone5Clone5clone, symObjAddr: 0x1E910, symBinAddr: 0x32C04, symSize: 0x20C }
  - { offset: 0x56A7A, size: 0x8, addend: 0x0, symName: __RNvXs1p_NtNtCs5AlOhPCr03V_3syn3gen5cloneNtNtBa_4item9ItemMacroNtNtCsfvfooZQ3Axs_4core5clone5Clone5clone, symObjAddr: 0x1EB1C, symBinAddr: 0x32E10, symSize: 0x134 }
  - { offset: 0x56AAE, size: 0x8, addend: 0x0, symName: __RNvXs1q_NtNtCs5AlOhPCr03V_3syn3gen5cloneNtNtBa_4item10ItemMacro2NtNtCsfvfooZQ3Axs_4core5clone5Clone5clone, symObjAddr: 0x1EC50, symBinAddr: 0x32F44, symSize: 0x140 }
  - { offset: 0x56AE2, size: 0x8, addend: 0x0, symName: __RNvXs1r_NtNtCs5AlOhPCr03V_3syn3gen5cloneNtNtBa_4item7ItemModNtNtCsfvfooZQ3Axs_4core5clone5Clone5clone, symObjAddr: 0x1ED90, symBinAddr: 0x33084, symSize: 0x188 }
  - { offset: 0x56B16, size: 0x8, addend: 0x0, symName: __RNvXs1s_NtNtCs5AlOhPCr03V_3syn3gen5cloneNtNtBa_4item10ItemStaticNtNtCsfvfooZQ3Axs_4core5clone5Clone5clone, symObjAddr: 0x1EF18, symBinAddr: 0x3320C, symSize: 0x248 }
  - { offset: 0x56B4A, size: 0x8, addend: 0x0, symName: __RNvXs1t_NtNtCs5AlOhPCr03V_3syn3gen5cloneNtNtBa_4item10ItemStructNtNtCsfvfooZQ3Axs_4core5clone5Clone5clone, symObjAddr: 0x1F160, symBinAddr: 0x33454, symSize: 0x1DC }
  - { offset: 0x56B7E, size: 0x8, addend: 0x0, symName: __RNvXs1u_NtNtCs5AlOhPCr03V_3syn3gen5cloneNtNtBa_4item9ItemTraitNtNtCsfvfooZQ3Axs_4core5clone5Clone5clone, symObjAddr: 0x1F33C, symBinAddr: 0x33630, symSize: 0x27C }
  - { offset: 0x56BB2, size: 0x8, addend: 0x0, symName: __RNvXs1v_NtNtCs5AlOhPCr03V_3syn3gen5cloneNtNtBa_4item14ItemTraitAliasNtNtCsfvfooZQ3Axs_4core5clone5Clone5clone, symObjAddr: 0x1F5B8, symBinAddr: 0x338AC, symSize: 0x210 }
  - { offset: 0x56BE6, size: 0x8, addend: 0x0, symName: __RNvXs1w_NtNtCs5AlOhPCr03V_3syn3gen5cloneNtNtBa_4item8ItemTypeNtNtCsfvfooZQ3Axs_4core5clone5Clone5clone, symObjAddr: 0x1F7C8, symBinAddr: 0x33ABC, symSize: 0x204 }
  - { offset: 0x56C1A, size: 0x8, addend: 0x0, symName: __RNvXs1x_NtNtCs5AlOhPCr03V_3syn3gen5cloneNtNtBa_4item9ItemUnionNtNtCsfvfooZQ3Axs_4core5clone5Clone5clone, symObjAddr: 0x1F9CC, symBinAddr: 0x33CC0, symSize: 0x194 }
  - { offset: 0x56C4E, size: 0x8, addend: 0x0, symName: __RNvXs1y_NtNtCs5AlOhPCr03V_3syn3gen5cloneNtNtBa_4item7ItemUseNtNtCsfvfooZQ3Axs_4core5clone5Clone5clone, symObjAddr: 0x1FB60, symBinAddr: 0x33E54, symSize: 0x174 }
  - { offset: 0x56C82, size: 0x8, addend: 0x0, symName: __RNvXs2c_NtNtCs5AlOhPCr03V_3syn3gen5cloneNtNtBa_4item8ReceiverNtNtCsfvfooZQ3Axs_4core5clone5Clone5clone, symObjAddr: 0x1FCD4, symBinAddr: 0x33FC8, symSize: 0x10C }
  - { offset: 0x56CB6, size: 0x8, addend: 0x0, symName: __RNvXs2e_NtNtCs5AlOhPCr03V_3syn3gen5cloneNtNtBa_4item9SignatureNtNtCsfvfooZQ3Axs_4core5clone5Clone5clone, symObjAddr: 0x1FDE0, symBinAddr: 0x340D4, symSize: 0x268 }
  - { offset: 0x56CEA, size: 0x8, addend: 0x0, symName: __RNvXs2j_NtNtCs5AlOhPCr03V_3syn3gen5cloneNtNtBa_4item9TraitItemNtNtCsfvfooZQ3Axs_4core5clone5Clone5clone, symObjAddr: 0x20048, symBinAddr: 0x3433C, symSize: 0x224 }
  - { offset: 0x56DAC, size: 0x8, addend: 0x0, symName: __RNvXs2k_NtNtCs5AlOhPCr03V_3syn3gen5cloneNtNtBa_4item14TraitItemConstNtNtCsfvfooZQ3Axs_4core5clone5Clone5clone, symObjAddr: 0x2026C, symBinAddr: 0x34560, symSize: 0x1CC }
  - { offset: 0x56DE0, size: 0x8, addend: 0x0, symName: __RNvXs2l_NtNtCs5AlOhPCr03V_3syn3gen5cloneNtNtBa_4item14TraitItemMacroNtNtCsfvfooZQ3Axs_4core5clone5Clone5clone, symObjAddr: 0x20438, symBinAddr: 0x3472C, symSize: 0xF4 }
  - { offset: 0x56E14, size: 0x8, addend: 0x0, symName: __RNvXs2m_NtNtCs5AlOhPCr03V_3syn3gen5cloneNtNtBa_4item15TraitItemMethodNtNtCsfvfooZQ3Axs_4core5clone5Clone5clone, symObjAddr: 0x2052C, symBinAddr: 0x34820, symSize: 0x148 }
  - { offset: 0x56E48, size: 0x8, addend: 0x0, symName: __RNvXs2n_NtNtCs5AlOhPCr03V_3syn3gen5cloneNtNtBa_4item13TraitItemTypeNtNtCsfvfooZQ3Axs_4core5clone5Clone5clone, symObjAddr: 0x20674, symBinAddr: 0x34968, symSize: 0x210 }
  - { offset: 0x56E7C, size: 0x8, addend: 0x0, symName: __RNvXs2H_NtNtCs5AlOhPCr03V_3syn3gen5cloneNtNtBa_4item7UseGlobNtNtCsfvfooZQ3Axs_4core5clone5Clone5clone, symObjAddr: 0x20884, symBinAddr: 0x34B78, symSize: 0x4C }
  - { offset: 0x56EB0, size: 0x8, addend: 0x0, symName: __RNvXs2I_NtNtCs5AlOhPCr03V_3syn3gen5cloneNtNtBa_4item8UseGroupNtNtCsfvfooZQ3Axs_4core5clone5Clone5clone, symObjAddr: 0x208D0, symBinAddr: 0x34BC4, symSize: 0x6C }
  - { offset: 0x56EE4, size: 0x8, addend: 0x0, symName: __RNvXs2J_NtNtCs5AlOhPCr03V_3syn3gen5cloneNtNtBa_4item7UseNameNtNtCsfvfooZQ3Axs_4core5clone5Clone5clone, symObjAddr: 0x2093C, symBinAddr: 0x34C30, symSize: 0x50 }
  - { offset: 0x56F18, size: 0x8, addend: 0x0, symName: __RNvXs2K_NtNtCs5AlOhPCr03V_3syn3gen5cloneNtNtBa_4item7UsePathNtNtCsfvfooZQ3Axs_4core5clone5Clone5clone, symObjAddr: 0x2098C, symBinAddr: 0x34C80, symSize: 0xC0 }
  - { offset: 0x56F4C, size: 0x8, addend: 0x0, symName: __RNvXs2L_NtNtCs5AlOhPCr03V_3syn3gen5cloneNtNtBa_4item9UseRenameNtNtCsfvfooZQ3Axs_4core5clone5Clone5clone, symObjAddr: 0x20A4C, symBinAddr: 0x34D40, symSize: 0xB8 }
  - { offset: 0x56F80, size: 0x8, addend: 0x0, symName: __RNvXs2M_NtNtCs5AlOhPCr03V_3syn3gen5cloneNtNtBa_4item7UseTreeNtNtCsfvfooZQ3Axs_4core5clone5Clone5clone, symObjAddr: 0x20B04, symBinAddr: 0x34DF8, symSize: 0x200 }
  - { offset: 0x58A32, size: 0x8, addend: 0x0, symName: __RINvXNtNtCse1nGBsou5OW_5alloc5slice4hackNtNtCs5AlOhPCr03V_3syn4item11ForeignItemNtB3_10ConvertVec6to_vecNtNtB7_5alloc6GlobalEBG_, symObjAddr: 0x0, symBinAddr: 0x1BDCC, symSize: 0x36C }
  - { offset: 0x58EF5, size: 0x8, addend: 0x0, symName: __RINvXNtNtCse1nGBsou5OW_5alloc5slice4hackNtNtCs5AlOhPCr03V_3syn4item4ItemNtB3_10ConvertVec6to_vecNtNtB7_5alloc6GlobalEBG_, symObjAddr: 0x36C, symBinAddr: 0x1C138, symSize: 0x36C }
  - { offset: 0x593B8, size: 0x8, addend: 0x0, symName: __RINvXNtNtCse1nGBsou5OW_5alloc5slice4hackNtNtCs5AlOhPCr03V_3syn4item8ImplItemNtB3_10ConvertVec6to_vecNtNtB7_5alloc6GlobalEBG_, symObjAddr: 0x6D8, symBinAddr: 0x1C4A4, symSize: 0x36C }
  - { offset: 0x5987B, size: 0x8, addend: 0x0, symName: __RINvXNtNtCse1nGBsou5OW_5alloc5slice4hackNtNtCs5AlOhPCr03V_3syn4item9TraitItemNtB3_10ConvertVec6to_vecNtNtB7_5alloc6GlobalEBG_, symObjAddr: 0xA44, symBinAddr: 0x1C810, symSize: 0x36C }
  - { offset: 0x59D3E, size: 0x8, addend: 0x0, symName: __RINvXNtNtCse1nGBsou5OW_5alloc5slice4hackTNtNtCs5AlOhPCr03V_3syn4item5FnArgNtNtBH_5token5CommaENtB3_10ConvertVec6to_vecNtNtB7_5alloc6GlobalEBH_, symObjAddr: 0xDB0, symBinAddr: 0x1CB7C, symSize: 0x368 }
  - { offset: 0x5A201, size: 0x8, addend: 0x0, symName: __RINvXNtNtCse1nGBsou5OW_5alloc5slice4hackTNtNtCs5AlOhPCr03V_3syn4item7UseTreeNtNtBH_5token5CommaENtB3_10ConvertVec6to_vecNtNtB7_5alloc6GlobalEBH_, symObjAddr: 0x1118, symBinAddr: 0x1CEE4, symSize: 0x354 }
  - { offset: 0x5E68B, size: 0x8, addend: 0x0, symName: __RNvMNtCsfvfooZQ3Axs_4core5sliceSTNtNtCs5AlOhPCr03V_3syn4item5FnArgNtNtBz_5token5CommaE4iterBz_, symObjAddr: 0x146C, symBinAddr: 0x1D238, symSize: 0x28 }
  - { offset: 0x5E6C2, size: 0x8, addend: 0x0, symName: __RNvMNtCsfvfooZQ3Axs_4core5sliceSTNtNtCs5AlOhPCr03V_3syn4item5FnArgNtNtBz_5token5CommaE8iter_mutBz_, symObjAddr: 0x1494, symBinAddr: 0x1D260, symSize: 0x28 }
  - { offset: 0x5E6F9, size: 0x8, addend: 0x0, symName: __RNvMNtCsfvfooZQ3Axs_4core5sliceSTNtNtCs5AlOhPCr03V_3syn4item7UseTreeNtNtBz_5token5CommaE4iterBz_, symObjAddr: 0x14BC, symBinAddr: 0x1D288, symSize: 0x28 }
  - { offset: 0x5EDE9, size: 0x8, addend: 0x0, symName: __RNvXNtNtCsfvfooZQ3Axs_4core5clone6uninitNtNtCs5AlOhPCr03V_3syn4item5FnArgNtB2_8CopySpec9clone_oneBG_, symObjAddr: 0x1624, symBinAddr: 0x1D3F0, symSize: 0x48 }
  - { offset: 0x5EE4D, size: 0x8, addend: 0x0, symName: __RNvXNtNtCsfvfooZQ3Axs_4core5clone6uninitNtNtCs5AlOhPCr03V_3syn4item7UseTreeNtB2_8CopySpec9clone_oneBG_, symObjAddr: 0x166C, symBinAddr: 0x1D438, symSize: 0x48 }
  - { offset: 0x617B3, size: 0x8, addend: 0x0, symName: __RNvXNtCs2cqEZUIJimJ_5quote9to_tokensRNtNtCs5AlOhPCr03V_3syn4item11ForeignItemNtB2_8ToTokens9to_tokensBD_, symObjAddr: 0x14E4, symBinAddr: 0x1D2B0, symSize: 0x40 }
  - { offset: 0x617F2, size: 0x8, addend: 0x0, symName: __RNvXNtCs2cqEZUIJimJ_5quote9to_tokensRNtNtCs5AlOhPCr03V_3syn4item4ItemNtB2_8ToTokens9to_tokensBD_, symObjAddr: 0x1524, symBinAddr: 0x1D2F0, symSize: 0x40 }
  - { offset: 0x61831, size: 0x8, addend: 0x0, symName: __RNvXNtCs2cqEZUIJimJ_5quote9to_tokensRNtNtCs5AlOhPCr03V_3syn4item7UseTreeNtB2_8ToTokens9to_tokensBD_, symObjAddr: 0x1564, symBinAddr: 0x1D330, symSize: 0x40 }
  - { offset: 0x61870, size: 0x8, addend: 0x0, symName: __RNvXNtCs2cqEZUIJimJ_5quote9to_tokensRNtNtCs5AlOhPCr03V_3syn4item8ImplItemNtB2_8ToTokens9to_tokensBD_, symObjAddr: 0x15A4, symBinAddr: 0x1D370, symSize: 0x40 }
  - { offset: 0x618AF, size: 0x8, addend: 0x0, symName: __RNvXNtCs2cqEZUIJimJ_5quote9to_tokensRNtNtCs5AlOhPCr03V_3syn4item9TraitItemNtB2_8ToTokens9to_tokensBD_, symObjAddr: 0x15E4, symBinAddr: 0x1D3B0, symSize: 0x40 }
  - { offset: 0x6190B, size: 0x8, addend: 0x0, symName: __RNvMNtCs5AlOhPCr03V_3syn4itemNtB2_4Item13replace_attrs, symObjAddr: 0x2B90, symBinAddr: 0x1D480, symSize: 0x34C }
  - { offset: 0x61DC8, size: 0x8, addend: 0x0, symName: __RINvMsi_NtCse1nGBsou5OW_5alloc3vecINtB6_3VecNtCs3cP53eQoTwO_11proc_macro29TokenTreeE16extend_desugaredINtNtNtNtCsfvfooZQ3Axs_4core4iter8adapters7flatten7FlattenINtNtB1H_3map3MapIB2z_IB2z_INtNtNtB1L_5slice4iter4IterNtNtCs5AlOhPCr03V_3syn5error12ErrorMessageENvMs_B3s_B3q_16to_compile_errorENCINvXs7_BI_NtBI_11TokenStreamINtNtNtB1J_6traits7collect12FromIteratorB4P_E9from_iterB2U_E0ENCINvXs6_NtBI_3impNtB6g_11TokenStreamIB58_B6p_E9from_iterB2P_Es_0EEEB3u_, symObjAddr: 0x0, symBinAddr: 0x34FF8, symSize: 0x1D4 }
  - { offset: 0x6C9F1, size: 0x8, addend: 0x0, symName: __RINvXsh_NtCse1nGBsou5OW_5alloc3vecINtB6_3VecNtCs3cP53eQoTwO_11proc_macro29TokenTreeEINtNtNtNtCsfvfooZQ3Axs_4core4iter6traits7collect6ExtendBG_E6extendINtNtNtB1r_8adapters7flatten7FlattenINtNtB2t_3map3MapIB2Z_IB2Z_INtNtNtB1t_5slice4iter4IterNtNtCs5AlOhPCr03V_3syn5error12ErrorMessageENvMs_B3S_B3Q_16to_compile_errorENCINvXs7_BI_NtBI_11TokenStreamINtB1n_12FromIteratorB5f_E9from_iterB3k_E0ENCINvXs6_NtBI_3impNtB6n_11TokenStreamIB5y_B6w_E9from_iterB3f_Es_0EEEB3U_, symObjAddr: 0xBBC, symBinAddr: 0x354F4, symSize: 0x48 }
  - { offset: 0x6CA46, size: 0x8, addend: 0x0, symName: __RINvXsh_NtCse1nGBsou5OW_5alloc3vecINtB6_3VecNtNtCs5AlOhPCr03V_3syn4attr9AttributeEINtNtNtNtCsfvfooZQ3Axs_4core4iter6traits7collect6ExtendBG_E6extendBw_EBK_, symObjAddr: 0xC04, symBinAddr: 0x3553C, symSize: 0x48 }
  - { offset: 0x6CA9B, size: 0x8, addend: 0x0, symName: __RINvXsh_NtCse1nGBsou5OW_5alloc3vecINtB6_3VecNtNtCs5AlOhPCr03V_3syn8generics14TypeParamBoundEINtNtNtNtCsfvfooZQ3Axs_4core4iter6traits7collect6ExtendBG_E6extendINtNtB1B_6option6OptionBG_EEBK_, symObjAddr: 0xD74, symBinAddr: 0x35584, symSize: 0x48 }
  - { offset: 0x6CAF0, size: 0x8, addend: 0x0, symName: __RINvXsh_NtCse1nGBsou5OW_5alloc3vecINtB6_3VecNtNtCs5AlOhPCr03V_3syn8generics14TypeParamBoundEINtNtNtNtCsfvfooZQ3Axs_4core4iter6traits7collect6ExtendBG_E6extendINtNtNtB1z_8adapters3map3MapINtNtB6_9into_iter8IntoIterTBG_NtNtBK_5token3AddEENCNvXs8_NtBK_10punctuatedINtB3U_10PunctuatedBG_B3t_ENtB1v_12IntoIterator9into_iter0EEBK_, symObjAddr: 0xDBC, symBinAddr: 0x355CC, symSize: 0x48 }
  - { offset: 0x6CB50, size: 0x8, addend: 0x0, symName: __RNCINvMsi_NtCse1nGBsou5OW_5alloc3vecINtB8_3VecNtNtCs5AlOhPCr03V_3syn8generics14TypeParamBoundE14extend_trustedINtNtCsfvfooZQ3Axs_4core6option8IntoIterBI_EE0BM_, symObjAddr: 0xF00, symBinAddr: 0x35614, symSize: 0x54 }
  - { offset: 0x6CC0E, size: 0x8, addend: 0x0, symName: __RNCINvMsi_NtCse1nGBsou5OW_5alloc3vecINtB8_3VecNtNtCs5AlOhPCr03V_3syn8generics14TypeParamBoundE14extend_trustedINtNtNtNtCsfvfooZQ3Axs_4core4iter8adapters3map3MapINtNtB8_9into_iter8IntoIterTBI_NtNtBM_5token3AddEENCNvXs8_NtBM_10punctuatedINtB3u_10PunctuatedBI_B33_ENtNtNtB1R_6traits7collect12IntoIterator9into_iter0EE0BM_, symObjAddr: 0xF54, symBinAddr: 0x35668, symSize: 0x54 }
  - { offset: 0x6D1D1, size: 0x8, addend: 0x0, symName: __RNvXs6_NtCse1nGBsou5OW_5alloc3vecINtB5_3VecNtNtCs5AlOhPCr03V_3syn4attr9AttributeENtNtNtCsfvfooZQ3Axs_4core3ops5deref5Deref5derefBJ_, symObjAddr: 0x6C70, symBinAddr: 0x39518, symSize: 0x24 }
  - { offset: 0x6D211, size: 0x8, addend: 0x0, symName: __RNvXs6_NtCse1nGBsou5OW_5alloc3vecINtB5_3VecNtNtCs5AlOhPCr03V_3syn4expr3ArmENtNtNtCsfvfooZQ3Axs_4core3ops5deref5Deref5derefBJ_, symObjAddr: 0x6C94, symBinAddr: 0x3953C, symSize: 0x24 }
  - { offset: 0x6D251, size: 0x8, addend: 0x0, symName: __RNvXs6_NtCse1nGBsou5OW_5alloc3vecINtB5_3VecNtNtCs5AlOhPCr03V_3syn5error12ErrorMessageENtNtNtCsfvfooZQ3Axs_4core3ops5deref5Deref5derefBJ_, symObjAddr: 0x6CB8, symBinAddr: 0x39560, symSize: 0x24 }
  - { offset: 0x6D291, size: 0x8, addend: 0x0, symName: __RNvXs6_NtCse1nGBsou5OW_5alloc3vecINtB5_3VecReENtNtNtCsfvfooZQ3Axs_4core3ops5deref5Deref5derefCs5AlOhPCr03V_3syn, symObjAddr: 0x6CDC, symBinAddr: 0x39584, symSize: 0x24 }
  - { offset: 0x6D2D1, size: 0x8, addend: 0x0, symName: __RNvXs6_NtCse1nGBsou5OW_5alloc3vecINtB5_3VecTNtNtCs5AlOhPCr03V_3syn2ty4TypeNtNtBK_5token5CommaEENtNtNtCsfvfooZQ3Axs_4core3ops5deref5Deref5derefBK_, symObjAddr: 0x6D00, symBinAddr: 0x395A8, symSize: 0x24 }
  - { offset: 0x6D311, size: 0x8, addend: 0x0, symName: __RNvXs6_NtCse1nGBsou5OW_5alloc3vecINtB5_3VecTNtNtCs5AlOhPCr03V_3syn2ty9BareFnArgNtNtBK_5token5CommaEENtNtNtCsfvfooZQ3Axs_4core3ops5deref5Deref5derefBK_, symObjAddr: 0x6D24, symBinAddr: 0x395CC, symSize: 0x24 }
  - { offset: 0x6D351, size: 0x8, addend: 0x0, symName: __RNvXs6_NtCse1nGBsou5OW_5alloc3vecINtB5_3VecTNtNtCs5AlOhPCr03V_3syn3pat3PatNtNtBK_5token2OrEENtNtNtCsfvfooZQ3Axs_4core3ops5deref5Deref5derefBK_, symObjAddr: 0x6D48, symBinAddr: 0x395F0, symSize: 0x24 }
  - { offset: 0x6D391, size: 0x8, addend: 0x0, symName: __RNvXs6_NtCse1nGBsou5OW_5alloc3vecINtB5_3VecTNtNtCs5AlOhPCr03V_3syn3pat3PatNtNtBK_5token5CommaEENtNtNtCsfvfooZQ3Axs_4core3ops5deref5Deref5derefBK_, symObjAddr: 0x6D6C, symBinAddr: 0x39614, symSize: 0x24 }
  - { offset: 0x6D3D1, size: 0x8, addend: 0x0, symName: __RNvXs6_NtCse1nGBsou5OW_5alloc3vecINtB5_3VecTNtNtCs5AlOhPCr03V_3syn3pat8FieldPatNtNtBK_5token5CommaEENtNtNtCsfvfooZQ3Axs_4core3ops5deref5Deref5derefBK_, symObjAddr: 0x6D90, symBinAddr: 0x39638, symSize: 0x24 }
  - { offset: 0x6D411, size: 0x8, addend: 0x0, symName: __RNvXs6_NtCse1nGBsou5OW_5alloc3vecINtB5_3VecTNtNtCs5AlOhPCr03V_3syn4attr10NestedMetaNtNtBK_5token5CommaEENtNtNtCsfvfooZQ3Axs_4core3ops5deref5Deref5derefBK_, symObjAddr: 0x6DB4, symBinAddr: 0x3965C, symSize: 0x24 }
  - { offset: 0x6D451, size: 0x8, addend: 0x0, symName: __RNvXs6_NtCse1nGBsou5OW_5alloc3vecINtB5_3VecTNtNtCs5AlOhPCr03V_3syn4data5FieldNtNtBK_5token5CommaEENtNtNtCsfvfooZQ3Axs_4core3ops5deref5Deref5derefBK_, symObjAddr: 0x6DD8, symBinAddr: 0x39680, symSize: 0x24 }
  - { offset: 0x6D491, size: 0x8, addend: 0x0, symName: __RNvXs6_NtCse1nGBsou5OW_5alloc3vecINtB5_3VecTNtNtCs5AlOhPCr03V_3syn4data7VariantNtNtBK_5token5CommaEENtNtNtCsfvfooZQ3Axs_4core3ops5deref5Deref5derefBK_, symObjAddr: 0x6DFC, symBinAddr: 0x396A4, symSize: 0x24 }
  - { offset: 0x6D4D1, size: 0x8, addend: 0x0, symName: __RNvXs6_NtCse1nGBsou5OW_5alloc3vecINtB5_3VecTNtNtCs5AlOhPCr03V_3syn4expr10FieldValueNtNtBK_5token5CommaEENtNtNtCsfvfooZQ3Axs_4core3ops5deref5Deref5derefBK_, symObjAddr: 0x6E20, symBinAddr: 0x396C8, symSize: 0x24 }
  - { offset: 0x6D511, size: 0x8, addend: 0x0, symName: __RNvXs6_NtCse1nGBsou5OW_5alloc3vecINtB5_3VecTNtNtCs5AlOhPCr03V_3syn4expr21GenericMethodArgumentNtNtBK_5token5CommaEENtNtNtCsfvfooZQ3Axs_4core3ops5deref5Deref5derefBK_, symObjAddr: 0x6E44, symBinAddr: 0x396EC, symSize: 0x24 }
  - { offset: 0x6D551, size: 0x8, addend: 0x0, symName: __RNvXs6_NtCse1nGBsou5OW_5alloc3vecINtB5_3VecTNtNtCs5AlOhPCr03V_3syn4expr4ExprNtNtBK_5token5CommaEENtNtNtCsfvfooZQ3Axs_4core3ops5deref5Deref5derefBK_, symObjAddr: 0x6E68, symBinAddr: 0x39710, symSize: 0x24 }
  - { offset: 0x6D591, size: 0x8, addend: 0x0, symName: __RNvXs6_NtCse1nGBsou5OW_5alloc3vecINtB5_3VecTNtNtCs5AlOhPCr03V_3syn4item5FnArgNtNtBK_5token5CommaEENtNtNtCsfvfooZQ3Axs_4core3ops5deref5Deref5derefBK_, symObjAddr: 0x6E8C, symBinAddr: 0x39734, symSize: 0x24 }
  - { offset: 0x6D5D1, size: 0x8, addend: 0x0, symName: __RNvXs6_NtCse1nGBsou5OW_5alloc3vecINtB5_3VecTNtNtCs5AlOhPCr03V_3syn4item7UseTreeNtNtBK_5token5CommaEENtNtNtCsfvfooZQ3Axs_4core3ops5deref5Deref5derefBK_, symObjAddr: 0x6EB0, symBinAddr: 0x39758, symSize: 0x24 }
  - { offset: 0x6D611, size: 0x8, addend: 0x0, symName: __RNvXs6_NtCse1nGBsou5OW_5alloc3vecINtB5_3VecTNtNtCs5AlOhPCr03V_3syn4path11PathSegmentNtNtBK_5token6Colon2EENtNtNtCsfvfooZQ3Axs_4core3ops5deref5Deref5derefBK_, symObjAddr: 0x6ED4, symBinAddr: 0x3977C, symSize: 0x24 }
  - { offset: 0x6D651, size: 0x8, addend: 0x0, symName: __RNvXs6_NtCse1nGBsou5OW_5alloc3vecINtB5_3VecTNtNtCs5AlOhPCr03V_3syn4path15GenericArgumentNtNtBK_5token5CommaEENtNtNtCsfvfooZQ3Axs_4core3ops5deref5Deref5derefBK_, symObjAddr: 0x6EF8, symBinAddr: 0x397A0, symSize: 0x24 }
  - { offset: 0x6D691, size: 0x8, addend: 0x0, symName: __RNvXs6_NtCse1nGBsou5OW_5alloc3vecINtB5_3VecTNtNtCs5AlOhPCr03V_3syn8generics11LifetimeDefNtNtBK_5token5CommaEENtNtNtCsfvfooZQ3Axs_4core3ops5deref5Deref5derefBK_, symObjAddr: 0x6F1C, symBinAddr: 0x397C4, symSize: 0x24 }
  - { offset: 0x6D6D1, size: 0x8, addend: 0x0, symName: __RNvXs6_NtCse1nGBsou5OW_5alloc3vecINtB5_3VecTNtNtCs5AlOhPCr03V_3syn8generics12GenericParamNtNtBK_5token5CommaEENtNtNtCsfvfooZQ3Axs_4core3ops5deref5Deref5derefBK_, symObjAddr: 0x6F40, symBinAddr: 0x397E8, symSize: 0x24 }
  - { offset: 0x6D711, size: 0x8, addend: 0x0, symName: __RNvXs6_NtCse1nGBsou5OW_5alloc3vecINtB5_3VecTNtNtCs5AlOhPCr03V_3syn8generics14TypeParamBoundNtNtBK_5token3AddEENtNtNtCsfvfooZQ3Axs_4core3ops5deref5Deref5derefBK_, symObjAddr: 0x6F64, symBinAddr: 0x3980C, symSize: 0x24 }
  - { offset: 0x6D751, size: 0x8, addend: 0x0, symName: __RNvXs6_NtCse1nGBsou5OW_5alloc3vecINtB5_3VecTNtNtCs5AlOhPCr03V_3syn8generics14WherePredicateNtNtBK_5token5CommaEENtNtNtCsfvfooZQ3Axs_4core3ops5deref5Deref5derefBK_, symObjAddr: 0x6F88, symBinAddr: 0x39830, symSize: 0x24 }
  - { offset: 0x6D791, size: 0x8, addend: 0x0, symName: __RNvXs6_NtCse1nGBsou5OW_5alloc3vecINtB5_3VecTNtNtCs5AlOhPCr03V_3syn8lifetime8LifetimeNtNtBK_5token3AddEENtNtNtCsfvfooZQ3Axs_4core3ops5deref5Deref5derefBK_, symObjAddr: 0x6FAC, symBinAddr: 0x39854, symSize: 0x24 }
  - { offset: 0x6D7D1, size: 0x8, addend: 0x0, symName: __RNvXs6_NtCse1nGBsou5OW_5alloc3vecINtB5_3VechENtNtNtCsfvfooZQ3Axs_4core3ops5deref5Deref5derefCs5AlOhPCr03V_3syn, symObjAddr: 0x6FD0, symBinAddr: 0x39878, symSize: 0x24 }
  - { offset: 0x6DF97, size: 0x8, addend: 0x0, symName: __RNvXsb_NtCse1nGBsou5OW_5alloc3vecINtB5_3VecNtNtCs5AlOhPCr03V_3syn4stmt4StmtEINtNtNtCsfvfooZQ3Axs_4core3ops5index5IndexjE5indexBJ_, symObjAddr: 0x8018, symBinAddr: 0x3A6FC, symSize: 0x84 }
  - { offset: 0x6E119, size: 0x8, addend: 0x0, symName: __RNvXsb_NtCse1nGBsou5OW_5alloc3vecINtB5_3VecNtNtCs5AlOhPCr03V_3syn5error12ErrorMessageEINtNtNtCsfvfooZQ3Axs_4core3ops5index5IndexjE5indexBJ_, symObjAddr: 0x809C, symBinAddr: 0x3A780, symSize: 0x84 }
  - { offset: 0x6E29B, size: 0x8, addend: 0x0, symName: __RNvXsb_NtCse1nGBsou5OW_5alloc3vecINtB5_3VecReEINtNtNtCsfvfooZQ3Axs_4core3ops5index5IndexjE5indexCs5AlOhPCr03V_3syn, symObjAddr: 0x8120, symBinAddr: 0x3A804, symSize: 0x84 }
  - { offset: 0x6E41D, size: 0x8, addend: 0x0, symName: __RNvXsb_NtCse1nGBsou5OW_5alloc3vecINtB5_3VecTNtNtCs5AlOhPCr03V_3syn4path11PathSegmentNtNtBK_5token6Colon2EEINtNtNtCsfvfooZQ3Axs_4core3ops5index5IndexjE5indexBK_, symObjAddr: 0x81A4, symBinAddr: 0x3A888, symSize: 0x84 }
  - { offset: 0x6E59F, size: 0x8, addend: 0x0, symName: __RNvXsb_NtCse1nGBsou5OW_5alloc3vecINtB5_3VechEINtNtNtCsfvfooZQ3Axs_4core3ops5index5IndexINtNtBM_5range9RangeFromjEE5indexCs5AlOhPCr03V_3syn, symObjAddr: 0x8228, symBinAddr: 0x3A90C, symSize: 0x80 }
  - { offset: 0x6E721, size: 0x8, addend: 0x0, symName: __RNvXsb_NtCse1nGBsou5OW_5alloc3vecINtB5_3VechEINtNtNtCsfvfooZQ3Axs_4core3ops5index5IndexjE5indexCs5AlOhPCr03V_3syn, symObjAddr: 0x82A8, symBinAddr: 0x3A98C, symSize: 0x80 }
  - { offset: 0x6E8AE, size: 0x8, addend: 0x0, symName: __RNvXNtNtCse1nGBsou5OW_5alloc3vec11spec_extendINtB4_3VecNtCs3cP53eQoTwO_11proc_macro29TokenTreeEINtB2_10SpecExtendBR_INtNtNtNtCsfvfooZQ3Axs_4core4iter8adapters7flatten7FlattenINtNtB1V_3map3MapIB2N_IB2N_INtNtNtB1Z_5slice4iter4IterNtNtCs5AlOhPCr03V_3syn5error12ErrorMessageENvMs_B3G_B3E_16to_compile_errorENCINvXs7_BT_NtBT_11TokenStreamINtNtNtB1X_6traits7collect12FromIteratorB53_E9from_iterB38_E0ENCINvXs6_NtBT_3impNtB6u_11TokenStreamIB5m_B6D_E9from_iterB33_Es_0EEE11spec_extendB3I_, symObjAddr: 0x6884, symBinAddr: 0x3945C, symSize: 0x24 }
  - { offset: 0x6E906, size: 0x8, addend: 0x0, symName: __RNvXs0_NtNtCse1nGBsou5OW_5alloc3vec11spec_extendINtB7_3VecNtNtCs5AlOhPCr03V_3syn4attr9AttributeEINtB5_10SpecExtendBU_INtNtB7_9into_iter8IntoIterBU_EE11spec_extendBY_, symObjAddr: 0x6B10, symBinAddr: 0x39480, symSize: 0x98 }
  - { offset: 0x6E972, size: 0x8, addend: 0x0, symName: __RNvXs_NtNtCse1nGBsou5OW_5alloc3vec11spec_extendINtB6_3VecNtNtCs5AlOhPCr03V_3syn8generics14TypeParamBoundEINtB4_10SpecExtendBT_INtNtCsfvfooZQ3Axs_4core6option8IntoIterBT_EE11spec_extendBX_, symObjAddr: 0x7FD0, symBinAddr: 0x3A6B4, symSize: 0x24 }
  - { offset: 0x6E9C4, size: 0x8, addend: 0x0, symName: __RNvXs_NtNtCse1nGBsou5OW_5alloc3vec11spec_extendINtB6_3VecNtNtCs5AlOhPCr03V_3syn8generics14TypeParamBoundEINtB4_10SpecExtendBT_INtNtNtNtCsfvfooZQ3Axs_4core4iter8adapters3map3MapINtNtB6_9into_iter8IntoIterTBT_NtNtBX_5token3AddEENCNvXs8_NtBX_10punctuatedINtB3K_10PunctuatedBT_B3j_ENtNtNtB27_6traits7collect12IntoIterator9into_iter0EE11spec_extendBX_, symObjAddr: 0x7FF4, symBinAddr: 0x3A6D8, symSize: 0x24 }
  - { offset: 0x6EA1D, size: 0x8, addend: 0x0, symName: __RNvXs7_NtCse1nGBsou5OW_5alloc3vecINtB5_3VecTNtNtCs5AlOhPCr03V_3syn4item5FnArgNtNtBK_5token5CommaEENtNtNtCsfvfooZQ3Axs_4core3ops5deref8DerefMut9deref_mutBK_, symObjAddr: 0x7018, symBinAddr: 0x3989C, symSize: 0x24 }
  - { offset: 0x6EA5D, size: 0x8, addend: 0x0, symName: __RNvXs7_NtCse1nGBsou5OW_5alloc3vecINtB5_3VecTNtNtCs5AlOhPCr03V_3syn4path11PathSegmentNtNtBK_5token6Colon2EENtNtNtCsfvfooZQ3Axs_4core3ops5deref8DerefMut9deref_mutBK_, symObjAddr: 0x703C, symBinAddr: 0x398C0, symSize: 0x24 }
  - { offset: 0x6EB33, size: 0x8, addend: 0x0, symName: __RNvXs9_NtCse1nGBsou5OW_5alloc3vecINtB5_3VecNtNtCs5AlOhPCr03V_3syn4attr9AttributeENtNtCsfvfooZQ3Axs_4core5clone5Clone5cloneBJ_, symObjAddr: 0x7084, symBinAddr: 0x398E4, symSize: 0x88 }
  - { offset: 0x6ED2A, size: 0x8, addend: 0x0, symName: __RNvXs9_NtCse1nGBsou5OW_5alloc3vecINtB5_3VecNtNtCs5AlOhPCr03V_3syn4expr3ArmENtNtCsfvfooZQ3Axs_4core5clone5Clone5cloneBJ_, symObjAddr: 0x710C, symBinAddr: 0x3996C, symSize: 0x88 }
  - { offset: 0x6EF21, size: 0x8, addend: 0x0, symName: __RNvXs9_NtCse1nGBsou5OW_5alloc3vecINtB5_3VecNtNtCs5AlOhPCr03V_3syn4item11ForeignItemENtNtCsfvfooZQ3Axs_4core5clone5Clone5cloneBJ_, symObjAddr: 0x7194, symBinAddr: 0x399F4, symSize: 0x88 }
  - { offset: 0x6F118, size: 0x8, addend: 0x0, symName: __RNvXs9_NtCse1nGBsou5OW_5alloc3vecINtB5_3VecNtNtCs5AlOhPCr03V_3syn4item4ItemENtNtCsfvfooZQ3Axs_4core5clone5Clone5cloneBJ_, symObjAddr: 0x721C, symBinAddr: 0x39A7C, symSize: 0x88 }
  - { offset: 0x6F30F, size: 0x8, addend: 0x0, symName: __RNvXs9_NtCse1nGBsou5OW_5alloc3vecINtB5_3VecNtNtCs5AlOhPCr03V_3syn4item8ImplItemENtNtCsfvfooZQ3Axs_4core5clone5Clone5cloneBJ_, symObjAddr: 0x72A4, symBinAddr: 0x39B04, symSize: 0x88 }
  - { offset: 0x6F506, size: 0x8, addend: 0x0, symName: __RNvXs9_NtCse1nGBsou5OW_5alloc3vecINtB5_3VecNtNtCs5AlOhPCr03V_3syn4item9TraitItemENtNtCsfvfooZQ3Axs_4core5clone5Clone5cloneBJ_, symObjAddr: 0x732C, symBinAddr: 0x39B8C, symSize: 0x88 }
  - { offset: 0x6F6FD, size: 0x8, addend: 0x0, symName: __RNvXs9_NtCse1nGBsou5OW_5alloc3vecINtB5_3VecNtNtCs5AlOhPCr03V_3syn4stmt4StmtENtNtCsfvfooZQ3Axs_4core5clone5Clone5cloneBJ_, symObjAddr: 0x73B4, symBinAddr: 0x39C14, symSize: 0x88 }
  - { offset: 0x6F8F4, size: 0x8, addend: 0x0, symName: __RNvXs9_NtCse1nGBsou5OW_5alloc3vecINtB5_3VecTNtNtCs5AlOhPCr03V_3syn2ty4TypeNtNtBK_5token5CommaEENtNtCsfvfooZQ3Axs_4core5clone5Clone5cloneBK_, symObjAddr: 0x74C4, symBinAddr: 0x39C9C, symSize: 0x88 }
  - { offset: 0x6FAEB, size: 0x8, addend: 0x0, symName: __RNvXs9_NtCse1nGBsou5OW_5alloc3vecINtB5_3VecTNtNtCs5AlOhPCr03V_3syn2ty9BareFnArgNtNtBK_5token5CommaEENtNtCsfvfooZQ3Axs_4core5clone5Clone5cloneBK_, symObjAddr: 0x754C, symBinAddr: 0x39D24, symSize: 0x88 }
  - { offset: 0x6FCE2, size: 0x8, addend: 0x0, symName: __RNvXs9_NtCse1nGBsou5OW_5alloc3vecINtB5_3VecTNtNtCs5AlOhPCr03V_3syn3pat3PatNtNtBK_5token2OrEENtNtCsfvfooZQ3Axs_4core5clone5Clone5cloneBK_, symObjAddr: 0x75D4, symBinAddr: 0x39DAC, symSize: 0x88 }
  - { offset: 0x6FED9, size: 0x8, addend: 0x0, symName: __RNvXs9_NtCse1nGBsou5OW_5alloc3vecINtB5_3VecTNtNtCs5AlOhPCr03V_3syn3pat3PatNtNtBK_5token5CommaEENtNtCsfvfooZQ3Axs_4core5clone5Clone5cloneBK_, symObjAddr: 0x765C, symBinAddr: 0x39E34, symSize: 0x88 }
  - { offset: 0x700D0, size: 0x8, addend: 0x0, symName: __RNvXs9_NtCse1nGBsou5OW_5alloc3vecINtB5_3VecTNtNtCs5AlOhPCr03V_3syn3pat8FieldPatNtNtBK_5token5CommaEENtNtCsfvfooZQ3Axs_4core5clone5Clone5cloneBK_, symObjAddr: 0x76E4, symBinAddr: 0x39EBC, symSize: 0x88 }
  - { offset: 0x702C7, size: 0x8, addend: 0x0, symName: __RNvXs9_NtCse1nGBsou5OW_5alloc3vecINtB5_3VecTNtNtCs5AlOhPCr03V_3syn4data5FieldNtNtBK_5token5CommaEENtNtCsfvfooZQ3Axs_4core5clone5Clone5cloneBK_, symObjAddr: 0x77F4, symBinAddr: 0x39F44, symSize: 0x88 }
  - { offset: 0x704BE, size: 0x8, addend: 0x0, symName: __RNvXs9_NtCse1nGBsou5OW_5alloc3vecINtB5_3VecTNtNtCs5AlOhPCr03V_3syn4data7VariantNtNtBK_5token5CommaEENtNtCsfvfooZQ3Axs_4core5clone5Clone5cloneBK_, symObjAddr: 0x787C, symBinAddr: 0x39FCC, symSize: 0x88 }
  - { offset: 0x706B5, size: 0x8, addend: 0x0, symName: __RNvXs9_NtCse1nGBsou5OW_5alloc3vecINtB5_3VecTNtNtCs5AlOhPCr03V_3syn4expr10FieldValueNtNtBK_5token5CommaEENtNtCsfvfooZQ3Axs_4core5clone5Clone5cloneBK_, symObjAddr: 0x7904, symBinAddr: 0x3A054, symSize: 0x88 }
  - { offset: 0x708AC, size: 0x8, addend: 0x0, symName: __RNvXs9_NtCse1nGBsou5OW_5alloc3vecINtB5_3VecTNtNtCs5AlOhPCr03V_3syn4expr21GenericMethodArgumentNtNtBK_5token5CommaEENtNtCsfvfooZQ3Axs_4core5clone5Clone5cloneBK_, symObjAddr: 0x798C, symBinAddr: 0x3A0DC, symSize: 0x88 }
  - { offset: 0x70AA3, size: 0x8, addend: 0x0, symName: __RNvXs9_NtCse1nGBsou5OW_5alloc3vecINtB5_3VecTNtNtCs5AlOhPCr03V_3syn4expr4ExprNtNtBK_5token5CommaEENtNtCsfvfooZQ3Axs_4core5clone5Clone5cloneBK_, symObjAddr: 0x7A14, symBinAddr: 0x3A164, symSize: 0x88 }
  - { offset: 0x70C9A, size: 0x8, addend: 0x0, symName: __RNvXs9_NtCse1nGBsou5OW_5alloc3vecINtB5_3VecTNtNtCs5AlOhPCr03V_3syn4item5FnArgNtNtBK_5token5CommaEENtNtCsfvfooZQ3Axs_4core5clone5Clone5cloneBK_, symObjAddr: 0x7A9C, symBinAddr: 0x3A1EC, symSize: 0x88 }
  - { offset: 0x70E91, size: 0x8, addend: 0x0, symName: __RNvXs9_NtCse1nGBsou5OW_5alloc3vecINtB5_3VecTNtNtCs5AlOhPCr03V_3syn4item7UseTreeNtNtBK_5token5CommaEENtNtCsfvfooZQ3Axs_4core5clone5Clone5cloneBK_, symObjAddr: 0x7B24, symBinAddr: 0x3A274, symSize: 0x88 }
  - { offset: 0x71088, size: 0x8, addend: 0x0, symName: __RNvXs9_NtCse1nGBsou5OW_5alloc3vecINtB5_3VecTNtNtCs5AlOhPCr03V_3syn4path11PathSegmentNtNtBK_5token6Colon2EENtNtCsfvfooZQ3Axs_4core5clone5Clone5cloneBK_, symObjAddr: 0x7BAC, symBinAddr: 0x3A2FC, symSize: 0x88 }
  - { offset: 0x7127F, size: 0x8, addend: 0x0, symName: __RNvXs9_NtCse1nGBsou5OW_5alloc3vecINtB5_3VecTNtNtCs5AlOhPCr03V_3syn4path15GenericArgumentNtNtBK_5token5CommaEENtNtCsfvfooZQ3Axs_4core5clone5Clone5cloneBK_, symObjAddr: 0x7C34, symBinAddr: 0x3A384, symSize: 0x88 }
  - { offset: 0x71476, size: 0x8, addend: 0x0, symName: __RNvXs9_NtCse1nGBsou5OW_5alloc3vecINtB5_3VecTNtNtCs5AlOhPCr03V_3syn8generics11LifetimeDefNtNtBK_5token5CommaEENtNtCsfvfooZQ3Axs_4core5clone5Clone5cloneBK_, symObjAddr: 0x7CBC, symBinAddr: 0x3A40C, symSize: 0x88 }
  - { offset: 0x7166D, size: 0x8, addend: 0x0, symName: __RNvXs9_NtCse1nGBsou5OW_5alloc3vecINtB5_3VecTNtNtCs5AlOhPCr03V_3syn8generics12GenericParamNtNtBK_5token5CommaEENtNtCsfvfooZQ3Axs_4core5clone5Clone5cloneBK_, symObjAddr: 0x7D44, symBinAddr: 0x3A494, symSize: 0x88 }
  - { offset: 0x71864, size: 0x8, addend: 0x0, symName: __RNvXs9_NtCse1nGBsou5OW_5alloc3vecINtB5_3VecTNtNtCs5AlOhPCr03V_3syn8generics14TypeParamBoundNtNtBK_5token3AddEENtNtCsfvfooZQ3Axs_4core5clone5Clone5cloneBK_, symObjAddr: 0x7DCC, symBinAddr: 0x3A51C, symSize: 0x88 }
  - { offset: 0x71A5B, size: 0x8, addend: 0x0, symName: __RNvXs9_NtCse1nGBsou5OW_5alloc3vecINtB5_3VecTNtNtCs5AlOhPCr03V_3syn8generics14WherePredicateNtNtBK_5token5CommaEENtNtCsfvfooZQ3Axs_4core5clone5Clone5cloneBK_, symObjAddr: 0x7E54, symBinAddr: 0x3A5A4, symSize: 0x88 }
  - { offset: 0x71C52, size: 0x8, addend: 0x0, symName: __RNvXs9_NtCse1nGBsou5OW_5alloc3vecINtB5_3VecTNtNtCs5AlOhPCr03V_3syn8lifetime8LifetimeNtNtBK_5token3AddEENtNtCsfvfooZQ3Axs_4core5clone5Clone5cloneBK_, symObjAddr: 0x7EDC, symBinAddr: 0x3A62C, symSize: 0x88 }
  - { offset: 0x71E4F, size: 0x8, addend: 0x0, symName: __RNvXsc_NtCse1nGBsou5OW_5alloc3vecINtB5_3VecNtNtCs5AlOhPCr03V_3syn6buffer5EntryEINtNtNtCsfvfooZQ3Axs_4core3ops5index8IndexMutjE9index_mutBJ_, symObjAddr: 0x8328, symBinAddr: 0x3AA0C, symSize: 0x84 }
  - { offset: 0x71FA3, size: 0x8, addend: 0x0, symName: __RNvXsc_NtCse1nGBsou5OW_5alloc3vecINtB5_3VechEINtNtNtCsfvfooZQ3Axs_4core3ops5index8IndexMutjE9index_mutCs5AlOhPCr03V_3syn, symObjAddr: 0x83AC, symBinAddr: 0x3AA90, symSize: 0x80 }
  - { offset: 0x720FD, size: 0x8, addend: 0x0, symName: __RNvXse_NtCse1nGBsou5OW_5alloc3vecINtB5_3VecNtNtCs5AlOhPCr03V_3syn4attr9AttributeENtNtNtNtCsfvfooZQ3Axs_4core4iter6traits7collect12IntoIterator9into_iterBJ_, symObjAddr: 0x842C, symBinAddr: 0x3AB10, symSize: 0xE4 }
  - { offset: 0x7238F, size: 0x8, addend: 0x0, symName: __RNvXse_NtCse1nGBsou5OW_5alloc3vecINtB5_3VecNtNtCs5AlOhPCr03V_3syn8generics14TypeParamBoundENtNtNtNtCsfvfooZQ3Axs_4core4iter6traits7collect12IntoIterator9into_iterBJ_, symObjAddr: 0x86D8, symBinAddr: 0x3ABF4, symSize: 0xE4 }
  - { offset: 0x72621, size: 0x8, addend: 0x0, symName: __RNvXse_NtCse1nGBsou5OW_5alloc3vecINtB5_3VecTNtNtCs5AlOhPCr03V_3syn4path11PathSegmentNtNtBK_5token6Colon2EENtNtNtNtCsfvfooZQ3Axs_4core4iter6traits7collect12IntoIterator9into_iterBK_, symObjAddr: 0x8984, symBinAddr: 0x3ACD8, symSize: 0xE4 }
  - { offset: 0x728B3, size: 0x8, addend: 0x0, symName: __RNvXse_NtCse1nGBsou5OW_5alloc3vecINtB5_3VecTNtNtCs5AlOhPCr03V_3syn8generics14TypeParamBoundNtNtBK_5token3AddEENtNtNtNtCsfvfooZQ3Axs_4core4iter6traits7collect12IntoIterator9into_iterBK_, symObjAddr: 0x8A68, symBinAddr: 0x3ADBC, symSize: 0xE4 }
  - { offset: 0x72B4B, size: 0x8, addend: 0x0, symName: __RNvXsf_NtCse1nGBsou5OW_5alloc3vecRINtB5_3VecNtNtCs5AlOhPCr03V_3syn4attr9AttributeENtNtNtNtCsfvfooZQ3Axs_4core4iter6traits7collect12IntoIterator9into_iterBK_, symObjAddr: 0x8B4C, symBinAddr: 0x3AEA0, symSize: 0xA4 }
  - { offset: 0x72DA7, size: 0x8, addend: 0x0, symName: __RNvXsf_NtCse1nGBsou5OW_5alloc3vecRINtB5_3VecNtNtCs5AlOhPCr03V_3syn4item11ForeignItemENtNtNtNtCsfvfooZQ3Axs_4core4iter6traits7collect12IntoIterator9into_iterBK_, symObjAddr: 0x8BF0, symBinAddr: 0x3AF44, symSize: 0xA4 }
  - { offset: 0x73003, size: 0x8, addend: 0x0, symName: __RNvXsf_NtCse1nGBsou5OW_5alloc3vecRINtB5_3VecNtNtCs5AlOhPCr03V_3syn4item4ItemENtNtNtNtCsfvfooZQ3Axs_4core4iter6traits7collect12IntoIterator9into_iterBK_, symObjAddr: 0x8C94, symBinAddr: 0x3AFE8, symSize: 0xA4 }
  - { offset: 0x7325F, size: 0x8, addend: 0x0, symName: __RNvXsf_NtCse1nGBsou5OW_5alloc3vecRINtB5_3VecNtNtCs5AlOhPCr03V_3syn4item8ImplItemENtNtNtNtCsfvfooZQ3Axs_4core4iter6traits7collect12IntoIterator9into_iterBK_, symObjAddr: 0x8D38, symBinAddr: 0x3B08C, symSize: 0xA4 }
  - { offset: 0x734BB, size: 0x8, addend: 0x0, symName: __RNvXsf_NtCse1nGBsou5OW_5alloc3vecRINtB5_3VecNtNtCs5AlOhPCr03V_3syn4item9TraitItemENtNtNtNtCsfvfooZQ3Axs_4core4iter6traits7collect12IntoIterator9into_iterBK_, symObjAddr: 0x8DDC, symBinAddr: 0x3B130, symSize: 0xA4 }
  - { offset: 0x73717, size: 0x8, addend: 0x0, symName: __RNvXsf_NtCse1nGBsou5OW_5alloc3vecRINtB5_3VecNtNtCs5AlOhPCr03V_3syn4stmt4StmtENtNtNtNtCsfvfooZQ3Axs_4core4iter6traits7collect12IntoIterator9into_iterBK_, symObjAddr: 0x8E80, symBinAddr: 0x3B1D4, symSize: 0xA4 }
  - { offset: 0x73979, size: 0x8, addend: 0x0, symName: __RNvXsg_NtCse1nGBsou5OW_5alloc3vecQINtB5_3VechENtNtNtNtCsfvfooZQ3Axs_4core4iter6traits7collect12IntoIterator9into_iterCs5AlOhPCr03V_3syn, symObjAddr: 0x9BE4, symBinAddr: 0x3B278, symSize: 0x98 }
  - { offset: 0x73BAD, size: 0x8, addend: 0x0, symName: __RNvXsn_NtCse1nGBsou5OW_5alloc3vecINtB5_3VecNtNtCs5AlOhPCr03V_3syn4attr9AttributeENtNtNtCsfvfooZQ3Axs_4core3ops4drop4Drop4dropBJ_, symObjAddr: 0x9CB4, symBinAddr: 0x3B310, symSize: 0x38 }
  - { offset: 0x73C5D, size: 0x8, addend: 0x0, symName: __RNvXsn_NtCse1nGBsou5OW_5alloc3vecINtB5_3VecNtNtCs5AlOhPCr03V_3syn4expr3ArmENtNtNtCsfvfooZQ3Axs_4core3ops4drop4Drop4dropBJ_, symObjAddr: 0x9D24, symBinAddr: 0x3B348, symSize: 0x38 }
  - { offset: 0x73D0D, size: 0x8, addend: 0x0, symName: __RNvXsn_NtCse1nGBsou5OW_5alloc3vecINtB5_3VecNtNtCs5AlOhPCr03V_3syn4item11ForeignItemENtNtNtCsfvfooZQ3Axs_4core3ops4drop4Drop4dropBJ_, symObjAddr: 0x9D5C, symBinAddr: 0x3B380, symSize: 0x38 }
  - { offset: 0x73DBD, size: 0x8, addend: 0x0, symName: __RNvXsn_NtCse1nGBsou5OW_5alloc3vecINtB5_3VecNtNtCs5AlOhPCr03V_3syn4item4ItemENtNtNtCsfvfooZQ3Axs_4core3ops4drop4Drop4dropBJ_, symObjAddr: 0x9D94, symBinAddr: 0x3B3B8, symSize: 0x38 }
  - { offset: 0x73E6D, size: 0x8, addend: 0x0, symName: __RNvXsn_NtCse1nGBsou5OW_5alloc3vecINtB5_3VecNtNtCs5AlOhPCr03V_3syn4item8ImplItemENtNtNtCsfvfooZQ3Axs_4core3ops4drop4Drop4dropBJ_, symObjAddr: 0x9DCC, symBinAddr: 0x3B3F0, symSize: 0x38 }
  - { offset: 0x73F1D, size: 0x8, addend: 0x0, symName: __RNvXsn_NtCse1nGBsou5OW_5alloc3vecINtB5_3VecNtNtCs5AlOhPCr03V_3syn4item9TraitItemENtNtNtCsfvfooZQ3Axs_4core3ops4drop4Drop4dropBJ_, symObjAddr: 0x9E04, symBinAddr: 0x3B428, symSize: 0x38 }
  - { offset: 0x73FCD, size: 0x8, addend: 0x0, symName: __RNvXsn_NtCse1nGBsou5OW_5alloc3vecINtB5_3VecNtNtCs5AlOhPCr03V_3syn4stmt4StmtENtNtNtCsfvfooZQ3Axs_4core3ops4drop4Drop4dropBJ_, symObjAddr: 0x9E3C, symBinAddr: 0x3B460, symSize: 0x38 }
  - { offset: 0x7407D, size: 0x8, addend: 0x0, symName: __RNvXsn_NtCse1nGBsou5OW_5alloc3vecINtB5_3VecNtNtCs5AlOhPCr03V_3syn5error12ErrorMessageENtNtNtCsfvfooZQ3Axs_4core3ops4drop4Drop4dropBJ_, symObjAddr: 0x9E74, symBinAddr: 0x3B498, symSize: 0x38 }
  - { offset: 0x7412D, size: 0x8, addend: 0x0, symName: __RNvXsn_NtCse1nGBsou5OW_5alloc3vecINtB5_3VecNtNtCs5AlOhPCr03V_3syn6buffer5EntryENtNtNtCsfvfooZQ3Axs_4core3ops4drop4Drop4dropBJ_, symObjAddr: 0x9EAC, symBinAddr: 0x3B4D0, symSize: 0x38 }
  - { offset: 0x741DD, size: 0x8, addend: 0x0, symName: __RNvXsn_NtCse1nGBsou5OW_5alloc3vecINtB5_3VecNtNtCs5AlOhPCr03V_3syn8generics14TypeParamBoundENtNtNtCsfvfooZQ3Axs_4core3ops4drop4Drop4dropBJ_, symObjAddr: 0x9EE4, symBinAddr: 0x3B508, symSize: 0x38 }
  - { offset: 0x7428D, size: 0x8, addend: 0x0, symName: __RNvXsn_NtCse1nGBsou5OW_5alloc3vecINtB5_3VecReENtNtNtCsfvfooZQ3Axs_4core3ops4drop4Drop4dropCs5AlOhPCr03V_3syn, symObjAddr: 0x9F1C, symBinAddr: 0x3B540, symSize: 0x24 }
  - { offset: 0x7433D, size: 0x8, addend: 0x0, symName: __RNvXsn_NtCse1nGBsou5OW_5alloc3vecINtB5_3VecTNtNtCs5AlOhPCr03V_3syn2ty4TypeNtNtBK_5token5CommaEENtNtNtCsfvfooZQ3Axs_4core3ops4drop4Drop4dropBK_, symObjAddr: 0x9F40, symBinAddr: 0x3B564, symSize: 0x38 }
  - { offset: 0x743ED, size: 0x8, addend: 0x0, symName: __RNvXsn_NtCse1nGBsou5OW_5alloc3vecINtB5_3VecTNtNtCs5AlOhPCr03V_3syn2ty9BareFnArgNtNtBK_5token5CommaEENtNtNtCsfvfooZQ3Axs_4core3ops4drop4Drop4dropBK_, symObjAddr: 0x9F78, symBinAddr: 0x3B59C, symSize: 0x38 }
  - { offset: 0x7449D, size: 0x8, addend: 0x0, symName: __RNvXsn_NtCse1nGBsou5OW_5alloc3vecINtB5_3VecTNtNtCs5AlOhPCr03V_3syn3pat3PatNtNtBK_5token2OrEENtNtNtCsfvfooZQ3Axs_4core3ops4drop4Drop4dropBK_, symObjAddr: 0x9FB0, symBinAddr: 0x3B5D4, symSize: 0x38 }
  - { offset: 0x7454D, size: 0x8, addend: 0x0, symName: __RNvXsn_NtCse1nGBsou5OW_5alloc3vecINtB5_3VecTNtNtCs5AlOhPCr03V_3syn3pat3PatNtNtBK_5token5CommaEENtNtNtCsfvfooZQ3Axs_4core3ops4drop4Drop4dropBK_, symObjAddr: 0x9FE8, symBinAddr: 0x3B60C, symSize: 0x38 }
  - { offset: 0x745FD, size: 0x8, addend: 0x0, symName: __RNvXsn_NtCse1nGBsou5OW_5alloc3vecINtB5_3VecTNtNtCs5AlOhPCr03V_3syn3pat8FieldPatNtNtBK_5token5CommaEENtNtNtCsfvfooZQ3Axs_4core3ops4drop4Drop4dropBK_, symObjAddr: 0xA020, symBinAddr: 0x3B644, symSize: 0x38 }
  - { offset: 0x746AD, size: 0x8, addend: 0x0, symName: __RNvXsn_NtCse1nGBsou5OW_5alloc3vecINtB5_3VecTNtNtCs5AlOhPCr03V_3syn4attr10NestedMetaNtNtBK_5token5CommaEENtNtNtCsfvfooZQ3Axs_4core3ops4drop4Drop4dropBK_, symObjAddr: 0xA058, symBinAddr: 0x3B67C, symSize: 0x38 }
  - { offset: 0x7475D, size: 0x8, addend: 0x0, symName: __RNvXsn_NtCse1nGBsou5OW_5alloc3vecINtB5_3VecTNtNtCs5AlOhPCr03V_3syn4data5FieldNtNtBK_5token5CommaEENtNtNtCsfvfooZQ3Axs_4core3ops4drop4Drop4dropBK_, symObjAddr: 0xA090, symBinAddr: 0x3B6B4, symSize: 0x38 }
  - { offset: 0x7480D, size: 0x8, addend: 0x0, symName: __RNvXsn_NtCse1nGBsou5OW_5alloc3vecINtB5_3VecTNtNtCs5AlOhPCr03V_3syn4data7VariantNtNtBK_5token5CommaEENtNtNtCsfvfooZQ3Axs_4core3ops4drop4Drop4dropBK_, symObjAddr: 0xA100, symBinAddr: 0x3B6EC, symSize: 0x38 }
  - { offset: 0x748BD, size: 0x8, addend: 0x0, symName: __RNvXsn_NtCse1nGBsou5OW_5alloc3vecINtB5_3VecTNtNtCs5AlOhPCr03V_3syn4expr10FieldValueNtNtBK_5token5CommaEENtNtNtCsfvfooZQ3Axs_4core3ops4drop4Drop4dropBK_, symObjAddr: 0xA138, symBinAddr: 0x3B724, symSize: 0x38 }
  - { offset: 0x7496D, size: 0x8, addend: 0x0, symName: __RNvXsn_NtCse1nGBsou5OW_5alloc3vecINtB5_3VecTNtNtCs5AlOhPCr03V_3syn4expr21GenericMethodArgumentNtNtBK_5token5CommaEENtNtNtCsfvfooZQ3Axs_4core3ops4drop4Drop4dropBK_, symObjAddr: 0xA170, symBinAddr: 0x3B75C, symSize: 0x38 }
  - { offset: 0x74A1D, size: 0x8, addend: 0x0, symName: __RNvXsn_NtCse1nGBsou5OW_5alloc3vecINtB5_3VecTNtNtCs5AlOhPCr03V_3syn4expr4ExprNtNtBK_5token5CommaEENtNtNtCsfvfooZQ3Axs_4core3ops4drop4Drop4dropBK_, symObjAddr: 0xA1A8, symBinAddr: 0x3B794, symSize: 0x38 }
  - { offset: 0x74ACD, size: 0x8, addend: 0x0, symName: __RNvXsn_NtCse1nGBsou5OW_5alloc3vecINtB5_3VecTNtNtCs5AlOhPCr03V_3syn4item5FnArgNtNtBK_5token5CommaEENtNtNtCsfvfooZQ3Axs_4core3ops4drop4Drop4dropBK_, symObjAddr: 0xA1E0, symBinAddr: 0x3B7CC, symSize: 0x38 }
  - { offset: 0x74B7D, size: 0x8, addend: 0x0, symName: __RNvXsn_NtCse1nGBsou5OW_5alloc3vecINtB5_3VecTNtNtCs5AlOhPCr03V_3syn4item7UseTreeNtNtBK_5token5CommaEENtNtNtCsfvfooZQ3Axs_4core3ops4drop4Drop4dropBK_, symObjAddr: 0xA218, symBinAddr: 0x3B804, symSize: 0x38 }
  - { offset: 0x74C2D, size: 0x8, addend: 0x0, symName: __RNvXsn_NtCse1nGBsou5OW_5alloc3vecINtB5_3VecTNtNtCs5AlOhPCr03V_3syn4path11PathSegmentNtNtBK_5token6Colon2EENtNtNtCsfvfooZQ3Axs_4core3ops4drop4Drop4dropBK_, symObjAddr: 0xA250, symBinAddr: 0x3B83C, symSize: 0x38 }
  - { offset: 0x74CDD, size: 0x8, addend: 0x0, symName: __RNvXsn_NtCse1nGBsou5OW_5alloc3vecINtB5_3VecTNtNtCs5AlOhPCr03V_3syn4path15GenericArgumentNtNtBK_5token5CommaEENtNtNtCsfvfooZQ3Axs_4core3ops4drop4Drop4dropBK_, symObjAddr: 0xA288, symBinAddr: 0x3B874, symSize: 0x38 }
  - { offset: 0x74D8D, size: 0x8, addend: 0x0, symName: __RNvXsn_NtCse1nGBsou5OW_5alloc3vecINtB5_3VecTNtNtCs5AlOhPCr03V_3syn8generics11LifetimeDefNtNtBK_5token5CommaEENtNtNtCsfvfooZQ3Axs_4core3ops4drop4Drop4dropBK_, symObjAddr: 0xA2C0, symBinAddr: 0x3B8AC, symSize: 0x38 }
  - { offset: 0x74E3D, size: 0x8, addend: 0x0, symName: __RNvXsn_NtCse1nGBsou5OW_5alloc3vecINtB5_3VecTNtNtCs5AlOhPCr03V_3syn8generics12GenericParamNtNtBK_5token5CommaEENtNtNtCsfvfooZQ3Axs_4core3ops4drop4Drop4dropBK_, symObjAddr: 0xA2F8, symBinAddr: 0x3B8E4, symSize: 0x38 }
  - { offset: 0x74EED, size: 0x8, addend: 0x0, symName: __RNvXsn_NtCse1nGBsou5OW_5alloc3vecINtB5_3VecTNtNtCs5AlOhPCr03V_3syn8generics14TypeParamBoundNtNtBK_5token3AddEENtNtNtCsfvfooZQ3Axs_4core3ops4drop4Drop4dropBK_, symObjAddr: 0xA330, symBinAddr: 0x3B91C, symSize: 0x38 }
  - { offset: 0x74F9D, size: 0x8, addend: 0x0, symName: __RNvXsn_NtCse1nGBsou5OW_5alloc3vecINtB5_3VecTNtNtCs5AlOhPCr03V_3syn8generics14WherePredicateNtNtBK_5token5CommaEENtNtNtCsfvfooZQ3Axs_4core3ops4drop4Drop4dropBK_, symObjAddr: 0xA368, symBinAddr: 0x3B954, symSize: 0x38 }
  - { offset: 0x7504D, size: 0x8, addend: 0x0, symName: __RNvXsn_NtCse1nGBsou5OW_5alloc3vecINtB5_3VecTNtNtCs5AlOhPCr03V_3syn8lifetime8LifetimeNtNtBK_5token3AddEENtNtNtCsfvfooZQ3Axs_4core3ops4drop4Drop4dropBK_, symObjAddr: 0xA3A0, symBinAddr: 0x3B98C, symSize: 0x38 }
  - { offset: 0x75103, size: 0x8, addend: 0x0, symName: __RNvXsp_NtCse1nGBsou5OW_5alloc3vecINtB5_3VecNtNtCs5AlOhPCr03V_3syn5error12ErrorMessageENtNtCsfvfooZQ3Axs_4core3fmt5Debug3fmtBJ_, symObjAddr: 0xA704, symBinAddr: 0x3B9C4, symSize: 0x74 }
  - { offset: 0x75213, size: 0x8, addend: 0x0, symName: __RNvXsp_NtCse1nGBsou5OW_5alloc3vecINtB5_3VechENtNtCsfvfooZQ3Axs_4core3fmt5Debug3fmtCs5AlOhPCr03V_3syn, symObjAddr: 0xA778, symBinAddr: 0x3BA38, symSize: 0x70 }
  - { offset: 0x7D7DA, size: 0x8, addend: 0x0, symName: __RINvMsi_NtCse1nGBsou5OW_5alloc3vecINtB6_3VecNtCs3cP53eQoTwO_11proc_macro29TokenTreeE16extend_desugaredINtNtNtNtCsfvfooZQ3Axs_4core4iter8adapters7flatten7FlattenINtNtB1H_3map3MapIB2z_IB2z_INtNtNtB1L_5slice4iter4IterNtNtCs5AlOhPCr03V_3syn5error12ErrorMessageENvMs_B3s_B3q_16to_compile_errorENCINvXs7_BI_NtBI_11TokenStreamINtNtNtB1J_6traits7collect12FromIteratorB4P_E9from_iterB2U_E0ENCINvXs6_NtBI_3impNtB6g_11TokenStreamIB58_B6p_E9from_iterB2P_Es_0EEEB3u_, symObjAddr: 0x0, symBinAddr: 0x34FF8, symSize: 0x1D4 }
  - { offset: 0x7E1B0, size: 0x8, addend: 0x0, symName: __RINvMsi_NtCse1nGBsou5OW_5alloc3vecINtB6_3VecNtNtCs5AlOhPCr03V_3syn8generics14TypeParamBoundE14extend_trustedINtNtCsfvfooZQ3Axs_4core6option8IntoIterBG_EEBK_, symObjAddr: 0x858, symBinAddr: 0x351CC, symSize: 0x1A0 }
  - { offset: 0x7E45B, size: 0x8, addend: 0x0, symName: __RINvMsi_NtCse1nGBsou5OW_5alloc3vecINtB6_3VecNtNtCs5AlOhPCr03V_3syn8generics14TypeParamBoundE14extend_trustedINtNtNtNtCsfvfooZQ3Axs_4core4iter8adapters3map3MapINtNtB6_9into_iter8IntoIterTBG_NtNtBK_5token3AddEENCNvXs8_NtBK_10punctuatedINtB3s_10PunctuatedBG_B31_ENtNtNtB1P_6traits7collect12IntoIterator9into_iter0EEBK_, symObjAddr: 0x9F8, symBinAddr: 0x3536C, symSize: 0x188 }
  - { offset: 0x7E690, size: 0x8, addend: 0x0, symName: __RNvMNtCse1nGBsou5OW_5alloc3vecINtB2_3VecNtNtCs5AlOhPCr03V_3syn4attr9AttributeE3newBG_, symObjAddr: 0xFBC, symBinAddr: 0x356BC, symSize: 0x14 }
  - { offset: 0x7E6AD, size: 0x8, addend: 0x0, symName: __RNvMNtCse1nGBsou5OW_5alloc3vecINtB2_3VecNtNtCs5AlOhPCr03V_3syn4expr3ArmE3newBG_, symObjAddr: 0x1018, symBinAddr: 0x356D0, symSize: 0x14 }
  - { offset: 0x7E6CA, size: 0x8, addend: 0x0, symName: __RNvMNtCse1nGBsou5OW_5alloc3vecINtB2_3VecNtNtCs5AlOhPCr03V_3syn4item11ForeignItemE3newBG_, symObjAddr: 0x102C, symBinAddr: 0x356E4, symSize: 0x14 }
  - { offset: 0x7E6E7, size: 0x8, addend: 0x0, symName: __RNvMNtCse1nGBsou5OW_5alloc3vecINtB2_3VecNtNtCs5AlOhPCr03V_3syn4item4ItemE3newBG_, symObjAddr: 0x1040, symBinAddr: 0x356F8, symSize: 0x14 }
  - { offset: 0x7E704, size: 0x8, addend: 0x0, symName: __RNvMNtCse1nGBsou5OW_5alloc3vecINtB2_3VecNtNtCs5AlOhPCr03V_3syn4item8ImplItemE3newBG_, symObjAddr: 0x1054, symBinAddr: 0x3570C, symSize: 0x14 }
  - { offset: 0x7E721, size: 0x8, addend: 0x0, symName: __RNvMNtCse1nGBsou5OW_5alloc3vecINtB2_3VecNtNtCs5AlOhPCr03V_3syn4item9TraitItemE3newBG_, symObjAddr: 0x1068, symBinAddr: 0x35720, symSize: 0x14 }
  - { offset: 0x7E73E, size: 0x8, addend: 0x0, symName: __RNvMNtCse1nGBsou5OW_5alloc3vecINtB2_3VecNtNtCs5AlOhPCr03V_3syn4stmt4StmtE3newBG_, symObjAddr: 0x107C, symBinAddr: 0x35734, symSize: 0x14 }
  - { offset: 0x7E762, size: 0x8, addend: 0x0, symName: __RNvMNtCse1nGBsou5OW_5alloc3vecINtB2_3VecNtNtCs5AlOhPCr03V_3syn6buffer5EntryE3newBG_, symObjAddr: 0x1090, symBinAddr: 0x35748, symSize: 0x14 }
  - { offset: 0x7E7E1, size: 0x8, addend: 0x0, symName: __RNvMNtCse1nGBsou5OW_5alloc3vecINtB2_3VecNtNtCs5AlOhPCr03V_3syn8generics14TypeParamBoundE13with_capacityBG_, symObjAddr: 0x10A4, symBinAddr: 0x3575C, symSize: 0x48 }
  - { offset: 0x7E859, size: 0x8, addend: 0x0, symName: __RNvMNtCse1nGBsou5OW_5alloc3vecINtB2_3VecReE3newCs5AlOhPCr03V_3syn, symObjAddr: 0x10EC, symBinAddr: 0x357A4, symSize: 0x14 }
  - { offset: 0x7E876, size: 0x8, addend: 0x0, symName: __RNvMNtCse1nGBsou5OW_5alloc3vecINtB2_3VecTNtNtCs5AlOhPCr03V_3syn2ty4TypeNtNtBH_5token5CommaEE3newBH_, symObjAddr: 0x1100, symBinAddr: 0x357B8, symSize: 0x14 }
  - { offset: 0x7E893, size: 0x8, addend: 0x0, symName: __RNvMNtCse1nGBsou5OW_5alloc3vecINtB2_3VecTNtNtCs5AlOhPCr03V_3syn2ty9BareFnArgNtNtBH_5token5CommaEE3newBH_, symObjAddr: 0x1114, symBinAddr: 0x357CC, symSize: 0x14 }
  - { offset: 0x7E8B0, size: 0x8, addend: 0x0, symName: __RNvMNtCse1nGBsou5OW_5alloc3vecINtB2_3VecTNtNtCs5AlOhPCr03V_3syn3pat3PatNtNtBH_5token2OrEE3newBH_, symObjAddr: 0x1128, symBinAddr: 0x357E0, symSize: 0x14 }
  - { offset: 0x7E8CD, size: 0x8, addend: 0x0, symName: __RNvMNtCse1nGBsou5OW_5alloc3vecINtB2_3VecTNtNtCs5AlOhPCr03V_3syn3pat3PatNtNtBH_5token5CommaEE3newBH_, symObjAddr: 0x113C, symBinAddr: 0x357F4, symSize: 0x14 }
  - { offset: 0x7E8EA, size: 0x8, addend: 0x0, symName: __RNvMNtCse1nGBsou5OW_5alloc3vecINtB2_3VecTNtNtCs5AlOhPCr03V_3syn3pat8FieldPatNtNtBH_5token5CommaEE3newBH_, symObjAddr: 0x1150, symBinAddr: 0x35808, symSize: 0x14 }
  - { offset: 0x7E907, size: 0x8, addend: 0x0, symName: __RNvMNtCse1nGBsou5OW_5alloc3vecINtB2_3VecTNtNtCs5AlOhPCr03V_3syn4attr10NestedMetaNtNtBH_5token5CommaEE3newBH_, symObjAddr: 0x1164, symBinAddr: 0x3581C, symSize: 0x14 }
  - { offset: 0x7E924, size: 0x8, addend: 0x0, symName: __RNvMNtCse1nGBsou5OW_5alloc3vecINtB2_3VecTNtNtCs5AlOhPCr03V_3syn4data5FieldNtNtBH_5token5CommaEE3newBH_, symObjAddr: 0x1178, symBinAddr: 0x35830, symSize: 0x14 }
  - { offset: 0x7E941, size: 0x8, addend: 0x0, symName: __RNvMNtCse1nGBsou5OW_5alloc3vecINtB2_3VecTNtNtCs5AlOhPCr03V_3syn4data7VariantNtNtBH_5token5CommaEE3newBH_, symObjAddr: 0x11A0, symBinAddr: 0x35844, symSize: 0x14 }
  - { offset: 0x7E95E, size: 0x8, addend: 0x0, symName: __RNvMNtCse1nGBsou5OW_5alloc3vecINtB2_3VecTNtNtCs5AlOhPCr03V_3syn4expr10FieldValueNtNtBH_5token5CommaEE3newBH_, symObjAddr: 0x11B4, symBinAddr: 0x35858, symSize: 0x14 }
  - { offset: 0x7E97B, size: 0x8, addend: 0x0, symName: __RNvMNtCse1nGBsou5OW_5alloc3vecINtB2_3VecTNtNtCs5AlOhPCr03V_3syn4expr21GenericMethodArgumentNtNtBH_5token5CommaEE3newBH_, symObjAddr: 0x11C8, symBinAddr: 0x3586C, symSize: 0x14 }
  - { offset: 0x7E998, size: 0x8, addend: 0x0, symName: __RNvMNtCse1nGBsou5OW_5alloc3vecINtB2_3VecTNtNtCs5AlOhPCr03V_3syn4expr4ExprNtNtBH_5token5CommaEE3newBH_, symObjAddr: 0x11DC, symBinAddr: 0x35880, symSize: 0x14 }
  - { offset: 0x7E9B5, size: 0x8, addend: 0x0, symName: __RNvMNtCse1nGBsou5OW_5alloc3vecINtB2_3VecTNtNtCs5AlOhPCr03V_3syn4item5FnArgNtNtBH_5token5CommaEE3newBH_, symObjAddr: 0x11F0, symBinAddr: 0x35894, symSize: 0x14 }
  - { offset: 0x7E9D2, size: 0x8, addend: 0x0, symName: __RNvMNtCse1nGBsou5OW_5alloc3vecINtB2_3VecTNtNtCs5AlOhPCr03V_3syn4item7UseTreeNtNtBH_5token5CommaEE3newBH_, symObjAddr: 0x1204, symBinAddr: 0x358A8, symSize: 0x14 }
  - { offset: 0x7E9EF, size: 0x8, addend: 0x0, symName: __RNvMNtCse1nGBsou5OW_5alloc3vecINtB2_3VecTNtNtCs5AlOhPCr03V_3syn4path11PathSegmentNtNtBH_5token6Colon2EE3newBH_, symObjAddr: 0x1218, symBinAddr: 0x358BC, symSize: 0x14 }
  - { offset: 0x7EA0C, size: 0x8, addend: 0x0, symName: __RNvMNtCse1nGBsou5OW_5alloc3vecINtB2_3VecTNtNtCs5AlOhPCr03V_3syn4path15GenericArgumentNtNtBH_5token5CommaEE3newBH_, symObjAddr: 0x122C, symBinAddr: 0x358D0, symSize: 0x14 }
  - { offset: 0x7EA29, size: 0x8, addend: 0x0, symName: __RNvMNtCse1nGBsou5OW_5alloc3vecINtB2_3VecTNtNtCs5AlOhPCr03V_3syn8generics11LifetimeDefNtNtBH_5token5CommaEE3newBH_, symObjAddr: 0x1240, symBinAddr: 0x358E4, symSize: 0x14 }
  - { offset: 0x7EA46, size: 0x8, addend: 0x0, symName: __RNvMNtCse1nGBsou5OW_5alloc3vecINtB2_3VecTNtNtCs5AlOhPCr03V_3syn8generics12GenericParamNtNtBH_5token5CommaEE3newBH_, symObjAddr: 0x1254, symBinAddr: 0x358F8, symSize: 0x14 }
  - { offset: 0x7EA63, size: 0x8, addend: 0x0, symName: __RNvMNtCse1nGBsou5OW_5alloc3vecINtB2_3VecTNtNtCs5AlOhPCr03V_3syn8generics14TypeParamBoundNtNtBH_5token3AddEE3newBH_, symObjAddr: 0x1268, symBinAddr: 0x3590C, symSize: 0x14 }
  - { offset: 0x7EA80, size: 0x8, addend: 0x0, symName: __RNvMNtCse1nGBsou5OW_5alloc3vecINtB2_3VecTNtNtCs5AlOhPCr03V_3syn8generics14WherePredicateNtNtBH_5token5CommaEE3newBH_, symObjAddr: 0x127C, symBinAddr: 0x35920, symSize: 0x14 }
  - { offset: 0x7EA9D, size: 0x8, addend: 0x0, symName: __RNvMNtCse1nGBsou5OW_5alloc3vecINtB2_3VecTNtNtCs5AlOhPCr03V_3syn8lifetime8LifetimeNtNtBH_5token3AddEE3newBH_, symObjAddr: 0x1290, symBinAddr: 0x35934, symSize: 0x14 }
  - { offset: 0x7EABA, size: 0x8, addend: 0x0, symName: __RNvMNtCse1nGBsou5OW_5alloc3vecINtB2_3VechE3newCs5AlOhPCr03V_3syn, symObjAddr: 0x12A4, symBinAddr: 0x35948, symSize: 0x14 }
  - { offset: 0x7EC1D, size: 0x8, addend: 0x0, symName: __RNvMs0_NtCse1nGBsou5OW_5alloc3vecINtB5_3VechE6resizeCs5AlOhPCr03V_3syn, symObjAddr: 0x12B8, symBinAddr: 0x3595C, symSize: 0x100 }
  - { offset: 0x7EECB, size: 0x8, addend: 0x0, symName: __RNvMs2_NtCse1nGBsou5OW_5alloc3vecINtB5_3VechE11extend_withCs5AlOhPCr03V_3syn, symObjAddr: 0x13B8, symBinAddr: 0x35A5C, symSize: 0x230 }
  - { offset: 0x7F296, size: 0x8, addend: 0x0, symName: __RNvMs_NtCse1nGBsou5OW_5alloc3vecINtB4_3VecNtNtCs5AlOhPCr03V_3syn4attr9AttributeE15append_elementsBI_, symObjAddr: 0x1708, symBinAddr: 0x35C8C, symSize: 0xE0 }
  - { offset: 0x7F4CB, size: 0x8, addend: 0x0, symName: __RNvMs_NtCse1nGBsou5OW_5alloc3vecINtB4_3VecNtNtCs5AlOhPCr03V_3syn4attr9AttributeE4pushBI_, symObjAddr: 0x17E8, symBinAddr: 0x35D6C, symSize: 0x120 }
  - { offset: 0x7F767, size: 0x8, addend: 0x0, symName: __RNvMs_NtCse1nGBsou5OW_5alloc3vecINtB4_3VecNtNtCs5AlOhPCr03V_3syn4attr9AttributeE6appendBI_, symObjAddr: 0x1908, symBinAddr: 0x35E8C, symSize: 0x8C }
  - { offset: 0x7F99C, size: 0x8, addend: 0x0, symName: __RNvMs_NtCse1nGBsou5OW_5alloc3vecINtB4_3VecNtNtCs5AlOhPCr03V_3syn4attr9AttributeE7reserveBI_, symObjAddr: 0x1994, symBinAddr: 0x35F18, symSize: 0xC8 }
  - { offset: 0x7FB73, size: 0x8, addend: 0x0, symName: __RNvMs_NtCse1nGBsou5OW_5alloc3vecINtB4_3VecNtNtCs5AlOhPCr03V_3syn4attr9AttributeE8as_sliceBI_, symObjAddr: 0x1A5C, symBinAddr: 0x35FE0, symSize: 0x64 }
  - { offset: 0x7FC52, size: 0x8, addend: 0x0, symName: __RNvMs_NtCse1nGBsou5OW_5alloc3vecINtB4_3VecNtNtCs5AlOhPCr03V_3syn4attr9AttributeE8is_emptyBI_, symObjAddr: 0x1AC0, symBinAddr: 0x36044, symSize: 0x20 }
  - { offset: 0x7FCB2, size: 0x8, addend: 0x0, symName: __RNvMs_NtCse1nGBsou5OW_5alloc3vecINtB4_3VecNtNtCs5AlOhPCr03V_3syn4expr3ArmE3lenBI_, symObjAddr: 0x1BA8, symBinAddr: 0x36064, symSize: 0x18 }
  - { offset: 0x7FDFA, size: 0x8, addend: 0x0, symName: __RNvMs_NtCse1nGBsou5OW_5alloc3vecINtB4_3VecNtNtCs5AlOhPCr03V_3syn4expr3ArmE4pushBI_, symObjAddr: 0x1BC0, symBinAddr: 0x3607C, symSize: 0x120 }
  - { offset: 0x80048, size: 0x8, addend: 0x0, symName: __RNvMs_NtCse1nGBsou5OW_5alloc3vecINtB4_3VecNtNtCs5AlOhPCr03V_3syn4expr3ArmE8as_sliceBI_, symObjAddr: 0x1CE0, symBinAddr: 0x3619C, symSize: 0x64 }
  - { offset: 0x80215, size: 0x8, addend: 0x0, symName: __RNvMs_NtCse1nGBsou5OW_5alloc3vecINtB4_3VecNtNtCs5AlOhPCr03V_3syn4item11ForeignItemE4pushBI_, symObjAddr: 0x1D44, symBinAddr: 0x36200, symSize: 0x120 }
  - { offset: 0x804DF, size: 0x8, addend: 0x0, symName: __RNvMs_NtCse1nGBsou5OW_5alloc3vecINtB4_3VecNtNtCs5AlOhPCr03V_3syn4item4ItemE4pushBI_, symObjAddr: 0x1E64, symBinAddr: 0x36320, symSize: 0x120 }
  - { offset: 0x807A9, size: 0x8, addend: 0x0, symName: __RNvMs_NtCse1nGBsou5OW_5alloc3vecINtB4_3VecNtNtCs5AlOhPCr03V_3syn4item8ImplItemE4pushBI_, symObjAddr: 0x1F84, symBinAddr: 0x36440, symSize: 0x120 }
  - { offset: 0x80A73, size: 0x8, addend: 0x0, symName: __RNvMs_NtCse1nGBsou5OW_5alloc3vecINtB4_3VecNtNtCs5AlOhPCr03V_3syn4item9TraitItemE4pushBI_, symObjAddr: 0x20A4, symBinAddr: 0x36560, symSize: 0x120 }
  - { offset: 0x80C37, size: 0x8, addend: 0x0, symName: __RNvMs_NtCse1nGBsou5OW_5alloc3vecINtB4_3VecNtNtCs5AlOhPCr03V_3syn4stmt4StmtE3lenBI_, symObjAddr: 0x21C4, symBinAddr: 0x36680, symSize: 0x18 }
  - { offset: 0x80D7F, size: 0x8, addend: 0x0, symName: __RNvMs_NtCse1nGBsou5OW_5alloc3vecINtB4_3VecNtNtCs5AlOhPCr03V_3syn4stmt4StmtE4pushBI_, symObjAddr: 0x21DC, symBinAddr: 0x36698, symSize: 0x120 }
  - { offset: 0x80F91, size: 0x8, addend: 0x0, symName: __RNvMs_NtCse1nGBsou5OW_5alloc3vecINtB4_3VecNtNtCs5AlOhPCr03V_3syn5error12ErrorMessageE3lenBI_, symObjAddr: 0x23DC, symBinAddr: 0x367B8, symSize: 0x18 }
  - { offset: 0x81061, size: 0x8, addend: 0x0, symName: __RNvMs_NtCse1nGBsou5OW_5alloc3vecINtB4_3VecNtNtCs5AlOhPCr03V_3syn5error12ErrorMessageE8as_sliceBI_, symObjAddr: 0x24BC, symBinAddr: 0x367D0, symSize: 0x64 }
  - { offset: 0x81248, size: 0x8, addend: 0x0, symName: __RNvMs_NtCse1nGBsou5OW_5alloc3vecINtB4_3VecNtNtCs5AlOhPCr03V_3syn6buffer5EntryE13shrink_to_fitBI_, symObjAddr: 0x2520, symBinAddr: 0x36834, symSize: 0xEC }
  - { offset: 0x814BB, size: 0x8, addend: 0x0, symName: __RNvMs_NtCse1nGBsou5OW_5alloc3vecINtB4_3VecNtNtCs5AlOhPCr03V_3syn6buffer5EntryE16into_boxed_sliceBI_, symObjAddr: 0x260C, symBinAddr: 0x36920, symSize: 0x110 }
  - { offset: 0x81684, size: 0x8, addend: 0x0, symName: __RNvMs_NtCse1nGBsou5OW_5alloc3vecINtB4_3VecNtNtCs5AlOhPCr03V_3syn6buffer5EntryE3lenBI_, symObjAddr: 0x271C, symBinAddr: 0x36A30, symSize: 0x18 }
  - { offset: 0x817B2, size: 0x8, addend: 0x0, symName: __RNvMs_NtCse1nGBsou5OW_5alloc3vecINtB4_3VecNtNtCs5AlOhPCr03V_3syn6buffer5EntryE4pushBI_, symObjAddr: 0x2734, symBinAddr: 0x36A48, symSize: 0x100 }
  - { offset: 0x81A7C, size: 0x8, addend: 0x0, symName: __RNvMs_NtCse1nGBsou5OW_5alloc3vecINtB4_3VecNtNtCs5AlOhPCr03V_3syn8generics14TypeParamBoundE7reserveBI_, symObjAddr: 0x2834, symBinAddr: 0x36B48, symSize: 0xC8 }
  - { offset: 0x81BF0, size: 0x8, addend: 0x0, symName: __RNvMs_NtCse1nGBsou5OW_5alloc3vecINtB4_3VecReE3lenCs5AlOhPCr03V_3syn, symObjAddr: 0x28FC, symBinAddr: 0x36C10, symSize: 0x18 }
  - { offset: 0x81D38, size: 0x8, addend: 0x0, symName: __RNvMs_NtCse1nGBsou5OW_5alloc3vecINtB4_3VecReE4pushCs5AlOhPCr03V_3syn, symObjAddr: 0x2914, symBinAddr: 0x36C28, symSize: 0xF4 }
  - { offset: 0x81F5B, size: 0x8, addend: 0x0, symName: __RNvMs_NtCse1nGBsou5OW_5alloc3vecINtB4_3VecReE8as_sliceCs5AlOhPCr03V_3syn, symObjAddr: 0x2A08, symBinAddr: 0x36D1C, symSize: 0x64 }
  - { offset: 0x82128, size: 0x8, addend: 0x0, symName: __RNvMs_NtCse1nGBsou5OW_5alloc3vecINtB4_3VecTNtNtCs5AlOhPCr03V_3syn2ty4TypeNtNtBJ_5token5CommaEE4pushBJ_, symObjAddr: 0x2A6C, symBinAddr: 0x36D80, symSize: 0x120 }
  - { offset: 0x82383, size: 0x8, addend: 0x0, symName: __RNvMs_NtCse1nGBsou5OW_5alloc3vecINtB4_3VecTNtNtCs5AlOhPCr03V_3syn2ty4TypeNtNtBJ_5token5CommaEE8as_sliceBJ_, symObjAddr: 0x2B8C, symBinAddr: 0x36EA0, symSize: 0x64 }
  - { offset: 0x82550, size: 0x8, addend: 0x0, symName: __RNvMs_NtCse1nGBsou5OW_5alloc3vecINtB4_3VecTNtNtCs5AlOhPCr03V_3syn2ty9BareFnArgNtNtBJ_5token5CommaEE4pushBJ_, symObjAddr: 0x2BF0, symBinAddr: 0x36F04, symSize: 0x120 }
  - { offset: 0x827AB, size: 0x8, addend: 0x0, symName: __RNvMs_NtCse1nGBsou5OW_5alloc3vecINtB4_3VecTNtNtCs5AlOhPCr03V_3syn2ty9BareFnArgNtNtBJ_5token5CommaEE8as_sliceBJ_, symObjAddr: 0x2D10, symBinAddr: 0x37024, symSize: 0x64 }
  - { offset: 0x82978, size: 0x8, addend: 0x0, symName: __RNvMs_NtCse1nGBsou5OW_5alloc3vecINtB4_3VecTNtNtCs5AlOhPCr03V_3syn3pat3PatNtNtBJ_5token2OrEE4pushBJ_, symObjAddr: 0x2D74, symBinAddr: 0x37088, symSize: 0x120 }
  - { offset: 0x82BD3, size: 0x8, addend: 0x0, symName: __RNvMs_NtCse1nGBsou5OW_5alloc3vecINtB4_3VecTNtNtCs5AlOhPCr03V_3syn3pat3PatNtNtBJ_5token2OrEE8as_sliceBJ_, symObjAddr: 0x2E94, symBinAddr: 0x371A8, symSize: 0x64 }
  - { offset: 0x82DA0, size: 0x8, addend: 0x0, symName: __RNvMs_NtCse1nGBsou5OW_5alloc3vecINtB4_3VecTNtNtCs5AlOhPCr03V_3syn3pat3PatNtNtBJ_5token5CommaEE4pushBJ_, symObjAddr: 0x2EF8, symBinAddr: 0x3720C, symSize: 0x120 }
  - { offset: 0x82FFB, size: 0x8, addend: 0x0, symName: __RNvMs_NtCse1nGBsou5OW_5alloc3vecINtB4_3VecTNtNtCs5AlOhPCr03V_3syn3pat3PatNtNtBJ_5token5CommaEE8as_sliceBJ_, symObjAddr: 0x3018, symBinAddr: 0x3732C, symSize: 0x64 }
  - { offset: 0x831C8, size: 0x8, addend: 0x0, symName: __RNvMs_NtCse1nGBsou5OW_5alloc3vecINtB4_3VecTNtNtCs5AlOhPCr03V_3syn3pat8FieldPatNtNtBJ_5token5CommaEE4pushBJ_, symObjAddr: 0x307C, symBinAddr: 0x37390, symSize: 0x118 }
  - { offset: 0x83421, size: 0x8, addend: 0x0, symName: __RNvMs_NtCse1nGBsou5OW_5alloc3vecINtB4_3VecTNtNtCs5AlOhPCr03V_3syn3pat8FieldPatNtNtBJ_5token5CommaEE8as_sliceBJ_, symObjAddr: 0x3194, symBinAddr: 0x374A8, symSize: 0x64 }
  - { offset: 0x835EE, size: 0x8, addend: 0x0, symName: __RNvMs_NtCse1nGBsou5OW_5alloc3vecINtB4_3VecTNtNtCs5AlOhPCr03V_3syn4attr10NestedMetaNtNtBJ_5token5CommaEE4pushBJ_, symObjAddr: 0x31F8, symBinAddr: 0x3750C, symSize: 0x120 }
  - { offset: 0x83849, size: 0x8, addend: 0x0, symName: __RNvMs_NtCse1nGBsou5OW_5alloc3vecINtB4_3VecTNtNtCs5AlOhPCr03V_3syn4attr10NestedMetaNtNtBJ_5token5CommaEE8as_sliceBJ_, symObjAddr: 0x3318, symBinAddr: 0x3762C, symSize: 0x64 }
  - { offset: 0x8395E, size: 0x8, addend: 0x0, symName: __RNvMs_NtCse1nGBsou5OW_5alloc3vecINtB4_3VecTNtNtCs5AlOhPCr03V_3syn4data5FieldNtNtBJ_5token5CommaEE3lenBJ_, symObjAddr: 0x33E0, symBinAddr: 0x37690, symSize: 0x18 }
  - { offset: 0x83A72, size: 0x8, addend: 0x0, symName: __RNvMs_NtCse1nGBsou5OW_5alloc3vecINtB4_3VecTNtNtCs5AlOhPCr03V_3syn4data5FieldNtNtBJ_5token5CommaEE4pushBJ_, symObjAddr: 0x33F8, symBinAddr: 0x376A8, symSize: 0x120 }
  - { offset: 0x83CB7, size: 0x8, addend: 0x0, symName: __RNvMs_NtCse1nGBsou5OW_5alloc3vecINtB4_3VecTNtNtCs5AlOhPCr03V_3syn4data5FieldNtNtBJ_5token5CommaEE8as_sliceBJ_, symObjAddr: 0x3518, symBinAddr: 0x377C8, symSize: 0x64 }
  - { offset: 0x83E84, size: 0x8, addend: 0x0, symName: __RNvMs_NtCse1nGBsou5OW_5alloc3vecINtB4_3VecTNtNtCs5AlOhPCr03V_3syn4data7VariantNtNtBJ_5token5CommaEE4pushBJ_, symObjAddr: 0x3594, symBinAddr: 0x3782C, symSize: 0x120 }
  - { offset: 0x840DF, size: 0x8, addend: 0x0, symName: __RNvMs_NtCse1nGBsou5OW_5alloc3vecINtB4_3VecTNtNtCs5AlOhPCr03V_3syn4data7VariantNtNtBJ_5token5CommaEE8as_sliceBJ_, symObjAddr: 0x36B4, symBinAddr: 0x3794C, symSize: 0x64 }
  - { offset: 0x842AC, size: 0x8, addend: 0x0, symName: __RNvMs_NtCse1nGBsou5OW_5alloc3vecINtB4_3VecTNtNtCs5AlOhPCr03V_3syn4expr10FieldValueNtNtBJ_5token5CommaEE4pushBJ_, symObjAddr: 0x3718, symBinAddr: 0x379B0, symSize: 0x120 }
  - { offset: 0x84507, size: 0x8, addend: 0x0, symName: __RNvMs_NtCse1nGBsou5OW_5alloc3vecINtB4_3VecTNtNtCs5AlOhPCr03V_3syn4expr10FieldValueNtNtBJ_5token5CommaEE8as_sliceBJ_, symObjAddr: 0x3838, symBinAddr: 0x37AD0, symSize: 0x64 }
  - { offset: 0x846D4, size: 0x8, addend: 0x0, symName: __RNvMs_NtCse1nGBsou5OW_5alloc3vecINtB4_3VecTNtNtCs5AlOhPCr03V_3syn4expr21GenericMethodArgumentNtNtBJ_5token5CommaEE4pushBJ_, symObjAddr: 0x389C, symBinAddr: 0x37B34, symSize: 0x120 }
  - { offset: 0x8492F, size: 0x8, addend: 0x0, symName: __RNvMs_NtCse1nGBsou5OW_5alloc3vecINtB4_3VecTNtNtCs5AlOhPCr03V_3syn4expr21GenericMethodArgumentNtNtBJ_5token5CommaEE8as_sliceBJ_, symObjAddr: 0x39BC, symBinAddr: 0x37C54, symSize: 0x64 }
  - { offset: 0x849F6, size: 0x8, addend: 0x0, symName: __RNvMs_NtCse1nGBsou5OW_5alloc3vecINtB4_3VecTNtNtCs5AlOhPCr03V_3syn4expr4ExprNtNtBJ_5token5CommaEE3lenBJ_, symObjAddr: 0x3A20, symBinAddr: 0x37CB8, symSize: 0x18 }
  - { offset: 0x84B3E, size: 0x8, addend: 0x0, symName: __RNvMs_NtCse1nGBsou5OW_5alloc3vecINtB4_3VecTNtNtCs5AlOhPCr03V_3syn4expr4ExprNtNtBJ_5token5CommaEE4pushBJ_, symObjAddr: 0x3A38, symBinAddr: 0x37CD0, symSize: 0x118 }
  - { offset: 0x84D8C, size: 0x8, addend: 0x0, symName: __RNvMs_NtCse1nGBsou5OW_5alloc3vecINtB4_3VecTNtNtCs5AlOhPCr03V_3syn4expr4ExprNtNtBJ_5token5CommaEE8as_sliceBJ_, symObjAddr: 0x3B50, symBinAddr: 0x37DE8, symSize: 0x64 }
  - { offset: 0x84F21, size: 0x8, addend: 0x0, symName: __RNvMs_NtCse1nGBsou5OW_5alloc3vecINtB4_3VecTNtNtCs5AlOhPCr03V_3syn4item5FnArgNtNtBJ_5token5CommaEE12as_mut_sliceBJ_, symObjAddr: 0x3BB4, symBinAddr: 0x37E4C, symSize: 0x64 }
  - { offset: 0x84FFD, size: 0x8, addend: 0x0, symName: __RNvMs_NtCse1nGBsou5OW_5alloc3vecINtB4_3VecTNtNtCs5AlOhPCr03V_3syn4item5FnArgNtNtBJ_5token5CommaEE3lenBJ_, symObjAddr: 0x3C18, symBinAddr: 0x37EB0, symSize: 0x18 }
  - { offset: 0x8514B, size: 0x8, addend: 0x0, symName: __RNvMs_NtCse1nGBsou5OW_5alloc3vecINtB4_3VecTNtNtCs5AlOhPCr03V_3syn4item5FnArgNtNtBJ_5token5CommaEE3popBJ_, symObjAddr: 0x3C30, symBinAddr: 0x37EC8, symSize: 0x100 }
  - { offset: 0x853BF, size: 0x8, addend: 0x0, symName: __RNvMs_NtCse1nGBsou5OW_5alloc3vecINtB4_3VecTNtNtCs5AlOhPCr03V_3syn4item5FnArgNtNtBJ_5token5CommaEE4pushBJ_, symObjAddr: 0x3D30, symBinAddr: 0x37FC8, symSize: 0x120 }
  - { offset: 0x85604, size: 0x8, addend: 0x0, symName: __RNvMs_NtCse1nGBsou5OW_5alloc3vecINtB4_3VecTNtNtCs5AlOhPCr03V_3syn4item5FnArgNtNtBJ_5token5CommaEE8as_sliceBJ_, symObjAddr: 0x3E50, symBinAddr: 0x380E8, symSize: 0x64 }
  - { offset: 0x857D1, size: 0x8, addend: 0x0, symName: __RNvMs_NtCse1nGBsou5OW_5alloc3vecINtB4_3VecTNtNtCs5AlOhPCr03V_3syn4item7UseTreeNtNtBJ_5token5CommaEE4pushBJ_, symObjAddr: 0x3EB4, symBinAddr: 0x3814C, symSize: 0x110 }
  - { offset: 0x85A2A, size: 0x8, addend: 0x0, symName: __RNvMs_NtCse1nGBsou5OW_5alloc3vecINtB4_3VecTNtNtCs5AlOhPCr03V_3syn4item7UseTreeNtNtBJ_5token5CommaEE8as_sliceBJ_, symObjAddr: 0x3FC4, symBinAddr: 0x3825C, symSize: 0x64 }
  - { offset: 0x85BBF, size: 0x8, addend: 0x0, symName: __RNvMs_NtCse1nGBsou5OW_5alloc3vecINtB4_3VecTNtNtCs5AlOhPCr03V_3syn4path11PathSegmentNtNtBJ_5token6Colon2EE12as_mut_sliceBJ_, symObjAddr: 0x4028, symBinAddr: 0x382C0, symSize: 0x64 }
  - { offset: 0x85C9B, size: 0x8, addend: 0x0, symName: __RNvMs_NtCse1nGBsou5OW_5alloc3vecINtB4_3VecTNtNtCs5AlOhPCr03V_3syn4path11PathSegmentNtNtBJ_5token6Colon2EE3lenBJ_, symObjAddr: 0x408C, symBinAddr: 0x38324, symSize: 0x18 }
  - { offset: 0x85DAF, size: 0x8, addend: 0x0, symName: __RNvMs_NtCse1nGBsou5OW_5alloc3vecINtB4_3VecTNtNtCs5AlOhPCr03V_3syn4path11PathSegmentNtNtBJ_5token6Colon2EE4pushBJ_, symObjAddr: 0x40A4, symBinAddr: 0x3833C, symSize: 0x120 }
  - { offset: 0x8609B, size: 0x8, addend: 0x0, symName: __RNvMs_NtCse1nGBsou5OW_5alloc3vecINtB4_3VecTNtNtCs5AlOhPCr03V_3syn4path11PathSegmentNtNtBJ_5token6Colon2EE6insertBJ_, symObjAddr: 0x41C4, symBinAddr: 0x3845C, symSize: 0x1EC }
  - { offset: 0x8636D, size: 0x8, addend: 0x0, symName: __RNvMs_NtCse1nGBsou5OW_5alloc3vecINtB4_3VecTNtNtCs5AlOhPCr03V_3syn4path11PathSegmentNtNtBJ_5token6Colon2EE8as_sliceBJ_, symObjAddr: 0x43B0, symBinAddr: 0x38648, symSize: 0x64 }
  - { offset: 0x86434, size: 0x8, addend: 0x0, symName: __RNvMs_NtCse1nGBsou5OW_5alloc3vecINtB4_3VecTNtNtCs5AlOhPCr03V_3syn4path15GenericArgumentNtNtBJ_5token5CommaEE3lenBJ_, symObjAddr: 0x4414, symBinAddr: 0x386AC, symSize: 0x18 }
  - { offset: 0x8657C, size: 0x8, addend: 0x0, symName: __RNvMs_NtCse1nGBsou5OW_5alloc3vecINtB4_3VecTNtNtCs5AlOhPCr03V_3syn4path15GenericArgumentNtNtBJ_5token5CommaEE4pushBJ_, symObjAddr: 0x442C, symBinAddr: 0x386C4, symSize: 0x120 }
  - { offset: 0x867CA, size: 0x8, addend: 0x0, symName: __RNvMs_NtCse1nGBsou5OW_5alloc3vecINtB4_3VecTNtNtCs5AlOhPCr03V_3syn4path15GenericArgumentNtNtBJ_5token5CommaEE8as_sliceBJ_, symObjAddr: 0x454C, symBinAddr: 0x387E4, symSize: 0x64 }
  - { offset: 0x86997, size: 0x8, addend: 0x0, symName: __RNvMs_NtCse1nGBsou5OW_5alloc3vecINtB4_3VecTNtNtCs5AlOhPCr03V_3syn8generics11LifetimeDefNtNtBJ_5token5CommaEE4pushBJ_, symObjAddr: 0x45B0, symBinAddr: 0x38848, symSize: 0x120 }
  - { offset: 0x86BF2, size: 0x8, addend: 0x0, symName: __RNvMs_NtCse1nGBsou5OW_5alloc3vecINtB4_3VecTNtNtCs5AlOhPCr03V_3syn8generics11LifetimeDefNtNtBJ_5token5CommaEE8as_sliceBJ_, symObjAddr: 0x46D0, symBinAddr: 0x38968, symSize: 0x64 }
  - { offset: 0x86D14, size: 0x8, addend: 0x0, symName: __RNvMs_NtCse1nGBsou5OW_5alloc3vecINtB4_3VecTNtNtCs5AlOhPCr03V_3syn8generics12GenericParamNtNtBJ_5token5CommaEE3lenBJ_, symObjAddr: 0x4798, symBinAddr: 0x389CC, symSize: 0x18 }
  - { offset: 0x86E28, size: 0x8, addend: 0x0, symName: __RNvMs_NtCse1nGBsou5OW_5alloc3vecINtB4_3VecTNtNtCs5AlOhPCr03V_3syn8generics12GenericParamNtNtBJ_5token5CommaEE4pushBJ_, symObjAddr: 0x47B0, symBinAddr: 0x389E4, symSize: 0x120 }
  - { offset: 0x8706D, size: 0x8, addend: 0x0, symName: __RNvMs_NtCse1nGBsou5OW_5alloc3vecINtB4_3VecTNtNtCs5AlOhPCr03V_3syn8generics12GenericParamNtNtBJ_5token5CommaEE8as_sliceBJ_, symObjAddr: 0x48D0, symBinAddr: 0x38B04, symSize: 0x64 }
  - { offset: 0x87134, size: 0x8, addend: 0x0, symName: __RNvMs_NtCse1nGBsou5OW_5alloc3vecINtB4_3VecTNtNtCs5AlOhPCr03V_3syn8generics14TypeParamBoundNtNtBJ_5token3AddEE3lenBJ_, symObjAddr: 0x4934, symBinAddr: 0x38B68, symSize: 0x18 }
  - { offset: 0x8726F, size: 0x8, addend: 0x0, symName: __RNvMs_NtCse1nGBsou5OW_5alloc3vecINtB4_3VecTNtNtCs5AlOhPCr03V_3syn8generics14TypeParamBoundNtNtBJ_5token3AddEE4pushBJ_, symObjAddr: 0x494C, symBinAddr: 0x38B80, symSize: 0x120 }
  - { offset: 0x87510, size: 0x8, addend: 0x0, symName: __RNvMs_NtCse1nGBsou5OW_5alloc3vecINtB4_3VecTNtNtCs5AlOhPCr03V_3syn8generics14TypeParamBoundNtNtBJ_5token3AddEE5clearBJ_, symObjAddr: 0x4A6C, symBinAddr: 0x38CA0, symSize: 0x7C }
  - { offset: 0x876E3, size: 0x8, addend: 0x0, symName: __RNvMs_NtCse1nGBsou5OW_5alloc3vecINtB4_3VecTNtNtCs5AlOhPCr03V_3syn8generics14TypeParamBoundNtNtBJ_5token3AddEE8as_sliceBJ_, symObjAddr: 0x4AE8, symBinAddr: 0x38D1C, symSize: 0x64 }
  - { offset: 0x877AA, size: 0x8, addend: 0x0, symName: __RNvMs_NtCse1nGBsou5OW_5alloc3vecINtB4_3VecTNtNtCs5AlOhPCr03V_3syn8generics14WherePredicateNtNtBJ_5token5CommaEE3lenBJ_, symObjAddr: 0x4B4C, symBinAddr: 0x38D80, symSize: 0x18 }
  - { offset: 0x878F2, size: 0x8, addend: 0x0, symName: __RNvMs_NtCse1nGBsou5OW_5alloc3vecINtB4_3VecTNtNtCs5AlOhPCr03V_3syn8generics14WherePredicateNtNtBJ_5token5CommaEE4pushBJ_, symObjAddr: 0x4B64, symBinAddr: 0x38D98, symSize: 0x120 }
  - { offset: 0x87B40, size: 0x8, addend: 0x0, symName: __RNvMs_NtCse1nGBsou5OW_5alloc3vecINtB4_3VecTNtNtCs5AlOhPCr03V_3syn8generics14WherePredicateNtNtBJ_5token5CommaEE8as_sliceBJ_, symObjAddr: 0x4C84, symBinAddr: 0x38EB8, symSize: 0x64 }
  - { offset: 0x87C07, size: 0x8, addend: 0x0, symName: __RNvMs_NtCse1nGBsou5OW_5alloc3vecINtB4_3VecTNtNtCs5AlOhPCr03V_3syn8lifetime8LifetimeNtNtBJ_5token3AddEE3lenBJ_, symObjAddr: 0x4CE8, symBinAddr: 0x38F1C, symSize: 0x18 }
  - { offset: 0x87D4F, size: 0x8, addend: 0x0, symName: __RNvMs_NtCse1nGBsou5OW_5alloc3vecINtB4_3VecTNtNtCs5AlOhPCr03V_3syn8lifetime8LifetimeNtNtBJ_5token3AddEE4pushBJ_, symObjAddr: 0x4D00, symBinAddr: 0x38F34, symSize: 0x118 }
  - { offset: 0x87F9B, size: 0x8, addend: 0x0, symName: __RNvMs_NtCse1nGBsou5OW_5alloc3vecINtB4_3VecTNtNtCs5AlOhPCr03V_3syn8lifetime8LifetimeNtNtBJ_5token3AddEE8as_sliceBJ_, symObjAddr: 0x4E18, symBinAddr: 0x3904C, symSize: 0x64 }
  - { offset: 0x8815B, size: 0x8, addend: 0x0, symName: __RNvMs_NtCse1nGBsou5OW_5alloc3vecINtB4_3VechE13shrink_to_fitCs5AlOhPCr03V_3syn, symObjAddr: 0x4E7C, symBinAddr: 0x390B0, symSize: 0xE4 }
  - { offset: 0x883A7, size: 0x8, addend: 0x0, symName: __RNvMs_NtCse1nGBsou5OW_5alloc3vecINtB4_3VechE16into_boxed_sliceCs5AlOhPCr03V_3syn, symObjAddr: 0x4F60, symBinAddr: 0x39194, symSize: 0x110 }
  - { offset: 0x88570, size: 0x8, addend: 0x0, symName: __RNvMs_NtCse1nGBsou5OW_5alloc3vecINtB4_3VechE3lenCs5AlOhPCr03V_3syn, symObjAddr: 0x5070, symBinAddr: 0x392A4, symSize: 0x18 }
  - { offset: 0x88633, size: 0x8, addend: 0x0, symName: __RNvMs_NtCse1nGBsou5OW_5alloc3vecINtB4_3VechE8as_sliceCs5AlOhPCr03V_3syn, symObjAddr: 0x5088, symBinAddr: 0x392BC, symSize: 0x60 }
  - { offset: 0x888A3, size: 0x8, addend: 0x0, symName: __RNvMs_NtCse1nGBsou5OW_5alloc3vecINtB4_3VechE9split_offCs5AlOhPCr03V_3syn, symObjAddr: 0x50E8, symBinAddr: 0x3931C, symSize: 0x140 }
  - { offset: 0x8CA87, size: 0x8, addend: 0x0, symName: __RINvXNtNtCse1nGBsou5OW_5alloc5slice4hackNtNtCs5AlOhPCr03V_3syn4expr3ArmNtB3_10ConvertVec6to_vecNtNtB7_5alloc6GlobalEBG_, symObjAddr: 0x0, symBinAddr: 0x3BAA8, symSize: 0x36C }
  - { offset: 0x8DEF4, size: 0x8, addend: 0x0, symName: __RINvXNtNtCse1nGBsou5OW_5alloc5slice4hackNtNtCs5AlOhPCr03V_3syn4expr3ArmNtB3_10ConvertVec6to_vecNtNtB7_5alloc6GlobalEBG_, symObjAddr: 0x0, symBinAddr: 0x3BAA8, symSize: 0x36C }
  - { offset: 0x8E3B7, size: 0x8, addend: 0x0, symName: __RINvXNtNtCse1nGBsou5OW_5alloc5slice4hackTNtNtCs5AlOhPCr03V_3syn4expr10FieldValueNtNtBH_5token5CommaENtB3_10ConvertVec6to_vecNtNtB7_5alloc6GlobalEBH_, symObjAddr: 0x36C, symBinAddr: 0x3BE14, symSize: 0x36C }
  - { offset: 0x8E87A, size: 0x8, addend: 0x0, symName: __RINvXNtNtCse1nGBsou5OW_5alloc5slice4hackTNtNtCs5AlOhPCr03V_3syn4expr21GenericMethodArgumentNtNtBH_5token5CommaENtB3_10ConvertVec6to_vecNtNtB7_5alloc6GlobalEBH_, symObjAddr: 0x6D8, symBinAddr: 0x3C180, symSize: 0x36C }
  - { offset: 0x8ED3D, size: 0x8, addend: 0x0, symName: __RINvXNtNtCse1nGBsou5OW_5alloc5slice4hackTNtNtCs5AlOhPCr03V_3syn4expr4ExprNtNtBH_5token5CommaENtB3_10ConvertVec6to_vecNtNtB7_5alloc6GlobalEBH_, symObjAddr: 0xA44, symBinAddr: 0x3C4EC, symSize: 0x358 }
  - { offset: 0x9191A, size: 0x8, addend: 0x0, symName: __RNvNtCs5AlOhPCr03V_3syn4expr19requires_terminator, symObjAddr: 0x2D1C, symBinAddr: 0x3D11C, symSize: 0xFC }
  - { offset: 0x91952, size: 0x8, addend: 0x0, symName: __RNvXs_NtNtCs5AlOhPCr03V_3syn4expr7parsingNtB6_4ExprNtNtB8_5parse5Parse5parse, symObjAddr: 0x2E18, symBinAddr: 0x3D218, symSize: 0x3C }
  - { offset: 0x91986, size: 0x8, addend: 0x0, symName: __RNvXsa_NtNtCs5AlOhPCr03V_3syn4expr7parsingNtB7_7ExprLitNtNtB9_5parse5Parse5parse, symObjAddr: 0x38E8, symBinAddr: 0x3D290, symSize: 0x14C }
  - { offset: 0x919D9, size: 0x8, addend: 0x0, symName: __RNvXsc_NtNtCs5AlOhPCr03V_3syn4expr7parsingNtB7_21GenericMethodArgumentNtNtB9_5parse5Parse5parse, symObjAddr: 0x3A68, symBinAddr: 0x3D3DC, symSize: 0x2A0 }
  - { offset: 0x91A89, size: 0x8, addend: 0x0, symName: __RNvXsd_NtNtCs5AlOhPCr03V_3syn4expr7parsingNtB7_15MethodTurbofishNtNtB9_5parse5Parse5parse, symObjAddr: 0x3D08, symBinAddr: 0x3D67C, symSize: 0x508 }
  - { offset: 0x91BB4, size: 0x8, addend: 0x0, symName: __RNvXse_NtNtCs5AlOhPCr03V_3syn4expr7parsingNtB7_7ExprLetNtNtB9_5parse5Parse5parse, symObjAddr: 0x4210, symBinAddr: 0x3DB84, symSize: 0x5D0 }
  - { offset: 0x91D05, size: 0x8, addend: 0x0, symName: __RNvXsf_NtNtCs5AlOhPCr03V_3syn4expr7parsingNtB7_6ExprIfNtNtB9_5parse5Parse5parse, symObjAddr: 0x47E0, symBinAddr: 0x3E154, symSize: 0x598 }
  - { offset: 0x91E41, size: 0x8, addend: 0x0, symName: __RNvXsg_NtNtCs5AlOhPCr03V_3syn4expr7parsingNtB7_11ExprForLoopNtNtB9_5parse5Parse5parse, symObjAddr: 0x4D78, symBinAddr: 0x3E6EC, symSize: 0x92C }
  - { offset: 0x920F0, size: 0x8, addend: 0x0, symName: __RNvXsh_NtNtCs5AlOhPCr03V_3syn4expr7parsingNtB7_8ExprLoopNtNtB9_5parse5Parse5parse, symObjAddr: 0x56A4, symBinAddr: 0x3F018, symSize: 0x584 }
  - { offset: 0x922A2, size: 0x8, addend: 0x0, symName: __RNvXsi_NtNtCs5AlOhPCr03V_3syn4expr7parsingNtB7_9ExprMatchNtNtB9_5parse5Parse5parse, symObjAddr: 0x5C28, symBinAddr: 0x3F59C, symSize: 0x6B8 }
  - { offset: 0x92473, size: 0x8, addend: 0x0, symName: __RNvXsp_NtNtCs5AlOhPCr03V_3syn4expr7parsingNtB7_12ExprTryBlockNtNtB9_5parse5Parse5parse, symObjAddr: 0x67D0, symBinAddr: 0x3FC54, symSize: 0x20C }
  - { offset: 0x924E5, size: 0x8, addend: 0x0, symName: __RNvXsq_NtNtCs5AlOhPCr03V_3syn4expr7parsingNtB7_9ExprYieldNtNtB9_5parse5Parse5parse, symObjAddr: 0x69DC, symBinAddr: 0x3FE60, symSize: 0x27C }
  - { offset: 0x92547, size: 0x8, addend: 0x0, symName: __RNvXsr_NtNtCs5AlOhPCr03V_3syn4expr7parsingNtB7_9ExprAsyncNtNtB9_5parse5Parse5parse, symObjAddr: 0x6C58, symBinAddr: 0x400DC, symSize: 0x2D4 }
  - { offset: 0x925D8, size: 0x8, addend: 0x0, symName: __RNvXss_NtNtCs5AlOhPCr03V_3syn4expr7parsingNtB7_9ExprWhileNtNtB9_5parse5Parse5parse, symObjAddr: 0x6F2C, symBinAddr: 0x403B0, symSize: 0x758 }
  - { offset: 0x9280D, size: 0x8, addend: 0x0, symName: __RNvXst_NtNtCs5AlOhPCr03V_3syn4expr7parsingNtB7_5LabelNtNtB9_5parse5Parse5parse, symObjAddr: 0x7684, symBinAddr: 0x40B08, symSize: 0x1D4 }
  - { offset: 0x9289E, size: 0x8, addend: 0x0, symName: __RNvXsv_NtNtCs5AlOhPCr03V_3syn4expr7parsingNtB7_12ExprContinueNtNtB9_5parse5Parse5parse, symObjAddr: 0x7858, symBinAddr: 0x40CDC, symSize: 0x200 }
  - { offset: 0x92910, size: 0x8, addend: 0x0, symName: __RNvXsw_NtNtCs5AlOhPCr03V_3syn4expr7parsingNtB7_10FieldValueNtNtB9_5parse5Parse5parse, symObjAddr: 0x7A58, symBinAddr: 0x40EDC, symSize: 0x568 }
  - { offset: 0x92AAF, size: 0x8, addend: 0x0, symName: __RNvXsy_NtNtCs5AlOhPCr03V_3syn4expr7parsingNtB7_10ExprUnsafeNtNtB9_5parse5Parse5parse, symObjAddr: 0x811C, symBinAddr: 0x41444, symSize: 0x3A4 }
  - { offset: 0x92C04, size: 0x8, addend: 0x0, symName: __RNvXsz_NtNtCs5AlOhPCr03V_3syn4expr7parsingNtB7_9ExprBlockNtNtB9_5parse5Parse5parse, symObjAddr: 0x84C0, symBinAddr: 0x417E8, symSize: 0x4F0 }
  - { offset: 0x92D89, size: 0x8, addend: 0x0, symName: __RNvXsA_NtNtCs5AlOhPCr03V_3syn4expr7parsingNtB7_11RangeLimitsNtNtB9_5parse5Parse5parse, symObjAddr: 0x89B0, symBinAddr: 0x41CD8, symSize: 0x2C4 }
  - { offset: 0x92E0A, size: 0x8, addend: 0x0, symName: __RNvXsB_NtNtCs5AlOhPCr03V_3syn4expr7parsingNtB7_8ExprPathNtNtB9_5parse5Parse5parse, symObjAddr: 0x8C74, symBinAddr: 0x41F9C, symSize: 0x230 }
  - { offset: 0x92EE2, size: 0x8, addend: 0x0, symName: __RNvXsC_NtNtCs5AlOhPCr03V_3syn4expr7parsingNtB7_6MemberNtNtB9_5parse5Parse5parse, symObjAddr: 0x8EA4, symBinAddr: 0x421CC, symSize: 0xFC }
  - { offset: 0x92F16, size: 0x8, addend: 0x0, symName: __RNvXsD_NtNtCs5AlOhPCr03V_3syn4expr7parsingNtB7_3ArmNtNtB9_5parse5Parse5parse, symObjAddr: 0x8FA0, symBinAddr: 0x422C8, symSize: 0x904 }
  - { offset: 0x9314E, size: 0x8, addend: 0x0, symName: __RNvXsE_NtNtCs5AlOhPCr03V_3syn4expr7parsingNtB7_5IndexNtNtB9_5parse5Parse5parse, symObjAddr: 0x98A4, symBinAddr: 0x42BCC, symSize: 0x28C }
  - { offset: 0x93211, size: 0x8, addend: 0x0, symName: __RNvXNtNtCs5AlOhPCr03V_3syn4expr8printingNtB4_7ExprBoxNtNtCs2cqEZUIJimJ_5quote9to_tokens8ToTokens9to_tokens, symObjAddr: 0x9B9C, symBinAddr: 0x42EC4, symSize: 0x64 }
  - { offset: 0x93250, size: 0x8, addend: 0x0, symName: __RNvXs_NtNtCs5AlOhPCr03V_3syn4expr8printingNtB6_9ExprArrayNtNtCs2cqEZUIJimJ_5quote9to_tokens8ToTokens9to_tokens, symObjAddr: 0x9C00, symBinAddr: 0x42F28, symSize: 0x60 }
  - { offset: 0x9328F, size: 0x8, addend: 0x0, symName: __RNvXs0_NtNtCs5AlOhPCr03V_3syn4expr8printingNtB7_8ExprCallNtNtCs2cqEZUIJimJ_5quote9to_tokens8ToTokens9to_tokens, symObjAddr: 0x9C60, symBinAddr: 0x42F88, symSize: 0x70 }
  - { offset: 0x932CE, size: 0x8, addend: 0x0, symName: __RNvXs1_NtNtCs5AlOhPCr03V_3syn4expr8printingNtB7_14ExprMethodCallNtNtCs2cqEZUIJimJ_5quote9to_tokens8ToTokens9to_tokens, symObjAddr: 0x9CD0, symBinAddr: 0x42FF8, symSize: 0xA0 }
  - { offset: 0x9330D, size: 0x8, addend: 0x0, symName: __RNvXs2_NtNtCs5AlOhPCr03V_3syn4expr8printingNtB7_15MethodTurbofishNtNtCs2cqEZUIJimJ_5quote9to_tokens8ToTokens9to_tokens, symObjAddr: 0x9D70, symBinAddr: 0x43098, symSize: 0x70 }
  - { offset: 0x9334C, size: 0x8, addend: 0x0, symName: __RNvXs3_NtNtCs5AlOhPCr03V_3syn4expr8printingNtB7_21GenericMethodArgumentNtNtCs2cqEZUIJimJ_5quote9to_tokens8ToTokens9to_tokens, symObjAddr: 0x9DE0, symBinAddr: 0x43108, symSize: 0xA4 }
  - { offset: 0x933BF, size: 0x8, addend: 0x0, symName: __RNvXs4_NtNtCs5AlOhPCr03V_3syn4expr8printingNtB7_9ExprTupleNtNtCs2cqEZUIJimJ_5quote9to_tokens8ToTokens9to_tokens, symObjAddr: 0x9E84, symBinAddr: 0x431AC, symSize: 0x60 }
  - { offset: 0x933FE, size: 0x8, addend: 0x0, symName: __RNvXs5_NtNtCs5AlOhPCr03V_3syn4expr8printingNtB7_10ExprBinaryNtNtCs2cqEZUIJimJ_5quote9to_tokens8ToTokens9to_tokens, symObjAddr: 0x9EE4, symBinAddr: 0x4320C, symSize: 0x74 }
  - { offset: 0x9343D, size: 0x8, addend: 0x0, symName: __RNvXs6_NtNtCs5AlOhPCr03V_3syn4expr8printingNtB7_9ExprUnaryNtNtCs2cqEZUIJimJ_5quote9to_tokens8ToTokens9to_tokens, symObjAddr: 0x9F58, symBinAddr: 0x43280, symSize: 0x64 }
  - { offset: 0x9347C, size: 0x8, addend: 0x0, symName: __RNvXs7_NtNtCs5AlOhPCr03V_3syn4expr8printingNtB7_7ExprLitNtNtCs2cqEZUIJimJ_5quote9to_tokens8ToTokens9to_tokens, symObjAddr: 0x9FBC, symBinAddr: 0x432E4, symSize: 0x54 }
  - { offset: 0x934BB, size: 0x8, addend: 0x0, symName: __RNvXs8_NtNtCs5AlOhPCr03V_3syn4expr8printingNtB7_8ExprCastNtNtCs2cqEZUIJimJ_5quote9to_tokens8ToTokens9to_tokens, symObjAddr: 0xA010, symBinAddr: 0x43338, symSize: 0x74 }
  - { offset: 0x934FA, size: 0x8, addend: 0x0, symName: __RNvXs9_NtNtCs5AlOhPCr03V_3syn4expr8printingNtB7_8ExprTypeNtNtCs2cqEZUIJimJ_5quote9to_tokens8ToTokens9to_tokens, symObjAddr: 0xA084, symBinAddr: 0x433AC, symSize: 0x74 }
  - { offset: 0x93539, size: 0x8, addend: 0x0, symName: __RNvXsa_NtNtCs5AlOhPCr03V_3syn4expr8printingNtB7_7ExprLetNtNtCs2cqEZUIJimJ_5quote9to_tokens8ToTokens9to_tokens, symObjAddr: 0xA0F8, symBinAddr: 0x43420, symSize: 0xAC }
  - { offset: 0x93578, size: 0x8, addend: 0x0, symName: __RNvXsb_NtNtCs5AlOhPCr03V_3syn4expr8printingNtB7_6ExprIfNtNtCs2cqEZUIJimJ_5quote9to_tokens8ToTokens9to_tokens, symObjAddr: 0xA1A4, symBinAddr: 0x434CC, symSize: 0xAC }
  - { offset: 0x935B7, size: 0x8, addend: 0x0, symName: __RNvXsc_NtNtCs5AlOhPCr03V_3syn4expr8printingNtB7_9ExprWhileNtNtCs2cqEZUIJimJ_5quote9to_tokens8ToTokens9to_tokens, symObjAddr: 0xA250, symBinAddr: 0x43578, symSize: 0xAC }
  - { offset: 0x935F6, size: 0x8, addend: 0x0, symName: __RNvXsd_NtNtCs5AlOhPCr03V_3syn4expr8printingNtB7_11ExprForLoopNtNtCs2cqEZUIJimJ_5quote9to_tokens8ToTokens9to_tokens, symObjAddr: 0xA2FC, symBinAddr: 0x43624, symSize: 0xCC }
  - { offset: 0x93635, size: 0x8, addend: 0x0, symName: __RNvXse_NtNtCs5AlOhPCr03V_3syn4expr8printingNtB7_8ExprLoopNtNtCs2cqEZUIJimJ_5quote9to_tokens8ToTokens9to_tokens, symObjAddr: 0xA3C8, symBinAddr: 0x436F0, symSize: 0x80 }
  - { offset: 0x93674, size: 0x8, addend: 0x0, symName: __RNvXsf_NtNtCs5AlOhPCr03V_3syn4expr8printingNtB7_9ExprMatchNtNtCs2cqEZUIJimJ_5quote9to_tokens8ToTokens9to_tokens, symObjAddr: 0xA448, symBinAddr: 0x43770, symSize: 0x9C }
  - { offset: 0x936B3, size: 0x8, addend: 0x0, symName: __RNvXsg_NtNtCs5AlOhPCr03V_3syn4expr8printingNtB7_9ExprAsyncNtNtCs2cqEZUIJimJ_5quote9to_tokens8ToTokens9to_tokens, symObjAddr: 0xA4E4, symBinAddr: 0x4380C, symSize: 0x74 }
  - { offset: 0x936F2, size: 0x8, addend: 0x0, symName: __RNvXsh_NtNtCs5AlOhPCr03V_3syn4expr8printingNtB7_9ExprAwaitNtNtCs2cqEZUIJimJ_5quote9to_tokens8ToTokens9to_tokens, symObjAddr: 0xA558, symBinAddr: 0x43880, symSize: 0x74 }
  - { offset: 0x93731, size: 0x8, addend: 0x0, symName: __RNvXsi_NtNtCs5AlOhPCr03V_3syn4expr8printingNtB7_12ExprTryBlockNtNtCs2cqEZUIJimJ_5quote9to_tokens8ToTokens9to_tokens, symObjAddr: 0xA5CC, symBinAddr: 0x438F4, symSize: 0x64 }
  - { offset: 0x93770, size: 0x8, addend: 0x0, symName: __RNvXsj_NtNtCs5AlOhPCr03V_3syn4expr8printingNtB7_9ExprYieldNtNtCs2cqEZUIJimJ_5quote9to_tokens8ToTokens9to_tokens, symObjAddr: 0xA630, symBinAddr: 0x43958, symSize: 0x64 }
  - { offset: 0x937AF, size: 0x8, addend: 0x0, symName: __RNvXsk_NtNtCs5AlOhPCr03V_3syn4expr8printingNtB7_11ExprClosureNtNtCs2cqEZUIJimJ_5quote9to_tokens8ToTokens9to_tokens, symObjAddr: 0xA694, symBinAddr: 0x439BC, symSize: 0xC4 }
  - { offset: 0x937EE, size: 0x8, addend: 0x0, symName: __RNvXsl_NtNtCs5AlOhPCr03V_3syn4expr8printingNtB7_10ExprUnsafeNtNtCs2cqEZUIJimJ_5quote9to_tokens8ToTokens9to_tokens, symObjAddr: 0xA758, symBinAddr: 0x43A80, symSize: 0x70 }
  - { offset: 0x9382D, size: 0x8, addend: 0x0, symName: __RNvXsm_NtNtCs5AlOhPCr03V_3syn4expr8printingNtB7_9ExprBlockNtNtCs2cqEZUIJimJ_5quote9to_tokens8ToTokens9to_tokens, symObjAddr: 0xA7C8, symBinAddr: 0x43AF0, symSize: 0x70 }
  - { offset: 0x9386C, size: 0x8, addend: 0x0, symName: __RNvXsn_NtNtCs5AlOhPCr03V_3syn4expr8printingNtB7_10ExprAssignNtNtCs2cqEZUIJimJ_5quote9to_tokens8ToTokens9to_tokens, symObjAddr: 0xA838, symBinAddr: 0x43B60, symSize: 0x74 }
  - { offset: 0x938AB, size: 0x8, addend: 0x0, symName: __RNvXso_NtNtCs5AlOhPCr03V_3syn4expr8printingNtB7_12ExprAssignOpNtNtCs2cqEZUIJimJ_5quote9to_tokens8ToTokens9to_tokens, symObjAddr: 0xA8AC, symBinAddr: 0x43BD4, symSize: 0x74 }
  - { offset: 0x938EA, size: 0x8, addend: 0x0, symName: __RNvXsp_NtNtCs5AlOhPCr03V_3syn4expr8printingNtB7_9ExprFieldNtNtCs2cqEZUIJimJ_5quote9to_tokens8ToTokens9to_tokens, symObjAddr: 0xA920, symBinAddr: 0x43C48, symSize: 0x74 }
  - { offset: 0x93929, size: 0x8, addend: 0x0, symName: __RNvXsq_NtNtCs5AlOhPCr03V_3syn4expr8printingNtB7_6MemberNtNtCs2cqEZUIJimJ_5quote9to_tokens8ToTokens9to_tokens, symObjAddr: 0xA994, symBinAddr: 0x43CBC, symSize: 0x98 }
  - { offset: 0x9399C, size: 0x8, addend: 0x0, symName: __RNvXsr_NtNtCs5AlOhPCr03V_3syn4expr8printingNtB7_5IndexNtNtCs2cqEZUIJimJ_5quote9to_tokens8ToTokens9to_tokens, symObjAddr: 0xAA2C, symBinAddr: 0x43D54, symSize: 0xD4 }
  - { offset: 0x939F1, size: 0x8, addend: 0x0, symName: __RNvXss_NtNtCs5AlOhPCr03V_3syn4expr8printingNtB7_9ExprIndexNtNtCs2cqEZUIJimJ_5quote9to_tokens8ToTokens9to_tokens, symObjAddr: 0xAB00, symBinAddr: 0x43E28, symSize: 0x70 }
  - { offset: 0x93A30, size: 0x8, addend: 0x0, symName: __RNvXst_NtNtCs5AlOhPCr03V_3syn4expr8printingNtB7_11RangeLimitsNtNtCs2cqEZUIJimJ_5quote9to_tokens8ToTokens9to_tokens, symObjAddr: 0xAB70, symBinAddr: 0x43E98, symSize: 0x94 }
  - { offset: 0x93AA3, size: 0x8, addend: 0x0, symName: __RNvXsu_NtNtCs5AlOhPCr03V_3syn4expr8printingNtB7_9ExprRangeNtNtCs2cqEZUIJimJ_5quote9to_tokens8ToTokens9to_tokens, symObjAddr: 0xAC04, symBinAddr: 0x43F2C, symSize: 0x74 }
  - { offset: 0x93AE2, size: 0x8, addend: 0x0, symName: __RNvXsv_NtNtCs5AlOhPCr03V_3syn4expr8printingNtB7_8ExprPathNtNtCs2cqEZUIJimJ_5quote9to_tokens8ToTokens9to_tokens, symObjAddr: 0xAC78, symBinAddr: 0x43FA0, symSize: 0x5C }
  - { offset: 0x93B21, size: 0x8, addend: 0x0, symName: __RNvXsw_NtNtCs5AlOhPCr03V_3syn4expr8printingNtB7_13ExprReferenceNtNtCs2cqEZUIJimJ_5quote9to_tokens8ToTokens9to_tokens, symObjAddr: 0xACD4, symBinAddr: 0x43FFC, symSize: 0x74 }
  - { offset: 0x93B60, size: 0x8, addend: 0x0, symName: __RNvXsx_NtNtCs5AlOhPCr03V_3syn4expr8printingNtB7_9ExprBreakNtNtCs2cqEZUIJimJ_5quote9to_tokens8ToTokens9to_tokens, symObjAddr: 0xAD48, symBinAddr: 0x44070, symSize: 0x74 }
  - { offset: 0x93B9F, size: 0x8, addend: 0x0, symName: __RNvXsy_NtNtCs5AlOhPCr03V_3syn4expr8printingNtB7_12ExprContinueNtNtCs2cqEZUIJimJ_5quote9to_tokens8ToTokens9to_tokens, symObjAddr: 0xADBC, symBinAddr: 0x440E4, symSize: 0x64 }
  - { offset: 0x93BDE, size: 0x8, addend: 0x0, symName: __RNvXsz_NtNtCs5AlOhPCr03V_3syn4expr8printingNtB7_10ExprReturnNtNtCs2cqEZUIJimJ_5quote9to_tokens8ToTokens9to_tokens, symObjAddr: 0xAE20, symBinAddr: 0x44148, symSize: 0x64 }
  - { offset: 0x93C1D, size: 0x8, addend: 0x0, symName: __RNvXsA_NtNtCs5AlOhPCr03V_3syn4expr8printingNtB7_9ExprMacroNtNtCs2cqEZUIJimJ_5quote9to_tokens8ToTokens9to_tokens, symObjAddr: 0xAE84, symBinAddr: 0x441AC, symSize: 0x54 }
  - { offset: 0x93C5C, size: 0x8, addend: 0x0, symName: __RNvXsB_NtNtCs5AlOhPCr03V_3syn4expr8printingNtB7_10ExprStructNtNtCs2cqEZUIJimJ_5quote9to_tokens8ToTokens9to_tokens, symObjAddr: 0xAED8, symBinAddr: 0x44200, symSize: 0x70 }
  - { offset: 0x93C9B, size: 0x8, addend: 0x0, symName: __RNvXsC_NtNtCs5AlOhPCr03V_3syn4expr8printingNtB7_10ExprRepeatNtNtCs2cqEZUIJimJ_5quote9to_tokens8ToTokens9to_tokens, symObjAddr: 0xAF48, symBinAddr: 0x44270, symSize: 0x60 }
  - { offset: 0x93CDA, size: 0x8, addend: 0x0, symName: __RNvXsD_NtNtCs5AlOhPCr03V_3syn4expr8printingNtB7_9ExprGroupNtNtCs2cqEZUIJimJ_5quote9to_tokens8ToTokens9to_tokens, symObjAddr: 0xAFA8, symBinAddr: 0x442D0, symSize: 0x60 }
  - { offset: 0x93D19, size: 0x8, addend: 0x0, symName: __RNvXsE_NtNtCs5AlOhPCr03V_3syn4expr8printingNtB7_9ExprParenNtNtCs2cqEZUIJimJ_5quote9to_tokens8ToTokens9to_tokens, symObjAddr: 0xB008, symBinAddr: 0x44330, symSize: 0x60 }
  - { offset: 0x93D58, size: 0x8, addend: 0x0, symName: __RNvXsF_NtNtCs5AlOhPCr03V_3syn4expr8printingNtB7_7ExprTryNtNtCs2cqEZUIJimJ_5quote9to_tokens8ToTokens9to_tokens, symObjAddr: 0xB068, symBinAddr: 0x44390, symSize: 0x64 }
  - { offset: 0x93D97, size: 0x8, addend: 0x0, symName: __RNvXsG_NtNtCs5AlOhPCr03V_3syn4expr8printingNtB7_5LabelNtNtCs2cqEZUIJimJ_5quote9to_tokens8ToTokens9to_tokens, symObjAddr: 0xB0CC, symBinAddr: 0x443F4, symSize: 0x50 }
  - { offset: 0x93DD6, size: 0x8, addend: 0x0, symName: __RNvXsH_NtNtCs5AlOhPCr03V_3syn4expr8printingNtB7_10FieldValueNtNtCs2cqEZUIJimJ_5quote9to_tokens8ToTokens9to_tokens, symObjAddr: 0xB11C, symBinAddr: 0x44444, symSize: 0xB4 }
  - { offset: 0x93E33, size: 0x8, addend: 0x0, symName: __RNvXsI_NtNtCs5AlOhPCr03V_3syn4expr8printingNtB7_3ArmNtNtCs2cqEZUIJimJ_5quote9to_tokens8ToTokens9to_tokens, symObjAddr: 0xB1D0, symBinAddr: 0x444F8, symSize: 0xF4 }
  - { offset: 0x93EA6, size: 0x8, addend: 0x0, symName: __RNcNtNtNtCs5AlOhPCr03V_3syn4expr4Expr5Async0B7_, symObjAddr: 0xB330, symBinAddr: 0x44658, symSize: 0x3C }
  - { offset: 0x93ED5, size: 0x8, addend: 0x0, symName: __RNcNtNtNtCs5AlOhPCr03V_3syn4expr4Expr5Block0B7_, symObjAddr: 0xB36C, symBinAddr: 0x44694, symSize: 0x40 }
  - { offset: 0x93F04, size: 0x8, addend: 0x0, symName: __RNcNtNtNtCs5AlOhPCr03V_3syn4expr4Expr3Box0B7_, symObjAddr: 0xB3AC, symBinAddr: 0x446D4, symSize: 0x3C }
  - { offset: 0x93F33, size: 0x8, addend: 0x0, symName: __RNcNtNtNtCs5AlOhPCr03V_3syn4expr4Expr5Break0B7_, symObjAddr: 0xB3E8, symBinAddr: 0x44710, symSize: 0x40 }
  - { offset: 0x93F62, size: 0x8, addend: 0x0, symName: __RNcNtNtNtCs5AlOhPCr03V_3syn4expr4Expr7Closure0B7_, symObjAddr: 0xB428, symBinAddr: 0x44750, symSize: 0x40 }
  - { offset: 0x93F91, size: 0x8, addend: 0x0, symName: __RNcNtNtNtCs5AlOhPCr03V_3syn4expr4Expr8Continue0B7_, symObjAddr: 0xB468, symBinAddr: 0x44790, symSize: 0x40 }
  - { offset: 0x93FC0, size: 0x8, addend: 0x0, symName: __RNcNtNtNtCs5AlOhPCr03V_3syn4expr4Expr7ForLoop0B7_, symObjAddr: 0xB4A8, symBinAddr: 0x447D0, symSize: 0x30 }
  - { offset: 0x93FEF, size: 0x8, addend: 0x0, symName: __RNcNtNtNtCs5AlOhPCr03V_3syn4expr4Expr5Group0B7_, symObjAddr: 0xB4D8, symBinAddr: 0x44800, symSize: 0x3C }
  - { offset: 0x9401E, size: 0x8, addend: 0x0, symName: __RNcNtNtNtCs5AlOhPCr03V_3syn4expr4Expr2If0B7_, symObjAddr: 0xB514, symBinAddr: 0x4483C, symSize: 0x40 }
  - { offset: 0x9404D, size: 0x8, addend: 0x0, symName: __RNcNtNtNtCs5AlOhPCr03V_3syn4expr4Expr3Let0B7_, symObjAddr: 0xB554, symBinAddr: 0x4487C, symSize: 0x40 }
  - { offset: 0x9407C, size: 0x8, addend: 0x0, symName: __RNcNtNtNtCs5AlOhPCr03V_3syn4expr4Expr3Lit0B7_, symObjAddr: 0xB594, symBinAddr: 0x448BC, symSize: 0x40 }
  - { offset: 0x940AB, size: 0x8, addend: 0x0, symName: __RNcNtNtNtCs5AlOhPCr03V_3syn4expr4Expr4Loop0B7_, symObjAddr: 0xB5D4, symBinAddr: 0x448FC, symSize: 0x40 }
  - { offset: 0x940DA, size: 0x8, addend: 0x0, symName: __RNcNtNtNtCs5AlOhPCr03V_3syn4expr4Expr5Match0B7_, symObjAddr: 0xB614, symBinAddr: 0x4493C, symSize: 0x40 }
  - { offset: 0x94109, size: 0x8, addend: 0x0, symName: __RNcNtNtNtCs5AlOhPCr03V_3syn4expr4Expr5Range0B7_, symObjAddr: 0xB654, symBinAddr: 0x4497C, symSize: 0x40 }
  - { offset: 0x94138, size: 0x8, addend: 0x0, symName: __RNcNtNtNtCs5AlOhPCr03V_3syn4expr4Expr6Return0B7_, symObjAddr: 0xB694, symBinAddr: 0x449BC, symSize: 0x40 }
  - { offset: 0x94167, size: 0x8, addend: 0x0, symName: __RNcNtNtNtCs5AlOhPCr03V_3syn4expr4Expr8TryBlock0B7_, symObjAddr: 0xB6D4, symBinAddr: 0x449FC, symSize: 0x40 }
  - { offset: 0x94196, size: 0x8, addend: 0x0, symName: __RNcNtNtNtCs5AlOhPCr03V_3syn4expr4Expr5Unary0B7_, symObjAddr: 0xB714, symBinAddr: 0x44A3C, symSize: 0x40 }
  - { offset: 0x941C5, size: 0x8, addend: 0x0, symName: __RNcNtNtNtCs5AlOhPCr03V_3syn4expr4Expr6Unsafe0B7_, symObjAddr: 0xB754, symBinAddr: 0x44A7C, symSize: 0x40 }
  - { offset: 0x941F4, size: 0x8, addend: 0x0, symName: __RNcNtNtNtCs5AlOhPCr03V_3syn4expr4Expr8Verbatim0B7_, symObjAddr: 0xB794, symBinAddr: 0x44ABC, symSize: 0x24 }
  - { offset: 0x94222, size: 0x8, addend: 0x0, symName: __RNcNtNtNtCs5AlOhPCr03V_3syn4expr4Expr5While0B7_, symObjAddr: 0xB7B8, symBinAddr: 0x44AE0, symSize: 0x40 }
  - { offset: 0x94251, size: 0x8, addend: 0x0, symName: __RNcNtNtNtCs5AlOhPCr03V_3syn4expr4Expr5Yield0B7_, symObjAddr: 0xB7F8, symBinAddr: 0x44B20, symSize: 0x40 }
  - { offset: 0x94281, size: 0x8, addend: 0x0, symName: __RNvXsO_NtCs5AlOhPCr03V_3syn4exprNtB5_4ExprNtNtCs2cqEZUIJimJ_5quote9to_tokens8ToTokens9to_tokens, symObjAddr: 0xC440, symBinAddr: 0x44B60, symSize: 0x4DC }
  - { offset: 0x9476A, size: 0x8, addend: 0x0, symName: __RNcNtNtNtCs5AlOhPCr03V_3syn4expr6Member5Named0B7_, symObjAddr: 0xC91C, symBinAddr: 0x4503C, symSize: 0x18 }
  - { offset: 0x9479A, size: 0x8, addend: 0x0, symName: __RNcNtNtNtCs5AlOhPCr03V_3syn4expr6Member7Unnamed0B7_, symObjAddr: 0xC934, symBinAddr: 0x45054, symSize: 0x28 }
  - { offset: 0x947D0, size: 0x8, addend: 0x0, symName: __RNcNtNtNtCs5AlOhPCr03V_3syn4expr21GenericMethodArgument4Type0B7_, symObjAddr: 0xC95C, symBinAddr: 0x4507C, symSize: 0x30 }
  - { offset: 0x94807, size: 0x8, addend: 0x0, symName: __RNcNtNtNtCs5AlOhPCr03V_3syn4expr11RangeLimits8HalfOpen0B7_, symObjAddr: 0xC98C, symBinAddr: 0x450AC, symSize: 0x24 }
  - { offset: 0x94837, size: 0x8, addend: 0x0, symName: __RNcNtNtNtCs5AlOhPCr03V_3syn4expr11RangeLimits6Closed0B7_, symObjAddr: 0xC9B0, symBinAddr: 0x450D0, symSize: 0x20 }
  - { offset: 0x970D9, size: 0x8, addend: 0x0, symName: __RNvXs0_NtNtCs5AlOhPCr03V_3syn3gen5cloneNtNtB9_4expr3ArmNtNtCsfvfooZQ3Axs_4core5clone5Clone5clone, symObjAddr: 0x10798, symBinAddr: 0x450F0, symSize: 0x1BC }
  - { offset: 0x9710B, size: 0x8, addend: 0x0, symName: __RNvXsh_NtNtCs5AlOhPCr03V_3syn3gen5cloneNtNtB9_4expr4ExprNtNtCsfvfooZQ3Axs_4core5clone5Clone5clone, symObjAddr: 0x10954, symBinAddr: 0x452AC, symSize: 0xEB0 }
  - { offset: 0x975EB, size: 0x8, addend: 0x0, symName: __RNvXsi_NtNtCs5AlOhPCr03V_3syn3gen5cloneNtNtB9_4expr9ExprArrayNtNtCsfvfooZQ3Axs_4core5clone5Clone5clone, symObjAddr: 0x11804, symBinAddr: 0x4615C, symSize: 0xC0 }
  - { offset: 0x9761F, size: 0x8, addend: 0x0, symName: __RNvXsj_NtNtCs5AlOhPCr03V_3syn3gen5cloneNtNtB9_4expr10ExprAssignNtNtCsfvfooZQ3Axs_4core5clone5Clone5clone, symObjAddr: 0x118C4, symBinAddr: 0x4621C, symSize: 0x108 }
  - { offset: 0x97653, size: 0x8, addend: 0x0, symName: __RNvXsk_NtNtCs5AlOhPCr03V_3syn3gen5cloneNtNtB9_4expr12ExprAssignOpNtNtCsfvfooZQ3Axs_4core5clone5Clone5clone, symObjAddr: 0x119CC, symBinAddr: 0x46324, symSize: 0xF8 }
  - { offset: 0x97687, size: 0x8, addend: 0x0, symName: __RNvXsl_NtNtCs5AlOhPCr03V_3syn3gen5cloneNtNtB9_4expr9ExprAsyncNtNtCsfvfooZQ3Axs_4core5clone5Clone5clone, symObjAddr: 0x11AC4, symBinAddr: 0x4641C, symSize: 0xE8 }
  - { offset: 0x976BB, size: 0x8, addend: 0x0, symName: __RNvXsm_NtNtCs5AlOhPCr03V_3syn3gen5cloneNtNtB9_4expr9ExprAwaitNtNtCsfvfooZQ3Axs_4core5clone5Clone5clone, symObjAddr: 0x11BAC, symBinAddr: 0x46504, symSize: 0x108 }
  - { offset: 0x976EF, size: 0x8, addend: 0x0, symName: __RNvXsn_NtNtCs5AlOhPCr03V_3syn3gen5cloneNtNtB9_4expr10ExprBinaryNtNtCsfvfooZQ3Axs_4core5clone5Clone5clone, symObjAddr: 0x11CB4, symBinAddr: 0x4660C, symSize: 0xF8 }
  - { offset: 0x97723, size: 0x8, addend: 0x0, symName: __RNvXso_NtNtCs5AlOhPCr03V_3syn3gen5cloneNtNtB9_4expr9ExprBlockNtNtCsfvfooZQ3Axs_4core5clone5Clone5clone, symObjAddr: 0x11DAC, symBinAddr: 0x46704, symSize: 0xEC }
  - { offset: 0x97757, size: 0x8, addend: 0x0, symName: __RNvXsp_NtNtCs5AlOhPCr03V_3syn3gen5cloneNtNtB9_4expr7ExprBoxNtNtCsfvfooZQ3Axs_4core5clone5Clone5clone, symObjAddr: 0x11E98, symBinAddr: 0x467F0, symSize: 0xB8 }
  - { offset: 0x9778B, size: 0x8, addend: 0x0, symName: __RNvXsq_NtNtCs5AlOhPCr03V_3syn3gen5cloneNtNtB9_4expr9ExprBreakNtNtCsfvfooZQ3Axs_4core5clone5Clone5clone, symObjAddr: 0x11F50, symBinAddr: 0x468A8, symSize: 0xF8 }
  - { offset: 0x977BF, size: 0x8, addend: 0x0, symName: __RNvXsr_NtNtCs5AlOhPCr03V_3syn3gen5cloneNtNtB9_4expr8ExprCallNtNtCsfvfooZQ3Axs_4core5clone5Clone5clone, symObjAddr: 0x12048, symBinAddr: 0x469A0, symSize: 0x100 }
  - { offset: 0x977F3, size: 0x8, addend: 0x0, symName: __RNvXss_NtNtCs5AlOhPCr03V_3syn3gen5cloneNtNtB9_4expr8ExprCastNtNtCsfvfooZQ3Axs_4core5clone5Clone5clone, symObjAddr: 0x12148, symBinAddr: 0x46AA0, symSize: 0xF8 }
  - { offset: 0x97827, size: 0x8, addend: 0x0, symName: __RNvXst_NtNtCs5AlOhPCr03V_3syn3gen5cloneNtNtB9_4expr11ExprClosureNtNtCsfvfooZQ3Axs_4core5clone5Clone5clone, symObjAddr: 0x12240, symBinAddr: 0x46B98, symSize: 0x1E4 }
  - { offset: 0x9785B, size: 0x8, addend: 0x0, symName: __RNvXsu_NtNtCs5AlOhPCr03V_3syn3gen5cloneNtNtB9_4expr12ExprContinueNtNtCsfvfooZQ3Axs_4core5clone5Clone5clone, symObjAddr: 0x12424, symBinAddr: 0x46D7C, symSize: 0xC0 }
  - { offset: 0x9788F, size: 0x8, addend: 0x0, symName: __RNvXsv_NtNtCs5AlOhPCr03V_3syn3gen5cloneNtNtB9_4expr9ExprFieldNtNtCsfvfooZQ3Axs_4core5clone5Clone5clone, symObjAddr: 0x124E4, symBinAddr: 0x46E3C, symSize: 0x110 }
  - { offset: 0x978C3, size: 0x8, addend: 0x0, symName: __RNvXsw_NtNtCs5AlOhPCr03V_3syn3gen5cloneNtNtB9_4expr11ExprForLoopNtNtCsfvfooZQ3Axs_4core5clone5Clone5clone, symObjAddr: 0x125F4, symBinAddr: 0x46F4C, symSize: 0x1B4 }
  - { offset: 0x978F7, size: 0x8, addend: 0x0, symName: __RNvXsx_NtNtCs5AlOhPCr03V_3syn3gen5cloneNtNtB9_4expr9ExprGroupNtNtCsfvfooZQ3Axs_4core5clone5Clone5clone, symObjAddr: 0x127A8, symBinAddr: 0x47100, symSize: 0xB8 }
  - { offset: 0x9792B, size: 0x8, addend: 0x0, symName: __RNvXsy_NtNtCs5AlOhPCr03V_3syn3gen5cloneNtNtB9_4expr6ExprIfNtNtCsfvfooZQ3Axs_4core5clone5Clone5clone, symObjAddr: 0x12860, symBinAddr: 0x471B8, symSize: 0x144 }
  - { offset: 0x9795F, size: 0x8, addend: 0x0, symName: __RNvXsz_NtNtCs5AlOhPCr03V_3syn3gen5cloneNtNtB9_4expr9ExprIndexNtNtCsfvfooZQ3Axs_4core5clone5Clone5clone, symObjAddr: 0x129A4, symBinAddr: 0x472FC, symSize: 0xF8 }
  - { offset: 0x97993, size: 0x8, addend: 0x0, symName: __RNvXsA_NtNtCs5AlOhPCr03V_3syn3gen5cloneNtNtB9_4expr7ExprLetNtNtCsfvfooZQ3Axs_4core5clone5Clone5clone, symObjAddr: 0x12A9C, symBinAddr: 0x473F4, symSize: 0x134 }
  - { offset: 0x979C7, size: 0x8, addend: 0x0, symName: __RNvXsB_NtNtCs5AlOhPCr03V_3syn3gen5cloneNtNtB9_4expr7ExprLitNtNtCsfvfooZQ3Axs_4core5clone5Clone5clone, symObjAddr: 0x12BD0, symBinAddr: 0x47528, symSize: 0xA4 }
  - { offset: 0x979FB, size: 0x8, addend: 0x0, symName: __RNvXsC_NtNtCs5AlOhPCr03V_3syn3gen5cloneNtNtB9_4expr8ExprLoopNtNtCsfvfooZQ3Axs_4core5clone5Clone5clone, symObjAddr: 0x12C74, symBinAddr: 0x475CC, symSize: 0x108 }
  - { offset: 0x97A2F, size: 0x8, addend: 0x0, symName: __RNvXsD_NtNtCs5AlOhPCr03V_3syn3gen5cloneNtNtB9_4expr9ExprMacroNtNtCsfvfooZQ3Axs_4core5clone5Clone5clone, symObjAddr: 0x12D7C, symBinAddr: 0x476D4, symSize: 0xA8 }
  - { offset: 0x97A63, size: 0x8, addend: 0x0, symName: __RNvXsE_NtNtCs5AlOhPCr03V_3syn3gen5cloneNtNtB9_4expr9ExprMatchNtNtCsfvfooZQ3Axs_4core5clone5Clone5clone, symObjAddr: 0x12E24, symBinAddr: 0x4777C, symSize: 0x124 }
  - { offset: 0x97A97, size: 0x8, addend: 0x0, symName: __RNvXsF_NtNtCs5AlOhPCr03V_3syn3gen5cloneNtNtB9_4expr14ExprMethodCallNtNtCsfvfooZQ3Axs_4core5clone5Clone5clone, symObjAddr: 0x12F48, symBinAddr: 0x478A0, symSize: 0x1B4 }
  - { offset: 0x97ACB, size: 0x8, addend: 0x0, symName: __RNvXsG_NtNtCs5AlOhPCr03V_3syn3gen5cloneNtNtB9_4expr9ExprParenNtNtCsfvfooZQ3Axs_4core5clone5Clone5clone, symObjAddr: 0x130FC, symBinAddr: 0x47A54, symSize: 0xB8 }
  - { offset: 0x97AFF, size: 0x8, addend: 0x0, symName: __RNvXsH_NtNtCs5AlOhPCr03V_3syn3gen5cloneNtNtB9_4expr8ExprPathNtNtCsfvfooZQ3Axs_4core5clone5Clone5clone, symObjAddr: 0x131B4, symBinAddr: 0x47B0C, symSize: 0xE8 }
  - { offset: 0x97B33, size: 0x8, addend: 0x0, symName: __RNvXsI_NtNtCs5AlOhPCr03V_3syn3gen5cloneNtNtB9_4expr9ExprRangeNtNtCsfvfooZQ3Axs_4core5clone5Clone5clone, symObjAddr: 0x1329C, symBinAddr: 0x47BF4, symSize: 0xF8 }
  - { offset: 0x97B67, size: 0x8, addend: 0x0, symName: __RNvXsJ_NtNtCs5AlOhPCr03V_3syn3gen5cloneNtNtB9_4expr13ExprReferenceNtNtCsfvfooZQ3Axs_4core5clone5Clone5clone, symObjAddr: 0x13394, symBinAddr: 0x47CEC, symSize: 0x100 }
  - { offset: 0x97B9B, size: 0x8, addend: 0x0, symName: __RNvXsK_NtNtCs5AlOhPCr03V_3syn3gen5cloneNtNtB9_4expr10ExprRepeatNtNtCsfvfooZQ3Axs_4core5clone5Clone5clone, symObjAddr: 0x13494, symBinAddr: 0x47DEC, symSize: 0x124 }
  - { offset: 0x97BCF, size: 0x8, addend: 0x0, symName: __RNvXsL_NtNtCs5AlOhPCr03V_3syn3gen5cloneNtNtB9_4expr10ExprReturnNtNtCsfvfooZQ3Axs_4core5clone5Clone5clone, symObjAddr: 0x135B8, symBinAddr: 0x47F10, symSize: 0xB8 }
  - { offset: 0x97C03, size: 0x8, addend: 0x0, symName: __RNvXsM_NtNtCs5AlOhPCr03V_3syn3gen5cloneNtNtB9_4expr10ExprStructNtNtCsfvfooZQ3Axs_4core5clone5Clone5clone, symObjAddr: 0x13670, symBinAddr: 0x47FC8, symSize: 0x164 }
  - { offset: 0x97C37, size: 0x8, addend: 0x0, symName: __RNvXsN_NtNtCs5AlOhPCr03V_3syn3gen5cloneNtNtB9_4expr7ExprTryNtNtCsfvfooZQ3Axs_4core5clone5Clone5clone, symObjAddr: 0x137D4, symBinAddr: 0x4812C, symSize: 0xEC }
  - { offset: 0x97C6B, size: 0x8, addend: 0x0, symName: __RNvXsO_NtNtCs5AlOhPCr03V_3syn3gen5cloneNtNtB9_4expr12ExprTryBlockNtNtCsfvfooZQ3Axs_4core5clone5Clone5clone, symObjAddr: 0x138C0, symBinAddr: 0x48218, symSize: 0xC0 }
  - { offset: 0x97C9F, size: 0x8, addend: 0x0, symName: __RNvXsP_NtNtCs5AlOhPCr03V_3syn3gen5cloneNtNtB9_4expr9ExprTupleNtNtCsfvfooZQ3Axs_4core5clone5Clone5clone, symObjAddr: 0x13980, symBinAddr: 0x482D8, symSize: 0xC0 }
  - { offset: 0x97CD3, size: 0x8, addend: 0x0, symName: __RNvXsQ_NtNtCs5AlOhPCr03V_3syn3gen5cloneNtNtB9_4expr8ExprTypeNtNtCsfvfooZQ3Axs_4core5clone5Clone5clone, symObjAddr: 0x13A40, symBinAddr: 0x48398, symSize: 0x108 }
  - { offset: 0x97D07, size: 0x8, addend: 0x0, symName: __RNvXsR_NtNtCs5AlOhPCr03V_3syn3gen5cloneNtNtB9_4expr9ExprUnaryNtNtCsfvfooZQ3Axs_4core5clone5Clone5clone, symObjAddr: 0x13B48, symBinAddr: 0x484A0, symSize: 0xC8 }
  - { offset: 0x97D3B, size: 0x8, addend: 0x0, symName: __RNvXsS_NtNtCs5AlOhPCr03V_3syn3gen5cloneNtNtB9_4expr10ExprUnsafeNtNtCsfvfooZQ3Axs_4core5clone5Clone5clone, symObjAddr: 0x13C10, symBinAddr: 0x48568, symSize: 0xC0 }
  - { offset: 0x97D6F, size: 0x8, addend: 0x0, symName: __RNvXsT_NtNtCs5AlOhPCr03V_3syn3gen5cloneNtNtB9_4expr9ExprWhileNtNtCsfvfooZQ3Axs_4core5clone5Clone5clone, symObjAddr: 0x13CD0, symBinAddr: 0x48628, symSize: 0x148 }
  - { offset: 0x97DA3, size: 0x8, addend: 0x0, symName: __RNvXsU_NtNtCs5AlOhPCr03V_3syn3gen5cloneNtNtB9_4expr9ExprYieldNtNtCsfvfooZQ3Axs_4core5clone5Clone5clone, symObjAddr: 0x13E18, symBinAddr: 0x48770, symSize: 0xB8 }
  - { offset: 0x97DD7, size: 0x8, addend: 0x0, symName: __RNvXsX_NtNtCs5AlOhPCr03V_3syn3gen5cloneNtNtB9_4expr10FieldValueNtNtCsfvfooZQ3Axs_4core5clone5Clone5clone, symObjAddr: 0x13ED0, symBinAddr: 0x48828, symSize: 0x120 }
  - { offset: 0x97E0B, size: 0x8, addend: 0x0, symName: __RNvXs19_NtNtCs5AlOhPCr03V_3syn3gen5cloneNtNtBa_4expr21GenericMethodArgumentNtNtCsfvfooZQ3Axs_4core5clone5Clone5clone, symObjAddr: 0x13FF0, symBinAddr: 0x48948, symSize: 0xEC }
  - { offset: 0x97E73, size: 0x8, addend: 0x0, symName: __RNvXs1h_NtNtCs5AlOhPCr03V_3syn3gen5cloneNtNtBa_4expr5IndexNtNtCsfvfooZQ3Axs_4core5clone5Clone5clone, symObjAddr: 0x140DC, symBinAddr: 0x48A34, symSize: 0x48 }
  - { offset: 0x97EA7, size: 0x8, addend: 0x0, symName: __RNvXs1z_NtNtCs5AlOhPCr03V_3syn3gen5cloneNtNtBa_4expr5LabelNtNtCsfvfooZQ3Axs_4core5clone5Clone5clone, symObjAddr: 0x14124, symBinAddr: 0x48A7C, symSize: 0xA4 }
  - { offset: 0x97EDB, size: 0x8, addend: 0x0, symName: __RNvXs1G_NtNtCs5AlOhPCr03V_3syn3gen5cloneNtNtBa_4expr6MemberNtNtCsfvfooZQ3Axs_4core5clone5Clone5clone, symObjAddr: 0x141C8, symBinAddr: 0x48B20, symSize: 0xB8 }
  - { offset: 0x97F43, size: 0x8, addend: 0x0, symName: __RNvXs1K_NtNtCs5AlOhPCr03V_3syn3gen5cloneNtNtBa_4expr15MethodTurbofishNtNtCsfvfooZQ3Axs_4core5clone5Clone5clone, symObjAddr: 0x14280, symBinAddr: 0x48BD8, symSize: 0xEC }
  - { offset: 0x97F77, size: 0x8, addend: 0x0, symName: __RNvXs2b_NtNtCs5AlOhPCr03V_3syn3gen5cloneNtNtBa_4expr11RangeLimitsNtNtCsfvfooZQ3Axs_4core5clone5Clone5clone, symObjAddr: 0x1436C, symBinAddr: 0x48CC4, symSize: 0x2C }
  - { offset: 0x9B652, size: 0x8, addend: 0x0, symName: __RNvMNtCsfvfooZQ3Axs_4core5sliceSNtNtCs5AlOhPCr03V_3syn4expr3Arm4iterBy_, symObjAddr: 0xD9C, symBinAddr: 0x3C844, symSize: 0x28 }
  - { offset: 0x9B689, size: 0x8, addend: 0x0, symName: __RNvMNtCsfvfooZQ3Axs_4core5sliceSTNtNtCs5AlOhPCr03V_3syn4expr10FieldValueNtNtBz_5token5CommaE4iterBz_, symObjAddr: 0xDC4, symBinAddr: 0x3C86C, symSize: 0x28 }
  - { offset: 0x9B6C0, size: 0x8, addend: 0x0, symName: __RNvMNtCsfvfooZQ3Axs_4core5sliceSTNtNtCs5AlOhPCr03V_3syn4expr21GenericMethodArgumentNtNtBz_5token5CommaE4iterBz_, symObjAddr: 0xDEC, symBinAddr: 0x3C894, symSize: 0x28 }
  - { offset: 0x9B6F7, size: 0x8, addend: 0x0, symName: __RNvMNtCsfvfooZQ3Axs_4core5sliceSTNtNtCs5AlOhPCr03V_3syn4expr4ExprNtNtBz_5token5CommaE4iterBz_, symObjAddr: 0xE14, symBinAddr: 0x3C8BC, symSize: 0x28 }
  - { offset: 0x9BBBF, size: 0x8, addend: 0x0, symName: __RNvXNtNtCsfvfooZQ3Axs_4core5clone6uninitNtNtCs5AlOhPCr03V_3syn4expr10FieldValueNtB2_8CopySpec9clone_oneBG_, symObjAddr: 0xEFC, symBinAddr: 0x3C9A4, symSize: 0x50 }
  - { offset: 0x9BC23, size: 0x8, addend: 0x0, symName: __RNvXNtNtCsfvfooZQ3Axs_4core5clone6uninitNtNtCs5AlOhPCr03V_3syn4expr21GenericMethodArgumentNtB2_8CopySpec9clone_oneBG_, symObjAddr: 0xF4C, symBinAddr: 0x3C9F4, symSize: 0x50 }
  - { offset: 0x9BC87, size: 0x8, addend: 0x0, symName: __RNvXNtNtCsfvfooZQ3Axs_4core5clone6uninitNtNtCs5AlOhPCr03V_3syn4expr4ExprNtB2_8CopySpec9clone_oneBG_, symObjAddr: 0xF9C, symBinAddr: 0x3CA44, symSize: 0x50 }
  - { offset: 0x9DE0A, size: 0x8, addend: 0x0, symName: __RNvXNtCs2cqEZUIJimJ_5quote9to_tokensRNtNtCs5AlOhPCr03V_3syn4expr10FieldValueNtB2_8ToTokens9to_tokensBD_, symObjAddr: 0xE3C, symBinAddr: 0x3C8E4, symSize: 0x40 }
  - { offset: 0x9DE49, size: 0x8, addend: 0x0, symName: __RNvXNtCs2cqEZUIJimJ_5quote9to_tokensRNtNtCs5AlOhPCr03V_3syn4expr21GenericMethodArgumentNtB2_8ToTokens9to_tokensBD_, symObjAddr: 0xE7C, symBinAddr: 0x3C924, symSize: 0x40 }
  - { offset: 0x9DE88, size: 0x8, addend: 0x0, symName: __RNvXNtCs2cqEZUIJimJ_5quote9to_tokensRNtNtCs5AlOhPCr03V_3syn4expr4ExprNtB2_8ToTokens9to_tokensBD_, symObjAddr: 0xEBC, symBinAddr: 0x3C964, symSize: 0x40 }
  - { offset: 0x9DEFE, size: 0x8, addend: 0x0, symName: __RNvMNtCs5AlOhPCr03V_3syn4exprNtB2_4Expr13replace_attrs, symObjAddr: 0x224C, symBinAddr: 0x3CA94, symSize: 0x688 }
  - { offset: 0x9DFA3, size: 0x8, addend: 0x0, symName: __RNvMs0_NtNtCs5AlOhPCr03V_3syn4expr7parsingNtB7_4Expr25parse_without_eager_brace, symObjAddr: 0x2E54, symBinAddr: 0x3D254, symSize: 0x3C }
  - { offset: 0x9DFD3, size: 0x8, addend: 0x0, symName: __RNvMsF_NtNtCs5AlOhPCr03V_3syn4expr7parsingNtB7_6Member8is_named, symObjAddr: 0x9B30, symBinAddr: 0x42E58, symSize: 0x6C }
  - { offset: 0x9DFF6, size: 0x8, addend: 0x0, symName: __RNvMs_NtNtCs5AlOhPCr03V_3syn3pat7parsingNtNtB8_4expr6Member10is_unnamed, symObjAddr: 0xB2C4, symBinAddr: 0x445EC, symSize: 0x6C }
  - { offset: 0x9E336, size: 0x8, addend: 0x0, symName: __RINvYINtNtCs5AlOhPCr03V_3syn10punctuated5PairsNtNtB8_4path11PathSegmentNtNtB8_5token6Colon2ENtNtNtNtCsfvfooZQ3Axs_4core4iter6traits8iterator8Iterator3mapINtB6_4PairBI_B17_ENCNvMNtB8_4attrNtB2P_9Attribute10parse_metas_0EB8_, symObjAddr: 0x0, symBinAddr: 0x48CF0, symSize: 0x20 }
  - { offset: 0xA0460, size: 0x8, addend: 0x0, symName: __RNCNvMNtCs5AlOhPCr03V_3syn10punctuatedINtB4_10PunctuatedNtNtB6_4path11PathSegmentNtNtB6_5token6Colon2E10into_pairs0B6_, symObjAddr: 0x4748, symBinAddr: 0x4BFE0, symSize: 0x98 }
  - { offset: 0xA04B5, size: 0x8, addend: 0x0, symName: __RNCNvMNtCs5AlOhPCr03V_3syn10punctuatedINtB4_10PunctuatedNtNtB6_4item5FnArgNtNtB6_5token5CommaE3pop0B6_, symObjAddr: 0x90F8, symBinAddr: 0x50990, symSize: 0xC0 }
  - { offset: 0xA04FD, size: 0x8, addend: 0x0, symName: __RNCNvMNtCs5AlOhPCr03V_3syn10punctuatedINtB4_10PunctuatedNtNtB6_4item5FnArgNtNtB6_5token5CommaE3pops_0B6_, symObjAddr: 0x91B8, symBinAddr: 0x50A50, symSize: 0x74 }
  - { offset: 0xA060D, size: 0x8, addend: 0x0, symName: __RNvXs_NtCs5AlOhPCr03V_3syn10punctuatedINtB4_10PunctuatedNtNtB6_2ty4TypeNtNtB6_5token5CommaENtNtCsfvfooZQ3Axs_4core5clone5Clone5cloneB6_, symObjAddr: 0xB15C, symBinAddr: 0x529F4, symSize: 0x9C }
  - { offset: 0xA064D, size: 0x8, addend: 0x0, symName: __RNvXs_NtCs5AlOhPCr03V_3syn10punctuatedINtB4_10PunctuatedNtNtB6_2ty9BareFnArgNtNtB6_5token5CommaENtNtCsfvfooZQ3Axs_4core5clone5Clone5cloneB6_, symObjAddr: 0xB1F8, symBinAddr: 0x52A90, symSize: 0x9C }
  - { offset: 0xA068D, size: 0x8, addend: 0x0, symName: __RNvXs_NtCs5AlOhPCr03V_3syn10punctuatedINtB4_10PunctuatedNtNtB6_3pat3PatNtNtB6_5token2OrENtNtCsfvfooZQ3Axs_4core5clone5Clone5cloneB6_, symObjAddr: 0xB294, symBinAddr: 0x52B2C, symSize: 0x9C }
  - { offset: 0xA06CD, size: 0x8, addend: 0x0, symName: __RNvXs_NtCs5AlOhPCr03V_3syn10punctuatedINtB4_10PunctuatedNtNtB6_3pat3PatNtNtB6_5token5CommaENtNtCsfvfooZQ3Axs_4core5clone5Clone5cloneB6_, symObjAddr: 0xB330, symBinAddr: 0x52BC8, symSize: 0x9C }
  - { offset: 0xA070D, size: 0x8, addend: 0x0, symName: __RNvXs_NtCs5AlOhPCr03V_3syn10punctuatedINtB4_10PunctuatedNtNtB6_3pat8FieldPatNtNtB6_5token5CommaENtNtCsfvfooZQ3Axs_4core5clone5Clone5cloneB6_, symObjAddr: 0xB3CC, symBinAddr: 0x52C64, symSize: 0x9C }
  - { offset: 0xA074D, size: 0x8, addend: 0x0, symName: __RNvXs_NtCs5AlOhPCr03V_3syn10punctuatedINtB4_10PunctuatedNtNtB6_4data5FieldNtNtB6_5token5CommaENtNtCsfvfooZQ3Axs_4core5clone5Clone5cloneB6_, symObjAddr: 0xB504, symBinAddr: 0x52D00, symSize: 0x9C }
  - { offset: 0xA078D, size: 0x8, addend: 0x0, symName: __RNvXs_NtCs5AlOhPCr03V_3syn10punctuatedINtB4_10PunctuatedNtNtB6_4data7VariantNtNtB6_5token5CommaENtNtCsfvfooZQ3Axs_4core5clone5Clone5cloneB6_, symObjAddr: 0xB5A0, symBinAddr: 0x52D9C, symSize: 0x9C }
  - { offset: 0xA07CD, size: 0x8, addend: 0x0, symName: __RNvXs_NtCs5AlOhPCr03V_3syn10punctuatedINtB4_10PunctuatedNtNtB6_4expr10FieldValueNtNtB6_5token5CommaENtNtCsfvfooZQ3Axs_4core5clone5Clone5cloneB6_, symObjAddr: 0xB63C, symBinAddr: 0x52E38, symSize: 0x9C }
  - { offset: 0xA080D, size: 0x8, addend: 0x0, symName: __RNvXs_NtCs5AlOhPCr03V_3syn10punctuatedINtB4_10PunctuatedNtNtB6_4expr21GenericMethodArgumentNtNtB6_5token5CommaENtNtCsfvfooZQ3Axs_4core5clone5Clone5cloneB6_, symObjAddr: 0xB6D8, symBinAddr: 0x52ED4, symSize: 0x9C }
  - { offset: 0xA084D, size: 0x8, addend: 0x0, symName: __RNvXs_NtCs5AlOhPCr03V_3syn10punctuatedINtB4_10PunctuatedNtNtB6_4expr4ExprNtNtB6_5token5CommaENtNtCsfvfooZQ3Axs_4core5clone5Clone5cloneB6_, symObjAddr: 0xB774, symBinAddr: 0x52F70, symSize: 0x9C }
  - { offset: 0xA088D, size: 0x8, addend: 0x0, symName: __RNvXs_NtCs5AlOhPCr03V_3syn10punctuatedINtB4_10PunctuatedNtNtB6_4item5FnArgNtNtB6_5token5CommaENtNtCsfvfooZQ3Axs_4core5clone5Clone5cloneB6_, symObjAddr: 0xB810, symBinAddr: 0x5300C, symSize: 0x9C }
  - { offset: 0xA08CD, size: 0x8, addend: 0x0, symName: __RNvXs_NtCs5AlOhPCr03V_3syn10punctuatedINtB4_10PunctuatedNtNtB6_4item7UseTreeNtNtB6_5token5CommaENtNtCsfvfooZQ3Axs_4core5clone5Clone5cloneB6_, symObjAddr: 0xB8AC, symBinAddr: 0x530A8, symSize: 0x9C }
  - { offset: 0xA090D, size: 0x8, addend: 0x0, symName: __RNvXs_NtCs5AlOhPCr03V_3syn10punctuatedINtB4_10PunctuatedNtNtB6_4path11PathSegmentNtNtB6_5token6Colon2ENtNtCsfvfooZQ3Axs_4core5clone5Clone5cloneB6_, symObjAddr: 0xB948, symBinAddr: 0x53144, symSize: 0x9C }
  - { offset: 0xA094D, size: 0x8, addend: 0x0, symName: __RNvXs_NtCs5AlOhPCr03V_3syn10punctuatedINtB4_10PunctuatedNtNtB6_4path15GenericArgumentNtNtB6_5token5CommaENtNtCsfvfooZQ3Axs_4core5clone5Clone5cloneB6_, symObjAddr: 0xB9E4, symBinAddr: 0x531E0, symSize: 0x9C }
  - { offset: 0xA098D, size: 0x8, addend: 0x0, symName: __RNvXs_NtCs5AlOhPCr03V_3syn10punctuatedINtB4_10PunctuatedNtNtB6_8generics11LifetimeDefNtNtB6_5token5CommaENtNtCsfvfooZQ3Axs_4core5clone5Clone5cloneB6_, symObjAddr: 0xBA80, symBinAddr: 0x5327C, symSize: 0x9C }
  - { offset: 0xA09CD, size: 0x8, addend: 0x0, symName: __RNvXs_NtCs5AlOhPCr03V_3syn10punctuatedINtB4_10PunctuatedNtNtB6_8generics12GenericParamNtNtB6_5token5CommaENtNtCsfvfooZQ3Axs_4core5clone5Clone5cloneB6_, symObjAddr: 0xBB1C, symBinAddr: 0x53318, symSize: 0x9C }
  - { offset: 0xA0A0D, size: 0x8, addend: 0x0, symName: __RNvXs_NtCs5AlOhPCr03V_3syn10punctuatedINtB4_10PunctuatedNtNtB6_8generics14TypeParamBoundNtNtB6_5token3AddENtNtCsfvfooZQ3Axs_4core5clone5Clone5cloneB6_, symObjAddr: 0xBBB8, symBinAddr: 0x533B4, symSize: 0x9C }
  - { offset: 0xA0A4D, size: 0x8, addend: 0x0, symName: __RNvXs_NtCs5AlOhPCr03V_3syn10punctuatedINtB4_10PunctuatedNtNtB6_8generics14WherePredicateNtNtB6_5token5CommaENtNtCsfvfooZQ3Axs_4core5clone5Clone5cloneB6_, symObjAddr: 0xBC54, symBinAddr: 0x53450, symSize: 0x9C }
  - { offset: 0xA0A8D, size: 0x8, addend: 0x0, symName: __RNvXs_NtCs5AlOhPCr03V_3syn10punctuatedINtB4_10PunctuatedNtNtB6_8lifetime8LifetimeNtNtB6_5token3AddENtNtCsfvfooZQ3Axs_4core5clone5Clone5cloneB6_, symObjAddr: 0xBCF0, symBinAddr: 0x534EC, symSize: 0x9C }
  - { offset: 0xA0AD3, size: 0x8, addend: 0x0, symName: __RINvXs6_NtCs5AlOhPCr03V_3syn10punctuatedINtB6_10PunctuatedNtNtB8_4path11PathSegmentNtNtB8_5token6Colon2EINtNtNtNtCsfvfooZQ3Axs_4core4iter6traits7collect12FromIteratorINtB6_4PairBU_B1j_EE9from_iterINtNtNtB1L_8adapters3map3MapINtB6_5PairsBU_B1j_ENCNvMNtB8_4attrNtB3Z_9Attribute10parse_metas_0EEB8_, symObjAddr: 0xE17C, symBinAddr: 0x53588, symSize: 0xCC }
  - { offset: 0xA0B39, size: 0x8, addend: 0x0, symName: __RINvXs7_NtCs5AlOhPCr03V_3syn10punctuatedINtB6_10PunctuatedNtNtB8_4path11PathSegmentNtNtB8_5token6Colon2EINtNtNtNtCsfvfooZQ3Axs_4core4iter6traits7collect6ExtendINtB6_4PairBU_B1j_EE6extendINtB6_9IntoPairsBU_B1j_EEB8_, symObjAddr: 0xE248, symBinAddr: 0x53654, symSize: 0x440 }
  - { offset: 0xA0C31, size: 0x8, addend: 0x0, symName: __RINvXs7_NtCs5AlOhPCr03V_3syn10punctuatedINtB6_10PunctuatedNtNtB8_4path11PathSegmentNtNtB8_5token6Colon2EINtNtNtNtCsfvfooZQ3Axs_4core4iter6traits7collect6ExtendINtB6_4PairBU_B1j_EE6extendINtNtNtB1L_8adapters3map3MapINtB6_5PairsBU_B1j_ENCNvMNtB8_4attrNtB3P_9Attribute10parse_metas_0EEB8_, symObjAddr: 0xE688, symBinAddr: 0x53A94, symSize: 0x41C }
  - { offset: 0xA0D2F, size: 0x8, addend: 0x0, symName: __RNvXs8_NtCs5AlOhPCr03V_3syn10punctuatedINtB5_10PunctuatedNtNtB7_8generics14TypeParamBoundNtNtB7_5token3AddENtNtNtNtCsfvfooZQ3Axs_4core4iter6traits7collect12IntoIterator9into_iterB7_, symObjAddr: 0xEE24, symBinAddr: 0x53EB0, symSize: 0x1C0 }
  - { offset: 0xA0D8B, size: 0x8, addend: 0x0, symName: __RNCNvXs8_NtCs5AlOhPCr03V_3syn10punctuatedINtB7_10PunctuatedNtNtB9_8generics14TypeParamBoundNtNtB9_5token3AddENtNtNtNtCsfvfooZQ3Axs_4core4iter6traits7collect12IntoIterator9into_iter0B9_, symObjAddr: 0xF06C, symBinAddr: 0x54070, symSize: 0x44 }
  - { offset: 0xA0DD7, size: 0x8, addend: 0x0, symName: __RNCNvXs8_NtCs5AlOhPCr03V_3syn10punctuatedINtB7_10PunctuatedNtNtB9_8generics14TypeParamBoundNtNtB9_5token3AddENtNtNtNtCsfvfooZQ3Axs_4core4iter6traits7collect12IntoIterator9into_iters_0B9_, symObjAddr: 0xF1E0, symBinAddr: 0x540B4, symSize: 0x98 }
  - { offset: 0xA0E37, size: 0x8, addend: 0x0, symName: __RNvXs9_NtCs5AlOhPCr03V_3syn10punctuatedRINtB5_10PunctuatedNtNtB7_4path11PathSegmentNtNtB7_5token6Colon2ENtNtNtNtCsfvfooZQ3Axs_4core4iter6traits7collect12IntoIterator9into_iterB7_, symObjAddr: 0xF278, symBinAddr: 0x5414C, symSize: 0x34 }
  - { offset: 0xA0E77, size: 0x8, addend: 0x0, symName: __RNvXs9_NtCs5AlOhPCr03V_3syn10punctuatedRINtB5_10PunctuatedNtNtB7_8generics14TypeParamBoundNtNtB7_5token3AddENtNtNtNtCsfvfooZQ3Axs_4core4iter6traits7collect12IntoIterator9into_iterB7_, symObjAddr: 0xF2AC, symBinAddr: 0x54180, symSize: 0x34 }
  - { offset: 0xA0EBD, size: 0x8, addend: 0x0, symName: __RNvXsc_NtCs5AlOhPCr03V_3syn10punctuatedINtB5_5PairsNtNtB7_2ty4TypeNtNtB7_5token5CommaENtNtNtNtCsfvfooZQ3Axs_4core4iter6traits8iterator8Iterator4nextB7_, symObjAddr: 0xF2E0, symBinAddr: 0x541B4, symSize: 0x5C }
  - { offset: 0xA0EFD, size: 0x8, addend: 0x0, symName: __RNvXsc_NtCs5AlOhPCr03V_3syn10punctuatedINtB5_5PairsNtNtB7_2ty9BareFnArgNtNtB7_5token5CommaENtNtNtNtCsfvfooZQ3Axs_4core4iter6traits8iterator8Iterator4nextB7_, symObjAddr: 0xF33C, symBinAddr: 0x54210, symSize: 0x5C }
  - { offset: 0xA0F3D, size: 0x8, addend: 0x0, symName: __RNvXsc_NtCs5AlOhPCr03V_3syn10punctuatedINtB5_5PairsNtNtB7_3pat3PatNtNtB7_5token2OrENtNtNtNtCsfvfooZQ3Axs_4core4iter6traits8iterator8Iterator4nextB7_, symObjAddr: 0xF398, symBinAddr: 0x5426C, symSize: 0x5C }
  - { offset: 0xA0F7D, size: 0x8, addend: 0x0, symName: __RNvXsc_NtCs5AlOhPCr03V_3syn10punctuatedINtB5_5PairsNtNtB7_3pat3PatNtNtB7_5token5CommaENtNtNtNtCsfvfooZQ3Axs_4core4iter6traits8iterator8Iterator4nextB7_, symObjAddr: 0xF3F4, symBinAddr: 0x542C8, symSize: 0x5C }
  - { offset: 0xA0FBD, size: 0x8, addend: 0x0, symName: __RNvXsc_NtCs5AlOhPCr03V_3syn10punctuatedINtB5_5PairsNtNtB7_3pat8FieldPatNtNtB7_5token5CommaENtNtNtNtCsfvfooZQ3Axs_4core4iter6traits8iterator8Iterator4nextB7_, symObjAddr: 0xF450, symBinAddr: 0x54324, symSize: 0x5C }
  - { offset: 0xA0FFD, size: 0x8, addend: 0x0, symName: __RNvXsc_NtCs5AlOhPCr03V_3syn10punctuatedINtB5_5PairsNtNtB7_4data5FieldNtNtB7_5token5CommaENtNtNtNtCsfvfooZQ3Axs_4core4iter6traits8iterator8Iterator4nextB7_, symObjAddr: 0xF508, symBinAddr: 0x54380, symSize: 0x5C }
  - { offset: 0xA103D, size: 0x8, addend: 0x0, symName: __RNvXsc_NtCs5AlOhPCr03V_3syn10punctuatedINtB5_5PairsNtNtB7_4data7VariantNtNtB7_5token5CommaENtNtNtNtCsfvfooZQ3Axs_4core4iter6traits8iterator8Iterator4nextB7_, symObjAddr: 0xF564, symBinAddr: 0x543DC, symSize: 0x5C }
  - { offset: 0xA107D, size: 0x8, addend: 0x0, symName: __RNvXsc_NtCs5AlOhPCr03V_3syn10punctuatedINtB5_5PairsNtNtB7_4expr10FieldValueNtNtB7_5token5CommaENtNtNtNtCsfvfooZQ3Axs_4core4iter6traits8iterator8Iterator4nextB7_, symObjAddr: 0xF5C0, symBinAddr: 0x54438, symSize: 0x5C }
  - { offset: 0xA10BD, size: 0x8, addend: 0x0, symName: __RNvXsc_NtCs5AlOhPCr03V_3syn10punctuatedINtB5_5PairsNtNtB7_4expr21GenericMethodArgumentNtNtB7_5token5CommaENtNtNtNtCsfvfooZQ3Axs_4core4iter6traits8iterator8Iterator4nextB7_, symObjAddr: 0xF61C, symBinAddr: 0x54494, symSize: 0x5C }
  - { offset: 0xA10FD, size: 0x8, addend: 0x0, symName: __RNvXsc_NtCs5AlOhPCr03V_3syn10punctuatedINtB5_5PairsNtNtB7_4expr4ExprNtNtB7_5token5CommaENtNtNtNtCsfvfooZQ3Axs_4core4iter6traits8iterator8Iterator4nextB7_, symObjAddr: 0xF678, symBinAddr: 0x544F0, symSize: 0x5C }
  - { offset: 0xA113D, size: 0x8, addend: 0x0, symName: __RNvXsc_NtCs5AlOhPCr03V_3syn10punctuatedINtB5_5PairsNtNtB7_4item5FnArgNtNtB7_5token5CommaENtNtNtNtCsfvfooZQ3Axs_4core4iter6traits8iterator8Iterator4nextB7_, symObjAddr: 0xF6D4, symBinAddr: 0x5454C, symSize: 0x5C }
  - { offset: 0xA117D, size: 0x8, addend: 0x0, symName: __RNvXsc_NtCs5AlOhPCr03V_3syn10punctuatedINtB5_5PairsNtNtB7_4item7UseTreeNtNtB7_5token5CommaENtNtNtNtCsfvfooZQ3Axs_4core4iter6traits8iterator8Iterator4nextB7_, symObjAddr: 0xF730, symBinAddr: 0x545A8, symSize: 0x5C }
  - { offset: 0xA11BD, size: 0x8, addend: 0x0, symName: __RNvXsc_NtCs5AlOhPCr03V_3syn10punctuatedINtB5_5PairsNtNtB7_4path11PathSegmentNtNtB7_5token6Colon2ENtNtNtNtCsfvfooZQ3Axs_4core4iter6traits8iterator8Iterator4nextB7_, symObjAddr: 0xF78C, symBinAddr: 0x54604, symSize: 0x5C }
  - { offset: 0xA11FD, size: 0x8, addend: 0x0, symName: __RNvXsc_NtCs5AlOhPCr03V_3syn10punctuatedINtB5_5PairsNtNtB7_4path15GenericArgumentNtNtB7_5token5CommaENtNtNtNtCsfvfooZQ3Axs_4core4iter6traits8iterator8Iterator4nextB7_, symObjAddr: 0xF7E8, symBinAddr: 0x54660, symSize: 0x5C }
  - { offset: 0xA123D, size: 0x8, addend: 0x0, symName: __RNvXsc_NtCs5AlOhPCr03V_3syn10punctuatedINtB5_5PairsNtNtB7_8generics11LifetimeDefNtNtB7_5token5CommaENtNtNtNtCsfvfooZQ3Axs_4core4iter6traits8iterator8Iterator4nextB7_, symObjAddr: 0xF844, symBinAddr: 0x546BC, symSize: 0x5C }
  - { offset: 0xA127D, size: 0x8, addend: 0x0, symName: __RNvXsc_NtCs5AlOhPCr03V_3syn10punctuatedINtB5_5PairsNtNtB7_8generics12GenericParamNtNtB7_5token5CommaENtNtNtNtCsfvfooZQ3Axs_4core4iter6traits8iterator8Iterator4nextB7_, symObjAddr: 0xF8A0, symBinAddr: 0x54718, symSize: 0x5C }
  - { offset: 0xA12BD, size: 0x8, addend: 0x0, symName: __RNvXsc_NtCs5AlOhPCr03V_3syn10punctuatedINtB5_5PairsNtNtB7_8generics14TypeParamBoundNtNtB7_5token3AddENtNtNtNtCsfvfooZQ3Axs_4core4iter6traits8iterator8Iterator4nextB7_, symObjAddr: 0xF8FC, symBinAddr: 0x54774, symSize: 0x5C }
  - { offset: 0xA12FD, size: 0x8, addend: 0x0, symName: __RNvXsc_NtCs5AlOhPCr03V_3syn10punctuatedINtB5_5PairsNtNtB7_8generics14WherePredicateNtNtB7_5token5CommaENtNtNtNtCsfvfooZQ3Axs_4core4iter6traits8iterator8Iterator4nextB7_, symObjAddr: 0xF958, symBinAddr: 0x547D0, symSize: 0x5C }
  - { offset: 0xA133D, size: 0x8, addend: 0x0, symName: __RNvXsc_NtCs5AlOhPCr03V_3syn10punctuatedINtB5_5PairsNtNtB7_8lifetime8LifetimeNtNtB7_5token3AddENtNtNtNtCsfvfooZQ3Axs_4core4iter6traits8iterator8Iterator4nextB7_, symObjAddr: 0xF9B4, symBinAddr: 0x5482C, symSize: 0x5C }
  - { offset: 0xA1382, size: 0x8, addend: 0x0, symName: __RNCNvXsc_NtCs5AlOhPCr03V_3syn10punctuatedINtB7_5PairsNtNtB9_2ty4TypeNtNtB9_5token5CommaENtNtNtNtCsfvfooZQ3Axs_4core4iter6traits8iterator8Iterator4next0B9_, symObjAddr: 0xFA10, symBinAddr: 0x54888, symSize: 0x40 }
  - { offset: 0xA13F7, size: 0x8, addend: 0x0, symName: __RNCNvXsc_NtCs5AlOhPCr03V_3syn10punctuatedINtB7_5PairsNtNtB9_2ty9BareFnArgNtNtB9_5token5CommaENtNtNtNtCsfvfooZQ3Axs_4core4iter6traits8iterator8Iterator4next0B9_, symObjAddr: 0xFA50, symBinAddr: 0x548C8, symSize: 0x40 }
  - { offset: 0xA146C, size: 0x8, addend: 0x0, symName: __RNCNvXsc_NtCs5AlOhPCr03V_3syn10punctuatedINtB7_5PairsNtNtB9_3pat3PatNtNtB9_5token2OrENtNtNtNtCsfvfooZQ3Axs_4core4iter6traits8iterator8Iterator4next0B9_, symObjAddr: 0xFA90, symBinAddr: 0x54908, symSize: 0x40 }
  - { offset: 0xA14E1, size: 0x8, addend: 0x0, symName: __RNCNvXsc_NtCs5AlOhPCr03V_3syn10punctuatedINtB7_5PairsNtNtB9_3pat3PatNtNtB9_5token5CommaENtNtNtNtCsfvfooZQ3Axs_4core4iter6traits8iterator8Iterator4next0B9_, symObjAddr: 0xFAD0, symBinAddr: 0x54948, symSize: 0x40 }
  - { offset: 0xA1556, size: 0x8, addend: 0x0, symName: __RNCNvXsc_NtCs5AlOhPCr03V_3syn10punctuatedINtB7_5PairsNtNtB9_3pat8FieldPatNtNtB9_5token5CommaENtNtNtNtCsfvfooZQ3Axs_4core4iter6traits8iterator8Iterator4next0B9_, symObjAddr: 0xFB10, symBinAddr: 0x54988, symSize: 0x40 }
  - { offset: 0xA15CB, size: 0x8, addend: 0x0, symName: __RNCNvXsc_NtCs5AlOhPCr03V_3syn10punctuatedINtB7_5PairsNtNtB9_4data5FieldNtNtB9_5token5CommaENtNtNtNtCsfvfooZQ3Axs_4core4iter6traits8iterator8Iterator4next0B9_, symObjAddr: 0xFB90, symBinAddr: 0x549C8, symSize: 0x40 }
  - { offset: 0xA1640, size: 0x8, addend: 0x0, symName: __RNCNvXsc_NtCs5AlOhPCr03V_3syn10punctuatedINtB7_5PairsNtNtB9_4data7VariantNtNtB9_5token5CommaENtNtNtNtCsfvfooZQ3Axs_4core4iter6traits8iterator8Iterator4next0B9_, symObjAddr: 0xFBD0, symBinAddr: 0x54A08, symSize: 0x40 }
  - { offset: 0xA16B5, size: 0x8, addend: 0x0, symName: __RNCNvXsc_NtCs5AlOhPCr03V_3syn10punctuatedINtB7_5PairsNtNtB9_4expr10FieldValueNtNtB9_5token5CommaENtNtNtNtCsfvfooZQ3Axs_4core4iter6traits8iterator8Iterator4next0B9_, symObjAddr: 0xFC10, symBinAddr: 0x54A48, symSize: 0x40 }
  - { offset: 0xA172A, size: 0x8, addend: 0x0, symName: __RNCNvXsc_NtCs5AlOhPCr03V_3syn10punctuatedINtB7_5PairsNtNtB9_4expr21GenericMethodArgumentNtNtB9_5token5CommaENtNtNtNtCsfvfooZQ3Axs_4core4iter6traits8iterator8Iterator4next0B9_, symObjAddr: 0xFC50, symBinAddr: 0x54A88, symSize: 0x40 }
  - { offset: 0xA179F, size: 0x8, addend: 0x0, symName: __RNCNvXsc_NtCs5AlOhPCr03V_3syn10punctuatedINtB7_5PairsNtNtB9_4expr4ExprNtNtB9_5token5CommaENtNtNtNtCsfvfooZQ3Axs_4core4iter6traits8iterator8Iterator4next0B9_, symObjAddr: 0xFC90, symBinAddr: 0x54AC8, symSize: 0x40 }
  - { offset: 0xA1814, size: 0x8, addend: 0x0, symName: __RNCNvXsc_NtCs5AlOhPCr03V_3syn10punctuatedINtB7_5PairsNtNtB9_4item5FnArgNtNtB9_5token5CommaENtNtNtNtCsfvfooZQ3Axs_4core4iter6traits8iterator8Iterator4next0B9_, symObjAddr: 0xFCD0, symBinAddr: 0x54B08, symSize: 0x40 }
  - { offset: 0xA1889, size: 0x8, addend: 0x0, symName: __RNCNvXsc_NtCs5AlOhPCr03V_3syn10punctuatedINtB7_5PairsNtNtB9_4item7UseTreeNtNtB9_5token5CommaENtNtNtNtCsfvfooZQ3Axs_4core4iter6traits8iterator8Iterator4next0B9_, symObjAddr: 0xFD10, symBinAddr: 0x54B48, symSize: 0x40 }
  - { offset: 0xA18FE, size: 0x8, addend: 0x0, symName: __RNCNvXsc_NtCs5AlOhPCr03V_3syn10punctuatedINtB7_5PairsNtNtB9_4path11PathSegmentNtNtB9_5token6Colon2ENtNtNtNtCsfvfooZQ3Axs_4core4iter6traits8iterator8Iterator4next0B9_, symObjAddr: 0xFD50, symBinAddr: 0x54B88, symSize: 0x40 }
  - { offset: 0xA1973, size: 0x8, addend: 0x0, symName: __RNCNvXsc_NtCs5AlOhPCr03V_3syn10punctuatedINtB7_5PairsNtNtB9_4path15GenericArgumentNtNtB9_5token5CommaENtNtNtNtCsfvfooZQ3Axs_4core4iter6traits8iterator8Iterator4next0B9_, symObjAddr: 0xFD90, symBinAddr: 0x54BC8, symSize: 0x40 }
  - { offset: 0xA19E8, size: 0x8, addend: 0x0, symName: __RNCNvXsc_NtCs5AlOhPCr03V_3syn10punctuatedINtB7_5PairsNtNtB9_8generics11LifetimeDefNtNtB9_5token5CommaENtNtNtNtCsfvfooZQ3Axs_4core4iter6traits8iterator8Iterator4next0B9_, symObjAddr: 0xFDD0, symBinAddr: 0x54C08, symSize: 0x40 }
  - { offset: 0xA1A5D, size: 0x8, addend: 0x0, symName: __RNCNvXsc_NtCs5AlOhPCr03V_3syn10punctuatedINtB7_5PairsNtNtB9_8generics12GenericParamNtNtB9_5token5CommaENtNtNtNtCsfvfooZQ3Axs_4core4iter6traits8iterator8Iterator4next0B9_, symObjAddr: 0xFE10, symBinAddr: 0x54C48, symSize: 0x40 }
  - { offset: 0xA1AD2, size: 0x8, addend: 0x0, symName: __RNCNvXsc_NtCs5AlOhPCr03V_3syn10punctuatedINtB7_5PairsNtNtB9_8generics14TypeParamBoundNtNtB9_5token3AddENtNtNtNtCsfvfooZQ3Axs_4core4iter6traits8iterator8Iterator4next0B9_, symObjAddr: 0xFE50, symBinAddr: 0x54C88, symSize: 0x40 }
  - { offset: 0xA1B47, size: 0x8, addend: 0x0, symName: __RNCNvXsc_NtCs5AlOhPCr03V_3syn10punctuatedINtB7_5PairsNtNtB9_8generics14WherePredicateNtNtB9_5token5CommaENtNtNtNtCsfvfooZQ3Axs_4core4iter6traits8iterator8Iterator4next0B9_, symObjAddr: 0xFE90, symBinAddr: 0x54CC8, symSize: 0x40 }
  - { offset: 0xA1BBC, size: 0x8, addend: 0x0, symName: __RNCNvXsc_NtCs5AlOhPCr03V_3syn10punctuatedINtB7_5PairsNtNtB9_8lifetime8LifetimeNtNtB9_5token3AddENtNtNtNtCsfvfooZQ3Axs_4core4iter6traits8iterator8Iterator4next0B9_, symObjAddr: 0xFED0, symBinAddr: 0x54D08, symSize: 0x40 }
  - { offset: 0xA1C31, size: 0x8, addend: 0x0, symName: __RNCNvXsc_NtCs5AlOhPCr03V_3syn10punctuatedINtB7_5PairsNtNtB9_2ty4TypeNtNtB9_5token5CommaENtNtNtNtCsfvfooZQ3Axs_4core4iter6traits8iterator8Iterator4nexts_0B9_, symObjAddr: 0xFF10, symBinAddr: 0x54D48, symSize: 0x48 }
  - { offset: 0xA1C73, size: 0x8, addend: 0x0, symName: __RNCNvXsc_NtCs5AlOhPCr03V_3syn10punctuatedINtB7_5PairsNtNtB9_2ty9BareFnArgNtNtB9_5token5CommaENtNtNtNtCsfvfooZQ3Axs_4core4iter6traits8iterator8Iterator4nexts_0B9_, symObjAddr: 0xFF58, symBinAddr: 0x54D90, symSize: 0x48 }
  - { offset: 0xA1CB5, size: 0x8, addend: 0x0, symName: __RNCNvXsc_NtCs5AlOhPCr03V_3syn10punctuatedINtB7_5PairsNtNtB9_3pat3PatNtNtB9_5token2OrENtNtNtNtCsfvfooZQ3Axs_4core4iter6traits8iterator8Iterator4nexts_0B9_, symObjAddr: 0xFFA0, symBinAddr: 0x54DD8, symSize: 0x48 }
  - { offset: 0xA1CF7, size: 0x8, addend: 0x0, symName: __RNCNvXsc_NtCs5AlOhPCr03V_3syn10punctuatedINtB7_5PairsNtNtB9_3pat3PatNtNtB9_5token5CommaENtNtNtNtCsfvfooZQ3Axs_4core4iter6traits8iterator8Iterator4nexts_0B9_, symObjAddr: 0xFFE8, symBinAddr: 0x54E20, symSize: 0x48 }
  - { offset: 0xA1D39, size: 0x8, addend: 0x0, symName: __RNCNvXsc_NtCs5AlOhPCr03V_3syn10punctuatedINtB7_5PairsNtNtB9_3pat8FieldPatNtNtB9_5token5CommaENtNtNtNtCsfvfooZQ3Axs_4core4iter6traits8iterator8Iterator4nexts_0B9_, symObjAddr: 0x10030, symBinAddr: 0x54E68, symSize: 0x48 }
  - { offset: 0xA1D7B, size: 0x8, addend: 0x0, symName: __RNCNvXsc_NtCs5AlOhPCr03V_3syn10punctuatedINtB7_5PairsNtNtB9_4data5FieldNtNtB9_5token5CommaENtNtNtNtCsfvfooZQ3Axs_4core4iter6traits8iterator8Iterator4nexts_0B9_, symObjAddr: 0x100C0, symBinAddr: 0x54EB0, symSize: 0x48 }
  - { offset: 0xA1DBD, size: 0x8, addend: 0x0, symName: __RNCNvXsc_NtCs5AlOhPCr03V_3syn10punctuatedINtB7_5PairsNtNtB9_4data7VariantNtNtB9_5token5CommaENtNtNtNtCsfvfooZQ3Axs_4core4iter6traits8iterator8Iterator4nexts_0B9_, symObjAddr: 0x10108, symBinAddr: 0x54EF8, symSize: 0x48 }
  - { offset: 0xA1DFF, size: 0x8, addend: 0x0, symName: __RNCNvXsc_NtCs5AlOhPCr03V_3syn10punctuatedINtB7_5PairsNtNtB9_4expr10FieldValueNtNtB9_5token5CommaENtNtNtNtCsfvfooZQ3Axs_4core4iter6traits8iterator8Iterator4nexts_0B9_, symObjAddr: 0x10150, symBinAddr: 0x54F40, symSize: 0x48 }
  - { offset: 0xA1E41, size: 0x8, addend: 0x0, symName: __RNCNvXsc_NtCs5AlOhPCr03V_3syn10punctuatedINtB7_5PairsNtNtB9_4expr21GenericMethodArgumentNtNtB9_5token5CommaENtNtNtNtCsfvfooZQ3Axs_4core4iter6traits8iterator8Iterator4nexts_0B9_, symObjAddr: 0x10198, symBinAddr: 0x54F88, symSize: 0x48 }
  - { offset: 0xA1E83, size: 0x8, addend: 0x0, symName: __RNCNvXsc_NtCs5AlOhPCr03V_3syn10punctuatedINtB7_5PairsNtNtB9_4expr4ExprNtNtB9_5token5CommaENtNtNtNtCsfvfooZQ3Axs_4core4iter6traits8iterator8Iterator4nexts_0B9_, symObjAddr: 0x101E0, symBinAddr: 0x54FD0, symSize: 0x48 }
  - { offset: 0xA1EC5, size: 0x8, addend: 0x0, symName: __RNCNvXsc_NtCs5AlOhPCr03V_3syn10punctuatedINtB7_5PairsNtNtB9_4item5FnArgNtNtB9_5token5CommaENtNtNtNtCsfvfooZQ3Axs_4core4iter6traits8iterator8Iterator4nexts_0B9_, symObjAddr: 0x10228, symBinAddr: 0x55018, symSize: 0x48 }
  - { offset: 0xA1F07, size: 0x8, addend: 0x0, symName: __RNCNvXsc_NtCs5AlOhPCr03V_3syn10punctuatedINtB7_5PairsNtNtB9_4item7UseTreeNtNtB9_5token5CommaENtNtNtNtCsfvfooZQ3Axs_4core4iter6traits8iterator8Iterator4nexts_0B9_, symObjAddr: 0x10270, symBinAddr: 0x55060, symSize: 0x48 }
  - { offset: 0xA1F49, size: 0x8, addend: 0x0, symName: __RNCNvXsc_NtCs5AlOhPCr03V_3syn10punctuatedINtB7_5PairsNtNtB9_4path11PathSegmentNtNtB9_5token6Colon2ENtNtNtNtCsfvfooZQ3Axs_4core4iter6traits8iterator8Iterator4nexts_0B9_, symObjAddr: 0x102B8, symBinAddr: 0x550A8, symSize: 0x48 }
  - { offset: 0xA1F8B, size: 0x8, addend: 0x0, symName: __RNCNvXsc_NtCs5AlOhPCr03V_3syn10punctuatedINtB7_5PairsNtNtB9_4path15GenericArgumentNtNtB9_5token5CommaENtNtNtNtCsfvfooZQ3Axs_4core4iter6traits8iterator8Iterator4nexts_0B9_, symObjAddr: 0x10300, symBinAddr: 0x550F0, symSize: 0x48 }
  - { offset: 0xA1FCD, size: 0x8, addend: 0x0, symName: __RNCNvXsc_NtCs5AlOhPCr03V_3syn10punctuatedINtB7_5PairsNtNtB9_8generics11LifetimeDefNtNtB9_5token5CommaENtNtNtNtCsfvfooZQ3Axs_4core4iter6traits8iterator8Iterator4nexts_0B9_, symObjAddr: 0x10348, symBinAddr: 0x55138, symSize: 0x48 }
  - { offset: 0xA200F, size: 0x8, addend: 0x0, symName: __RNCNvXsc_NtCs5AlOhPCr03V_3syn10punctuatedINtB7_5PairsNtNtB9_8generics12GenericParamNtNtB9_5token5CommaENtNtNtNtCsfvfooZQ3Axs_4core4iter6traits8iterator8Iterator4nexts_0B9_, symObjAddr: 0x10390, symBinAddr: 0x55180, symSize: 0x48 }
  - { offset: 0xA2051, size: 0x8, addend: 0x0, symName: __RNCNvXsc_NtCs5AlOhPCr03V_3syn10punctuatedINtB7_5PairsNtNtB9_8generics14TypeParamBoundNtNtB9_5token3AddENtNtNtNtCsfvfooZQ3Axs_4core4iter6traits8iterator8Iterator4nexts_0B9_, symObjAddr: 0x103D8, symBinAddr: 0x551C8, symSize: 0x48 }
  - { offset: 0xA2093, size: 0x8, addend: 0x0, symName: __RNCNvXsc_NtCs5AlOhPCr03V_3syn10punctuatedINtB7_5PairsNtNtB9_8generics14WherePredicateNtNtB9_5token5CommaENtNtNtNtCsfvfooZQ3Axs_4core4iter6traits8iterator8Iterator4nexts_0B9_, symObjAddr: 0x10420, symBinAddr: 0x55210, symSize: 0x48 }
  - { offset: 0xA20D5, size: 0x8, addend: 0x0, symName: __RNCNvXsc_NtCs5AlOhPCr03V_3syn10punctuatedINtB7_5PairsNtNtB9_8lifetime8LifetimeNtNtB9_5token3AddENtNtNtNtCsfvfooZQ3Axs_4core4iter6traits8iterator8Iterator4nexts_0B9_, symObjAddr: 0x10468, symBinAddr: 0x55258, symSize: 0x48 }
  - { offset: 0xA21A3, size: 0x8, addend: 0x0, symName: __RNvXsg_NtCs5AlOhPCr03V_3syn10punctuatedINtB5_8PairsMutNtNtB7_4path11PathSegmentNtNtB7_5token6Colon2ENtNtNtNtCsfvfooZQ3Axs_4core4iter6traits8iterator8Iterator4nextB7_, symObjAddr: 0x104B0, symBinAddr: 0x552A0, symSize: 0x5C }
  - { offset: 0xA21E8, size: 0x8, addend: 0x0, symName: __RNCNvXsg_NtCs5AlOhPCr03V_3syn10punctuatedINtB7_8PairsMutNtNtB9_4path11PathSegmentNtNtB9_5token6Colon2ENtNtNtNtCsfvfooZQ3Axs_4core4iter6traits8iterator8Iterator4next0B9_, symObjAddr: 0x1050C, symBinAddr: 0x552FC, symSize: 0x40 }
  - { offset: 0xA225D, size: 0x8, addend: 0x0, symName: __RNCNvXsg_NtCs5AlOhPCr03V_3syn10punctuatedINtB7_8PairsMutNtNtB9_4path11PathSegmentNtNtB9_5token6Colon2ENtNtNtNtCsfvfooZQ3Axs_4core4iter6traits8iterator8Iterator4nexts_0B9_, symObjAddr: 0x1054C, symBinAddr: 0x5533C, symSize: 0x48 }
  - { offset: 0xA22AD, size: 0x8, addend: 0x0, symName: __RNvXsj_NtCs5AlOhPCr03V_3syn10punctuatedINtB5_9IntoPairsNtNtB7_4path11PathSegmentNtNtB7_5token6Colon2ENtNtNtNtCsfvfooZQ3Axs_4core4iter6traits8iterator8Iterator4nextB7_, symObjAddr: 0x10594, symBinAddr: 0x55384, symSize: 0x74 }
  - { offset: 0xA22F2, size: 0x8, addend: 0x0, symName: __RNCNvXsj_NtCs5AlOhPCr03V_3syn10punctuatedINtB7_9IntoPairsNtNtB9_4path11PathSegmentNtNtB9_5token6Colon2ENtNtNtNtCsfvfooZQ3Axs_4core4iter6traits8iterator8Iterator4next0B9_, symObjAddr: 0x10608, symBinAddr: 0x553F8, symSize: 0x74 }
  - { offset: 0xA2360, size: 0x8, addend: 0x0, symName: __RNCNvXsj_NtCs5AlOhPCr03V_3syn10punctuatedINtB7_9IntoPairsNtNtB9_4path11PathSegmentNtNtB9_5token6Colon2ENtNtNtNtCsfvfooZQ3Axs_4core4iter6traits8iterator8Iterator4nexts_0B9_, symObjAddr: 0x1067C, symBinAddr: 0x5546C, symSize: 0x50 }
  - { offset: 0xA23B0, size: 0x8, addend: 0x0, symName: __RNvXsn_NtCs5AlOhPCr03V_3syn10punctuatedINtB5_8IntoIterNtNtB7_8generics14TypeParamBoundENtNtNtNtCsfvfooZQ3Axs_4core4iter6traits8iterator8Iterator4nextB7_, symObjAddr: 0x106CC, symBinAddr: 0x554BC, symSize: 0x34 }
  - { offset: 0xA23E8, size: 0x8, addend: 0x0, symName: __RINvNtCs5AlOhPCr03V_3syn10punctuated21empty_punctuated_iterNtNtB4_4data5FieldEB4_, symObjAddr: 0x10700, symBinAddr: 0x554F0, symSize: 0x68 }
  - { offset: 0xA242A, size: 0x8, addend: 0x0, symName: __RNvXst_NtCs5AlOhPCr03V_3syn10punctuatedINtB5_4IterNtNtB7_4path11PathSegmentENtNtNtNtCsfvfooZQ3Axs_4core4iter6traits8iterator8Iterator4nextB7_, symObjAddr: 0x107B0, symBinAddr: 0x55558, symSize: 0x48 }
  - { offset: 0xA2461, size: 0x8, addend: 0x0, symName: __RNvXst_NtCs5AlOhPCr03V_3syn10punctuatedINtB5_4IterNtNtB7_8generics14TypeParamBoundENtNtNtNtCsfvfooZQ3Axs_4core4iter6traits8iterator8Iterator4nextB7_, symObjAddr: 0x10840, symBinAddr: 0x555A0, symSize: 0x48 }
  - { offset: 0xA249E, size: 0x8, addend: 0x0, symName: __RNvXsu_NtCs5AlOhPCr03V_3syn10punctuatedINtB5_4IterNtNtB7_4path11PathSegmentENtNtNtNtCsfvfooZQ3Axs_4core4iter6traits12double_ended19DoubleEndedIterator9next_backB7_, symObjAddr: 0x10888, symBinAddr: 0x555E8, symSize: 0x48 }
  - { offset: 0xA24DB, size: 0x8, addend: 0x0, symName: __RNvXsw_NtCs5AlOhPCr03V_3syn10punctuatedINtB5_11PrivateIterNtNtB7_4data5FieldNtNtB7_5token5CommaENtNtNtNtCsfvfooZQ3Axs_4core4iter6traits8iterator8Iterator4nextB7_, symObjAddr: 0x108D0, symBinAddr: 0x55630, symSize: 0x48 }
  - { offset: 0xA251B, size: 0x8, addend: 0x0, symName: __RNvXsw_NtCs5AlOhPCr03V_3syn10punctuatedINtB5_11PrivateIterNtNtB7_4path11PathSegmentNtNtB7_5token6Colon2ENtNtNtNtCsfvfooZQ3Axs_4core4iter6traits8iterator8Iterator4nextB7_, symObjAddr: 0x10960, symBinAddr: 0x55678, symSize: 0x48 }
  - { offset: 0xA255B, size: 0x8, addend: 0x0, symName: __RNvXsw_NtCs5AlOhPCr03V_3syn10punctuatedINtB5_11PrivateIterNtNtB7_8generics14TypeParamBoundNtNtB7_5token3AddENtNtNtNtCsfvfooZQ3Axs_4core4iter6traits8iterator8Iterator4nextB7_, symObjAddr: 0x109F0, symBinAddr: 0x556C0, symSize: 0x48 }
  - { offset: 0xA25A0, size: 0x8, addend: 0x0, symName: __RNCNvXsw_NtCs5AlOhPCr03V_3syn10punctuatedINtB7_11PrivateIterNtNtB9_4data5FieldNtNtB9_5token5CommaENtNtNtNtCsfvfooZQ3Axs_4core4iter6traits8iterator8Iterator4next0B9_, symObjAddr: 0x10A38, symBinAddr: 0x55708, symSize: 0x24 }
  - { offset: 0xA25EB, size: 0x8, addend: 0x0, symName: __RNCNvXsw_NtCs5AlOhPCr03V_3syn10punctuatedINtB7_11PrivateIterNtNtB9_4path11PathSegmentNtNtB9_5token6Colon2ENtNtNtNtCsfvfooZQ3Axs_4core4iter6traits8iterator8Iterator4next0B9_, symObjAddr: 0x10A80, symBinAddr: 0x5572C, symSize: 0x24 }
  - { offset: 0xA2636, size: 0x8, addend: 0x0, symName: __RNCNvXsw_NtCs5AlOhPCr03V_3syn10punctuatedINtB7_11PrivateIterNtNtB9_8generics14TypeParamBoundNtNtB9_5token3AddENtNtNtNtCsfvfooZQ3Axs_4core4iter6traits8iterator8Iterator4next0B9_, symObjAddr: 0x10AC8, symBinAddr: 0x55750, symSize: 0x24 }
  - { offset: 0xA2681, size: 0x8, addend: 0x0, symName: __RNCNvXsw_NtCs5AlOhPCr03V_3syn10punctuatedINtB7_11PrivateIterNtNtB9_4data5FieldNtNtB9_5token5CommaENtNtNtNtCsfvfooZQ3Axs_4core4iter6traits8iterator8Iterator4nexts_0B9_, symObjAddr: 0x10AEC, symBinAddr: 0x55774, symSize: 0x3C }
  - { offset: 0xA26C3, size: 0x8, addend: 0x0, symName: __RNCNvXsw_NtCs5AlOhPCr03V_3syn10punctuatedINtB7_11PrivateIterNtNtB9_4path11PathSegmentNtNtB9_5token6Colon2ENtNtNtNtCsfvfooZQ3Axs_4core4iter6traits8iterator8Iterator4nexts_0B9_, symObjAddr: 0x10B64, symBinAddr: 0x557B0, symSize: 0x3C }
  - { offset: 0xA2705, size: 0x8, addend: 0x0, symName: __RNCNvXsw_NtCs5AlOhPCr03V_3syn10punctuatedINtB7_11PrivateIterNtNtB9_8generics14TypeParamBoundNtNtB9_5token3AddENtNtNtNtCsfvfooZQ3Axs_4core4iter6traits8iterator8Iterator4nexts_0B9_, symObjAddr: 0x10BDC, symBinAddr: 0x557EC, symSize: 0x3C }
  - { offset: 0xA2763, size: 0x8, addend: 0x0, symName: __RNvXsx_NtCs5AlOhPCr03V_3syn10punctuatedINtB5_11PrivateIterNtNtB7_4data5FieldNtNtB7_5token5CommaENtNtNtNtCsfvfooZQ3Axs_4core4iter6traits12double_ended19DoubleEndedIterator9next_backB7_, symObjAddr: 0x10C18, symBinAddr: 0x55828, symSize: 0x48 }
  - { offset: 0xA27A3, size: 0x8, addend: 0x0, symName: __RNvXsx_NtCs5AlOhPCr03V_3syn10punctuatedINtB5_11PrivateIterNtNtB7_4path11PathSegmentNtNtB7_5token6Colon2ENtNtNtNtCsfvfooZQ3Axs_4core4iter6traits12double_ended19DoubleEndedIterator9next_backB7_, symObjAddr: 0x10CA8, symBinAddr: 0x55870, symSize: 0x48 }
  - { offset: 0xA27E3, size: 0x8, addend: 0x0, symName: __RNvXsx_NtCs5AlOhPCr03V_3syn10punctuatedINtB5_11PrivateIterNtNtB7_8generics14TypeParamBoundNtNtB7_5token3AddENtNtNtNtCsfvfooZQ3Axs_4core4iter6traits12double_ended19DoubleEndedIterator9next_backB7_, symObjAddr: 0x10D38, symBinAddr: 0x558B8, symSize: 0x48 }
  - { offset: 0xA2828, size: 0x8, addend: 0x0, symName: __RNCNvXsx_NtCs5AlOhPCr03V_3syn10punctuatedINtB7_11PrivateIterNtNtB9_4data5FieldNtNtB9_5token5CommaENtNtNtNtCsfvfooZQ3Axs_4core4iter6traits12double_ended19DoubleEndedIterator9next_back0B9_, symObjAddr: 0x10D80, symBinAddr: 0x55900, symSize: 0x3C }
  - { offset: 0xA286A, size: 0x8, addend: 0x0, symName: __RNCNvXsx_NtCs5AlOhPCr03V_3syn10punctuatedINtB7_11PrivateIterNtNtB9_4path11PathSegmentNtNtB9_5token6Colon2ENtNtNtNtCsfvfooZQ3Axs_4core4iter6traits12double_ended19DoubleEndedIterator9next_back0B9_, symObjAddr: 0x10DF8, symBinAddr: 0x5593C, symSize: 0x3C }
  - { offset: 0xA28AC, size: 0x8, addend: 0x0, symName: __RNCNvXsx_NtCs5AlOhPCr03V_3syn10punctuatedINtB7_11PrivateIterNtNtB9_8generics14TypeParamBoundNtNtB9_5token3AddENtNtNtNtCsfvfooZQ3Axs_4core4iter6traits12double_ended19DoubleEndedIterator9next_back0B9_, symObjAddr: 0x10E70, symBinAddr: 0x55978, symSize: 0x3C }
  - { offset: 0xA28F3, size: 0x8, addend: 0x0, symName: __RNCNCNvXsx_NtCs5AlOhPCr03V_3syn10punctuatedINtB9_11PrivateIterNtNtBb_4data5FieldNtNtBb_5token5CommaENtNtNtNtCsfvfooZQ3Axs_4core4iter6traits12double_ended19DoubleEndedIterator9next_back00Bb_, symObjAddr: 0x10EAC, symBinAddr: 0x559B4, symSize: 0x24 }
  - { offset: 0xA293E, size: 0x8, addend: 0x0, symName: __RNCNCNvXsx_NtCs5AlOhPCr03V_3syn10punctuatedINtB9_11PrivateIterNtNtBb_4path11PathSegmentNtNtBb_5token6Colon2ENtNtNtNtCsfvfooZQ3Axs_4core4iter6traits12double_ended19DoubleEndedIterator9next_back00Bb_, symObjAddr: 0x10EF4, symBinAddr: 0x559D8, symSize: 0x24 }
  - { offset: 0xA2989, size: 0x8, addend: 0x0, symName: __RNCNCNvXsx_NtCs5AlOhPCr03V_3syn10punctuatedINtB9_11PrivateIterNtNtBb_8generics14TypeParamBoundNtNtBb_5token3AddENtNtNtNtCsfvfooZQ3Axs_4core4iter6traits12double_ended19DoubleEndedIterator9next_back00Bb_, symObjAddr: 0x10F3C, symBinAddr: 0x559FC, symSize: 0x24 }
  - { offset: 0xA29F1, size: 0x8, addend: 0x0, symName: __RNvXsy_NtCs5AlOhPCr03V_3syn10punctuatedINtB5_11PrivateIterNtNtB7_4data5FieldNtNtB7_5token5CommaENtNtNtNtCsfvfooZQ3Axs_4core4iter6traits10exact_size17ExactSizeIterator3lenB7_, symObjAddr: 0x10F60, symBinAddr: 0x55A20, symSize: 0x94 }
  - { offset: 0xA2A65, size: 0x8, addend: 0x0, symName: __RNvXsy_NtCs5AlOhPCr03V_3syn10punctuatedINtB5_11PrivateIterNtNtB7_4path11PathSegmentNtNtB7_5token6Colon2ENtNtNtNtCsfvfooZQ3Axs_4core4iter6traits10exact_size17ExactSizeIterator3lenB7_, symObjAddr: 0x11088, symBinAddr: 0x55AB4, symSize: 0x94 }
  - { offset: 0xA2AD9, size: 0x8, addend: 0x0, symName: __RNvXsy_NtCs5AlOhPCr03V_3syn10punctuatedINtB5_11PrivateIterNtNtB7_8generics14TypeParamBoundNtNtB7_5token3AddENtNtNtNtCsfvfooZQ3Axs_4core4iter6traits10exact_size17ExactSizeIterator3lenB7_, symObjAddr: 0x111B0, symBinAddr: 0x55B48, symSize: 0x94 }
  - { offset: 0xA2B53, size: 0x8, addend: 0x0, symName: __RNvXsz_NtCs5AlOhPCr03V_3syn10punctuatedINtB5_11PrivateIterNtNtB7_4data5FieldNtNtB7_5token5CommaENtNtCsfvfooZQ3Axs_4core5clone5Clone5cloneB7_, symObjAddr: 0x11244, symBinAddr: 0x55BDC, symSize: 0x68 }
  - { offset: 0xA2B93, size: 0x8, addend: 0x0, symName: __RNvXsz_NtCs5AlOhPCr03V_3syn10punctuatedINtB5_11PrivateIterNtNtB7_4path11PathSegmentNtNtB7_5token6Colon2ENtNtCsfvfooZQ3Axs_4core5clone5Clone5cloneB7_, symObjAddr: 0x11314, symBinAddr: 0x55C44, symSize: 0x68 }
  - { offset: 0xA2BD3, size: 0x8, addend: 0x0, symName: __RNvXsz_NtCs5AlOhPCr03V_3syn10punctuatedINtB5_11PrivateIterNtNtB7_8generics14TypeParamBoundNtNtB7_5token3AddENtNtCsfvfooZQ3Axs_4core5clone5Clone5cloneB7_, symObjAddr: 0x113E4, symBinAddr: 0x55CAC, symSize: 0x68 }
  - { offset: 0xA2C19, size: 0x8, addend: 0x0, symName: __RNvXsA_NtCs5AlOhPCr03V_3syn10punctuatedINtB5_11PrivateIterNtNtB7_4data5FieldNtNtB7_5token5CommaEINtB5_9IterTraitBU_E9clone_boxB7_, symObjAddr: 0x1144C, symBinAddr: 0x55D14, symSize: 0x94 }
  - { offset: 0xA2C77, size: 0x8, addend: 0x0, symName: __RNvXsA_NtCs5AlOhPCr03V_3syn10punctuatedINtB5_11PrivateIterNtNtB7_4path11PathSegmentNtNtB7_5token6Colon2EINtB5_9IterTraitBU_E9clone_boxB7_, symObjAddr: 0x11574, symBinAddr: 0x55DA8, symSize: 0x94 }
  - { offset: 0xA2CD5, size: 0x8, addend: 0x0, symName: __RNvXsA_NtCs5AlOhPCr03V_3syn10punctuatedINtB5_11PrivateIterNtNtB7_8generics14TypeParamBoundNtNtB7_5token3AddEINtB5_9IterTraitBU_E9clone_boxB7_, symObjAddr: 0x1169C, symBinAddr: 0x55E3C, symSize: 0x94 }
  - { offset: 0xA2D39, size: 0x8, addend: 0x0, symName: __RNvXsD_NtCs5AlOhPCr03V_3syn10punctuatedINtB5_7IterMutNtNtB7_4item5FnArgENtNtNtNtCsfvfooZQ3Axs_4core4iter6traits12double_ended19DoubleEndedIterator9next_backB7_, symObjAddr: 0x117E0, symBinAddr: 0x55ED0, symSize: 0x48 }
  - { offset: 0xA2D70, size: 0x8, addend: 0x0, symName: __RNvXsD_NtCs5AlOhPCr03V_3syn10punctuatedINtB5_7IterMutNtNtB7_4path11PathSegmentENtNtNtNtCsfvfooZQ3Axs_4core4iter6traits12double_ended19DoubleEndedIterator9next_backB7_, symObjAddr: 0x11828, symBinAddr: 0x55F18, symSize: 0x48 }
  - { offset: 0xA2DAD, size: 0x8, addend: 0x0, symName: __RNvXsF_NtCs5AlOhPCr03V_3syn10punctuatedINtB5_14PrivateIterMutNtNtB7_4item5FnArgNtNtB7_5token5CommaENtNtNtNtCsfvfooZQ3Axs_4core4iter6traits8iterator8Iterator4nextB7_, symObjAddr: 0x118B8, symBinAddr: 0x55F60, symSize: 0x48 }
  - { offset: 0xA2DED, size: 0x8, addend: 0x0, symName: __RNvXsF_NtCs5AlOhPCr03V_3syn10punctuatedINtB5_14PrivateIterMutNtNtB7_4path11PathSegmentNtNtB7_5token6Colon2ENtNtNtNtCsfvfooZQ3Axs_4core4iter6traits8iterator8Iterator4nextB7_, symObjAddr: 0x11900, symBinAddr: 0x55FA8, symSize: 0x48 }
  - { offset: 0xA2E32, size: 0x8, addend: 0x0, symName: __RNCNvXsF_NtCs5AlOhPCr03V_3syn10punctuatedINtB7_14PrivateIterMutNtNtB9_4item5FnArgNtNtB9_5token5CommaENtNtNtNtCsfvfooZQ3Axs_4core4iter6traits8iterator8Iterator4next0B9_, symObjAddr: 0x119B4, symBinAddr: 0x55FF0, symSize: 0x24 }
  - { offset: 0xA2E7D, size: 0x8, addend: 0x0, symName: __RNCNvXsF_NtCs5AlOhPCr03V_3syn10punctuatedINtB7_14PrivateIterMutNtNtB9_4path11PathSegmentNtNtB9_5token6Colon2ENtNtNtNtCsfvfooZQ3Axs_4core4iter6traits8iterator8Iterator4next0B9_, symObjAddr: 0x119D8, symBinAddr: 0x56014, symSize: 0x24 }
  - { offset: 0xA2EC8, size: 0x8, addend: 0x0, symName: __RNCNvXsF_NtCs5AlOhPCr03V_3syn10punctuatedINtB7_14PrivateIterMutNtNtB9_4item5FnArgNtNtB9_5token5CommaENtNtNtNtCsfvfooZQ3Axs_4core4iter6traits8iterator8Iterator4nexts_0B9_, symObjAddr: 0x11A5C, symBinAddr: 0x56038, symSize: 0x3C }
  - { offset: 0xA2F0A, size: 0x8, addend: 0x0, symName: __RNCNvXsF_NtCs5AlOhPCr03V_3syn10punctuatedINtB7_14PrivateIterMutNtNtB9_4path11PathSegmentNtNtB9_5token6Colon2ENtNtNtNtCsfvfooZQ3Axs_4core4iter6traits8iterator8Iterator4nexts_0B9_, symObjAddr: 0x11A98, symBinAddr: 0x56074, symSize: 0x3C }
  - { offset: 0xA2F61, size: 0x8, addend: 0x0, symName: __RNvXsG_NtCs5AlOhPCr03V_3syn10punctuatedINtB5_14PrivateIterMutNtNtB7_4item5FnArgNtNtB7_5token5CommaENtNtNtNtCsfvfooZQ3Axs_4core4iter6traits12double_ended19DoubleEndedIterator9next_backB7_, symObjAddr: 0x11B58, symBinAddr: 0x560B0, symSize: 0x48 }
  - { offset: 0xA2FA1, size: 0x8, addend: 0x0, symName: __RNvXsG_NtCs5AlOhPCr03V_3syn10punctuatedINtB5_14PrivateIterMutNtNtB7_4path11PathSegmentNtNtB7_5token6Colon2ENtNtNtNtCsfvfooZQ3Axs_4core4iter6traits12double_ended19DoubleEndedIterator9next_backB7_, symObjAddr: 0x11BA0, symBinAddr: 0x560F8, symSize: 0x48 }
  - { offset: 0xA2FE6, size: 0x8, addend: 0x0, symName: __RNCNvXsG_NtCs5AlOhPCr03V_3syn10punctuatedINtB7_14PrivateIterMutNtNtB9_4item5FnArgNtNtB9_5token5CommaENtNtNtNtCsfvfooZQ3Axs_4core4iter6traits12double_ended19DoubleEndedIterator9next_back0B9_, symObjAddr: 0x11C6C, symBinAddr: 0x56140, symSize: 0x3C }
  - { offset: 0xA3028, size: 0x8, addend: 0x0, symName: __RNCNvXsG_NtCs5AlOhPCr03V_3syn10punctuatedINtB7_14PrivateIterMutNtNtB9_4path11PathSegmentNtNtB9_5token6Colon2ENtNtNtNtCsfvfooZQ3Axs_4core4iter6traits12double_ended19DoubleEndedIterator9next_back0B9_, symObjAddr: 0x11CA8, symBinAddr: 0x5617C, symSize: 0x3C }
  - { offset: 0xA306F, size: 0x8, addend: 0x0, symName: __RNCNCNvXsG_NtCs5AlOhPCr03V_3syn10punctuatedINtB9_14PrivateIterMutNtNtBb_4item5FnArgNtNtBb_5token5CommaENtNtNtNtCsfvfooZQ3Axs_4core4iter6traits12double_ended19DoubleEndedIterator9next_back00Bb_, symObjAddr: 0x11D44, symBinAddr: 0x561B8, symSize: 0x24 }
  - { offset: 0xA30BA, size: 0x8, addend: 0x0, symName: __RNCNCNvXsG_NtCs5AlOhPCr03V_3syn10punctuatedINtB9_14PrivateIterMutNtNtBb_4path11PathSegmentNtNtBb_5token6Colon2ENtNtNtNtCsfvfooZQ3Axs_4core4iter6traits12double_ended19DoubleEndedIterator9next_back00Bb_, symObjAddr: 0x11D68, symBinAddr: 0x561DC, symSize: 0x24 }
  - { offset: 0xA311B, size: 0x8, addend: 0x0, symName: __RNvXsH_NtCs5AlOhPCr03V_3syn10punctuatedINtB5_14PrivateIterMutNtNtB7_4item5FnArgNtNtB7_5token5CommaENtNtNtNtCsfvfooZQ3Axs_4core4iter6traits10exact_size17ExactSizeIterator3lenB7_, symObjAddr: 0x11E44, symBinAddr: 0x56200, symSize: 0x94 }
  - { offset: 0xA318F, size: 0x8, addend: 0x0, symName: __RNvXsH_NtCs5AlOhPCr03V_3syn10punctuatedINtB5_14PrivateIterMutNtNtB7_4path11PathSegmentNtNtB7_5token6Colon2ENtNtNtNtCsfvfooZQ3Axs_4core4iter6traits10exact_size17ExactSizeIterator3lenB7_, symObjAddr: 0x11ED8, symBinAddr: 0x56294, symSize: 0x94 }
  - { offset: 0xA320E, size: 0x8, addend: 0x0, symName: __RNcNtINtNtCs5AlOhPCr03V_3syn10punctuated4PairNtNtB8_4path11PathSegmentNtNtB8_5token6Colon2E3End0B8_, symObjAddr: 0x12000, symBinAddr: 0x56328, symSize: 0x3C }
  - { offset: 0xA324B, size: 0x8, addend: 0x0, symName: __RNcNtINtNtCs5AlOhPCr03V_3syn10punctuated4PairQNtNtB8_4path11PathSegmentQNtNtB8_5token6Colon2E3End0B8_, symObjAddr: 0x1203C, symBinAddr: 0x56364, symSize: 0x1C }
  - { offset: 0xA3287, size: 0x8, addend: 0x0, symName: __RNcNtINtNtCs5AlOhPCr03V_3syn10punctuated4PairRNtNtB8_2ty4TypeRNtNtB8_5token5CommaE3End0B8_, symObjAddr: 0x12058, symBinAddr: 0x56380, symSize: 0x1C }
  - { offset: 0xA32C3, size: 0x8, addend: 0x0, symName: __RNcNtINtNtCs5AlOhPCr03V_3syn10punctuated4PairRNtNtB8_2ty9BareFnArgRNtNtB8_5token5CommaE3End0B8_, symObjAddr: 0x12074, symBinAddr: 0x5639C, symSize: 0x1C }
  - { offset: 0xA32FF, size: 0x8, addend: 0x0, symName: __RNcNtINtNtCs5AlOhPCr03V_3syn10punctuated4PairRNtNtB8_3pat3PatRNtNtB8_5token2OrE3End0B8_, symObjAddr: 0x12090, symBinAddr: 0x563B8, symSize: 0x1C }
  - { offset: 0xA333B, size: 0x8, addend: 0x0, symName: __RNcNtINtNtCs5AlOhPCr03V_3syn10punctuated4PairRNtNtB8_3pat3PatRNtNtB8_5token5CommaE3End0B8_, symObjAddr: 0x120AC, symBinAddr: 0x563D4, symSize: 0x1C }
  - { offset: 0xA3377, size: 0x8, addend: 0x0, symName: __RNcNtINtNtCs5AlOhPCr03V_3syn10punctuated4PairRNtNtB8_3pat8FieldPatRNtNtB8_5token5CommaE3End0B8_, symObjAddr: 0x120C8, symBinAddr: 0x563F0, symSize: 0x1C }
  - { offset: 0xA33B3, size: 0x8, addend: 0x0, symName: __RNcNtINtNtCs5AlOhPCr03V_3syn10punctuated4PairRNtNtB8_4data5FieldRNtNtB8_5token5CommaE3End0B8_, symObjAddr: 0x12100, symBinAddr: 0x5640C, symSize: 0x1C }
  - { offset: 0xA33EF, size: 0x8, addend: 0x0, symName: __RNcNtINtNtCs5AlOhPCr03V_3syn10punctuated4PairRNtNtB8_4data7VariantRNtNtB8_5token5CommaE3End0B8_, symObjAddr: 0x1211C, symBinAddr: 0x56428, symSize: 0x1C }
  - { offset: 0xA342B, size: 0x8, addend: 0x0, symName: __RNcNtINtNtCs5AlOhPCr03V_3syn10punctuated4PairRNtNtB8_4expr10FieldValueRNtNtB8_5token5CommaE3End0B8_, symObjAddr: 0x12138, symBinAddr: 0x56444, symSize: 0x1C }
  - { offset: 0xA3467, size: 0x8, addend: 0x0, symName: __RNcNtINtNtCs5AlOhPCr03V_3syn10punctuated4PairRNtNtB8_4expr21GenericMethodArgumentRNtNtB8_5token5CommaE3End0B8_, symObjAddr: 0x12154, symBinAddr: 0x56460, symSize: 0x1C }
  - { offset: 0xA34A3, size: 0x8, addend: 0x0, symName: __RNcNtINtNtCs5AlOhPCr03V_3syn10punctuated4PairRNtNtB8_4expr4ExprRNtNtB8_5token5CommaE3End0B8_, symObjAddr: 0x12170, symBinAddr: 0x5647C, symSize: 0x1C }
  - { offset: 0xA34DF, size: 0x8, addend: 0x0, symName: __RNcNtINtNtCs5AlOhPCr03V_3syn10punctuated4PairRNtNtB8_4item5FnArgRNtNtB8_5token5CommaE3End0B8_, symObjAddr: 0x1218C, symBinAddr: 0x56498, symSize: 0x1C }
  - { offset: 0xA351B, size: 0x8, addend: 0x0, symName: __RNcNtINtNtCs5AlOhPCr03V_3syn10punctuated4PairRNtNtB8_4item7UseTreeRNtNtB8_5token5CommaE3End0B8_, symObjAddr: 0x121A8, symBinAddr: 0x564B4, symSize: 0x1C }
  - { offset: 0xA3557, size: 0x8, addend: 0x0, symName: __RNcNtINtNtCs5AlOhPCr03V_3syn10punctuated4PairRNtNtB8_4path11PathSegmentRNtNtB8_5token6Colon2E3End0B8_, symObjAddr: 0x121C4, symBinAddr: 0x564D0, symSize: 0x1C }
  - { offset: 0xA3593, size: 0x8, addend: 0x0, symName: __RNcNtINtNtCs5AlOhPCr03V_3syn10punctuated4PairRNtNtB8_4path15GenericArgumentRNtNtB8_5token5CommaE3End0B8_, symObjAddr: 0x121E0, symBinAddr: 0x564EC, symSize: 0x1C }
  - { offset: 0xA35CF, size: 0x8, addend: 0x0, symName: __RNcNtINtNtCs5AlOhPCr03V_3syn10punctuated4PairRNtNtB8_8generics11LifetimeDefRNtNtB8_5token5CommaE3End0B8_, symObjAddr: 0x121FC, symBinAddr: 0x56508, symSize: 0x1C }
  - { offset: 0xA360B, size: 0x8, addend: 0x0, symName: __RNcNtINtNtCs5AlOhPCr03V_3syn10punctuated4PairRNtNtB8_8generics12GenericParamRNtNtB8_5token5CommaE3End0B8_, symObjAddr: 0x12218, symBinAddr: 0x56524, symSize: 0x1C }
  - { offset: 0xA3647, size: 0x8, addend: 0x0, symName: __RNcNtINtNtCs5AlOhPCr03V_3syn10punctuated4PairRNtNtB8_8generics14TypeParamBoundRNtNtB8_5token3AddE3End0B8_, symObjAddr: 0x12234, symBinAddr: 0x56540, symSize: 0x1C }
  - { offset: 0xA3683, size: 0x8, addend: 0x0, symName: __RNcNtINtNtCs5AlOhPCr03V_3syn10punctuated4PairRNtNtB8_8generics14WherePredicateRNtNtB8_5token5CommaE3End0B8_, symObjAddr: 0x12250, symBinAddr: 0x5655C, symSize: 0x1C }
  - { offset: 0xA36BF, size: 0x8, addend: 0x0, symName: __RNcNtINtNtCs5AlOhPCr03V_3syn10punctuated4PairRNtNtB8_8lifetime8LifetimeRNtNtB8_5token3AddE3End0B8_, symObjAddr: 0x1226C, symBinAddr: 0x56578, symSize: 0x1C }
  - { offset: 0xA3A46, size: 0x8, addend: 0x0, symName: __RNvXsL_NtCs5AlOhPCr03V_3syn10punctuatedINtB5_10PunctuatedNtNtB7_4path11PathSegmentNtNtB7_5token6Colon2EINtNtNtCsfvfooZQ3Axs_4core3ops5index5IndexjE5indexB7_, symObjAddr: 0x126D4, symBinAddr: 0x569E0, symSize: 0x134 }
  - { offset: 0xA3AB6, size: 0x8, addend: 0x0, symName: __RNvXNtNtCs5AlOhPCr03V_3syn10punctuated8printingINtB4_10PunctuatedNtNtB6_2ty4TypeNtNtB6_5token5CommaENtNtCs2cqEZUIJimJ_5quote9to_tokens8ToTokens9to_tokensB6_, symObjAddr: 0x12808, symBinAddr: 0x56B14, symSize: 0x50 }
  - { offset: 0xA3B01, size: 0x8, addend: 0x0, symName: __RNvXNtNtCs5AlOhPCr03V_3syn10punctuated8printingINtB4_10PunctuatedNtNtB6_2ty9BareFnArgNtNtB6_5token5CommaENtNtCs2cqEZUIJimJ_5quote9to_tokens8ToTokens9to_tokensB6_, symObjAddr: 0x12858, symBinAddr: 0x56B64, symSize: 0x50 }
  - { offset: 0xA3B4C, size: 0x8, addend: 0x0, symName: __RNvXNtNtCs5AlOhPCr03V_3syn10punctuated8printingINtB4_10PunctuatedNtNtB6_3pat3PatNtNtB6_5token2OrENtNtCs2cqEZUIJimJ_5quote9to_tokens8ToTokens9to_tokensB6_, symObjAddr: 0x128A8, symBinAddr: 0x56BB4, symSize: 0x50 }
  - { offset: 0xA3B97, size: 0x8, addend: 0x0, symName: __RNvXNtNtCs5AlOhPCr03V_3syn10punctuated8printingINtB4_10PunctuatedNtNtB6_3pat3PatNtNtB6_5token5CommaENtNtCs2cqEZUIJimJ_5quote9to_tokens8ToTokens9to_tokensB6_, symObjAddr: 0x128F8, symBinAddr: 0x56C04, symSize: 0x50 }
  - { offset: 0xA3BE2, size: 0x8, addend: 0x0, symName: __RNvXNtNtCs5AlOhPCr03V_3syn10punctuated8printingINtB4_10PunctuatedNtNtB6_3pat8FieldPatNtNtB6_5token5CommaENtNtCs2cqEZUIJimJ_5quote9to_tokens8ToTokens9to_tokensB6_, symObjAddr: 0x12948, symBinAddr: 0x56C54, symSize: 0x50 }
  - { offset: 0xA3C2D, size: 0x8, addend: 0x0, symName: __RNvXNtNtCs5AlOhPCr03V_3syn10punctuated8printingINtB4_10PunctuatedNtNtB6_4data5FieldNtNtB6_5token5CommaENtNtCs2cqEZUIJimJ_5quote9to_tokens8ToTokens9to_tokensB6_, symObjAddr: 0x129E8, symBinAddr: 0x56CA4, symSize: 0x50 }
  - { offset: 0xA3C78, size: 0x8, addend: 0x0, symName: __RNvXNtNtCs5AlOhPCr03V_3syn10punctuated8printingINtB4_10PunctuatedNtNtB6_4data7VariantNtNtB6_5token5CommaENtNtCs2cqEZUIJimJ_5quote9to_tokens8ToTokens9to_tokensB6_, symObjAddr: 0x12A38, symBinAddr: 0x56CF4, symSize: 0x50 }
  - { offset: 0xA3CC3, size: 0x8, addend: 0x0, symName: __RNvXNtNtCs5AlOhPCr03V_3syn10punctuated8printingINtB4_10PunctuatedNtNtB6_4expr10FieldValueNtNtB6_5token5CommaENtNtCs2cqEZUIJimJ_5quote9to_tokens8ToTokens9to_tokensB6_, symObjAddr: 0x12A88, symBinAddr: 0x56D44, symSize: 0x50 }
  - { offset: 0xA3D0E, size: 0x8, addend: 0x0, symName: __RNvXNtNtCs5AlOhPCr03V_3syn10punctuated8printingINtB4_10PunctuatedNtNtB6_4expr21GenericMethodArgumentNtNtB6_5token5CommaENtNtCs2cqEZUIJimJ_5quote9to_tokens8ToTokens9to_tokensB6_, symObjAddr: 0x12AD8, symBinAddr: 0x56D94, symSize: 0x50 }
  - { offset: 0xA3D59, size: 0x8, addend: 0x0, symName: __RNvXNtNtCs5AlOhPCr03V_3syn10punctuated8printingINtB4_10PunctuatedNtNtB6_4expr4ExprNtNtB6_5token5CommaENtNtCs2cqEZUIJimJ_5quote9to_tokens8ToTokens9to_tokensB6_, symObjAddr: 0x12B28, symBinAddr: 0x56DE4, symSize: 0x50 }
  - { offset: 0xA3DA4, size: 0x8, addend: 0x0, symName: __RNvXNtNtCs5AlOhPCr03V_3syn10punctuated8printingINtB4_10PunctuatedNtNtB6_4item7UseTreeNtNtB6_5token5CommaENtNtCs2cqEZUIJimJ_5quote9to_tokens8ToTokens9to_tokensB6_, symObjAddr: 0x12B78, symBinAddr: 0x56E34, symSize: 0x50 }
  - { offset: 0xA3DEF, size: 0x8, addend: 0x0, symName: __RNvXNtNtCs5AlOhPCr03V_3syn10punctuated8printingINtB4_10PunctuatedNtNtB6_4path11PathSegmentNtNtB6_5token6Colon2ENtNtCs2cqEZUIJimJ_5quote9to_tokens8ToTokens9to_tokensB6_, symObjAddr: 0x12BC8, symBinAddr: 0x56E84, symSize: 0x50 }
  - { offset: 0xA3E3A, size: 0x8, addend: 0x0, symName: __RNvXNtNtCs5AlOhPCr03V_3syn10punctuated8printingINtB4_10PunctuatedNtNtB6_8generics11LifetimeDefNtNtB6_5token5CommaENtNtCs2cqEZUIJimJ_5quote9to_tokens8ToTokens9to_tokensB6_, symObjAddr: 0x12C18, symBinAddr: 0x56ED4, symSize: 0x50 }
  - { offset: 0xA3E85, size: 0x8, addend: 0x0, symName: __RNvXNtNtCs5AlOhPCr03V_3syn10punctuated8printingINtB4_10PunctuatedNtNtB6_8generics14TypeParamBoundNtNtB6_5token3AddENtNtCs2cqEZUIJimJ_5quote9to_tokens8ToTokens9to_tokensB6_, symObjAddr: 0x12C68, symBinAddr: 0x56F24, symSize: 0x50 }
  - { offset: 0xA3ED0, size: 0x8, addend: 0x0, symName: __RNvXNtNtCs5AlOhPCr03V_3syn10punctuated8printingINtB4_10PunctuatedNtNtB6_8generics14WherePredicateNtNtB6_5token5CommaENtNtCs2cqEZUIJimJ_5quote9to_tokens8ToTokens9to_tokensB6_, symObjAddr: 0x12CB8, symBinAddr: 0x56F74, symSize: 0x50 }
  - { offset: 0xA3F1B, size: 0x8, addend: 0x0, symName: __RNvXNtNtCs5AlOhPCr03V_3syn10punctuated8printingINtB4_10PunctuatedNtNtB6_8lifetime8LifetimeNtNtB6_5token3AddENtNtCs2cqEZUIJimJ_5quote9to_tokens8ToTokens9to_tokensB6_, symObjAddr: 0x12D08, symBinAddr: 0x56FC4, symSize: 0x50 }
  - { offset: 0xA3F6C, size: 0x8, addend: 0x0, symName: __RNvXs_NtNtCs5AlOhPCr03V_3syn10punctuated8printingINtB6_4PairRNtNtB8_2ty4TypeRNtNtB8_5token5CommaENtNtCs2cqEZUIJimJ_5quote9to_tokens8ToTokens9to_tokensB8_, symObjAddr: 0x12D58, symBinAddr: 0x57014, symSize: 0xB4 }
  - { offset: 0xA3FFB, size: 0x8, addend: 0x0, symName: __RNvXs_NtNtCs5AlOhPCr03V_3syn10punctuated8printingINtB6_4PairRNtNtB8_2ty9BareFnArgRNtNtB8_5token5CommaENtNtCs2cqEZUIJimJ_5quote9to_tokens8ToTokens9to_tokensB8_, symObjAddr: 0x12E0C, symBinAddr: 0x570C8, symSize: 0xB4 }
  - { offset: 0xA408A, size: 0x8, addend: 0x0, symName: __RNvXs_NtNtCs5AlOhPCr03V_3syn10punctuated8printingINtB6_4PairRNtNtB8_3pat3PatRNtNtB8_5token2OrENtNtCs2cqEZUIJimJ_5quote9to_tokens8ToTokens9to_tokensB8_, symObjAddr: 0x12EC0, symBinAddr: 0x5717C, symSize: 0xB4 }
  - { offset: 0xA4119, size: 0x8, addend: 0x0, symName: __RNvXs_NtNtCs5AlOhPCr03V_3syn10punctuated8printingINtB6_4PairRNtNtB8_3pat3PatRNtNtB8_5token5CommaENtNtCs2cqEZUIJimJ_5quote9to_tokens8ToTokens9to_tokensB8_, symObjAddr: 0x12F74, symBinAddr: 0x57230, symSize: 0xB4 }
  - { offset: 0xA41A8, size: 0x8, addend: 0x0, symName: __RNvXs_NtNtCs5AlOhPCr03V_3syn10punctuated8printingINtB6_4PairRNtNtB8_3pat8FieldPatRNtNtB8_5token5CommaENtNtCs2cqEZUIJimJ_5quote9to_tokens8ToTokens9to_tokensB8_, symObjAddr: 0x13028, symBinAddr: 0x572E4, symSize: 0xB4 }
  - { offset: 0xA4237, size: 0x8, addend: 0x0, symName: __RNvXs_NtNtCs5AlOhPCr03V_3syn10punctuated8printingINtB6_4PairRNtNtB8_4data5FieldRNtNtB8_5token5CommaENtNtCs2cqEZUIJimJ_5quote9to_tokens8ToTokens9to_tokensB8_, symObjAddr: 0x13190, symBinAddr: 0x57398, symSize: 0xB4 }
  - { offset: 0xA42C6, size: 0x8, addend: 0x0, symName: __RNvXs_NtNtCs5AlOhPCr03V_3syn10punctuated8printingINtB6_4PairRNtNtB8_4data7VariantRNtNtB8_5token5CommaENtNtCs2cqEZUIJimJ_5quote9to_tokens8ToTokens9to_tokensB8_, symObjAddr: 0x13244, symBinAddr: 0x5744C, symSize: 0xB4 }
  - { offset: 0xA4355, size: 0x8, addend: 0x0, symName: __RNvXs_NtNtCs5AlOhPCr03V_3syn10punctuated8printingINtB6_4PairRNtNtB8_4expr10FieldValueRNtNtB8_5token5CommaENtNtCs2cqEZUIJimJ_5quote9to_tokens8ToTokens9to_tokensB8_, symObjAddr: 0x132F8, symBinAddr: 0x57500, symSize: 0xB4 }
  - { offset: 0xA43E4, size: 0x8, addend: 0x0, symName: __RNvXs_NtNtCs5AlOhPCr03V_3syn10punctuated8printingINtB6_4PairRNtNtB8_4expr21GenericMethodArgumentRNtNtB8_5token5CommaENtNtCs2cqEZUIJimJ_5quote9to_tokens8ToTokens9to_tokensB8_, symObjAddr: 0x133AC, symBinAddr: 0x575B4, symSize: 0xB4 }
  - { offset: 0xA4473, size: 0x8, addend: 0x0, symName: __RNvXs_NtNtCs5AlOhPCr03V_3syn10punctuated8printingINtB6_4PairRNtNtB8_4expr4ExprRNtNtB8_5token5CommaENtNtCs2cqEZUIJimJ_5quote9to_tokens8ToTokens9to_tokensB8_, symObjAddr: 0x13460, symBinAddr: 0x57668, symSize: 0xB4 }
  - { offset: 0xA4502, size: 0x8, addend: 0x0, symName: __RNvXs_NtNtCs5AlOhPCr03V_3syn10punctuated8printingINtB6_4PairRNtNtB8_4item7UseTreeRNtNtB8_5token5CommaENtNtCs2cqEZUIJimJ_5quote9to_tokens8ToTokens9to_tokensB8_, symObjAddr: 0x13514, symBinAddr: 0x5771C, symSize: 0xB4 }
  - { offset: 0xA4591, size: 0x8, addend: 0x0, symName: __RNvXs_NtNtCs5AlOhPCr03V_3syn10punctuated8printingINtB6_4PairRNtNtB8_4path11PathSegmentRNtNtB8_5token6Colon2ENtNtCs2cqEZUIJimJ_5quote9to_tokens8ToTokens9to_tokensB8_, symObjAddr: 0x135C8, symBinAddr: 0x577D0, symSize: 0xB4 }
  - { offset: 0xA4620, size: 0x8, addend: 0x0, symName: __RNvXs_NtNtCs5AlOhPCr03V_3syn10punctuated8printingINtB6_4PairRNtNtB8_4path15GenericArgumentRNtNtB8_5token5CommaENtNtCs2cqEZUIJimJ_5quote9to_tokens8ToTokens9to_tokensB8_, symObjAddr: 0x1367C, symBinAddr: 0x57884, symSize: 0xB4 }
  - { offset: 0xA46AF, size: 0x8, addend: 0x0, symName: __RNvXs_NtNtCs5AlOhPCr03V_3syn10punctuated8printingINtB6_4PairRNtNtB8_8generics11LifetimeDefRNtNtB8_5token5CommaENtNtCs2cqEZUIJimJ_5quote9to_tokens8ToTokens9to_tokensB8_, symObjAddr: 0x13730, symBinAddr: 0x57938, symSize: 0xB4 }
  - { offset: 0xA473E, size: 0x8, addend: 0x0, symName: __RNvXs_NtNtCs5AlOhPCr03V_3syn10punctuated8printingINtB6_4PairRNtNtB8_8generics12GenericParamRNtNtB8_5token5CommaENtNtCs2cqEZUIJimJ_5quote9to_tokens8ToTokens9to_tokensB8_, symObjAddr: 0x137E4, symBinAddr: 0x579EC, symSize: 0xB4 }
  - { offset: 0xA47CD, size: 0x8, addend: 0x0, symName: __RNvXs_NtNtCs5AlOhPCr03V_3syn10punctuated8printingINtB6_4PairRNtNtB8_8generics14TypeParamBoundRNtNtB8_5token3AddENtNtCs2cqEZUIJimJ_5quote9to_tokens8ToTokens9to_tokensB8_, symObjAddr: 0x13898, symBinAddr: 0x57AA0, symSize: 0xB4 }
  - { offset: 0xA485C, size: 0x8, addend: 0x0, symName: __RNvXs_NtNtCs5AlOhPCr03V_3syn10punctuated8printingINtB6_4PairRNtNtB8_8generics14WherePredicateRNtNtB8_5token5CommaENtNtCs2cqEZUIJimJ_5quote9to_tokens8ToTokens9to_tokensB8_, symObjAddr: 0x1394C, symBinAddr: 0x57B54, symSize: 0xB4 }
  - { offset: 0xA48EB, size: 0x8, addend: 0x0, symName: __RNvXs_NtNtCs5AlOhPCr03V_3syn10punctuated8printingINtB6_4PairRNtNtB8_8lifetime8LifetimeRNtNtB8_5token3AddENtNtCs2cqEZUIJimJ_5quote9to_tokens8ToTokens9to_tokensB8_, symObjAddr: 0x13A00, symBinAddr: 0x57C08, symSize: 0xB4 }
  - { offset: 0xB0680, size: 0x8, addend: 0x0, symName: __RINvYINtNtCs5AlOhPCr03V_3syn10punctuated5PairsNtNtB8_4path11PathSegmentNtNtB8_5token6Colon2ENtNtNtNtCsfvfooZQ3Axs_4core4iter6traits8iterator8Iterator3mapINtB6_4PairBI_B17_ENCNvMNtB8_4attrNtB2P_9Attribute10parse_metas_0EB8_, symObjAddr: 0x0, symBinAddr: 0x48CF0, symSize: 0x20 }
  - { offset: 0xB06ED, size: 0x8, addend: 0x0, symName: __RNvYINtNtCs5AlOhPCr03V_3syn10punctuated11PrivateIterNtNtB7_4data5FieldNtNtB7_5token5CommaENtNtNtNtCsfvfooZQ3Axs_4core4iter6traits8iterator8Iterator10advance_byB7_, symObjAddr: 0x420, symBinAddr: 0x490F8, symSize: 0x134 }
  - { offset: 0xB0843, size: 0x8, addend: 0x0, symName: __RNvYINtNtCs5AlOhPCr03V_3syn10punctuated11PrivateIterNtNtB7_4data5FieldNtNtB7_5token5CommaENtNtNtNtCsfvfooZQ3Axs_4core4iter6traits8iterator8Iterator3nthB7_, symObjAddr: 0x554, symBinAddr: 0x4922C, symSize: 0x80 }
  - { offset: 0xB090F, size: 0x8, addend: 0x0, symName: __RNvYINtNtCs5AlOhPCr03V_3syn10punctuated11PrivateIterNtNtB7_4data5FieldNtNtB7_5token5CommaENtNtNtNtCsfvfooZQ3Axs_4core4iter6traits8iterator8Iterator9size_hintB7_, symObjAddr: 0x5D4, symBinAddr: 0x492AC, symSize: 0x34 }
  - { offset: 0xB0944, size: 0x8, addend: 0x0, symName: __RNvYINtNtCs5AlOhPCr03V_3syn10punctuated11PrivateIterNtNtB7_4path11PathSegmentNtNtB7_5token6Colon2ENtNtNtNtCsfvfooZQ3Axs_4core4iter6traits8iterator8Iterator10advance_byB7_, symObjAddr: 0xB80, symBinAddr: 0x494A8, symSize: 0x134 }
  - { offset: 0xB0A9A, size: 0x8, addend: 0x0, symName: __RNvYINtNtCs5AlOhPCr03V_3syn10punctuated11PrivateIterNtNtB7_4path11PathSegmentNtNtB7_5token6Colon2ENtNtNtNtCsfvfooZQ3Axs_4core4iter6traits8iterator8Iterator3nthB7_, symObjAddr: 0xCB4, symBinAddr: 0x495DC, symSize: 0x80 }
  - { offset: 0xB0B66, size: 0x8, addend: 0x0, symName: __RNvYINtNtCs5AlOhPCr03V_3syn10punctuated11PrivateIterNtNtB7_4path11PathSegmentNtNtB7_5token6Colon2ENtNtNtNtCsfvfooZQ3Axs_4core4iter6traits8iterator8Iterator9size_hintB7_, symObjAddr: 0xD34, symBinAddr: 0x4965C, symSize: 0x34 }
  - { offset: 0xB0B9B, size: 0x8, addend: 0x0, symName: __RNvYINtNtCs5AlOhPCr03V_3syn10punctuated11PrivateIterNtNtB7_8generics14TypeParamBoundNtNtB7_5token3AddENtNtNtNtCsfvfooZQ3Axs_4core4iter6traits8iterator8Iterator10advance_byB7_, symObjAddr: 0x12E0, symBinAddr: 0x49858, symSize: 0x134 }
  - { offset: 0xB0CF1, size: 0x8, addend: 0x0, symName: __RNvYINtNtCs5AlOhPCr03V_3syn10punctuated11PrivateIterNtNtB7_8generics14TypeParamBoundNtNtB7_5token3AddENtNtNtNtCsfvfooZQ3Axs_4core4iter6traits8iterator8Iterator3nthB7_, symObjAddr: 0x1414, symBinAddr: 0x4998C, symSize: 0x80 }
  - { offset: 0xB0DBD, size: 0x8, addend: 0x0, symName: __RNvYINtNtCs5AlOhPCr03V_3syn10punctuated11PrivateIterNtNtB7_8generics14TypeParamBoundNtNtB7_5token3AddENtNtNtNtCsfvfooZQ3Axs_4core4iter6traits8iterator8Iterator9size_hintB7_, symObjAddr: 0x1494, symBinAddr: 0x49A0C, symSize: 0x34 }
  - { offset: 0xB0DF2, size: 0x8, addend: 0x0, symName: __RNvYINtNtCs5AlOhPCr03V_3syn10punctuated14PrivateIterMutNtNtB7_4item5FnArgNtNtB7_5token5CommaENtNtNtNtCsfvfooZQ3Axs_4core4iter6traits8iterator8Iterator10advance_byB7_, symObjAddr: 0x1A40, symBinAddr: 0x49C08, symSize: 0x134 }
  - { offset: 0xB0F48, size: 0x8, addend: 0x0, symName: __RNvYINtNtCs5AlOhPCr03V_3syn10punctuated14PrivateIterMutNtNtB7_4item5FnArgNtNtB7_5token5CommaENtNtNtNtCsfvfooZQ3Axs_4core4iter6traits8iterator8Iterator3nthB7_, symObjAddr: 0x1B74, symBinAddr: 0x49D3C, symSize: 0x80 }
  - { offset: 0xB1014, size: 0x8, addend: 0x0, symName: __RNvYINtNtCs5AlOhPCr03V_3syn10punctuated14PrivateIterMutNtNtB7_4item5FnArgNtNtB7_5token5CommaENtNtNtNtCsfvfooZQ3Axs_4core4iter6traits8iterator8Iterator9size_hintB7_, symObjAddr: 0x1BF4, symBinAddr: 0x49DBC, symSize: 0x34 }
  - { offset: 0xB1049, size: 0x8, addend: 0x0, symName: __RNvYINtNtCs5AlOhPCr03V_3syn10punctuated14PrivateIterMutNtNtB7_4path11PathSegmentNtNtB7_5token6Colon2ENtNtNtNtCsfvfooZQ3Axs_4core4iter6traits8iterator8Iterator10advance_byB7_, symObjAddr: 0x1DF0, symBinAddr: 0x49FB8, symSize: 0x134 }
  - { offset: 0xB119F, size: 0x8, addend: 0x0, symName: __RNvYINtNtCs5AlOhPCr03V_3syn10punctuated14PrivateIterMutNtNtB7_4path11PathSegmentNtNtB7_5token6Colon2ENtNtNtNtCsfvfooZQ3Axs_4core4iter6traits8iterator8Iterator3nthB7_, symObjAddr: 0x1F24, symBinAddr: 0x4A0EC, symSize: 0x80 }
  - { offset: 0xB126B, size: 0x8, addend: 0x0, symName: __RNvYINtNtCs5AlOhPCr03V_3syn10punctuated14PrivateIterMutNtNtB7_4path11PathSegmentNtNtB7_5token6Colon2ENtNtNtNtCsfvfooZQ3Axs_4core4iter6traits8iterator8Iterator9size_hintB7_, symObjAddr: 0x1FA4, symBinAddr: 0x4A16C, symSize: 0x34 }
  - { offset: 0xB12A0, size: 0x8, addend: 0x0, symName: __RNvYINtNtCs5AlOhPCr03V_3syn10punctuated5PairsNtNtB7_4path11PathSegmentNtNtB7_5token6Colon2ENtNtNtNtCsfvfooZQ3Axs_4core4iter6traits8iterator8Iterator10advance_byB7_, symObjAddr: 0x2388, symBinAddr: 0x4A1A0, symSize: 0x130 }
  - { offset: 0xB13F6, size: 0x8, addend: 0x0, symName: __RNvYINtNtCs5AlOhPCr03V_3syn10punctuated5PairsNtNtB7_4path11PathSegmentNtNtB7_5token6Colon2ENtNtNtNtCsfvfooZQ3Axs_4core4iter6traits8iterator8Iterator3nthB7_, symObjAddr: 0x24B8, symBinAddr: 0x4A2D0, symSize: 0x84 }
  - { offset: 0xB14C2, size: 0x8, addend: 0x0, symName: __RNvYINtNtCs5AlOhPCr03V_3syn10punctuated5PairsNtNtB7_4path11PathSegmentNtNtB7_5token6Colon2ENtNtNtNtCsfvfooZQ3Axs_4core4iter6traits8iterator8Iterator4skipB7_, symObjAddr: 0x253C, symBinAddr: 0x4A354, symSize: 0x24 }
  - { offset: 0xB151D, size: 0x8, addend: 0x0, symName: __RNvYINtNtCs5AlOhPCr03V_3syn10punctuated5PairsNtNtB7_4path11PathSegmentNtNtB7_5token6Colon2ENtNtNtNtCsfvfooZQ3Axs_4core4iter6traits8iterator8Iterator6by_refB7_, symObjAddr: 0x2560, symBinAddr: 0x4A378, symSize: 0x14 }
  - { offset: 0xB1554, size: 0x8, addend: 0x0, symName: __RNvYQINtNtCs5AlOhPCr03V_3syn10punctuated5PairsNtNtB8_4path11PathSegmentNtNtB8_5token6Colon2ENtNtNtNtCsfvfooZQ3Axs_4core4iter6traits8iterator8Iterator4takeB8_, symObjAddr: 0x2574, symBinAddr: 0x4A38C, symSize: 0x18 }
  - { offset: 0xB15A0, size: 0x8, addend: 0x0, symName: __RNvXNtNtNtCsfvfooZQ3Axs_4core4iter6traits8iteratorQINtNtCs5AlOhPCr03V_3syn10punctuated5PairsNtNtBS_4path11PathSegmentNtNtBS_5token6Colon2ENtB2_8Iterator4nextBS_, symObjAddr: 0x230, symBinAddr: 0x48F08, symSize: 0x28 }
  - { offset: 0xB15E3, size: 0x8, addend: 0x0, symName: __RNvXNtNtNtCsfvfooZQ3Axs_4core4iter6traits7collectINtNtCs5AlOhPCr03V_3syn10punctuated5PairsNtNtBQ_2ty4TypeNtNtBQ_5token5CommaENtB2_12IntoIterator9into_iterBQ_, symObjAddr: 0x20, symBinAddr: 0x48D10, symSize: 0x18 }
  - { offset: 0xB161A, size: 0x8, addend: 0x0, symName: __RNvXNtNtNtCsfvfooZQ3Axs_4core4iter6traits7collectINtNtCs5AlOhPCr03V_3syn10punctuated5PairsNtNtBQ_2ty9BareFnArgNtNtBQ_5token5CommaENtB2_12IntoIterator9into_iterBQ_, symObjAddr: 0x38, symBinAddr: 0x48D28, symSize: 0x18 }
  - { offset: 0xB1651, size: 0x8, addend: 0x0, symName: __RNvXNtNtNtCsfvfooZQ3Axs_4core4iter6traits7collectINtNtCs5AlOhPCr03V_3syn10punctuated5PairsNtNtBQ_3pat3PatNtNtBQ_5token2OrENtB2_12IntoIterator9into_iterBQ_, symObjAddr: 0x50, symBinAddr: 0x48D40, symSize: 0x18 }
  - { offset: 0xB1688, size: 0x8, addend: 0x0, symName: __RNvXNtNtNtCsfvfooZQ3Axs_4core4iter6traits7collectINtNtCs5AlOhPCr03V_3syn10punctuated5PairsNtNtBQ_3pat3PatNtNtBQ_5token5CommaENtB2_12IntoIterator9into_iterBQ_, symObjAddr: 0x68, symBinAddr: 0x48D58, symSize: 0x18 }
  - { offset: 0xB16BF, size: 0x8, addend: 0x0, symName: __RNvXNtNtNtCsfvfooZQ3Axs_4core4iter6traits7collectINtNtCs5AlOhPCr03V_3syn10punctuated5PairsNtNtBQ_3pat8FieldPatNtNtBQ_5token5CommaENtB2_12IntoIterator9into_iterBQ_, symObjAddr: 0x80, symBinAddr: 0x48D70, symSize: 0x18 }
  - { offset: 0xB16F6, size: 0x8, addend: 0x0, symName: __RNvXNtNtNtCsfvfooZQ3Axs_4core4iter6traits7collectINtNtCs5AlOhPCr03V_3syn10punctuated5PairsNtNtBQ_4data5FieldNtNtBQ_5token5CommaENtB2_12IntoIterator9into_iterBQ_, symObjAddr: 0xB0, symBinAddr: 0x48D88, symSize: 0x18 }
  - { offset: 0xB172D, size: 0x8, addend: 0x0, symName: __RNvXNtNtNtCsfvfooZQ3Axs_4core4iter6traits7collectINtNtCs5AlOhPCr03V_3syn10punctuated5PairsNtNtBQ_4data7VariantNtNtBQ_5token5CommaENtB2_12IntoIterator9into_iterBQ_, symObjAddr: 0xC8, symBinAddr: 0x48DA0, symSize: 0x18 }
  - { offset: 0xB1764, size: 0x8, addend: 0x0, symName: __RNvXNtNtNtCsfvfooZQ3Axs_4core4iter6traits7collectINtNtCs5AlOhPCr03V_3syn10punctuated5PairsNtNtBQ_4expr10FieldValueNtNtBQ_5token5CommaENtB2_12IntoIterator9into_iterBQ_, symObjAddr: 0xE0, symBinAddr: 0x48DB8, symSize: 0x18 }
  - { offset: 0xB179B, size: 0x8, addend: 0x0, symName: __RNvXNtNtNtCsfvfooZQ3Axs_4core4iter6traits7collectINtNtCs5AlOhPCr03V_3syn10punctuated5PairsNtNtBQ_4expr21GenericMethodArgumentNtNtBQ_5token5CommaENtB2_12IntoIterator9into_iterBQ_, symObjAddr: 0xF8, symBinAddr: 0x48DD0, symSize: 0x18 }
  - { offset: 0xB17D2, size: 0x8, addend: 0x0, symName: __RNvXNtNtNtCsfvfooZQ3Axs_4core4iter6traits7collectINtNtCs5AlOhPCr03V_3syn10punctuated5PairsNtNtBQ_4expr4ExprNtNtBQ_5token5CommaENtB2_12IntoIterator9into_iterBQ_, symObjAddr: 0x110, symBinAddr: 0x48DE8, symSize: 0x18 }
  - { offset: 0xB1809, size: 0x8, addend: 0x0, symName: __RNvXNtNtNtCsfvfooZQ3Axs_4core4iter6traits7collectINtNtCs5AlOhPCr03V_3syn10punctuated5PairsNtNtBQ_4item5FnArgNtNtBQ_5token5CommaENtB2_12IntoIterator9into_iterBQ_, symObjAddr: 0x128, symBinAddr: 0x48E00, symSize: 0x18 }
  - { offset: 0xB1840, size: 0x8, addend: 0x0, symName: __RNvXNtNtNtCsfvfooZQ3Axs_4core4iter6traits7collectINtNtCs5AlOhPCr03V_3syn10punctuated5PairsNtNtBQ_4item7UseTreeNtNtBQ_5token5CommaENtB2_12IntoIterator9into_iterBQ_, symObjAddr: 0x140, symBinAddr: 0x48E18, symSize: 0x18 }
  - { offset: 0xB1877, size: 0x8, addend: 0x0, symName: __RNvXNtNtNtCsfvfooZQ3Axs_4core4iter6traits7collectINtNtCs5AlOhPCr03V_3syn10punctuated5PairsNtNtBQ_4path11PathSegmentNtNtBQ_5token6Colon2ENtB2_12IntoIterator9into_iterBQ_, symObjAddr: 0x158, symBinAddr: 0x48E30, symSize: 0x18 }
  - { offset: 0xB18AE, size: 0x8, addend: 0x0, symName: __RNvXNtNtNtCsfvfooZQ3Axs_4core4iter6traits7collectINtNtCs5AlOhPCr03V_3syn10punctuated5PairsNtNtBQ_4path15GenericArgumentNtNtBQ_5token5CommaENtB2_12IntoIterator9into_iterBQ_, symObjAddr: 0x170, symBinAddr: 0x48E48, symSize: 0x18 }
  - { offset: 0xB18E5, size: 0x8, addend: 0x0, symName: __RNvXNtNtNtCsfvfooZQ3Axs_4core4iter6traits7collectINtNtCs5AlOhPCr03V_3syn10punctuated5PairsNtNtBQ_8generics11LifetimeDefNtNtBQ_5token5CommaENtB2_12IntoIterator9into_iterBQ_, symObjAddr: 0x188, symBinAddr: 0x48E60, symSize: 0x18 }
  - { offset: 0xB191C, size: 0x8, addend: 0x0, symName: __RNvXNtNtNtCsfvfooZQ3Axs_4core4iter6traits7collectINtNtCs5AlOhPCr03V_3syn10punctuated5PairsNtNtBQ_8generics12GenericParamNtNtBQ_5token5CommaENtB2_12IntoIterator9into_iterBQ_, symObjAddr: 0x1A0, symBinAddr: 0x48E78, symSize: 0x18 }
  - { offset: 0xB1953, size: 0x8, addend: 0x0, symName: __RNvXNtNtNtCsfvfooZQ3Axs_4core4iter6traits7collectINtNtCs5AlOhPCr03V_3syn10punctuated5PairsNtNtBQ_8generics14TypeParamBoundNtNtBQ_5token3AddENtB2_12IntoIterator9into_iterBQ_, symObjAddr: 0x1B8, symBinAddr: 0x48E90, symSize: 0x18 }
  - { offset: 0xB198A, size: 0x8, addend: 0x0, symName: __RNvXNtNtNtCsfvfooZQ3Axs_4core4iter6traits7collectINtNtCs5AlOhPCr03V_3syn10punctuated5PairsNtNtBQ_8generics14WherePredicateNtNtBQ_5token5CommaENtB2_12IntoIterator9into_iterBQ_, symObjAddr: 0x1D0, symBinAddr: 0x48EA8, symSize: 0x18 }
  - { offset: 0xB19C1, size: 0x8, addend: 0x0, symName: __RNvXNtNtNtCsfvfooZQ3Axs_4core4iter6traits7collectINtNtCs5AlOhPCr03V_3syn10punctuated5PairsNtNtBQ_8lifetime8LifetimeNtNtBQ_5token3AddENtB2_12IntoIterator9into_iterBQ_, symObjAddr: 0x1E8, symBinAddr: 0x48EC0, symSize: 0x18 }
  - { offset: 0xB19F8, size: 0x8, addend: 0x0, symName: __RNvXNtNtNtCsfvfooZQ3Axs_4core4iter6traits7collectINtNtCs5AlOhPCr03V_3syn10punctuated9IntoPairsNtNtBQ_4path11PathSegmentNtNtBQ_5token6Colon2ENtB2_12IntoIterator9into_iterBQ_, symObjAddr: 0x200, symBinAddr: 0x48ED8, symSize: 0x30 }
  - { offset: 0xB1A3C, size: 0x8, addend: 0x0, symName: __RNvYINtNtCs5AlOhPCr03V_3syn10punctuated11PrivateIterNtNtB7_4data5FieldNtNtB7_5token5CommaENtNtNtNtCsfvfooZQ3Axs_4core4iter6traits10exact_size17ExactSizeIterator8is_emptyB7_, symObjAddr: 0x258, symBinAddr: 0x48F30, symSize: 0x2C }
  - { offset: 0xB1A71, size: 0x8, addend: 0x0, symName: __RNvYINtNtCs5AlOhPCr03V_3syn10punctuated11PrivateIterNtNtB7_4path11PathSegmentNtNtB7_5token6Colon2ENtNtNtNtCsfvfooZQ3Axs_4core4iter6traits10exact_size17ExactSizeIterator8is_emptyB7_, symObjAddr: 0x9B8, symBinAddr: 0x492E0, symSize: 0x2C }
  - { offset: 0xB1AA6, size: 0x8, addend: 0x0, symName: __RNvYINtNtCs5AlOhPCr03V_3syn10punctuated11PrivateIterNtNtB7_8generics14TypeParamBoundNtNtB7_5token3AddENtNtNtNtCsfvfooZQ3Axs_4core4iter6traits10exact_size17ExactSizeIterator8is_emptyB7_, symObjAddr: 0x1118, symBinAddr: 0x49690, symSize: 0x2C }
  - { offset: 0xB1ADB, size: 0x8, addend: 0x0, symName: __RNvYINtNtCs5AlOhPCr03V_3syn10punctuated14PrivateIterMutNtNtB7_4item5FnArgNtNtB7_5token5CommaENtNtNtNtCsfvfooZQ3Axs_4core4iter6traits10exact_size17ExactSizeIterator8is_emptyB7_, symObjAddr: 0x1878, symBinAddr: 0x49A40, symSize: 0x2C }
  - { offset: 0xB1B10, size: 0x8, addend: 0x0, symName: __RNvYINtNtCs5AlOhPCr03V_3syn10punctuated14PrivateIterMutNtNtB7_4path11PathSegmentNtNtB7_5token6Colon2ENtNtNtNtCsfvfooZQ3Axs_4core4iter6traits10exact_size17ExactSizeIterator8is_emptyB7_, symObjAddr: 0x1C28, symBinAddr: 0x49DF0, symSize: 0x2C }
  - { offset: 0xB1B51, size: 0x8, addend: 0x0, symName: __RNvYINtNtCs5AlOhPCr03V_3syn10punctuated11PrivateIterNtNtB7_4data5FieldNtNtB7_5token5CommaENtNtNtNtCsfvfooZQ3Axs_4core4iter6traits12double_ended19DoubleEndedIterator15advance_back_byB7_, symObjAddr: 0x284, symBinAddr: 0x48F5C, symSize: 0x134 }
  - { offset: 0xB1C9F, size: 0x8, addend: 0x0, symName: __RNvYINtNtCs5AlOhPCr03V_3syn10punctuated11PrivateIterNtNtB7_4data5FieldNtNtB7_5token5CommaENtNtNtNtCsfvfooZQ3Axs_4core4iter6traits12double_ended19DoubleEndedIterator8nth_backB7_, symObjAddr: 0x3B8, symBinAddr: 0x49090, symSize: 0x68 }
  - { offset: 0xB1D1D, size: 0x8, addend: 0x0, symName: __RNvYINtNtCs5AlOhPCr03V_3syn10punctuated11PrivateIterNtNtB7_4path11PathSegmentNtNtB7_5token6Colon2ENtNtNtNtCsfvfooZQ3Axs_4core4iter6traits12double_ended19DoubleEndedIterator15advance_back_byB7_, symObjAddr: 0x9E4, symBinAddr: 0x4930C, symSize: 0x134 }
  - { offset: 0xB1E6B, size: 0x8, addend: 0x0, symName: __RNvYINtNtCs5AlOhPCr03V_3syn10punctuated11PrivateIterNtNtB7_4path11PathSegmentNtNtB7_5token6Colon2ENtNtNtNtCsfvfooZQ3Axs_4core4iter6traits12double_ended19DoubleEndedIterator8nth_backB7_, symObjAddr: 0xB18, symBinAddr: 0x49440, symSize: 0x68 }
  - { offset: 0xB1EE9, size: 0x8, addend: 0x0, symName: __RNvYINtNtCs5AlOhPCr03V_3syn10punctuated11PrivateIterNtNtB7_8generics14TypeParamBoundNtNtB7_5token3AddENtNtNtNtCsfvfooZQ3Axs_4core4iter6traits12double_ended19DoubleEndedIterator15advance_back_byB7_, symObjAddr: 0x1144, symBinAddr: 0x496BC, symSize: 0x134 }
  - { offset: 0xB2037, size: 0x8, addend: 0x0, symName: __RNvYINtNtCs5AlOhPCr03V_3syn10punctuated11PrivateIterNtNtB7_8generics14TypeParamBoundNtNtB7_5token3AddENtNtNtNtCsfvfooZQ3Axs_4core4iter6traits12double_ended19DoubleEndedIterator8nth_backB7_, symObjAddr: 0x1278, symBinAddr: 0x497F0, symSize: 0x68 }
  - { offset: 0xB20B5, size: 0x8, addend: 0x0, symName: __RNvYINtNtCs5AlOhPCr03V_3syn10punctuated14PrivateIterMutNtNtB7_4item5FnArgNtNtB7_5token5CommaENtNtNtNtCsfvfooZQ3Axs_4core4iter6traits12double_ended19DoubleEndedIterator15advance_back_byB7_, symObjAddr: 0x18A4, symBinAddr: 0x49A6C, symSize: 0x134 }
  - { offset: 0xB2203, size: 0x8, addend: 0x0, symName: __RNvYINtNtCs5AlOhPCr03V_3syn10punctuated14PrivateIterMutNtNtB7_4item5FnArgNtNtB7_5token5CommaENtNtNtNtCsfvfooZQ3Axs_4core4iter6traits12double_ended19DoubleEndedIterator8nth_backB7_, symObjAddr: 0x19D8, symBinAddr: 0x49BA0, symSize: 0x68 }
  - { offset: 0xB2281, size: 0x8, addend: 0x0, symName: __RNvYINtNtCs5AlOhPCr03V_3syn10punctuated14PrivateIterMutNtNtB7_4path11PathSegmentNtNtB7_5token6Colon2ENtNtNtNtCsfvfooZQ3Axs_4core4iter6traits12double_ended19DoubleEndedIterator15advance_back_byB7_, symObjAddr: 0x1C54, symBinAddr: 0x49E1C, symSize: 0x134 }
  - { offset: 0xB23CF, size: 0x8, addend: 0x0, symName: __RNvYINtNtCs5AlOhPCr03V_3syn10punctuated14PrivateIterMutNtNtB7_4path11PathSegmentNtNtB7_5token6Colon2ENtNtNtNtCsfvfooZQ3Axs_4core4iter6traits12double_ended19DoubleEndedIterator8nth_backB7_, symObjAddr: 0x1D88, symBinAddr: 0x49F50, symSize: 0x68 }
  - { offset: 0xB4480, size: 0x8, addend: 0x0, symName: __RNvMNtCs5AlOhPCr03V_3syn10punctuatedINtB2_10PunctuatedNtNtB4_2ty4TypeNtNtB4_5token5CommaE3newB4_, symObjAddr: 0x258C, symBinAddr: 0x4A3A4, symSize: 0x54 }
  - { offset: 0xB44A6, size: 0x8, addend: 0x0, symName: __RNvMNtCs5AlOhPCr03V_3syn10punctuatedINtB2_10PunctuatedNtNtB4_2ty9BareFnArgNtNtB4_5token5CommaE3newB4_, symObjAddr: 0x25E0, symBinAddr: 0x4A3F8, symSize: 0x54 }
  - { offset: 0xB44CC, size: 0x8, addend: 0x0, symName: __RNvMNtCs5AlOhPCr03V_3syn10punctuatedINtB2_10PunctuatedNtNtB4_3pat3PatNtNtB4_5token2OrE3newB4_, symObjAddr: 0x2634, symBinAddr: 0x4A44C, symSize: 0x54 }
  - { offset: 0xB44F2, size: 0x8, addend: 0x0, symName: __RNvMNtCs5AlOhPCr03V_3syn10punctuatedINtB2_10PunctuatedNtNtB4_3pat3PatNtNtB4_5token5CommaE3newB4_, symObjAddr: 0x2688, symBinAddr: 0x4A4A0, symSize: 0x54 }
  - { offset: 0xB4518, size: 0x8, addend: 0x0, symName: __RNvMNtCs5AlOhPCr03V_3syn10punctuatedINtB2_10PunctuatedNtNtB4_3pat8FieldPatNtNtB4_5token5CommaE3newB4_, symObjAddr: 0x26DC, symBinAddr: 0x4A4F4, symSize: 0x54 }
  - { offset: 0xB453E, size: 0x8, addend: 0x0, symName: __RNvMNtCs5AlOhPCr03V_3syn10punctuatedINtB2_10PunctuatedNtNtB4_4attr10NestedMetaNtNtB4_5token5CommaE3newB4_, symObjAddr: 0x2730, symBinAddr: 0x4A548, symSize: 0x54 }
  - { offset: 0xB4564, size: 0x8, addend: 0x0, symName: __RNvMNtCs5AlOhPCr03V_3syn10punctuatedINtB2_10PunctuatedNtNtB4_4data5FieldNtNtB4_5token5CommaE3newB4_, symObjAddr: 0x2784, symBinAddr: 0x4A59C, symSize: 0x54 }
  - { offset: 0xB458A, size: 0x8, addend: 0x0, symName: __RNvMNtCs5AlOhPCr03V_3syn10punctuatedINtB2_10PunctuatedNtNtB4_4data7VariantNtNtB4_5token5CommaE3newB4_, symObjAddr: 0x282C, symBinAddr: 0x4A5F0, symSize: 0x54 }
  - { offset: 0xB45B0, size: 0x8, addend: 0x0, symName: __RNvMNtCs5AlOhPCr03V_3syn10punctuatedINtB2_10PunctuatedNtNtB4_4expr10FieldValueNtNtB4_5token5CommaE3newB4_, symObjAddr: 0x2880, symBinAddr: 0x4A644, symSize: 0x54 }
  - { offset: 0xB45D6, size: 0x8, addend: 0x0, symName: __RNvMNtCs5AlOhPCr03V_3syn10punctuatedINtB2_10PunctuatedNtNtB4_4expr21GenericMethodArgumentNtNtB4_5token5CommaE3newB4_, symObjAddr: 0x28D4, symBinAddr: 0x4A698, symSize: 0x54 }
  - { offset: 0xB45FC, size: 0x8, addend: 0x0, symName: __RNvMNtCs5AlOhPCr03V_3syn10punctuatedINtB2_10PunctuatedNtNtB4_4expr4ExprNtNtB4_5token5CommaE3newB4_, symObjAddr: 0x2928, symBinAddr: 0x4A6EC, symSize: 0x54 }
  - { offset: 0xB4622, size: 0x8, addend: 0x0, symName: __RNvMNtCs5AlOhPCr03V_3syn10punctuatedINtB2_10PunctuatedNtNtB4_4item5FnArgNtNtB4_5token5CommaE3newB4_, symObjAddr: 0x297C, symBinAddr: 0x4A740, symSize: 0x54 }
  - { offset: 0xB4648, size: 0x8, addend: 0x0, symName: __RNvMNtCs5AlOhPCr03V_3syn10punctuatedINtB2_10PunctuatedNtNtB4_4item7UseTreeNtNtB4_5token5CommaE3newB4_, symObjAddr: 0x29D0, symBinAddr: 0x4A794, symSize: 0x54 }
  - { offset: 0xB466E, size: 0x8, addend: 0x0, symName: __RNvMNtCs5AlOhPCr03V_3syn10punctuatedINtB2_10PunctuatedNtNtB4_4path11PathSegmentNtNtB4_5token6Colon2E3newB4_, symObjAddr: 0x2A24, symBinAddr: 0x4A7E8, symSize: 0x54 }
  - { offset: 0xB4694, size: 0x8, addend: 0x0, symName: __RNvMNtCs5AlOhPCr03V_3syn10punctuatedINtB2_10PunctuatedNtNtB4_4path15GenericArgumentNtNtB4_5token5CommaE3newB4_, symObjAddr: 0x2A78, symBinAddr: 0x4A83C, symSize: 0x54 }
  - { offset: 0xB46BA, size: 0x8, addend: 0x0, symName: __RNvMNtCs5AlOhPCr03V_3syn10punctuatedINtB2_10PunctuatedNtNtB4_8generics11LifetimeDefNtNtB4_5token5CommaE3newB4_, symObjAddr: 0x2ACC, symBinAddr: 0x4A890, symSize: 0x54 }
  - { offset: 0xB46E0, size: 0x8, addend: 0x0, symName: __RNvMNtCs5AlOhPCr03V_3syn10punctuatedINtB2_10PunctuatedNtNtB4_8generics12GenericParamNtNtB4_5token5CommaE3newB4_, symObjAddr: 0x2B20, symBinAddr: 0x4A8E4, symSize: 0x54 }
  - { offset: 0xB4706, size: 0x8, addend: 0x0, symName: __RNvMNtCs5AlOhPCr03V_3syn10punctuatedINtB2_10PunctuatedNtNtB4_8generics14TypeParamBoundNtNtB4_5token3AddE3newB4_, symObjAddr: 0x2B74, symBinAddr: 0x4A938, symSize: 0x54 }
  - { offset: 0xB472C, size: 0x8, addend: 0x0, symName: __RNvMNtCs5AlOhPCr03V_3syn10punctuatedINtB2_10PunctuatedNtNtB4_8generics14WherePredicateNtNtB4_5token5CommaE3newB4_, symObjAddr: 0x2BC8, symBinAddr: 0x4A98C, symSize: 0x54 }
  - { offset: 0xB4752, size: 0x8, addend: 0x0, symName: __RNvMNtCs5AlOhPCr03V_3syn10punctuatedINtB2_10PunctuatedNtNtB4_8lifetime8LifetimeNtNtB4_5token3AddE3newB4_, symObjAddr: 0x2C1C, symBinAddr: 0x4A9E0, symSize: 0x54 }
  - { offset: 0xB4792, size: 0x8, addend: 0x0, symName: __RNvMNtCs5AlOhPCr03V_3syn10punctuatedINtB2_10PunctuatedNtNtB4_4expr4ExprNtNtB4_5token5CommaE8is_emptyB4_, symObjAddr: 0x2CE4, symBinAddr: 0x4AA34, symSize: 0x74 }
  - { offset: 0xB47D3, size: 0x8, addend: 0x0, symName: __RNvMNtCs5AlOhPCr03V_3syn10punctuatedINtB2_10PunctuatedNtNtB4_4item5FnArgNtNtB4_5token5CommaE8is_emptyB4_, symObjAddr: 0x2D58, symBinAddr: 0x4AAA8, symSize: 0x74 }
  - { offset: 0xB4814, size: 0x8, addend: 0x0, symName: __RNvMNtCs5AlOhPCr03V_3syn10punctuatedINtB2_10PunctuatedNtNtB4_4path11PathSegmentNtNtB4_5token6Colon2E8is_emptyB4_, symObjAddr: 0x2DCC, symBinAddr: 0x4AB1C, symSize: 0x74 }
  - { offset: 0xB4855, size: 0x8, addend: 0x0, symName: __RNvMNtCs5AlOhPCr03V_3syn10punctuatedINtB2_10PunctuatedNtNtB4_4path15GenericArgumentNtNtB4_5token5CommaE8is_emptyB4_, symObjAddr: 0x2E40, symBinAddr: 0x4AB90, symSize: 0x74 }
  - { offset: 0xB4896, size: 0x8, addend: 0x0, symName: __RNvMNtCs5AlOhPCr03V_3syn10punctuatedINtB2_10PunctuatedNtNtB4_8generics12GenericParamNtNtB4_5token5CommaE8is_emptyB4_, symObjAddr: 0x2EB4, symBinAddr: 0x4AC04, symSize: 0x74 }
  - { offset: 0xB48D7, size: 0x8, addend: 0x0, symName: __RNvMNtCs5AlOhPCr03V_3syn10punctuatedINtB2_10PunctuatedNtNtB4_8generics14TypeParamBoundNtNtB4_5token3AddE8is_emptyB4_, symObjAddr: 0x2F28, symBinAddr: 0x4AC78, symSize: 0x74 }
  - { offset: 0xB4918, size: 0x8, addend: 0x0, symName: __RNvMNtCs5AlOhPCr03V_3syn10punctuatedINtB2_10PunctuatedNtNtB4_8generics14WherePredicateNtNtB4_5token5CommaE8is_emptyB4_, symObjAddr: 0x2F9C, symBinAddr: 0x4ACEC, symSize: 0x74 }
  - { offset: 0xB4959, size: 0x8, addend: 0x0, symName: __RNvMNtCs5AlOhPCr03V_3syn10punctuatedINtB2_10PunctuatedNtNtB4_8lifetime8LifetimeNtNtB4_5token3AddE8is_emptyB4_, symObjAddr: 0x3010, symBinAddr: 0x4AD60, symSize: 0x74 }
  - { offset: 0xB498D, size: 0x8, addend: 0x0, symName: __RNvMNtCs5AlOhPCr03V_3syn10punctuatedINtB2_10PunctuatedNtNtB4_4data5FieldNtNtB4_5token5CommaE3lenB4_, symObjAddr: 0x3084, symBinAddr: 0x4ADD4, symSize: 0xA0 }
  - { offset: 0xB49C1, size: 0x8, addend: 0x0, symName: __RNvMNtCs5AlOhPCr03V_3syn10punctuatedINtB2_10PunctuatedNtNtB4_4expr4ExprNtNtB4_5token5CommaE3lenB4_, symObjAddr: 0x31C4, symBinAddr: 0x4AE74, symSize: 0xA0 }
  - { offset: 0xB49F5, size: 0x8, addend: 0x0, symName: __RNvMNtCs5AlOhPCr03V_3syn10punctuatedINtB2_10PunctuatedNtNtB4_4path11PathSegmentNtNtB4_5token6Colon2E3lenB4_, symObjAddr: 0x3264, symBinAddr: 0x4AF14, symSize: 0xA0 }
  - { offset: 0xB4A29, size: 0x8, addend: 0x0, symName: __RNvMNtCs5AlOhPCr03V_3syn10punctuatedINtB2_10PunctuatedNtNtB4_8generics14TypeParamBoundNtNtB4_5token3AddE3lenB4_, symObjAddr: 0x3304, symBinAddr: 0x4AFB4, symSize: 0xA0 }
  - { offset: 0xB4A5D, size: 0x8, addend: 0x0, symName: __RNvMNtCs5AlOhPCr03V_3syn10punctuatedINtB2_10PunctuatedNtNtB4_4path11PathSegmentNtNtB4_5token6Colon2E4lastB4_, symObjAddr: 0x3428, symBinAddr: 0x4B054, symSize: 0x84 }
  - { offset: 0xB4A9E, size: 0x8, addend: 0x0, symName: __RNvMNtCs5AlOhPCr03V_3syn10punctuatedINtB2_10PunctuatedNtNtB4_4item5FnArgNtNtB4_5token5CommaE8last_mutB4_, symObjAddr: 0x34AC, symBinAddr: 0x4B0D8, symSize: 0x84 }
  - { offset: 0xB4ADF, size: 0x8, addend: 0x0, symName: __RNvMNtCs5AlOhPCr03V_3syn10punctuatedINtB2_10PunctuatedNtNtB4_4path11PathSegmentNtNtB4_5token6Colon2E8last_mutB4_, symObjAddr: 0x3530, symBinAddr: 0x4B15C, symSize: 0x84 }
  - { offset: 0xB4B68, size: 0x8, addend: 0x0, symName: __RNvMNtCs5AlOhPCr03V_3syn10punctuatedINtB2_10PunctuatedNtNtB4_4data5FieldNtNtB4_5token5CommaE4iterB4_, symObjAddr: 0x35B4, symBinAddr: 0x4B1E0, symSize: 0xC8 }
  - { offset: 0xB4C22, size: 0x8, addend: 0x0, symName: __RNvMNtCs5AlOhPCr03V_3syn10punctuatedINtB2_10PunctuatedNtNtB4_4path11PathSegmentNtNtB4_5token6Colon2E4iterB4_, symObjAddr: 0x3744, symBinAddr: 0x4B2A8, symSize: 0xC8 }
  - { offset: 0xB4CDC, size: 0x8, addend: 0x0, symName: __RNvMNtCs5AlOhPCr03V_3syn10punctuatedINtB2_10PunctuatedNtNtB4_8generics14TypeParamBoundNtNtB4_5token3AddE4iterB4_, symObjAddr: 0x38D4, symBinAddr: 0x4B370, symSize: 0xC8 }
  - { offset: 0xB4DBD, size: 0x8, addend: 0x0, symName: __RNvMNtCs5AlOhPCr03V_3syn10punctuatedINtB2_10PunctuatedNtNtB4_4item5FnArgNtNtB4_5token5CommaE8iter_mutB4_, symObjAddr: 0x3A64, symBinAddr: 0x4B438, symSize: 0xC8 }
  - { offset: 0xB4E49, size: 0x8, addend: 0x0, symName: __RNvMNtCs5AlOhPCr03V_3syn10punctuatedINtB2_10PunctuatedNtNtB4_4path11PathSegmentNtNtB4_5token6Colon2E8iter_mutB4_, symObjAddr: 0x3B2C, symBinAddr: 0x4B500, symSize: 0xC8 }
  - { offset: 0xB4F09, size: 0x8, addend: 0x0, symName: __RNvMNtCs5AlOhPCr03V_3syn10punctuatedINtB2_10PunctuatedNtNtB4_2ty4TypeNtNtB4_5token5CommaE5pairsB4_, symObjAddr: 0x3CBC, symBinAddr: 0x4B5C8, symSize: 0x74 }
  - { offset: 0xB4F71, size: 0x8, addend: 0x0, symName: __RNvMNtCs5AlOhPCr03V_3syn10punctuatedINtB2_10PunctuatedNtNtB4_2ty9BareFnArgNtNtB4_5token5CommaE5pairsB4_, symObjAddr: 0x3D30, symBinAddr: 0x4B63C, symSize: 0x74 }
  - { offset: 0xB4FD9, size: 0x8, addend: 0x0, symName: __RNvMNtCs5AlOhPCr03V_3syn10punctuatedINtB2_10PunctuatedNtNtB4_3pat3PatNtNtB4_5token2OrE5pairsB4_, symObjAddr: 0x3DA4, symBinAddr: 0x4B6B0, symSize: 0x74 }
  - { offset: 0xB5034, size: 0x8, addend: 0x0, symName: __RNvMNtCs5AlOhPCr03V_3syn10punctuatedINtB2_10PunctuatedNtNtB4_3pat3PatNtNtB4_5token5CommaE5pairsB4_, symObjAddr: 0x3E18, symBinAddr: 0x4B724, symSize: 0x74 }
  - { offset: 0xB509C, size: 0x8, addend: 0x0, symName: __RNvMNtCs5AlOhPCr03V_3syn10punctuatedINtB2_10PunctuatedNtNtB4_3pat8FieldPatNtNtB4_5token5CommaE5pairsB4_, symObjAddr: 0x3E8C, symBinAddr: 0x4B798, symSize: 0x74 }
  - { offset: 0xB5104, size: 0x8, addend: 0x0, symName: __RNvMNtCs5AlOhPCr03V_3syn10punctuatedINtB2_10PunctuatedNtNtB4_4data5FieldNtNtB4_5token5CommaE5pairsB4_, symObjAddr: 0x3F74, symBinAddr: 0x4B80C, symSize: 0x74 }
  - { offset: 0xB516C, size: 0x8, addend: 0x0, symName: __RNvMNtCs5AlOhPCr03V_3syn10punctuatedINtB2_10PunctuatedNtNtB4_4data7VariantNtNtB4_5token5CommaE5pairsB4_, symObjAddr: 0x3FE8, symBinAddr: 0x4B880, symSize: 0x74 }
  - { offset: 0xB51D4, size: 0x8, addend: 0x0, symName: __RNvMNtCs5AlOhPCr03V_3syn10punctuatedINtB2_10PunctuatedNtNtB4_4expr10FieldValueNtNtB4_5token5CommaE5pairsB4_, symObjAddr: 0x405C, symBinAddr: 0x4B8F4, symSize: 0x74 }
  - { offset: 0xB523C, size: 0x8, addend: 0x0, symName: __RNvMNtCs5AlOhPCr03V_3syn10punctuatedINtB2_10PunctuatedNtNtB4_4expr21GenericMethodArgumentNtNtB4_5token5CommaE5pairsB4_, symObjAddr: 0x40D0, symBinAddr: 0x4B968, symSize: 0x74 }
  - { offset: 0xB5297, size: 0x8, addend: 0x0, symName: __RNvMNtCs5AlOhPCr03V_3syn10punctuatedINtB2_10PunctuatedNtNtB4_4expr4ExprNtNtB4_5token5CommaE5pairsB4_, symObjAddr: 0x4144, symBinAddr: 0x4B9DC, symSize: 0x74 }
  - { offset: 0xB52CB, size: 0x8, addend: 0x0, symName: __RNvMNtCs5AlOhPCr03V_3syn10punctuatedINtB2_10PunctuatedNtNtB4_4item5FnArgNtNtB4_5token5CommaE5pairsB4_, symObjAddr: 0x41B8, symBinAddr: 0x4BA50, symSize: 0x74 }
  - { offset: 0xB5333, size: 0x8, addend: 0x0, symName: __RNvMNtCs5AlOhPCr03V_3syn10punctuatedINtB2_10PunctuatedNtNtB4_4item7UseTreeNtNtB4_5token5CommaE5pairsB4_, symObjAddr: 0x422C, symBinAddr: 0x4BAC4, symSize: 0x74 }
  - { offset: 0xB5367, size: 0x8, addend: 0x0, symName: __RNvMNtCs5AlOhPCr03V_3syn10punctuatedINtB2_10PunctuatedNtNtB4_4path11PathSegmentNtNtB4_5token6Colon2E5pairsB4_, symObjAddr: 0x42A0, symBinAddr: 0x4BB38, symSize: 0x74 }
  - { offset: 0xB53C2, size: 0x8, addend: 0x0, symName: __RNvMNtCs5AlOhPCr03V_3syn10punctuatedINtB2_10PunctuatedNtNtB4_4path15GenericArgumentNtNtB4_5token5CommaE5pairsB4_, symObjAddr: 0x4314, symBinAddr: 0x4BBAC, symSize: 0x74 }
  - { offset: 0xB542A, size: 0x8, addend: 0x0, symName: __RNvMNtCs5AlOhPCr03V_3syn10punctuatedINtB2_10PunctuatedNtNtB4_8generics11LifetimeDefNtNtB4_5token5CommaE5pairsB4_, symObjAddr: 0x4388, symBinAddr: 0x4BC20, symSize: 0x74 }
  - { offset: 0xB545E, size: 0x8, addend: 0x0, symName: __RNvMNtCs5AlOhPCr03V_3syn10punctuatedINtB2_10PunctuatedNtNtB4_8generics12GenericParamNtNtB4_5token5CommaE5pairsB4_, symObjAddr: 0x43FC, symBinAddr: 0x4BC94, symSize: 0x74 }
  - { offset: 0xB5492, size: 0x8, addend: 0x0, symName: __RNvMNtCs5AlOhPCr03V_3syn10punctuatedINtB2_10PunctuatedNtNtB4_8generics14TypeParamBoundNtNtB4_5token3AddE5pairsB4_, symObjAddr: 0x4470, symBinAddr: 0x4BD08, symSize: 0x74 }
  - { offset: 0xB54ED, size: 0x8, addend: 0x0, symName: __RNvMNtCs5AlOhPCr03V_3syn10punctuatedINtB2_10PunctuatedNtNtB4_8generics14WherePredicateNtNtB4_5token5CommaE5pairsB4_, symObjAddr: 0x44E4, symBinAddr: 0x4BD7C, symSize: 0x74 }
  - { offset: 0xB5548, size: 0x8, addend: 0x0, symName: __RNvMNtCs5AlOhPCr03V_3syn10punctuatedINtB2_10PunctuatedNtNtB4_8lifetime8LifetimeNtNtB4_5token3AddE5pairsB4_, symObjAddr: 0x4558, symBinAddr: 0x4BDF0, symSize: 0x74 }
  - { offset: 0xB557C, size: 0x8, addend: 0x0, symName: __RNvMNtCs5AlOhPCr03V_3syn10punctuatedINtB2_10PunctuatedNtNtB4_4path11PathSegmentNtNtB4_5token6Colon2E9pairs_mutB4_, symObjAddr: 0x45CC, symBinAddr: 0x4BE64, symSize: 0x74 }
  - { offset: 0xB55B0, size: 0x8, addend: 0x0, symName: __RNvMNtCs5AlOhPCr03V_3syn10punctuatedINtB2_10PunctuatedNtNtB4_4path11PathSegmentNtNtB4_5token6Colon2E10into_pairsB4_, symObjAddr: 0x4640, symBinAddr: 0x4BED8, symSize: 0x108 }
  - { offset: 0xB55F2, size: 0x8, addend: 0x0, symName: __RNvMNtCs5AlOhPCr03V_3syn10punctuatedINtB2_10PunctuatedNtNtB4_2ty4TypeNtNtB4_5token5CommaE10push_valueB4_, symObjAddr: 0x47E0, symBinAddr: 0x4C078, symSize: 0x1AC }
  - { offset: 0xB5660, size: 0x8, addend: 0x0, symName: __RNvMNtCs5AlOhPCr03V_3syn10punctuatedINtB2_10PunctuatedNtNtB4_2ty9BareFnArgNtNtB4_5token5CommaE10push_valueB4_, symObjAddr: 0x498C, symBinAddr: 0x4C224, symSize: 0x1AC }
  - { offset: 0xB56CE, size: 0x8, addend: 0x0, symName: __RNvMNtCs5AlOhPCr03V_3syn10punctuatedINtB2_10PunctuatedNtNtB4_3pat3PatNtNtB4_5token2OrE10push_valueB4_, symObjAddr: 0x4B38, symBinAddr: 0x4C3D0, symSize: 0x1AC }
  - { offset: 0xB573C, size: 0x8, addend: 0x0, symName: __RNvMNtCs5AlOhPCr03V_3syn10punctuatedINtB2_10PunctuatedNtNtB4_3pat3PatNtNtB4_5token5CommaE10push_valueB4_, symObjAddr: 0x4CE4, symBinAddr: 0x4C57C, symSize: 0x1AC }
  - { offset: 0xB57AA, size: 0x8, addend: 0x0, symName: __RNvMNtCs5AlOhPCr03V_3syn10punctuatedINtB2_10PunctuatedNtNtB4_3pat8FieldPatNtNtB4_5token5CommaE10push_valueB4_, symObjAddr: 0x4E90, symBinAddr: 0x4C728, symSize: 0x1A4 }
  - { offset: 0xB5818, size: 0x8, addend: 0x0, symName: __RNvMNtCs5AlOhPCr03V_3syn10punctuatedINtB2_10PunctuatedNtNtB4_4attr10NestedMetaNtNtB4_5token5CommaE10push_valueB4_, symObjAddr: 0x5034, symBinAddr: 0x4C8CC, symSize: 0x1A4 }
  - { offset: 0xB5879, size: 0x8, addend: 0x0, symName: __RNvMNtCs5AlOhPCr03V_3syn10punctuatedINtB2_10PunctuatedNtNtB4_4data5FieldNtNtB4_5token5CommaE10push_valueB4_, symObjAddr: 0x51D8, symBinAddr: 0x4CA70, symSize: 0x1AC }
  - { offset: 0xB58E7, size: 0x8, addend: 0x0, symName: __RNvMNtCs5AlOhPCr03V_3syn10punctuatedINtB2_10PunctuatedNtNtB4_4data7VariantNtNtB4_5token5CommaE10push_valueB4_, symObjAddr: 0x5384, symBinAddr: 0x4CC1C, symSize: 0x1AC }
  - { offset: 0xB5955, size: 0x8, addend: 0x0, symName: __RNvMNtCs5AlOhPCr03V_3syn10punctuatedINtB2_10PunctuatedNtNtB4_4expr10FieldValueNtNtB4_5token5CommaE10push_valueB4_, symObjAddr: 0x5530, symBinAddr: 0x4CDC8, symSize: 0x1AC }
  - { offset: 0xB59C3, size: 0x8, addend: 0x0, symName: __RNvMNtCs5AlOhPCr03V_3syn10punctuatedINtB2_10PunctuatedNtNtB4_4expr21GenericMethodArgumentNtNtB4_5token5CommaE10push_valueB4_, symObjAddr: 0x56DC, symBinAddr: 0x4CF74, symSize: 0x1AC }
  - { offset: 0xB5A31, size: 0x8, addend: 0x0, symName: __RNvMNtCs5AlOhPCr03V_3syn10punctuatedINtB2_10PunctuatedNtNtB4_4expr4ExprNtNtB4_5token5CommaE10push_valueB4_, symObjAddr: 0x5888, symBinAddr: 0x4D120, symSize: 0x1AC }
  - { offset: 0xB5A92, size: 0x8, addend: 0x0, symName: __RNvMNtCs5AlOhPCr03V_3syn10punctuatedINtB2_10PunctuatedNtNtB4_4item5FnArgNtNtB4_5token5CommaE10push_valueB4_, symObjAddr: 0x5A34, symBinAddr: 0x4D2CC, symSize: 0x1A4 }
  - { offset: 0xB5B00, size: 0x8, addend: 0x0, symName: __RNvMNtCs5AlOhPCr03V_3syn10punctuatedINtB2_10PunctuatedNtNtB4_4item7UseTreeNtNtB4_5token5CommaE10push_valueB4_, symObjAddr: 0x5BD8, symBinAddr: 0x4D470, symSize: 0x1A4 }
  - { offset: 0xB5B61, size: 0x8, addend: 0x0, symName: __RNvMNtCs5AlOhPCr03V_3syn10punctuatedINtB2_10PunctuatedNtNtB4_4path11PathSegmentNtNtB4_5token6Colon2E10push_valueB4_, symObjAddr: 0x5D7C, symBinAddr: 0x4D614, symSize: 0x1A4 }
  - { offset: 0xB5BCF, size: 0x8, addend: 0x0, symName: __RNvMNtCs5AlOhPCr03V_3syn10punctuatedINtB2_10PunctuatedNtNtB4_4path15GenericArgumentNtNtB4_5token5CommaE10push_valueB4_, symObjAddr: 0x5F20, symBinAddr: 0x4D7B8, symSize: 0x1AC }
  - { offset: 0xB5C3D, size: 0x8, addend: 0x0, symName: __RNvMNtCs5AlOhPCr03V_3syn10punctuatedINtB2_10PunctuatedNtNtB4_8generics11LifetimeDefNtNtB4_5token5CommaE10push_valueB4_, symObjAddr: 0x60CC, symBinAddr: 0x4D964, symSize: 0x1A4 }
  - { offset: 0xB5C9E, size: 0x8, addend: 0x0, symName: __RNvMNtCs5AlOhPCr03V_3syn10punctuatedINtB2_10PunctuatedNtNtB4_8generics12GenericParamNtNtB4_5token5CommaE10push_valueB4_, symObjAddr: 0x6270, symBinAddr: 0x4DB08, symSize: 0x1AC }
  - { offset: 0xB5D0C, size: 0x8, addend: 0x0, symName: __RNvMNtCs5AlOhPCr03V_3syn10punctuatedINtB2_10PunctuatedNtNtB4_8generics14TypeParamBoundNtNtB4_5token3AddE10push_valueB4_, symObjAddr: 0x641C, symBinAddr: 0x4DCB4, symSize: 0x1AC }
  - { offset: 0xB5D7A, size: 0x8, addend: 0x0, symName: __RNvMNtCs5AlOhPCr03V_3syn10punctuatedINtB2_10PunctuatedNtNtB4_8generics14WherePredicateNtNtB4_5token5CommaE10push_valueB4_, symObjAddr: 0x65C8, symBinAddr: 0x4DE60, symSize: 0x1AC }
  - { offset: 0xB5DE8, size: 0x8, addend: 0x0, symName: __RNvMNtCs5AlOhPCr03V_3syn10punctuatedINtB2_10PunctuatedNtNtB4_8lifetime8LifetimeNtNtB4_5token3AddE10push_valueB4_, symObjAddr: 0x6774, symBinAddr: 0x4E00C, symSize: 0x19C }
  - { offset: 0xB5E9F, size: 0x8, addend: 0x0, symName: __RNvMNtCs5AlOhPCr03V_3syn10punctuatedINtB2_10PunctuatedNtNtB4_2ty4TypeNtNtB4_5token5CommaE10push_punctB4_, symObjAddr: 0x6910, symBinAddr: 0x4E1A8, symSize: 0x1F8 }
  - { offset: 0xB5F48, size: 0x8, addend: 0x0, symName: __RNvMNtCs5AlOhPCr03V_3syn10punctuatedINtB2_10PunctuatedNtNtB4_2ty9BareFnArgNtNtB4_5token5CommaE10push_punctB4_, symObjAddr: 0x6B08, symBinAddr: 0x4E3A0, symSize: 0x1F8 }
  - { offset: 0xB5FF1, size: 0x8, addend: 0x0, symName: __RNvMNtCs5AlOhPCr03V_3syn10punctuatedINtB2_10PunctuatedNtNtB4_3pat3PatNtNtB4_5token2OrE10push_punctB4_, symObjAddr: 0x6D00, symBinAddr: 0x4E598, symSize: 0x1F8 }
  - { offset: 0xB606F, size: 0x8, addend: 0x0, symName: __RNvMNtCs5AlOhPCr03V_3syn10punctuatedINtB2_10PunctuatedNtNtB4_3pat3PatNtNtB4_5token5CommaE10push_punctB4_, symObjAddr: 0x6EF8, symBinAddr: 0x4E790, symSize: 0x1F8 }
  - { offset: 0xB6118, size: 0x8, addend: 0x0, symName: __RNvMNtCs5AlOhPCr03V_3syn10punctuatedINtB2_10PunctuatedNtNtB4_3pat8FieldPatNtNtB4_5token5CommaE10push_punctB4_, symObjAddr: 0x70F0, symBinAddr: 0x4E988, symSize: 0x1F8 }
  - { offset: 0xB61C1, size: 0x8, addend: 0x0, symName: __RNvMNtCs5AlOhPCr03V_3syn10punctuatedINtB2_10PunctuatedNtNtB4_4attr10NestedMetaNtNtB4_5token5CommaE10push_punctB4_, symObjAddr: 0x72E8, symBinAddr: 0x4EB80, symSize: 0x1F8 }
  - { offset: 0xB626A, size: 0x8, addend: 0x0, symName: __RNvMNtCs5AlOhPCr03V_3syn10punctuatedINtB2_10PunctuatedNtNtB4_4data5FieldNtNtB4_5token5CommaE10push_punctB4_, symObjAddr: 0x74E0, symBinAddr: 0x4ED78, symSize: 0x1F8 }
  - { offset: 0xB6313, size: 0x8, addend: 0x0, symName: __RNvMNtCs5AlOhPCr03V_3syn10punctuatedINtB2_10PunctuatedNtNtB4_4data7VariantNtNtB4_5token5CommaE10push_punctB4_, symObjAddr: 0x76D8, symBinAddr: 0x4EF70, symSize: 0x1F8 }
  - { offset: 0xB63BC, size: 0x8, addend: 0x0, symName: __RNvMNtCs5AlOhPCr03V_3syn10punctuatedINtB2_10PunctuatedNtNtB4_4expr10FieldValueNtNtB4_5token5CommaE10push_punctB4_, symObjAddr: 0x78D0, symBinAddr: 0x4F168, symSize: 0x1F8 }
  - { offset: 0xB6465, size: 0x8, addend: 0x0, symName: __RNvMNtCs5AlOhPCr03V_3syn10punctuatedINtB2_10PunctuatedNtNtB4_4expr21GenericMethodArgumentNtNtB4_5token5CommaE10push_punctB4_, symObjAddr: 0x7AC8, symBinAddr: 0x4F360, symSize: 0x1F8 }
  - { offset: 0xB650E, size: 0x8, addend: 0x0, symName: __RNvMNtCs5AlOhPCr03V_3syn10punctuatedINtB2_10PunctuatedNtNtB4_4expr4ExprNtNtB4_5token5CommaE10push_punctB4_, symObjAddr: 0x7CC0, symBinAddr: 0x4F558, symSize: 0x1F8 }
  - { offset: 0xB65B7, size: 0x8, addend: 0x0, symName: __RNvMNtCs5AlOhPCr03V_3syn10punctuatedINtB2_10PunctuatedNtNtB4_4item5FnArgNtNtB4_5token5CommaE10push_punctB4_, symObjAddr: 0x7EB8, symBinAddr: 0x4F750, symSize: 0x1F8 }
  - { offset: 0xB6660, size: 0x8, addend: 0x0, symName: __RNvMNtCs5AlOhPCr03V_3syn10punctuatedINtB2_10PunctuatedNtNtB4_4item7UseTreeNtNtB4_5token5CommaE10push_punctB4_, symObjAddr: 0x80B0, symBinAddr: 0x4F948, symSize: 0x1F8 }
  - { offset: 0xB6709, size: 0x8, addend: 0x0, symName: __RNvMNtCs5AlOhPCr03V_3syn10punctuatedINtB2_10PunctuatedNtNtB4_4path11PathSegmentNtNtB4_5token6Colon2E10push_punctB4_, symObjAddr: 0x82A8, symBinAddr: 0x4FB40, symSize: 0x1F8 }
  - { offset: 0xB67B2, size: 0x8, addend: 0x0, symName: __RNvMNtCs5AlOhPCr03V_3syn10punctuatedINtB2_10PunctuatedNtNtB4_4path15GenericArgumentNtNtB4_5token5CommaE10push_punctB4_, symObjAddr: 0x84A0, symBinAddr: 0x4FD38, symSize: 0x1F8 }
  - { offset: 0xB685B, size: 0x8, addend: 0x0, symName: __RNvMNtCs5AlOhPCr03V_3syn10punctuatedINtB2_10PunctuatedNtNtB4_8generics11LifetimeDefNtNtB4_5token5CommaE10push_punctB4_, symObjAddr: 0x8698, symBinAddr: 0x4FF30, symSize: 0x1F8 }
  - { offset: 0xB6904, size: 0x8, addend: 0x0, symName: __RNvMNtCs5AlOhPCr03V_3syn10punctuatedINtB2_10PunctuatedNtNtB4_8generics12GenericParamNtNtB4_5token5CommaE10push_punctB4_, symObjAddr: 0x8890, symBinAddr: 0x50128, symSize: 0x1FC }
  - { offset: 0xB69AD, size: 0x8, addend: 0x0, symName: __RNvMNtCs5AlOhPCr03V_3syn10punctuatedINtB2_10PunctuatedNtNtB4_8generics14TypeParamBoundNtNtB4_5token3AddE10push_punctB4_, symObjAddr: 0x8A8C, symBinAddr: 0x50324, symSize: 0x1F8 }
  - { offset: 0xB6A56, size: 0x8, addend: 0x0, symName: __RNvMNtCs5AlOhPCr03V_3syn10punctuatedINtB2_10PunctuatedNtNtB4_8generics14WherePredicateNtNtB4_5token5CommaE10push_punctB4_, symObjAddr: 0x8C84, symBinAddr: 0x5051C, symSize: 0x1FC }
  - { offset: 0xB6AFF, size: 0x8, addend: 0x0, symName: __RNvMNtCs5AlOhPCr03V_3syn10punctuatedINtB2_10PunctuatedNtNtB4_8lifetime8LifetimeNtNtB4_5token3AddE10push_punctB4_, symObjAddr: 0x8E80, symBinAddr: 0x50718, symSize: 0x1E8 }
  - { offset: 0xB6B7B, size: 0x8, addend: 0x0, symName: __RNvMNtCs5AlOhPCr03V_3syn10punctuatedINtB2_10PunctuatedNtNtB4_4item5FnArgNtNtB4_5token5CommaE3popB4_, symObjAddr: 0x9068, symBinAddr: 0x50900, symSize: 0x90 }
  - { offset: 0xB6BAF, size: 0x8, addend: 0x0, symName: __RNvMNtCs5AlOhPCr03V_3syn10punctuatedINtB2_10PunctuatedNtNtB4_4expr4ExprNtNtB4_5token5CommaE14trailing_punctB4_, symObjAddr: 0x922C, symBinAddr: 0x50AC4, symSize: 0x80 }
  - { offset: 0xB6BE3, size: 0x8, addend: 0x0, symName: __RNvMNtCs5AlOhPCr03V_3syn10punctuatedINtB2_10PunctuatedNtNtB4_4item5FnArgNtNtB4_5token5CommaE14trailing_punctB4_, symObjAddr: 0x92AC, symBinAddr: 0x50B44, symSize: 0x80 }
  - { offset: 0xB6C17, size: 0x8, addend: 0x0, symName: __RNvMNtCs5AlOhPCr03V_3syn10punctuatedINtB2_10PunctuatedNtNtB4_4path11PathSegmentNtNtB4_5token6Colon2E14trailing_punctB4_, symObjAddr: 0x932C, symBinAddr: 0x50BC4, symSize: 0x80 }
  - { offset: 0xB6C4B, size: 0x8, addend: 0x0, symName: __RNvMNtCs5AlOhPCr03V_3syn10punctuatedINtB2_10PunctuatedNtNtB4_8generics14TypeParamBoundNtNtB4_5token3AddE14trailing_punctB4_, symObjAddr: 0x93AC, symBinAddr: 0x50C44, symSize: 0x80 }
  - { offset: 0xB6C7F, size: 0x8, addend: 0x0, symName: __RNvMNtCs5AlOhPCr03V_3syn10punctuatedINtB2_10PunctuatedNtNtB4_2ty4TypeNtNtB4_5token5CommaE17empty_or_trailingB4_, symObjAddr: 0x942C, symBinAddr: 0x50CC4, symSize: 0x34 }
  - { offset: 0xB6CB3, size: 0x8, addend: 0x0, symName: __RNvMNtCs5AlOhPCr03V_3syn10punctuatedINtB2_10PunctuatedNtNtB4_2ty9BareFnArgNtNtB4_5token5CommaE17empty_or_trailingB4_, symObjAddr: 0x9460, symBinAddr: 0x50CF8, symSize: 0x34 }
  - { offset: 0xB6CE7, size: 0x8, addend: 0x0, symName: __RNvMNtCs5AlOhPCr03V_3syn10punctuatedINtB2_10PunctuatedNtNtB4_3pat3PatNtNtB4_5token2OrE17empty_or_trailingB4_, symObjAddr: 0x9494, symBinAddr: 0x50D2C, symSize: 0x34 }
  - { offset: 0xB6D1B, size: 0x8, addend: 0x0, symName: __RNvMNtCs5AlOhPCr03V_3syn10punctuatedINtB2_10PunctuatedNtNtB4_3pat3PatNtNtB4_5token5CommaE17empty_or_trailingB4_, symObjAddr: 0x94C8, symBinAddr: 0x50D60, symSize: 0x34 }
  - { offset: 0xB6D4F, size: 0x8, addend: 0x0, symName: __RNvMNtCs5AlOhPCr03V_3syn10punctuatedINtB2_10PunctuatedNtNtB4_3pat8FieldPatNtNtB4_5token5CommaE17empty_or_trailingB4_, symObjAddr: 0x94FC, symBinAddr: 0x50D94, symSize: 0x34 }
  - { offset: 0xB6D83, size: 0x8, addend: 0x0, symName: __RNvMNtCs5AlOhPCr03V_3syn10punctuatedINtB2_10PunctuatedNtNtB4_4attr10NestedMetaNtNtB4_5token5CommaE17empty_or_trailingB4_, symObjAddr: 0x9530, symBinAddr: 0x50DC8, symSize: 0x34 }
  - { offset: 0xB6DB7, size: 0x8, addend: 0x0, symName: __RNvMNtCs5AlOhPCr03V_3syn10punctuatedINtB2_10PunctuatedNtNtB4_4data5FieldNtNtB4_5token5CommaE17empty_or_trailingB4_, symObjAddr: 0x9564, symBinAddr: 0x50DFC, symSize: 0x34 }
  - { offset: 0xB6DEB, size: 0x8, addend: 0x0, symName: __RNvMNtCs5AlOhPCr03V_3syn10punctuatedINtB2_10PunctuatedNtNtB4_4data7VariantNtNtB4_5token5CommaE17empty_or_trailingB4_, symObjAddr: 0x9598, symBinAddr: 0x50E30, symSize: 0x34 }
  - { offset: 0xB6E1F, size: 0x8, addend: 0x0, symName: __RNvMNtCs5AlOhPCr03V_3syn10punctuatedINtB2_10PunctuatedNtNtB4_4expr10FieldValueNtNtB4_5token5CommaE17empty_or_trailingB4_, symObjAddr: 0x95CC, symBinAddr: 0x50E64, symSize: 0x34 }
  - { offset: 0xB6E53, size: 0x8, addend: 0x0, symName: __RNvMNtCs5AlOhPCr03V_3syn10punctuatedINtB2_10PunctuatedNtNtB4_4expr21GenericMethodArgumentNtNtB4_5token5CommaE17empty_or_trailingB4_, symObjAddr: 0x9600, symBinAddr: 0x50E98, symSize: 0x34 }
  - { offset: 0xB6E87, size: 0x8, addend: 0x0, symName: __RNvMNtCs5AlOhPCr03V_3syn10punctuatedINtB2_10PunctuatedNtNtB4_4expr4ExprNtNtB4_5token5CommaE17empty_or_trailingB4_, symObjAddr: 0x9634, symBinAddr: 0x50ECC, symSize: 0x34 }
  - { offset: 0xB6EBB, size: 0x8, addend: 0x0, symName: __RNvMNtCs5AlOhPCr03V_3syn10punctuatedINtB2_10PunctuatedNtNtB4_4item5FnArgNtNtB4_5token5CommaE17empty_or_trailingB4_, symObjAddr: 0x9668, symBinAddr: 0x50F00, symSize: 0x34 }
  - { offset: 0xB6EEF, size: 0x8, addend: 0x0, symName: __RNvMNtCs5AlOhPCr03V_3syn10punctuatedINtB2_10PunctuatedNtNtB4_4item7UseTreeNtNtB4_5token5CommaE17empty_or_trailingB4_, symObjAddr: 0x969C, symBinAddr: 0x50F34, symSize: 0x34 }
  - { offset: 0xB6F23, size: 0x8, addend: 0x0, symName: __RNvMNtCs5AlOhPCr03V_3syn10punctuatedINtB2_10PunctuatedNtNtB4_4path11PathSegmentNtNtB4_5token6Colon2E17empty_or_trailingB4_, symObjAddr: 0x96D0, symBinAddr: 0x50F68, symSize: 0x34 }
  - { offset: 0xB6F57, size: 0x8, addend: 0x0, symName: __RNvMNtCs5AlOhPCr03V_3syn10punctuatedINtB2_10PunctuatedNtNtB4_4path15GenericArgumentNtNtB4_5token5CommaE17empty_or_trailingB4_, symObjAddr: 0x9704, symBinAddr: 0x50F9C, symSize: 0x34 }
  - { offset: 0xB6F8B, size: 0x8, addend: 0x0, symName: __RNvMNtCs5AlOhPCr03V_3syn10punctuatedINtB2_10PunctuatedNtNtB4_8generics11LifetimeDefNtNtB4_5token5CommaE17empty_or_trailingB4_, symObjAddr: 0x9738, symBinAddr: 0x50FD0, symSize: 0x34 }
  - { offset: 0xB6FBF, size: 0x8, addend: 0x0, symName: __RNvMNtCs5AlOhPCr03V_3syn10punctuatedINtB2_10PunctuatedNtNtB4_8generics12GenericParamNtNtB4_5token5CommaE17empty_or_trailingB4_, symObjAddr: 0x976C, symBinAddr: 0x51004, symSize: 0x34 }
  - { offset: 0xB6FF3, size: 0x8, addend: 0x0, symName: __RNvMNtCs5AlOhPCr03V_3syn10punctuatedINtB2_10PunctuatedNtNtB4_8generics14TypeParamBoundNtNtB4_5token3AddE17empty_or_trailingB4_, symObjAddr: 0x97A0, symBinAddr: 0x51038, symSize: 0x34 }
  - { offset: 0xB7027, size: 0x8, addend: 0x0, symName: __RNvMNtCs5AlOhPCr03V_3syn10punctuatedINtB2_10PunctuatedNtNtB4_8generics14WherePredicateNtNtB4_5token5CommaE17empty_or_trailingB4_, symObjAddr: 0x97D4, symBinAddr: 0x5106C, symSize: 0x34 }
  - { offset: 0xB705B, size: 0x8, addend: 0x0, symName: __RNvMNtCs5AlOhPCr03V_3syn10punctuatedINtB2_10PunctuatedNtNtB4_8lifetime8LifetimeNtNtB4_5token3AddE17empty_or_trailingB4_, symObjAddr: 0x9808, symBinAddr: 0x510A0, symSize: 0x34 }
  - { offset: 0xB708F, size: 0x8, addend: 0x0, symName: __RNvMNtCs5AlOhPCr03V_3syn10punctuatedINtB2_10PunctuatedNtNtB4_4expr10FieldValueNtNtB4_5token5CommaE4pushB4_, symObjAddr: 0x983C, symBinAddr: 0x510D4, symSize: 0x124 }
  - { offset: 0xB70D2, size: 0x8, addend: 0x0, symName: __RNvMNtCs5AlOhPCr03V_3syn10punctuatedINtB2_10PunctuatedNtNtB4_4path11PathSegmentNtNtB4_5token6Colon2E4pushB4_, symObjAddr: 0x9960, symBinAddr: 0x511F8, symSize: 0x10C }
  - { offset: 0xB7115, size: 0x8, addend: 0x0, symName: __RNvMNtCs5AlOhPCr03V_3syn10punctuatedINtB2_10PunctuatedNtNtB4_4path11PathSegmentNtNtB4_5token6Colon2E6insertB4_, symObjAddr: 0x9A6C, symBinAddr: 0x51304, symSize: 0x1D8 }
  - { offset: 0xB7166, size: 0x8, addend: 0x0, symName: __RNvMNtCs5AlOhPCr03V_3syn10punctuatedINtB2_10PunctuatedNtNtB4_8generics14TypeParamBoundNtNtB4_5token3AddE5clearB4_, symObjAddr: 0x9C44, symBinAddr: 0x514DC, symSize: 0x7C }
  - { offset: 0xB720E, size: 0x8, addend: 0x0, symName: __RNvMNtCs5AlOhPCr03V_3syn10punctuatedINtB2_10PunctuatedNtNtB4_2ty4TypeNtNtB4_5token5CommaE21parse_terminated_withB4_, symObjAddr: 0x9CC0, symBinAddr: 0x51558, symSize: 0x378 }
  - { offset: 0xB732B, size: 0x8, addend: 0x0, symName: __RNvMNtCs5AlOhPCr03V_3syn10punctuatedINtB2_10PunctuatedNtNtB4_4attr10NestedMetaNtNtB4_5token5CommaE21parse_terminated_withB4_, symObjAddr: 0xA038, symBinAddr: 0x518D0, symSize: 0x374 }
  - { offset: 0xB7448, size: 0x8, addend: 0x0, symName: __RNvMNtCs5AlOhPCr03V_3syn10punctuatedINtB2_10PunctuatedNtNtB4_4data5FieldNtNtB4_5token5CommaE21parse_terminated_withB4_, symObjAddr: 0xA3AC, symBinAddr: 0x51C44, symSize: 0x374 }
  - { offset: 0xB7565, size: 0x8, addend: 0x0, symName: __RNvMNtCs5AlOhPCr03V_3syn10punctuatedINtB2_10PunctuatedNtNtB4_4data7VariantNtNtB4_5token5CommaE21parse_terminated_withB4_, symObjAddr: 0xA720, symBinAddr: 0x51FB8, symSize: 0x35C }
  - { offset: 0xB7682, size: 0x8, addend: 0x0, symName: __RNvMNtCs5AlOhPCr03V_3syn10punctuatedINtB2_10PunctuatedNtNtB4_4expr4ExprNtNtB4_5token5CommaE21parse_terminated_withB4_, symObjAddr: 0xAA7C, symBinAddr: 0x52314, symSize: 0x378 }
  - { offset: 0xB779F, size: 0x8, addend: 0x0, symName: __RNvMNtCs5AlOhPCr03V_3syn10punctuatedINtB2_10PunctuatedNtNtB4_4item7UseTreeNtNtB4_5token5CommaE21parse_terminated_withB4_, symObjAddr: 0xADF4, symBinAddr: 0x5268C, symSize: 0x368 }
  - { offset: 0xB7919, size: 0x8, addend: 0x0, symName: __RNvMsJ_NtCs5AlOhPCr03V_3syn10punctuatedINtB5_4PairRNtNtB7_4item5FnArgRNtNtB7_5token5CommaE5valueB7_, symObjAddr: 0x12288, symBinAddr: 0x56594, symSize: 0x74 }
  - { offset: 0xB7986, size: 0x8, addend: 0x0, symName: __RNvMsJ_NtCs5AlOhPCr03V_3syn10punctuatedINtB5_4PairRNtNtB7_4path11PathSegmentRNtNtB7_5token6Colon2E5valueB7_, symObjAddr: 0x122FC, symBinAddr: 0x56608, symSize: 0x74 }
  - { offset: 0xB79F3, size: 0x8, addend: 0x0, symName: __RNvMsJ_NtCs5AlOhPCr03V_3syn10punctuatedINtB5_4PairRNtNtB7_4path15GenericArgumentRNtNtB7_5token5CommaE5valueB7_, symObjAddr: 0x12370, symBinAddr: 0x5667C, symSize: 0x74 }
  - { offset: 0xB7A60, size: 0x8, addend: 0x0, symName: __RNvMsJ_NtCs5AlOhPCr03V_3syn10punctuatedINtB5_4PairRNtNtB7_8generics12GenericParamRNtNtB7_5token5CommaE5valueB7_, symObjAddr: 0x123E4, symBinAddr: 0x566F0, symSize: 0x74 }
  - { offset: 0xB7AC0, size: 0x8, addend: 0x0, symName: __RNvMsJ_NtCs5AlOhPCr03V_3syn10punctuatedINtB5_4PairRNtNtB7_4item5FnArgRNtNtB7_5token5CommaE5punctB7_, symObjAddr: 0x12458, symBinAddr: 0x56764, symSize: 0x78 }
  - { offset: 0xB7B20, size: 0x8, addend: 0x0, symName: __RNvMsJ_NtCs5AlOhPCr03V_3syn10punctuatedINtB5_4PairRNtNtB7_4path11PathSegmentRNtNtB7_5token6Colon2E5punctB7_, symObjAddr: 0x124D0, symBinAddr: 0x567DC, symSize: 0x78 }
  - { offset: 0xB7B73, size: 0x8, addend: 0x0, symName: __RNvMsJ_NtCs5AlOhPCr03V_3syn10punctuatedINtB5_4PairRNtNtB7_4path15GenericArgumentRNtNtB7_5token5CommaE5punctB7_, symObjAddr: 0x12548, symBinAddr: 0x56854, symSize: 0x78 }
  - { offset: 0xB7BC6, size: 0x8, addend: 0x0, symName: __RNvMsJ_NtCs5AlOhPCr03V_3syn10punctuatedINtB5_4PairRNtNtB7_8generics12GenericParamRNtNtB7_5token5CommaE5punctB7_, symObjAddr: 0x125C0, symBinAddr: 0x568CC, symSize: 0x78 }
  - { offset: 0xB7C44, size: 0x8, addend: 0x0, symName: __RNvMsJ_NtCs5AlOhPCr03V_3syn10punctuatedINtB5_4PairQNtNtB7_4path11PathSegmentQNtNtB7_5token6Colon2E10into_tupleB7_, symObjAddr: 0x12638, symBinAddr: 0x56944, symSize: 0x9C }
  - { offset: 0xB93F3, size: 0x8, addend: 0x0, symName: __RNvXss_NtCse1nGBsou5OW_5alloc6stringNtB5_6StringNtNtNtCsfvfooZQ3Axs_4core3ops5deref5Deref5derefCs5AlOhPCr03V_3syn, symObjAddr: 0x14950, symBinAddr: 0x6ADAC, symSize: 0x24 }
  - { offset: 0xB946C, size: 0x8, addend: 0x0, symName: __RNvXs1J_NtCse1nGBsou5OW_5alloc6stringReNtB6_12SpecToString14spec_to_stringCs5AlOhPCr03V_3syn, symObjAddr: 0x686C, symBinAddr: 0x5DF88, symSize: 0x5C }
  - { offset: 0xB959D, size: 0x8, addend: 0x0, symName: __RNvXs1j_NtCse1nGBsou5OW_5alloc6stringNtB6_13FromUtf8ErrorNtNtCsfvfooZQ3Axs_4core3fmt5Debug3fmtCs5AlOhPCr03V_3syn, symObjAddr: 0x6924, symBinAddr: 0x5DFE4, symSize: 0x88 }
  - { offset: 0xB961A, size: 0x8, addend: 0x0, symName: __RNvXs1q_NtCse1nGBsou5OW_5alloc6stringNtB6_6StringINtNtCsfvfooZQ3Axs_4core3cmp9PartialEqReE2eqCs5AlOhPCr03V_3syn, symObjAddr: 0x69AC, symBinAddr: 0x5E06C, symSize: 0xC8 }
  - { offset: 0xB985C, size: 0x8, addend: 0x0, symName: __RNvXsE_NtCse1nGBsou5OW_5alloc6stringNtB5_6StringNtB5_12SpecToString14spec_to_stringCs5AlOhPCr03V_3syn, symObjAddr: 0x6AA0, symBinAddr: 0x5E160, symSize: 0x24 }
  - { offset: 0xB98AE, size: 0x8, addend: 0x0, symName: __RNvXsI_NtCse1nGBsou5OW_5alloc6stringNtB5_6StringINtNtCsfvfooZQ3Axs_4core7convert5AsRefShE6as_refCs5AlOhPCr03V_3syn, symObjAddr: 0x6AC4, symBinAddr: 0x5E184, symSize: 0x24 }
  - { offset: 0xB9900, size: 0x8, addend: 0x0, symName: __RNvXsW_NtCse1nGBsou5OW_5alloc6stringNtB5_6StringNtNtCsfvfooZQ3Axs_4core3fmt5Write10write_charCs5AlOhPCr03V_3syn, symObjAddr: 0x6AE8, symBinAddr: 0x5E1A8, symSize: 0x30 }
  - { offset: 0xB993D, size: 0x8, addend: 0x0, symName: __RNvXsW_NtCse1nGBsou5OW_5alloc6stringNtB5_6StringNtNtCsfvfooZQ3Axs_4core3fmt5Write9write_strCs5AlOhPCr03V_3syn, symObjAddr: 0x6B18, symBinAddr: 0x5E1D8, symSize: 0x38 }
  - { offset: 0xB9980, size: 0x8, addend: 0x0, symName: __RNvXsm_NtCse1nGBsou5OW_5alloc6stringNtB5_6StringNtNtCsfvfooZQ3Axs_4core3fmt5Debug3fmtCs5AlOhPCr03V_3syn, symObjAddr: 0x6B50, symBinAddr: 0x5E210, symSize: 0x80 }
  - { offset: 0xB9AE5, size: 0x8, addend: 0x0, symName: __RNvXsw_NtCse1nGBsou5OW_5alloc6stringNtB5_6StringNtB5_8ToString9to_stringCs5AlOhPCr03V_3syn, symObjAddr: 0x14974, symBinAddr: 0x6ADD0, symSize: 0x24 }
  - { offset: 0xB9B1C, size: 0x8, addend: 0x0, symName: __RNvXsw_NtCse1nGBsou5OW_5alloc6stringReNtB5_8ToString9to_stringCs5AlOhPCr03V_3syn, symObjAddr: 0x14998, symBinAddr: 0x6ADF4, symSize: 0x24 }
  - { offset: 0xB9C17, size: 0x8, addend: 0x0, symName: __RNvNtCse1nGBsou5OW_5alloc3fmt6formatCs5AlOhPCr03V_3syn, symObjAddr: 0x6748, symBinAddr: 0x5DE64, symSize: 0xD4 }
  - { offset: 0xBCE5A, size: 0x8, addend: 0x0, symName: __RINvNtCsfvfooZQ3Axs_4core3cmp3minjECs5AlOhPCr03V_3syn, symObjAddr: 0x564C, symBinAddr: 0x5D098, symSize: 0x24 }
  - { offset: 0xBCF1D, size: 0x8, addend: 0x0, symName: __RNvXs5_NtCsfvfooZQ3Axs_4core3cmpNtB5_8OrderingNtB5_9PartialEq2eqCs5AlOhPCr03V_3syn, symObjAddr: 0x6A74, symBinAddr: 0x5E134, symSize: 0x2C }
  - { offset: 0xBCF60, size: 0x8, addend: 0x0, symName: __RNvYjNtNtCsfvfooZQ3Axs_4core3cmp3Ord3minCs5AlOhPCr03V_3syn, symObjAddr: 0x14A60, symBinAddr: 0x6AE8C, symSize: 0x80 }
  - { offset: 0xC36CD, size: 0x8, addend: 0x0, symName: __RNvXso_NtCsfvfooZQ3Axs_4core6resultINtB5_6ResultANtCs3cP53eQoTwO_11proc_macro24Spanj1_NtNtCs5AlOhPCr03V_3syn5error5ErrorENtNtNtB7_3ops9try_trait3Try6branchB1q_, symObjAddr: 0x6BD0, symBinAddr: 0x5E290, symSize: 0x8C }
  - { offset: 0xC374A, size: 0x8, addend: 0x0, symName: __RNvXso_NtCsfvfooZQ3Axs_4core6resultINtB5_6ResultANtCs3cP53eQoTwO_11proc_macro24Spanj2_NtNtCs5AlOhPCr03V_3syn5error5ErrorENtNtNtB7_3ops9try_trait3Try6branchB1q_, symObjAddr: 0x6C5C, symBinAddr: 0x5E31C, symSize: 0x8C }
  - { offset: 0xC37C7, size: 0x8, addend: 0x0, symName: __RNvXso_NtCsfvfooZQ3Axs_4core6resultINtB5_6ResultANtCs3cP53eQoTwO_11proc_macro24Spanj3_NtNtCs5AlOhPCr03V_3syn5error5ErrorENtNtNtB7_3ops9try_trait3Try6branchB1q_, symObjAddr: 0x6CE8, symBinAddr: 0x5E3A8, symSize: 0x9C }
  - { offset: 0xC3844, size: 0x8, addend: 0x0, symName: __RNvXso_NtCsfvfooZQ3Axs_4core6resultINtB5_6ResultINtNtB7_6option6OptionINtNtCse1nGBsou5OW_5alloc5boxed3BoxNtNtCs5AlOhPCr03V_3syn4expr4ExprEENtNtB1J_5error5ErrorENtNtNtB7_3ops9try_trait3Try6branchB1J_, symObjAddr: 0x6D84, symBinAddr: 0x5E444, symSize: 0x88 }
  - { offset: 0xC38C2, size: 0x8, addend: 0x0, symName: __RNvXso_NtCsfvfooZQ3Axs_4core6resultINtB5_6ResultINtNtB7_6option6OptionNtCs3cP53eQoTwO_11proc_macro25IdentENtNtCs5AlOhPCr03V_3syn5error5ErrorENtNtNtB7_3ops9try_trait3Try6branchB1K_, symObjAddr: 0x6E0C, symBinAddr: 0x5E4CC, symSize: 0x94 }
  - { offset: 0xC393F, size: 0x8, addend: 0x0, symName: __RNvXso_NtCsfvfooZQ3Axs_4core6resultINtB5_6ResultINtNtB7_6option6OptionNtNtCs5AlOhPCr03V_3syn2ty10TypeBareFnENtNtB1a_5error5ErrorENtNtNtB7_3ops9try_trait3Try6branchB1a_, symObjAddr: 0x6EA0, symBinAddr: 0x5E560, symSize: 0xB4 }
  - { offset: 0xC39BD, size: 0x8, addend: 0x0, symName: __RNvXso_NtCsfvfooZQ3Axs_4core6resultINtB5_6ResultINtNtB7_6option6OptionNtNtCs5AlOhPCr03V_3syn2ty3AbiENtNtB1a_5error5ErrorENtNtNtB7_3ops9try_trait3Try6branchB1a_, symObjAddr: 0x6F54, symBinAddr: 0x5E614, symSize: 0x94 }
  - { offset: 0xC3A3A, size: 0x8, addend: 0x0, symName: __RNvXso_NtCsfvfooZQ3Axs_4core6resultINtB5_6ResultINtNtB7_6option6OptionNtNtCs5AlOhPCr03V_3syn2ty9BareFnArgENtNtB1a_5error5ErrorENtNtNtB7_3ops9try_trait3Try6branchB1a_, symObjAddr: 0x6FE8, symBinAddr: 0x5E6A8, symSize: 0xB8 }
  - { offset: 0xC3AB8, size: 0x8, addend: 0x0, symName: __RNvXso_NtCsfvfooZQ3Axs_4core6resultINtB5_6ResultINtNtB7_6option6OptionNtNtCs5AlOhPCr03V_3syn3lit6LitStrENtNtB1a_5error5ErrorENtNtNtB7_3ops9try_trait3Try6branchB1a_, symObjAddr: 0x70A0, symBinAddr: 0x5E760, symSize: 0x88 }
  - { offset: 0xC3B36, size: 0x8, addend: 0x0, symName: __RNvXso_NtCsfvfooZQ3Axs_4core6resultINtB5_6ResultINtNtB7_6option6OptionNtNtCs5AlOhPCr03V_3syn3lit8LitFloatENtNtB1a_5error5ErrorENtNtNtB7_3ops9try_trait3Try6branchB1a_, symObjAddr: 0x7128, symBinAddr: 0x5E7E8, symSize: 0x88 }
  - { offset: 0xC3BB4, size: 0x8, addend: 0x0, symName: __RNvXso_NtCsfvfooZQ3Axs_4core6resultINtB5_6ResultINtNtB7_6option6OptionNtNtCs5AlOhPCr03V_3syn4expr5LabelENtNtB1a_5error5ErrorENtNtNtB7_3ops9try_trait3Try6branchB1a_, symObjAddr: 0x71B0, symBinAddr: 0x5E870, symSize: 0xB0 }
  - { offset: 0xC3C31, size: 0x8, addend: 0x0, symName: __RNvXso_NtCsfvfooZQ3Axs_4core6resultINtB5_6ResultINtNtB7_6option6OptionNtNtCs5AlOhPCr03V_3syn4item8ItemImplENtNtB1a_5error5ErrorENtNtNtB7_3ops9try_trait3Try6branchB1a_, symObjAddr: 0x7260, symBinAddr: 0x5E920, symSize: 0xC4 }
  - { offset: 0xC3CAF, size: 0x8, addend: 0x0, symName: __RNvXso_NtCsfvfooZQ3Axs_4core6resultINtB5_6ResultINtNtB7_6option6OptionNtNtCs5AlOhPCr03V_3syn5token2EqENtNtB1a_5error5ErrorENtNtNtB7_3ops9try_trait3Try6branchB1a_, symObjAddr: 0x7324, symBinAddr: 0x5E9E4, symSize: 0x8C }
  - { offset: 0xC3D2C, size: 0x8, addend: 0x0, symName: __RNvXso_NtCsfvfooZQ3Axs_4core6resultINtB5_6ResultINtNtB7_6option6OptionNtNtCs5AlOhPCr03V_3syn5token2OrENtNtB1a_5error5ErrorENtNtNtB7_3ops9try_trait3Try6branchB1a_, symObjAddr: 0x73B0, symBinAddr: 0x5EA70, symSize: 0x8C }
  - { offset: 0xC3DA9, size: 0x8, addend: 0x0, symName: __RNvXso_NtCsfvfooZQ3Axs_4core6resultINtB5_6ResultINtNtB7_6option6OptionNtNtCs5AlOhPCr03V_3syn5token3AddENtNtB1a_5error5ErrorENtNtNtB7_3ops9try_trait3Try6branchB1a_, symObjAddr: 0x743C, symBinAddr: 0x5EAFC, symSize: 0x8C }
  - { offset: 0xC3E26, size: 0x8, addend: 0x0, symName: __RNvXso_NtCsfvfooZQ3Axs_4core6resultINtB5_6ResultINtNtB7_6option6OptionNtNtCs5AlOhPCr03V_3syn5token3BoxENtNtB1a_5error5ErrorENtNtNtB7_3ops9try_trait3Try6branchB1a_, symObjAddr: 0x74C8, symBinAddr: 0x5EB88, symSize: 0x94 }
  - { offset: 0xC3EA4, size: 0x8, addend: 0x0, symName: __RNvXso_NtCsfvfooZQ3Axs_4core6resultINtB5_6ResultINtNtB7_6option6OptionNtNtCs5AlOhPCr03V_3syn5token3DynENtNtB1a_5error5ErrorENtNtNtB7_3ops9try_trait3Try6branchB1a_, symObjAddr: 0x755C, symBinAddr: 0x5EC1C, symSize: 0x94 }
  - { offset: 0xC3F22, size: 0x8, addend: 0x0, symName: __RNvXso_NtCsfvfooZQ3Axs_4core6resultINtB5_6ResultINtNtB7_6option6OptionNtNtCs5AlOhPCr03V_3syn5token3MutENtNtB1a_5error5ErrorENtNtNtB7_3ops9try_trait3Try6branchB1a_, symObjAddr: 0x75F0, symBinAddr: 0x5ECB0, symSize: 0x94 }
  - { offset: 0xC3FA0, size: 0x8, addend: 0x0, symName: __RNvXso_NtCsfvfooZQ3Axs_4core6resultINtB5_6ResultINtNtB7_6option6OptionNtNtCs5AlOhPCr03V_3syn5token3RefENtNtB1a_5error5ErrorENtNtNtB7_3ops9try_trait3Try6branchB1a_, symObjAddr: 0x7684, symBinAddr: 0x5ED44, symSize: 0x94 }
  - { offset: 0xC401E, size: 0x8, addend: 0x0, symName: __RNvXso_NtCsfvfooZQ3Axs_4core6resultINtB5_6ResultINtNtB7_6option6OptionNtNtCs5AlOhPCr03V_3syn5token3SubENtNtB1a_5error5ErrorENtNtNtB7_3ops9try_trait3Try6branchB1a_, symObjAddr: 0x7718, symBinAddr: 0x5EDD8, symSize: 0x8C }
  - { offset: 0xC409B, size: 0x8, addend: 0x0, symName: __RNvXso_NtCsfvfooZQ3Axs_4core6resultINtB5_6ResultINtNtB7_6option6OptionNtNtCs5AlOhPCr03V_3syn5token4AutoENtNtB1a_5error5ErrorENtNtNtB7_3ops9try_trait3Try6branchB1a_, symObjAddr: 0x77A4, symBinAddr: 0x5EE64, symSize: 0x94 }
  - { offset: 0xC4119, size: 0x8, addend: 0x0, symName: __RNvXso_NtCsfvfooZQ3Axs_4core6resultINtB5_6ResultINtNtB7_6option6OptionNtNtCs5AlOhPCr03V_3syn5token4Dot3ENtNtB1a_5error5ErrorENtNtNtB7_3ops9try_trait3Try6branchB1a_, symObjAddr: 0x7838, symBinAddr: 0x5EEF8, symSize: 0x8C }
  - { offset: 0xC4196, size: 0x8, addend: 0x0, symName: __RNvXso_NtCsfvfooZQ3Axs_4core6resultINtB5_6ResultINtNtB7_6option6OptionNtNtCs5AlOhPCr03V_3syn5token4MoveENtNtB1a_5error5ErrorENtNtNtB7_3ops9try_trait3Try6branchB1a_, symObjAddr: 0x78C4, symBinAddr: 0x5EF84, symSize: 0x94 }
  - { offset: 0xC4214, size: 0x8, addend: 0x0, symName: __RNvXso_NtCsfvfooZQ3Axs_4core6resultINtB5_6ResultINtNtB7_6option6OptionNtNtCs5AlOhPCr03V_3syn5token4SemiENtNtB1a_5error5ErrorENtNtNtB7_3ops9try_trait3Try6branchB1a_, symObjAddr: 0x7958, symBinAddr: 0x5F018, symSize: 0x8C }
  - { offset: 0xC4291, size: 0x8, addend: 0x0, symName: __RNvXso_NtCsfvfooZQ3Axs_4core6resultINtB5_6ResultINtNtB7_6option6OptionNtNtCs5AlOhPCr03V_3syn5token4StarENtNtB1a_5error5ErrorENtNtNtB7_3ops9try_trait3Try6branchB1a_, symObjAddr: 0x79E4, symBinAddr: 0x5F0A4, symSize: 0x8C }
  - { offset: 0xC430E, size: 0x8, addend: 0x0, symName: __RNvXso_NtCsfvfooZQ3Axs_4core6resultINtB5_6ResultINtNtB7_6option6OptionNtNtCs5AlOhPCr03V_3syn5token5AsyncENtNtB1a_5error5ErrorENtNtNtB7_3ops9try_trait3Try6branchB1a_, symObjAddr: 0x7A70, symBinAddr: 0x5F130, symSize: 0x94 }
  - { offset: 0xC438C, size: 0x8, addend: 0x0, symName: __RNvXso_NtCsfvfooZQ3Axs_4core6resultINtB5_6ResultINtNtB7_6option6OptionNtNtCs5AlOhPCr03V_3syn5token5AwaitENtNtB1a_5error5ErrorENtNtNtB7_3ops9try_trait3Try6branchB1a_, symObjAddr: 0x7B04, symBinAddr: 0x5F1C4, symSize: 0x94 }
  - { offset: 0xC440A, size: 0x8, addend: 0x0, symName: __RNvXso_NtCsfvfooZQ3Axs_4core6resultINtB5_6ResultINtNtB7_6option6OptionNtNtCs5AlOhPCr03V_3syn5token5ColonENtNtB1a_5error5ErrorENtNtNtB7_3ops9try_trait3Try6branchB1a_, symObjAddr: 0x7B98, symBinAddr: 0x5F258, symSize: 0x8C }
  - { offset: 0xC4487, size: 0x8, addend: 0x0, symName: __RNvXso_NtCsfvfooZQ3Axs_4core6resultINtB5_6ResultINtNtB7_6option6OptionNtNtCs5AlOhPCr03V_3syn5token5CommaENtNtB1a_5error5ErrorENtNtNtB7_3ops9try_trait3Try6branchB1a_, symObjAddr: 0x7C24, symBinAddr: 0x5F2E4, symSize: 0x8C }
  - { offset: 0xC4504, size: 0x8, addend: 0x0, symName: __RNvXso_NtCsfvfooZQ3Axs_4core6resultINtB5_6ResultINtNtB7_6option6OptionNtNtCs5AlOhPCr03V_3syn5token5ConstENtNtB1a_5error5ErrorENtNtNtB7_3ops9try_trait3Try6branchB1a_, symObjAddr: 0x7CB0, symBinAddr: 0x5F370, symSize: 0x94 }
  - { offset: 0xC4582, size: 0x8, addend: 0x0, symName: __RNvXso_NtCsfvfooZQ3Axs_4core6resultINtB5_6ResultINtNtB7_6option6OptionNtNtCs5AlOhPCr03V_3syn5token6Colon2ENtNtB1a_5error5ErrorENtNtNtB7_3ops9try_trait3Try6branchB1a_, symObjAddr: 0x7D44, symBinAddr: 0x5F404, symSize: 0x9C }
  - { offset: 0xC45FF, size: 0x8, addend: 0x0, symName: __RNvXso_NtCsfvfooZQ3Axs_4core6resultINtB5_6ResultINtNtB7_6option6OptionNtNtCs5AlOhPCr03V_3syn5token6StaticENtNtB1a_5error5ErrorENtNtNtB7_3ops9try_trait3Try6branchB1a_, symObjAddr: 0x7DE0, symBinAddr: 0x5F4A0, symSize: 0x94 }
  - { offset: 0xC467D, size: 0x8, addend: 0x0, symName: __RNvXso_NtCsfvfooZQ3Axs_4core6resultINtB5_6ResultINtNtB7_6option6OptionNtNtCs5AlOhPCr03V_3syn5token6UnsafeENtNtB1a_5error5ErrorENtNtNtB7_3ops9try_trait3Try6branchB1a_, symObjAddr: 0x7E74, symBinAddr: 0x5F534, symSize: 0x94 }
  - { offset: 0xC46FB, size: 0x8, addend: 0x0, symName: __RNvXso_NtCsfvfooZQ3Axs_4core6resultINtB5_6ResultINtNtB7_6option6OptionNtNtCs5AlOhPCr03V_3syn5token7DefaultENtNtB1a_5error5ErrorENtNtNtB7_3ops9try_trait3Try6branchB1a_, symObjAddr: 0x7F08, symBinAddr: 0x5F5C8, symSize: 0x94 }
  - { offset: 0xC4779, size: 0x8, addend: 0x0, symName: __RNvXso_NtCsfvfooZQ3Axs_4core6resultINtB5_6ResultINtNtB7_6option6OptionNtNtCs5AlOhPCr03V_3syn5token8QuestionENtNtB1a_5error5ErrorENtNtNtB7_3ops9try_trait3Try6branchB1a_, symObjAddr: 0x7F9C, symBinAddr: 0x5F65C, symSize: 0x8C }
  - { offset: 0xC47F6, size: 0x8, addend: 0x0, symName: __RNvXso_NtCsfvfooZQ3Axs_4core6resultINtB5_6ResultINtNtB7_6option6OptionNtNtCs5AlOhPCr03V_3syn5token9SelfValueENtNtB1a_5error5ErrorENtNtNtB7_3ops9try_trait3Try6branchB1a_, symObjAddr: 0x8028, symBinAddr: 0x5F6E8, symSize: 0x94 }
  - { offset: 0xC4874, size: 0x8, addend: 0x0, symName: __RNvXso_NtCsfvfooZQ3Axs_4core6resultINtB5_6ResultINtNtB7_6option6OptionNtNtCs5AlOhPCr03V_3syn8generics11WhereClauseENtNtB1a_5error5ErrorENtNtNtB7_3ops9try_trait3Try6branchB1a_, symObjAddr: 0x80BC, symBinAddr: 0x5F77C, symSize: 0xB0 }
  - { offset: 0xC48F1, size: 0x8, addend: 0x0, symName: __RNvXso_NtCsfvfooZQ3Axs_4core6resultINtB5_6ResultINtNtB7_6option6OptionNtNtCs5AlOhPCr03V_3syn8generics14BoundLifetimesENtNtB1a_5error5ErrorENtNtNtB7_3ops9try_trait3Try6branchB1a_, symObjAddr: 0x816C, symBinAddr: 0x5F82C, symSize: 0xB0 }
  - { offset: 0xC496E, size: 0x8, addend: 0x0, symName: __RNvXso_NtCsfvfooZQ3Axs_4core6resultINtB5_6ResultINtNtB7_6option6OptionNtNtCs5AlOhPCr03V_3syn8lifetime8LifetimeENtNtB1a_5error5ErrorENtNtNtB7_3ops9try_trait3Try6branchB1a_, symObjAddr: 0x821C, symBinAddr: 0x5F8DC, symSize: 0x94 }
  - { offset: 0xC49EB, size: 0x8, addend: 0x0, symName: __RNvXso_NtCsfvfooZQ3Axs_4core6resultINtB5_6ResultINtNtCs5AlOhPCr03V_3syn10punctuated10PunctuatedNtNtBP_2ty4TypeNtNtBP_5token5CommaENtNtBP_5error5ErrorENtNtNtB7_3ops9try_trait3Try6branchBP_, symObjAddr: 0x82B0, symBinAddr: 0x5F970, symSize: 0xA0 }
  - { offset: 0xC4A68, size: 0x8, addend: 0x0, symName: __RNvXso_NtCsfvfooZQ3Axs_4core6resultINtB5_6ResultINtNtCs5AlOhPCr03V_3syn10punctuated10PunctuatedNtNtBP_4attr10NestedMetaNtNtBP_5token5CommaENtNtBP_5error5ErrorENtNtNtB7_3ops9try_trait3Try6branchBP_, symObjAddr: 0x8350, symBinAddr: 0x5FA10, symSize: 0xA0 }
  - { offset: 0xC4AE5, size: 0x8, addend: 0x0, symName: __RNvXso_NtCsfvfooZQ3Axs_4core6resultINtB5_6ResultINtNtCs5AlOhPCr03V_3syn10punctuated10PunctuatedNtNtBP_4data5FieldNtNtBP_5token5CommaENtNtBP_5error5ErrorENtNtNtB7_3ops9try_trait3Try6branchBP_, symObjAddr: 0x83F0, symBinAddr: 0x5FAB0, symSize: 0xA0 }
  - { offset: 0xC4B62, size: 0x8, addend: 0x0, symName: __RNvXso_NtCsfvfooZQ3Axs_4core6resultINtB5_6ResultINtNtCs5AlOhPCr03V_3syn10punctuated10PunctuatedNtNtBP_4data7VariantNtNtBP_5token5CommaENtNtBP_5error5ErrorENtNtNtB7_3ops9try_trait3Try6branchBP_, symObjAddr: 0x8490, symBinAddr: 0x5FB50, symSize: 0xA0 }
  - { offset: 0xC4BDF, size: 0x8, addend: 0x0, symName: __RNvXso_NtCsfvfooZQ3Axs_4core6resultINtB5_6ResultINtNtCs5AlOhPCr03V_3syn10punctuated10PunctuatedNtNtBP_4expr4ExprNtNtBP_5token5CommaENtNtBP_5error5ErrorENtNtNtB7_3ops9try_trait3Try6branchBP_, symObjAddr: 0x8530, symBinAddr: 0x5FBF0, symSize: 0xA0 }
  - { offset: 0xC4C5C, size: 0x8, addend: 0x0, symName: __RNvXso_NtCsfvfooZQ3Axs_4core6resultINtB5_6ResultINtNtCs5AlOhPCr03V_3syn10punctuated10PunctuatedNtNtBP_4item5FnArgNtNtBP_5token5CommaENtNtBP_5error5ErrorENtNtNtB7_3ops9try_trait3Try6branchBP_, symObjAddr: 0x85D0, symBinAddr: 0x5FC90, symSize: 0xA0 }
  - { offset: 0xC4CD9, size: 0x8, addend: 0x0, symName: __RNvXso_NtCsfvfooZQ3Axs_4core6resultINtB5_6ResultINtNtCs5AlOhPCr03V_3syn10punctuated10PunctuatedNtNtBP_4item7UseTreeNtNtBP_5token5CommaENtNtBP_5error5ErrorENtNtNtB7_3ops9try_trait3Try6branchBP_, symObjAddr: 0x8670, symBinAddr: 0x5FD30, symSize: 0xA0 }
  - { offset: 0xC4D56, size: 0x8, addend: 0x0, symName: __RNvXso_NtCsfvfooZQ3Axs_4core6resultINtB5_6ResultINtNtCs5AlOhPCr03V_3syn10punctuated10PunctuatedNtNtBP_8generics14TypeParamBoundNtNtBP_5token3AddENtNtBP_5error5ErrorENtNtNtB7_3ops9try_trait3Try6branchBP_, symObjAddr: 0x8710, symBinAddr: 0x5FDD0, symSize: 0xA0 }
  - { offset: 0xC4DD3, size: 0x8, addend: 0x0, symName: __RNvXso_NtCsfvfooZQ3Axs_4core6resultINtB5_6ResultINtNtCse1nGBsou5OW_5alloc3vec3VecNtNtCs5AlOhPCr03V_3syn4attr9AttributeENtNtB1l_5error5ErrorENtNtNtB7_3ops9try_trait3Try6branchB1l_, symObjAddr: 0x87B0, symBinAddr: 0x5FE70, symSize: 0x94 }
  - { offset: 0xC4E50, size: 0x8, addend: 0x0, symName: __RNvXso_NtCsfvfooZQ3Axs_4core6resultINtB5_6ResultINtNtCse1nGBsou5OW_5alloc3vec3VecNtNtCs5AlOhPCr03V_3syn4stmt4StmtENtNtB1l_5error5ErrorENtNtNtB7_3ops9try_trait3Try6branchB1l_, symObjAddr: 0x8844, symBinAddr: 0x5FF04, symSize: 0x94 }
  - { offset: 0xC4ECD, size: 0x8, addend: 0x0, symName: __RNvXso_NtCsfvfooZQ3Axs_4core6resultINtB5_6ResultINtNtCse1nGBsou5OW_5alloc5boxed3BoxNtNtCs5AlOhPCr03V_3syn2ty4TypeENtNtB1n_5error5ErrorENtNtNtB7_3ops9try_trait3Try6branchB1n_, symObjAddr: 0x88D8, symBinAddr: 0x5FF98, symSize: 0x88 }
  - { offset: 0xC4F4B, size: 0x8, addend: 0x0, symName: __RNvXso_NtCsfvfooZQ3Axs_4core6resultINtB5_6ResultINtNtCse1nGBsou5OW_5alloc5boxed3BoxNtNtCs5AlOhPCr03V_3syn3pat3PatENtNtB1n_5error5ErrorENtNtNtB7_3ops9try_trait3Try6branchB1n_, symObjAddr: 0x8960, symBinAddr: 0x60020, symSize: 0x88 }
  - { offset: 0xC4FC9, size: 0x8, addend: 0x0, symName: __RNvXso_NtCsfvfooZQ3Axs_4core6resultINtB5_6ResultINtNtCse1nGBsou5OW_5alloc5boxed3BoxNtNtCs5AlOhPCr03V_3syn4expr4ExprENtNtB1n_5error5ErrorENtNtNtB7_3ops9try_trait3Try6branchB1n_, symObjAddr: 0x89E8, symBinAddr: 0x600A8, symSize: 0x88 }
  - { offset: 0xC5047, size: 0x8, addend: 0x0, symName: __RNvXso_NtCsfvfooZQ3Axs_4core6resultINtB5_6ResultNtCs3cP53eQoTwO_11proc_macro211TokenStreamNtBM_8LexErrorENtNtNtB7_3ops9try_trait3Try6branchCs5AlOhPCr03V_3syn, symObjAddr: 0x8A70, symBinAddr: 0x60130, symSize: 0x84 }
  - { offset: 0xC50C4, size: 0x8, addend: 0x0, symName: __RNvXso_NtCsfvfooZQ3Axs_4core6resultINtB5_6ResultNtCs3cP53eQoTwO_11proc_macro211TokenStreamNtNtCs5AlOhPCr03V_3syn5error5ErrorENtNtNtB7_3ops9try_trait3Try6branchB1u_, symObjAddr: 0x8AF4, symBinAddr: 0x601B4, symSize: 0xA0 }
  - { offset: 0xC5141, size: 0x8, addend: 0x0, symName: __RNvXso_NtCsfvfooZQ3Axs_4core6resultINtB5_6ResultNtCs3cP53eQoTwO_11proc_macro24SpanNtNtCs5AlOhPCr03V_3syn5error5ErrorENtNtNtB7_3ops9try_trait3Try6branchB1m_, symObjAddr: 0x8B94, symBinAddr: 0x60254, symSize: 0x88 }
  - { offset: 0xC51BF, size: 0x8, addend: 0x0, symName: __RNvXso_NtCsfvfooZQ3Axs_4core6resultINtB5_6ResultNtCs3cP53eQoTwO_11proc_macro25IdentNtNtCs5AlOhPCr03V_3syn5error5ErrorENtNtNtB7_3ops9try_trait3Try6branchB1n_, symObjAddr: 0x8C1C, symBinAddr: 0x602DC, symSize: 0x94 }
  - { offset: 0xC523C, size: 0x8, addend: 0x0, symName: __RNvXso_NtCsfvfooZQ3Axs_4core6resultINtB5_6ResultNtCs3cP53eQoTwO_11proc_macro29TokenTreeNtNtCs5AlOhPCr03V_3syn5error5ErrorENtNtNtB7_3ops9try_trait3Try6branchB1r_, symObjAddr: 0x8CB0, symBinAddr: 0x60370, symSize: 0x9C }
  - { offset: 0xC52B9, size: 0x8, addend: 0x0, symName: __RNvXso_NtCsfvfooZQ3Axs_4core6resultINtB5_6ResultNtNtCs5AlOhPCr03V_3syn2op4UnOpNtNtBO_5error5ErrorENtNtNtB7_3ops9try_trait3Try6branchBO_, symObjAddr: 0x8D4C, symBinAddr: 0x6040C, symSize: 0x8C }
  - { offset: 0xC5336, size: 0x8, addend: 0x0, symName: __RNvXso_NtCsfvfooZQ3Axs_4core6resultINtB5_6ResultNtNtCs5AlOhPCr03V_3syn2op5BinOpNtNtBO_5error5ErrorENtNtNtB7_3ops9try_trait3Try6branchBO_, symObjAddr: 0x8DD8, symBinAddr: 0x60498, symSize: 0x8C }
  - { offset: 0xC53B3, size: 0x8, addend: 0x0, symName: __RNvXso_NtCsfvfooZQ3Axs_4core6resultINtB5_6ResultNtNtCs5AlOhPCr03V_3syn2ty10ReturnTypeNtNtBO_5error5ErrorENtNtNtB7_3ops9try_trait3Try6branchBO_, symObjAddr: 0x8E64, symBinAddr: 0x60524, symSize: 0x8C }
  - { offset: 0xC5430, size: 0x8, addend: 0x0, symName: __RNvXso_NtCsfvfooZQ3Axs_4core6resultINtB5_6ResultNtNtCs5AlOhPCr03V_3syn2ty15TypeTraitObjectNtNtBO_5error5ErrorENtNtNtB7_3ops9try_trait3Try6branchBO_, symObjAddr: 0x8EF0, symBinAddr: 0x605B0, symSize: 0xB0 }
  - { offset: 0xC54AD, size: 0x8, addend: 0x0, symName: __RNvXso_NtCsfvfooZQ3Axs_4core6resultINtB5_6ResultNtNtCs5AlOhPCr03V_3syn2ty3AbiNtNtBO_5error5ErrorENtNtNtB7_3ops9try_trait3Try6branchBO_, symObjAddr: 0x8FA0, symBinAddr: 0x60660, symSize: 0x94 }
  - { offset: 0xC552B, size: 0x8, addend: 0x0, symName: __RNvXso_NtCsfvfooZQ3Axs_4core6resultINtB5_6ResultNtNtCs5AlOhPCr03V_3syn2ty4TypeNtNtBO_5error5ErrorENtNtNtB7_3ops9try_trait3Try6branchBO_, symObjAddr: 0x9034, symBinAddr: 0x606F4, symSize: 0xCC }
  - { offset: 0xC55A9, size: 0x8, addend: 0x0, symName: __RNvXso_NtCsfvfooZQ3Axs_4core6resultINtB5_6ResultNtNtCs5AlOhPCr03V_3syn2ty8TypePathNtNtBO_5error5ErrorENtNtNtB7_3ops9try_trait3Try6branchBO_, symObjAddr: 0x9100, symBinAddr: 0x607C0, symSize: 0xB0 }
  - { offset: 0xC5626, size: 0x8, addend: 0x0, symName: __RNvXso_NtCsfvfooZQ3Axs_4core6resultINtB5_6ResultNtNtCs5AlOhPCr03V_3syn2ty9TypeGroupNtNtBO_5error5ErrorENtNtNtB7_3ops9try_trait3Try6branchBO_, symObjAddr: 0x91B0, symBinAddr: 0x60870, symSize: 0x94 }
  - { offset: 0xC56A4, size: 0x8, addend: 0x0, symName: __RNvXso_NtCsfvfooZQ3Axs_4core6resultINtB5_6ResultNtNtCs5AlOhPCr03V_3syn3lit3LitNtNtBO_5error5ErrorENtNtNtB7_3ops9try_trait3Try6branchBO_, symObjAddr: 0x9244, symBinAddr: 0x60904, symSize: 0x94 }
  - { offset: 0xC5721, size: 0x8, addend: 0x0, symName: __RNvXso_NtCsfvfooZQ3Axs_4core6resultINtB5_6ResultNtNtCs5AlOhPCr03V_3syn3lit6LitIntNtNtBO_5error5ErrorENtNtNtB7_3ops9try_trait3Try6branchBO_, symObjAddr: 0x92D8, symBinAddr: 0x60998, symSize: 0x88 }
  - { offset: 0xC579F, size: 0x8, addend: 0x0, symName: __RNvXso_NtCsfvfooZQ3Axs_4core6resultINtB5_6ResultNtNtCs5AlOhPCr03V_3syn3lit6LitStrNtNtBO_5error5ErrorENtNtNtB7_3ops9try_trait3Try6branchBO_, symObjAddr: 0x9360, symBinAddr: 0x60A20, symSize: 0x88 }
  - { offset: 0xC581D, size: 0x8, addend: 0x0, symName: __RNvXso_NtCsfvfooZQ3Axs_4core6resultINtB5_6ResultNtNtCs5AlOhPCr03V_3syn3lit8LitFloatNtNtBO_5error5ErrorENtNtNtB7_3ops9try_trait3Try6branchBO_, symObjAddr: 0x93E8, symBinAddr: 0x60AA8, symSize: 0x88 }
  - { offset: 0xC589B, size: 0x8, addend: 0x0, symName: __RNvXso_NtCsfvfooZQ3Axs_4core6resultINtB5_6ResultNtNtCs5AlOhPCr03V_3syn3mac5MacroNtNtBO_5error5ErrorENtNtNtB7_3ops9try_trait3Try6branchBO_, symObjAddr: 0x9470, symBinAddr: 0x60B30, symSize: 0xB0 }
  - { offset: 0xC5918, size: 0x8, addend: 0x0, symName: __RNvXso_NtCsfvfooZQ3Axs_4core6resultINtB5_6ResultNtNtCs5AlOhPCr03V_3syn3pat14PatTupleStructNtNtBO_5error5ErrorENtNtNtB7_3ops9try_trait3Try6branchBO_, symObjAddr: 0x9520, symBinAddr: 0x60BE0, symSize: 0xC4 }
  - { offset: 0xC5996, size: 0x8, addend: 0x0, symName: __RNvXso_NtCsfvfooZQ3Axs_4core6resultINtB5_6ResultNtNtCs5AlOhPCr03V_3syn3pat3PatNtNtBO_5error5ErrorENtNtNtB7_3ops9try_trait3Try6branchBO_, symObjAddr: 0x95E4, symBinAddr: 0x60CA4, symSize: 0xCC }
  - { offset: 0xC5A14, size: 0x8, addend: 0x0, symName: __RNvXso_NtCsfvfooZQ3Axs_4core6resultINtB5_6ResultNtNtCs5AlOhPCr03V_3syn3pat7PatTypeNtNtBO_5error5ErrorENtNtNtB7_3ops9try_trait3Try6branchBO_, symObjAddr: 0x96B0, symBinAddr: 0x60D70, symSize: 0xB0 }
  - { offset: 0xC5A91, size: 0x8, addend: 0x0, symName: __RNvXso_NtCsfvfooZQ3Axs_4core6resultINtB5_6ResultNtNtCs5AlOhPCr03V_3syn3pat8FieldPatNtNtBO_5error5ErrorENtNtNtB7_3ops9try_trait3Try6branchBO_, symObjAddr: 0x9760, symBinAddr: 0x60E20, symSize: 0xB0 }
  - { offset: 0xC5B0E, size: 0x8, addend: 0x0, symName: __RNvXso_NtCsfvfooZQ3Axs_4core6resultINtB5_6ResultNtNtCs5AlOhPCr03V_3syn3pat8PatTupleNtNtBO_5error5ErrorENtNtNtB7_3ops9try_trait3Try6branchBO_, symObjAddr: 0x9810, symBinAddr: 0x60ED0, symSize: 0xB0 }
  - { offset: 0xC5B8B, size: 0x8, addend: 0x0, symName: __RNvXso_NtCsfvfooZQ3Axs_4core6resultINtB5_6ResultNtNtCs5AlOhPCr03V_3syn4attr10NestedMetaNtNtBO_5error5ErrorENtNtNtB7_3ops9try_trait3Try6branchBO_, symObjAddr: 0x98C0, symBinAddr: 0x60F80, symSize: 0xB8 }
  - { offset: 0xC5C08, size: 0x8, addend: 0x0, symName: __RNvXso_NtCsfvfooZQ3Axs_4core6resultINtB5_6ResultNtNtCs5AlOhPCr03V_3syn4attr4MetaNtNtBO_5error5ErrorENtNtNtB7_3ops9try_trait3Try6branchBO_, symObjAddr: 0x9978, symBinAddr: 0x61038, symSize: 0xB0 }
  - { offset: 0xC5C85, size: 0x8, addend: 0x0, symName: __RNvXso_NtCsfvfooZQ3Axs_4core6resultINtB5_6ResultNtNtCs5AlOhPCr03V_3syn4attr9AttributeNtNtBO_5error5ErrorENtNtNtB7_3ops9try_trait3Try6branchBO_, symObjAddr: 0x9A28, symBinAddr: 0x610E8, symSize: 0xB0 }
  - { offset: 0xC5D02, size: 0x8, addend: 0x0, symName: __RNvXso_NtCsfvfooZQ3Axs_4core6resultINtB5_6ResultNtNtCs5AlOhPCr03V_3syn4data10VisibilityNtNtBO_5error5ErrorENtNtNtB7_3ops9try_trait3Try6branchBO_, symObjAddr: 0x9AD8, symBinAddr: 0x61198, symSize: 0x94 }
  - { offset: 0xC5D7F, size: 0x8, addend: 0x0, symName: __RNvXso_NtCsfvfooZQ3Axs_4core6resultINtB5_6ResultNtNtCs5AlOhPCr03V_3syn4data11FieldsNamedNtNtBO_5error5ErrorENtNtNtB7_3ops9try_trait3Try6branchBO_, symObjAddr: 0x9B6C, symBinAddr: 0x6122C, symSize: 0xB0 }
  - { offset: 0xC5DFC, size: 0x8, addend: 0x0, symName: __RNvXso_NtCsfvfooZQ3Axs_4core6resultINtB5_6ResultNtNtCs5AlOhPCr03V_3syn4data13FieldsUnnamedNtNtBO_5error5ErrorENtNtNtB7_3ops9try_trait3Try6branchBO_, symObjAddr: 0x9C1C, symBinAddr: 0x612DC, symSize: 0xB0 }
  - { offset: 0xC5E79, size: 0x8, addend: 0x0, symName: __RNvXso_NtCsfvfooZQ3Axs_4core6resultINtB5_6ResultNtNtCs5AlOhPCr03V_3syn4data5FieldNtNtBO_5error5ErrorENtNtNtB7_3ops9try_trait3Try6branchBO_, symObjAddr: 0x9CCC, symBinAddr: 0x6138C, symSize: 0xC4 }
  - { offset: 0xC5EF7, size: 0x8, addend: 0x0, symName: __RNvXso_NtCsfvfooZQ3Axs_4core6resultINtB5_6ResultNtNtCs5AlOhPCr03V_3syn4data7VariantNtNtBO_5error5ErrorENtNtNtB7_3ops9try_trait3Try6branchBO_, symObjAddr: 0x9D90, symBinAddr: 0x61450, symSize: 0xB4 }
  - { offset: 0xC5F75, size: 0x8, addend: 0x0, symName: __RNvXso_NtCsfvfooZQ3Axs_4core6resultINtB5_6ResultNtNtCs5AlOhPCr03V_3syn4expr10ExprStructNtNtBO_5error5ErrorENtNtNtB7_3ops9try_trait3Try6branchBO_, symObjAddr: 0x9E44, symBinAddr: 0x61504, symSize: 0xB0 }
  - { offset: 0xC5FF2, size: 0x8, addend: 0x0, symName: __RNvXso_NtCsfvfooZQ3Axs_4core6resultINtB5_6ResultNtNtCs5AlOhPCr03V_3syn4expr10ExprUnsafeNtNtBO_5error5ErrorENtNtNtB7_3ops9try_trait3Try6branchBO_, symObjAddr: 0x9EF4, symBinAddr: 0x615B4, symSize: 0xB0 }
  - { offset: 0xC606F, size: 0x8, addend: 0x0, symName: __RNvXso_NtCsfvfooZQ3Axs_4core6resultINtB5_6ResultNtNtCs5AlOhPCr03V_3syn4expr10FieldValueNtNtBO_5error5ErrorENtNtNtB7_3ops9try_trait3Try6branchBO_, symObjAddr: 0x9FA4, symBinAddr: 0x61664, symSize: 0xB8 }
  - { offset: 0xC60ED, size: 0x8, addend: 0x0, symName: __RNvXso_NtCsfvfooZQ3Axs_4core6resultINtB5_6ResultNtNtCs5AlOhPCr03V_3syn4expr11ExprClosureNtNtBO_5error5ErrorENtNtNtB7_3ops9try_trait3Try6branchBO_, symObjAddr: 0xA05C, symBinAddr: 0x6171C, symSize: 0xB0 }
  - { offset: 0xC616A, size: 0x8, addend: 0x0, symName: __RNvXso_NtCsfvfooZQ3Axs_4core6resultINtB5_6ResultNtNtCs5AlOhPCr03V_3syn4expr11ExprForLoopNtNtBO_5error5ErrorENtNtNtB7_3ops9try_trait3Try6branchBO_, symObjAddr: 0xA10C, symBinAddr: 0x617CC, symSize: 0xC4 }
  - { offset: 0xC61E8, size: 0x8, addend: 0x0, symName: __RNvXso_NtCsfvfooZQ3Axs_4core6resultINtB5_6ResultNtNtCs5AlOhPCr03V_3syn4expr11RangeLimitsNtNtBO_5error5ErrorENtNtNtB7_3ops9try_trait3Try6branchBO_, symObjAddr: 0xA1D0, symBinAddr: 0x61890, symSize: 0x8C }
  - { offset: 0xC6265, size: 0x8, addend: 0x0, symName: __RNvXso_NtCsfvfooZQ3Axs_4core6resultINtB5_6ResultNtNtCs5AlOhPCr03V_3syn4expr12ExprTryBlockNtNtBO_5error5ErrorENtNtNtB7_3ops9try_trait3Try6branchBO_, symObjAddr: 0xA25C, symBinAddr: 0x6191C, symSize: 0xB0 }
  - { offset: 0xC62E2, size: 0x8, addend: 0x0, symName: __RNvXso_NtCsfvfooZQ3Axs_4core6resultINtB5_6ResultNtNtCs5AlOhPCr03V_3syn4expr15MethodTurbofishNtNtBO_5error5ErrorENtNtNtB7_3ops9try_trait3Try6branchBO_, symObjAddr: 0xA30C, symBinAddr: 0x619CC, symSize: 0xB0 }
  - { offset: 0xC635F, size: 0x8, addend: 0x0, symName: __RNvXso_NtCsfvfooZQ3Axs_4core6resultINtB5_6ResultNtNtCs5AlOhPCr03V_3syn4expr21GenericMethodArgumentNtNtBO_5error5ErrorENtNtNtB7_3ops9try_trait3Try6branchBO_, symObjAddr: 0xA3BC, symBinAddr: 0x61A7C, symSize: 0xCC }
  - { offset: 0xC63DD, size: 0x8, addend: 0x0, symName: __RNvXso_NtCsfvfooZQ3Axs_4core6resultINtB5_6ResultNtNtCs5AlOhPCr03V_3syn4expr3ArmNtNtBO_5error5ErrorENtNtNtB7_3ops9try_trait3Try6branchBO_, symObjAddr: 0xA488, symBinAddr: 0x61B48, symSize: 0xC4 }
  - { offset: 0xC645B, size: 0x8, addend: 0x0, symName: __RNvXso_NtCsfvfooZQ3Axs_4core6resultINtB5_6ResultNtNtCs5AlOhPCr03V_3syn4expr4ExprNtNtBO_5error5ErrorENtNtNtB7_3ops9try_trait3Try6branchBO_, symObjAddr: 0xA54C, symBinAddr: 0x61C0C, symSize: 0xCC }
  - { offset: 0xC64D9, size: 0x8, addend: 0x0, symName: __RNvXso_NtCsfvfooZQ3Axs_4core6resultINtB5_6ResultNtNtCs5AlOhPCr03V_3syn4expr5IndexNtNtBO_5error5ErrorENtNtNtB7_3ops9try_trait3Try6branchBO_, symObjAddr: 0xA618, symBinAddr: 0x61CD8, symSize: 0x94 }
  - { offset: 0xC6557, size: 0x8, addend: 0x0, symName: __RNvXso_NtCsfvfooZQ3Axs_4core6resultINtB5_6ResultNtNtCs5AlOhPCr03V_3syn4expr5LabelNtNtBO_5error5ErrorENtNtNtB7_3ops9try_trait3Try6branchBO_, symObjAddr: 0xA6AC, symBinAddr: 0x61D6C, symSize: 0xB0 }
  - { offset: 0xC65D4, size: 0x8, addend: 0x0, symName: __RNvXso_NtCsfvfooZQ3Axs_4core6resultINtB5_6ResultNtNtCs5AlOhPCr03V_3syn4expr6ExprIfNtNtBO_5error5ErrorENtNtNtB7_3ops9try_trait3Try6branchBO_, symObjAddr: 0xA75C, symBinAddr: 0x61E1C, symSize: 0xB0 }
  - { offset: 0xC6651, size: 0x8, addend: 0x0, symName: __RNvXso_NtCsfvfooZQ3Axs_4core6resultINtB5_6ResultNtNtCs5AlOhPCr03V_3syn4expr6MemberNtNtBO_5error5ErrorENtNtNtB7_3ops9try_trait3Try6branchBO_, symObjAddr: 0xA80C, symBinAddr: 0x61ECC, symSize: 0x94 }
  - { offset: 0xC66CE, size: 0x8, addend: 0x0, symName: __RNvXso_NtCsfvfooZQ3Axs_4core6resultINtB5_6ResultNtNtCs5AlOhPCr03V_3syn4expr7ExprLitNtNtBO_5error5ErrorENtNtNtB7_3ops9try_trait3Try6branchBO_, symObjAddr: 0xA8A0, symBinAddr: 0x61F60, symSize: 0xB0 }
  - { offset: 0xC674B, size: 0x8, addend: 0x0, symName: __RNvXso_NtCsfvfooZQ3Axs_4core6resultINtB5_6ResultNtNtCs5AlOhPCr03V_3syn4expr8ExprLoopNtNtBO_5error5ErrorENtNtNtB7_3ops9try_trait3Try6branchBO_, symObjAddr: 0xA950, symBinAddr: 0x62010, symSize: 0xBC }
  - { offset: 0xC67C8, size: 0x8, addend: 0x0, symName: __RNvXso_NtCsfvfooZQ3Axs_4core6resultINtB5_6ResultNtNtCs5AlOhPCr03V_3syn4expr8ExprPathNtNtBO_5error5ErrorENtNtNtB7_3ops9try_trait3Try6branchBO_, symObjAddr: 0xAA0C, symBinAddr: 0x620CC, symSize: 0xBC }
  - { offset: 0xC6845, size: 0x8, addend: 0x0, symName: __RNvXso_NtCsfvfooZQ3Axs_4core6resultINtB5_6ResultNtNtCs5AlOhPCr03V_3syn4expr9ExprBlockNtNtBO_5error5ErrorENtNtNtB7_3ops9try_trait3Try6branchBO_, symObjAddr: 0xAAC8, symBinAddr: 0x62188, symSize: 0xB0 }
  - { offset: 0xC68C2, size: 0x8, addend: 0x0, symName: __RNvXso_NtCsfvfooZQ3Axs_4core6resultINtB5_6ResultNtNtCs5AlOhPCr03V_3syn4expr9ExprMatchNtNtBO_5error5ErrorENtNtNtB7_3ops9try_trait3Try6branchBO_, symObjAddr: 0xAB78, symBinAddr: 0x62238, symSize: 0xB0 }
  - { offset: 0xC693F, size: 0x8, addend: 0x0, symName: __RNvXso_NtCsfvfooZQ3Axs_4core6resultINtB5_6ResultNtNtCs5AlOhPCr03V_3syn4expr9ExprWhileNtNtBO_5error5ErrorENtNtNtB7_3ops9try_trait3Try6branchBO_, symObjAddr: 0xAC28, symBinAddr: 0x622E8, symSize: 0xB0 }
  - { offset: 0xC69BC, size: 0x8, addend: 0x0, symName: __RNvXso_NtCsfvfooZQ3Axs_4core6resultINtB5_6ResultNtNtCs5AlOhPCr03V_3syn4item11ForeignItemNtNtBO_5error5ErrorENtNtNtB7_3ops9try_trait3Try6branchBO_, symObjAddr: 0xAD88, symBinAddr: 0x62398, symSize: 0xC0 }
  - { offset: 0xC6A3A, size: 0x8, addend: 0x0, symName: __RNvXso_NtCsfvfooZQ3Axs_4core6resultINtB5_6ResultNtNtCs5AlOhPCr03V_3syn4item14ItemForeignModNtNtBO_5error5ErrorENtNtNtB7_3ops9try_trait3Try6branchBO_, symObjAddr: 0xAE48, symBinAddr: 0x62458, symSize: 0xB0 }
  - { offset: 0xC6AB7, size: 0x8, addend: 0x0, symName: __RNvXso_NtCsfvfooZQ3Axs_4core6resultINtB5_6ResultNtNtCs5AlOhPCr03V_3syn4item4ItemNtNtBO_5error5ErrorENtNtNtB7_3ops9try_trait3Try6branchBO_, symObjAddr: 0xAEF8, symBinAddr: 0x62508, symSize: 0xC0 }
  - { offset: 0xC6B35, size: 0x8, addend: 0x0, symName: __RNvXso_NtCsfvfooZQ3Axs_4core6resultINtB5_6ResultNtNtCs5AlOhPCr03V_3syn4item5FnArgNtNtBO_5error5ErrorENtNtNtB7_3ops9try_trait3Try6branchBO_, symObjAddr: 0xAFB8, symBinAddr: 0x625C8, symSize: 0xB0 }
  - { offset: 0xC6BB2, size: 0x8, addend: 0x0, symName: __RNvXso_NtCsfvfooZQ3Axs_4core6resultINtB5_6ResultNtNtCs5AlOhPCr03V_3syn4item7ItemModNtNtBO_5error5ErrorENtNtNtB7_3ops9try_trait3Try6branchBO_, symObjAddr: 0xB068, symBinAddr: 0x62678, symSize: 0xBC }
  - { offset: 0xC6C2F, size: 0x8, addend: 0x0, symName: __RNvXso_NtCsfvfooZQ3Axs_4core6resultINtB5_6ResultNtNtCs5AlOhPCr03V_3syn4item7UseTreeNtNtBO_5error5ErrorENtNtNtB7_3ops9try_trait3Try6branchBO_, symObjAddr: 0xB124, symBinAddr: 0x62734, symSize: 0xAC }
  - { offset: 0xC6CAC, size: 0x8, addend: 0x0, symName: __RNvXso_NtCsfvfooZQ3Axs_4core6resultINtB5_6ResultNtNtCs5AlOhPCr03V_3syn4item8ImplItemNtNtBO_5error5ErrorENtNtNtB7_3ops9try_trait3Try6branchBO_, symObjAddr: 0xB1D0, symBinAddr: 0x627E0, symSize: 0xC0 }
  - { offset: 0xC6D2A, size: 0x8, addend: 0x0, symName: __RNvXso_NtCsfvfooZQ3Axs_4core6resultINtB5_6ResultNtNtCs5AlOhPCr03V_3syn4item9ItemMacroNtNtBO_5error5ErrorENtNtNtB7_3ops9try_trait3Try6branchBO_, symObjAddr: 0xB290, symBinAddr: 0x628A0, symSize: 0xC4 }
  - { offset: 0xC6DA8, size: 0x8, addend: 0x0, symName: __RNvXso_NtCsfvfooZQ3Axs_4core6resultINtB5_6ResultNtNtCs5AlOhPCr03V_3syn4item9SignatureNtNtBO_5error5ErrorENtNtNtB7_3ops9try_trait3Try6branchBO_, symObjAddr: 0xB354, symBinAddr: 0x62964, symSize: 0xB4 }
  - { offset: 0xC6E26, size: 0x8, addend: 0x0, symName: __RNvXso_NtCsfvfooZQ3Axs_4core6resultINtB5_6ResultNtNtCs5AlOhPCr03V_3syn4item9TraitItemNtNtBO_5error5ErrorENtNtNtB7_3ops9try_trait3Try6branchBO_, symObjAddr: 0xB408, symBinAddr: 0x62A18, symSize: 0xCC }
  - { offset: 0xC6EA4, size: 0x8, addend: 0x0, symName: __RNvXso_NtCsfvfooZQ3Axs_4core6resultINtB5_6ResultNtNtCs5AlOhPCr03V_3syn4path10ConstraintNtNtBO_5error5ErrorENtNtNtB7_3ops9try_trait3Try6branchBO_, symObjAddr: 0xB4D4, symBinAddr: 0x62AE4, symSize: 0xB0 }
  - { offset: 0xC6F21, size: 0x8, addend: 0x0, symName: __RNvXso_NtCsfvfooZQ3Axs_4core6resultINtB5_6ResultNtNtCs5AlOhPCr03V_3syn4path11PathSegmentNtNtBO_5error5ErrorENtNtNtB7_3ops9try_trait3Try6branchBO_, symObjAddr: 0xB584, symBinAddr: 0x62B94, symSize: 0xAC }
  - { offset: 0xC6F9E, size: 0x8, addend: 0x0, symName: __RNvXso_NtCsfvfooZQ3Axs_4core6resultINtB5_6ResultNtNtCs5AlOhPCr03V_3syn4path15GenericArgumentNtNtBO_5error5ErrorENtNtNtB7_3ops9try_trait3Try6branchBO_, symObjAddr: 0xB630, symBinAddr: 0x62C40, symSize: 0xCC }
  - { offset: 0xC701C, size: 0x8, addend: 0x0, symName: __RNvXso_NtCsfvfooZQ3Axs_4core6resultINtB5_6ResultNtNtCs5AlOhPCr03V_3syn4path29ParenthesizedGenericArgumentsNtNtBO_5error5ErrorENtNtNtB7_3ops9try_trait3Try6branchBO_, symObjAddr: 0xB6FC, symBinAddr: 0x62D0C, symSize: 0xB0 }
  - { offset: 0xC7099, size: 0x8, addend: 0x0, symName: __RNvXso_NtCsfvfooZQ3Axs_4core6resultINtB5_6ResultNtNtCs5AlOhPCr03V_3syn4path30AngleBracketedGenericArgumentsNtNtBO_5error5ErrorENtNtNtB7_3ops9try_trait3Try6branchBO_, symObjAddr: 0xB7AC, symBinAddr: 0x62DBC, symSize: 0xB0 }
  - { offset: 0xC7116, size: 0x8, addend: 0x0, symName: __RNvXso_NtCsfvfooZQ3Axs_4core6resultINtB5_6ResultNtNtCs5AlOhPCr03V_3syn4path4PathNtNtBO_5error5ErrorENtNtNtB7_3ops9try_trait3Try6branchBO_, symObjAddr: 0xB85C, symBinAddr: 0x62E6C, symSize: 0xB0 }
  - { offset: 0xC7193, size: 0x8, addend: 0x0, symName: __RNvXso_NtCsfvfooZQ3Axs_4core6resultINtB5_6ResultNtNtCs5AlOhPCr03V_3syn4stmt4StmtNtNtBO_5error5ErrorENtNtNtB7_3ops9try_trait3Try6branchBO_, symObjAddr: 0xB90C, symBinAddr: 0x62F1C, symSize: 0xC0 }
  - { offset: 0xC7211, size: 0x8, addend: 0x0, symName: __RNvXso_NtCsfvfooZQ3Axs_4core6resultINtB5_6ResultNtNtCs5AlOhPCr03V_3syn4stmt5BlockNtNtBO_5error5ErrorENtNtNtB7_3ops9try_trait3Try6branchBO_, symObjAddr: 0xB9CC, symBinAddr: 0x62FDC, symSize: 0xA0 }
  - { offset: 0xC728E, size: 0x8, addend: 0x0, symName: __RNvXso_NtCsfvfooZQ3Axs_4core6resultINtB5_6ResultNtNtCs5AlOhPCr03V_3syn5group5GroupNtNtBO_5error5ErrorENtNtNtB7_3ops9try_trait3Try6branchBO_, symObjAddr: 0xBA6C, symBinAddr: 0x6307C, symSize: 0xB0 }
  - { offset: 0xC730B, size: 0x8, addend: 0x0, symName: __RNvXso_NtCsfvfooZQ3Axs_4core6resultINtB5_6ResultNtNtCs5AlOhPCr03V_3syn5token10UnderscoreNtNtBO_5error5ErrorENtNtNtB7_3ops9try_trait3Try6branchBO_, symObjAddr: 0xBB1C, symBinAddr: 0x6312C, symSize: 0x8C }
  - { offset: 0xC7388, size: 0x8, addend: 0x0, symName: __RNvXso_NtCsfvfooZQ3Axs_4core6resultINtB5_6ResultNtNtCs5AlOhPCr03V_3syn5token2AsNtNtBO_5error5ErrorENtNtNtB7_3ops9try_trait3Try6branchBO_, symObjAddr: 0xBBA8, symBinAddr: 0x631B8, symSize: 0x88 }
  - { offset: 0xC7406, size: 0x8, addend: 0x0, symName: __RNvXso_NtCsfvfooZQ3Axs_4core6resultINtB5_6ResultNtNtCs5AlOhPCr03V_3syn5token2AtNtNtBO_5error5ErrorENtNtNtB7_3ops9try_trait3Try6branchBO_, symObjAddr: 0xBC30, symBinAddr: 0x63240, symSize: 0x8C }
  - { offset: 0xC7483, size: 0x8, addend: 0x0, symName: __RNvXso_NtCsfvfooZQ3Axs_4core6resultINtB5_6ResultNtNtCs5AlOhPCr03V_3syn5token2EqNtNtBO_5error5ErrorENtNtNtB7_3ops9try_trait3Try6branchBO_, symObjAddr: 0xBCBC, symBinAddr: 0x632CC, symSize: 0x8C }
  - { offset: 0xC7500, size: 0x8, addend: 0x0, symName: __RNvXso_NtCsfvfooZQ3Axs_4core6resultINtB5_6ResultNtNtCs5AlOhPCr03V_3syn5token2FnNtNtBO_5error5ErrorENtNtNtB7_3ops9try_trait3Try6branchBO_, symObjAddr: 0xBD48, symBinAddr: 0x63358, symSize: 0x88 }
  - { offset: 0xC757E, size: 0x8, addend: 0x0, symName: __RNvXso_NtCsfvfooZQ3Axs_4core6resultINtB5_6ResultNtNtCs5AlOhPCr03V_3syn5token2GtNtNtBO_5error5ErrorENtNtNtB7_3ops9try_trait3Try6branchBO_, symObjAddr: 0xBDD0, symBinAddr: 0x633E0, symSize: 0x8C }
  - { offset: 0xC75FB, size: 0x8, addend: 0x0, symName: __RNvXso_NtCsfvfooZQ3Axs_4core6resultINtB5_6ResultNtNtCs5AlOhPCr03V_3syn5token2IfNtNtBO_5error5ErrorENtNtNtB7_3ops9try_trait3Try6branchBO_, symObjAddr: 0xBE5C, symBinAddr: 0x6346C, symSize: 0x88 }
  - { offset: 0xC7679, size: 0x8, addend: 0x0, symName: __RNvXso_NtCsfvfooZQ3Axs_4core6resultINtB5_6ResultNtNtCs5AlOhPCr03V_3syn5token2InNtNtBO_5error5ErrorENtNtNtB7_3ops9try_trait3Try6branchBO_, symObjAddr: 0xBEE4, symBinAddr: 0x634F4, symSize: 0x88 }
  - { offset: 0xC76F7, size: 0x8, addend: 0x0, symName: __RNvXso_NtCsfvfooZQ3Axs_4core6resultINtB5_6ResultNtNtCs5AlOhPCr03V_3syn5token2LtNtNtBO_5error5ErrorENtNtNtB7_3ops9try_trait3Try6branchBO_, symObjAddr: 0xBF6C, symBinAddr: 0x6357C, symSize: 0x8C }
  - { offset: 0xC7774, size: 0x8, addend: 0x0, symName: __RNvXso_NtCsfvfooZQ3Axs_4core6resultINtB5_6ResultNtNtCs5AlOhPCr03V_3syn5token2OrNtNtBO_5error5ErrorENtNtNtB7_3ops9try_trait3Try6branchBO_, symObjAddr: 0xBFF8, symBinAddr: 0x63608, symSize: 0x8C }
  - { offset: 0xC77F1, size: 0x8, addend: 0x0, symName: __RNvXso_NtCsfvfooZQ3Axs_4core6resultINtB5_6ResultNtNtCs5AlOhPCr03V_3syn5token3AddNtNtBO_5error5ErrorENtNtNtB7_3ops9try_trait3Try6branchBO_, symObjAddr: 0xC084, symBinAddr: 0x63694, symSize: 0x8C }
  - { offset: 0xC786E, size: 0x8, addend: 0x0, symName: __RNvXso_NtCsfvfooZQ3Axs_4core6resultINtB5_6ResultNtNtCs5AlOhPCr03V_3syn5token3AndNtNtBO_5error5ErrorENtNtNtB7_3ops9try_trait3Try6branchBO_, symObjAddr: 0xC110, symBinAddr: 0x63720, symSize: 0x8C }
  - { offset: 0xC78EB, size: 0x8, addend: 0x0, symName: __RNvXso_NtCsfvfooZQ3Axs_4core6resultINtB5_6ResultNtNtCs5AlOhPCr03V_3syn5token3BoxNtNtBO_5error5ErrorENtNtNtB7_3ops9try_trait3Try6branchBO_, symObjAddr: 0xC19C, symBinAddr: 0x637AC, symSize: 0x88 }
  - { offset: 0xC7969, size: 0x8, addend: 0x0, symName: __RNvXso_NtCsfvfooZQ3Axs_4core6resultINtB5_6ResultNtNtCs5AlOhPCr03V_3syn5token3DotNtNtBO_5error5ErrorENtNtNtB7_3ops9try_trait3Try6branchBO_, symObjAddr: 0xC224, symBinAddr: 0x63834, symSize: 0x8C }
  - { offset: 0xC79E6, size: 0x8, addend: 0x0, symName: __RNvXso_NtCsfvfooZQ3Axs_4core6resultINtB5_6ResultNtNtCs5AlOhPCr03V_3syn5token3DynNtNtBO_5error5ErrorENtNtNtB7_3ops9try_trait3Try6branchBO_, symObjAddr: 0xC2B0, symBinAddr: 0x638C0, symSize: 0x88 }
  - { offset: 0xC7A64, size: 0x8, addend: 0x0, symName: __RNvXso_NtCsfvfooZQ3Axs_4core6resultINtB5_6ResultNtNtCs5AlOhPCr03V_3syn5token3ForNtNtBO_5error5ErrorENtNtNtB7_3ops9try_trait3Try6branchBO_, symObjAddr: 0xC338, symBinAddr: 0x63948, symSize: 0x88 }
  - { offset: 0xC7AE2, size: 0x8, addend: 0x0, symName: __RNvXso_NtCsfvfooZQ3Axs_4core6resultINtB5_6ResultNtNtCs5AlOhPCr03V_3syn5token3LetNtNtBO_5error5ErrorENtNtNtB7_3ops9try_trait3Try6branchBO_, symObjAddr: 0xC3C0, symBinAddr: 0x639D0, symSize: 0x88 }
  - { offset: 0xC7B60, size: 0x8, addend: 0x0, symName: __RNvXso_NtCsfvfooZQ3Axs_4core6resultINtB5_6ResultNtNtCs5AlOhPCr03V_3syn5token3ModNtNtBO_5error5ErrorENtNtNtB7_3ops9try_trait3Try6branchBO_, symObjAddr: 0xC448, symBinAddr: 0x63A58, symSize: 0x88 }
  - { offset: 0xC7BDE, size: 0x8, addend: 0x0, symName: __RNvXso_NtCsfvfooZQ3Axs_4core6resultINtB5_6ResultNtNtCs5AlOhPCr03V_3syn5token3MutNtNtBO_5error5ErrorENtNtNtB7_3ops9try_trait3Try6branchBO_, symObjAddr: 0xC4D0, symBinAddr: 0x63AE0, symSize: 0x88 }
  - { offset: 0xC7C5C, size: 0x8, addend: 0x0, symName: __RNvXso_NtCsfvfooZQ3Axs_4core6resultINtB5_6ResultNtNtCs5AlOhPCr03V_3syn5token3PubNtNtBO_5error5ErrorENtNtNtB7_3ops9try_trait3Try6branchBO_, symObjAddr: 0xC558, symBinAddr: 0x63B68, symSize: 0x88 }
  - { offset: 0xC7CDA, size: 0x8, addend: 0x0, symName: __RNvXso_NtCsfvfooZQ3Axs_4core6resultINtB5_6ResultNtNtCs5AlOhPCr03V_3syn5token3RefNtNtBO_5error5ErrorENtNtNtB7_3ops9try_trait3Try6branchBO_, symObjAddr: 0xC5E0, symBinAddr: 0x63BF0, symSize: 0x88 }
  - { offset: 0xC7D58, size: 0x8, addend: 0x0, symName: __RNvXso_NtCsfvfooZQ3Axs_4core6resultINtB5_6ResultNtNtCs5AlOhPCr03V_3syn5token3SubNtNtBO_5error5ErrorENtNtNtB7_3ops9try_trait3Try6branchBO_, symObjAddr: 0xC668, symBinAddr: 0x63C78, symSize: 0x8C }
  - { offset: 0xC7DD5, size: 0x8, addend: 0x0, symName: __RNvXso_NtCsfvfooZQ3Axs_4core6resultINtB5_6ResultNtNtCs5AlOhPCr03V_3syn5token3TryNtNtBO_5error5ErrorENtNtNtB7_3ops9try_trait3Try6branchBO_, symObjAddr: 0xC6F4, symBinAddr: 0x63D04, symSize: 0x88 }
  - { offset: 0xC7E53, size: 0x8, addend: 0x0, symName: __RNvXso_NtCsfvfooZQ3Axs_4core6resultINtB5_6ResultNtNtCs5AlOhPCr03V_3syn5token3UseNtNtBO_5error5ErrorENtNtNtB7_3ops9try_trait3Try6branchBO_, symObjAddr: 0xC77C, symBinAddr: 0x63D8C, symSize: 0x88 }
  - { offset: 0xC7ED1, size: 0x8, addend: 0x0, symName: __RNvXso_NtCsfvfooZQ3Axs_4core6resultINtB5_6ResultNtNtCs5AlOhPCr03V_3syn5token4AutoNtNtBO_5error5ErrorENtNtNtB7_3ops9try_trait3Try6branchBO_, symObjAddr: 0xC804, symBinAddr: 0x63E14, symSize: 0x88 }
  - { offset: 0xC7F4F, size: 0x8, addend: 0x0, symName: __RNvXso_NtCsfvfooZQ3Axs_4core6resultINtB5_6ResultNtNtCs5AlOhPCr03V_3syn5token4BangNtNtBO_5error5ErrorENtNtNtB7_3ops9try_trait3Try6branchBO_, symObjAddr: 0xC88C, symBinAddr: 0x63E9C, symSize: 0x8C }
  - { offset: 0xC7FCC, size: 0x8, addend: 0x0, symName: __RNvXso_NtCsfvfooZQ3Axs_4core6resultINtB5_6ResultNtNtCs5AlOhPCr03V_3syn5token4Dot2NtNtBO_5error5ErrorENtNtNtB7_3ops9try_trait3Try6branchBO_, symObjAddr: 0xC918, symBinAddr: 0x63F28, symSize: 0x8C }
  - { offset: 0xC8049, size: 0x8, addend: 0x0, symName: __RNvXso_NtCsfvfooZQ3Axs_4core6resultINtB5_6ResultNtNtCs5AlOhPCr03V_3syn5token4Dot3NtNtBO_5error5ErrorENtNtNtB7_3ops9try_trait3Try6branchBO_, symObjAddr: 0xC9A4, symBinAddr: 0x63FB4, symSize: 0x9C }
  - { offset: 0xC80C6, size: 0x8, addend: 0x0, symName: __RNvXso_NtCsfvfooZQ3Axs_4core6resultINtB5_6ResultNtNtCs5AlOhPCr03V_3syn5token4ElseNtNtBO_5error5ErrorENtNtNtB7_3ops9try_trait3Try6branchBO_, symObjAddr: 0xCA40, symBinAddr: 0x64050, symSize: 0x88 }
  - { offset: 0xC8144, size: 0x8, addend: 0x0, symName: __RNvXso_NtCsfvfooZQ3Axs_4core6resultINtB5_6ResultNtNtCs5AlOhPCr03V_3syn5token4EnumNtNtBO_5error5ErrorENtNtNtB7_3ops9try_trait3Try6branchBO_, symObjAddr: 0xCAC8, symBinAddr: 0x640D8, symSize: 0x88 }
  - { offset: 0xC81C2, size: 0x8, addend: 0x0, symName: __RNvXso_NtCsfvfooZQ3Axs_4core6resultINtB5_6ResultNtNtCs5AlOhPCr03V_3syn5token4ImplNtNtBO_5error5ErrorENtNtNtB7_3ops9try_trait3Try6branchBO_, symObjAddr: 0xCB50, symBinAddr: 0x64160, symSize: 0x88 }
  - { offset: 0xC8240, size: 0x8, addend: 0x0, symName: __RNvXso_NtCsfvfooZQ3Axs_4core6resultINtB5_6ResultNtNtCs5AlOhPCr03V_3syn5token4LoopNtNtBO_5error5ErrorENtNtNtB7_3ops9try_trait3Try6branchBO_, symObjAddr: 0xCBD8, symBinAddr: 0x641E8, symSize: 0x88 }
  - { offset: 0xC82BE, size: 0x8, addend: 0x0, symName: __RNvXso_NtCsfvfooZQ3Axs_4core6resultINtB5_6ResultNtNtCs5AlOhPCr03V_3syn5token4MoveNtNtBO_5error5ErrorENtNtNtB7_3ops9try_trait3Try6branchBO_, symObjAddr: 0xCC60, symBinAddr: 0x64270, symSize: 0x88 }
  - { offset: 0xC833C, size: 0x8, addend: 0x0, symName: __RNvXso_NtCsfvfooZQ3Axs_4core6resultINtB5_6ResultNtNtCs5AlOhPCr03V_3syn5token4SemiNtNtBO_5error5ErrorENtNtNtB7_3ops9try_trait3Try6branchBO_, symObjAddr: 0xCCE8, symBinAddr: 0x642F8, symSize: 0x8C }
  - { offset: 0xC83B9, size: 0x8, addend: 0x0, symName: __RNvXso_NtCsfvfooZQ3Axs_4core6resultINtB5_6ResultNtNtCs5AlOhPCr03V_3syn5token4StarNtNtBO_5error5ErrorENtNtNtB7_3ops9try_trait3Try6branchBO_, symObjAddr: 0xCD74, symBinAddr: 0x64384, symSize: 0x8C }
  - { offset: 0xC8436, size: 0x8, addend: 0x0, symName: __RNvXso_NtCsfvfooZQ3Axs_4core6resultINtB5_6ResultNtNtCs5AlOhPCr03V_3syn5token4TypeNtNtBO_5error5ErrorENtNtNtB7_3ops9try_trait3Try6branchBO_, symObjAddr: 0xCE00, symBinAddr: 0x64410, symSize: 0x88 }
  - { offset: 0xC84B4, size: 0x8, addend: 0x0, symName: __RNvXso_NtCsfvfooZQ3Axs_4core6resultINtB5_6ResultNtNtCs5AlOhPCr03V_3syn5token5AsyncNtNtBO_5error5ErrorENtNtNtB7_3ops9try_trait3Try6branchBO_, symObjAddr: 0xCE88, symBinAddr: 0x64498, symSize: 0x88 }
  - { offset: 0xC8532, size: 0x8, addend: 0x0, symName: __RNvXso_NtCsfvfooZQ3Axs_4core6resultINtB5_6ResultNtNtCs5AlOhPCr03V_3syn5token5AwaitNtNtBO_5error5ErrorENtNtNtB7_3ops9try_trait3Try6branchBO_, symObjAddr: 0xCF10, symBinAddr: 0x64520, symSize: 0x88 }
  - { offset: 0xC85B0, size: 0x8, addend: 0x0, symName: __RNvXso_NtCsfvfooZQ3Axs_4core6resultINtB5_6ResultNtNtCs5AlOhPCr03V_3syn5token5BreakNtNtBO_5error5ErrorENtNtNtB7_3ops9try_trait3Try6branchBO_, symObjAddr: 0xCF98, symBinAddr: 0x645A8, symSize: 0x88 }
  - { offset: 0xC862E, size: 0x8, addend: 0x0, symName: __RNvXso_NtCsfvfooZQ3Axs_4core6resultINtB5_6ResultNtNtCs5AlOhPCr03V_3syn5token5ColonNtNtBO_5error5ErrorENtNtNtB7_3ops9try_trait3Try6branchBO_, symObjAddr: 0xD020, symBinAddr: 0x64630, symSize: 0x8C }
  - { offset: 0xC86AB, size: 0x8, addend: 0x0, symName: __RNvXso_NtCsfvfooZQ3Axs_4core6resultINtB5_6ResultNtNtCs5AlOhPCr03V_3syn5token5CommaNtNtBO_5error5ErrorENtNtNtB7_3ops9try_trait3Try6branchBO_, symObjAddr: 0xD0AC, symBinAddr: 0x646BC, symSize: 0x8C }
  - { offset: 0xC8728, size: 0x8, addend: 0x0, symName: __RNvXso_NtCsfvfooZQ3Axs_4core6resultINtB5_6ResultNtNtCs5AlOhPCr03V_3syn5token5ConstNtNtBO_5error5ErrorENtNtNtB7_3ops9try_trait3Try6branchBO_, symObjAddr: 0xD138, symBinAddr: 0x64748, symSize: 0x88 }
  - { offset: 0xC87A6, size: 0x8, addend: 0x0, symName: __RNvXso_NtCsfvfooZQ3Axs_4core6resultINtB5_6ResultNtNtCs5AlOhPCr03V_3syn5token5CrateNtNtBO_5error5ErrorENtNtNtB7_3ops9try_trait3Try6branchBO_, symObjAddr: 0xD1C0, symBinAddr: 0x647D0, symSize: 0x88 }
  - { offset: 0xC8824, size: 0x8, addend: 0x0, symName: __RNvXso_NtCsfvfooZQ3Axs_4core6resultINtB5_6ResultNtNtCs5AlOhPCr03V_3syn5token5MacroNtNtBO_5error5ErrorENtNtNtB7_3ops9try_trait3Try6branchBO_, symObjAddr: 0xD248, symBinAddr: 0x64858, symSize: 0x88 }
  - { offset: 0xC88A2, size: 0x8, addend: 0x0, symName: __RNvXso_NtCsfvfooZQ3Axs_4core6resultINtB5_6ResultNtNtCs5AlOhPCr03V_3syn5token5MatchNtNtBO_5error5ErrorENtNtNtB7_3ops9try_trait3Try6branchBO_, symObjAddr: 0xD2D0, symBinAddr: 0x648E0, symSize: 0x88 }
  - { offset: 0xC8920, size: 0x8, addend: 0x0, symName: __RNvXso_NtCsfvfooZQ3Axs_4core6resultINtB5_6ResultNtNtCs5AlOhPCr03V_3syn5token5PoundNtNtBO_5error5ErrorENtNtNtB7_3ops9try_trait3Try6branchBO_, symObjAddr: 0xD358, symBinAddr: 0x64968, symSize: 0x8C }
  - { offset: 0xC899D, size: 0x8, addend: 0x0, symName: __RNvXso_NtCsfvfooZQ3Axs_4core6resultINtB5_6ResultNtNtCs5AlOhPCr03V_3syn5token5TildeNtNtBO_5error5ErrorENtNtNtB7_3ops9try_trait3Try6branchBO_, symObjAddr: 0xD3E4, symBinAddr: 0x649F4, symSize: 0x8C }
  - { offset: 0xC8A1A, size: 0x8, addend: 0x0, symName: __RNvXso_NtCsfvfooZQ3Axs_4core6resultINtB5_6ResultNtNtCs5AlOhPCr03V_3syn5token5TraitNtNtBO_5error5ErrorENtNtNtB7_3ops9try_trait3Try6branchBO_, symObjAddr: 0xD470, symBinAddr: 0x64A80, symSize: 0x88 }
  - { offset: 0xC8A98, size: 0x8, addend: 0x0, symName: __RNvXso_NtCsfvfooZQ3Axs_4core6resultINtB5_6ResultNtNtCs5AlOhPCr03V_3syn5token5UnionNtNtBO_5error5ErrorENtNtNtB7_3ops9try_trait3Try6branchBO_, symObjAddr: 0xD4F8, symBinAddr: 0x64B08, symSize: 0x88 }
  - { offset: 0xC8B16, size: 0x8, addend: 0x0, symName: __RNvXso_NtCsfvfooZQ3Axs_4core6resultINtB5_6ResultNtNtCs5AlOhPCr03V_3syn5token5WhereNtNtBO_5error5ErrorENtNtNtB7_3ops9try_trait3Try6branchBO_, symObjAddr: 0xD580, symBinAddr: 0x64B90, symSize: 0x88 }
  - { offset: 0xC8B94, size: 0x8, addend: 0x0, symName: __RNvXso_NtCsfvfooZQ3Axs_4core6resultINtB5_6ResultNtNtCs5AlOhPCr03V_3syn5token5WhileNtNtBO_5error5ErrorENtNtNtB7_3ops9try_trait3Try6branchBO_, symObjAddr: 0xD608, symBinAddr: 0x64C18, symSize: 0x88 }
  - { offset: 0xC8C12, size: 0x8, addend: 0x0, symName: __RNvXso_NtCsfvfooZQ3Axs_4core6resultINtB5_6ResultNtNtCs5AlOhPCr03V_3syn5token5YieldNtNtBO_5error5ErrorENtNtNtB7_3ops9try_trait3Try6branchBO_, symObjAddr: 0xD690, symBinAddr: 0x64CA0, symSize: 0x88 }
  - { offset: 0xC8C90, size: 0x8, addend: 0x0, symName: __RNvXso_NtCsfvfooZQ3Axs_4core6resultINtB5_6ResultNtNtCs5AlOhPCr03V_3syn5token6Colon2NtNtBO_5error5ErrorENtNtNtB7_3ops9try_trait3Try6branchBO_, symObjAddr: 0xD718, symBinAddr: 0x64D28, symSize: 0x8C }
  - { offset: 0xC8D0D, size: 0x8, addend: 0x0, symName: __RNvXso_NtCsfvfooZQ3Axs_4core6resultINtB5_6ResultNtNtCs5AlOhPCr03V_3syn5token6ExternNtNtBO_5error5ErrorENtNtNtB7_3ops9try_trait3Try6branchBO_, symObjAddr: 0xD7A4, symBinAddr: 0x64DB4, symSize: 0x88 }
  - { offset: 0xC8D8B, size: 0x8, addend: 0x0, symName: __RNvXso_NtCsfvfooZQ3Axs_4core6resultINtB5_6ResultNtNtCs5AlOhPCr03V_3syn5token6RArrowNtNtBO_5error5ErrorENtNtNtB7_3ops9try_trait3Try6branchBO_, symObjAddr: 0xD82C, symBinAddr: 0x64E3C, symSize: 0x8C }
  - { offset: 0xC8E08, size: 0x8, addend: 0x0, symName: __RNvXso_NtCsfvfooZQ3Axs_4core6resultINtB5_6ResultNtNtCs5AlOhPCr03V_3syn5token6ReturnNtNtBO_5error5ErrorENtNtNtB7_3ops9try_trait3Try6branchBO_, symObjAddr: 0xD8B8, symBinAddr: 0x64EC8, symSize: 0x88 }
  - { offset: 0xC8E86, size: 0x8, addend: 0x0, symName: __RNvXso_NtCsfvfooZQ3Axs_4core6resultINtB5_6ResultNtNtCs5AlOhPCr03V_3syn5token6StaticNtNtBO_5error5ErrorENtNtNtB7_3ops9try_trait3Try6branchBO_, symObjAddr: 0xD940, symBinAddr: 0x64F50, symSize: 0x88 }
  - { offset: 0xC8F04, size: 0x8, addend: 0x0, symName: __RNvXso_NtCsfvfooZQ3Axs_4core6resultINtB5_6ResultNtNtCs5AlOhPCr03V_3syn5token6StructNtNtBO_5error5ErrorENtNtNtB7_3ops9try_trait3Try6branchBO_, symObjAddr: 0xD9C8, symBinAddr: 0x64FD8, symSize: 0x88 }
  - { offset: 0xC8F82, size: 0x8, addend: 0x0, symName: __RNvXso_NtCsfvfooZQ3Axs_4core6resultINtB5_6ResultNtNtCs5AlOhPCr03V_3syn5token6UnsafeNtNtBO_5error5ErrorENtNtNtB7_3ops9try_trait3Try6branchBO_, symObjAddr: 0xDA50, symBinAddr: 0x65060, symSize: 0x88 }
  - { offset: 0xC9000, size: 0x8, addend: 0x0, symName: __RNvXso_NtCsfvfooZQ3Axs_4core6resultINtB5_6ResultNtNtCs5AlOhPCr03V_3syn5token7DefaultNtNtBO_5error5ErrorENtNtNtB7_3ops9try_trait3Try6branchBO_, symObjAddr: 0xDAD8, symBinAddr: 0x650E8, symSize: 0x88 }
  - { offset: 0xC907E, size: 0x8, addend: 0x0, symName: __RNvXso_NtCsfvfooZQ3Axs_4core6resultINtB5_6ResultNtNtCs5AlOhPCr03V_3syn5token8ContinueNtNtBO_5error5ErrorENtNtNtB7_3ops9try_trait3Try6branchBO_, symObjAddr: 0xDB60, symBinAddr: 0x65170, symSize: 0x88 }
  - { offset: 0xC90FC, size: 0x8, addend: 0x0, symName: __RNvXso_NtCsfvfooZQ3Axs_4core6resultINtB5_6ResultNtNtCs5AlOhPCr03V_3syn5token8FatArrowNtNtBO_5error5ErrorENtNtNtB7_3ops9try_trait3Try6branchBO_, symObjAddr: 0xDBE8, symBinAddr: 0x651F8, symSize: 0x8C }
  - { offset: 0xC9179, size: 0x8, addend: 0x0, symName: __RNvXso_NtCsfvfooZQ3Axs_4core6resultINtB5_6ResultNtNtCs5AlOhPCr03V_3syn5token8QuestionNtNtBO_5error5ErrorENtNtNtB7_3ops9try_trait3Try6branchBO_, symObjAddr: 0xDC74, symBinAddr: 0x65284, symSize: 0x8C }
  - { offset: 0xC91F6, size: 0x8, addend: 0x0, symName: __RNvXso_NtCsfvfooZQ3Axs_4core6resultINtB5_6ResultNtNtCs5AlOhPCr03V_3syn5token9SelfValueNtNtBO_5error5ErrorENtNtNtB7_3ops9try_trait3Try6branchBO_, symObjAddr: 0xDD00, symBinAddr: 0x65310, symSize: 0x88 }
  - { offset: 0xC9274, size: 0x8, addend: 0x0, symName: __RNvXso_NtCsfvfooZQ3Axs_4core6resultINtB5_6ResultNtNtCs5AlOhPCr03V_3syn8generics10ConstParamNtNtBO_5error5ErrorENtNtNtB7_3ops9try_trait3Try6branchBO_, symObjAddr: 0xDD88, symBinAddr: 0x65398, symSize: 0xB8 }
  - { offset: 0xC92F2, size: 0x8, addend: 0x0, symName: __RNvXso_NtCsfvfooZQ3Axs_4core6resultINtB5_6ResultNtNtCs5AlOhPCr03V_3syn8generics10TraitBoundNtNtBO_5error5ErrorENtNtNtB7_3ops9try_trait3Try6branchBO_, symObjAddr: 0xDE40, symBinAddr: 0x65450, symSize: 0xB0 }
  - { offset: 0xC936F, size: 0x8, addend: 0x0, symName: __RNvXso_NtCsfvfooZQ3Axs_4core6resultINtB5_6ResultNtNtCs5AlOhPCr03V_3syn8generics11LifetimeDefNtNtBO_5error5ErrorENtNtNtB7_3ops9try_trait3Try6branchBO_, symObjAddr: 0xDEF0, symBinAddr: 0x65500, symSize: 0xB0 }
  - { offset: 0xC93EC, size: 0x8, addend: 0x0, symName: __RNvXso_NtCsfvfooZQ3Axs_4core6resultINtB5_6ResultNtNtCs5AlOhPCr03V_3syn8generics11WhereClauseNtNtBO_5error5ErrorENtNtNtB7_3ops9try_trait3Try6branchBO_, symObjAddr: 0xDFA0, symBinAddr: 0x655B0, symSize: 0xB0 }
  - { offset: 0xC9469, size: 0x8, addend: 0x0, symName: __RNvXso_NtCsfvfooZQ3Axs_4core6resultINtB5_6ResultNtNtCs5AlOhPCr03V_3syn8generics14BoundLifetimesNtNtBO_5error5ErrorENtNtNtB7_3ops9try_trait3Try6branchBO_, symObjAddr: 0xE050, symBinAddr: 0x65660, symSize: 0xB0 }
  - { offset: 0xC94E6, size: 0x8, addend: 0x0, symName: __RNvXso_NtCsfvfooZQ3Axs_4core6resultINtB5_6ResultNtNtCs5AlOhPCr03V_3syn8generics14TypeParamBoundNtNtBO_5error5ErrorENtNtNtB7_3ops9try_trait3Try6branchBO_, symObjAddr: 0xE100, symBinAddr: 0x65710, symSize: 0xB0 }
  - { offset: 0xC9563, size: 0x8, addend: 0x0, symName: __RNvXso_NtCsfvfooZQ3Axs_4core6resultINtB5_6ResultNtNtCs5AlOhPCr03V_3syn8generics14WherePredicateNtNtBO_5error5ErrorENtNtNtB7_3ops9try_trait3Try6branchBO_, symObjAddr: 0xE1B0, symBinAddr: 0x657C0, symSize: 0xCC }
  - { offset: 0xC95E1, size: 0x8, addend: 0x0, symName: __RNvXso_NtCsfvfooZQ3Axs_4core6resultINtB5_6ResultNtNtCs5AlOhPCr03V_3syn8generics18TraitBoundModifierNtNtBO_5error5ErrorENtNtNtB7_3ops9try_trait3Try6branchBO_, symObjAddr: 0xE27C, symBinAddr: 0x6588C, symSize: 0x8C }
  - { offset: 0xC965E, size: 0x8, addend: 0x0, symName: __RNvXso_NtCsfvfooZQ3Axs_4core6resultINtB5_6ResultNtNtCs5AlOhPCr03V_3syn8generics8GenericsNtNtBO_5error5ErrorENtNtNtB7_3ops9try_trait3Try6branchBO_, symObjAddr: 0xE308, symBinAddr: 0x65918, symSize: 0xB0 }
  - { offset: 0xC96DB, size: 0x8, addend: 0x0, symName: __RNvXso_NtCsfvfooZQ3Axs_4core6resultINtB5_6ResultNtNtCs5AlOhPCr03V_3syn8generics9TypeParamNtNtBO_5error5ErrorENtNtNtB7_3ops9try_trait3Try6branchBO_, symObjAddr: 0xE3B8, symBinAddr: 0x659C8, symSize: 0xC4 }
  - { offset: 0xC9759, size: 0x8, addend: 0x0, symName: __RNvXso_NtCsfvfooZQ3Axs_4core6resultINtB5_6ResultNtNtCs5AlOhPCr03V_3syn8lifetime8LifetimeNtNtBO_5error5ErrorENtNtNtB7_3ops9try_trait3Try6branchBO_, symObjAddr: 0xE47C, symBinAddr: 0x65A8C, symSize: 0x94 }
  - { offset: 0xC97D6, size: 0x8, addend: 0x0, symName: __RNvXso_NtCsfvfooZQ3Axs_4core6resultINtB5_6ResultNtNtNtCs5AlOhPCr03V_3syn4expr7parsing3rawNtNtBQ_5error5ErrorENtNtNtB7_3ops9try_trait3Try6branchBQ_, symObjAddr: 0xE510, symBinAddr: 0x65B20, symSize: 0x88 }
  - { offset: 0xC9854, size: 0x8, addend: 0x0, symName: __RNvXso_NtCsfvfooZQ3Axs_4core6resultINtB5_6ResultNtNtNtCs5AlOhPCr03V_3syn4item7parsing16FlexibleItemTypeNtNtBQ_5error5ErrorENtNtNtB7_3ops9try_trait3Try6branchBQ_, symObjAddr: 0xE598, symBinAddr: 0x65BA8, symSize: 0xB8 }
  - { offset: 0xC98D2, size: 0x8, addend: 0x0, symName: __RNvXso_NtCsfvfooZQ3Axs_4core6resultINtB5_6ResultTINtNtB7_6option6OptionNtNtCs5AlOhPCr03V_3syn4path5QSelfENtB19_4PathENtNtB1b_5error5ErrorENtNtNtB7_3ops9try_trait3Try6branchB1b_, symObjAddr: 0xE650, symBinAddr: 0x65C60, symSize: 0xB0 }
  - { offset: 0xC994F, size: 0x8, addend: 0x0, symName: __RNvXso_NtCsfvfooZQ3Axs_4core6resultINtB5_6ResultTINtNtB7_6option6OptionNtNtCs5AlOhPCr03V_3syn8generics11WhereClauseENtNtB1b_4data11FieldsNamedENtNtB1b_5error5ErrorENtNtNtB7_3ops9try_trait3Try6branchB1b_, symObjAddr: 0xE700, symBinAddr: 0x65D10, symSize: 0xB0 }
  - { offset: 0xC99CC, size: 0x8, addend: 0x0, symName: __RNvXso_NtCsfvfooZQ3Axs_4core6resultINtB5_6ResultTINtNtB7_6option6OptionNtNtCs5AlOhPCr03V_3syn8generics11WhereClauseENtNtB1b_4data6FieldsIBM_NtNtB1b_5token4SemiEENtNtB1b_5error5ErrorENtNtNtB7_3ops9try_trait3Try6branchB1b_, symObjAddr: 0xE7B0, symBinAddr: 0x65DC0, symSize: 0xAC }
  - { offset: 0xC9A49, size: 0x8, addend: 0x0, symName: __RNvXso_NtCsfvfooZQ3Axs_4core6resultINtB5_6ResultTINtNtB7_6option6OptionNtNtCs5AlOhPCr03V_3syn8generics11WhereClauseENtNtB1b_5token5BraceINtNtB1b_10punctuated10PunctuatedNtNtB1b_4data7VariantNtB1S_5CommaEENtNtB1b_5error5ErrorENtNtNtB7_3ops9try_trait3Try6branchB1b_, symObjAddr: 0xE85C, symBinAddr: 0x65E6C, symSize: 0xB0 }
  - { offset: 0xC9AC6, size: 0x8, addend: 0x0, symName: __RNvXso_NtCsfvfooZQ3Axs_4core6resultINtB5_6ResultTINtNtCse1nGBsou5OW_5alloc3vec3VecNtNtCs5AlOhPCr03V_3syn4attr9AttributeENtNtB1m_4data10VisibilityNtNtB1m_5token5TraitNtCs3cP53eQoTwO_11proc_macro25IdentNtNtB1m_8generics8GenericsENtNtB1m_5error5ErrorENtNtNtB7_3ops9try_trait3Try6branchB1m_, symObjAddr: 0xE90C, symBinAddr: 0x65F1C, symSize: 0xC4 }
  - { offset: 0xC9B44, size: 0x8, addend: 0x0, symName: __RNvXso_NtCsfvfooZQ3Axs_4core6resultINtB5_6ResultTNtCs3cP53eQoTwO_11proc_macro211TokenStreamNtNtCs5AlOhPCr03V_3syn6buffer6CursorENtNtB1v_5error5ErrorENtNtNtB7_3ops9try_trait3Try6branchB1v_, symObjAddr: 0xE9D0, symBinAddr: 0x65FE0, symSize: 0xB0 }
  - { offset: 0xC9BC1, size: 0x8, addend: 0x0, symName: __RNvXso_NtCsfvfooZQ3Axs_4core6resultINtB5_6ResultTNtCs3cP53eQoTwO_11proc_macro24SpanNtNtCs5AlOhPCr03V_3syn6buffer6CursorENtNtB1n_5error5ErrorENtNtNtB7_3ops9try_trait3Try6branchB1n_, symObjAddr: 0xEA80, symBinAddr: 0x66090, symSize: 0x94 }
  - { offset: 0xC9C3E, size: 0x8, addend: 0x0, symName: __RNvXso_NtCsfvfooZQ3Axs_4core6resultINtB5_6ResultTNtCs3cP53eQoTwO_11proc_macro25IdentNtNtCs5AlOhPCr03V_3syn6buffer6CursorENtNtB1o_5error5ErrorENtNtNtB7_3ops9try_trait3Try6branchB1o_, symObjAddr: 0xEBC0, symBinAddr: 0x66124, symSize: 0xB0 }
  - { offset: 0xC9CBB, size: 0x8, addend: 0x0, symName: __RNvXso_NtCsfvfooZQ3Axs_4core6resultINtB5_6ResultTNtCs3cP53eQoTwO_11proc_macro29TokenTreeNtNtCs5AlOhPCr03V_3syn6buffer6CursorENtNtB1s_5error5ErrorENtNtNtB7_3ops9try_trait3Try6branchB1s_, symObjAddr: 0xEDBC, symBinAddr: 0x661D4, symSize: 0xAC }
  - { offset: 0xC9D38, size: 0x8, addend: 0x0, symName: __RNvXso_NtCsfvfooZQ3Axs_4core6resultINtB5_6ResultTNtNtCs5AlOhPCr03V_3syn3lit3LitNtNtBP_6buffer6CursorENtNtBP_5error5ErrorENtNtNtB7_3ops9try_trait3Try6branchBP_, symObjAddr: 0xEE68, symBinAddr: 0x66280, symSize: 0xB8 }
  - { offset: 0xC9DB5, size: 0x8, addend: 0x0, symName: __RNvXso_NtCsfvfooZQ3Axs_4core6resultINtB5_6ResultTNtNtCs5AlOhPCr03V_3syn3mac14MacroDelimiterNtCs3cP53eQoTwO_11proc_macro211TokenStreamENtNtBP_5error5ErrorENtNtNtB7_3ops9try_trait3Try6branchBP_, symObjAddr: 0xEF20, symBinAddr: 0x66338, symSize: 0xB0 }
  - { offset: 0xC9E32, size: 0x8, addend: 0x0, symName: __RNvXso_NtCsfvfooZQ3Axs_4core6resultINtB5_6ResultTNtNtCs5AlOhPCr03V_3syn5token10UnderscoreNtNtBP_6buffer6CursorENtNtBP_5error5ErrorENtNtNtB7_3ops9try_trait3Try6branchBP_, symObjAddr: 0xEFD0, symBinAddr: 0x663E8, symSize: 0x94 }
  - { offset: 0xC9EAF, size: 0x8, addend: 0x0, symName: __RNvXso_NtCsfvfooZQ3Axs_4core6resultINtB5_6ResultTNtNtCs5AlOhPCr03V_3syn5token4ElseINtNtCse1nGBsou5OW_5alloc5boxed3BoxNtNtBP_4expr4ExprEENtNtBP_5error5ErrorENtNtNtB7_3ops9try_trait3Try6branchBP_, symObjAddr: 0xF064, symBinAddr: 0x6647C, symSize: 0x94 }
  - { offset: 0xC9F2D, size: 0x8, addend: 0x0, symName: __RNvXso_NtCsfvfooZQ3Axs_4core6resultINtB5_6ResultTNtNtCs5AlOhPCr03V_3syn8lifetime8LifetimeNtNtBP_6buffer6CursorENtNtBP_5error5ErrorENtNtNtB7_3ops9try_trait3Try6branchBP_, symObjAddr: 0xF0F8, symBinAddr: 0x66510, symSize: 0xAC }
  - { offset: 0xC9FAA, size: 0x8, addend: 0x0, symName: __RNvXso_NtCsfvfooZQ3Axs_4core6resultINtB5_6ResultTNtNtNtCs5AlOhPCr03V_3syn4expr7parsing3rawNtNtBR_6buffer6CursorENtNtBR_5error5ErrorENtNtNtB7_3ops9try_trait3Try6branchBR_, symObjAddr: 0xF1A4, symBinAddr: 0x665BC, symSize: 0x94 }
  - { offset: 0xCA027, size: 0x8, addend: 0x0, symName: __RNvXso_NtCsfvfooZQ3Axs_4core6resultINtB5_6ResultTTNtCs3cP53eQoTwO_11proc_macro24SpanNtNtCs5AlOhPCr03V_3syn5parse11ParseBufferENtNtB1o_6buffer6CursorENtNtB1o_5error5ErrorENtNtNtB7_3ops9try_trait3Try6branchB1o_, symObjAddr: 0xF2CC, symBinAddr: 0x66650, symSize: 0xB0 }
  - { offset: 0xCA0A4, size: 0x8, addend: 0x0, symName: __RNvXso_NtCsfvfooZQ3Axs_4core6resultINtB5_6ResultTTNtNtCs5AlOhPCr03V_3syn3mac14MacroDelimiterNtCs3cP53eQoTwO_11proc_macro211TokenStreamENtNtBQ_6buffer6CursorENtNtBQ_5error5ErrorENtNtNtB7_3ops9try_trait3Try6branchBQ_, symObjAddr: 0xF37C, symBinAddr: 0x66700, symSize: 0xB0 }
  - { offset: 0xCA121, size: 0x8, addend: 0x0, symName: __RNvXso_NtCsfvfooZQ3Axs_4core6resultINtB5_6ResultTuNtNtCs5AlOhPCr03V_3syn6buffer6CursorENtNtBQ_5error5ErrorENtNtNtB7_3ops9try_trait3Try6branchBQ_, symObjAddr: 0xF42C, symBinAddr: 0x667B0, symSize: 0x94 }
  - { offset: 0xCA19F, size: 0x8, addend: 0x0, symName: __RNvXso_NtCsfvfooZQ3Axs_4core6resultINtB5_6ResultbNtNtCs5AlOhPCr03V_3syn5error5ErrorENtNtNtB7_3ops9try_trait3Try6branchBP_, symObjAddr: 0xF4C0, symBinAddr: 0x66844, symSize: 0x94 }
  - { offset: 0xCA21D, size: 0x8, addend: 0x0, symName: __RNvXso_NtCsfvfooZQ3Axs_4core6resultINtB5_6ResultmNtNtCs5AlOhPCr03V_3syn5error5ErrorENtNtNtB7_3ops9try_trait3Try6branchBP_, symObjAddr: 0xF554, symBinAddr: 0x668D8, symSize: 0x88 }
  - { offset: 0xCA29B, size: 0x8, addend: 0x0, symName: __RNvXso_NtCsfvfooZQ3Axs_4core6resultINtB5_6ResultuNtNtCs5AlOhPCr03V_3syn5error5ErrorENtNtNtB7_3ops9try_trait3Try6branchBP_, symObjAddr: 0xF5DC, symBinAddr: 0x66960, symSize: 0x78 }
  - { offset: 0xCA31F, size: 0x8, addend: 0x0, symName: __RNvXsp_NtCsfvfooZQ3Axs_4core6resultINtB5_6ResultANtCs3cP53eQoTwO_11proc_macro24Spanj1_NtNtCs5AlOhPCr03V_3syn5error5ErrorEINtNtNtB7_3ops9try_trait12FromResidualIBy_NtNtB7_7convert10InfallibleB1m_EE13from_residualB1q_, symObjAddr: 0xF684, symBinAddr: 0x669D8, symSize: 0x40 }
  - { offset: 0xCA3A4, size: 0x8, addend: 0x0, symName: __RNvXsp_NtCsfvfooZQ3Axs_4core6resultINtB5_6ResultANtCs3cP53eQoTwO_11proc_macro24Spanj2_NtNtCs5AlOhPCr03V_3syn5error5ErrorEINtNtNtB7_3ops9try_trait12FromResidualIBy_NtNtB7_7convert10InfallibleB1m_EE13from_residualB1q_, symObjAddr: 0xF6C4, symBinAddr: 0x66A18, symSize: 0x40 }
  - { offset: 0xCA429, size: 0x8, addend: 0x0, symName: __RNvXsp_NtCsfvfooZQ3Axs_4core6resultINtB5_6ResultANtCs3cP53eQoTwO_11proc_macro24Spanj3_NtNtCs5AlOhPCr03V_3syn5error5ErrorEINtNtNtB7_3ops9try_trait12FromResidualIBy_NtNtB7_7convert10InfallibleB1m_EE13from_residualB1q_, symObjAddr: 0xF704, symBinAddr: 0x66A58, symSize: 0x40 }
  - { offset: 0xCA4AE, size: 0x8, addend: 0x0, symName: __RNvXsp_NtCsfvfooZQ3Axs_4core6resultINtB5_6ResultINtNtB7_6option6OptionINtNtCse1nGBsou5OW_5alloc5boxed3BoxNtNtCs5AlOhPCr03V_3syn4expr4ExprEENtNtB1J_5error5ErrorEINtNtNtB7_3ops9try_trait12FromResidualIBy_NtNtB7_7convert10InfallibleB2d_EE13from_residualB1J_, symObjAddr: 0xF744, symBinAddr: 0x66A98, symSize: 0x40 }
  - { offset: 0xCA533, size: 0x8, addend: 0x0, symName: __RNvXsp_NtCsfvfooZQ3Axs_4core6resultINtB5_6ResultINtNtB7_6option6OptionNtCs3cP53eQoTwO_11proc_macro25IdentENtNtCs5AlOhPCr03V_3syn5error5ErrorEINtNtNtB7_3ops9try_trait12FromResidualIBy_NtNtB7_7convert10InfallibleB1G_EE13from_residualB1K_, symObjAddr: 0xF784, symBinAddr: 0x66AD8, symSize: 0x48 }
  - { offset: 0xCA5B8, size: 0x8, addend: 0x0, symName: __RNvXsp_NtCsfvfooZQ3Axs_4core6resultINtB5_6ResultINtNtB7_6option6OptionNtNtCs5AlOhPCr03V_3syn2ty10TypeBareFnENtNtB1a_5error5ErrorEINtNtNtB7_3ops9try_trait12FromResidualIBy_NtNtB7_7convert10InfallibleB1I_EE13from_residualB1a_, symObjAddr: 0xF7CC, symBinAddr: 0x66B20, symSize: 0x48 }
  - { offset: 0xCA63D, size: 0x8, addend: 0x0, symName: __RNvXsp_NtCsfvfooZQ3Axs_4core6resultINtB5_6ResultINtNtB7_6option6OptionNtNtCs5AlOhPCr03V_3syn2ty9BareFnArgENtNtB1a_5error5ErrorEINtNtNtB7_3ops9try_trait12FromResidualIBy_NtNtB7_7convert10InfallibleB1G_EE13from_residualB1a_, symObjAddr: 0xF814, symBinAddr: 0x66B68, symSize: 0x48 }
  - { offset: 0xCA6C2, size: 0x8, addend: 0x0, symName: __RNvXsp_NtCsfvfooZQ3Axs_4core6resultINtB5_6ResultINtNtB7_6option6OptionNtNtCs5AlOhPCr03V_3syn3lit6LitStrENtNtB1a_5error5ErrorEINtNtNtB7_3ops9try_trait12FromResidualIBy_NtNtB7_7convert10InfallibleB1E_EE13from_residualB1a_, symObjAddr: 0xF85C, symBinAddr: 0x66BB0, symSize: 0x40 }
  - { offset: 0xCA747, size: 0x8, addend: 0x0, symName: __RNvXsp_NtCsfvfooZQ3Axs_4core6resultINtB5_6ResultINtNtB7_6option6OptionNtNtCs5AlOhPCr03V_3syn3lit8LitFloatENtNtB1a_5error5ErrorEINtNtNtB7_3ops9try_trait12FromResidualIBy_NtNtB7_7convert10InfallibleB1G_EE13from_residualB1a_, symObjAddr: 0xF89C, symBinAddr: 0x66BF0, symSize: 0x40 }
  - { offset: 0xCA7CC, size: 0x8, addend: 0x0, symName: __RNvXsp_NtCsfvfooZQ3Axs_4core6resultINtB5_6ResultINtNtB7_6option6OptionNtNtCs5AlOhPCr03V_3syn4item8ItemImplENtNtB1a_5error5ErrorEINtNtNtB7_3ops9try_trait12FromResidualIBy_NtNtB7_7convert10InfallibleB1H_EE13from_residualB1a_, symObjAddr: 0xF8DC, symBinAddr: 0x66C30, symSize: 0x48 }
  - { offset: 0xCA851, size: 0x8, addend: 0x0, symName: __RNvXsp_NtCsfvfooZQ3Axs_4core6resultINtB5_6ResultINtNtB7_6option6OptionNtNtCs5AlOhPCr03V_3syn5token2EqENtNtB1a_5error5ErrorEINtNtNtB7_3ops9try_trait12FromResidualIBy_NtNtB7_7convert10InfallibleB1C_EE13from_residualB1a_, symObjAddr: 0xF924, symBinAddr: 0x66C78, symSize: 0x40 }
  - { offset: 0xCA8D6, size: 0x8, addend: 0x0, symName: __RNvXsp_NtCsfvfooZQ3Axs_4core6resultINtB5_6ResultINtNtB7_6option6OptionNtNtCs5AlOhPCr03V_3syn5token2OrENtNtB1a_5error5ErrorEINtNtNtB7_3ops9try_trait12FromResidualIBy_NtNtB7_7convert10InfallibleB1C_EE13from_residualB1a_, symObjAddr: 0xF964, symBinAddr: 0x66CB8, symSize: 0x40 }
  - { offset: 0xCA95B, size: 0x8, addend: 0x0, symName: __RNvXsp_NtCsfvfooZQ3Axs_4core6resultINtB5_6ResultINtNtB7_6option6OptionNtNtCs5AlOhPCr03V_3syn5token3AddENtNtB1a_5error5ErrorEINtNtNtB7_3ops9try_trait12FromResidualIBy_NtNtB7_7convert10InfallibleB1D_EE13from_residualB1a_, symObjAddr: 0xF9A4, symBinAddr: 0x66CF8, symSize: 0x40 }
  - { offset: 0xCA9E0, size: 0x8, addend: 0x0, symName: __RNvXsp_NtCsfvfooZQ3Axs_4core6resultINtB5_6ResultINtNtB7_6option6OptionNtNtCs5AlOhPCr03V_3syn5token3BoxENtNtB1a_5error5ErrorEINtNtNtB7_3ops9try_trait12FromResidualIBy_NtNtB7_7convert10InfallibleB1D_EE13from_residualB1a_, symObjAddr: 0xF9E4, symBinAddr: 0x66D38, symSize: 0x40 }
  - { offset: 0xCAA65, size: 0x8, addend: 0x0, symName: __RNvXsp_NtCsfvfooZQ3Axs_4core6resultINtB5_6ResultINtNtB7_6option6OptionNtNtCs5AlOhPCr03V_3syn5token3DynENtNtB1a_5error5ErrorEINtNtNtB7_3ops9try_trait12FromResidualIBy_NtNtB7_7convert10InfallibleB1D_EE13from_residualB1a_, symObjAddr: 0xFA24, symBinAddr: 0x66D78, symSize: 0x40 }
  - { offset: 0xCAAEA, size: 0x8, addend: 0x0, symName: __RNvXsp_NtCsfvfooZQ3Axs_4core6resultINtB5_6ResultINtNtB7_6option6OptionNtNtCs5AlOhPCr03V_3syn5token3MutENtNtB1a_5error5ErrorEINtNtNtB7_3ops9try_trait12FromResidualIBy_NtNtB7_7convert10InfallibleB1D_EE13from_residualB1a_, symObjAddr: 0xFA64, symBinAddr: 0x66DB8, symSize: 0x40 }
  - { offset: 0xCAB6F, size: 0x8, addend: 0x0, symName: __RNvXsp_NtCsfvfooZQ3Axs_4core6resultINtB5_6ResultINtNtB7_6option6OptionNtNtCs5AlOhPCr03V_3syn5token3RefENtNtB1a_5error5ErrorEINtNtNtB7_3ops9try_trait12FromResidualIBy_NtNtB7_7convert10InfallibleB1D_EE13from_residualB1a_, symObjAddr: 0xFAA4, symBinAddr: 0x66DF8, symSize: 0x40 }
  - { offset: 0xCABF4, size: 0x8, addend: 0x0, symName: __RNvXsp_NtCsfvfooZQ3Axs_4core6resultINtB5_6ResultINtNtB7_6option6OptionNtNtCs5AlOhPCr03V_3syn5token3SubENtNtB1a_5error5ErrorEINtNtNtB7_3ops9try_trait12FromResidualIBy_NtNtB7_7convert10InfallibleB1D_EE13from_residualB1a_, symObjAddr: 0xFAE4, symBinAddr: 0x66E38, symSize: 0x40 }
  - { offset: 0xCAC79, size: 0x8, addend: 0x0, symName: __RNvXsp_NtCsfvfooZQ3Axs_4core6resultINtB5_6ResultINtNtB7_6option6OptionNtNtCs5AlOhPCr03V_3syn5token4AutoENtNtB1a_5error5ErrorEINtNtNtB7_3ops9try_trait12FromResidualIBy_NtNtB7_7convert10InfallibleB1E_EE13from_residualB1a_, symObjAddr: 0xFB24, symBinAddr: 0x66E78, symSize: 0x40 }
  - { offset: 0xCACFE, size: 0x8, addend: 0x0, symName: __RNvXsp_NtCsfvfooZQ3Axs_4core6resultINtB5_6ResultINtNtB7_6option6OptionNtNtCs5AlOhPCr03V_3syn5token4Dot3ENtNtB1a_5error5ErrorEINtNtNtB7_3ops9try_trait12FromResidualIBy_NtNtB7_7convert10InfallibleB1E_EE13from_residualB1a_, symObjAddr: 0xFB64, symBinAddr: 0x66EB8, symSize: 0x40 }
  - { offset: 0xCAD83, size: 0x8, addend: 0x0, symName: __RNvXsp_NtCsfvfooZQ3Axs_4core6resultINtB5_6ResultINtNtB7_6option6OptionNtNtCs5AlOhPCr03V_3syn5token4MoveENtNtB1a_5error5ErrorEINtNtNtB7_3ops9try_trait12FromResidualIBy_NtNtB7_7convert10InfallibleB1E_EE13from_residualB1a_, symObjAddr: 0xFBA4, symBinAddr: 0x66EF8, symSize: 0x40 }
  - { offset: 0xCAE08, size: 0x8, addend: 0x0, symName: __RNvXsp_NtCsfvfooZQ3Axs_4core6resultINtB5_6ResultINtNtB7_6option6OptionNtNtCs5AlOhPCr03V_3syn5token4SemiENtNtB1a_5error5ErrorEINtNtNtB7_3ops9try_trait12FromResidualIBy_NtNtB7_7convert10InfallibleB1E_EE13from_residualB1a_, symObjAddr: 0xFBE4, symBinAddr: 0x66F38, symSize: 0x40 }
  - { offset: 0xCAE8D, size: 0x8, addend: 0x0, symName: __RNvXsp_NtCsfvfooZQ3Axs_4core6resultINtB5_6ResultINtNtB7_6option6OptionNtNtCs5AlOhPCr03V_3syn5token4StarENtNtB1a_5error5ErrorEINtNtNtB7_3ops9try_trait12FromResidualIBy_NtNtB7_7convert10InfallibleB1E_EE13from_residualB1a_, symObjAddr: 0xFC24, symBinAddr: 0x66F78, symSize: 0x40 }
  - { offset: 0xCAF12, size: 0x8, addend: 0x0, symName: __RNvXsp_NtCsfvfooZQ3Axs_4core6resultINtB5_6ResultINtNtB7_6option6OptionNtNtCs5AlOhPCr03V_3syn5token5AsyncENtNtB1a_5error5ErrorEINtNtNtB7_3ops9try_trait12FromResidualIBy_NtNtB7_7convert10InfallibleB1F_EE13from_residualB1a_, symObjAddr: 0xFC64, symBinAddr: 0x66FB8, symSize: 0x40 }
  - { offset: 0xCAF97, size: 0x8, addend: 0x0, symName: __RNvXsp_NtCsfvfooZQ3Axs_4core6resultINtB5_6ResultINtNtB7_6option6OptionNtNtCs5AlOhPCr03V_3syn5token5AwaitENtNtB1a_5error5ErrorEINtNtNtB7_3ops9try_trait12FromResidualIBy_NtNtB7_7convert10InfallibleB1F_EE13from_residualB1a_, symObjAddr: 0xFCA4, symBinAddr: 0x66FF8, symSize: 0x40 }
  - { offset: 0xCB01C, size: 0x8, addend: 0x0, symName: __RNvXsp_NtCsfvfooZQ3Axs_4core6resultINtB5_6ResultINtNtB7_6option6OptionNtNtCs5AlOhPCr03V_3syn5token5ColonENtNtB1a_5error5ErrorEINtNtNtB7_3ops9try_trait12FromResidualIBy_NtNtB7_7convert10InfallibleB1F_EE13from_residualB1a_, symObjAddr: 0xFCE4, symBinAddr: 0x67038, symSize: 0x40 }
  - { offset: 0xCB0A1, size: 0x8, addend: 0x0, symName: __RNvXsp_NtCsfvfooZQ3Axs_4core6resultINtB5_6ResultINtNtB7_6option6OptionNtNtCs5AlOhPCr03V_3syn5token5CommaENtNtB1a_5error5ErrorEINtNtNtB7_3ops9try_trait12FromResidualIBy_NtNtB7_7convert10InfallibleB1F_EE13from_residualB1a_, symObjAddr: 0xFD24, symBinAddr: 0x67078, symSize: 0x40 }
  - { offset: 0xCB126, size: 0x8, addend: 0x0, symName: __RNvXsp_NtCsfvfooZQ3Axs_4core6resultINtB5_6ResultINtNtB7_6option6OptionNtNtCs5AlOhPCr03V_3syn5token5ConstENtNtB1a_5error5ErrorEINtNtNtB7_3ops9try_trait12FromResidualIBy_NtNtB7_7convert10InfallibleB1F_EE13from_residualB1a_, symObjAddr: 0xFD64, symBinAddr: 0x670B8, symSize: 0x40 }
  - { offset: 0xCB1AB, size: 0x8, addend: 0x0, symName: __RNvXsp_NtCsfvfooZQ3Axs_4core6resultINtB5_6ResultINtNtB7_6option6OptionNtNtCs5AlOhPCr03V_3syn5token6Colon2ENtNtB1a_5error5ErrorEINtNtNtB7_3ops9try_trait12FromResidualIBy_NtNtB7_7convert10InfallibleB1G_EE13from_residualB1a_, symObjAddr: 0xFDA4, symBinAddr: 0x670F8, symSize: 0x40 }
  - { offset: 0xCB230, size: 0x8, addend: 0x0, symName: __RNvXsp_NtCsfvfooZQ3Axs_4core6resultINtB5_6ResultINtNtB7_6option6OptionNtNtCs5AlOhPCr03V_3syn5token6StaticENtNtB1a_5error5ErrorEINtNtNtB7_3ops9try_trait12FromResidualIBy_NtNtB7_7convert10InfallibleB1G_EE13from_residualB1a_, symObjAddr: 0xFDE4, symBinAddr: 0x67138, symSize: 0x40 }
  - { offset: 0xCB2B5, size: 0x8, addend: 0x0, symName: __RNvXsp_NtCsfvfooZQ3Axs_4core6resultINtB5_6ResultINtNtB7_6option6OptionNtNtCs5AlOhPCr03V_3syn5token6UnsafeENtNtB1a_5error5ErrorEINtNtNtB7_3ops9try_trait12FromResidualIBy_NtNtB7_7convert10InfallibleB1G_EE13from_residualB1a_, symObjAddr: 0xFE24, symBinAddr: 0x67178, symSize: 0x40 }
  - { offset: 0xCB33A, size: 0x8, addend: 0x0, symName: __RNvXsp_NtCsfvfooZQ3Axs_4core6resultINtB5_6ResultINtNtB7_6option6OptionNtNtCs5AlOhPCr03V_3syn5token7DefaultENtNtB1a_5error5ErrorEINtNtNtB7_3ops9try_trait12FromResidualIBy_NtNtB7_7convert10InfallibleB1H_EE13from_residualB1a_, symObjAddr: 0xFE64, symBinAddr: 0x671B8, symSize: 0x40 }
  - { offset: 0xCB3BF, size: 0x8, addend: 0x0, symName: __RNvXsp_NtCsfvfooZQ3Axs_4core6resultINtB5_6ResultINtNtB7_6option6OptionNtNtCs5AlOhPCr03V_3syn5token8QuestionENtNtB1a_5error5ErrorEINtNtNtB7_3ops9try_trait12FromResidualIBy_NtNtB7_7convert10InfallibleB1I_EE13from_residualB1a_, symObjAddr: 0xFEA4, symBinAddr: 0x671F8, symSize: 0x40 }
  - { offset: 0xCB444, size: 0x8, addend: 0x0, symName: __RNvXsp_NtCsfvfooZQ3Axs_4core6resultINtB5_6ResultINtNtB7_6option6OptionNtNtCs5AlOhPCr03V_3syn5token9SelfValueENtNtB1a_5error5ErrorEINtNtNtB7_3ops9try_trait12FromResidualIBy_NtNtB7_7convert10InfallibleB1J_EE13from_residualB1a_, symObjAddr: 0xFEE4, symBinAddr: 0x67238, symSize: 0x40 }
  - { offset: 0xCB4C9, size: 0x8, addend: 0x0, symName: __RNvXsp_NtCsfvfooZQ3Axs_4core6resultINtB5_6ResultINtNtB7_6option6OptionNtNtCs5AlOhPCr03V_3syn8lifetime8LifetimeENtNtB1a_5error5ErrorEINtNtNtB7_3ops9try_trait12FromResidualIBy_NtNtB7_7convert10InfallibleB1L_EE13from_residualB1a_, symObjAddr: 0xFF24, symBinAddr: 0x67278, symSize: 0x48 }
  - { offset: 0xCB54E, size: 0x8, addend: 0x0, symName: __RNvXsp_NtCsfvfooZQ3Axs_4core6resultINtB5_6ResultINtNtCs5AlOhPCr03V_3syn10punctuated10PunctuatedNtNtBP_2ty4TypeNtNtBP_5token5CommaENtNtBP_5error5ErrorEINtNtNtB7_3ops9try_trait12FromResidualIBy_NtNtB7_7convert10InfallibleB24_EE13from_residualBP_, symObjAddr: 0xFF6C, symBinAddr: 0x672C0, symSize: 0x48 }
  - { offset: 0xCB5D3, size: 0x8, addend: 0x0, symName: __RNvXsp_NtCsfvfooZQ3Axs_4core6resultINtB5_6ResultINtNtCs5AlOhPCr03V_3syn10punctuated10PunctuatedNtNtBP_4attr10NestedMetaNtNtBP_5token5CommaENtNtBP_5error5ErrorEINtNtNtB7_3ops9try_trait12FromResidualIBy_NtNtB7_7convert10InfallibleB2d_EE13from_residualBP_, symObjAddr: 0xFFB4, symBinAddr: 0x67308, symSize: 0x48 }
  - { offset: 0xCB658, size: 0x8, addend: 0x0, symName: __RNvXsp_NtCsfvfooZQ3Axs_4core6resultINtB5_6ResultINtNtCs5AlOhPCr03V_3syn10punctuated10PunctuatedNtNtBP_4data5FieldNtNtBP_5token5CommaENtNtBP_5error5ErrorEINtNtNtB7_3ops9try_trait12FromResidualIBy_NtNtB7_7convert10InfallibleB27_EE13from_residualBP_, symObjAddr: 0xFFFC, symBinAddr: 0x67350, symSize: 0x48 }
  - { offset: 0xCB6DD, size: 0x8, addend: 0x0, symName: __RNvXsp_NtCsfvfooZQ3Axs_4core6resultINtB5_6ResultINtNtCs5AlOhPCr03V_3syn10punctuated10PunctuatedNtNtBP_4data7VariantNtNtBP_5token5CommaENtNtBP_5error5ErrorEINtNtNtB7_3ops9try_trait12FromResidualIBy_NtNtB7_7convert10InfallibleB29_EE13from_residualBP_, symObjAddr: 0x10044, symBinAddr: 0x67398, symSize: 0x48 }
  - { offset: 0xCB762, size: 0x8, addend: 0x0, symName: __RNvXsp_NtCsfvfooZQ3Axs_4core6resultINtB5_6ResultINtNtCs5AlOhPCr03V_3syn10punctuated10PunctuatedNtNtBP_4expr4ExprNtNtBP_5token5CommaENtNtBP_5error5ErrorEINtNtNtB7_3ops9try_trait12FromResidualIBy_NtNtB7_7convert10InfallibleB26_EE13from_residualBP_, symObjAddr: 0x1008C, symBinAddr: 0x673E0, symSize: 0x48 }
  - { offset: 0xCB7E7, size: 0x8, addend: 0x0, symName: __RNvXsp_NtCsfvfooZQ3Axs_4core6resultINtB5_6ResultINtNtCs5AlOhPCr03V_3syn10punctuated10PunctuatedNtNtBP_4item5FnArgNtNtBP_5token5CommaENtNtBP_5error5ErrorEINtNtNtB7_3ops9try_trait12FromResidualIBy_NtNtB7_7convert10InfallibleB27_EE13from_residualBP_, symObjAddr: 0x100D4, symBinAddr: 0x67428, symSize: 0x48 }
  - { offset: 0xCB86C, size: 0x8, addend: 0x0, symName: __RNvXsp_NtCsfvfooZQ3Axs_4core6resultINtB5_6ResultINtNtCs5AlOhPCr03V_3syn10punctuated10PunctuatedNtNtBP_4item7UseTreeNtNtBP_5token5CommaENtNtBP_5error5ErrorEINtNtNtB7_3ops9try_trait12FromResidualIBy_NtNtB7_7convert10InfallibleB29_EE13from_residualBP_, symObjAddr: 0x1011C, symBinAddr: 0x67470, symSize: 0x48 }
  - { offset: 0xCB8F1, size: 0x8, addend: 0x0, symName: __RNvXsp_NtCsfvfooZQ3Axs_4core6resultINtB5_6ResultINtNtCs5AlOhPCr03V_3syn10punctuated10PunctuatedNtNtBP_8generics14TypeParamBoundNtNtBP_5token3AddENtNtBP_5error5ErrorEINtNtNtB7_3ops9try_trait12FromResidualIBy_NtNtB7_7convert10InfallibleB2j_EE13from_residualBP_, symObjAddr: 0x10164, symBinAddr: 0x674B8, symSize: 0x48 }
  - { offset: 0xCB976, size: 0x8, addend: 0x0, symName: __RNvXsp_NtCsfvfooZQ3Axs_4core6resultINtB5_6ResultINtNtCse1nGBsou5OW_5alloc3vec3VecNtNtCs5AlOhPCr03V_3syn4attr9AttributeENtNtB1l_5error5ErrorEINtNtNtB7_3ops9try_trait12FromResidualIBy_NtNtB7_7convert10InfallibleB1T_EE13from_residualB1l_, symObjAddr: 0x101F4, symBinAddr: 0x67500, symSize: 0x48 }
  - { offset: 0xCB9FB, size: 0x8, addend: 0x0, symName: __RNvXsp_NtCsfvfooZQ3Axs_4core6resultINtB5_6ResultINtNtCse1nGBsou5OW_5alloc3vec3VecNtNtCs5AlOhPCr03V_3syn4stmt4StmtENtNtB1l_5error5ErrorEINtNtNtB7_3ops9try_trait12FromResidualIBy_NtNtB7_7convert10InfallibleB1O_EE13from_residualB1l_, symObjAddr: 0x1023C, symBinAddr: 0x67548, symSize: 0x48 }
  - { offset: 0xCBA80, size: 0x8, addend: 0x0, symName: __RNvXsp_NtCsfvfooZQ3Axs_4core6resultINtB5_6ResultNtCs3cP53eQoTwO_11proc_macro211TokenStreamNtNtCs5AlOhPCr03V_3syn5error5ErrorEINtNtNtB7_3ops9try_trait12FromResidualIBy_NtNtB7_7convert10InfallibleB1q_EE13from_residualB1u_, symObjAddr: 0x10284, symBinAddr: 0x67590, symSize: 0x48 }
  - { offset: 0xCBB05, size: 0x8, addend: 0x0, symName: __RNvXsp_NtCsfvfooZQ3Axs_4core6resultINtB5_6ResultNtCs3cP53eQoTwO_11proc_macro24SpanNtNtCs5AlOhPCr03V_3syn5error5ErrorEINtNtNtB7_3ops9try_trait12FromResidualIBy_NtNtB7_7convert10InfallibleB1i_EE13from_residualB1m_, symObjAddr: 0x102CC, symBinAddr: 0x675D8, symSize: 0x40 }
  - { offset: 0xCBB8A, size: 0x8, addend: 0x0, symName: __RNvXsp_NtCsfvfooZQ3Axs_4core6resultINtB5_6ResultNtCs3cP53eQoTwO_11proc_macro25IdentNtNtCs5AlOhPCr03V_3syn5error5ErrorEINtNtNtB7_3ops9try_trait12FromResidualIBy_NtNtB7_7convert10InfallibleB1j_EE13from_residualB1n_, symObjAddr: 0x10354, symBinAddr: 0x67618, symSize: 0x48 }
  - { offset: 0xCBC0F, size: 0x8, addend: 0x0, symName: __RNvXsp_NtCsfvfooZQ3Axs_4core6resultINtB5_6ResultNtCs3cP53eQoTwO_11proc_macro29TokenTreeNtNtCs5AlOhPCr03V_3syn5error5ErrorEINtNtNtB7_3ops9try_trait12FromResidualIBy_NtNtB7_7convert10InfallibleB1n_EE13from_residualB1r_, symObjAddr: 0x10424, symBinAddr: 0x67660, symSize: 0x48 }
  - { offset: 0xCBC94, size: 0x8, addend: 0x0, symName: __RNvXsp_NtCsfvfooZQ3Axs_4core6resultINtB5_6ResultNtNtCs5AlOhPCr03V_3syn2ty10ReturnTypeNtNtBO_5error5ErrorEINtNtNtB7_3ops9try_trait12FromResidualIBy_NtNtB7_7convert10InfallibleB1l_EE13from_residualBO_, symObjAddr: 0x1046C, symBinAddr: 0x676A8, symSize: 0x40 }
  - { offset: 0xCBD19, size: 0x8, addend: 0x0, symName: __RNvXsp_NtCsfvfooZQ3Axs_4core6resultINtB5_6ResultNtNtCs5AlOhPCr03V_3syn2ty13TypeImplTraitNtNtBO_5error5ErrorEINtNtNtB7_3ops9try_trait12FromResidualIBy_NtNtB7_7convert10InfallibleB1o_EE13from_residualBO_, symObjAddr: 0x104AC, symBinAddr: 0x676E8, symSize: 0x48 }
  - { offset: 0xCBD9E, size: 0x8, addend: 0x0, symName: __RNvXsp_NtCsfvfooZQ3Axs_4core6resultINtB5_6ResultNtNtCs5AlOhPCr03V_3syn2ty13TypeReferenceNtNtBO_5error5ErrorEINtNtNtB7_3ops9try_trait12FromResidualIBy_NtNtB7_7convert10InfallibleB1o_EE13from_residualBO_, symObjAddr: 0x104F4, symBinAddr: 0x67730, symSize: 0x48 }
  - { offset: 0xCBE23, size: 0x8, addend: 0x0, symName: __RNvXsp_NtCsfvfooZQ3Axs_4core6resultINtB5_6ResultNtNtCs5AlOhPCr03V_3syn2ty15TypeTraitObjectNtNtBO_5error5ErrorEINtNtNtB7_3ops9try_trait12FromResidualIBy_NtNtB7_7convert10InfallibleB1q_EE13from_residualBO_, symObjAddr: 0x1053C, symBinAddr: 0x67778, symSize: 0x48 }
  - { offset: 0xCBEA8, size: 0x8, addend: 0x0, symName: __RNvXsp_NtCsfvfooZQ3Axs_4core6resultINtB5_6ResultNtNtCs5AlOhPCr03V_3syn2ty3AbiNtNtBO_5error5ErrorEINtNtNtB7_3ops9try_trait12FromResidualIBy_NtNtB7_7convert10InfallibleB1d_EE13from_residualBO_, symObjAddr: 0x10584, symBinAddr: 0x677C0, symSize: 0x40 }
  - { offset: 0xCBF2D, size: 0x8, addend: 0x0, symName: __RNvXsp_NtCsfvfooZQ3Axs_4core6resultINtB5_6ResultNtNtCs5AlOhPCr03V_3syn2ty4TypeNtNtBO_5error5ErrorEINtNtNtB7_3ops9try_trait12FromResidualIBy_NtNtB7_7convert10InfallibleB1e_EE13from_residualBO_, symObjAddr: 0x105C4, symBinAddr: 0x67800, symSize: 0x4C }
  - { offset: 0xCBFB2, size: 0x8, addend: 0x0, symName: __RNvXsp_NtCsfvfooZQ3Axs_4core6resultINtB5_6ResultNtNtCs5AlOhPCr03V_3syn2ty7TypePtrNtNtBO_5error5ErrorEINtNtNtB7_3ops9try_trait12FromResidualIBy_NtNtB7_7convert10InfallibleB1h_EE13from_residualBO_, symObjAddr: 0x10610, symBinAddr: 0x6784C, symSize: 0x48 }
  - { offset: 0xCC037, size: 0x8, addend: 0x0, symName: __RNvXsp_NtCsfvfooZQ3Axs_4core6resultINtB5_6ResultNtNtCs5AlOhPCr03V_3syn2ty8TypePathNtNtBO_5error5ErrorEINtNtNtB7_3ops9try_trait12FromResidualIBy_NtNtB7_7convert10InfallibleB1i_EE13from_residualBO_, symObjAddr: 0x10658, symBinAddr: 0x67894, symSize: 0x48 }
  - { offset: 0xCC0BC, size: 0x8, addend: 0x0, symName: __RNvXsp_NtCsfvfooZQ3Axs_4core6resultINtB5_6ResultNtNtCs5AlOhPCr03V_3syn2ty9TypeGroupNtNtBO_5error5ErrorEINtNtNtB7_3ops9try_trait12FromResidualIBy_NtNtB7_7convert10InfallibleB1j_EE13from_residualBO_, symObjAddr: 0x106EC, symBinAddr: 0x678DC, symSize: 0x40 }
  - { offset: 0xCC141, size: 0x8, addend: 0x0, symName: __RNvXsp_NtCsfvfooZQ3Axs_4core6resultINtB5_6ResultNtNtCs5AlOhPCr03V_3syn2ty9TypeInferNtNtBO_5error5ErrorEINtNtNtB7_3ops9try_trait12FromResidualIBy_NtNtB7_7convert10InfallibleB1j_EE13from_residualBO_, symObjAddr: 0x1072C, symBinAddr: 0x6791C, symSize: 0x40 }
  - { offset: 0xCC1C6, size: 0x8, addend: 0x0, symName: __RNvXsp_NtCsfvfooZQ3Axs_4core6resultINtB5_6ResultNtNtCs5AlOhPCr03V_3syn2ty9TypeNeverNtNtBO_5error5ErrorEINtNtNtB7_3ops9try_trait12FromResidualIBy_NtNtB7_7convert10InfallibleB1j_EE13from_residualBO_, symObjAddr: 0x107B4, symBinAddr: 0x6795C, symSize: 0x40 }
  - { offset: 0xCC24B, size: 0x8, addend: 0x0, symName: __RNvXsp_NtCsfvfooZQ3Axs_4core6resultINtB5_6ResultNtNtCs5AlOhPCr03V_3syn3lit3LitNtNtBO_5error5ErrorEINtNtNtB7_3ops9try_trait12FromResidualIBy_NtNtB7_7convert10InfallibleB1e_EE13from_residualBO_, symObjAddr: 0x108BC, symBinAddr: 0x6799C, symSize: 0x48 }
  - { offset: 0xCC2D0, size: 0x8, addend: 0x0, symName: __RNvXsp_NtCsfvfooZQ3Axs_4core6resultINtB5_6ResultNtNtCs5AlOhPCr03V_3syn3mac5MacroNtNtBO_5error5ErrorEINtNtNtB7_3ops9try_trait12FromResidualIBy_NtNtB7_7convert10InfallibleB1g_EE13from_residualBO_, symObjAddr: 0x10904, symBinAddr: 0x679E4, symSize: 0x48 }
  - { offset: 0xCC355, size: 0x8, addend: 0x0, symName: __RNvXsp_NtCsfvfooZQ3Axs_4core6resultINtB5_6ResultNtNtCs5AlOhPCr03V_3syn3pat12PatReferenceNtNtBO_5error5ErrorEINtNtNtB7_3ops9try_trait12FromResidualIBy_NtNtB7_7convert10InfallibleB1o_EE13from_residualBO_, symObjAddr: 0x1094C, symBinAddr: 0x67A2C, symSize: 0x48 }
  - { offset: 0xCC3DA, size: 0x8, addend: 0x0, symName: __RNvXsp_NtCsfvfooZQ3Axs_4core6resultINtB5_6ResultNtNtCs5AlOhPCr03V_3syn3pat14PatTupleStructNtNtBO_5error5ErrorEINtNtNtB7_3ops9try_trait12FromResidualIBy_NtNtB7_7convert10InfallibleB1q_EE13from_residualBO_, symObjAddr: 0x10994, symBinAddr: 0x67A74, symSize: 0x48 }
  - { offset: 0xCC45F, size: 0x8, addend: 0x0, symName: __RNvXsp_NtCsfvfooZQ3Axs_4core6resultINtB5_6ResultNtNtCs5AlOhPCr03V_3syn3pat3PatNtNtBO_5error5ErrorEINtNtNtB7_3ops9try_trait12FromResidualIBy_NtNtB7_7convert10InfallibleB1e_EE13from_residualBO_, symObjAddr: 0x109DC, symBinAddr: 0x67ABC, symSize: 0x4C }
  - { offset: 0xCC4E4, size: 0x8, addend: 0x0, symName: __RNvXsp_NtCsfvfooZQ3Axs_4core6resultINtB5_6ResultNtNtCs5AlOhPCr03V_3syn3pat6PatBoxNtNtBO_5error5ErrorEINtNtNtB7_3ops9try_trait12FromResidualIBy_NtNtB7_7convert10InfallibleB1h_EE13from_residualBO_, symObjAddr: 0x10A28, symBinAddr: 0x67B08, symSize: 0x48 }
  - { offset: 0xCC569, size: 0x8, addend: 0x0, symName: __RNvXsp_NtCsfvfooZQ3Axs_4core6resultINtB5_6ResultNtNtCs5AlOhPCr03V_3syn3pat7PatTypeNtNtBO_5error5ErrorEINtNtNtB7_3ops9try_trait12FromResidualIBy_NtNtB7_7convert10InfallibleB1i_EE13from_residualBO_, symObjAddr: 0x10A70, symBinAddr: 0x67B50, symSize: 0x48 }
  - { offset: 0xCC5EE, size: 0x8, addend: 0x0, symName: __RNvXsp_NtCsfvfooZQ3Axs_4core6resultINtB5_6ResultNtNtCs5AlOhPCr03V_3syn3pat7PatWildNtNtBO_5error5ErrorEINtNtNtB7_3ops9try_trait12FromResidualIBy_NtNtB7_7convert10InfallibleB1i_EE13from_residualBO_, symObjAddr: 0x10AB8, symBinAddr: 0x67B98, symSize: 0x48 }
  - { offset: 0xCC673, size: 0x8, addend: 0x0, symName: __RNvXsp_NtCsfvfooZQ3Axs_4core6resultINtB5_6ResultNtNtCs5AlOhPCr03V_3syn3pat8FieldPatNtNtBO_5error5ErrorEINtNtNtB7_3ops9try_trait12FromResidualIBy_NtNtB7_7convert10InfallibleB1j_EE13from_residualBO_, symObjAddr: 0x10B00, symBinAddr: 0x67BE0, symSize: 0x48 }
  - { offset: 0xCC6F8, size: 0x8, addend: 0x0, symName: __RNvXsp_NtCsfvfooZQ3Axs_4core6resultINtB5_6ResultNtNtCs5AlOhPCr03V_3syn3pat8PatIdentNtNtBO_5error5ErrorEINtNtNtB7_3ops9try_trait12FromResidualIBy_NtNtB7_7convert10InfallibleB1j_EE13from_residualBO_, symObjAddr: 0x10B48, symBinAddr: 0x67C28, symSize: 0x48 }
  - { offset: 0xCC77D, size: 0x8, addend: 0x0, symName: __RNvXsp_NtCsfvfooZQ3Axs_4core6resultINtB5_6ResultNtNtCs5AlOhPCr03V_3syn3pat8PatSliceNtNtBO_5error5ErrorEINtNtNtB7_3ops9try_trait12FromResidualIBy_NtNtB7_7convert10InfallibleB1j_EE13from_residualBO_, symObjAddr: 0x10B90, symBinAddr: 0x67C70, symSize: 0x48 }
  - { offset: 0xCC802, size: 0x8, addend: 0x0, symName: __RNvXsp_NtCsfvfooZQ3Axs_4core6resultINtB5_6ResultNtNtCs5AlOhPCr03V_3syn3pat8PatTupleNtNtBO_5error5ErrorEINtNtNtB7_3ops9try_trait12FromResidualIBy_NtNtB7_7convert10InfallibleB1j_EE13from_residualBO_, symObjAddr: 0x10BD8, symBinAddr: 0x67CB8, symSize: 0x48 }
  - { offset: 0xCC887, size: 0x8, addend: 0x0, symName: __RNvXsp_NtCsfvfooZQ3Axs_4core6resultINtB5_6ResultNtNtCs5AlOhPCr03V_3syn4attr13MetaNameValueNtNtBO_5error5ErrorEINtNtNtB7_3ops9try_trait12FromResidualIBy_NtNtB7_7convert10InfallibleB1q_EE13from_residualBO_, symObjAddr: 0x10C20, symBinAddr: 0x67D00, symSize: 0x48 }
  - { offset: 0xCC90C, size: 0x8, addend: 0x0, symName: __RNvXsp_NtCsfvfooZQ3Axs_4core6resultINtB5_6ResultNtNtCs5AlOhPCr03V_3syn4attr4MetaNtNtBO_5error5ErrorEINtNtNtB7_3ops9try_trait12FromResidualIBy_NtNtB7_7convert10InfallibleB1g_EE13from_residualBO_, symObjAddr: 0x10C68, symBinAddr: 0x67D48, symSize: 0x48 }
  - { offset: 0xCC991, size: 0x8, addend: 0x0, symName: __RNvXsp_NtCsfvfooZQ3Axs_4core6resultINtB5_6ResultNtNtCs5AlOhPCr03V_3syn4attr8MetaListNtNtBO_5error5ErrorEINtNtNtB7_3ops9try_trait12FromResidualIBy_NtNtB7_7convert10InfallibleB1k_EE13from_residualBO_, symObjAddr: 0x10CB0, symBinAddr: 0x67D90, symSize: 0x48 }
  - { offset: 0xCCA16, size: 0x8, addend: 0x0, symName: __RNvXsp_NtCsfvfooZQ3Axs_4core6resultINtB5_6ResultNtNtCs5AlOhPCr03V_3syn4attr9AttributeNtNtBO_5error5ErrorEINtNtNtB7_3ops9try_trait12FromResidualIBy_NtNtB7_7convert10InfallibleB1l_EE13from_residualBO_, symObjAddr: 0x10CF8, symBinAddr: 0x67DD8, symSize: 0x48 }
  - { offset: 0xCCA9B, size: 0x8, addend: 0x0, symName: __RNvXsp_NtCsfvfooZQ3Axs_4core6resultINtB5_6ResultNtNtCs5AlOhPCr03V_3syn4data10VisibilityNtNtBO_5error5ErrorEINtNtNtB7_3ops9try_trait12FromResidualIBy_NtNtB7_7convert10InfallibleB1n_EE13from_residualBO_, symObjAddr: 0x10D40, symBinAddr: 0x67E20, symSize: 0x48 }
  - { offset: 0xCCB20, size: 0x8, addend: 0x0, symName: __RNvXsp_NtCsfvfooZQ3Axs_4core6resultINtB5_6ResultNtNtCs5AlOhPCr03V_3syn4data11FieldsNamedNtNtBO_5error5ErrorEINtNtNtB7_3ops9try_trait12FromResidualIBy_NtNtB7_7convert10InfallibleB1o_EE13from_residualBO_, symObjAddr: 0x10D88, symBinAddr: 0x67E68, symSize: 0x48 }
  - { offset: 0xCCBA5, size: 0x8, addend: 0x0, symName: __RNvXsp_NtCsfvfooZQ3Axs_4core6resultINtB5_6ResultNtNtCs5AlOhPCr03V_3syn4data13FieldsUnnamedNtNtBO_5error5ErrorEINtNtNtB7_3ops9try_trait12FromResidualIBy_NtNtB7_7convert10InfallibleB1q_EE13from_residualBO_, symObjAddr: 0x10DD0, symBinAddr: 0x67EB0, symSize: 0x48 }
  - { offset: 0xCCC2A, size: 0x8, addend: 0x0, symName: __RNvXsp_NtCsfvfooZQ3Axs_4core6resultINtB5_6ResultNtNtCs5AlOhPCr03V_3syn4data5FieldNtNtBO_5error5ErrorEINtNtNtB7_3ops9try_trait12FromResidualIBy_NtNtB7_7convert10InfallibleB1h_EE13from_residualBO_, symObjAddr: 0x10E18, symBinAddr: 0x67EF8, symSize: 0x48 }
  - { offset: 0xCCCAF, size: 0x8, addend: 0x0, symName: __RNvXsp_NtCsfvfooZQ3Axs_4core6resultINtB5_6ResultNtNtCs5AlOhPCr03V_3syn4data7VariantNtNtBO_5error5ErrorEINtNtNtB7_3ops9try_trait12FromResidualIBy_NtNtB7_7convert10InfallibleB1j_EE13from_residualBO_, symObjAddr: 0x10E60, symBinAddr: 0x67F40, symSize: 0x48 }
  - { offset: 0xCCD34, size: 0x8, addend: 0x0, symName: __RNvXsp_NtCsfvfooZQ3Axs_4core6resultINtB5_6ResultNtNtCs5AlOhPCr03V_3syn4expr10ExprReturnNtNtBO_5error5ErrorEINtNtNtB7_3ops9try_trait12FromResidualIBy_NtNtB7_7convert10InfallibleB1n_EE13from_residualBO_, symObjAddr: 0x10F80, symBinAddr: 0x67F88, symSize: 0x48 }
  - { offset: 0xCCDB9, size: 0x8, addend: 0x0, symName: __RNvXsp_NtCsfvfooZQ3Axs_4core6resultINtB5_6ResultNtNtCs5AlOhPCr03V_3syn4expr10ExprStructNtNtBO_5error5ErrorEINtNtNtB7_3ops9try_trait12FromResidualIBy_NtNtB7_7convert10InfallibleB1n_EE13from_residualBO_, symObjAddr: 0x10FC8, symBinAddr: 0x67FD0, symSize: 0x48 }
  - { offset: 0xCCE3E, size: 0x8, addend: 0x0, symName: __RNvXsp_NtCsfvfooZQ3Axs_4core6resultINtB5_6ResultNtNtCs5AlOhPCr03V_3syn4expr10ExprUnsafeNtNtBO_5error5ErrorEINtNtNtB7_3ops9try_trait12FromResidualIBy_NtNtB7_7convert10InfallibleB1n_EE13from_residualBO_, symObjAddr: 0x11010, symBinAddr: 0x68018, symSize: 0x48 }
  - { offset: 0xCCEC3, size: 0x8, addend: 0x0, symName: __RNvXsp_NtCsfvfooZQ3Axs_4core6resultINtB5_6ResultNtNtCs5AlOhPCr03V_3syn4expr10FieldValueNtNtBO_5error5ErrorEINtNtNtB7_3ops9try_trait12FromResidualIBy_NtNtB7_7convert10InfallibleB1n_EE13from_residualBO_, symObjAddr: 0x11058, symBinAddr: 0x68060, symSize: 0x48 }
  - { offset: 0xCCF48, size: 0x8, addend: 0x0, symName: __RNvXsp_NtCsfvfooZQ3Axs_4core6resultINtB5_6ResultNtNtCs5AlOhPCr03V_3syn4expr11ExprClosureNtNtBO_5error5ErrorEINtNtNtB7_3ops9try_trait12FromResidualIBy_NtNtB7_7convert10InfallibleB1o_EE13from_residualBO_, symObjAddr: 0x110A0, symBinAddr: 0x680A8, symSize: 0x48 }
  - { offset: 0xCCFCD, size: 0x8, addend: 0x0, symName: __RNvXsp_NtCsfvfooZQ3Axs_4core6resultINtB5_6ResultNtNtCs5AlOhPCr03V_3syn4expr11ExprForLoopNtNtBO_5error5ErrorEINtNtNtB7_3ops9try_trait12FromResidualIBy_NtNtB7_7convert10InfallibleB1o_EE13from_residualBO_, symObjAddr: 0x110E8, symBinAddr: 0x680F0, symSize: 0x48 }
  - { offset: 0xCD052, size: 0x8, addend: 0x0, symName: __RNvXsp_NtCsfvfooZQ3Axs_4core6resultINtB5_6ResultNtNtCs5AlOhPCr03V_3syn4expr11RangeLimitsNtNtBO_5error5ErrorEINtNtNtB7_3ops9try_trait12FromResidualIBy_NtNtB7_7convert10InfallibleB1o_EE13from_residualBO_, symObjAddr: 0x11130, symBinAddr: 0x68138, symSize: 0x40 }
  - { offset: 0xCD0D7, size: 0x8, addend: 0x0, symName: __RNvXsp_NtCsfvfooZQ3Axs_4core6resultINtB5_6ResultNtNtCs5AlOhPCr03V_3syn4expr12ExprContinueNtNtBO_5error5ErrorEINtNtNtB7_3ops9try_trait12FromResidualIBy_NtNtB7_7convert10InfallibleB1p_EE13from_residualBO_, symObjAddr: 0x111B8, symBinAddr: 0x68178, symSize: 0x48 }
  - { offset: 0xCD15C, size: 0x8, addend: 0x0, symName: __RNvXsp_NtCsfvfooZQ3Axs_4core6resultINtB5_6ResultNtNtCs5AlOhPCr03V_3syn4expr12ExprTryBlockNtNtBO_5error5ErrorEINtNtNtB7_3ops9try_trait12FromResidualIBy_NtNtB7_7convert10InfallibleB1p_EE13from_residualBO_, symObjAddr: 0x11200, symBinAddr: 0x681C0, symSize: 0x48 }
  - { offset: 0xCD1E1, size: 0x8, addend: 0x0, symName: __RNvXsp_NtCsfvfooZQ3Axs_4core6resultINtB5_6ResultNtNtCs5AlOhPCr03V_3syn4expr15MethodTurbofishNtNtBO_5error5ErrorEINtNtNtB7_3ops9try_trait12FromResidualIBy_NtNtB7_7convert10InfallibleB1s_EE13from_residualBO_, symObjAddr: 0x112D8, symBinAddr: 0x68208, symSize: 0x48 }
  - { offset: 0xCD266, size: 0x8, addend: 0x0, symName: __RNvXsp_NtCsfvfooZQ3Axs_4core6resultINtB5_6ResultNtNtCs5AlOhPCr03V_3syn4expr21GenericMethodArgumentNtNtBO_5error5ErrorEINtNtNtB7_3ops9try_trait12FromResidualIBy_NtNtB7_7convert10InfallibleB1y_EE13from_residualBO_, symObjAddr: 0x11320, symBinAddr: 0x68250, symSize: 0x4C }
  - { offset: 0xCD2EB, size: 0x8, addend: 0x0, symName: __RNvXsp_NtCsfvfooZQ3Axs_4core6resultINtB5_6ResultNtNtCs5AlOhPCr03V_3syn4expr3ArmNtNtBO_5error5ErrorEINtNtNtB7_3ops9try_trait12FromResidualIBy_NtNtB7_7convert10InfallibleB1f_EE13from_residualBO_, symObjAddr: 0x1136C, symBinAddr: 0x6829C, symSize: 0x48 }
  - { offset: 0xCD370, size: 0x8, addend: 0x0, symName: __RNvXsp_NtCsfvfooZQ3Axs_4core6resultINtB5_6ResultNtNtCs5AlOhPCr03V_3syn4expr4ExprNtNtBO_5error5ErrorEINtNtNtB7_3ops9try_trait12FromResidualIBy_NtNtB7_7convert10InfallibleB1g_EE13from_residualBO_, symObjAddr: 0x113B4, symBinAddr: 0x682E4, symSize: 0x4C }
  - { offset: 0xCD3F5, size: 0x8, addend: 0x0, symName: __RNvXsp_NtCsfvfooZQ3Axs_4core6resultINtB5_6ResultNtNtCs5AlOhPCr03V_3syn4expr5IndexNtNtBO_5error5ErrorEINtNtNtB7_3ops9try_trait12FromResidualIBy_NtNtB7_7convert10InfallibleB1h_EE13from_residualBO_, symObjAddr: 0x11400, symBinAddr: 0x68330, symSize: 0x40 }
  - { offset: 0xCD47A, size: 0x8, addend: 0x0, symName: __RNvXsp_NtCsfvfooZQ3Axs_4core6resultINtB5_6ResultNtNtCs5AlOhPCr03V_3syn4expr5IndexNtNtBO_5error5ErrorEINtNtNtB7_3ops9try_trait12FromResidualIBy_NtNtB7_7convert10InfallibleNtCs3cP53eQoTwO_11proc_macro28LexErrorEE13from_residualBO_, symObjAddr: 0x11440, symBinAddr: 0x68370, symSize: 0x44 }
  - { offset: 0xCD4E1, size: 0x8, addend: 0x0, symName: __RNvXsp_NtCsfvfooZQ3Axs_4core6resultINtB5_6ResultNtNtCs5AlOhPCr03V_3syn4expr5LabelNtNtBO_5error5ErrorEINtNtNtB7_3ops9try_trait12FromResidualIBy_NtNtB7_7convert10InfallibleB1h_EE13from_residualBO_, symObjAddr: 0x11484, symBinAddr: 0x683B4, symSize: 0x48 }
  - { offset: 0xCD566, size: 0x8, addend: 0x0, symName: __RNvXsp_NtCsfvfooZQ3Axs_4core6resultINtB5_6ResultNtNtCs5AlOhPCr03V_3syn4expr6ExprIfNtNtBO_5error5ErrorEINtNtNtB7_3ops9try_trait12FromResidualIBy_NtNtB7_7convert10InfallibleB1i_EE13from_residualBO_, symObjAddr: 0x114CC, symBinAddr: 0x683FC, symSize: 0x48 }
  - { offset: 0xCD5EB, size: 0x8, addend: 0x0, symName: __RNvXsp_NtCsfvfooZQ3Axs_4core6resultINtB5_6ResultNtNtCs5AlOhPCr03V_3syn4expr7ExprBoxNtNtBO_5error5ErrorEINtNtNtB7_3ops9try_trait12FromResidualIBy_NtNtB7_7convert10InfallibleB1j_EE13from_residualBO_, symObjAddr: 0x11514, symBinAddr: 0x68444, symSize: 0x48 }
  - { offset: 0xCD670, size: 0x8, addend: 0x0, symName: __RNvXsp_NtCsfvfooZQ3Axs_4core6resultINtB5_6ResultNtNtCs5AlOhPCr03V_3syn4expr7ExprLetNtNtBO_5error5ErrorEINtNtNtB7_3ops9try_trait12FromResidualIBy_NtNtB7_7convert10InfallibleB1j_EE13from_residualBO_, symObjAddr: 0x1155C, symBinAddr: 0x6848C, symSize: 0x48 }
  - { offset: 0xCD6F5, size: 0x8, addend: 0x0, symName: __RNvXsp_NtCsfvfooZQ3Axs_4core6resultINtB5_6ResultNtNtCs5AlOhPCr03V_3syn4expr7ExprLitNtNtBO_5error5ErrorEINtNtNtB7_3ops9try_trait12FromResidualIBy_NtNtB7_7convert10InfallibleB1j_EE13from_residualBO_, symObjAddr: 0x115A4, symBinAddr: 0x684D4, symSize: 0x48 }
  - { offset: 0xCD77A, size: 0x8, addend: 0x0, symName: __RNvXsp_NtCsfvfooZQ3Axs_4core6resultINtB5_6ResultNtNtCs5AlOhPCr03V_3syn4expr8ExprLoopNtNtBO_5error5ErrorEINtNtNtB7_3ops9try_trait12FromResidualIBy_NtNtB7_7convert10InfallibleB1k_EE13from_residualBO_, symObjAddr: 0x116C4, symBinAddr: 0x6851C, symSize: 0x48 }
  - { offset: 0xCD7FF, size: 0x8, addend: 0x0, symName: __RNvXsp_NtCsfvfooZQ3Axs_4core6resultINtB5_6ResultNtNtCs5AlOhPCr03V_3syn4expr8ExprPathNtNtBO_5error5ErrorEINtNtNtB7_3ops9try_trait12FromResidualIBy_NtNtB7_7convert10InfallibleB1k_EE13from_residualBO_, symObjAddr: 0x1170C, symBinAddr: 0x68564, symSize: 0x48 }
  - { offset: 0xCD884, size: 0x8, addend: 0x0, symName: __RNvXsp_NtCsfvfooZQ3Axs_4core6resultINtB5_6ResultNtNtCs5AlOhPCr03V_3syn4expr9ExprAsyncNtNtBO_5error5ErrorEINtNtNtB7_3ops9try_trait12FromResidualIBy_NtNtB7_7convert10InfallibleB1l_EE13from_residualBO_, symObjAddr: 0x117E4, symBinAddr: 0x685AC, symSize: 0x48 }
  - { offset: 0xCD909, size: 0x8, addend: 0x0, symName: __RNvXsp_NtCsfvfooZQ3Axs_4core6resultINtB5_6ResultNtNtCs5AlOhPCr03V_3syn4expr9ExprBlockNtNtBO_5error5ErrorEINtNtNtB7_3ops9try_trait12FromResidualIBy_NtNtB7_7convert10InfallibleB1l_EE13from_residualBO_, symObjAddr: 0x11874, symBinAddr: 0x685F4, symSize: 0x48 }
  - { offset: 0xCD98E, size: 0x8, addend: 0x0, symName: __RNvXsp_NtCsfvfooZQ3Axs_4core6resultINtB5_6ResultNtNtCs5AlOhPCr03V_3syn4expr9ExprBreakNtNtBO_5error5ErrorEINtNtNtB7_3ops9try_trait12FromResidualIBy_NtNtB7_7convert10InfallibleB1l_EE13from_residualBO_, symObjAddr: 0x118BC, symBinAddr: 0x6863C, symSize: 0x48 }
  - { offset: 0xCDA13, size: 0x8, addend: 0x0, symName: __RNvXsp_NtCsfvfooZQ3Axs_4core6resultINtB5_6ResultNtNtCs5AlOhPCr03V_3syn4expr9ExprGroupNtNtBO_5error5ErrorEINtNtNtB7_3ops9try_trait12FromResidualIBy_NtNtB7_7convert10InfallibleB1l_EE13from_residualBO_, symObjAddr: 0x1194C, symBinAddr: 0x68684, symSize: 0x48 }
  - { offset: 0xCDA98, size: 0x8, addend: 0x0, symName: __RNvXsp_NtCsfvfooZQ3Axs_4core6resultINtB5_6ResultNtNtCs5AlOhPCr03V_3syn4expr9ExprMatchNtNtBO_5error5ErrorEINtNtNtB7_3ops9try_trait12FromResidualIBy_NtNtB7_7convert10InfallibleB1l_EE13from_residualBO_, symObjAddr: 0x11A24, symBinAddr: 0x686CC, symSize: 0x48 }
  - { offset: 0xCDB1D, size: 0x8, addend: 0x0, symName: __RNvXsp_NtCsfvfooZQ3Axs_4core6resultINtB5_6ResultNtNtCs5AlOhPCr03V_3syn4expr9ExprRangeNtNtBO_5error5ErrorEINtNtNtB7_3ops9try_trait12FromResidualIBy_NtNtB7_7convert10InfallibleB1l_EE13from_residualBO_, symObjAddr: 0x11AB4, symBinAddr: 0x68714, symSize: 0x48 }
  - { offset: 0xCDBA2, size: 0x8, addend: 0x0, symName: __RNvXsp_NtCsfvfooZQ3Axs_4core6resultINtB5_6ResultNtNtCs5AlOhPCr03V_3syn4expr9ExprUnaryNtNtBO_5error5ErrorEINtNtNtB7_3ops9try_trait12FromResidualIBy_NtNtB7_7convert10InfallibleB1l_EE13from_residualBO_, symObjAddr: 0x11B44, symBinAddr: 0x6875C, symSize: 0x48 }
  - { offset: 0xCDC27, size: 0x8, addend: 0x0, symName: __RNvXsp_NtCsfvfooZQ3Axs_4core6resultINtB5_6ResultNtNtCs5AlOhPCr03V_3syn4expr9ExprWhileNtNtBO_5error5ErrorEINtNtNtB7_3ops9try_trait12FromResidualIBy_NtNtB7_7convert10InfallibleB1l_EE13from_residualBO_, symObjAddr: 0x11B8C, symBinAddr: 0x687A4, symSize: 0x48 }
  - { offset: 0xCDCAC, size: 0x8, addend: 0x0, symName: __RNvXsp_NtCsfvfooZQ3Axs_4core6resultINtB5_6ResultNtNtCs5AlOhPCr03V_3syn4expr9ExprYieldNtNtBO_5error5ErrorEINtNtNtB7_3ops9try_trait12FromResidualIBy_NtNtB7_7convert10InfallibleB1l_EE13from_residualBO_, symObjAddr: 0x11BD4, symBinAddr: 0x687EC, symSize: 0x48 }
  - { offset: 0xCDD31, size: 0x8, addend: 0x0, symName: __RNvXsp_NtCsfvfooZQ3Axs_4core6resultINtB5_6ResultNtNtCs5AlOhPCr03V_3syn4item10ItemMacro2NtNtBO_5error5ErrorEINtNtNtB7_3ops9try_trait12FromResidualIBy_NtNtB7_7convert10InfallibleB1n_EE13from_residualBO_, symObjAddr: 0x11CB0, symBinAddr: 0x68834, symSize: 0x48 }
  - { offset: 0xCDDB6, size: 0x8, addend: 0x0, symName: __RNvXsp_NtCsfvfooZQ3Axs_4core6resultINtB5_6ResultNtNtCs5AlOhPCr03V_3syn4item10ItemStructNtNtBO_5error5ErrorEINtNtNtB7_3ops9try_trait12FromResidualIBy_NtNtB7_7convert10InfallibleB1n_EE13from_residualBO_, symObjAddr: 0x11D40, symBinAddr: 0x6887C, symSize: 0x48 }
  - { offset: 0xCDE3B, size: 0x8, addend: 0x0, symName: __RNvXsp_NtCsfvfooZQ3Axs_4core6resultINtB5_6ResultNtNtCs5AlOhPCr03V_3syn4item11ForeignItemNtNtBO_5error5ErrorEINtNtNtB7_3ops9try_trait12FromResidualIBy_NtNtB7_7convert10InfallibleB1o_EE13from_residualBO_, symObjAddr: 0x11D88, symBinAddr: 0x688C4, symSize: 0x48 }
  - { offset: 0xCDEC0, size: 0x8, addend: 0x0, symName: __RNvXsp_NtCsfvfooZQ3Axs_4core6resultINtB5_6ResultNtNtCs5AlOhPCr03V_3syn4item13ImplItemMacroNtNtBO_5error5ErrorEINtNtNtB7_3ops9try_trait12FromResidualIBy_NtNtB7_7convert10InfallibleB1q_EE13from_residualBO_, symObjAddr: 0x11EA8, symBinAddr: 0x6890C, symSize: 0x48 }
  - { offset: 0xCDF45, size: 0x8, addend: 0x0, symName: __RNvXsp_NtCsfvfooZQ3Axs_4core6resultINtB5_6ResultNtNtCs5AlOhPCr03V_3syn4item14ImplItemMethodNtNtBO_5error5ErrorEINtNtNtB7_3ops9try_trait12FromResidualIBy_NtNtB7_7convert10InfallibleB1r_EE13from_residualBO_, symObjAddr: 0x11F38, symBinAddr: 0x68954, symSize: 0x48 }
  - { offset: 0xCDFCA, size: 0x8, addend: 0x0, symName: __RNvXsp_NtCsfvfooZQ3Axs_4core6resultINtB5_6ResultNtNtCs5AlOhPCr03V_3syn4item14ItemForeignModNtNtBO_5error5ErrorEINtNtNtB7_3ops9try_trait12FromResidualIBy_NtNtB7_7convert10InfallibleB1r_EE13from_residualBO_, symObjAddr: 0x11F80, symBinAddr: 0x6899C, symSize: 0x48 }
  - { offset: 0xCE04F, size: 0x8, addend: 0x0, symName: __RNvXsp_NtCsfvfooZQ3Axs_4core6resultINtB5_6ResultNtNtCs5AlOhPCr03V_3syn4item14ItemTraitAliasNtNtBO_5error5ErrorEINtNtNtB7_3ops9try_trait12FromResidualIBy_NtNtB7_7convert10InfallibleB1r_EE13from_residualBO_, symObjAddr: 0x11FC8, symBinAddr: 0x689E4, symSize: 0x48 }
  - { offset: 0xCE0D4, size: 0x8, addend: 0x0, symName: __RNvXsp_NtCsfvfooZQ3Axs_4core6resultINtB5_6ResultNtNtCs5AlOhPCr03V_3syn4item14TraitItemConstNtNtBO_5error5ErrorEINtNtNtB7_3ops9try_trait12FromResidualIBy_NtNtB7_7convert10InfallibleB1r_EE13from_residualBO_, symObjAddr: 0x12010, symBinAddr: 0x68A2C, symSize: 0x48 }
  - { offset: 0xCE159, size: 0x8, addend: 0x0, symName: __RNvXsp_NtCsfvfooZQ3Axs_4core6resultINtB5_6ResultNtNtCs5AlOhPCr03V_3syn4item14TraitItemMacroNtNtBO_5error5ErrorEINtNtNtB7_3ops9try_trait12FromResidualIBy_NtNtB7_7convert10InfallibleB1r_EE13from_residualBO_, symObjAddr: 0x12058, symBinAddr: 0x68A74, symSize: 0x48 }
  - { offset: 0xCE1DE, size: 0x8, addend: 0x0, symName: __RNvXsp_NtCsfvfooZQ3Axs_4core6resultINtB5_6ResultNtNtCs5AlOhPCr03V_3syn4item15ItemExternCrateNtNtBO_5error5ErrorEINtNtNtB7_3ops9try_trait12FromResidualIBy_NtNtB7_7convert10InfallibleB1s_EE13from_residualBO_, symObjAddr: 0x120E8, symBinAddr: 0x68ABC, symSize: 0x48 }
  - { offset: 0xCE263, size: 0x8, addend: 0x0, symName: __RNvXsp_NtCsfvfooZQ3Axs_4core6resultINtB5_6ResultNtNtCs5AlOhPCr03V_3syn4item15TraitItemMethodNtNtBO_5error5ErrorEINtNtNtB7_3ops9try_trait12FromResidualIBy_NtNtB7_7convert10InfallibleB1s_EE13from_residualBO_, symObjAddr: 0x12130, symBinAddr: 0x68B04, symSize: 0x48 }
  - { offset: 0xCE2E8, size: 0x8, addend: 0x0, symName: __RNvXsp_NtCsfvfooZQ3Axs_4core6resultINtB5_6ResultNtNtCs5AlOhPCr03V_3syn4item16ForeignItemMacroNtNtBO_5error5ErrorEINtNtNtB7_3ops9try_trait12FromResidualIBy_NtNtB7_7convert10InfallibleB1t_EE13from_residualBO_, symObjAddr: 0x12178, symBinAddr: 0x68B4C, symSize: 0x48 }
  - { offset: 0xCE36D, size: 0x8, addend: 0x0, symName: __RNvXsp_NtCsfvfooZQ3Axs_4core6resultINtB5_6ResultNtNtCs5AlOhPCr03V_3syn4item4ItemNtNtBO_5error5ErrorEINtNtNtB7_3ops9try_trait12FromResidualIBy_NtNtB7_7convert10InfallibleB1g_EE13from_residualBO_, symObjAddr: 0x12208, symBinAddr: 0x68B94, symSize: 0x48 }
  - { offset: 0xCE3F2, size: 0x8, addend: 0x0, symName: __RNvXsp_NtCsfvfooZQ3Axs_4core6resultINtB5_6ResultNtNtCs5AlOhPCr03V_3syn4item5FnArgNtNtBO_5error5ErrorEINtNtNtB7_3ops9try_trait12FromResidualIBy_NtNtB7_7convert10InfallibleB1h_EE13from_residualBO_, symObjAddr: 0x12250, symBinAddr: 0x68BDC, symSize: 0x48 }
  - { offset: 0xCE477, size: 0x8, addend: 0x0, symName: __RNvXsp_NtCsfvfooZQ3Axs_4core6resultINtB5_6ResultNtNtCs5AlOhPCr03V_3syn4item6ItemFnNtNtBO_5error5ErrorEINtNtNtB7_3ops9try_trait12FromResidualIBy_NtNtB7_7convert10InfallibleB1i_EE13from_residualBO_, symObjAddr: 0x12298, symBinAddr: 0x68C24, symSize: 0x48 }
  - { offset: 0xCE4FC, size: 0x8, addend: 0x0, symName: __RNvXsp_NtCsfvfooZQ3Axs_4core6resultINtB5_6ResultNtNtCs5AlOhPCr03V_3syn4item7ItemModNtNtBO_5error5ErrorEINtNtNtB7_3ops9try_trait12FromResidualIBy_NtNtB7_7convert10InfallibleB1j_EE13from_residualBO_, symObjAddr: 0x122E0, symBinAddr: 0x68C6C, symSize: 0x48 }
  - { offset: 0xCE581, size: 0x8, addend: 0x0, symName: __RNvXsp_NtCsfvfooZQ3Axs_4core6resultINtB5_6ResultNtNtCs5AlOhPCr03V_3syn4item7ItemUseNtNtBO_5error5ErrorEINtNtNtB7_3ops9try_trait12FromResidualIBy_NtNtB7_7convert10InfallibleB1j_EE13from_residualBO_, symObjAddr: 0x12328, symBinAddr: 0x68CB4, symSize: 0x48 }
  - { offset: 0xCE606, size: 0x8, addend: 0x0, symName: __RNvXsp_NtCsfvfooZQ3Axs_4core6resultINtB5_6ResultNtNtCs5AlOhPCr03V_3syn4item7UseTreeNtNtBO_5error5ErrorEINtNtNtB7_3ops9try_trait12FromResidualIBy_NtNtB7_7convert10InfallibleB1j_EE13from_residualBO_, symObjAddr: 0x12370, symBinAddr: 0x68CFC, symSize: 0x48 }
  - { offset: 0xCE68B, size: 0x8, addend: 0x0, symName: __RNvXsp_NtCsfvfooZQ3Axs_4core6resultINtB5_6ResultNtNtCs5AlOhPCr03V_3syn4item8ImplItemNtNtBO_5error5ErrorEINtNtNtB7_3ops9try_trait12FromResidualIBy_NtNtB7_7convert10InfallibleB1k_EE13from_residualBO_, symObjAddr: 0x123B8, symBinAddr: 0x68D44, symSize: 0x4C }
  - { offset: 0xCE710, size: 0x8, addend: 0x0, symName: __RNvXsp_NtCsfvfooZQ3Axs_4core6resultINtB5_6ResultNtNtCs5AlOhPCr03V_3syn4item8ItemEnumNtNtBO_5error5ErrorEINtNtNtB7_3ops9try_trait12FromResidualIBy_NtNtB7_7convert10InfallibleB1k_EE13from_residualBO_, symObjAddr: 0x12404, symBinAddr: 0x68D90, symSize: 0x48 }
  - { offset: 0xCE795, size: 0x8, addend: 0x0, symName: __RNvXsp_NtCsfvfooZQ3Axs_4core6resultINtB5_6ResultNtNtCs5AlOhPCr03V_3syn4item8ReceiverNtNtBO_5error5ErrorEINtNtNtB7_3ops9try_trait12FromResidualIBy_NtNtB7_7convert10InfallibleB1k_EE13from_residualBO_, symObjAddr: 0x12494, symBinAddr: 0x68DD8, symSize: 0x48 }
  - { offset: 0xCE81A, size: 0x8, addend: 0x0, symName: __RNvXsp_NtCsfvfooZQ3Axs_4core6resultINtB5_6ResultNtNtCs5AlOhPCr03V_3syn4item9ItemMacroNtNtBO_5error5ErrorEINtNtNtB7_3ops9try_trait12FromResidualIBy_NtNtB7_7convert10InfallibleB1l_EE13from_residualBO_, symObjAddr: 0x12524, symBinAddr: 0x68E20, symSize: 0x48 }
  - { offset: 0xCE89F, size: 0x8, addend: 0x0, symName: __RNvXsp_NtCsfvfooZQ3Axs_4core6resultINtB5_6ResultNtNtCs5AlOhPCr03V_3syn4item9ItemTraitNtNtBO_5error5ErrorEINtNtNtB7_3ops9try_trait12FromResidualIBy_NtNtB7_7convert10InfallibleB1l_EE13from_residualBO_, symObjAddr: 0x1256C, symBinAddr: 0x68E68, symSize: 0x48 }
  - { offset: 0xCE924, size: 0x8, addend: 0x0, symName: __RNvXsp_NtCsfvfooZQ3Axs_4core6resultINtB5_6ResultNtNtCs5AlOhPCr03V_3syn4item9ItemUnionNtNtBO_5error5ErrorEINtNtNtB7_3ops9try_trait12FromResidualIBy_NtNtB7_7convert10InfallibleB1l_EE13from_residualBO_, symObjAddr: 0x125B4, symBinAddr: 0x68EB0, symSize: 0x48 }
  - { offset: 0xCE9A9, size: 0x8, addend: 0x0, symName: __RNvXsp_NtCsfvfooZQ3Axs_4core6resultINtB5_6ResultNtNtCs5AlOhPCr03V_3syn4item9SignatureNtNtBO_5error5ErrorEINtNtNtB7_3ops9try_trait12FromResidualIBy_NtNtB7_7convert10InfallibleB1l_EE13from_residualBO_, symObjAddr: 0x125FC, symBinAddr: 0x68EF8, symSize: 0x48 }
  - { offset: 0xCEA2E, size: 0x8, addend: 0x0, symName: __RNvXsp_NtCsfvfooZQ3Axs_4core6resultINtB5_6ResultNtNtCs5AlOhPCr03V_3syn4item9TraitItemNtNtBO_5error5ErrorEINtNtNtB7_3ops9try_trait12FromResidualIBy_NtNtB7_7convert10InfallibleB1l_EE13from_residualBO_, symObjAddr: 0x12644, symBinAddr: 0x68F40, symSize: 0x4C }
  - { offset: 0xCEAB3, size: 0x8, addend: 0x0, symName: __RNvXsp_NtCsfvfooZQ3Axs_4core6resultINtB5_6ResultNtNtCs5AlOhPCr03V_3syn4path10ConstraintNtNtBO_5error5ErrorEINtNtNtB7_3ops9try_trait12FromResidualIBy_NtNtB7_7convert10InfallibleB1n_EE13from_residualBO_, symObjAddr: 0x12690, symBinAddr: 0x68F8C, symSize: 0x48 }
  - { offset: 0xCEB38, size: 0x8, addend: 0x0, symName: __RNvXsp_NtCsfvfooZQ3Axs_4core6resultINtB5_6ResultNtNtCs5AlOhPCr03V_3syn4path11PathSegmentNtNtBO_5error5ErrorEINtNtNtB7_3ops9try_trait12FromResidualIBy_NtNtB7_7convert10InfallibleB1o_EE13from_residualBO_, symObjAddr: 0x126D8, symBinAddr: 0x68FD4, symSize: 0x48 }
  - { offset: 0xCEBBD, size: 0x8, addend: 0x0, symName: __RNvXsp_NtCsfvfooZQ3Axs_4core6resultINtB5_6ResultNtNtCs5AlOhPCr03V_3syn4path15GenericArgumentNtNtBO_5error5ErrorEINtNtNtB7_3ops9try_trait12FromResidualIBy_NtNtB7_7convert10InfallibleB1s_EE13from_residualBO_, symObjAddr: 0x12720, symBinAddr: 0x6901C, symSize: 0x4C }
  - { offset: 0xCEC42, size: 0x8, addend: 0x0, symName: __RNvXsp_NtCsfvfooZQ3Axs_4core6resultINtB5_6ResultNtNtCs5AlOhPCr03V_3syn4path29ParenthesizedGenericArgumentsNtNtBO_5error5ErrorEINtNtNtB7_3ops9try_trait12FromResidualIBy_NtNtB7_7convert10InfallibleB1G_EE13from_residualBO_, symObjAddr: 0x1276C, symBinAddr: 0x69068, symSize: 0x48 }
  - { offset: 0xCECC7, size: 0x8, addend: 0x0, symName: __RNvXsp_NtCsfvfooZQ3Axs_4core6resultINtB5_6ResultNtNtCs5AlOhPCr03V_3syn4path30AngleBracketedGenericArgumentsNtNtBO_5error5ErrorEINtNtNtB7_3ops9try_trait12FromResidualIBy_NtNtB7_7convert10InfallibleB1H_EE13from_residualBO_, symObjAddr: 0x127B4, symBinAddr: 0x690B0, symSize: 0x48 }
  - { offset: 0xCED4C, size: 0x8, addend: 0x0, symName: __RNvXsp_NtCsfvfooZQ3Axs_4core6resultINtB5_6ResultNtNtCs5AlOhPCr03V_3syn4path4PathNtNtBO_5error5ErrorEINtNtNtB7_3ops9try_trait12FromResidualIBy_NtNtB7_7convert10InfallibleB1g_EE13from_residualBO_, symObjAddr: 0x127FC, symBinAddr: 0x690F8, symSize: 0x48 }
  - { offset: 0xCEDD1, size: 0x8, addend: 0x0, symName: __RNvXsp_NtCsfvfooZQ3Axs_4core6resultINtB5_6ResultNtNtCs5AlOhPCr03V_3syn4stmt4StmtNtNtBO_5error5ErrorEINtNtNtB7_3ops9try_trait12FromResidualIBy_NtNtB7_7convert10InfallibleB1g_EE13from_residualBO_, symObjAddr: 0x12890, symBinAddr: 0x69140, symSize: 0x48 }
  - { offset: 0xCEE56, size: 0x8, addend: 0x0, symName: __RNvXsp_NtCsfvfooZQ3Axs_4core6resultINtB5_6ResultNtNtCs5AlOhPCr03V_3syn4stmt5BlockNtNtBO_5error5ErrorEINtNtNtB7_3ops9try_trait12FromResidualIBy_NtNtB7_7convert10InfallibleB1h_EE13from_residualBO_, symObjAddr: 0x128D8, symBinAddr: 0x69188, symSize: 0x48 }
  - { offset: 0xCEEDB, size: 0x8, addend: 0x0, symName: __RNvXsp_NtCsfvfooZQ3Axs_4core6resultINtB5_6ResultNtNtCs5AlOhPCr03V_3syn5token10UnderscoreNtNtBO_5error5ErrorEINtNtNtB7_3ops9try_trait12FromResidualIBy_NtNtB7_7convert10InfallibleB1o_EE13from_residualBO_, symObjAddr: 0x12920, symBinAddr: 0x691D0, symSize: 0x40 }
  - { offset: 0xCEF60, size: 0x8, addend: 0x0, symName: __RNvXsp_NtCsfvfooZQ3Axs_4core6resultINtB5_6ResultNtNtCs5AlOhPCr03V_3syn5token2AsNtNtBO_5error5ErrorEINtNtNtB7_3ops9try_trait12FromResidualIBy_NtNtB7_7convert10InfallibleB1f_EE13from_residualBO_, symObjAddr: 0x12960, symBinAddr: 0x69210, symSize: 0x40 }
  - { offset: 0xCEFE5, size: 0x8, addend: 0x0, symName: __RNvXsp_NtCsfvfooZQ3Axs_4core6resultINtB5_6ResultNtNtCs5AlOhPCr03V_3syn5token2AtNtNtBO_5error5ErrorEINtNtNtB7_3ops9try_trait12FromResidualIBy_NtNtB7_7convert10InfallibleB1f_EE13from_residualBO_, symObjAddr: 0x129A0, symBinAddr: 0x69250, symSize: 0x40 }
  - { offset: 0xCF06A, size: 0x8, addend: 0x0, symName: __RNvXsp_NtCsfvfooZQ3Axs_4core6resultINtB5_6ResultNtNtCs5AlOhPCr03V_3syn5token2EqNtNtBO_5error5ErrorEINtNtNtB7_3ops9try_trait12FromResidualIBy_NtNtB7_7convert10InfallibleB1f_EE13from_residualBO_, symObjAddr: 0x12A20, symBinAddr: 0x69290, symSize: 0x40 }
  - { offset: 0xCF0EF, size: 0x8, addend: 0x0, symName: __RNvXsp_NtCsfvfooZQ3Axs_4core6resultINtB5_6ResultNtNtCs5AlOhPCr03V_3syn5token2FnNtNtBO_5error5ErrorEINtNtNtB7_3ops9try_trait12FromResidualIBy_NtNtB7_7convert10InfallibleB1f_EE13from_residualBO_, symObjAddr: 0x12A60, symBinAddr: 0x692D0, symSize: 0x40 }
  - { offset: 0xCF174, size: 0x8, addend: 0x0, symName: __RNvXsp_NtCsfvfooZQ3Axs_4core6resultINtB5_6ResultNtNtCs5AlOhPCr03V_3syn5token2GeNtNtBO_5error5ErrorEINtNtNtB7_3ops9try_trait12FromResidualIBy_NtNtB7_7convert10InfallibleB1f_EE13from_residualBO_, symObjAddr: 0x12AA0, symBinAddr: 0x69310, symSize: 0x40 }
  - { offset: 0xCF1F9, size: 0x8, addend: 0x0, symName: __RNvXsp_NtCsfvfooZQ3Axs_4core6resultINtB5_6ResultNtNtCs5AlOhPCr03V_3syn5token2GtNtNtBO_5error5ErrorEINtNtNtB7_3ops9try_trait12FromResidualIBy_NtNtB7_7convert10InfallibleB1f_EE13from_residualBO_, symObjAddr: 0x12AE0, symBinAddr: 0x69350, symSize: 0x40 }
  - { offset: 0xCF27E, size: 0x8, addend: 0x0, symName: __RNvXsp_NtCsfvfooZQ3Axs_4core6resultINtB5_6ResultNtNtCs5AlOhPCr03V_3syn5token2IfNtNtBO_5error5ErrorEINtNtNtB7_3ops9try_trait12FromResidualIBy_NtNtB7_7convert10InfallibleB1f_EE13from_residualBO_, symObjAddr: 0x12B20, symBinAddr: 0x69390, symSize: 0x40 }
  - { offset: 0xCF303, size: 0x8, addend: 0x0, symName: __RNvXsp_NtCsfvfooZQ3Axs_4core6resultINtB5_6ResultNtNtCs5AlOhPCr03V_3syn5token2InNtNtBO_5error5ErrorEINtNtNtB7_3ops9try_trait12FromResidualIBy_NtNtB7_7convert10InfallibleB1f_EE13from_residualBO_, symObjAddr: 0x12B60, symBinAddr: 0x693D0, symSize: 0x40 }
  - { offset: 0xCF388, size: 0x8, addend: 0x0, symName: __RNvXsp_NtCsfvfooZQ3Axs_4core6resultINtB5_6ResultNtNtCs5AlOhPCr03V_3syn5token2LeNtNtBO_5error5ErrorEINtNtNtB7_3ops9try_trait12FromResidualIBy_NtNtB7_7convert10InfallibleB1f_EE13from_residualBO_, symObjAddr: 0x12BA0, symBinAddr: 0x69410, symSize: 0x40 }
  - { offset: 0xCF40D, size: 0x8, addend: 0x0, symName: __RNvXsp_NtCsfvfooZQ3Axs_4core6resultINtB5_6ResultNtNtCs5AlOhPCr03V_3syn5token2LtNtNtBO_5error5ErrorEINtNtNtB7_3ops9try_trait12FromResidualIBy_NtNtB7_7convert10InfallibleB1f_EE13from_residualBO_, symObjAddr: 0x12BE0, symBinAddr: 0x69450, symSize: 0x40 }
  - { offset: 0xCF492, size: 0x8, addend: 0x0, symName: __RNvXsp_NtCsfvfooZQ3Axs_4core6resultINtB5_6ResultNtNtCs5AlOhPCr03V_3syn5token2NeNtNtBO_5error5ErrorEINtNtNtB7_3ops9try_trait12FromResidualIBy_NtNtB7_7convert10InfallibleB1f_EE13from_residualBO_, symObjAddr: 0x12C20, symBinAddr: 0x69490, symSize: 0x40 }
  - { offset: 0xCF517, size: 0x8, addend: 0x0, symName: __RNvXsp_NtCsfvfooZQ3Axs_4core6resultINtB5_6ResultNtNtCs5AlOhPCr03V_3syn5token2OrNtNtBO_5error5ErrorEINtNtNtB7_3ops9try_trait12FromResidualIBy_NtNtB7_7convert10InfallibleB1f_EE13from_residualBO_, symObjAddr: 0x12C60, symBinAddr: 0x694D0, symSize: 0x40 }
  - { offset: 0xCF59C, size: 0x8, addend: 0x0, symName: __RNvXsp_NtCsfvfooZQ3Axs_4core6resultINtB5_6ResultNtNtCs5AlOhPCr03V_3syn5token3AddNtNtBO_5error5ErrorEINtNtNtB7_3ops9try_trait12FromResidualIBy_NtNtB7_7convert10InfallibleB1g_EE13from_residualBO_, symObjAddr: 0x12CA0, symBinAddr: 0x69510, symSize: 0x40 }
  - { offset: 0xCF621, size: 0x8, addend: 0x0, symName: __RNvXsp_NtCsfvfooZQ3Axs_4core6resultINtB5_6ResultNtNtCs5AlOhPCr03V_3syn5token3AndNtNtBO_5error5ErrorEINtNtNtB7_3ops9try_trait12FromResidualIBy_NtNtB7_7convert10InfallibleB1g_EE13from_residualBO_, symObjAddr: 0x12CE0, symBinAddr: 0x69550, symSize: 0x40 }
  - { offset: 0xCF6A6, size: 0x8, addend: 0x0, symName: __RNvXsp_NtCsfvfooZQ3Axs_4core6resultINtB5_6ResultNtNtCs5AlOhPCr03V_3syn5token3BoxNtNtBO_5error5ErrorEINtNtNtB7_3ops9try_trait12FromResidualIBy_NtNtB7_7convert10InfallibleB1g_EE13from_residualBO_, symObjAddr: 0x12D20, symBinAddr: 0x69590, symSize: 0x40 }
  - { offset: 0xCF72B, size: 0x8, addend: 0x0, symName: __RNvXsp_NtCsfvfooZQ3Axs_4core6resultINtB5_6ResultNtNtCs5AlOhPCr03V_3syn5token3DivNtNtBO_5error5ErrorEINtNtNtB7_3ops9try_trait12FromResidualIBy_NtNtB7_7convert10InfallibleB1g_EE13from_residualBO_, symObjAddr: 0x12D60, symBinAddr: 0x695D0, symSize: 0x40 }
  - { offset: 0xCF7B0, size: 0x8, addend: 0x0, symName: __RNvXsp_NtCsfvfooZQ3Axs_4core6resultINtB5_6ResultNtNtCs5AlOhPCr03V_3syn5token3DotNtNtBO_5error5ErrorEINtNtNtB7_3ops9try_trait12FromResidualIBy_NtNtB7_7convert10InfallibleB1g_EE13from_residualBO_, symObjAddr: 0x12DA0, symBinAddr: 0x69610, symSize: 0x40 }
  - { offset: 0xCF835, size: 0x8, addend: 0x0, symName: __RNvXsp_NtCsfvfooZQ3Axs_4core6resultINtB5_6ResultNtNtCs5AlOhPCr03V_3syn5token3DynNtNtBO_5error5ErrorEINtNtNtB7_3ops9try_trait12FromResidualIBy_NtNtB7_7convert10InfallibleB1g_EE13from_residualBO_, symObjAddr: 0x12DE0, symBinAddr: 0x69650, symSize: 0x40 }
  - { offset: 0xCF8BA, size: 0x8, addend: 0x0, symName: __RNvXsp_NtCsfvfooZQ3Axs_4core6resultINtB5_6ResultNtNtCs5AlOhPCr03V_3syn5token3ForNtNtBO_5error5ErrorEINtNtNtB7_3ops9try_trait12FromResidualIBy_NtNtB7_7convert10InfallibleB1g_EE13from_residualBO_, symObjAddr: 0x12E20, symBinAddr: 0x69690, symSize: 0x40 }
  - { offset: 0xCF93F, size: 0x8, addend: 0x0, symName: __RNvXsp_NtCsfvfooZQ3Axs_4core6resultINtB5_6ResultNtNtCs5AlOhPCr03V_3syn5token3LetNtNtBO_5error5ErrorEINtNtNtB7_3ops9try_trait12FromResidualIBy_NtNtB7_7convert10InfallibleB1g_EE13from_residualBO_, symObjAddr: 0x12E60, symBinAddr: 0x696D0, symSize: 0x40 }
  - { offset: 0xCF9C4, size: 0x8, addend: 0x0, symName: __RNvXsp_NtCsfvfooZQ3Axs_4core6resultINtB5_6ResultNtNtCs5AlOhPCr03V_3syn5token3ModNtNtBO_5error5ErrorEINtNtNtB7_3ops9try_trait12FromResidualIBy_NtNtB7_7convert10InfallibleB1g_EE13from_residualBO_, symObjAddr: 0x12EA0, symBinAddr: 0x69710, symSize: 0x40 }
  - { offset: 0xCFA49, size: 0x8, addend: 0x0, symName: __RNvXsp_NtCsfvfooZQ3Axs_4core6resultINtB5_6ResultNtNtCs5AlOhPCr03V_3syn5token3MutNtNtBO_5error5ErrorEINtNtNtB7_3ops9try_trait12FromResidualIBy_NtNtB7_7convert10InfallibleB1g_EE13from_residualBO_, symObjAddr: 0x12EE0, symBinAddr: 0x69750, symSize: 0x40 }
  - { offset: 0xCFACE, size: 0x8, addend: 0x0, symName: __RNvXsp_NtCsfvfooZQ3Axs_4core6resultINtB5_6ResultNtNtCs5AlOhPCr03V_3syn5token3PubNtNtBO_5error5ErrorEINtNtNtB7_3ops9try_trait12FromResidualIBy_NtNtB7_7convert10InfallibleB1g_EE13from_residualBO_, symObjAddr: 0x12F20, symBinAddr: 0x69790, symSize: 0x40 }
  - { offset: 0xCFB53, size: 0x8, addend: 0x0, symName: __RNvXsp_NtCsfvfooZQ3Axs_4core6resultINtB5_6ResultNtNtCs5AlOhPCr03V_3syn5token3RefNtNtBO_5error5ErrorEINtNtNtB7_3ops9try_trait12FromResidualIBy_NtNtB7_7convert10InfallibleB1g_EE13from_residualBO_, symObjAddr: 0x12F60, symBinAddr: 0x697D0, symSize: 0x40 }
