---
triple:          'arm64-apple-darwin'
binary-path:     '/Users/cedric/orange/ran-llm-claude-flow/src/rust-pipeline/target/debug/deps/libdatasize_derive-7c073bc68792f455.dylib'
relocations:
  - { offset: 0x1E, size: 0x8, addend: 0x0, symName: __RINvMs6_NtCsloNvcHxBCre_9hashbrown3rawINtB6_8RawTableTNtCs3cP53eQoTwO_11proc_macro25IdentuEE14reserve_rehashNCINvNtB8_3map11make_hasherBQ_uNtNtNtCscOYdFFY2T5N_3std4hash6random11RandomStateE0ECsjDl19lsdQYR_15datasize_derive, symObjAddr: 0x0, symBinAddr: 0x155360, symSize: 0x840 }
  - { offset: 0x5A, size: 0x8, addend: 0x0, symName: __RNCINvMs6_NtCsloNvcHxBCre_9hashbrown3rawINtB8_8RawTableTNtCs3cP53eQoTwO_11proc_macro25IdentuEE14reserve_rehashNCINvNtBa_3map11make_hasherBS_uNtNtNtCscOYdFFY2T5N_3std4hash6random11RandomStateE0E0CsjDl19lsdQYR_15datasize_derive, symObjAddr: 0x15E4, symBinAddr: 0x19F4, symSize: 0xC0 }
  - { offset: 0x217, size: 0x8, addend: 0x0, symName: __RNCINvMs6_NtCsloNvcHxBCre_9hashbrown3rawINtB8_8RawTableTNtCs3cP53eQoTwO_11proc_macro25IdentuEE14reserve_rehashNCINvNtBa_3map11make_hasherBS_uNtNtNtCscOYdFFY2T5N_3std4hash6random11RandomStateE0Es_0CsjDl19lsdQYR_15datasize_derive, symObjAddr: 0x16A4, symBinAddr: 0x1AB4, symSize: 0x30 }
  - { offset: 0x274, size: 0x8, addend: 0x0, symName: __RNCINvMs6_NtCsloNvcHxBCre_9hashbrown3rawINtB8_8RawTableTNtCs3cP53eQoTwO_11proc_macro25IdentuEE24find_or_find_insert_slotNCINvNtBa_3map14equivalent_keyBS_BS_uE0NCINvB1Z_11make_hasherBS_uNtNtNtCscOYdFFY2T5N_3std4hash6random11RandomStateE0E0CsjDl19lsdQYR_15datasize_derive, symObjAddr: 0x16D4, symBinAddr: 0x1AE4, symSize: 0xC4 }
  - { offset: 0x447, size: 0x8, addend: 0x0, symName: __RNCINvMs6_NtCsloNvcHxBCre_9hashbrown3rawINtB8_8RawTableTNtCs3cP53eQoTwO_11proc_macro25IdentuEE4findNCINvNtBa_3map14equivalent_keyBS_BS_uE0E0CsjDl19lsdQYR_15datasize_derive, symObjAddr: 0x1798, symBinAddr: 0x1BA8, symSize: 0xC4 }
  - { offset: 0xD61, size: 0x8, addend: 0x0, symName: __RNCINvMsa_NtCsloNvcHxBCre_9hashbrown3rawNtB8_13RawTableInner14prepare_resizeNtNtCse1nGBsou5OW_5alloc5alloc6GlobalE0CsjDl19lsdQYR_15datasize_derive, symObjAddr: 0x185C, symBinAddr: 0x1C6C, symSize: 0xBC }
  - { offset: 0xF44, size: 0x8, addend: 0x0, symName: __RNCNvMsa_NtCsloNvcHxBCre_9hashbrown3rawNtB7_13RawTableInner15rehash_in_place0CsjDl19lsdQYR_15datasize_derive, symObjAddr: 0x1918, symBinAddr: 0x1D28, symSize: 0x23C }
  - { offset: 0x151F, size: 0x8, addend: 0x0, symName: __RNvNtCsloNvcHxBCre_9hashbrown3raw19capacity_to_bucketsCsjDl19lsdQYR_15datasize_derive, symObjAddr: 0x2D5C, symBinAddr: 0x316C, symSize: 0x198 }
  - { offset: 0x16DA, size: 0x8, addend: 0x0, symName: __RNvXsg_NtCsloNvcHxBCre_9hashbrown3rawINtB5_8RawTableTNtCs3cP53eQoTwO_11proc_macro25IdentuEENtNtNtCsfvfooZQ3Axs_4core3ops4drop4Drop4dropCsjDl19lsdQYR_15datasize_derive, symObjAddr: 0x2EF4, symBinAddr: 0x3304, symSize: 0x3C }
  - { offset: 0x5031, size: 0x8, addend: 0x0, symName: __RINvMs6_NtCsloNvcHxBCre_9hashbrown3rawINtB6_8RawTableTNtCs3cP53eQoTwO_11proc_macro25IdentuEE14reserve_rehashNCINvNtB8_3map11make_hasherBQ_uNtNtNtCscOYdFFY2T5N_3std4hash6random11RandomStateE0ECsjDl19lsdQYR_15datasize_derive, symObjAddr: 0x0, symBinAddr: 0x155360, symSize: 0x840 }
  - { offset: 0x5A21, size: 0x8, addend: 0x0, symName: __RINvMs6_NtCsloNvcHxBCre_9hashbrown3rawINtB6_8RawTableTNtCs3cP53eQoTwO_11proc_macro25IdentuEE24find_or_find_insert_slotNCINvNtB8_3map14equivalent_keyBQ_BQ_uE0NCINvB1X_11make_hasherBQ_uNtNtNtCscOYdFFY2T5N_3std4hash6random11RandomStateE0ECsjDl19lsdQYR_15datasize_derive, symObjAddr: 0x840, symBinAddr: 0xC50, symSize: 0x13C }
  - { offset: 0x5E9B, size: 0x8, addend: 0x0, symName: __RINvMs6_NtCsloNvcHxBCre_9hashbrown3rawINtB6_8RawTableTNtCs3cP53eQoTwO_11proc_macro25IdentuEE4findNCINvNtB8_3map14equivalent_keyBQ_BQ_uE0ECsjDl19lsdQYR_15datasize_derive, symObjAddr: 0x97C, symBinAddr: 0xD8C, symSize: 0x330 }
  - { offset: 0x6356, size: 0x8, addend: 0x0, symName: __RINvMs6_NtCsloNvcHxBCre_9hashbrown3rawINtB6_8RawTableTNtCs3cP53eQoTwO_11proc_macro25IdentuEE7reserveNCINvNtB8_3map11make_hasherBQ_uNtNtNtCscOYdFFY2T5N_3std4hash6random11RandomStateE0ECsjDl19lsdQYR_15datasize_derive, symObjAddr: 0xCAC, symBinAddr: 0x10BC, symSize: 0xCC }
  - { offset: 0x653A, size: 0x8, addend: 0x0, symName: __RINvMsa_NtCsloNvcHxBCre_9hashbrown3rawNtB6_13RawTableInner13drop_elementsTNtCs3cP53eQoTwO_11proc_macro25IdentuEECsjDl19lsdQYR_15datasize_derive, symObjAddr: 0xD78, symBinAddr: 0x1188, symSize: 0x174 }
  - { offset: 0x68A7, size: 0x8, addend: 0x0, symName: __RINvMsa_NtCsloNvcHxBCre_9hashbrown3rawNtB6_13RawTableInner16drop_inner_tableTNtCs3cP53eQoTwO_11proc_macro25IdentuENtNtCse1nGBsou5OW_5alloc5alloc6GlobalECsjDl19lsdQYR_15datasize_derive, symObjAddr: 0xEEC, symBinAddr: 0x12FC, symSize: 0xBC }
  - { offset: 0x6ABA, size: 0x8, addend: 0x0, symName: __RINvMsa_NtCsloNvcHxBCre_9hashbrown3rawNtB6_13RawTableInner17new_uninitializedNtNtCse1nGBsou5OW_5alloc5alloc6GlobalECsjDl19lsdQYR_15datasize_derive, symObjAddr: 0xFA8, symBinAddr: 0x13B8, symSize: 0x1B0 }
  - { offset: 0x6CF3, size: 0x8, addend: 0x0, symName: __RINvMsa_NtCsloNvcHxBCre_9hashbrown3rawNtB6_13RawTableInner22fallible_with_capacityNtNtCse1nGBsou5OW_5alloc5alloc6GlobalECsjDl19lsdQYR_15datasize_derive, symObjAddr: 0x1158, symBinAddr: 0x1568, symSize: 0x2A8 }
  - { offset: 0x716A, size: 0x8, addend: 0x0, symName: __RINvMsi_NtCsloNvcHxBCre_9hashbrown3rawINtB6_12RawIterRangeTNtCs3cP53eQoTwO_11proc_macro25IdentuEE9next_implKb0_ECsjDl19lsdQYR_15datasize_derive, symObjAddr: 0x1400, symBinAddr: 0x1810, symSize: 0x1E4 }
  - { offset: 0x7A42, size: 0x8, addend: 0x0, symName: __RNvMs1_NtCsloNvcHxBCre_9hashbrown3rawNtB5_11TableLayout20calculate_layout_forCsjDl19lsdQYR_15datasize_derive, symObjAddr: 0x1B54, symBinAddr: 0x1F64, symSize: 0x210 }
  - { offset: 0x7ECF, size: 0x8, addend: 0x0, symName: __RNvMs6_NtCsloNvcHxBCre_9hashbrown3rawINtB5_8RawTableTNtCs3cP53eQoTwO_11proc_macro25IdentuEE14insert_in_slotCsjDl19lsdQYR_15datasize_derive, symObjAddr: 0x1D64, symBinAddr: 0x2174, symSize: 0x138 }
  - { offset: 0x8385, size: 0x8, addend: 0x0, symName: __RNvMsa_NtCsloNvcHxBCre_9hashbrown3rawNtB5_13RawTableInner15fix_insert_slotCsjDl19lsdQYR_15datasize_derive, symObjAddr: 0x1E9C, symBinAddr: 0x22AC, symSize: 0x128 }
  - { offset: 0x8703, size: 0x8, addend: 0x0, symName: __RNvMsa_NtCsloNvcHxBCre_9hashbrown3rawNtB5_13RawTableInner15rehash_in_placeCsjDl19lsdQYR_15datasize_derive, symObjAddr: 0x1FC4, symBinAddr: 0x23D4, symSize: 0x4E8 }
  - { offset: 0x8F0D, size: 0x8, addend: 0x0, symName: __RNvMsa_NtCsloNvcHxBCre_9hashbrown3rawNtB5_13RawTableInner16find_insert_slotCsjDl19lsdQYR_15datasize_derive, symObjAddr: 0x24AC, symBinAddr: 0x28BC, symSize: 0x10C }
  - { offset: 0x90FE, size: 0x8, addend: 0x0, symName: __RNvMsa_NtCsloNvcHxBCre_9hashbrown3rawNtB5_13RawTableInner19prepare_insert_slotCsjDl19lsdQYR_15datasize_derive, symObjAddr: 0x25B8, symBinAddr: 0x29C8, symSize: 0x74 }
  - { offset: 0x93F0, size: 0x8, addend: 0x0, symName: __RNvMsa_NtCsloNvcHxBCre_9hashbrown3rawNtB5_13RawTableInner23prepare_rehash_in_placeCsjDl19lsdQYR_15datasize_derive, symObjAddr: 0x262C, symBinAddr: 0x2A3C, symSize: 0x254 }
  - { offset: 0x9AEC, size: 0x8, addend: 0x0, symName: __RNvMsa_NtCsloNvcHxBCre_9hashbrown3rawNtB5_13RawTableInner25find_insert_slot_in_groupCsjDl19lsdQYR_15datasize_derive, symObjAddr: 0x2880, symBinAddr: 0x2C90, symSize: 0x160 }
  - { offset: 0x9DB5, size: 0x8, addend: 0x0, symName: __RNvMsa_NtCsloNvcHxBCre_9hashbrown3rawNtB5_13RawTableInner30find_or_find_insert_slot_innerCsjDl19lsdQYR_15datasize_derive, symObjAddr: 0x29E0, symBinAddr: 0x2DF0, symSize: 0x2BC }
  - { offset: 0xA1B0, size: 0x8, addend: 0x0, symName: __RNvMsi_NtCsloNvcHxBCre_9hashbrown3rawINtB5_12RawIterRangeTNtCs3cP53eQoTwO_11proc_macro25IdentuEE3newCsjDl19lsdQYR_15datasize_derive, symObjAddr: 0x2C9C, symBinAddr: 0x30AC, symSize: 0xC0 }
  - { offset: 0xA437, size: 0x8, addend: 0x0, symName: __RINvMNtCsfvfooZQ3Axs_4core6optionINtB3_6OptionINtNtCse1nGBsou5OW_5alloc5boxed3BoxNtNtCs5AlOhPCr03V_3syn4data7VariantEE3mapB1h_NCNvXs8_NtB1l_10punctuatedINtB28_10PunctuatedB1h_NtNtB1l_5token5CommaENtNtNtNtB5_4iter6traits7collect12IntoIterator9into_iters_0ECsjDl19lsdQYR_15datasize_derive, symObjAddr: 0x0, symBinAddr: 0x3340, symSize: 0x78 }
  - { offset: 0xA96B, size: 0x8, addend: 0x0, symName: __RNCNvXs8_NtCs5AlOhPCr03V_3syn10punctuatedINtB7_10PunctuatedNtNtB9_4data7VariantNtNtB9_5token5CommaENtNtNtNtCsfvfooZQ3Axs_4core4iter6traits7collect12IntoIterator9into_iter0CsjDl19lsdQYR_15datasize_derive, symObjAddr: 0xF0C, symBinAddr: 0x424C, symSize: 0x44 }
  - { offset: 0xA9B7, size: 0x8, addend: 0x0, symName: __RNCNvXs8_NtCs5AlOhPCr03V_3syn10punctuatedINtB7_10PunctuatedNtNtB9_4data7VariantNtNtB9_5token5CommaENtNtNtNtCsfvfooZQ3Axs_4core4iter6traits7collect12IntoIterator9into_iters_0CsjDl19lsdQYR_15datasize_derive, symObjAddr: 0xF50, symBinAddr: 0x4290, symSize: 0x98 }
  - { offset: 0xAA0A, size: 0x8, addend: 0x0, symName: __RNvXs8_NtCs5AlOhPCr03V_3syn10punctuatedINtB5_10PunctuatedNtNtB7_4data7VariantNtNtB7_5token5CommaENtNtNtNtCsfvfooZQ3Axs_4core4iter6traits7collect12IntoIterator9into_iterCsjDl19lsdQYR_15datasize_derive, symObjAddr: 0x2290, symBinAddr: 0x55D0, symSize: 0x1C0 }
  - { offset: 0xAABA, size: 0x8, addend: 0x0, symName: __RNCNvXsw_NtCs5AlOhPCr03V_3syn10punctuatedINtB7_11PrivateIterNtNtB9_2ty4TypeNtNtB9_5token5CommaENtNtNtNtCsfvfooZQ3Axs_4core4iter6traits8iterator8Iterator4next0CsjDl19lsdQYR_15datasize_derive, symObjAddr: 0xFE8, symBinAddr: 0x4328, symSize: 0x24 }
  - { offset: 0xAB05, size: 0x8, addend: 0x0, symName: __RNCNvXsw_NtCs5AlOhPCr03V_3syn10punctuatedINtB7_11PrivateIterNtNtB9_2ty4TypeNtNtB9_5token5CommaENtNtNtNtCsfvfooZQ3Axs_4core4iter6traits8iterator8Iterator4nexts_0CsjDl19lsdQYR_15datasize_derive, symObjAddr: 0x100C, symBinAddr: 0x434C, symSize: 0x3C }
  - { offset: 0xAB47, size: 0x8, addend: 0x0, symName: __RNCNvXsw_NtCs5AlOhPCr03V_3syn10punctuatedINtB7_11PrivateIterNtNtB9_2ty9BareFnArgNtNtB9_5token5CommaENtNtNtNtCsfvfooZQ3Axs_4core4iter6traits8iterator8Iterator4next0CsjDl19lsdQYR_15datasize_derive, symObjAddr: 0x1048, symBinAddr: 0x4388, symSize: 0x24 }
  - { offset: 0xAB92, size: 0x8, addend: 0x0, symName: __RNCNvXsw_NtCs5AlOhPCr03V_3syn10punctuatedINtB7_11PrivateIterNtNtB9_2ty9BareFnArgNtNtB9_5token5CommaENtNtNtNtCsfvfooZQ3Axs_4core4iter6traits8iterator8Iterator4nexts_0CsjDl19lsdQYR_15datasize_derive, symObjAddr: 0x106C, symBinAddr: 0x43AC, symSize: 0x3C }
  - { offset: 0xABD4, size: 0x8, addend: 0x0, symName: __RNCNvXsw_NtCs5AlOhPCr03V_3syn10punctuatedINtB7_11PrivateIterNtNtB9_4path15GenericArgumentNtNtB9_5token5CommaENtNtNtNtCsfvfooZQ3Axs_4core4iter6traits8iterator8Iterator4next0CsjDl19lsdQYR_15datasize_derive, symObjAddr: 0x10A8, symBinAddr: 0x43E8, symSize: 0x24 }
  - { offset: 0xAC1F, size: 0x8, addend: 0x0, symName: __RNCNvXsw_NtCs5AlOhPCr03V_3syn10punctuatedINtB7_11PrivateIterNtNtB9_4path15GenericArgumentNtNtB9_5token5CommaENtNtNtNtCsfvfooZQ3Axs_4core4iter6traits8iterator8Iterator4nexts_0CsjDl19lsdQYR_15datasize_derive, symObjAddr: 0x10CC, symBinAddr: 0x440C, symSize: 0x3C }
  - { offset: 0xAC62, size: 0x8, addend: 0x0, symName: __RNvXsw_NtCs5AlOhPCr03V_3syn10punctuatedINtB5_11PrivateIterNtNtB7_2ty4TypeNtNtB7_5token5CommaENtNtNtNtCsfvfooZQ3Axs_4core4iter6traits8iterator8Iterator4nextCsjDl19lsdQYR_15datasize_derive, symObjAddr: 0x2D14, symBinAddr: 0x6054, symSize: 0x48 }
  - { offset: 0xACA2, size: 0x8, addend: 0x0, symName: __RNvXsw_NtCs5AlOhPCr03V_3syn10punctuatedINtB5_11PrivateIterNtNtB7_2ty9BareFnArgNtNtB7_5token5CommaENtNtNtNtCsfvfooZQ3Axs_4core4iter6traits8iterator8Iterator4nextCsjDl19lsdQYR_15datasize_derive, symObjAddr: 0x2D5C, symBinAddr: 0x609C, symSize: 0x48 }
  - { offset: 0xACE2, size: 0x8, addend: 0x0, symName: __RNvXsw_NtCs5AlOhPCr03V_3syn10punctuatedINtB5_11PrivateIterNtNtB7_4path15GenericArgumentNtNtB7_5token5CommaENtNtNtNtCsfvfooZQ3Axs_4core4iter6traits8iterator8Iterator4nextCsjDl19lsdQYR_15datasize_derive, symObjAddr: 0x2DA4, symBinAddr: 0x60E4, symSize: 0x48 }
  - { offset: 0xAD80, size: 0x8, addend: 0x0, symName: __RNCNCNvXsx_NtCs5AlOhPCr03V_3syn10punctuatedINtB9_11PrivateIterNtNtBb_2ty4TypeNtNtBb_5token5CommaENtNtNtNtCsfvfooZQ3Axs_4core4iter6traits12double_ended19DoubleEndedIterator9next_back00CsjDl19lsdQYR_15datasize_derive, symObjAddr: 0xEA0, symBinAddr: 0x41E0, symSize: 0x24 }
  - { offset: 0xADCB, size: 0x8, addend: 0x0, symName: __RNCNCNvXsx_NtCs5AlOhPCr03V_3syn10punctuatedINtB9_11PrivateIterNtNtBb_2ty9BareFnArgNtNtBb_5token5CommaENtNtNtNtCsfvfooZQ3Axs_4core4iter6traits12double_ended19DoubleEndedIterator9next_back00CsjDl19lsdQYR_15datasize_derive, symObjAddr: 0xEC4, symBinAddr: 0x4204, symSize: 0x24 }
  - { offset: 0xAE16, size: 0x8, addend: 0x0, symName: __RNCNCNvXsx_NtCs5AlOhPCr03V_3syn10punctuatedINtB9_11PrivateIterNtNtBb_4path15GenericArgumentNtNtBb_5token5CommaENtNtNtNtCsfvfooZQ3Axs_4core4iter6traits12double_ended19DoubleEndedIterator9next_back00CsjDl19lsdQYR_15datasize_derive, symObjAddr: 0xEE8, symBinAddr: 0x4228, symSize: 0x24 }
  - { offset: 0xAE62, size: 0x8, addend: 0x0, symName: __RNCNvXsx_NtCs5AlOhPCr03V_3syn10punctuatedINtB7_11PrivateIterNtNtB9_2ty4TypeNtNtB9_5token5CommaENtNtNtNtCsfvfooZQ3Axs_4core4iter6traits12double_ended19DoubleEndedIterator9next_back0CsjDl19lsdQYR_15datasize_derive, symObjAddr: 0x1108, symBinAddr: 0x4448, symSize: 0x3C }
  - { offset: 0xAEA4, size: 0x8, addend: 0x0, symName: __RNCNvXsx_NtCs5AlOhPCr03V_3syn10punctuatedINtB7_11PrivateIterNtNtB9_2ty9BareFnArgNtNtB9_5token5CommaENtNtNtNtCsfvfooZQ3Axs_4core4iter6traits12double_ended19DoubleEndedIterator9next_back0CsjDl19lsdQYR_15datasize_derive, symObjAddr: 0x1144, symBinAddr: 0x4484, symSize: 0x3C }
  - { offset: 0xAEE6, size: 0x8, addend: 0x0, symName: __RNCNvXsx_NtCs5AlOhPCr03V_3syn10punctuatedINtB7_11PrivateIterNtNtB9_4path15GenericArgumentNtNtB9_5token5CommaENtNtNtNtCsfvfooZQ3Axs_4core4iter6traits12double_ended19DoubleEndedIterator9next_back0CsjDl19lsdQYR_15datasize_derive, symObjAddr: 0x1180, symBinAddr: 0x44C0, symSize: 0x3C }
  - { offset: 0xAF29, size: 0x8, addend: 0x0, symName: __RNvXsx_NtCs5AlOhPCr03V_3syn10punctuatedINtB5_11PrivateIterNtNtB7_2ty4TypeNtNtB7_5token5CommaENtNtNtNtCsfvfooZQ3Axs_4core4iter6traits12double_ended19DoubleEndedIterator9next_backCsjDl19lsdQYR_15datasize_derive, symObjAddr: 0x2DEC, symBinAddr: 0x612C, symSize: 0x48 }
  - { offset: 0xAF69, size: 0x8, addend: 0x0, symName: __RNvXsx_NtCs5AlOhPCr03V_3syn10punctuatedINtB5_11PrivateIterNtNtB7_2ty9BareFnArgNtNtB7_5token5CommaENtNtNtNtCsfvfooZQ3Axs_4core4iter6traits12double_ended19DoubleEndedIterator9next_backCsjDl19lsdQYR_15datasize_derive, symObjAddr: 0x2E34, symBinAddr: 0x6174, symSize: 0x48 }
  - { offset: 0xAFA9, size: 0x8, addend: 0x0, symName: __RNvXsx_NtCs5AlOhPCr03V_3syn10punctuatedINtB5_11PrivateIterNtNtB7_4path15GenericArgumentNtNtB7_5token5CommaENtNtNtNtCsfvfooZQ3Axs_4core4iter6traits12double_ended19DoubleEndedIterator9next_backCsjDl19lsdQYR_15datasize_derive, symObjAddr: 0x2E7C, symBinAddr: 0x61BC, symSize: 0x48 }
  - { offset: 0xB049, size: 0x8, addend: 0x0, symName: __RNvXs9_NtCs5AlOhPCr03V_3syn10punctuatedRINtB5_10PunctuatedNtNtB7_2ty9BareFnArgNtNtB7_5token5CommaENtNtNtNtCsfvfooZQ3Axs_4core4iter6traits7collect12IntoIterator9into_iterCsjDl19lsdQYR_15datasize_derive, symObjAddr: 0x2450, symBinAddr: 0x5790, symSize: 0x34 }
  - { offset: 0xB089, size: 0x8, addend: 0x0, symName: __RNvXs9_NtCs5AlOhPCr03V_3syn10punctuatedRINtB5_10PunctuatedNtNtB7_4path15GenericArgumentNtNtB7_5token5CommaENtNtNtNtCsfvfooZQ3Axs_4core4iter6traits7collect12IntoIterator9into_iterCsjDl19lsdQYR_15datasize_derive, symObjAddr: 0x2484, symBinAddr: 0x57C4, symSize: 0x34 }
  - { offset: 0xB0CF, size: 0x8, addend: 0x0, symName: __RNvXsA_NtCs5AlOhPCr03V_3syn10punctuatedINtB5_11PrivateIterNtNtB7_2ty4TypeNtNtB7_5token5CommaEINtB5_9IterTraitBU_E9clone_boxCsjDl19lsdQYR_15datasize_derive, symObjAddr: 0x24B8, symBinAddr: 0x57F8, symSize: 0x94 }
  - { offset: 0xB12D, size: 0x8, addend: 0x0, symName: __RNvXsA_NtCs5AlOhPCr03V_3syn10punctuatedINtB5_11PrivateIterNtNtB7_2ty9BareFnArgNtNtB7_5token5CommaEINtB5_9IterTraitBU_E9clone_boxCsjDl19lsdQYR_15datasize_derive, symObjAddr: 0x254C, symBinAddr: 0x588C, symSize: 0x94 }
  - { offset: 0xB18B, size: 0x8, addend: 0x0, symName: __RNvXsA_NtCs5AlOhPCr03V_3syn10punctuatedINtB5_11PrivateIterNtNtB7_4path15GenericArgumentNtNtB7_5token5CommaEINtB5_9IterTraitBU_E9clone_boxCsjDl19lsdQYR_15datasize_derive, symObjAddr: 0x25E0, symBinAddr: 0x5920, symSize: 0x94 }
  - { offset: 0xB1EF, size: 0x8, addend: 0x0, symName: __RNvXsn_NtCs5AlOhPCr03V_3syn10punctuatedINtB5_8IntoIterNtNtB7_4data5FieldENtNtNtNtCsfvfooZQ3Axs_4core4iter6traits8iterator8Iterator4nextCsjDl19lsdQYR_15datasize_derive, symObjAddr: 0x2950, symBinAddr: 0x5C90, symSize: 0x34 }
  - { offset: 0xB226, size: 0x8, addend: 0x0, symName: __RNvXsn_NtCs5AlOhPCr03V_3syn10punctuatedINtB5_8IntoIterNtNtB7_4data7VariantENtNtNtNtCsfvfooZQ3Axs_4core4iter6traits8iterator8Iterator4nextCsjDl19lsdQYR_15datasize_derive, symObjAddr: 0x2984, symBinAddr: 0x5CC4, symSize: 0x34 }
  - { offset: 0xB263, size: 0x8, addend: 0x0, symName: __RNvXst_NtCs5AlOhPCr03V_3syn10punctuatedINtB5_4IterNtNtB7_2ty4TypeENtNtNtNtCsfvfooZQ3Axs_4core4iter6traits8iterator8Iterator4nextCsjDl19lsdQYR_15datasize_derive, symObjAddr: 0x29B8, symBinAddr: 0x5CF8, symSize: 0x48 }
  - { offset: 0xB29A, size: 0x8, addend: 0x0, symName: __RNvXst_NtCs5AlOhPCr03V_3syn10punctuatedINtB5_4IterNtNtB7_2ty9BareFnArgENtNtNtNtCsfvfooZQ3Axs_4core4iter6traits8iterator8Iterator4nextCsjDl19lsdQYR_15datasize_derive, symObjAddr: 0x2A00, symBinAddr: 0x5D40, symSize: 0x48 }
  - { offset: 0xB2D1, size: 0x8, addend: 0x0, symName: __RNvXst_NtCs5AlOhPCr03V_3syn10punctuatedINtB5_4IterNtNtB7_4data5FieldENtNtNtNtCsfvfooZQ3Axs_4core4iter6traits8iterator8Iterator4nextCsjDl19lsdQYR_15datasize_derive, symObjAddr: 0x2A48, symBinAddr: 0x5D88, symSize: 0x48 }
  - { offset: 0xB308, size: 0x8, addend: 0x0, symName: __RNvXst_NtCs5AlOhPCr03V_3syn10punctuatedINtB5_4IterNtNtB7_4path15GenericArgumentENtNtNtNtCsfvfooZQ3Axs_4core4iter6traits8iterator8Iterator4nextCsjDl19lsdQYR_15datasize_derive, symObjAddr: 0x2A90, symBinAddr: 0x5DD0, symSize: 0x48 }
  - { offset: 0xB33F, size: 0x8, addend: 0x0, symName: __RNvXst_NtCs5AlOhPCr03V_3syn10punctuatedINtB5_4IterNtNtB7_8generics12GenericParamENtNtNtNtCsfvfooZQ3Axs_4core4iter6traits8iterator8Iterator9size_hintCsjDl19lsdQYR_15datasize_derive, symObjAddr: 0x2AD8, symBinAddr: 0x5E18, symSize: 0x7C }
  - { offset: 0xB37C, size: 0x8, addend: 0x0, symName: __RNvXsv_NtCs5AlOhPCr03V_3syn10punctuatedINtB5_4IterNtNtB7_8generics12GenericParamENtNtNtNtCsfvfooZQ3Axs_4core4iter6traits10exact_size17ExactSizeIterator3lenCsjDl19lsdQYR_15datasize_derive, symObjAddr: 0x2B54, symBinAddr: 0x5E94, symSize: 0x48 }
  - { offset: 0xB3B9, size: 0x8, addend: 0x0, symName: __RNvXsy_NtCs5AlOhPCr03V_3syn10punctuatedINtB5_11PrivateIterNtNtB7_2ty4TypeNtNtB7_5token5CommaENtNtNtNtCsfvfooZQ3Axs_4core4iter6traits10exact_size17ExactSizeIterator3lenCsjDl19lsdQYR_15datasize_derive, symObjAddr: 0x2EC4, symBinAddr: 0x6204, symSize: 0x94 }
  - { offset: 0xB42D, size: 0x8, addend: 0x0, symName: __RNvXsy_NtCs5AlOhPCr03V_3syn10punctuatedINtB5_11PrivateIterNtNtB7_2ty9BareFnArgNtNtB7_5token5CommaENtNtNtNtCsfvfooZQ3Axs_4core4iter6traits10exact_size17ExactSizeIterator3lenCsjDl19lsdQYR_15datasize_derive, symObjAddr: 0x2F58, symBinAddr: 0x6298, symSize: 0x94 }
  - { offset: 0xB4A1, size: 0x8, addend: 0x0, symName: __RNvXsy_NtCs5AlOhPCr03V_3syn10punctuatedINtB5_11PrivateIterNtNtB7_4path15GenericArgumentNtNtB7_5token5CommaENtNtNtNtCsfvfooZQ3Axs_4core4iter6traits10exact_size17ExactSizeIterator3lenCsjDl19lsdQYR_15datasize_derive, symObjAddr: 0x2FEC, symBinAddr: 0x632C, symSize: 0x94 }
  - { offset: 0xB51B, size: 0x8, addend: 0x0, symName: __RNvXsz_NtCs5AlOhPCr03V_3syn10punctuatedINtB5_11PrivateIterNtNtB7_2ty4TypeNtNtB7_5token5CommaENtNtCsfvfooZQ3Axs_4core5clone5Clone5cloneCsjDl19lsdQYR_15datasize_derive, symObjAddr: 0x3080, symBinAddr: 0x63C0, symSize: 0x68 }
  - { offset: 0xB55B, size: 0x8, addend: 0x0, symName: __RNvXsz_NtCs5AlOhPCr03V_3syn10punctuatedINtB5_11PrivateIterNtNtB7_2ty9BareFnArgNtNtB7_5token5CommaENtNtCsfvfooZQ3Axs_4core5clone5Clone5cloneCsjDl19lsdQYR_15datasize_derive, symObjAddr: 0x30E8, symBinAddr: 0x6428, symSize: 0x68 }
  - { offset: 0xB59B, size: 0x8, addend: 0x0, symName: __RNvXsz_NtCs5AlOhPCr03V_3syn10punctuatedINtB5_11PrivateIterNtNtB7_4path15GenericArgumentNtNtB7_5token5CommaENtNtCsfvfooZQ3Axs_4core5clone5Clone5cloneCsjDl19lsdQYR_15datasize_derive, symObjAddr: 0x3150, symBinAddr: 0x6490, symSize: 0x68 }
  - { offset: 0x1080D, size: 0x8, addend: 0x0, symName: __RNvXsR_NtCs9i5KxIbZ5ph_10proc_macro6bridgeINtNtCsfvfooZQ3Axs_4core6option6OptionNtNtB5_6client11TokenStreamEINtNtB5_3rpc6EncodeuE6encodeCsjDl19lsdQYR_15datasize_derive, symObjAddr: 0x27AC, symBinAddr: 0x5AEC, symSize: 0xCC }
  - { offset: 0x108B3, size: 0x8, addend: 0x0, symName: __RNvXsR_NtCs9i5KxIbZ5ph_10proc_macro6bridgeINtNtCsfvfooZQ3Axs_4core6option6OptionReEINtNtB5_3rpc6EncodeuE6encodeCsjDl19lsdQYR_15datasize_derive, symObjAddr: 0x2878, symBinAddr: 0x5BB8, symSize: 0xD8 }
  - { offset: 0x13514, size: 0x8, addend: 0x0, symName: __RNvXs5_NtCsfvfooZQ3Axs_4core6optionINtB5_6OptionNtNtCs5AlOhPCr03V_3syn4data7VariantENtNtNtNtB7_4iter6traits7collect12IntoIterator9into_iterCsjDl19lsdQYR_15datasize_derive, symObjAddr: 0x1CC8, symBinAddr: 0x5008, symSize: 0x50 }
  - { offset: 0x13675, size: 0x8, addend: 0x0, symName: __RNvXsO_NtCsfvfooZQ3Axs_4core6optionINtB5_8IntoIterRNtNtCs5AlOhPCr03V_3syn2ty4TypeENtNtB7_5clone5Clone5cloneCsjDl19lsdQYR_15datasize_derive, symObjAddr: 0x2674, symBinAddr: 0x59B4, symSize: 0x68 }
  - { offset: 0x1371C, size: 0x8, addend: 0x0, symName: __RNvXsO_NtCsfvfooZQ3Axs_4core6optionINtB5_8IntoIterRNtNtCs5AlOhPCr03V_3syn2ty9BareFnArgENtNtB7_5clone5Clone5cloneCsjDl19lsdQYR_15datasize_derive, symObjAddr: 0x26DC, symBinAddr: 0x5A1C, symSize: 0x68 }
  - { offset: 0x137C3, size: 0x8, addend: 0x0, symName: __RNvXsO_NtCsfvfooZQ3Axs_4core6optionINtB5_8IntoIterRNtNtCs5AlOhPCr03V_3syn4path15GenericArgumentENtNtB7_5clone5Clone5cloneCsjDl19lsdQYR_15datasize_derive, symObjAddr: 0x2744, symBinAddr: 0x5A84, symSize: 0x68 }
  - { offset: 0x138FD, size: 0x8, addend: 0x0, symName: __RNvXsv_NtCsfvfooZQ3Axs_4core6optionINtB5_8IntoIterNtNtCs5AlOhPCr03V_3syn4data7VariantENtNtNtNtB7_4iter6traits8iterator8Iterator4nextCsjDl19lsdQYR_15datasize_derive, symObjAddr: 0x2B9C, symBinAddr: 0x5EDC, symSize: 0x68 }
  - { offset: 0x139A0, size: 0x8, addend: 0x0, symName: __RNvXsv_NtCsfvfooZQ3Axs_4core6optionINtB5_8IntoIterNtNtCs5AlOhPCr03V_3syn4data7VariantENtNtNtNtB7_4iter6traits8iterator8Iterator9size_hintCsjDl19lsdQYR_15datasize_derive, symObjAddr: 0x2C04, symBinAddr: 0x5F44, symSize: 0x44 }
  - { offset: 0x13A18, size: 0x8, addend: 0x0, symName: __RNvXsv_NtCsfvfooZQ3Axs_4core6optionINtB5_8IntoIterRNtNtCs5AlOhPCr03V_3syn2ty4TypeENtNtNtNtB7_4iter6traits8iterator8Iterator9size_hintCsjDl19lsdQYR_15datasize_derive, symObjAddr: 0x2C48, symBinAddr: 0x5F88, symSize: 0x44 }
  - { offset: 0x13A90, size: 0x8, addend: 0x0, symName: __RNvXsv_NtCsfvfooZQ3Axs_4core6optionINtB5_8IntoIterRNtNtCs5AlOhPCr03V_3syn2ty9BareFnArgENtNtNtNtB7_4iter6traits8iterator8Iterator9size_hintCsjDl19lsdQYR_15datasize_derive, symObjAddr: 0x2C8C, symBinAddr: 0x5FCC, symSize: 0x44 }
  - { offset: 0x13B08, size: 0x8, addend: 0x0, symName: __RNvXsv_NtCsfvfooZQ3Axs_4core6optionINtB5_8IntoIterRNtNtCs5AlOhPCr03V_3syn4path15GenericArgumentENtNtNtNtB7_4iter6traits8iterator8Iterator9size_hintCsjDl19lsdQYR_15datasize_derive, symObjAddr: 0x2CD0, symBinAddr: 0x6010, symSize: 0x44 }
  - { offset: 0x14346, size: 0x8, addend: 0x0, symName: __RINvYINtNtCs5AlOhPCr03V_3syn10punctuated4IterNtNtB8_2ty4TypeENtNtNtNtCsfvfooZQ3Axs_4core4iter6traits8iterator8Iterator3anyNCNvCsjDl19lsdQYR_15datasize_derive16contains_generics0_0EB20_, symObjAddr: 0x648, symBinAddr: 0x3988, symSize: 0x44 }
  - { offset: 0x14395, size: 0x8, addend: 0x0, symName: __RINvYINtNtCs5AlOhPCr03V_3syn10punctuated4IterNtNtB8_2ty4TypeENtNtNtNtCsfvfooZQ3Axs_4core4iter6traits8iterator8Iterator3anyNCNvCsjDl19lsdQYR_15datasize_derive21path_contains_generic0EB20_, symObjAddr: 0x68C, symBinAddr: 0x39CC, symSize: 0x44 }
  - { offset: 0x143E4, size: 0x8, addend: 0x0, symName: __RINvYINtNtCs5AlOhPCr03V_3syn10punctuated4IterNtNtB8_2ty4TypeENtNtNtNtCsfvfooZQ3Axs_4core4iter6traits8iterator8Iterator8try_folduNCINvNvBX_3any5checkRBH_NCNvCsjDl19lsdQYR_15datasize_derive16contains_generics0_0E0INtNtNtB15_3ops12control_flow11ControlFlowuEEB2u_, symObjAddr: 0x6D0, symBinAddr: 0x3A10, symSize: 0x138 }
  - { offset: 0x1449E, size: 0x8, addend: 0x0, symName: __RINvYINtNtCs5AlOhPCr03V_3syn10punctuated4IterNtNtB8_2ty4TypeENtNtNtNtCsfvfooZQ3Axs_4core4iter6traits8iterator8Iterator8try_folduNCINvNvBX_3any5checkRBH_NCNvCsjDl19lsdQYR_15datasize_derive21path_contains_generic0E0INtNtNtB15_3ops12control_flow11ControlFlowuEEB2u_, symObjAddr: 0x808, symBinAddr: 0x3B48, symSize: 0x138 }
  - { offset: 0x14558, size: 0x8, addend: 0x0, symName: __RINvYINtNtCs5AlOhPCr03V_3syn10punctuated4IterNtNtB8_8generics12GenericParamENtNtNtNtCsfvfooZQ3Axs_4core4iter6traits8iterator8Iterator10filter_mapNtCs3cP53eQoTwO_11proc_macro25IdentNCNvCsjDl19lsdQYR_15datasize_derive21path_contains_generics_0EB2W_, symObjAddr: 0x940, symBinAddr: 0x3C80, symSize: 0x1C }
  - { offset: 0x145B0, size: 0x8, addend: 0x0, symName: __RINvYINtNtCs5AlOhPCr03V_3syn10punctuated4IterNtNtB8_8generics12GenericParamENtNtNtNtCsfvfooZQ3Axs_4core4iter6traits8iterator8Iterator4folduNCINvNtNtB1i_8adapters10filter_map15filter_map_foldRBH_NtCs3cP53eQoTwO_11proc_macro25IdentuNCNvCsjDl19lsdQYR_15datasize_derive21path_contains_generics_0NCINvNtB2k_3map8map_foldB36_TB36_uEuNCINvXs8_NtCsloNvcHxBCre_9hashbrown3setINtB5o_7HashSetB36_NtNtNtCscOYdFFY2T5N_3std4hash6random11RandomStateEINtNtB1g_7collect6ExtendB36_E6extendINtB2i_9FilterMapB3_B3G_EE0NCINvNvB1c_8for_each4callB57_NCINvXs1i_NtB5q_3mapINtB8D_7HashMapB36_uB6b_EIB70_B57_E6extendINtB4K_3MapB7z_B5f_EE0E0E0E0EB3K_, symObjAddr: 0x95C, symBinAddr: 0x3C9C, symSize: 0xD0 }
  - { offset: 0x1463F, size: 0x8, addend: 0x0, symName: __RINvYINtNtCs5AlOhPCr03V_3syn10punctuated4IterNtNtB8_8generics14TypeParamBoundENtNtNtNtCsfvfooZQ3Axs_4core4iter6traits8iterator8Iterator3anyNCNvCsjDl19lsdQYR_15datasize_derive16contains_generic0EB2h_, symObjAddr: 0xA2C, symBinAddr: 0x3D6C, symSize: 0x44 }
  - { offset: 0x1468E, size: 0x8, addend: 0x0, symName: __RINvYINtNtCs5AlOhPCr03V_3syn10punctuated4IterNtNtB8_8generics14TypeParamBoundENtNtNtNtCsfvfooZQ3Axs_4core4iter6traits8iterator8Iterator3anyNCNvCsjDl19lsdQYR_15datasize_derive16contains_generics_0EB2h_, symObjAddr: 0xA70, symBinAddr: 0x3DB0, symSize: 0x44 }
  - { offset: 0x146DD, size: 0x8, addend: 0x0, symName: __RINvYINtNtCs5AlOhPCr03V_3syn10punctuated4IterNtNtB8_8generics14TypeParamBoundENtNtNtNtCsfvfooZQ3Axs_4core4iter6traits8iterator8Iterator8try_folduNCINvNvB1e_3any5checkRBH_NCNvCsjDl19lsdQYR_15datasize_derive16contains_generic0E0INtNtNtB1m_3ops12control_flow11ControlFlowuEEB2M_, symObjAddr: 0xAB4, symBinAddr: 0x3DF4, symSize: 0x138 }
  - { offset: 0x14797, size: 0x8, addend: 0x0, symName: __RINvYINtNtCs5AlOhPCr03V_3syn10punctuated4IterNtNtB8_8generics14TypeParamBoundENtNtNtNtCsfvfooZQ3Axs_4core4iter6traits8iterator8Iterator8try_folduNCINvNvB1e_3any5checkRBH_NCNvCsjDl19lsdQYR_15datasize_derive16contains_generics_0E0INtNtNtB1m_3ops12control_flow11ControlFlowuEEB2M_, symObjAddr: 0xBEC, symBinAddr: 0x3F2C, symSize: 0x138 }
  - { offset: 0x14851, size: 0x8, addend: 0x0, symName: __RINvYINtNtCsfvfooZQ3Axs_4core6option8IntoIterNtNtCs5AlOhPCr03V_3syn4data7VariantENtNtNtNtB8_4iter6traits8iterator8Iterator4folduNCINvNvB1h_8for_each4callBH_NCINvMsi_NtCse1nGBsou5OW_5alloc3vecINtB2D_3VecBH_E14extend_trustedB3_E0E0ECsjDl19lsdQYR_15datasize_derive, symObjAddr: 0xD24, symBinAddr: 0x4064, symSize: 0x148 }
  - { offset: 0x14945, size: 0x8, addend: 0x0, symName: __RINvYINtNtCsfvfooZQ3Axs_4core6option8IntoIterNtNtCs5AlOhPCr03V_3syn4data7VariantENtNtNtNtB8_4iter6traits8iterator8Iterator8for_eachNCINvMsi_NtCse1nGBsou5OW_5alloc3vecINtB2e_3VecBH_E14extend_trustedB3_E0ECsjDl19lsdQYR_15datasize_derive, symObjAddr: 0xE6C, symBinAddr: 0x41AC, symSize: 0x34 }
  - { offset: 0x149B1, size: 0x8, addend: 0x0, symName: __RNvYINtNtCs5AlOhPCr03V_3syn10punctuated11PrivateIterNtNtB7_2ty4TypeNtNtB7_5token5CommaENtNtNtNtCsfvfooZQ3Axs_4core4iter6traits8iterator8Iterator10advance_byCsjDl19lsdQYR_15datasize_derive, symObjAddr: 0x3380, symBinAddr: 0x66C0, symSize: 0x134 }
  - { offset: 0x14B07, size: 0x8, addend: 0x0, symName: __RNvYINtNtCs5AlOhPCr03V_3syn10punctuated11PrivateIterNtNtB7_2ty4TypeNtNtB7_5token5CommaENtNtNtNtCsfvfooZQ3Axs_4core4iter6traits8iterator8Iterator3nthCsjDl19lsdQYR_15datasize_derive, symObjAddr: 0x34B4, symBinAddr: 0x67F4, symSize: 0x80 }
  - { offset: 0x14BD3, size: 0x8, addend: 0x0, symName: __RNvYINtNtCs5AlOhPCr03V_3syn10punctuated11PrivateIterNtNtB7_2ty4TypeNtNtB7_5token5CommaENtNtNtNtCsfvfooZQ3Axs_4core4iter6traits8iterator8Iterator9size_hintCsjDl19lsdQYR_15datasize_derive, symObjAddr: 0x3534, symBinAddr: 0x6874, symSize: 0x34 }
  - { offset: 0x14C08, size: 0x8, addend: 0x0, symName: __RNvYINtNtCs5AlOhPCr03V_3syn10punctuated11PrivateIterNtNtB7_2ty9BareFnArgNtNtB7_5token5CommaENtNtNtNtCsfvfooZQ3Axs_4core4iter6traits8iterator8Iterator10advance_byCsjDl19lsdQYR_15datasize_derive, symObjAddr: 0x3730, symBinAddr: 0x6A70, symSize: 0x134 }
  - { offset: 0x14D5E, size: 0x8, addend: 0x0, symName: __RNvYINtNtCs5AlOhPCr03V_3syn10punctuated11PrivateIterNtNtB7_2ty9BareFnArgNtNtB7_5token5CommaENtNtNtNtCsfvfooZQ3Axs_4core4iter6traits8iterator8Iterator3nthCsjDl19lsdQYR_15datasize_derive, symObjAddr: 0x3864, symBinAddr: 0x6BA4, symSize: 0x80 }
  - { offset: 0x14E2A, size: 0x8, addend: 0x0, symName: __RNvYINtNtCs5AlOhPCr03V_3syn10punctuated11PrivateIterNtNtB7_2ty9BareFnArgNtNtB7_5token5CommaENtNtNtNtCsfvfooZQ3Axs_4core4iter6traits8iterator8Iterator9size_hintCsjDl19lsdQYR_15datasize_derive, symObjAddr: 0x38E4, symBinAddr: 0x6C24, symSize: 0x34 }
  - { offset: 0x14E5F, size: 0x8, addend: 0x0, symName: __RNvYINtNtCs5AlOhPCr03V_3syn10punctuated11PrivateIterNtNtB7_4path15GenericArgumentNtNtB7_5token5CommaENtNtNtNtCsfvfooZQ3Axs_4core4iter6traits8iterator8Iterator10advance_byCsjDl19lsdQYR_15datasize_derive, symObjAddr: 0x3AE0, symBinAddr: 0x6E20, symSize: 0x134 }
  - { offset: 0x14FB5, size: 0x8, addend: 0x0, symName: __RNvYINtNtCs5AlOhPCr03V_3syn10punctuated11PrivateIterNtNtB7_4path15GenericArgumentNtNtB7_5token5CommaENtNtNtNtCsfvfooZQ3Axs_4core4iter6traits8iterator8Iterator3nthCsjDl19lsdQYR_15datasize_derive, symObjAddr: 0x3C14, symBinAddr: 0x6F54, symSize: 0x80 }
  - { offset: 0x15081, size: 0x8, addend: 0x0, symName: __RNvYINtNtCs5AlOhPCr03V_3syn10punctuated11PrivateIterNtNtB7_4path15GenericArgumentNtNtB7_5token5CommaENtNtNtNtCsfvfooZQ3Axs_4core4iter6traits8iterator8Iterator9size_hintCsjDl19lsdQYR_15datasize_derive, symObjAddr: 0x3C94, symBinAddr: 0x6FD4, symSize: 0x34 }
  - { offset: 0x150B6, size: 0x8, addend: 0x0, symName: __RNvYINtNtCs5AlOhPCr03V_3syn10punctuated4IterNtNtB7_4data5FieldENtNtNtNtCsfvfooZQ3Axs_4core4iter6traits8iterator8Iterator9enumerateCsjDl19lsdQYR_15datasize_derive, symObjAddr: 0x3CC8, symBinAddr: 0x7008, symSize: 0x28 }
  - { offset: 0x15102, size: 0x8, addend: 0x0, symName: __RNvYINtNtCs5AlOhPCr03V_3syn10punctuated8IntoIterNtNtB7_4data5FieldENtNtNtNtCsfvfooZQ3Axs_4core4iter6traits8iterator8Iterator9enumerateCsjDl19lsdQYR_15datasize_derive, symObjAddr: 0x3CF0, symBinAddr: 0x7030, symSize: 0x18 }
  - { offset: 0x15133, size: 0x8, addend: 0x0, symName: __RNvYINtNtCs5AlOhPCr03V_3syn10punctuated8IntoIterNtNtB7_4data5FieldENtNtNtNtCsfvfooZQ3Axs_4core4iter6traits8iterator8Iterator9enumerateCsjDl19lsdQYR_15datasize_derive, symObjAddr: 0x3CF0, symBinAddr: 0x7030, symSize: 0x18 }
  - { offset: 0x151B2, size: 0x8, addend: 0x0, symName: __RNvXNtNtNtCsfvfooZQ3Axs_4core4iter6traits7collectINtNtCs5AlOhPCr03V_3syn10punctuated7IterMutNtNtBQ_8generics12GenericParamENtB2_12IntoIterator9into_iterCsjDl19lsdQYR_15datasize_derive, symObjAddr: 0x1958, symBinAddr: 0x4C98, symSize: 0x1C }
  - { offset: 0x151E9, size: 0x8, addend: 0x0, symName: __RNvXNtNtNtCsfvfooZQ3Axs_4core4iter6traits7collectINtNtCs5AlOhPCr03V_3syn10punctuated8IntoIterNtNtBQ_4data5FieldENtB2_12IntoIterator9into_iterCsjDl19lsdQYR_15datasize_derive, symObjAddr: 0x1974, symBinAddr: 0x4CB4, symSize: 0x14 }
  - { offset: 0x15220, size: 0x8, addend: 0x0, symName: __RNvXNtNtNtCsfvfooZQ3Axs_4core4iter6traits7collectINtNtCs5AlOhPCr03V_3syn10punctuated8IntoIterNtNtBQ_4data7VariantENtB2_12IntoIterator9into_iterCsjDl19lsdQYR_15datasize_derive, symObjAddr: 0x1988, symBinAddr: 0x4CC8, symSize: 0x14 }
  - { offset: 0x15263, size: 0x8, addend: 0x0, symName: __RNvYINtNtCs5AlOhPCr03V_3syn10punctuated11PrivateIterNtNtB7_2ty4TypeNtNtB7_5token5CommaENtNtNtNtCsfvfooZQ3Axs_4core4iter6traits10exact_size17ExactSizeIterator8is_emptyCsjDl19lsdQYR_15datasize_derive, symObjAddr: 0x31B8, symBinAddr: 0x64F8, symSize: 0x2C }
  - { offset: 0x15298, size: 0x8, addend: 0x0, symName: __RNvYINtNtCs5AlOhPCr03V_3syn10punctuated11PrivateIterNtNtB7_2ty9BareFnArgNtNtB7_5token5CommaENtNtNtNtCsfvfooZQ3Axs_4core4iter6traits10exact_size17ExactSizeIterator8is_emptyCsjDl19lsdQYR_15datasize_derive, symObjAddr: 0x3568, symBinAddr: 0x68A8, symSize: 0x2C }
  - { offset: 0x152CD, size: 0x8, addend: 0x0, symName: __RNvYINtNtCs5AlOhPCr03V_3syn10punctuated11PrivateIterNtNtB7_4path15GenericArgumentNtNtB7_5token5CommaENtNtNtNtCsfvfooZQ3Axs_4core4iter6traits10exact_size17ExactSizeIterator8is_emptyCsjDl19lsdQYR_15datasize_derive, symObjAddr: 0x3918, symBinAddr: 0x6C58, symSize: 0x2C }
  - { offset: 0x15302, size: 0x8, addend: 0x0, symName: __RNvYINtNtCsfvfooZQ3Axs_4core6option8IntoIterRNtNtCs5AlOhPCr03V_3syn2ty4TypeENtNtNtNtB7_4iter6traits10exact_size17ExactSizeIterator3lenCsjDl19lsdQYR_15datasize_derive, symObjAddr: 0x3D08, symBinAddr: 0x7048, symSize: 0xF4 }
  - { offset: 0x153F5, size: 0x8, addend: 0x0, symName: __RNvYINtNtCsfvfooZQ3Axs_4core6option8IntoIterRNtNtCs5AlOhPCr03V_3syn2ty9BareFnArgENtNtNtNtB7_4iter6traits10exact_size17ExactSizeIterator3lenCsjDl19lsdQYR_15datasize_derive, symObjAddr: 0x3DFC, symBinAddr: 0x713C, symSize: 0xF4 }
  - { offset: 0x154E8, size: 0x8, addend: 0x0, symName: __RNvYINtNtCsfvfooZQ3Axs_4core6option8IntoIterRNtNtCs5AlOhPCr03V_3syn4path15GenericArgumentENtNtNtNtB7_4iter6traits10exact_size17ExactSizeIterator3lenCsjDl19lsdQYR_15datasize_derive, symObjAddr: 0x3EF0, symBinAddr: 0x7230, symSize: 0xF4 }
  - { offset: 0x155E7, size: 0x8, addend: 0x0, symName: __RNvYINtNtCs5AlOhPCr03V_3syn10punctuated11PrivateIterNtNtB7_2ty4TypeNtNtB7_5token5CommaENtNtNtNtCsfvfooZQ3Axs_4core4iter6traits12double_ended19DoubleEndedIterator15advance_back_byCsjDl19lsdQYR_15datasize_derive, symObjAddr: 0x31E4, symBinAddr: 0x6524, symSize: 0x134 }
  - { offset: 0x15735, size: 0x8, addend: 0x0, symName: __RNvYINtNtCs5AlOhPCr03V_3syn10punctuated11PrivateIterNtNtB7_2ty4TypeNtNtB7_5token5CommaENtNtNtNtCsfvfooZQ3Axs_4core4iter6traits12double_ended19DoubleEndedIterator8nth_backCsjDl19lsdQYR_15datasize_derive, symObjAddr: 0x3318, symBinAddr: 0x6658, symSize: 0x68 }
  - { offset: 0x157B3, size: 0x8, addend: 0x0, symName: __RNvYINtNtCs5AlOhPCr03V_3syn10punctuated11PrivateIterNtNtB7_2ty9BareFnArgNtNtB7_5token5CommaENtNtNtNtCsfvfooZQ3Axs_4core4iter6traits12double_ended19DoubleEndedIterator15advance_back_byCsjDl19lsdQYR_15datasize_derive, symObjAddr: 0x3594, symBinAddr: 0x68D4, symSize: 0x134 }
  - { offset: 0x15901, size: 0x8, addend: 0x0, symName: __RNvYINtNtCs5AlOhPCr03V_3syn10punctuated11PrivateIterNtNtB7_2ty9BareFnArgNtNtB7_5token5CommaENtNtNtNtCsfvfooZQ3Axs_4core4iter6traits12double_ended19DoubleEndedIterator8nth_backCsjDl19lsdQYR_15datasize_derive, symObjAddr: 0x36C8, symBinAddr: 0x6A08, symSize: 0x68 }
  - { offset: 0x1597F, size: 0x8, addend: 0x0, symName: __RNvYINtNtCs5AlOhPCr03V_3syn10punctuated11PrivateIterNtNtB7_4path15GenericArgumentNtNtB7_5token5CommaENtNtNtNtCsfvfooZQ3Axs_4core4iter6traits12double_ended19DoubleEndedIterator15advance_back_byCsjDl19lsdQYR_15datasize_derive, symObjAddr: 0x3944, symBinAddr: 0x6C84, symSize: 0x134 }
  - { offset: 0x15ACD, size: 0x8, addend: 0x0, symName: __RNvYINtNtCs5AlOhPCr03V_3syn10punctuated11PrivateIterNtNtB7_4path15GenericArgumentNtNtB7_5token5CommaENtNtNtNtCsfvfooZQ3Axs_4core4iter6traits12double_ended19DoubleEndedIterator8nth_backCsjDl19lsdQYR_15datasize_derive, symObjAddr: 0x3A78, symBinAddr: 0x6DB8, symSize: 0x68 }
  - { offset: 0x1614E, size: 0x8, addend: 0x0, symName: __RNvNtNtCsfvfooZQ3Axs_4core4hash3sip9u8to64_leCsjDl19lsdQYR_15datasize_derive, symObjAddr: 0x16F0, symBinAddr: 0x4A30, symSize: 0x228 }
  - { offset: 0x1630B, size: 0x8, addend: 0x0, symName: __RNvXs3_NtNtCsfvfooZQ3Axs_4core4hash3sipINtB5_6HasherNtB5_11Sip13RoundsENtB7_6Hasher5writeCsjDl19lsdQYR_15datasize_derive, symObjAddr: 0x199C, symBinAddr: 0x4CDC, symSize: 0x230 }
  - { offset: 0x16481, size: 0x8, addend: 0x0, symName: __RNvXs3_NtNtCsfvfooZQ3Axs_4core4hash3sipINtB5_6HasherNtB5_11Sip13RoundsENtB7_6Hasher6finishCsjDl19lsdQYR_15datasize_derive, symObjAddr: 0x1BCC, symBinAddr: 0x4F0C, symSize: 0xA0 }
  - { offset: 0x164F4, size: 0x8, addend: 0x0, symName: __RNvXs3_NtNtCsfvfooZQ3Axs_4core4hash3sipINtB5_6HasherNtB5_11Sip13RoundsENtB7_6Hasher9write_strCsjDl19lsdQYR_15datasize_derive, symObjAddr: 0x1C6C, symBinAddr: 0x4FAC, symSize: 0x5C }
  - { offset: 0x1655A, size: 0x8, addend: 0x0, symName: __RNvXs6_NtNtCsfvfooZQ3Axs_4core4hash3sipNtB5_11Sip13RoundsNtB5_3Sip8c_roundsCsjDl19lsdQYR_15datasize_derive, symObjAddr: 0x1D18, symBinAddr: 0x5058, symSize: 0x170 }
  - { offset: 0x166D0, size: 0x8, addend: 0x0, symName: __RNvXs6_NtNtCsfvfooZQ3Axs_4core4hash3sipNtB5_11Sip13RoundsNtB5_3Sip8d_roundsCsjDl19lsdQYR_15datasize_derive, symObjAddr: 0x1E88, symBinAddr: 0x51C8, symSize: 0x408 }
  - { offset: 0x18597, size: 0x8, addend: 0x0, symName: __RINvMNtCsfvfooZQ3Axs_4core6optionINtB3_6OptionINtNtCse1nGBsou5OW_5alloc5boxed3BoxNtNtCs5AlOhPCr03V_3syn4data7VariantEE3mapB1h_NCNvXs8_NtB1l_10punctuatedINtB28_10PunctuatedB1h_NtNtB1l_5token5CommaENtNtNtNtB5_4iter6traits7collect12IntoIterator9into_iters_0ECsjDl19lsdQYR_15datasize_derive, symObjAddr: 0x0, symBinAddr: 0x3340, symSize: 0x78 }
  - { offset: 0x1861C, size: 0x8, addend: 0x0, symName: __RINvMNtCsfvfooZQ3Axs_4core6optionINtB3_6OptionRNtNtCs5AlOhPCr03V_3syn2ty4TypeE7or_elseNCNvXsw_NtBN_10punctuatedINtB1u_11PrivateIterBJ_NtNtBN_5token5CommaENtNtNtNtB5_4iter6traits8iterator8Iterator4nexts_0ECsjDl19lsdQYR_15datasize_derive, symObjAddr: 0x78, symBinAddr: 0x33B8, symSize: 0xA8 }
  - { offset: 0x1867E, size: 0x8, addend: 0x0, symName: __RINvMNtCsfvfooZQ3Axs_4core6optionINtB3_6OptionRNtNtCs5AlOhPCr03V_3syn2ty4TypeE7or_elseNCNvXsx_NtBN_10punctuatedINtB1u_11PrivateIterBJ_NtNtBN_5token5CommaENtNtNtNtB5_4iter6traits12double_ended19DoubleEndedIterator9next_back0ECsjDl19lsdQYR_15datasize_derive, symObjAddr: 0x120, symBinAddr: 0x3460, symSize: 0xA8 }
  - { offset: 0x186FA, size: 0x8, addend: 0x0, symName: __RINvMNtCsfvfooZQ3Axs_4core6optionINtB3_6OptionRNtNtCs5AlOhPCr03V_3syn2ty9BareFnArgE7or_elseNCNvXsw_NtBN_10punctuatedINtB1z_11PrivateIterBJ_NtNtBN_5token5CommaENtNtNtNtB5_4iter6traits8iterator8Iterator4nexts_0ECsjDl19lsdQYR_15datasize_derive, symObjAddr: 0x1C8, symBinAddr: 0x3508, symSize: 0xA8 }
  - { offset: 0x1875C, size: 0x8, addend: 0x0, symName: __RINvMNtCsfvfooZQ3Axs_4core6optionINtB3_6OptionRNtNtCs5AlOhPCr03V_3syn2ty9BareFnArgE7or_elseNCNvXsx_NtBN_10punctuatedINtB1z_11PrivateIterBJ_NtNtBN_5token5CommaENtNtNtNtB5_4iter6traits12double_ended19DoubleEndedIterator9next_back0ECsjDl19lsdQYR_15datasize_derive, symObjAddr: 0x270, symBinAddr: 0x35B0, symSize: 0xA8 }
  - { offset: 0x187D8, size: 0x8, addend: 0x0, symName: __RINvMNtCsfvfooZQ3Axs_4core6optionINtB3_6OptionRNtNtCs5AlOhPCr03V_3syn4path15GenericArgumentE7or_elseNCNvXsw_NtBN_10punctuatedINtB1I_11PrivateIterBJ_NtNtBN_5token5CommaENtNtNtNtB5_4iter6traits8iterator8Iterator4nexts_0ECsjDl19lsdQYR_15datasize_derive, symObjAddr: 0x318, symBinAddr: 0x3658, symSize: 0xA8 }
  - { offset: 0x1883A, size: 0x8, addend: 0x0, symName: __RINvMNtCsfvfooZQ3Axs_4core6optionINtB3_6OptionRNtNtCs5AlOhPCr03V_3syn4path15GenericArgumentE7or_elseNCNvXsx_NtBN_10punctuatedINtB1I_11PrivateIterBJ_NtNtBN_5token5CommaENtNtNtNtB5_4iter6traits12double_ended19DoubleEndedIterator9next_back0ECsjDl19lsdQYR_15datasize_derive, symObjAddr: 0x3C0, symBinAddr: 0x3700, symSize: 0xA8 }
  - { offset: 0x1889C, size: 0x8, addend: 0x0, symName: __RINvMNtCsfvfooZQ3Axs_4core6optionINtB3_6OptionRTNtNtCs5AlOhPCr03V_3syn2ty4TypeNtNtBO_5token5CommaEE3mapRBK_NCNCNvXsx_NtBO_10punctuatedINtB1R_11PrivateIterBK_B1e_ENtNtNtNtB5_4iter6traits12double_ended19DoubleEndedIterator9next_back00ECsjDl19lsdQYR_15datasize_derive, symObjAddr: 0x468, symBinAddr: 0x37A8, symSize: 0x50 }
  - { offset: 0x18907, size: 0x8, addend: 0x0, symName: __RINvMNtCsfvfooZQ3Axs_4core6optionINtB3_6OptionRTNtNtCs5AlOhPCr03V_3syn2ty4TypeNtNtBO_5token5CommaEE3mapRBK_NCNvXsw_NtBO_10punctuatedINtB1P_11PrivateIterBK_B1e_ENtNtNtNtB5_4iter6traits8iterator8Iterator4next0ECsjDl19lsdQYR_15datasize_derive, symObjAddr: 0x4B8, symBinAddr: 0x37F8, symSize: 0x50 }
  - { offset: 0x18972, size: 0x8, addend: 0x0, symName: __RINvMNtCsfvfooZQ3Axs_4core6optionINtB3_6OptionRTNtNtCs5AlOhPCr03V_3syn2ty9BareFnArgNtNtBO_5token5CommaEE3mapRBK_NCNCNvXsx_NtBO_10punctuatedINtB1W_11PrivateIterBK_B1j_ENtNtNtNtB5_4iter6traits12double_ended19DoubleEndedIterator9next_back00ECsjDl19lsdQYR_15datasize_derive, symObjAddr: 0x508, symBinAddr: 0x3848, symSize: 0x50 }
  - { offset: 0x189DD, size: 0x8, addend: 0x0, symName: __RINvMNtCsfvfooZQ3Axs_4core6optionINtB3_6OptionRTNtNtCs5AlOhPCr03V_3syn2ty9BareFnArgNtNtBO_5token5CommaEE3mapRBK_NCNvXsw_NtBO_10punctuatedINtB1U_11PrivateIterBK_B1j_ENtNtNtNtB5_4iter6traits8iterator8Iterator4next0ECsjDl19lsdQYR_15datasize_derive, symObjAddr: 0x558, symBinAddr: 0x3898, symSize: 0x50 }
  - { offset: 0x18A48, size: 0x8, addend: 0x0, symName: __RINvMNtCsfvfooZQ3Axs_4core6optionINtB3_6OptionRTNtNtCs5AlOhPCr03V_3syn4path15GenericArgumentNtNtBO_5token5CommaEE3mapRBK_NCNCNvXsx_NtBO_10punctuatedINtB25_11PrivateIterBK_B1s_ENtNtNtNtB5_4iter6traits12double_ended19DoubleEndedIterator9next_back00ECsjDl19lsdQYR_15datasize_derive, symObjAddr: 0x5A8, symBinAddr: 0x38E8, symSize: 0x50 }
  - { offset: 0x18AB3, size: 0x8, addend: 0x0, symName: __RINvMNtCsfvfooZQ3Axs_4core6optionINtB3_6OptionRTNtNtCs5AlOhPCr03V_3syn4path15GenericArgumentNtNtBO_5token5CommaEE3mapRBK_NCNvXsw_NtBO_10punctuatedINtB23_11PrivateIterBK_B1s_ENtNtNtNtB5_4iter6traits8iterator8Iterator4next0ECsjDl19lsdQYR_15datasize_derive, symObjAddr: 0x5F8, symBinAddr: 0x3938, symSize: 0x50 }
  - { offset: 0x18B9A, size: 0x8, addend: 0x0, symName: __RNvMNtCs5AlOhPCr03V_3syn10punctuatedINtB2_10PunctuatedNtNtB4_2ty4TypeNtNtB4_5token5CommaE4iterCsjDl19lsdQYR_15datasize_derive, symObjAddr: 0x11BC, symBinAddr: 0x44FC, symSize: 0xC8 }
  - { offset: 0x18C33, size: 0x8, addend: 0x0, symName: __RNvMNtCs5AlOhPCr03V_3syn10punctuatedINtB2_10PunctuatedNtNtB4_2ty9BareFnArgNtNtB4_5token5CommaE4iterCsjDl19lsdQYR_15datasize_derive, symObjAddr: 0x1284, symBinAddr: 0x45C4, symSize: 0xC8 }
  - { offset: 0x18C91, size: 0x8, addend: 0x0, symName: __RNvMNtCs5AlOhPCr03V_3syn10punctuatedINtB2_10PunctuatedNtNtB4_4data7VariantNtNtB4_5token5CommaE3lenCsjDl19lsdQYR_15datasize_derive, symObjAddr: 0x134C, symBinAddr: 0x468C, symSize: 0xA0 }
  - { offset: 0x18D0D, size: 0x8, addend: 0x0, symName: __RNvMNtCs5AlOhPCr03V_3syn10punctuatedINtB2_10PunctuatedNtNtB4_4path15GenericArgumentNtNtB4_5token5CommaE4iterCsjDl19lsdQYR_15datasize_derive, symObjAddr: 0x13EC, symBinAddr: 0x472C, symSize: 0xC8 }
  - { offset: 0x18D89, size: 0x8, addend: 0x0, symName: __RNvMNtCsfvfooZQ3Axs_4core6optionINtB2_6OptionINtNtB4_4cell4CellTyyEEE4takeCsjDl19lsdQYR_15datasize_derive, symObjAddr: 0x14B4, symBinAddr: 0x47F4, symSize: 0x3C }
  - { offset: 0x18E3A, size: 0x8, addend: 0x0, symName: __RNvMNtCsfvfooZQ3Axs_4core6optionINtB2_6OptionNtCs3cP53eQoTwO_11proc_macro25IdentE6expectCsjDl19lsdQYR_15datasize_derive, symObjAddr: 0x14F0, symBinAddr: 0x4830, symSize: 0x70 }
  - { offset: 0x18E9F, size: 0x8, addend: 0x0, symName: __RNvMNtCsfvfooZQ3Axs_4core6optionINtB2_6OptionNtNtCs5AlOhPCr03V_3syn4path4PathE7is_noneCsjDl19lsdQYR_15datasize_derive, symObjAddr: 0x1560, symBinAddr: 0x48A0, symSize: 0x2C }
  - { offset: 0x18EE9, size: 0x8, addend: 0x0, symName: __RNvMNtCsfvfooZQ3Axs_4core6optionINtB2_6OptionNtNtCs5AlOhPCr03V_3syn4path4PathE7is_someCsjDl19lsdQYR_15datasize_derive, symObjAddr: 0x158C, symBinAddr: 0x48CC, symSize: 0x2C }
  - { offset: 0x18F2F, size: 0x8, addend: 0x0, symName: __RNvMNtCsfvfooZQ3Axs_4core6optionINtB2_6OptionRNtCs3cP53eQoTwO_11proc_macro25IdentE7is_someCsjDl19lsdQYR_15datasize_derive, symObjAddr: 0x15B8, symBinAddr: 0x48F8, symSize: 0x28 }
  - { offset: 0x18F68, size: 0x8, addend: 0x0, symName: __RNvMNtCsfvfooZQ3Axs_4core6optionINtB2_6OptionbE7is_someCsjDl19lsdQYR_15datasize_derive, symObjAddr: 0x15E0, symBinAddr: 0x4920, symSize: 0x28 }
  - { offset: 0x18F94, size: 0x8, addend: 0x0, symName: __RNvMNtCsfvfooZQ3Axs_4core6optionINtB2_6OptionbE9unwrap_orCsjDl19lsdQYR_15datasize_derive, symObjAddr: 0x1608, symBinAddr: 0x4948, symSize: 0x5C }
  - { offset: 0x18FFA, size: 0x8, addend: 0x0, symName: __RNvMs0_NtNtCsfvfooZQ3Axs_4core4hash3sipINtB5_6HasherNtB5_11Sip13RoundsE5resetCsjDl19lsdQYR_15datasize_derive, symObjAddr: 0x1664, symBinAddr: 0x49A4, symSize: 0x8C }
  - { offset: 0x1906C, size: 0x8, addend: 0x0, symName: __RNvXNtCs2cqEZUIJimJ_5quote9to_tokensRINtNtCs5AlOhPCr03V_3syn10punctuated10PunctuatedNtNtBE_8generics14WherePredicateNtNtBE_5token5CommaENtB2_8ToTokens9to_tokensCsjDl19lsdQYR_15datasize_derive, symObjAddr: 0x1918, symBinAddr: 0x4C58, symSize: 0x40 }
  - { offset: 0x19B1F, size: 0x8, addend: 0x0, symName: __RINvMs1_NtCsloNvcHxBCre_9hashbrown3mapINtB6_7HashMapNtCs3cP53eQoTwO_11proc_macro25IdentuNtNtNtCscOYdFFY2T5N_3std4hash6random11RandomStateE9get_innerBO_ECsjDl19lsdQYR_15datasize_derive, symObjAddr: 0x0, symBinAddr: 0x7324, symSize: 0xF8 }
  - { offset: 0x19C93, size: 0x8, addend: 0x0, symName: __RINvNtCs5AlOhPCr03V_3syn5parse12parse_streamNvYNtCsjDl19lsdQYR_15datasize_derive13DataAttributeNtB2_5Parse5parseEBL_, symObjAddr: 0x39C, symBinAddr: 0x76C0, symSize: 0x34 }
  - { offset: 0x19CDE, size: 0x8, addend: 0x0, symName: __RNvXsf_NtCs5AlOhPCr03V_3syn5parseNvYNtCsjDl19lsdQYR_15datasize_derive13DataAttributeNtB5_5Parse5parseNtB5_6Parser14___parse_streamBA_, symObjAddr: 0x3514, symBinAddr: 0xA374, symSize: 0x34 }
  - { offset: 0x1F4C3, size: 0x8, addend: 0x0, symName: __RNvXss_NtCse1nGBsou5OW_5alloc6stringNtB5_6StringNtNtNtCsfvfooZQ3Axs_4core3ops5deref5Deref5derefCsjDl19lsdQYR_15datasize_derive, symObjAddr: 0x37AC, symBinAddr: 0xA60C, symSize: 0x24 }
  - { offset: 0x1F4F7, size: 0x8, addend: 0x0, symName: __RINvXsn_NtCse1nGBsou5OW_5alloc6stringNtB6_6StringNtNtCsfvfooZQ3Axs_4core4hash4Hash4hashNtNtNtCscOYdFFY2T5N_3std4hash6random13DefaultHasherECsjDl19lsdQYR_15datasize_derive, symObjAddr: 0xC94, symBinAddr: 0x7DF8, symSize: 0x88 }
  - { offset: 0x1FD53, size: 0x8, addend: 0x0, symName: __RNvXs1_NtCse1nGBsou5OW_5alloc7raw_vecINtB5_6RawVecNtNtCs5AlOhPCr03V_3syn4data7VariantENtNtNtCsfvfooZQ3Axs_4core3ops4drop4Drop4dropCsjDl19lsdQYR_15datasize_derive, symObjAddr: 0x2440, symBinAddr: 0x92A0, symSize: 0x34 }
  - { offset: 0x1FDCE, size: 0x8, addend: 0x0, symName: __RNvXs6_NtCse1nGBsou5OW_5alloc5boxedINtB5_3BoxDNtNtCsfvfooZQ3Axs_4core5error5ErrorNtNtBM_6marker4SendNtB1j_4SyncEL_ENtNtNtBM_3ops4drop4Drop4dropCsjDl19lsdQYR_15datasize_derive, symObjAddr: 0x2860, symBinAddr: 0x96C0, symSize: 0xC4 }
  - { offset: 0x1FF05, size: 0x8, addend: 0x0, symName: __RNvXs6_NtCse1nGBsou5OW_5alloc5boxedINtB5_3BoxINtNtCs5AlOhPCr03V_3syn5drops6NoDropDINtNtBM_10punctuated12IterMutTraitNtNtBM_8generics12GenericParamEp4ItemQB1Q_EL_EENtNtNtCsfvfooZQ3Axs_4core3ops4drop4Drop4dropCsjDl19lsdQYR_15datasize_derive, symObjAddr: 0x2924, symBinAddr: 0x9784, symSize: 0x118 }
  - { offset: 0x2003C, size: 0x8, addend: 0x0, symName: __RNvXs6_NtCse1nGBsou5OW_5alloc5boxedINtB5_3BoxINtNtCs5AlOhPCr03V_3syn5drops6NoDropDINtNtBM_10punctuated9IterTraitNtNtBM_2ty4TypeEp4ItemRB1M_EL_EENtNtNtCsfvfooZQ3Axs_4core3ops4drop4Drop4dropCsjDl19lsdQYR_15datasize_derive, symObjAddr: 0x2A3C, symBinAddr: 0x989C, symSize: 0x118 }
  - { offset: 0x20173, size: 0x8, addend: 0x0, symName: __RNvXs6_NtCse1nGBsou5OW_5alloc5boxedINtB5_3BoxINtNtCs5AlOhPCr03V_3syn5drops6NoDropDINtNtBM_10punctuated9IterTraitNtNtBM_2ty9BareFnArgEp4ItemRB1M_EL_EENtNtNtCsfvfooZQ3Axs_4core3ops4drop4Drop4dropCsjDl19lsdQYR_15datasize_derive, symObjAddr: 0x2B54, symBinAddr: 0x99B4, symSize: 0x118 }
  - { offset: 0x202AA, size: 0x8, addend: 0x0, symName: __RNvXs6_NtCse1nGBsou5OW_5alloc5boxedINtB5_3BoxINtNtCs5AlOhPCr03V_3syn5drops6NoDropDINtNtBM_10punctuated9IterTraitNtNtBM_4data5FieldEp4ItemRB1M_EL_EENtNtNtCsfvfooZQ3Axs_4core3ops4drop4Drop4dropCsjDl19lsdQYR_15datasize_derive, symObjAddr: 0x2C6C, symBinAddr: 0x9ACC, symSize: 0x118 }
  - { offset: 0x203E1, size: 0x8, addend: 0x0, symName: __RNvXs6_NtCse1nGBsou5OW_5alloc5boxedINtB5_3BoxINtNtCs5AlOhPCr03V_3syn5drops6NoDropDINtNtBM_10punctuated9IterTraitNtNtBM_4path15GenericArgumentEp4ItemRB1M_EL_EENtNtNtCsfvfooZQ3Axs_4core3ops4drop4Drop4dropCsjDl19lsdQYR_15datasize_derive, symObjAddr: 0x2D84, symBinAddr: 0x9BE4, symSize: 0x118 }
  - { offset: 0x20518, size: 0x8, addend: 0x0, symName: __RNvXs6_NtCse1nGBsou5OW_5alloc5boxedINtB5_3BoxINtNtCs5AlOhPCr03V_3syn5drops6NoDropDINtNtBM_10punctuated9IterTraitNtNtBM_8generics12GenericParamEp4ItemRB1M_EL_EENtNtNtCsfvfooZQ3Axs_4core3ops4drop4Drop4dropCsjDl19lsdQYR_15datasize_derive, symObjAddr: 0x2E9C, symBinAddr: 0x9CFC, symSize: 0x118 }
  - { offset: 0x2064F, size: 0x8, addend: 0x0, symName: __RNvXs6_NtCse1nGBsou5OW_5alloc5boxedINtB5_3BoxNtNtNtCscOYdFFY2T5N_3std2io5error6CustomENtNtNtCsfvfooZQ3Axs_4core3ops4drop4Drop4dropCsjDl19lsdQYR_15datasize_derive, symObjAddr: 0x2FB4, symBinAddr: 0x9E14, symSize: 0xB0 }
  - { offset: 0x20A4E, size: 0x8, addend: 0x0, symName: __RINvXsa_NtCs3cP53eQoTwO_11proc_macro28fallbackNtB6_11TokenStreamINtNtNtNtCsfvfooZQ3Axs_4core4iter6traits7collect6ExtendNtB8_9TokenTreeE6extendNtB8_11TokenStreamECsjDl19lsdQYR_15datasize_derive, symObjAddr: 0xBD4, symBinAddr: 0x7D38, symSize: 0xC0 }
  - { offset: 0x20AB4, size: 0x8, addend: 0x0, symName: __RNCINvXsa_NtCs3cP53eQoTwO_11proc_macro28fallbackNtB8_11TokenStreamINtNtNtNtCsfvfooZQ3Axs_4core4iter6traits7collect6ExtendNtBa_9TokenTreeE6extendNtBa_11TokenStreamE0CsjDl19lsdQYR_15datasize_derive, symObjAddr: 0x10B8, symBinAddr: 0x821C, symSize: 0xAC }
  - { offset: 0x20B14, size: 0x8, addend: 0x0, symName: __RNvXsA_NtCs3cP53eQoTwO_11proc_macro28fallbackNtB5_5IdentNtNtCsfvfooZQ3Axs_4core5clone5Clone5cloneCsjDl19lsdQYR_15datasize_derive, symObjAddr: 0x3064, symBinAddr: 0x9EC4, symSize: 0x94 }
  - { offset: 0x20B48, size: 0x8, addend: 0x0, symName: __RNvXss_NtCs3cP53eQoTwO_11proc_macro28fallbackNtB5_11TokenStreamNtNtCsfvfooZQ3Axs_4core5clone5Clone5cloneCsjDl19lsdQYR_15datasize_derive, symObjAddr: 0x3788, symBinAddr: 0xA5E8, symSize: 0x24 }
  - { offset: 0x20B7A, size: 0x8, addend: 0x0, symName: __RNvXsu_NtCs3cP53eQoTwO_11proc_macro28fallbackNtB5_4SpanNtNtCsfvfooZQ3Axs_4core5clone5Clone5cloneCsjDl19lsdQYR_15datasize_derive, symObjAddr: 0x37D0, symBinAddr: 0xA630, symSize: 0x10 }
  - { offset: 0x20D6A, size: 0x8, addend: 0x0, symName: __RINvXs4_Cs3cP53eQoTwO_11proc_macro2NtB6_11TokenStreamINtNtNtNtCsfvfooZQ3Axs_4core4iter6traits7collect6ExtendNtB6_9TokenTreeE6extendBx_ECsjDl19lsdQYR_15datasize_derive, symObjAddr: 0xB44, symBinAddr: 0x7CA8, symSize: 0x34 }
  - { offset: 0x20DB3, size: 0x8, addend: 0x0, symName: __RINvXsz_Cs3cP53eQoTwO_11proc_macro2NtB6_5IdentNtNtCsfvfooZQ3Axs_4core4hash4Hash4hashNtNtNtCscOYdFFY2T5N_3std4hash6random13DefaultHasherECsjDl19lsdQYR_15datasize_derive, symObjAddr: 0xD1C, symBinAddr: 0x7E80, symSize: 0x84 }
  - { offset: 0x20E1C, size: 0x8, addend: 0x0, symName: __RNvXsG_Cs3cP53eQoTwO_11proc_macro2NtB5_11TokenStreamNtNtCsfvfooZQ3Axs_4core5clone5Clone5cloneCsjDl19lsdQYR_15datasize_derive, symObjAddr: 0x30F8, symBinAddr: 0x9F58, symSize: 0x78 }
  - { offset: 0x20E4E, size: 0x8, addend: 0x0, symName: __RNvXsY_Cs3cP53eQoTwO_11proc_macro2NtB5_5IdentNtNtCsfvfooZQ3Axs_4core5clone5Clone5cloneCsjDl19lsdQYR_15datasize_derive, symObjAddr: 0x349C, symBinAddr: 0xA2FC, symSize: 0x78 }
  - { offset: 0x20F1D, size: 0x8, addend: 0x0, symName: __RINvNtNtNtCs9i5KxIbZ5ph_10proc_macro6bridge6client5state3setINtNtCsfvfooZQ3Axs_4core6option6OptionNtB4_11TokenStreamENCNCINvB4_10run_clientB1y_BW_NCNCINvMs7_B4_INtB4_6ClientNtB8_11TokenStreamB2L_E7expand1NvCsjDl19lsdQYR_15datasize_derive16derive_data_sizeE00E00EB3i_, symObjAddr: 0x570, symBinAddr: 0x77F0, symSize: 0xE8 }
  - { offset: 0x20FFC, size: 0x8, addend: 0x0, symName: __RNCNkNvNtNtNtCs9i5KxIbZ5ph_10proc_macro6bridge6client5state12BRIDGE_STATE0s_0CsjDl19lsdQYR_15datasize_derive, symObjAddr: 0x1164, symBinAddr: 0x82C8, symSize: 0x34 }
  - { offset: 0x2150E, size: 0x8, addend: 0x0, symName: __RNvXsV_NtCs9i5KxIbZ5ph_10proc_macro6bridgeINtNtCsfvfooZQ3Axs_4core6result6ResultINtNtBJ_6option6OptionNtNtB5_6client11TokenStreamEuEINtNtB5_3rpc6EncodeuE6encodeCsjDl19lsdQYR_15datasize_derive, symObjAddr: 0x3268, symBinAddr: 0xA0C8, symSize: 0x108 }
  - { offset: 0x215D2, size: 0x8, addend: 0x0, symName: __RNvXsV_NtCs9i5KxIbZ5ph_10proc_macro6bridgeINtNtCsfvfooZQ3Axs_4core6result6ResultuNtNtB5_3rpc12PanicMessageEINtB1j_6EncodeuE6encodeCsjDl19lsdQYR_15datasize_derive, symObjAddr: 0x3370, symBinAddr: 0xA1D0, symSize: 0x12C }
  - { offset: 0x22B6E, size: 0x8, addend: 0x0, symName: __RNvNvMNtNtCsfvfooZQ3Axs_4core3ptr9const_ptrPp7sub_ptr18precondition_checkCsjDl19lsdQYR_15datasize_derive, symObjAddr: 0x19C0, symBinAddr: 0x8B20, symSize: 0x40 }
  - { offset: 0x22CD4, size: 0x8, addend: 0x0, symName: __RINvNtCsfvfooZQ3Axs_4core3ptr14read_unalignedNtNtNtNtB4_9core_arch10arm_shared4neon9uint8x8_tECsjDl19lsdQYR_15datasize_derive, symObjAddr: 0x40C, symBinAddr: 0x76F4, symSize: 0x8C }
  - { offset: 0x22DA8, size: 0x8, addend: 0x0, symName: __RINvNtCsfvfooZQ3Axs_4core3ptr15write_unalignedNtNtNtNtB4_9core_arch10arm_shared4neon9uint8x8_tECsjDl19lsdQYR_15datasize_derive, symObjAddr: 0x498, symBinAddr: 0x7780, symSize: 0x70 }
  - { offset: 0x22E4E, size: 0x8, addend: 0x0, symName: __RINvNvNtCsfvfooZQ3Axs_4core3ptr19swap_nonoverlapping7runtimehECsjDl19lsdQYR_15datasize_derive, symObjAddr: 0x84C, symBinAddr: 0x79B0, symSize: 0x1B4 }
  - { offset: 0x23584, size: 0x8, addend: 0x0, symName: __RNvNvNtCsfvfooZQ3Axs_4core3ptr13read_volatile18precondition_checkCsjDl19lsdQYR_15datasize_derive, symObjAddr: 0x1D34, symBinAddr: 0x8E94, symSize: 0x100 }
  - { offset: 0x23699, size: 0x8, addend: 0x0, symName: __RNvNvNtCsfvfooZQ3Axs_4core3ptr7replace18precondition_checkCsjDl19lsdQYR_15datasize_derive, symObjAddr: 0x2134, symBinAddr: 0x8F94, symSize: 0x100 }
  - { offset: 0x25DCB, size: 0x8, addend: 0x0, symName: __RNvXsp_NtCsfvfooZQ3Axs_4core6resultINtB5_6ResultNtCsjDl19lsdQYR_15datasize_derive13DataAttributeNtNtCs5AlOhPCr03V_3syn5error5ErrorEINtNtNtB7_3ops9try_trait12FromResidualIBy_NtNtB7_7convert10InfallibleB1w_EE13from_residualBM_, symObjAddr: 0x3740, symBinAddr: 0xA5A0, symSize: 0x48 }
  - { offset: 0x25FE5, size: 0x8, addend: 0x0, symName: __RNvXso_NtCsfvfooZQ3Axs_4core6resultINtB5_6ResultNtCsjDl19lsdQYR_15datasize_derive13DataAttributeNtNtCs5AlOhPCr03V_3syn5error5ErrorENtNtNtB7_3ops9try_trait3Try6branchBM_, symObjAddr: 0x3548, symBinAddr: 0xA3A8, symSize: 0xB0 }
  - { offset: 0x26062, size: 0x8, addend: 0x0, symName: __RNvXso_NtCsfvfooZQ3Axs_4core6resultINtB5_6ResultNtNtCs5AlOhPCr03V_3syn5parse11ParseBufferNtNtBO_5error5ErrorENtNtNtB7_3ops9try_trait3Try6branchCsjDl19lsdQYR_15datasize_derive, symObjAddr: 0x35F8, symBinAddr: 0xA458, symSize: 0x94 }
  - { offset: 0x260DF, size: 0x8, addend: 0x0, symName: __RNvXso_NtCsfvfooZQ3Axs_4core6resultINtB5_6ResultNtNtCs5AlOhPCr03V_3syn6derive11DeriveInputNtNtBO_5error5ErrorENtNtNtB7_3ops9try_trait3Try6branchCsjDl19lsdQYR_15datasize_derive, symObjAddr: 0x368C, symBinAddr: 0xA4EC, symSize: 0xB4 }
  - { offset: 0x26BFF, size: 0x8, addend: 0x0, symName: __RNvNvNtCsfvfooZQ3Axs_4core10intrinsics19copy_nonoverlapping18precondition_checkCsjDl19lsdQYR_15datasize_derive, symObjAddr: 0x1A50, symBinAddr: 0x8BB0, symSize: 0x2E4 }
  - { offset: 0x27392, size: 0x8, addend: 0x0, symName: __RINvNtNtNtCsfvfooZQ3Axs_4core9core_arch10arm_shared4neon13vget_lane_u64Kl0_ECsjDl19lsdQYR_15datasize_derive, symObjAddr: 0x658, symBinAddr: 0x78D8, symSize: 0x18 }
  - { offset: 0x273E2, size: 0x8, addend: 0x0, symName: __RNvNtNtNtCsfvfooZQ3Axs_4core9core_arch10arm_shared4neon9vdup_n_u8CsjDl19lsdQYR_15datasize_derive, symObjAddr: 0x198C, symBinAddr: 0x8AEC, symSize: 0x34 }
  - { offset: 0x274C8, size: 0x8, addend: 0x0, symName: __RINvXs3_NtNtCsfvfooZQ3Axs_4core4hash5implsRNtCs3cP53eQoTwO_11proc_macro25IdentNtB8_4Hash4hashNtNtNtCscOYdFFY2T5N_3std4hash6random13DefaultHasherECsjDl19lsdQYR_15datasize_derive, symObjAddr: 0xB14, symBinAddr: 0x7C78, symSize: 0x30 }
  - { offset: 0x2767C, size: 0x8, addend: 0x0, symName: __RNvNvNtNtCsfvfooZQ3Axs_4core5slice3raw14from_raw_parts18precondition_checkCsjDl19lsdQYR_15datasize_derive, symObjAddr: 0x2234, symBinAddr: 0x9094, symSize: 0x168 }
  - { offset: 0x27811, size: 0x8, addend: 0x0, symName: __RNvMNtCsfvfooZQ3Axs_4core5sliceSh15copy_from_sliceCsjDl19lsdQYR_15datasize_derive, symObjAddr: 0x1230, symBinAddr: 0x8394, symSize: 0xA4 }
  - { offset: 0x27937, size: 0x8, addend: 0x0, symName: __RNvXs2V_NtNtCsfvfooZQ3Axs_4core5slice4iterINtB6_4IterTNtNtCs5AlOhPCr03V_3syn2ty4TypeNtNtBU_5token5CommaEENtNtNtNtBa_4iter6traits12double_ended19DoubleEndedIterator9next_backCsjDl19lsdQYR_15datasize_derive, symObjAddr: 0x2474, symBinAddr: 0x92D4, symSize: 0x100 }
  - { offset: 0x27A93, size: 0x8, addend: 0x0, symName: __RNvXs2V_NtNtCsfvfooZQ3Axs_4core5slice4iterINtB6_4IterTNtNtCs5AlOhPCr03V_3syn2ty9BareFnArgNtNtBU_5token5CommaEENtNtNtNtBa_4iter6traits12double_ended19DoubleEndedIterator9next_backCsjDl19lsdQYR_15datasize_derive, symObjAddr: 0x2574, symBinAddr: 0x93D4, symSize: 0x100 }
  - { offset: 0x27BEF, size: 0x8, addend: 0x0, symName: __RNvXs2V_NtNtCsfvfooZQ3Axs_4core5slice4iterINtB6_4IterTNtNtCs5AlOhPCr03V_3syn4path15GenericArgumentNtNtBU_5token5CommaEENtNtNtNtBa_4iter6traits12double_ended19DoubleEndedIterator9next_backCsjDl19lsdQYR_15datasize_derive, symObjAddr: 0x2674, symBinAddr: 0x94D4, symSize: 0x100 }
  - { offset: 0x27E3F, size: 0x8, addend: 0x0, symName: __RNvXs5_NtNtCsfvfooZQ3Axs_4core5slice4iterINtB5_4IterTNtNtCs5AlOhPCr03V_3syn2ty4TypeNtNtBT_5token5CommaEENtNtB9_5clone5Clone5cloneCsjDl19lsdQYR_15datasize_derive, symObjAddr: 0x2800, symBinAddr: 0x9660, symSize: 0x20 }
  - { offset: 0x27E74, size: 0x8, addend: 0x0, symName: __RNvXs5_NtNtCsfvfooZQ3Axs_4core5slice4iterINtB5_4IterTNtNtCs5AlOhPCr03V_3syn2ty9BareFnArgNtNtBT_5token5CommaEENtNtB9_5clone5Clone5cloneCsjDl19lsdQYR_15datasize_derive, symObjAddr: 0x2820, symBinAddr: 0x9680, symSize: 0x20 }
  - { offset: 0x27EA9, size: 0x8, addend: 0x0, symName: __RNvXs5_NtNtCsfvfooZQ3Axs_4core5slice4iterINtB5_4IterTNtNtCs5AlOhPCr03V_3syn4path15GenericArgumentNtNtBT_5token5CommaEENtNtB9_5clone5Clone5cloneCsjDl19lsdQYR_15datasize_derive, symObjAddr: 0x2840, symBinAddr: 0x96A0, symSize: 0x20 }
  - { offset: 0x27F27, size: 0x8, addend: 0x0, symName: __RNCINvNvNtNtNtNtCsfvfooZQ3Axs_4core4iter6traits8iterator8Iterator3any5checkRNtNtCs5AlOhPCr03V_3syn2ty4TypeNCNvCsjDl19lsdQYR_15datasize_derive16contains_generics0_0E0B1K_, symObjAddr: 0xE0C, symBinAddr: 0x7F70, symSize: 0x50 }
  - { offset: 0x27F83, size: 0x8, addend: 0x0, symName: __RNCINvNvNtNtNtNtCsfvfooZQ3Axs_4core4iter6traits8iterator8Iterator3any5checkRNtNtCs5AlOhPCr03V_3syn2ty4TypeNCNvCsjDl19lsdQYR_15datasize_derive21path_contains_generic0E0B1K_, symObjAddr: 0xE5C, symBinAddr: 0x7FC0, symSize: 0x50 }
  - { offset: 0x27FDF, size: 0x8, addend: 0x0, symName: __RNCINvNvNtNtNtNtCsfvfooZQ3Axs_4core4iter6traits8iterator8Iterator3any5checkRNtNtCs5AlOhPCr03V_3syn8generics14TypeParamBoundNCNvCsjDl19lsdQYR_15datasize_derive16contains_generic0E0B21_, symObjAddr: 0xEAC, symBinAddr: 0x8010, symSize: 0x50 }
  - { offset: 0x2803B, size: 0x8, addend: 0x0, symName: __RNCINvNvNtNtNtNtCsfvfooZQ3Axs_4core4iter6traits8iterator8Iterator3any5checkRNtNtCs5AlOhPCr03V_3syn8generics14TypeParamBoundNCNvCsjDl19lsdQYR_15datasize_derive16contains_generics_0E0B21_, symObjAddr: 0xEFC, symBinAddr: 0x8060, symSize: 0x50 }
  - { offset: 0x280A3, size: 0x8, addend: 0x0, symName: __RNCINvNvNtNtNtNtCsfvfooZQ3Axs_4core4iter6traits8iterator8Iterator8for_each4callNtCs3cP53eQoTwO_11proc_macro29TokenTreeNCINvXsa_NtB1h_8fallbackNtB21_11TokenStreamINtNtBa_7collect6ExtendB1f_E6extendNtB1h_11TokenStreamE0E0CsjDl19lsdQYR_15datasize_derive, symObjAddr: 0xF4C, symBinAddr: 0x80B0, symSize: 0x3C }
  - { offset: 0x280FC, size: 0x8, addend: 0x0, symName: __RNCINvNvNtNtNtNtCsfvfooZQ3Axs_4core4iter6traits8iterator8Iterator8for_each4callNtNtCs5AlOhPCr03V_3syn4data7VariantNCINvMsi_NtCse1nGBsou5OW_5alloc3vecINtB1X_3VecB1f_E14extend_trustedINtNtBe_6option8IntoIterB1f_EE0E0CsjDl19lsdQYR_15datasize_derive, symObjAddr: 0xF88, symBinAddr: 0x80EC, symSize: 0x48 }
  - { offset: 0x28155, size: 0x8, addend: 0x0, symName: __RNCINvNvNtNtNtNtCsfvfooZQ3Axs_4core4iter6traits8iterator8Iterator8for_each4callNtNtCs5AlOhPCr03V_3syn4data7VariantNCINvMsi_NtCse1nGBsou5OW_5alloc3vecINtB1X_3VecB1f_E14extend_trustedINtNtNtBc_8adapters3map3MapINtNtB1X_9into_iter8IntoIterTB1f_NtNtB1j_5token5CommaEENCNvXs8_NtB1j_10punctuatedINtB4l_10PunctuatedB1f_B3R_ENtNtBa_7collect12IntoIterator9into_iter0EE0E0CsjDl19lsdQYR_15datasize_derive, symObjAddr: 0xFD0, symBinAddr: 0x8134, symSize: 0x48 }
  - { offset: 0x281AE, size: 0x8, addend: 0x0, symName: __RNCINvNvNtNtNtNtCsfvfooZQ3Axs_4core4iter6traits8iterator8Iterator8for_each4callTNtCs3cP53eQoTwO_11proc_macro25IdentuENCINvXs1i_NtCsloNvcHxBCre_9hashbrown3mapINtB21_7HashMapB1g_uNtNtNtCscOYdFFY2T5N_3std4hash6random11RandomStateEINtNtBa_7collect6ExtendB1f_E6extendINtNtNtBc_8adapters3map3MapINtNtB4h_10filter_map9FilterMapINtNtCs5AlOhPCr03V_3syn10punctuated4IterNtNtB5d_8generics12GenericParamENCNvCsjDl19lsdQYR_15datasize_derive21path_contains_generics_0ENCINvXs8_NtB23_3setINtB7r_7HashSetB1g_B2P_EIB3E_B1g_E6extendB4D_E0EE0E0B6m_, symObjAddr: 0x1018, symBinAddr: 0x817C, symSize: 0x3C }
  - { offset: 0x28299, size: 0x8, addend: 0x0, symName: __RNvNvMNtNtCsfvfooZQ3Axs_4core5alloc6layoutNtB4_6Layout25from_size_align_unchecked18precondition_checkCsjDl19lsdQYR_15datasize_derive, symObjAddr: 0x1A00, symBinAddr: 0x8B60, symSize: 0x50 }
  - { offset: 0x28670, size: 0x8, addend: 0x0, symName: __RNvYNtCs3cP53eQoTwO_11proc_macro25IdentINtNtCsfvfooZQ3Axs_4core3cmp9PartialEqReE2neCsjDl19lsdQYR_15datasize_derive, symObjAddr: 0x37E0, symBinAddr: 0xA640, symSize: 0x30 }
  - { offset: 0x286CB, size: 0x8, addend: 0x0, symName: __RNvXNtCsfvfooZQ3Axs_4core6borrowNtCs3cP53eQoTwO_11proc_macro25IdentINtB2_6BorrowBu_E6borrowCsjDl19lsdQYR_15datasize_derive, symObjAddr: 0x242C, symBinAddr: 0x928C, symSize: 0x14 }
  - { offset: 0x2880C, size: 0x8, addend: 0x0, symName: __RNCNvMs3_NtNtCscOYdFFY2T5N_3std6thread5localINtB7_8LocalKeyINtNtCsfvfooZQ3Axs_4core4cell4CellPuEE7replace0CsjDl19lsdQYR_15datasize_derive, symObjAddr: 0x1198, symBinAddr: 0x82FC, symSize: 0x28 }
  - { offset: 0x28ADB, size: 0x8, addend: 0x0, symName: __RINvNvNtCscOYdFFY2T5N_3std9panicking3try7do_callINtNtNtCsfvfooZQ3Axs_4core5panic11unwind_safe16AssertUnwindSafeNCINvNtNtCs9i5KxIbZ5ph_10proc_macro6bridge6client10run_clientNtB1Q_11TokenStreamINtNtBR_6option6OptionB2K_ENCNCINvMs7_B1Q_INtB1Q_6ClientNtB1U_11TokenStreamB3X_E7expand1NvCsjDl19lsdQYR_15datasize_derive16derive_data_sizeE00E0EuEB4v_, symObjAddr: 0x670, symBinAddr: 0x78F0, symSize: 0x50 }
  - { offset: 0x28BA3, size: 0x8, addend: 0x0, symName: __RINvNvNtCscOYdFFY2T5N_3std9panicking3try8do_catchINtNtNtCsfvfooZQ3Axs_4core5panic11unwind_safe16AssertUnwindSafeNCINvNtNtCs9i5KxIbZ5ph_10proc_macro6bridge6client10run_clientNtB1R_11TokenStreamINtNtBS_6option6OptionB2L_ENCNCINvMs7_B1R_INtB1R_6ClientNtB1V_11TokenStreamB3Y_E7expand1NvCsjDl19lsdQYR_15datasize_derive16derive_data_sizeE00E0EuEB4w_, symObjAddr: 0x6C0, symBinAddr: 0x7940, symSize: 0x70 }
  - { offset: 0x29015, size: 0x8, addend: 0x0, symName: __RNCINvNtCsloNvcHxBCre_9hashbrown3map14equivalent_keyNtCs3cP53eQoTwO_11proc_macro25IdentBO_uE0CsjDl19lsdQYR_15datasize_derive, symObjAddr: 0xDDC, symBinAddr: 0x7F40, symSize: 0x30 }
  - { offset: 0x29328, size: 0x8, addend: 0x0, symName: __RINvXs1i_NtCsloNvcHxBCre_9hashbrown3mapINtB7_7HashMapNtCs3cP53eQoTwO_11proc_macro25IdentuNtNtNtCscOYdFFY2T5N_3std4hash6random11RandomStateEINtNtNtNtCsfvfooZQ3Axs_4core4iter6traits7collect6ExtendTBP_uEE6extendINtNtNtB2k_8adapters3map3MapINtNtB3p_10filter_map9FilterMapINtNtCs5AlOhPCr03V_3syn10punctuated4IterNtNtB4m_8generics12GenericParamENCNvCsjDl19lsdQYR_15datasize_derive21path_contains_generics_0ENCINvXs8_NtB9_3setINtB6A_7HashSetBP_B1p_EIB2e_BP_E6extendB3M_E0EEB5v_, symObjAddr: 0xA00, symBinAddr: 0x7B64, symSize: 0x114 }
  - { offset: 0x29436, size: 0x8, addend: 0x0, symName: __RNCINvXs1i_NtCsloNvcHxBCre_9hashbrown3mapINtB9_7HashMapNtCs3cP53eQoTwO_11proc_macro25IdentuNtNtNtCscOYdFFY2T5N_3std4hash6random11RandomStateEINtNtNtNtCsfvfooZQ3Axs_4core4iter6traits7collect6ExtendTBR_uEE6extendINtNtNtB2m_8adapters3map3MapINtNtB3r_10filter_map9FilterMapINtNtCs5AlOhPCr03V_3syn10punctuated4IterNtNtB4o_8generics12GenericParamENCNvCsjDl19lsdQYR_15datasize_derive21path_contains_generics_0ENCINvXs8_NtBb_3setINtB6C_7HashSetBR_B1r_EIB2g_BR_E6extendB3O_E0EE0B5x_, symObjAddr: 0x1054, symBinAddr: 0x81B8, symSize: 0x40 }
  - { offset: 0x2951C, size: 0x8, addend: 0x0, symName: __RNCINvNtCsloNvcHxBCre_9hashbrown3map11make_hasherNtCs3cP53eQoTwO_11proc_macro25IdentuNtNtNtCscOYdFFY2T5N_3std4hash6random11RandomStateE0CsjDl19lsdQYR_15datasize_derive, symObjAddr: 0xDA0, symBinAddr: 0x7F04, symSize: 0x3C }
  - { offset: 0x2960A, size: 0x8, addend: 0x0, symName: __RNvXs5_NtCsloNvcHxBCre_9hashbrown3mapINtB5_7HashMapNtCs3cP53eQoTwO_11proc_macro25IdentuNtNtNtCscOYdFFY2T5N_3std4hash6random11RandomStateENtNtCsfvfooZQ3Axs_4core7default7Default7defaultCsjDl19lsdQYR_15datasize_derive, symObjAddr: 0x2774, symBinAddr: 0x95D4, symSize: 0x8C }
  - { offset: 0x2968E, size: 0x8, addend: 0x0, symName: __RNvXsG_NtCsloNvcHxBCre_9hashbrown3mapINtB5_4IterNtCs3cP53eQoTwO_11proc_macro25IdentuENtNtNtNtCsfvfooZQ3Axs_4core4iter6traits8iterator8Iterator4nextCsjDl19lsdQYR_15datasize_derive, symObjAddr: 0x3170, symBinAddr: 0x9FD0, symSize: 0xF8 }
  - { offset: 0x297A3, size: 0x8, addend: 0x0, symName: __RINvXs8_NtCsloNvcHxBCre_9hashbrown3setINtB6_7HashSetNtCs3cP53eQoTwO_11proc_macro25IdentNtNtNtCscOYdFFY2T5N_3std4hash6random11RandomStateEINtNtNtNtCsfvfooZQ3Axs_4core4iter6traits7collect6ExtendBO_E6extendINtNtNtB2i_8adapters10filter_map9FilterMapINtNtCs5AlOhPCr03V_3syn10punctuated4IterNtNtB40_8generics12GenericParamENCNvCsjDl19lsdQYR_15datasize_derive21path_contains_generics_0EEB59_, symObjAddr: 0xB78, symBinAddr: 0x7CDC, symSize: 0x5C }
  - { offset: 0x29805, size: 0x8, addend: 0x0, symName: __RNCINvXs8_NtCsloNvcHxBCre_9hashbrown3setINtB8_7HashSetNtCs3cP53eQoTwO_11proc_macro25IdentNtNtNtCscOYdFFY2T5N_3std4hash6random11RandomStateEINtNtNtNtCsfvfooZQ3Axs_4core4iter6traits7collect6ExtendBQ_E6extendINtNtNtB2k_8adapters10filter_map9FilterMapINtNtCs5AlOhPCr03V_3syn10punctuated4IterNtNtB42_8generics12GenericParamENCNvCsjDl19lsdQYR_15datasize_derive21path_contains_generics_0EE0B5b_, symObjAddr: 0x1094, symBinAddr: 0x81F8, symSize: 0x24 }
  - { offset: 0x29998, size: 0x8, addend: 0x0, symName: __RNvXCsloNvcHxBCre_9hashbrownNtCs3cP53eQoTwO_11proc_macro25IdentINtB2_10EquivalentBq_E10equivalentCsjDl19lsdQYR_15datasize_derive, symObjAddr: 0x239C, symBinAddr: 0x91FC, symSize: 0x50 }
  - { offset: 0x29B59, size: 0x8, addend: 0x0, symName: __RINvMs1_NtCsloNvcHxBCre_9hashbrown3mapINtB6_7HashMapNtCs3cP53eQoTwO_11proc_macro25IdentuNtNtNtCscOYdFFY2T5N_3std4hash6random11RandomStateE9get_innerBO_ECsjDl19lsdQYR_15datasize_derive, symObjAddr: 0x0, symBinAddr: 0x7324, symSize: 0xF8 }
  - { offset: 0x29D2D, size: 0x8, addend: 0x0, symName: __RINvMs2_NtNtCscOYdFFY2T5N_3std6thread5localINtB6_8LocalKeyINtNtCsfvfooZQ3Axs_4core4cell4CellPuEE4withNCNvMs3_B6_BF_7replace0B1s_ECsjDl19lsdQYR_15datasize_derive, symObjAddr: 0xF8, symBinAddr: 0x741C, symSize: 0x54 }
  - { offset: 0x29DE6, size: 0x8, addend: 0x0, symName: __RINvMs2_NtNtCscOYdFFY2T5N_3std6thread5localINtB6_8LocalKeyINtNtCsfvfooZQ3Axs_4core4cell4CellPuEE8try_withNCNvMs3_B6_BF_7replace0B1s_ECsjDl19lsdQYR_15datasize_derive, symObjAddr: 0x14C, symBinAddr: 0x7470, symSize: 0xE4 }
  - { offset: 0x29F78, size: 0x8, addend: 0x0, symName: __RINvMs2_NtNtCscOYdFFY2T5N_3std6thread5localINtB6_8LocalKeyINtNtCsfvfooZQ3Axs_4core4cell4CellTyyEEE4withNCNvMNtNtBa_4hash6randomNtB1I_11RandomState3new0B21_ECsjDl19lsdQYR_15datasize_derive, symObjAddr: 0x230, symBinAddr: 0x7554, symSize: 0x50 }
  - { offset: 0x2A031, size: 0x8, addend: 0x0, symName: __RINvMs2_NtNtCscOYdFFY2T5N_3std6thread5localINtB6_8LocalKeyINtNtCsfvfooZQ3Axs_4core4cell4CellTyyEEE8try_withNCNvMNtNtBa_4hash6randomNtB1M_11RandomState3new0B25_ECsjDl19lsdQYR_15datasize_derive, symObjAddr: 0x280, symBinAddr: 0x75A4, symSize: 0xE8 }
  - { offset: 0x2A1B5, size: 0x8, addend: 0x0, symName: __RINvMs7_NtCs5AlOhPCr03V_3syn5parseNtB6_11ParseBuffer5parseNtCs3cP53eQoTwO_11proc_macro25PunctECsjDl19lsdQYR_15datasize_derive, symObjAddr: 0x368, symBinAddr: 0x768C, symSize: 0x34 }
  - { offset: 0x2A64A, size: 0x8, addend: 0x0, symName: __RNvMNtCse1nGBsou5OW_5alloc6stringNtB2_6String6as_strCsjDl19lsdQYR_15datasize_derive, symObjAddr: 0x11C0, symBinAddr: 0x8324, symSize: 0x70 }
  - { offset: 0x2A771, size: 0x8, addend: 0x0, symName: __RNvMNtCsfvfooZQ3Axs_4core6resultINtB2_6ResultNtCs3cP53eQoTwO_11proc_macro25IdentNtNtCs5AlOhPCr03V_3syn5error5ErrorE6expectCsjDl19lsdQYR_15datasize_derive, symObjAddr: 0x12D4, symBinAddr: 0x8438, symSize: 0xB8 }
  - { offset: 0x2A7D4, size: 0x8, addend: 0x0, symName: __RNvMNtCsfvfooZQ3Axs_4core6resultINtB2_6ResultNtCs3cP53eQoTwO_11proc_macro25PunctNtNtCs5AlOhPCr03V_3syn5error5ErrorE6expectCsjDl19lsdQYR_15datasize_derive, symObjAddr: 0x138C, symBinAddr: 0x84F0, symSize: 0xC4 }
  - { offset: 0x2ADE7, size: 0x8, addend: 0x0, symName: __RNvMNtCsfvfooZQ3Axs_4core6resultINtB2_6ResultNtCsjDl19lsdQYR_15datasize_derive13DataAttributeNtNtCs5AlOhPCr03V_3syn5error5ErrorE6expectBJ_, symObjAddr: 0x1450, symBinAddr: 0x85B4, symSize: 0xC4 }
  - { offset: 0x2AE4A, size: 0x8, addend: 0x0, symName: __RNvMNtNtNtCsloNvcHxBCre_9hashbrown7control5group4neonNtB2_5Group10match_fullCsjDl19lsdQYR_15datasize_derive, symObjAddr: 0x1514, symBinAddr: 0x8678, symSize: 0x68 }
  - { offset: 0x2AE82, size: 0x8, addend: 0x0, symName: __RNvMNtNtNtCsloNvcHxBCre_9hashbrown7control5group4neonNtB2_5Group22match_empty_or_deletedCsjDl19lsdQYR_15datasize_derive, symObjAddr: 0x157C, symBinAddr: 0x86E0, symSize: 0x68 }
  - { offset: 0x2AEBA, size: 0x8, addend: 0x0, symName: __RNvMNtNtNtCsloNvcHxBCre_9hashbrown7control5group4neonNtB2_5Group44convert_special_to_empty_and_full_to_deletedCsjDl19lsdQYR_15datasize_derive, symObjAddr: 0x15E4, symBinAddr: 0x8748, symSize: 0x88 }
  - { offset: 0x2AEF2, size: 0x8, addend: 0x0, symName: __RNvMNtNtNtCsloNvcHxBCre_9hashbrown7control5group4neonNtB2_5Group9match_tagCsjDl19lsdQYR_15datasize_derive, symObjAddr: 0x166C, symBinAddr: 0x87D0, symSize: 0x7C }
  - { offset: 0x2B064, size: 0x8, addend: 0x0, symName: __RNvMs0_NtCsloNvcHxBCre_9hashbrown3mapINtB5_7HashMapNtCs3cP53eQoTwO_11proc_macro25IdentuNtNtNtCscOYdFFY2T5N_3std4hash6random11RandomStateE4iterCsjDl19lsdQYR_15datasize_derive, symObjAddr: 0x16E8, symBinAddr: 0x884C, symSize: 0xC8 }
  - { offset: 0x2B289, size: 0x8, addend: 0x0, symName: __RNvMs1_NtCsloNvcHxBCre_9hashbrown3mapINtB5_7HashMapNtCs3cP53eQoTwO_11proc_macro25IdentuNtNtNtCscOYdFFY2T5N_3std4hash6random11RandomStateE6insertCsjDl19lsdQYR_15datasize_derive, symObjAddr: 0x17B0, symBinAddr: 0x8914, symSize: 0x1D8 }
  - { offset: 0x2B589, size: 0x8, addend: 0x0, symName: __RNvXNtCs2cqEZUIJimJ_5quote9to_tokensRNtCs3cP53eQoTwO_11proc_macro25IdentNtB2_8ToTokens9to_tokensCsjDl19lsdQYR_15datasize_derive, symObjAddr: 0x23EC, symBinAddr: 0x924C, symSize: 0x40 }
  - { offset: 0x2C36E, size: 0x8, addend: 0x0, symName: __RINvMs0_NtNtNtNtCscOYdFFY2T5N_3std3sys12thread_local6native4lazyINtB6_7StorageINtNtCsfvfooZQ3Axs_4core4cell4CellTyyEEzE10initializeNvNvNvMNtNtBe_4hash6randomNtB2c_11RandomState3new4KEYS6___initECsjDl19lsdQYR_15datasize_derive, symObjAddr: 0x0, symBinAddr: 0x155BA0, symSize: 0x264 }
  - { offset: 0x2C43B, size: 0x8, addend: 0x0, symName: __RNCNvXs1_NtNtNtCscOYdFFY2T5N_3std2io5error14repr_bitpackedNtB7_4ReprNtNtNtCsfvfooZQ3Axs_4core3ops4drop4Drop4drop0CsjDl19lsdQYR_15datasize_derive, symObjAddr: 0x1364, symBinAddr: 0xB770, symSize: 0x34 }
  - { offset: 0x2C4F0, size: 0x8, addend: 0x0, symName: __RNvXs1_NtNtNtCscOYdFFY2T5N_3std2io5error14repr_bitpackedNtB5_4ReprNtNtNtCsfvfooZQ3Axs_4core3ops4drop4Drop4dropCsjDl19lsdQYR_15datasize_derive, symObjAddr: 0x2A20, symBinAddr: 0xCE2C, symSize: 0x38 }
  - { offset: 0x2C519, size: 0x8, addend: 0x0, symName: __RINvNtNtNtCscOYdFFY2T5N_3std2io5error14repr_bitpacked11decode_reprINtNtCse1nGBsou5OW_5alloc5boxed3BoxNtB4_6CustomENCNvXs1_B2_NtB2_4ReprNtNtNtCsfvfooZQ3Axs_4core3ops4drop4Drop4drop0ECsjDl19lsdQYR_15datasize_derive, symObjAddr: 0x84C, symBinAddr: 0xAC58, symSize: 0x230 }
  - { offset: 0x2C7BE, size: 0x8, addend: 0x0, symName: __RNvNtNtNtCscOYdFFY2T5N_3std2io5error14repr_bitpacked14kind_from_primCsjDl19lsdQYR_15datasize_derive, symObjAddr: 0x1DC8, symBinAddr: 0xC1D4, symSize: 0x608 }
  - { offset: 0x2D30C, size: 0x8, addend: 0x0, symName: __RINvXNtNtNtNtCscOYdFFY2T5N_3std3sys12thread_local6native4lazyzNtB3_14DestroyedState13register_dtorINtNtCsfvfooZQ3Axs_4core4cell4CellTyyEEECsjDl19lsdQYR_15datasize_derive, symObjAddr: 0xAD8, symBinAddr: 0xAEE4, symSize: 0x10 }
  - { offset: 0x2D8DD, size: 0x8, addend: 0x0, symName: __RNvNvMs1_NtNtCsfvfooZQ3Axs_4core3ptr8non_nullINtB7_7NonNullpE13new_unchecked18precondition_checkCsjDl19lsdQYR_15datasize_derive, symObjAddr: 0x2504, symBinAddr: 0xC910, symSize: 0x38 }
  - { offset: 0x30F51, size: 0x8, addend: 0x0, symName: __RNvXsn_NtNtCsfvfooZQ3Axs_4core5panic11unwind_safeINtB5_16AssertUnwindSafeNCINvNtNtCs9i5KxIbZ5ph_10proc_macro6bridge6client10run_clientNtB1e_11TokenStreamINtNtB9_6option6OptionB28_ENCNCINvMs7_B1e_INtB1e_6ClientNtB1i_11TokenStreamB3l_E7expand1NvCsjDl19lsdQYR_15datasize_derive16derive_data_sizeE00E0EINtNtNtB9_3ops8function6FnOnceuE9call_onceB3T_, symObjAddr: 0x3824, symBinAddr: 0xDC30, symSize: 0x38 }
  - { offset: 0x314C2, size: 0x8, addend: 0x0, symName: __RNvNvNtCsfvfooZQ3Axs_4core4hint21unreachable_unchecked18precondition_checkCsjDl19lsdQYR_15datasize_derive, symObjAddr: 0x25CC, symBinAddr: 0xC9D8, symSize: 0x1C }
  - { offset: 0x31759, size: 0x8, addend: 0x0, symName: __RNvNvXs0_NtNtCsfvfooZQ3Axs_4core5slice5indexjINtB7_10SliceIndexSpE13get_unchecked18precondition_checkCsjDl19lsdQYR_15datasize_derive, symObjAddr: 0x26C0, symBinAddr: 0xCACC, symSize: 0x40 }
  - { offset: 0x319F9, size: 0x8, addend: 0x0, symName: __RNvNvMs3_NtCsfvfooZQ3Axs_4core3numi13unchecked_neg18precondition_checkCsjDl19lsdQYR_15datasize_derive, symObjAddr: 0x253C, symBinAddr: 0xC948, symSize: 0x4C }
  - { offset: 0x31A93, size: 0x8, addend: 0x0, symName: __RNvNvMs9_NtCsfvfooZQ3Axs_4core3numj13unchecked_add18precondition_checkCsjDl19lsdQYR_15datasize_derive, symObjAddr: 0x2588, symBinAddr: 0xC994, symSize: 0x44 }
  - { offset: 0x321D4, size: 0x8, addend: 0x0, symName: __RINvXs0_NtNtNtCsfvfooZQ3Axs_4core4iter8adapters10filter_mapINtB6_9FilterMapINtNtCs5AlOhPCr03V_3syn10punctuated4IterNtNtB1g_8generics12GenericParamENCNvCsjDl19lsdQYR_15datasize_derive21path_contains_generics_0ENtNtNtBa_6traits8iterator8Iterator4folduNCINvNtB8_3map8map_foldNtCs3cP53eQoTwO_11proc_macro25IdentTB4m_uEuNCINvXs8_NtCsloNvcHxBCre_9hashbrown3setINtB5c_7HashSetB4m_NtNtNtCscOYdFFY2T5N_3std4hash6random11RandomStateEINtNtB3p_7collect6ExtendB4m_E6extendBV_E0NCINvNvB3l_8for_each4callB4V_NCINvXs1i_NtB5e_3mapINtB85_7HashMapB4m_uB5Z_EIB6O_B4V_E6extendINtB44_3MapBV_B53_EE0E0E0EB2p_, symObjAddr: 0xAE8, symBinAddr: 0xAEF4, symSize: 0x34 }
  - { offset: 0x32245, size: 0x8, addend: 0x0, symName: __RNvXs0_NtNtNtCsfvfooZQ3Axs_4core4iter8adapters10filter_mapINtB5_9FilterMapINtNtCs5AlOhPCr03V_3syn10punctuated4IterNtNtB1f_8generics12GenericParamENCNvCsjDl19lsdQYR_15datasize_derive21path_contains_generics_0ENtNtNtB9_6traits8iterator8Iterator9size_hintB2o_, symObjAddr: 0x28CC, symBinAddr: 0xCCD8, symSize: 0x4C }
  - { offset: 0x322AF, size: 0x8, addend: 0x0, symName: __RNCINvNtNtNtCsfvfooZQ3Axs_4core4iter8adapters10filter_map15filter_map_foldRNtNtCs5AlOhPCr03V_3syn8generics12GenericParamNtCs3cP53eQoTwO_11proc_macro25IdentuNCNvCsjDl19lsdQYR_15datasize_derive21path_contains_generics_0NCINvNtB6_3map8map_foldB1U_TB1U_uEuNCINvXs8_NtCsloNvcHxBCre_9hashbrown3setINtB4b_7HashSetB1U_NtNtNtCscOYdFFY2T5N_3std4hash6random11RandomStateEINtNtNtB8_6traits7collect6ExtendB1U_E6extendINtB4_9FilterMapINtNtB1f_10punctuated4IterB1b_EB2u_EE0NCINvNvNtNtB5R_8iterator8Iterator8for_each4callB3U_NCINvXs1i_NtB4d_3mapINtB8l_7HashMapB1U_uB4Y_EIB5N_B3U_E6extendINtB3y_3MapB6u_B42_EE0E0E0E0B2y_, symObjAddr: 0x1104, symBinAddr: 0xB510, symSize: 0xB8 }
  - { offset: 0x32390, size: 0x8, addend: 0x0, symName: __RINvXs0_NtNtNtCsfvfooZQ3Axs_4core4iter8adapters3mapINtB6_3MapINtNtB8_10filter_map9FilterMapINtNtCs5AlOhPCr03V_3syn10punctuated4IterNtNtB1w_8generics12GenericParamENCNvCsjDl19lsdQYR_15datasize_derive21path_contains_generics_0ENCINvXs8_NtCsloNvcHxBCre_9hashbrown3setINtB3K_7HashSetNtCs3cP53eQoTwO_11proc_macro25IdentNtNtNtCscOYdFFY2T5N_3std4hash6random11RandomStateEINtNtNtBa_6traits7collect6ExtendB4t_E6extendBX_E0ENtNtB5V_8iterator8Iterator4folduNCINvNvB6E_8for_each4callTB4t_uENCINvXs1i_NtB3M_3mapINtB7Q_7HashMapB4t_uB52_EIB5R_B7z_E6extendBN_E0E0EB2F_, symObjAddr: 0xB1C, symBinAddr: 0xAF28, symSize: 0x34 }
  - { offset: 0x32401, size: 0x8, addend: 0x0, symName: __RINvXs0_NtNtNtCsfvfooZQ3Axs_4core4iter8adapters3mapINtB6_3MapINtNtNtCse1nGBsou5OW_5alloc3vec9into_iter8IntoIterTNtNtCs5AlOhPCr03V_3syn4data7VariantNtNtB1Q_5token5CommaEENCNvXs8_NtB1Q_10punctuatedINtB2P_10PunctuatedB1M_B2l_ENtNtNtBa_6traits7collect12IntoIterator9into_iter0ENtNtB3D_8iterator8Iterator4folduNCINvNvB4n_8for_each4callB1M_NCINvMsi_B12_INtB12_3VecB1M_E14extend_trustedBN_E0E0ECsjDl19lsdQYR_15datasize_derive, symObjAddr: 0xB50, symBinAddr: 0xAF5C, symSize: 0x4C }
  - { offset: 0x3249A, size: 0x8, addend: 0x0, symName: __RNvXs0_NtNtNtCsfvfooZQ3Axs_4core4iter8adapters3mapINtB5_3MapINtNtB7_10filter_map9FilterMapINtNtCs5AlOhPCr03V_3syn10punctuated4IterNtNtB1v_8generics12GenericParamENCNvCsjDl19lsdQYR_15datasize_derive21path_contains_generics_0ENCINvXs8_NtCsloNvcHxBCre_9hashbrown3setINtB3J_7HashSetNtCs3cP53eQoTwO_11proc_macro25IdentNtNtNtCscOYdFFY2T5N_3std4hash6random11RandomStateEINtNtNtB9_6traits7collect6ExtendB4s_E6extendBW_E0ENtNtB5U_8iterator8Iterator9size_hintB2E_, symObjAddr: 0x2918, symBinAddr: 0xCD24, symSize: 0x24 }
  - { offset: 0x324E1, size: 0x8, addend: 0x0, symName: __RNvXs0_NtNtNtCsfvfooZQ3Axs_4core4iter8adapters3mapINtB5_3MapINtNtNtCse1nGBsou5OW_5alloc3vec9into_iter8IntoIterTNtNtCs5AlOhPCr03V_3syn4data7VariantNtNtB1P_5token5CommaEENCNvXs8_NtB1P_10punctuatedINtB2O_10PunctuatedB1L_B2k_ENtNtNtB9_6traits7collect12IntoIterator9into_iter0ENtNtB3C_8iterator8Iterator9size_hintCsjDl19lsdQYR_15datasize_derive, symObjAddr: 0x293C, symBinAddr: 0xCD48, symSize: 0x24 }
  - { offset: 0x325A0, size: 0x8, addend: 0x0, symName: __RNCINvNtNtNtCsfvfooZQ3Axs_4core4iter8adapters3map8map_foldNtCs3cP53eQoTwO_11proc_macro25IdentTBU_uEuNCINvXs8_NtCsloNvcHxBCre_9hashbrown3setINtB1J_7HashSetBU_NtNtNtCscOYdFFY2T5N_3std4hash6random11RandomStateEINtNtNtB8_6traits7collect6ExtendBU_E6extendINtNtB6_10filter_map9FilterMapINtNtCs5AlOhPCr03V_3syn10punctuated4IterNtNtB4z_8generics12GenericParamENCNvCsjDl19lsdQYR_15datasize_derive21path_contains_generics_0EE0NCINvNvNtNtB3o_8iterator8Iterator8for_each4callB1t_NCINvXs1i_NtB1L_3mapINtB7F_7HashMapBU_uB2v_EIB3k_B1t_E6extendINtB4_3MapB40_B1A_EE0E0E0B5I_, symObjAddr: 0x11BC, symBinAddr: 0xB5C8, symSize: 0x9C }
  - { offset: 0x32626, size: 0x8, addend: 0x0, symName: __RNCINvNtNtNtCsfvfooZQ3Axs_4core4iter8adapters3map8map_foldTNtNtCs5AlOhPCr03V_3syn4data7VariantNtNtBZ_5token5CommaEBV_uNCNvXs8_NtBZ_10punctuatedINtB20_10PunctuatedBV_B1u_ENtNtNtB8_6traits7collect12IntoIterator9into_iter0NCINvNvNtNtB2M_8iterator8Iterator8for_each4callBV_NCINvMsi_NtCse1nGBsou5OW_5alloc3vecINtB4s_3VecBV_E14extend_trustedINtB4_3MapINtNtB4s_9into_iter8IntoIterBU_EB1S_EE0E0E0CsjDl19lsdQYR_15datasize_derive, symObjAddr: 0x1258, symBinAddr: 0xB664, symSize: 0xB4 }
  - { offset: 0x32795, size: 0x8, addend: 0x0, symName: __RNvXsh_NtNtNtCsfvfooZQ3Axs_4core4iter8adapters7step_byINtNtNtBb_3ops5range5RangejEINtB5_14SpecRangeSetupBQ_E5setupCsjDl19lsdQYR_15datasize_derive, symObjAddr: 0x35A4, symBinAddr: 0xD9B0, symSize: 0x12C }
  - { offset: 0x328A1, size: 0x8, addend: 0x0, symName: __RNvXs_NtNtNtCsfvfooZQ3Axs_4core4iter8adapters9enumerateINtB4_9EnumerateINtNtCs5AlOhPCr03V_3syn10punctuated4IterNtNtB1c_4data5FieldEENtNtNtB8_6traits8iterator8Iterator4nextCsjDl19lsdQYR_15datasize_derive, symObjAddr: 0x2E98, symBinAddr: 0xD2A4, symSize: 0xE0 }
  - { offset: 0x3297B, size: 0x8, addend: 0x0, symName: __RNvXs_NtNtNtCsfvfooZQ3Axs_4core4iter8adapters9enumerateINtB4_9EnumerateINtNtCs5AlOhPCr03V_3syn10punctuated8IntoIterNtNtB1c_4data5FieldEENtNtNtB8_6traits8iterator8Iterator4nextCsjDl19lsdQYR_15datasize_derive, symObjAddr: 0x2F78, symBinAddr: 0xD384, symSize: 0x17C }
  - { offset: 0x32B20, size: 0x8, addend: 0x0, symName: __RINvYINtNtNtNtCsfvfooZQ3Axs_4core4iter8adapters10filter_map9FilterMapINtNtCs5AlOhPCr03V_3syn10punctuated4IterNtNtB1a_8generics12GenericParamENCNvCsjDl19lsdQYR_15datasize_derive21path_contains_generics_0ENtNtNtBa_6traits8iterator8Iterator3mapTNtCs3cP53eQoTwO_11proc_macro25IdentuENCINvXs8_NtCsloNvcHxBCre_9hashbrown3setINtB4C_7HashSetB3S_NtNtNtCscOYdFFY2T5N_3std4hash6random11RandomStateEINtNtB3j_7collect6ExtendB3S_E6extendB3_E0EB2j_, symObjAddr: 0xD00, symBinAddr: 0xB10C, symSize: 0x1C }
  - { offset: 0x32B78, size: 0x8, addend: 0x0, symName: __RINvYINtNtNtNtCsfvfooZQ3Axs_4core4iter8adapters10filter_map9FilterMapINtNtCs5AlOhPCr03V_3syn10punctuated4IterNtNtB1a_8generics12GenericParamENCNvCsjDl19lsdQYR_15datasize_derive21path_contains_generics_0ENtNtNtBa_6traits8iterator8Iterator7collectINtNtNtNtCscOYdFFY2T5N_3std11collections4hash3set7HashSetNtCs3cP53eQoTwO_11proc_macro25IdentEEB2j_, symObjAddr: 0xD1C, symBinAddr: 0xB128, symSize: 0x2C }
  - { offset: 0x32BB8, size: 0x8, addend: 0x0, symName: __RINvYINtNtNtNtCsfvfooZQ3Axs_4core4iter8adapters3map3MapINtNtB8_10filter_map9FilterMapINtNtCs5AlOhPCr03V_3syn10punctuated4IterNtNtB1q_8generics12GenericParamENCNvCsjDl19lsdQYR_15datasize_derive21path_contains_generics_0ENCINvXs8_NtCsloNvcHxBCre_9hashbrown3setINtB3E_7HashSetNtCs3cP53eQoTwO_11proc_macro25IdentNtNtNtCscOYdFFY2T5N_3std4hash6random11RandomStateEINtNtNtBa_6traits7collect6ExtendB4n_E6extendBR_E0ENtNtB5P_8iterator8Iterator8for_eachNCINvXs1i_NtB3G_3mapINtB7h_7HashMapB4n_uB4W_EIB5L_TB4n_uEE6extendB3_E0EB2z_, symObjAddr: 0xD48, symBinAddr: 0xB154, symSize: 0x34 }
  - { offset: 0x32C03, size: 0x8, addend: 0x0, symName: __RINvYINtNtNtNtCsfvfooZQ3Axs_4core4iter8adapters3map3MapINtNtNtCse1nGBsou5OW_5alloc3vec9into_iter8IntoIterTNtNtCs5AlOhPCr03V_3syn4data7VariantNtNtB1K_5token5CommaEENCNvXs8_NtB1K_10punctuatedINtB2J_10PunctuatedB1G_B2f_ENtNtNtBa_6traits7collect12IntoIterator9into_iter0ENtNtB3x_8iterator8Iterator8for_eachNCINvMsi_BW_INtBW_3VecB1G_E14extend_trustedB3_E0ECsjDl19lsdQYR_15datasize_derive, symObjAddr: 0xD7C, symBinAddr: 0xB188, symSize: 0x34 }
  - { offset: 0x32C7B, size: 0x8, addend: 0x0, symName: __RNvXNtNtNtCsfvfooZQ3Axs_4core4iter6traits7collectINtNtNtB6_8adapters10filter_map9FilterMapINtNtCs5AlOhPCr03V_3syn10punctuated4IterNtNtB1v_8generics12GenericParamENCNvCsjDl19lsdQYR_15datasize_derive21path_contains_generics_0ENtB2_12IntoIterator9into_iterB2E_, symObjAddr: 0x2748, symBinAddr: 0xCB54, symSize: 0x1C }
  - { offset: 0x32CB2, size: 0x8, addend: 0x0, symName: __RNvXNtNtNtCsfvfooZQ3Axs_4core4iter6traits7collectINtNtNtB6_8adapters3map3MapINtNtBQ_10filter_map9FilterMapINtNtCs5AlOhPCr03V_3syn10punctuated4IterNtNtB1L_8generics12GenericParamENCNvCsjDl19lsdQYR_15datasize_derive21path_contains_generics_0ENCINvXs8_NtCsloNvcHxBCre_9hashbrown3setINtB3Z_7HashSetNtCs3cP53eQoTwO_11proc_macro25IdentNtNtNtCscOYdFFY2T5N_3std4hash6random11RandomStateEINtB2_6ExtendB4I_E6extendB1c_E0ENtB2_12IntoIterator9into_iterB2U_, symObjAddr: 0x2764, symBinAddr: 0xCB70, symSize: 0x1C }
  - { offset: 0x32CE9, size: 0x8, addend: 0x0, symName: __RNvXNtNtNtCsfvfooZQ3Axs_4core4iter6traits7collectINtNtNtB6_8adapters3map3MapINtNtNtCse1nGBsou5OW_5alloc3vec9into_iter8IntoIterTNtNtCs5AlOhPCr03V_3syn4data7VariantNtNtB25_5token5CommaEENCNvXs8_NtB25_10punctuatedINtB34_10PunctuatedB21_B2A_ENtB2_12IntoIterator9into_iter0EB3O_9into_iterCsjDl19lsdQYR_15datasize_derive, symObjAddr: 0x2780, symBinAddr: 0xCB8C, symSize: 0x14 }
  - { offset: 0x32D20, size: 0x8, addend: 0x0, symName: __RNvXNtNtNtCsfvfooZQ3Axs_4core4iter6traits7collectINtNtNtB6_8adapters9enumerate9EnumerateINtNtCs5AlOhPCr03V_3syn10punctuated4IterNtNtB1t_4data5FieldEENtB2_12IntoIterator9into_iterCsjDl19lsdQYR_15datasize_derive, symObjAddr: 0x2794, symBinAddr: 0xCBA0, symSize: 0x18 }
  - { offset: 0x32D57, size: 0x8, addend: 0x0, symName: __RNvXNtNtNtCsfvfooZQ3Axs_4core4iter6traits7collectINtNtNtB6_8adapters9enumerate9EnumerateINtNtCs5AlOhPCr03V_3syn10punctuated8IntoIterNtNtB1t_4data5FieldEENtB2_12IntoIterator9into_iterCsjDl19lsdQYR_15datasize_derive, symObjAddr: 0x27AC, symBinAddr: 0xCBB8, symSize: 0x30 }
  - { offset: 0x33072, size: 0x8, addend: 0x0, symName: __RNvNtNtNtCsfvfooZQ3Axs_4core9core_arch7aarch644neon7vld1_u8CsjDl19lsdQYR_15datasize_derive, symObjAddr: 0x23D0, symBinAddr: 0xC7DC, symSize: 0x2C }
  - { offset: 0x330A0, size: 0x8, addend: 0x0, symName: __RNvNtNtNtCsfvfooZQ3Axs_4core9core_arch7aarch644neon7vst1_u8CsjDl19lsdQYR_15datasize_derive, symObjAddr: 0x23FC, symBinAddr: 0xC808, symSize: 0x38 }
  - { offset: 0x330DF, size: 0x8, addend: 0x0, symName: __RNvNtNtNtNtCsfvfooZQ3Axs_4core9core_arch7aarch644neon9generated8vcgez_s8CsjDl19lsdQYR_15datasize_derive, symObjAddr: 0x2434, symBinAddr: 0xC840, symSize: 0x68 }
  - { offset: 0x33181, size: 0x8, addend: 0x0, symName: __RNvNtNtNtNtCsfvfooZQ3Axs_4core9core_arch7aarch644neon9generated8vcltz_s8CsjDl19lsdQYR_15datasize_derive, symObjAddr: 0x249C, symBinAddr: 0xC8A8, symSize: 0x68 }
  - { offset: 0x332BA, size: 0x8, addend: 0x0, symName: __RNvNvNtCsfvfooZQ3Axs_4core9ub_checks23maybe_is_nonoverlapping7runtimeCsjDl19lsdQYR_15datasize_derive, symObjAddr: 0x25E8, symBinAddr: 0xC9F4, symSize: 0xD8 }
  - { offset: 0x33496, size: 0x8, addend: 0x0, symName: __RNvXs_NtNtCsfvfooZQ3Axs_4core3str6traitseNtNtB8_3cmp9PartialEq2eqCsjDl19lsdQYR_15datasize_derive, symObjAddr: 0x2E34, symBinAddr: 0xD240, symSize: 0x64 }
  - { offset: 0x3385E, size: 0x8, addend: 0x0, symName: __RNvXs5_NtNtCs9i5KxIbZ5ph_10proc_macro6bridge6bufferNtB5_6BufferNtNtNtCsfvfooZQ3Axs_4core3ops4drop4Drop4dropCsjDl19lsdQYR_15datasize_derive, symObjAddr: 0x2A9C, symBinAddr: 0xCEA8, symSize: 0x8C }
  - { offset: 0x33A23, size: 0x8, addend: 0x0, symName: __RNCINvNtNtCs9i5KxIbZ5ph_10proc_macro6bridge6client10run_clientNtB4_11TokenStreamINtNtCsfvfooZQ3Axs_4core6option6OptionBY_ENCNCINvMs7_B4_INtB4_6ClientNtB8_11TokenStreamB2n_E7expand1NvCsjDl19lsdQYR_15datasize_derive16derive_data_sizeE00E0B2U_, symObjAddr: 0xDE0, symBinAddr: 0xB1EC, symSize: 0x324 }
  - { offset: 0x33C8B, size: 0x8, addend: 0x0, symName: __RNCNCINvNtNtCs9i5KxIbZ5ph_10proc_macro6bridge6client10run_clientNtB6_11TokenStreamINtNtCsfvfooZQ3Axs_4core6option6OptionB10_ENCNCINvMs7_B6_INtB6_6ClientNtBa_11TokenStreamB2q_E7expand1NvCsjDl19lsdQYR_15datasize_derive16derive_data_sizeE00E00B2X_, symObjAddr: 0x133C, symBinAddr: 0xB748, symSize: 0x28 }
  - { offset: 0x33D09, size: 0x8, addend: 0x0, symName: __RNCNCINvMs7_NtNtCs9i5KxIbZ5ph_10proc_macro6bridge6clientINtBa_6ClientNtBe_11TokenStreamB15_E7expand1NvCsjDl19lsdQYR_15datasize_derive16derive_data_sizeE00B1C_, symObjAddr: 0x130C, symBinAddr: 0xB718, symSize: 0x30 }
  - { offset: 0x33D52, size: 0x8, addend: 0x0, symName: __RNCINvMs7_NtNtCs9i5KxIbZ5ph_10proc_macro6bridge6clientINtB8_6ClientNtBc_11TokenStreamB13_E7expand1NvCsjDl19lsdQYR_15datasize_derive16derive_data_sizeE0B1A_, symObjAddr: 0xDB0, symBinAddr: 0xB1BC, symSize: 0x30 }
  - { offset: 0x33DD1, size: 0x8, addend: 0x0, symName: __RINvNtNtCs9i5KxIbZ5ph_10proc_macro6bridge6client10run_clientNtB2_11TokenStreamINtNtCsfvfooZQ3Axs_4core6option6OptionBW_ENCNCINvMs7_B2_INtB2_6ClientNtB6_11TokenStreamB2l_E7expand1NvCsjDl19lsdQYR_15datasize_derive16derive_data_sizeE00EB2S_, symObjAddr: 0x630, symBinAddr: 0xAA3C, symSize: 0x21C }
  - { offset: 0x33FE4, size: 0x8, addend: 0x0, symName: __RNvXsg_NtNtCs9i5KxIbZ5ph_10proc_macro6bridge6clientNtB5_11TokenStreamINtNtB7_3rpc6EncodeuE6encodeCsjDl19lsdQYR_15datasize_derive, symObjAddr: 0x3554, symBinAddr: 0xD960, symSize: 0x50 }
  - { offset: 0x340F5, size: 0x8, addend: 0x0, symName: __RNvXsj_NtNtCs9i5KxIbZ5ph_10proc_macro6bridge6clientNtB5_11TokenStreamINtNtB7_3rpc9DecodeMutuE6decodeCsjDl19lsdQYR_15datasize_derive, symObjAddr: 0x36D0, symBinAddr: 0xDADC, symSize: 0x2C }
  - { offset: 0x3413E, size: 0x8, addend: 0x0, symName: __RNvXsq_NtNtCs9i5KxIbZ5ph_10proc_macro6bridge6clientNtB5_4SpanINtNtB7_3rpc9DecodeMutuE6decodeCsjDl19lsdQYR_15datasize_derive, symObjAddr: 0x3964, symBinAddr: 0xDD70, symSize: 0x2C }
  - { offset: 0x3426F, size: 0x8, addend: 0x0, symName: __RNvXNtNtCs9i5KxIbZ5ph_10proc_macro6bridge3rpcuINtB2_6EncodeuE6encodeCsjDl19lsdQYR_15datasize_derive, symObjAddr: 0x2734, symBinAddr: 0xCB40, symSize: 0x14 }
  - { offset: 0x342B6, size: 0x8, addend: 0x0, symName: __RNvXs9_NtNtCs9i5KxIbZ5ph_10proc_macro6bridge3rpcTINtB7_11ExpnGlobalsNtNtB7_6client4SpanENtB16_11TokenStreamEINtB5_9DecodeMutuE6decodeCsjDl19lsdQYR_15datasize_derive, symObjAddr: 0x2B28, symBinAddr: 0xCF34, symSize: 0x84 }
  - { offset: 0x34343, size: 0x8, addend: 0x0, symName: __RNvXsa_NtNtCs9i5KxIbZ5ph_10proc_macro6bridge3rpcRShINtB5_6EncodeuE6encodeCsjDl19lsdQYR_15datasize_derive, symObjAddr: 0x30F4, symBinAddr: 0xD500, symSize: 0xD0 }
  - { offset: 0x34445, size: 0x8, addend: 0x0, symName: __RNvXsc_NtNtCs9i5KxIbZ5ph_10proc_macro6bridge3rpcReINtB5_6EncodeuE6encodeCsjDl19lsdQYR_15datasize_derive, symObjAddr: 0x31C4, symBinAddr: 0xD5D0, symSize: 0x38 }
  - { offset: 0x34507, size: 0x8, addend: 0x0, symName: __RNvXsl_NtNtCs9i5KxIbZ5ph_10proc_macro6bridge3rpcNtB5_12PanicMessageINtB5_6EncodeuE6encodeCsjDl19lsdQYR_15datasize_derive, symObjAddr: 0x36FC, symBinAddr: 0xDB08, symSize: 0x128 }
  - { offset: 0x346CD, size: 0x8, addend: 0x0, symName: __RNvXso_NtNtCs9i5KxIbZ5ph_10proc_macro6bridge3rpcmINtB5_9DecodeMutuE6decodeCsjDl19lsdQYR_15datasize_derive, symObjAddr: 0x385C, symBinAddr: 0xDC68, symSize: 0x108 }
  - { offset: 0x34820, size: 0x8, addend: 0x0, symName: __RINvNvNtNtCs9i5KxIbZ5ph_10proc_macro6bridge14selfless_reify31reify_to_extern_c_fn_hrt_bridge7wrapperNtNtB6_6buffer6BufferNCINvMs7_NtB6_6clientINtB24_6ClientNtB8_11TokenStreamB2u_E7expand1NvCsjDl19lsdQYR_15datasize_derive16derive_data_sizeE0EB31_, symObjAddr: 0xA7C, symBinAddr: 0xAE88, symSize: 0x5C }
  - { offset: 0x34B38, size: 0x8, addend: 0x0, symName: __RNvXs1J_NtCs9i5KxIbZ5ph_10proc_macro6bridgeINtB6_11ExpnGlobalsNtNtB6_6client4SpanEINtNtB6_3rpc9DecodeMutuE6decodeCsjDl19lsdQYR_15datasize_derive, symObjAddr: 0x2960, symBinAddr: 0xCD6C, symSize: 0xB0 }
  - { offset: 0x34DF0, size: 0x8, addend: 0x0, symName: __RNvXs1f_Cs9i5KxIbZ5ph_10proc_macroNtB6_5IdentNtNtCsfvfooZQ3Axs_4core5clone5Clone5cloneCsjDl19lsdQYR_15datasize_derive, symObjAddr: 0x2A58, symBinAddr: 0xCE64, symSize: 0x40 }
  - { offset: 0x34E24, size: 0x8, addend: 0x0, symName: __RNvXsU_Cs9i5KxIbZ5ph_10proc_macroNtB5_11TokenStreamNtNtCsfvfooZQ3Axs_4core5clone5Clone5cloneCsjDl19lsdQYR_15datasize_derive, symObjAddr: 0x2CD8, symBinAddr: 0xD0E4, symSize: 0x64 }
  - { offset: 0x35103, size: 0x8, addend: 0x0, symName: __RINvXs7_NtCs3cP53eQoTwO_11proc_macro23impNtB6_11TokenStreamINtNtNtNtCsfvfooZQ3Axs_4core4iter6traits7collect6ExtendNtB8_9TokenTreeE6extendNtB8_11TokenStreamECsjDl19lsdQYR_15datasize_derive, symObjAddr: 0xB9C, symBinAddr: 0xAFA8, symSize: 0x164 }
  - { offset: 0x3519F, size: 0x8, addend: 0x0, symName: __RNvXsA_NtCs3cP53eQoTwO_11proc_macro23impNtB5_19DeferredTokenStreamNtNtCsfvfooZQ3Axs_4core5clone5Clone5cloneCsjDl19lsdQYR_15datasize_derive, symObjAddr: 0x2BAC, symBinAddr: 0xCFB8, symSize: 0x90 }
  - { offset: 0x351D1, size: 0x8, addend: 0x0, symName: __RNvXsF_NtCs3cP53eQoTwO_11proc_macro23impNtB5_5IdentNtNtCsfvfooZQ3Axs_4core5clone5Clone5cloneCsjDl19lsdQYR_15datasize_derive, symObjAddr: 0x2C3C, symBinAddr: 0xD048, symSize: 0x9C }
  - { offset: 0x35241, size: 0x8, addend: 0x0, symName: __RNvXsz_NtCs3cP53eQoTwO_11proc_macro23impNtB5_11TokenStreamNtNtCsfvfooZQ3Axs_4core5clone5Clone5cloneCsjDl19lsdQYR_15datasize_derive, symObjAddr: 0x3990, symBinAddr: 0xDD9C, symSize: 0x98 }
  - { offset: 0x353C2, size: 0x8, addend: 0x0, symName: __RNvXs1_NtCs3cP53eQoTwO_11proc_macro26markerNtB5_19ProcMacroAutoTraitsNtNtCsfvfooZQ3Axs_4core5clone5Clone5cloneCsjDl19lsdQYR_15datasize_derive, symObjAddr: 0x2A10, symBinAddr: 0xCE1C, symSize: 0x10 }
  - { offset: 0x356EE, size: 0x8, addend: 0x0, symName: __RINvMs0_NtNtNtNtCscOYdFFY2T5N_3std3sys12thread_local6native4lazyINtB6_7StorageINtNtCsfvfooZQ3Axs_4core4cell4CellTyyEEzE10initializeNvNvNvMNtNtBe_4hash6randomNtB2c_11RandomState3new4KEYS6___initECsjDl19lsdQYR_15datasize_derive, symObjAddr: 0x0, symBinAddr: 0x155BA0, symSize: 0x264 }
  - { offset: 0x35942, size: 0x8, addend: 0x0, symName: __RINvMs0_NtNtNtNtCscOYdFFY2T5N_3std3sys12thread_local6native4lazyINtB6_7StorageINtNtCsfvfooZQ3Axs_4core4cell4CellTyyEEzE11get_or_initNvNvNvMNtNtBe_4hash6randomNtB2d_11RandomState3new4KEYS6___initECsjDl19lsdQYR_15datasize_derive, symObjAddr: 0x264, symBinAddr: 0xA670, symSize: 0xC4 }
  - { offset: 0x35AB6, size: 0x8, addend: 0x0, symName: __RINvMs3_NtNtCs9i5KxIbZ5ph_10proc_macro6bridge6bufferNtB6_6Buffer17extend_from_arrayKj4_ECsjDl19lsdQYR_15datasize_derive, symObjAddr: 0x328, symBinAddr: 0xA734, symSize: 0x16C }
  - { offset: 0x35C7C, size: 0x8, addend: 0x0, symName: __RINvMs3_NtNtCs9i5KxIbZ5ph_10proc_macro6bridge6bufferNtB6_6Buffer17extend_from_arrayKj8_ECsjDl19lsdQYR_15datasize_derive, symObjAddr: 0x494, symBinAddr: 0xA8A0, symSize: 0x16C }
  - { offset: 0x35E20, size: 0x8, addend: 0x0, symName: __RINvNtCs5AlOhPCr03V_3syn17parse_macro_input5parseNtNtB4_6derive11DeriveInputECsjDl19lsdQYR_15datasize_derive, symObjAddr: 0x600, symBinAddr: 0xAA0C, symSize: 0x30 }
  - { offset: 0x35E5A, size: 0x8, addend: 0x0, symName: __RNvXNtCs5AlOhPCr03V_3syn17parse_macro_inputNtNtB4_6derive11DeriveInputNtB2_15ParseMacroInput5parseCsjDl19lsdQYR_15datasize_derive, symObjAddr: 0x2700, symBinAddr: 0xCB0C, symSize: 0x34 }
  - { offset: 0x3AC3F, size: 0x8, addend: 0x0, symName: __RNvXs0_NtCs5AlOhPCr03V_3syn5dropsINtB5_6NoDropDINtNtB7_10punctuated9IterTraitNtNtB7_2ty4TypeEp4ItemRB1d_EL_ENtNtNtCsfvfooZQ3Axs_4core3ops5deref8DerefMut9deref_mutCsjDl19lsdQYR_15datasize_derive, symObjAddr: 0x27DC, symBinAddr: 0xCBE8, symSize: 0x3C }
  - { offset: 0x3AC74, size: 0x8, addend: 0x0, symName: __RNvXs0_NtCs5AlOhPCr03V_3syn5dropsINtB5_6NoDropDINtNtB7_10punctuated9IterTraitNtNtB7_2ty9BareFnArgEp4ItemRB1d_EL_ENtNtNtCsfvfooZQ3Axs_4core3ops5deref8DerefMut9deref_mutCsjDl19lsdQYR_15datasize_derive, symObjAddr: 0x2818, symBinAddr: 0xCC24, symSize: 0x3C }
  - { offset: 0x3ACA9, size: 0x8, addend: 0x0, symName: __RNvXs0_NtCs5AlOhPCr03V_3syn5dropsINtB5_6NoDropDINtNtB7_10punctuated9IterTraitNtNtB7_4data5FieldEp4ItemRB1d_EL_ENtNtNtCsfvfooZQ3Axs_4core3ops5deref8DerefMut9deref_mutCsjDl19lsdQYR_15datasize_derive, symObjAddr: 0x2854, symBinAddr: 0xCC60, symSize: 0x3C }
  - { offset: 0x3ACDE, size: 0x8, addend: 0x0, symName: __RNvXs0_NtCs5AlOhPCr03V_3syn5dropsINtB5_6NoDropDINtNtB7_10punctuated9IterTraitNtNtB7_4path15GenericArgumentEp4ItemRB1d_EL_ENtNtNtCsfvfooZQ3Axs_4core3ops5deref8DerefMut9deref_mutCsjDl19lsdQYR_15datasize_derive, symObjAddr: 0x2890, symBinAddr: 0xCC9C, symSize: 0x3C }
  - { offset: 0x3AD19, size: 0x8, addend: 0x0, symName: __RNvXs_NtCs5AlOhPCr03V_3syn5dropsINtB4_6NoDropDINtNtB6_10punctuated9IterTraitNtNtB6_8generics12GenericParamEp4ItemRB1c_EL_ENtNtNtCsfvfooZQ3Axs_4core3ops5deref5Deref5derefCsjDl19lsdQYR_15datasize_derive, symObjAddr: 0x2D3C, symBinAddr: 0xD148, symSize: 0x3C }
  - { offset: 0x3ADF0, size: 0x8, addend: 0x0, symName: __RNvXsf_NtCs5AlOhPCr03V_3syn5parseNvYNtNtB7_6derive11DeriveInputNtNtB7_17parse_macro_input15ParseMacroInput5parseNtB5_6Parser6parse2CsjDl19lsdQYR_15datasize_derive, symObjAddr: 0x31FC, symBinAddr: 0xD608, symSize: 0x358 }
  - { offset: 0x3AEF6, size: 0x8, addend: 0x0, symName: __RNvYNvYNtNtCs5AlOhPCr03V_3syn6derive11DeriveInputNtNtB9_17parse_macro_input15ParseMacroInput5parseNtNtB9_5parse6Parser5parseCsjDl19lsdQYR_15datasize_derive, symObjAddr: 0x3A28, symBinAddr: 0xDE34, symSize: 0x88 }
  - { offset: 0x3BC65, size: 0x8, addend: 0x0, symName: __RNvNtCse1nGBsou5OW_5alloc5alloc12alloc_zeroedCsjDl19lsdQYR_15datasize_derive, symObjAddr: 0x1C1C, symBinAddr: 0xC028, symSize: 0x84 }
  - { offset: 0x3BD29, size: 0x8, addend: 0x0, symName: __RNvXs_NtCse1nGBsou5OW_5alloc5allocNtB4_6GlobalNtNtCsfvfooZQ3Axs_4core5alloc9Allocator10deallocateCsjDl19lsdQYR_15datasize_derive, symObjAddr: 0x2D78, symBinAddr: 0xD184, symSize: 0x88 }
  - { offset: 0x3BE04, size: 0x8, addend: 0x0, symName: __RNvXs_NtCse1nGBsou5OW_5alloc5allocNtB4_6GlobalNtNtCsfvfooZQ3Axs_4core5alloc9Allocator8allocateCsjDl19lsdQYR_15datasize_derive, symObjAddr: 0x2E00, symBinAddr: 0xD20C, symSize: 0x34 }
  - { offset: 0x3BE3F, size: 0x8, addend: 0x0, symName: __RNvNtCse1nGBsou5OW_5alloc5alloc15exchange_mallocCsjDl19lsdQYR_15datasize_derive, symObjAddr: 0x1CA0, symBinAddr: 0xC0AC, symSize: 0xA4 }
  - { offset: 0x3BED6, size: 0x8, addend: 0x0, symName: __RNvNtCse1nGBsou5OW_5alloc5alloc5allocCsjDl19lsdQYR_15datasize_derive, symObjAddr: 0x1D44, symBinAddr: 0xC150, symSize: 0x84 }
  - { offset: 0x3BF72, size: 0x8, addend: 0x0, symName: __RNvXs2_NtCse1nGBsou5OW_5alloc5allocNtB5_6GlobalNtNtCsfvfooZQ3Axs_4core7default7Default7defaultCsjDl19lsdQYR_15datasize_derive, symObjAddr: 0x2A98, symBinAddr: 0xCEA4, symSize: 0x4 }
  - { offset: 0x3D060, size: 0x8, addend: 0x0, symName: __RNvMNtCs5AlOhPCr03V_3syn5dropsINtB2_6NoDropINtNtB4_10punctuated11PrivateIterNtNtB4_2ty4TypeNtNtB4_5token5CommaEE3newCsjDl19lsdQYR_15datasize_derive, symObjAddr: 0x1398, symBinAddr: 0xB7A4, symSize: 0x40 }
  - { offset: 0x3D0EA, size: 0x8, addend: 0x0, symName: __RNvMNtCs5AlOhPCr03V_3syn5dropsINtB2_6NoDropINtNtB4_10punctuated11PrivateIterNtNtB4_2ty9BareFnArgNtNtB4_5token5CommaEE3newCsjDl19lsdQYR_15datasize_derive, symObjAddr: 0x13D8, symBinAddr: 0xB7E4, symSize: 0x40 }
  - { offset: 0x3D174, size: 0x8, addend: 0x0, symName: __RNvMNtCs5AlOhPCr03V_3syn5dropsINtB2_6NoDropINtNtB4_10punctuated11PrivateIterNtNtB4_4path15GenericArgumentNtNtB4_5token5CommaEE3newCsjDl19lsdQYR_15datasize_derive, symObjAddr: 0x1418, symBinAddr: 0xB824, symSize: 0x40 }
  - { offset: 0x3D30C, size: 0x8, addend: 0x0, symName: __RNvMNtCse1nGBsou5OW_5alloc5allocNtB2_6Global10alloc_implCsjDl19lsdQYR_15datasize_derive, symObjAddr: 0x1458, symBinAddr: 0xB864, symSize: 0x194 }
  - { offset: 0x3D619, size: 0x8, addend: 0x0, symName: __RNvMNtNtNtCsfvfooZQ3Axs_4core4iter8adapters7step_byINtB2_6StepByINtNtNtB8_3ops5range5RangejEE3newCsjDl19lsdQYR_15datasize_derive, symObjAddr: 0x15EC, symBinAddr: 0xB9F8, symSize: 0xE0 }
  - { offset: 0x3D6A5, size: 0x8, addend: 0x0, symName: __RNvMs1_NtNtCsfvfooZQ3Axs_4core3ptr8non_nullINtB5_7NonNullNtNtCs5AlOhPCr03V_3syn4data5FieldE7sub_ptrCsjDl19lsdQYR_15datasize_derive, symObjAddr: 0x16CC, symBinAddr: 0xBAD8, symSize: 0x74 }
  - { offset: 0x3D79E, size: 0x8, addend: 0x0, symName: __RNvMs1_NtNtCsfvfooZQ3Axs_4core3ptr8non_nullINtB5_7NonNullNtNtCs5AlOhPCr03V_3syn4data7VariantE7sub_ptrCsjDl19lsdQYR_15datasize_derive, symObjAddr: 0x1740, symBinAddr: 0xBB4C, symSize: 0x74 }
  - { offset: 0x3D897, size: 0x8, addend: 0x0, symName: __RNvMs1_NtNtCsfvfooZQ3Axs_4core3ptr8non_nullINtB5_7NonNullTNtNtCs5AlOhPCr03V_3syn2ty4TypeNtNtBY_5token5CommaEE7sub_ptrCsjDl19lsdQYR_15datasize_derive, symObjAddr: 0x17B4, symBinAddr: 0xBBC0, symSize: 0x74 }
  - { offset: 0x3D990, size: 0x8, addend: 0x0, symName: __RNvMs1_NtNtCsfvfooZQ3Axs_4core3ptr8non_nullINtB5_7NonNullTNtNtCs5AlOhPCr03V_3syn2ty9BareFnArgNtNtBY_5token5CommaEE7sub_ptrCsjDl19lsdQYR_15datasize_derive, symObjAddr: 0x1828, symBinAddr: 0xBC34, symSize: 0x74 }
  - { offset: 0x3DA96, size: 0x8, addend: 0x0, symName: __RNvMs1_NtNtCsfvfooZQ3Axs_4core3ptr8non_nullINtB5_7NonNullTNtNtCs5AlOhPCr03V_3syn4data7VariantNtNtBY_5token5CommaEE7sub_ptrCsjDl19lsdQYR_15datasize_derive, symObjAddr: 0x189C, symBinAddr: 0xBCA8, symSize: 0x74 }
  - { offset: 0x3DB8F, size: 0x8, addend: 0x0, symName: __RNvMs1_NtNtCsfvfooZQ3Axs_4core3ptr8non_nullINtB5_7NonNullTNtNtCs5AlOhPCr03V_3syn4path15GenericArgumentNtNtBY_5token5CommaEE7sub_ptrCsjDl19lsdQYR_15datasize_derive, symObjAddr: 0x1910, symBinAddr: 0xBD1C, symSize: 0x74 }
  - { offset: 0x3DC71, size: 0x8, addend: 0x0, symName: __RNvMs3_NtNtCs9i5KxIbZ5ph_10proc_macro6bridge6bufferNtB5_6Buffer17extend_from_sliceCsjDl19lsdQYR_15datasize_derive, symObjAddr: 0x1984, symBinAddr: 0xBD90, symSize: 0x164 }
  - { offset: 0x3DE2D, size: 0x8, addend: 0x0, symName: __RNvMs3_NtNtCs9i5KxIbZ5ph_10proc_macro6bridge6bufferNtB5_6Buffer4pushCsjDl19lsdQYR_15datasize_derive, symObjAddr: 0x1AE8, symBinAddr: 0xBEF4, symSize: 0x134 }
  - { offset: 0x3E833, size: 0x8, addend: 0x0, symName: __RINvMNtCs5AlOhPCr03V_3syn4attrNtB3_9Attribute10parse_argsNtCsjDl19lsdQYR_15datasize_derive13DataAttributeEBV_, symObjAddr: 0x0, symBinAddr: 0xDF10, symSize: 0x34 }
  - { offset: 0x3EC04, size: 0x8, addend: 0x0, symName: __RNvXs7_NtNtCs9i5KxIbZ5ph_10proc_macro6bridge3rpcINtNtNtCsfvfooZQ3Axs_4core3num7nonzero7NonZeromEINtB5_9DecodeMutuE6decodeCsjDl19lsdQYR_15datasize_derive, symObjAddr: 0x2208, symBinAddr: 0x10070, symSize: 0x5C }
  - { offset: 0x3FF71, size: 0x8, addend: 0x0, symName: __RINvNtCsfvfooZQ3Axs_4core3ptr13drop_in_placeINtNtB4_4cell10UnsafeCellNtNtNtCs9i5KxIbZ5ph_10proc_macro6bridge6client6BridgeEECsjDl19lsdQYR_15datasize_derive, symObjAddr: 0x440, symBinAddr: 0xE308, symSize: 0x24 }
  - { offset: 0x3FFA0, size: 0x8, addend: 0x0, symName: __RINvNtCsfvfooZQ3Axs_4core3ptr13drop_in_placeINtNtB4_4cell7RefCellNtNtNtCs9i5KxIbZ5ph_10proc_macro6bridge6client6BridgeEECsjDl19lsdQYR_15datasize_derive, symObjAddr: 0x464, symBinAddr: 0xE32C, symSize: 0x24 }
  - { offset: 0x3FFCF, size: 0x8, addend: 0x0, symName: __RINvNtCsfvfooZQ3Axs_4core3ptr13drop_in_placeINtNtB4_6option4ItemNtNtCs5AlOhPCr03V_3syn4data7VariantEECsjDl19lsdQYR_15datasize_derive, symObjAddr: 0x488, symBinAddr: 0xE350, symSize: 0x24 }
  - { offset: 0x3FFFE, size: 0x8, addend: 0x0, symName: __RINvNtCsfvfooZQ3Axs_4core3ptr13drop_in_placeINtNtB4_6option6OptionNtNtCs5AlOhPCr03V_3syn4data7VariantEECsjDl19lsdQYR_15datasize_derive, symObjAddr: 0x4AC, symBinAddr: 0xE374, symSize: 0x44 }
  - { offset: 0x4002D, size: 0x8, addend: 0x0, symName: __RINvNtCsfvfooZQ3Axs_4core3ptr13drop_in_placeINtNtB4_6option6OptionNtNtCs5AlOhPCr03V_3syn4path4PathEECsjDl19lsdQYR_15datasize_derive, symObjAddr: 0x4F0, symBinAddr: 0xE3B8, symSize: 0x48 }
  - { offset: 0x4005C, size: 0x8, addend: 0x0, symName: __RINvNtCsfvfooZQ3Axs_4core3ptr13drop_in_placeINtNtB4_6option8IntoIterNtNtCs5AlOhPCr03V_3syn4data7VariantEECsjDl19lsdQYR_15datasize_derive, symObjAddr: 0x538, symBinAddr: 0xE400, symSize: 0x24 }
  - { offset: 0x4008B, size: 0x8, addend: 0x0, symName: __RINvNtCsfvfooZQ3Axs_4core3ptr13drop_in_placeINtNtCs5AlOhPCr03V_3syn10punctuated4IterNtNtBL_2ty4TypeEECsjDl19lsdQYR_15datasize_derive, symObjAddr: 0x58C, symBinAddr: 0xE424, symSize: 0x24 }
  - { offset: 0x400BA, size: 0x8, addend: 0x0, symName: __RINvNtCsfvfooZQ3Axs_4core3ptr13drop_in_placeINtNtCs5AlOhPCr03V_3syn10punctuated4IterNtNtBL_2ty9BareFnArgEECsjDl19lsdQYR_15datasize_derive, symObjAddr: 0x5B0, symBinAddr: 0xE448, symSize: 0x24 }
  - { offset: 0x400E9, size: 0x8, addend: 0x0, symName: __RINvNtCsfvfooZQ3Axs_4core3ptr13drop_in_placeINtNtCs5AlOhPCr03V_3syn10punctuated4IterNtNtBL_4data5FieldEECsjDl19lsdQYR_15datasize_derive, symObjAddr: 0x5D4, symBinAddr: 0xE46C, symSize: 0x24 }
  - { offset: 0x40118, size: 0x8, addend: 0x0, symName: __RINvNtCsfvfooZQ3Axs_4core3ptr13drop_in_placeINtNtCs5AlOhPCr03V_3syn10punctuated4IterNtNtBL_4path15GenericArgumentEECsjDl19lsdQYR_15datasize_derive, symObjAddr: 0x5F8, symBinAddr: 0xE490, symSize: 0x24 }
  - { offset: 0x40147, size: 0x8, addend: 0x0, symName: __RINvNtCsfvfooZQ3Axs_4core3ptr13drop_in_placeINtNtCs5AlOhPCr03V_3syn10punctuated4IterNtNtBL_8generics12GenericParamEECsjDl19lsdQYR_15datasize_derive, symObjAddr: 0x61C, symBinAddr: 0xE4B4, symSize: 0x24 }
  - { offset: 0x40176, size: 0x8, addend: 0x0, symName: __RINvNtCsfvfooZQ3Axs_4core3ptr13drop_in_placeINtNtCs5AlOhPCr03V_3syn10punctuated7IterMutNtNtBL_8generics12GenericParamEECsjDl19lsdQYR_15datasize_derive, symObjAddr: 0x640, symBinAddr: 0xE4D8, symSize: 0x24 }
  - { offset: 0x401A5, size: 0x8, addend: 0x0, symName: __RINvNtCsfvfooZQ3Axs_4core3ptr13drop_in_placeINtNtCs5AlOhPCr03V_3syn10punctuated8IntoIterNtNtBL_4data5FieldEECsjDl19lsdQYR_15datasize_derive, symObjAddr: 0x664, symBinAddr: 0xE4FC, symSize: 0x24 }
  - { offset: 0x401D4, size: 0x8, addend: 0x0, symName: __RINvNtCsfvfooZQ3Axs_4core3ptr13drop_in_placeINtNtCs5AlOhPCr03V_3syn10punctuated8IntoIterNtNtBL_4data7VariantEECsjDl19lsdQYR_15datasize_derive, symObjAddr: 0x688, symBinAddr: 0xE520, symSize: 0x24 }
  - { offset: 0x40203, size: 0x8, addend: 0x0, symName: __RINvNtCsfvfooZQ3Axs_4core3ptr13drop_in_placeINtNtCse1nGBsou5OW_5alloc3vec3VecNtNtCs5AlOhPCr03V_3syn4data7VariantEECsjDl19lsdQYR_15datasize_derive, symObjAddr: 0x6AC, symBinAddr: 0xE544, symSize: 0x5C }
  - { offset: 0x40232, size: 0x8, addend: 0x0, symName: __RINvNtCsfvfooZQ3Axs_4core3ptr13drop_in_placeINtNtCse1nGBsou5OW_5alloc5boxed3BoxDNtNtB4_5error5ErrorNtNtB4_6marker4SendNtB1B_4SyncEL_EECsjDl19lsdQYR_15datasize_derive, symObjAddr: 0x708, symBinAddr: 0xE5A0, symSize: 0x80 }
  - { offset: 0x40261, size: 0x8, addend: 0x0, symName: __RINvNtCsfvfooZQ3Axs_4core3ptr13drop_in_placeINtNtCse1nGBsou5OW_5alloc5boxed3BoxINtNtCs5AlOhPCr03V_3syn5drops6NoDropDINtNtB1k_10punctuated12IterMutTraitNtNtB1k_8generics12GenericParamEp4ItemQB2p_EL_EEECsjDl19lsdQYR_15datasize_derive, symObjAddr: 0x788, symBinAddr: 0xE620, symSize: 0x2C }
  - { offset: 0x40290, size: 0x8, addend: 0x0, symName: __RINvNtCsfvfooZQ3Axs_4core3ptr13drop_in_placeINtNtCse1nGBsou5OW_5alloc5boxed3BoxINtNtCs5AlOhPCr03V_3syn5drops6NoDropDINtNtB1k_10punctuated9IterTraitNtNtB1k_2ty4TypeEp4ItemRB2l_EL_EEECsjDl19lsdQYR_15datasize_derive, symObjAddr: 0x7B4, symBinAddr: 0xE64C, symSize: 0x2C }
  - { offset: 0x402BF, size: 0x8, addend: 0x0, symName: __RINvNtCsfvfooZQ3Axs_4core3ptr13drop_in_placeINtNtCse1nGBsou5OW_5alloc5boxed3BoxINtNtCs5AlOhPCr03V_3syn5drops6NoDropDINtNtB1k_10punctuated9IterTraitNtNtB1k_2ty9BareFnArgEp4ItemRB2l_EL_EEECsjDl19lsdQYR_15datasize_derive, symObjAddr: 0x7E0, symBinAddr: 0xE678, symSize: 0x2C }
  - { offset: 0x402EE, size: 0x8, addend: 0x0, symName: __RINvNtCsfvfooZQ3Axs_4core3ptr13drop_in_placeINtNtCse1nGBsou5OW_5alloc5boxed3BoxINtNtCs5AlOhPCr03V_3syn5drops6NoDropDINtNtB1k_10punctuated9IterTraitNtNtB1k_4data5FieldEp4ItemRB2l_EL_EEECsjDl19lsdQYR_15datasize_derive, symObjAddr: 0x80C, symBinAddr: 0xE6A4, symSize: 0x2C }
  - { offset: 0x4031D, size: 0x8, addend: 0x0, symName: __RINvNtCsfvfooZQ3Axs_4core3ptr13drop_in_placeINtNtCse1nGBsou5OW_5alloc5boxed3BoxINtNtCs5AlOhPCr03V_3syn5drops6NoDropDINtNtB1k_10punctuated9IterTraitNtNtB1k_4path15GenericArgumentEp4ItemRB2l_EL_EEECsjDl19lsdQYR_15datasize_derive, symObjAddr: 0x838, symBinAddr: 0xE6D0, symSize: 0x2C }
  - { offset: 0x4034C, size: 0x8, addend: 0x0, symName: __RINvNtCsfvfooZQ3Axs_4core3ptr13drop_in_placeINtNtCse1nGBsou5OW_5alloc5boxed3BoxINtNtCs5AlOhPCr03V_3syn5drops6NoDropDINtNtB1k_10punctuated9IterTraitNtNtB1k_8generics12GenericParamEp4ItemRB2l_EL_EEECsjDl19lsdQYR_15datasize_derive, symObjAddr: 0x864, symBinAddr: 0xE6FC, symSize: 0x2C }
  - { offset: 0x4037B, size: 0x8, addend: 0x0, symName: __RINvNtCsfvfooZQ3Axs_4core3ptr13drop_in_placeINtNtCse1nGBsou5OW_5alloc5boxed3BoxNtNtNtCscOYdFFY2T5N_3std2io5error6CustomEECsjDl19lsdQYR_15datasize_derive, symObjAddr: 0x890, symBinAddr: 0xE728, symSize: 0x60 }
  - { offset: 0x403AA, size: 0x8, addend: 0x0, symName: __RINvNtCsfvfooZQ3Axs_4core3ptr13drop_in_placeINtNtCse1nGBsou5OW_5alloc7raw_vec6RawVecNtNtCs5AlOhPCr03V_3syn4data7VariantEECsjDl19lsdQYR_15datasize_derive, symObjAddr: 0x8F0, symBinAddr: 0xE788, symSize: 0x24 }
  - { offset: 0x403D9, size: 0x8, addend: 0x0, symName: __RINvNtCsfvfooZQ3Axs_4core3ptr13drop_in_placeINtNtCsloNvcHxBCre_9hashbrown10scopeguard10ScopeGuardNtNtBL_3raw13RawTableInnerNCINvMsa_B1z_B1x_14prepare_resizeNtNtCse1nGBsou5OW_5alloc5alloc6GlobalE0EECsjDl19lsdQYR_15datasize_derive, symObjAddr: 0x914, symBinAddr: 0xE7AC, symSize: 0x24 }
  - { offset: 0x40408, size: 0x8, addend: 0x0, symName: __RINvNtCsfvfooZQ3Axs_4core3ptr13drop_in_placeINtNtCsloNvcHxBCre_9hashbrown10scopeguard10ScopeGuardQNtNtBL_3raw13RawTableInnerNCNvMsa_B1A_B1y_15rehash_in_place0EECsjDl19lsdQYR_15datasize_derive, symObjAddr: 0x938, symBinAddr: 0xE7D0, symSize: 0x24 }
  - { offset: 0x40437, size: 0x8, addend: 0x0, symName: __RINvNtCsfvfooZQ3Axs_4core3ptr13drop_in_placeINtNtCsloNvcHxBCre_9hashbrown3map7HashMapNtCs3cP53eQoTwO_11proc_macro25IdentuNtNtNtCscOYdFFY2T5N_3std4hash6random11RandomStateEECsjDl19lsdQYR_15datasize_derive, symObjAddr: 0x95C, symBinAddr: 0xE7F4, symSize: 0x24 }
  - { offset: 0x40466, size: 0x8, addend: 0x0, symName: __RINvNtCsfvfooZQ3Axs_4core3ptr13drop_in_placeINtNtCsloNvcHxBCre_9hashbrown3raw8RawTableTNtCs3cP53eQoTwO_11proc_macro25IdentuEEECsjDl19lsdQYR_15datasize_derive, symObjAddr: 0x980, symBinAddr: 0xE818, symSize: 0x24 }
  - { offset: 0x40495, size: 0x8, addend: 0x0, symName: __RINvNtCsfvfooZQ3Axs_4core3ptr13drop_in_placeINtNtCsloNvcHxBCre_9hashbrown3set7HashSetNtCs3cP53eQoTwO_11proc_macro25IdentNtNtNtCscOYdFFY2T5N_3std4hash6random11RandomStateEECsjDl19lsdQYR_15datasize_derive, symObjAddr: 0x9A4, symBinAddr: 0xE83C, symSize: 0x24 }
  - { offset: 0x404C4, size: 0x8, addend: 0x0, symName: __RINvNtCsfvfooZQ3Axs_4core3ptr13drop_in_placeINtNtNtCscOYdFFY2T5N_3std2io5error9ErrorDataINtNtCse1nGBsou5OW_5alloc5boxed3BoxNtBJ_6CustomEEECsjDl19lsdQYR_15datasize_derive, symObjAddr: 0x9C8, symBinAddr: 0xE860, symSize: 0x48 }
  - { offset: 0x404F3, size: 0x8, addend: 0x0, symName: __RINvNtCsfvfooZQ3Axs_4core3ptr13drop_in_placeINtNtNtCse1nGBsou5OW_5alloc3vec9into_iter8IntoIterNtNtCs5AlOhPCr03V_3syn4data5FieldEECsjDl19lsdQYR_15datasize_derive, symObjAddr: 0xA10, symBinAddr: 0xE8A8, symSize: 0x24 }
  - { offset: 0x40522, size: 0x8, addend: 0x0, symName: __RINvNtCsfvfooZQ3Axs_4core3ptr13drop_in_placeINtNtNtCse1nGBsou5OW_5alloc3vec9into_iter8IntoIterNtNtCs5AlOhPCr03V_3syn4data7VariantEECsjDl19lsdQYR_15datasize_derive, symObjAddr: 0xA34, symBinAddr: 0xE8CC, symSize: 0x24 }
  - { offset: 0x40551, size: 0x8, addend: 0x0, symName: __RINvNtCsfvfooZQ3Axs_4core3ptr13drop_in_placeINtNtNtCse1nGBsou5OW_5alloc3vec9into_iter8IntoIterTNtNtCs5AlOhPCr03V_3syn4data7VariantNtNtB1z_5token5CommaEEECsjDl19lsdQYR_15datasize_derive, symObjAddr: 0xA58, symBinAddr: 0xE8F0, symSize: 0x24 }
  - { offset: 0x40580, size: 0x8, addend: 0x0, symName: __RINvNtCsfvfooZQ3Axs_4core3ptr13drop_in_placeINtNtNtNtB4_4iter8adapters10filter_map9FilterMapINtNtCs5AlOhPCr03V_3syn10punctuated4IterNtNtB1x_8generics12GenericParamENCNvCsjDl19lsdQYR_15datasize_derive21path_contains_generics_0EEB2G_, symObjAddr: 0xA7C, symBinAddr: 0xE914, symSize: 0x24 }
  - { offset: 0x405AF, size: 0x8, addend: 0x0, symName: __RINvNtCsfvfooZQ3Axs_4core3ptr13drop_in_placeINtNtNtNtB4_4iter8adapters3map3MapINtNtBL_10filter_map9FilterMapINtNtCs5AlOhPCr03V_3syn10punctuated4IterNtNtB1N_8generics12GenericParamENCNvCsjDl19lsdQYR_15datasize_derive21path_contains_generics_0ENCINvXs8_NtCsloNvcHxBCre_9hashbrown3setINtB41_7HashSetNtCs3cP53eQoTwO_11proc_macro25IdentNtNtNtCscOYdFFY2T5N_3std4hash6random11RandomStateEINtNtNtBN_6traits7collect6ExtendB4K_E6extendB1e_E0EEB2W_, symObjAddr: 0xAA0, symBinAddr: 0xE938, symSize: 0x24 }
  - { offset: 0x405DE, size: 0x8, addend: 0x0, symName: __RINvNtCsfvfooZQ3Axs_4core3ptr13drop_in_placeINtNtNtNtB4_4iter8adapters3map3MapINtNtNtCse1nGBsou5OW_5alloc3vec9into_iter8IntoIterTNtNtCs5AlOhPCr03V_3syn4data7VariantNtNtB27_5token5CommaEENCNvXs8_NtB27_10punctuatedINtB36_10PunctuatedB23_B2C_ENtNtNtBN_6traits7collect12IntoIterator9into_iter0EECsjDl19lsdQYR_15datasize_derive, symObjAddr: 0xAC4, symBinAddr: 0xE95C, symSize: 0x24 }
  - { offset: 0x4060D, size: 0x8, addend: 0x0, symName: __RINvNtCsfvfooZQ3Axs_4core3ptr13drop_in_placeINtNtNtNtB4_4iter8adapters9enumerate9EnumerateINtNtCs5AlOhPCr03V_3syn10punctuated4IterNtNtB1v_4data5FieldEEECsjDl19lsdQYR_15datasize_derive, symObjAddr: 0xAE8, symBinAddr: 0xE980, symSize: 0x24 }
  - { offset: 0x4063C, size: 0x8, addend: 0x0, symName: __RINvNtCsfvfooZQ3Axs_4core3ptr13drop_in_placeINtNtNtNtB4_4iter8adapters9enumerate9EnumerateINtNtCs5AlOhPCr03V_3syn10punctuated8IntoIterNtNtB1v_4data5FieldEEECsjDl19lsdQYR_15datasize_derive, symObjAddr: 0xB0C, symBinAddr: 0xE9A4, symSize: 0x24 }
  - { offset: 0x4066B, size: 0x8, addend: 0x0, symName: __RINvNtCsfvfooZQ3Axs_4core3ptr13drop_in_placeINtNtNtNtCscOYdFFY2T5N_3std11collections4hash3set7HashSetNtCs3cP53eQoTwO_11proc_macro25IdentEECsjDl19lsdQYR_15datasize_derive, symObjAddr: 0xB30, symBinAddr: 0xE9C8, symSize: 0x24 }
  - { offset: 0x4069A, size: 0x8, addend: 0x0, symName: __RINvNtCsfvfooZQ3Axs_4core3ptr13drop_in_placeINtNvXsd_NtNtCse1nGBsou5OW_5alloc3vec9into_iterINtBP_8IntoIterppENtNtNtB4_3ops4drop4Drop4drop9DropGuardNtNtCs5AlOhPCr03V_3syn4data5FieldNtNtBT_5alloc6GlobalEECsjDl19lsdQYR_15datasize_derive, symObjAddr: 0xB54, symBinAddr: 0xE9EC, symSize: 0x24 }
  - { offset: 0x406C9, size: 0x8, addend: 0x0, symName: __RINvNtCsfvfooZQ3Axs_4core3ptr13drop_in_placeINtNvXsd_NtNtCse1nGBsou5OW_5alloc3vec9into_iterINtBP_8IntoIterppENtNtNtB4_3ops4drop4Drop4drop9DropGuardNtNtCs5AlOhPCr03V_3syn4data7VariantNtNtBT_5alloc6GlobalEECsjDl19lsdQYR_15datasize_derive, symObjAddr: 0xB78, symBinAddr: 0xEA10, symSize: 0x24 }
  - { offset: 0x406F8, size: 0x8, addend: 0x0, symName: __RINvNtCsfvfooZQ3Axs_4core3ptr13drop_in_placeINtNvXsd_NtNtCse1nGBsou5OW_5alloc3vec9into_iterINtBP_8IntoIterppENtNtNtB4_3ops4drop4Drop4drop9DropGuardTNtNtCs5AlOhPCr03V_3syn4data7VariantNtNtB2q_5token5CommaENtNtBT_5alloc6GlobalEECsjDl19lsdQYR_15datasize_derive, symObjAddr: 0xB9C, symBinAddr: 0xEA34, symSize: 0x24 }
  - { offset: 0x40727, size: 0x8, addend: 0x0, symName: __RINvNtCsfvfooZQ3Axs_4core3ptr13drop_in_placeNCINvMsi_NtCse1nGBsou5OW_5alloc3vecINtBP_3VecNtNtCs5AlOhPCr03V_3syn4data7VariantE14extend_trustedINtNtB4_6option8IntoIterB1p_EE0ECsjDl19lsdQYR_15datasize_derive, symObjAddr: 0xBF0, symBinAddr: 0xEA58, symSize: 0x24 }
  - { offset: 0x40756, size: 0x8, addend: 0x0, symName: __RINvNtCsfvfooZQ3Axs_4core3ptr13drop_in_placeNCINvMsi_NtCse1nGBsou5OW_5alloc3vecINtBP_3VecNtNtCs5AlOhPCr03V_3syn4data7VariantE14extend_trustedINtNtNtNtB4_4iter8adapters3map3MapINtNtBP_9into_iter8IntoIterTB1p_NtNtB1t_5token5CommaEENCNvXs8_NtB1t_10punctuatedINtB3N_10PunctuatedB1p_B3j_ENtNtNtB2m_6traits7collect12IntoIterator9into_iter0EE0ECsjDl19lsdQYR_15datasize_derive, symObjAddr: 0xC14, symBinAddr: 0xEA7C, symSize: 0x24 }
  - { offset: 0x40785, size: 0x8, addend: 0x0, symName: __RINvNtCsfvfooZQ3Axs_4core3ptr13drop_in_placeNCINvNtNtNtB4_4iter8adapters3map8map_foldTNtNtCs5AlOhPCr03V_3syn4data7VariantNtNtB1q_5token5CommaEB1m_uNCNvXs8_NtB1q_10punctuatedINtB2t_10PunctuatedB1m_B1V_ENtNtNtBP_6traits7collect12IntoIterator9into_iter0NCINvNvNtNtB3h_8iterator8Iterator8for_each4callB1m_NCINvMsi_NtCse1nGBsou5OW_5alloc3vecINtB4Y_3VecB1m_E14extend_trustedINtBL_3MapINtNtB4Y_9into_iter8IntoIterB1l_EB2l_EE0E0E0ECsjDl19lsdQYR_15datasize_derive, symObjAddr: 0xC38, symBinAddr: 0xEAA0, symSize: 0x24 }
  - { offset: 0x407B4, size: 0x8, addend: 0x0, symName: __RINvNtCsfvfooZQ3Axs_4core3ptr13drop_in_placeNCINvNvNtNtNtNtB4_4iter6traits8iterator8Iterator8for_each4callNtNtCs5AlOhPCr03V_3syn4data7VariantNCINvMsi_NtCse1nGBsou5OW_5alloc3vecINtB2o_3VecB1G_E14extend_trustedINtNtB4_6option8IntoIterB1G_EE0E0ECsjDl19lsdQYR_15datasize_derive, symObjAddr: 0xC5C, symBinAddr: 0xEAC4, symSize: 0x24 }
  - { offset: 0x407E3, size: 0x8, addend: 0x0, symName: __RINvNtCsfvfooZQ3Axs_4core3ptr13drop_in_placeNCINvNvNtNtNtNtB4_4iter6traits8iterator8Iterator8for_each4callNtNtCs5AlOhPCr03V_3syn4data7VariantNCINvMsi_NtCse1nGBsou5OW_5alloc3vecINtB2o_3VecB1G_E14extend_trustedINtNtNtBT_8adapters3map3MapINtNtB2o_9into_iter8IntoIterTB1G_NtNtB1K_5token5CommaEENCNvXs8_NtB1K_10punctuatedINtB4M_10PunctuatedB1G_B4i_ENtNtBR_7collect12IntoIterator9into_iter0EE0E0ECsjDl19lsdQYR_15datasize_derive, symObjAddr: 0xC80, symBinAddr: 0xEAE8, symSize: 0x24 }
  - { offset: 0x40812, size: 0x8, addend: 0x0, symName: __RINvNtCsfvfooZQ3Axs_4core3ptr13drop_in_placeNCNCINvNtNtCs9i5KxIbZ5ph_10proc_macro6bridge6client10run_clientNtBN_11TokenStreamINtNtB4_6option6OptionB1H_ENCNCINvMs7_BN_INtBN_6ClientNtBR_11TokenStreamB2R_E7expand1NvCsjDl19lsdQYR_15datasize_derive16derive_data_sizeE00E00EB3o_, symObjAddr: 0xCA4, symBinAddr: 0xEB0C, symSize: 0x24 }
  - { offset: 0x40841, size: 0x8, addend: 0x0, symName: __RINvNtCsfvfooZQ3Axs_4core3ptr13drop_in_placeNtCsjDl19lsdQYR_15datasize_derive13DataAttributeEBI_, symObjAddr: 0xCC8, symBinAddr: 0xEB30, symSize: 0x48 }
  - { offset: 0x40870, size: 0x8, addend: 0x0, symName: __RINvNtCsfvfooZQ3Axs_4core3ptr13drop_in_placeNtCsjDl19lsdQYR_15datasize_derive18DataSizeAttributesEBI_, symObjAddr: 0xD10, symBinAddr: 0xEB78, symSize: 0x24 }
  - { offset: 0x4089F, size: 0x8, addend: 0x0, symName: __RINvNtCsfvfooZQ3Axs_4core3ptr13drop_in_placeNtNtCs5AlOhPCr03V_3syn6derive11DeriveInputECsjDl19lsdQYR_15datasize_derive, symObjAddr: 0xD34, symBinAddr: 0xEB9C, symSize: 0xEC }
  - { offset: 0x408CE, size: 0x8, addend: 0x0, symName: __RINvNtCsfvfooZQ3Axs_4core3ptr13drop_in_placeNtNtNtCs9i5KxIbZ5ph_10proc_macro6bridge3rpc12PanicMessageECsjDl19lsdQYR_15datasize_derive, symObjAddr: 0xE20, symBinAddr: 0xEC88, symSize: 0x50 }
  - { offset: 0x408FD, size: 0x8, addend: 0x0, symName: __RINvNtCsfvfooZQ3Axs_4core3ptr13drop_in_placeNtNtNtCs9i5KxIbZ5ph_10proc_macro6bridge6buffer6BufferECsjDl19lsdQYR_15datasize_derive, symObjAddr: 0xE70, symBinAddr: 0xECD8, symSize: 0x24 }
  - { offset: 0x4092C, size: 0x8, addend: 0x0, symName: __RINvNtCsfvfooZQ3Axs_4core3ptr13drop_in_placeNtNtNtCs9i5KxIbZ5ph_10proc_macro6bridge6client6BridgeECsjDl19lsdQYR_15datasize_derive, symObjAddr: 0xE94, symBinAddr: 0xECFC, symSize: 0x24 }
  - { offset: 0x4095B, size: 0x8, addend: 0x0, symName: __RINvNtCsfvfooZQ3Axs_4core3ptr13drop_in_placeNtNtNtCscOYdFFY2T5N_3std2io5error5ErrorECsjDl19lsdQYR_15datasize_derive, symObjAddr: 0xEB8, symBinAddr: 0xED20, symSize: 0x24 }
  - { offset: 0x4098A, size: 0x8, addend: 0x0, symName: __RINvNtCsfvfooZQ3Axs_4core3ptr13drop_in_placeNtNtNtCscOYdFFY2T5N_3std2io5error6CustomECsjDl19lsdQYR_15datasize_derive, symObjAddr: 0xEDC, symBinAddr: 0xED44, symSize: 0x24 }
  - { offset: 0x409B9, size: 0x8, addend: 0x0, symName: __RINvNtCsfvfooZQ3Axs_4core3ptr13drop_in_placeNtNtNtNtCscOYdFFY2T5N_3std2io5error14repr_bitpacked4ReprECsjDl19lsdQYR_15datasize_derive, symObjAddr: 0xF00, symBinAddr: 0xED68, symSize: 0x24 }
  - { offset: 0x409E8, size: 0x8, addend: 0x0, symName: __RINvNtCsfvfooZQ3Axs_4core3ptr13drop_in_placeNtNvNtNtNtCs9i5KxIbZ5ph_10proc_macro6bridge6client5state3set13RestoreOnDropECsjDl19lsdQYR_15datasize_derive, symObjAddr: 0xF24, symBinAddr: 0xED8C, symSize: 0x24 }
  - { offset: 0x40A17, size: 0x8, addend: 0x0, symName: __RINvNtCsfvfooZQ3Axs_4core3ptr13drop_in_placeSNtNtCs5AlOhPCr03V_3syn4data7VariantECsjDl19lsdQYR_15datasize_derive, symObjAddr: 0xF48, symBinAddr: 0xEDB0, symSize: 0xC4 }
  - { offset: 0x40A46, size: 0x8, addend: 0x0, symName: __RINvNtCsfvfooZQ3Axs_4core3ptr13drop_in_placeTNtCs3cP53eQoTwO_11proc_macro25IdentuEECsjDl19lsdQYR_15datasize_derive, symObjAddr: 0x100C, symBinAddr: 0xEE74, symSize: 0x24 }
  - { offset: 0x40E03, size: 0x8, addend: 0x0, symName: __RNvNvMsc_NtNtCsfvfooZQ3Axs_4core3num7nonzeroINtB7_7NonZeropE13new_unchecked18precondition_checkCsjDl19lsdQYR_15datasize_derive, symObjAddr: 0x1C70, symBinAddr: 0xFAD8, symSize: 0x1C }
  - { offset: 0x43B70, size: 0x8, addend: 0x0, symName: __RINvYINtNtNtCse1nGBsou5OW_5alloc3vec9into_iter8IntoIterTNtNtCs5AlOhPCr03V_3syn4data7VariantNtNtBW_5token5CommaEENtNtNtNtCsfvfooZQ3Axs_4core4iter6traits8iterator8Iterator3mapBS_NCNvXs8_NtBW_10punctuatedINtB2W_10PunctuatedBS_B1r_ENtNtB1Q_7collect12IntoIterator9into_iter0ECsjDl19lsdQYR_15datasize_derive, symObjAddr: 0x1360, symBinAddr: 0xF1C8, symSize: 0x1C }
  - { offset: 0x43BDD, size: 0x8, addend: 0x0, symName: __RINvYNtNtCs3cP53eQoTwO_11proc_macro212token_stream8IntoIterNtNtNtNtCsfvfooZQ3Axs_4core4iter6traits8iterator8Iterator4folduNCINvNvBV_8for_each4callNtB7_9TokenTreeNCINvXsa_NtB7_8fallbackNtB2I_11TokenStreamINtNtBZ_7collect6ExtendB2k_E6extendNtB7_11TokenStreamE0E0ECsjDl19lsdQYR_15datasize_derive, symObjAddr: 0x137C, symBinAddr: 0xF1E4, symSize: 0x10C }
  - { offset: 0x43C6E, size: 0x8, addend: 0x0, symName: __RINvYNtNtCs3cP53eQoTwO_11proc_macro212token_stream8IntoIterNtNtNtNtCsfvfooZQ3Axs_4core4iter6traits8iterator8Iterator8for_eachNCINvXsa_NtB7_8fallbackNtB28_11TokenStreamINtNtBZ_7collect6ExtendNtB7_9TokenTreeE6extendNtB7_11TokenStreamE0ECsjDl19lsdQYR_15datasize_derive, symObjAddr: 0x1488, symBinAddr: 0xF2F0, symSize: 0x24 }
  - { offset: 0x43D80, size: 0x8, addend: 0x0, symName: __RNvYINtNtNtCse1nGBsou5OW_5alloc3vec9into_iter8IntoIterNtNtCs5AlOhPCr03V_3syn4data5FieldENtNtNtNtCsfvfooZQ3Axs_4core4iter6traits10exact_size17ExactSizeIterator3lenCsjDl19lsdQYR_15datasize_derive, symObjAddr: 0x2C7C, symBinAddr: 0x10AE4, symSize: 0xF4 }
  - { offset: 0x43E73, size: 0x8, addend: 0x0, symName: __RNvYINtNtNtCse1nGBsou5OW_5alloc3vec9into_iter8IntoIterNtNtCs5AlOhPCr03V_3syn4data7VariantENtNtNtNtCsfvfooZQ3Axs_4core4iter6traits10exact_size17ExactSizeIterator3lenCsjDl19lsdQYR_15datasize_derive, symObjAddr: 0x2D70, symBinAddr: 0x10BD8, symSize: 0xF4 }
  - { offset: 0x43F66, size: 0x8, addend: 0x0, symName: __RNvYINtNtNtCse1nGBsou5OW_5alloc3vec9into_iter8IntoIterTNtNtCs5AlOhPCr03V_3syn4data7VariantNtNtBV_5token5CommaEENtNtNtNtCsfvfooZQ3Axs_4core4iter6traits10exact_size17ExactSizeIterator3lenCsjDl19lsdQYR_15datasize_derive, symObjAddr: 0x2E64, symBinAddr: 0x10CCC, symSize: 0xF4 }
  - { offset: 0x44066, size: 0x8, addend: 0x0, symName: __RNvXsF_NtNtCsfvfooZQ3Axs_4core4iter5rangejNtB5_4Step13steps_betweenCsjDl19lsdQYR_15datasize_derive, symObjAddr: 0x2264, symBinAddr: 0x100CC, symSize: 0xA4 }
  - { offset: 0x440C1, size: 0x8, addend: 0x0, symName: __RNvXsF_NtNtCsfvfooZQ3Axs_4core4iter5rangejNtB5_4Step17forward_uncheckedCsjDl19lsdQYR_15datasize_derive, symObjAddr: 0x2308, symBinAddr: 0x10170, symSize: 0x48 }
  - { offset: 0x44364, size: 0x8, addend: 0x0, symName: __RNvYNtNtCs5AlOhPCr03V_3syn4attr9AttrStyleNtNtCsfvfooZQ3Axs_4core3cmp9PartialEq2neCsjDl19lsdQYR_15datasize_derive, symObjAddr: 0x3140, symBinAddr: 0x10FA8, symSize: 0x30 }
  - { offset: 0x44449, size: 0x8, addend: 0x0, symName: __RINvYNtNtNtCscOYdFFY2T5N_3std4hash6random11RandomStateNtNtCsfvfooZQ3Axs_4core4hash11BuildHasher8hash_oneRNtCs3cP53eQoTwO_11proc_macro25IdentECsjDl19lsdQYR_15datasize_derive, symObjAddr: 0x14AC, symBinAddr: 0xF314, symSize: 0x84 }
  - { offset: 0x44603, size: 0x8, addend: 0x0, symName: __RNSNvYNCINvMs6_NtCsloNvcHxBCre_9hashbrown3rawINtBd_8RawTableTNtCs3cP53eQoTwO_11proc_macro25IdentuEE14reserve_rehashNCINvNtBf_3map11make_hasherBX_uNtNtNtCscOYdFFY2T5N_3std4hash6random11RandomStateE0E0INtNtNtCsfvfooZQ3Axs_4core3ops8function6FnOnceTQNtBd_13RawTableInnerjEE9call_once6vtableCsjDl19lsdQYR_15datasize_derive, symObjAddr: 0x1798, symBinAddr: 0xF600, symSize: 0x38 }
  - { offset: 0x44647, size: 0x8, addend: 0x0, symName: __RNSNvYNCINvMs6_NtCsloNvcHxBCre_9hashbrown3rawINtBd_8RawTableTNtCs3cP53eQoTwO_11proc_macro25IdentuEE24find_or_find_insert_slotNCINvNtBf_3map14equivalent_keyBX_BX_uE0NCINvB24_11make_hasherBX_uNtNtNtCscOYdFFY2T5N_3std4hash6random11RandomStateE0E0INtNtNtCsfvfooZQ3Axs_4core3ops8function6FnOnceTjEE9call_once6vtableCsjDl19lsdQYR_15datasize_derive, symObjAddr: 0x17D0, symBinAddr: 0xF638, symSize: 0x38 }
  - { offset: 0x4468B, size: 0x8, addend: 0x0, symName: __RNSNvYNCINvMs6_NtCsloNvcHxBCre_9hashbrown3rawINtBd_8RawTableTNtCs3cP53eQoTwO_11proc_macro25IdentuEE4findNCINvNtBf_3map14equivalent_keyBX_BX_uE0E0INtNtNtCsfvfooZQ3Axs_4core3ops8function6FnOnceTjEE9call_once6vtableCsjDl19lsdQYR_15datasize_derive, symObjAddr: 0x1808, symBinAddr: 0xF670, symSize: 0x38 }
  - { offset: 0x446CF, size: 0x8, addend: 0x0, symName: __RNvYNCINvMs6_NtCsloNvcHxBCre_9hashbrown3rawINtBb_8RawTableTNtCs3cP53eQoTwO_11proc_macro25IdentuEE14reserve_rehashNCINvNtBd_3map11make_hasherBV_uNtNtNtCscOYdFFY2T5N_3std4hash6random11RandomStateE0E0INtNtNtCsfvfooZQ3Axs_4core3ops8function6FnOnceTQNtBb_13RawTableInnerjEE9call_onceCsjDl19lsdQYR_15datasize_derive, symObjAddr: 0x2F58, symBinAddr: 0x10DC0, symSize: 0x5C }
  - { offset: 0x44713, size: 0x8, addend: 0x0, symName: __RNvYNCINvMs6_NtCsloNvcHxBCre_9hashbrown3rawINtBb_8RawTableTNtCs3cP53eQoTwO_11proc_macro25IdentuEE14reserve_rehashNCINvNtBd_3map11make_hasherBV_uNtNtNtCscOYdFFY2T5N_3std4hash6random11RandomStateE0Es_0INtNtNtCsfvfooZQ3Axs_4core3ops8function6FnOnceTOhEE9call_onceCsjDl19lsdQYR_15datasize_derive, symObjAddr: 0x2FB4, symBinAddr: 0x10E1C, symSize: 0x44 }
  - { offset: 0x44753, size: 0x8, addend: 0x0, symName: __RNvYNCINvMs6_NtCsloNvcHxBCre_9hashbrown3rawINtBb_8RawTableTNtCs3cP53eQoTwO_11proc_macro25IdentuEE24find_or_find_insert_slotNCINvNtBd_3map14equivalent_keyBV_BV_uE0NCINvB22_11make_hasherBV_uNtNtNtCscOYdFFY2T5N_3std4hash6random11RandomStateE0E0INtNtNtCsfvfooZQ3Axs_4core3ops8function6FnOnceTjEE9call_onceCsjDl19lsdQYR_15datasize_derive, symObjAddr: 0x2FF8, symBinAddr: 0x10E60, symSize: 0x58 }
  - { offset: 0x44797, size: 0x8, addend: 0x0, symName: __RNvYNCINvMs6_NtCsloNvcHxBCre_9hashbrown3rawINtBb_8RawTableTNtCs3cP53eQoTwO_11proc_macro25IdentuEE4findNCINvNtBd_3map14equivalent_keyBV_BV_uE0E0INtNtNtCsfvfooZQ3Axs_4core3ops8function6FnOnceTjEE9call_onceCsjDl19lsdQYR_15datasize_derive, symObjAddr: 0x3050, symBinAddr: 0x10EB8, symSize: 0x58 }
  - { offset: 0x447DB, size: 0x8, addend: 0x0, symName: __RNvYNCNkNvNtNtNtCs9i5KxIbZ5ph_10proc_macro6bridge6client5state12BRIDGE_STATE0s_0INtNtNtCsfvfooZQ3Axs_4core3ops8function6FnOnceTINtNtB1n_6option6OptionQIB22_INtNtB1n_4cell4CellPuEEEEE9call_onceCsjDl19lsdQYR_15datasize_derive, symObjAddr: 0x30A8, symBinAddr: 0x10F10, symSize: 0x4C }
  - { offset: 0x4481F, size: 0x8, addend: 0x0, symName: __RNvYNCNkNvNvMNtNtCscOYdFFY2T5N_3std4hash6randomNtBb_11RandomState3new4KEYS0s_0INtNtNtCsfvfooZQ3Axs_4core3ops8function6FnOnceTINtNtB1l_6option6OptionQIB20_INtNtB1l_4cell4CellTyyEEEEEE9call_onceCsjDl19lsdQYR_15datasize_derive, symObjAddr: 0x30F4, symBinAddr: 0x10F5C, symSize: 0x4C }
  - { offset: 0x44863, size: 0x8, addend: 0x0, symName: __RNvYNvMNtCsfvfooZQ3Axs_4core6optionINtB5_6OptionINtNtB7_4cell4CellTyyEEE4takeINtNtNtB7_3ops8function6FnOnceTQBx_EE9call_onceCsjDl19lsdQYR_15datasize_derive, symObjAddr: 0x3198, symBinAddr: 0x11000, symSize: 0x24 }
  - { offset: 0x448A7, size: 0x8, addend: 0x0, symName: __RNvYNvNvNvMNtNtCscOYdFFY2T5N_3std4hash6randomNtB9_11RandomState3new4KEYS6___initINtNtNtCsfvfooZQ3Axs_4core3ops8function6FnOnceuE9call_onceCsjDl19lsdQYR_15datasize_derive, symObjAddr: 0x31BC, symBinAddr: 0x11024, symSize: 0x1C }
  - { offset: 0x448EB, size: 0x8, addend: 0x0, symName: __RNvYNvYNtCsjDl19lsdQYR_15datasize_derive13DataAttributeNtNtCs5AlOhPCr03V_3syn5parse5Parse5parseINtNtNtCsfvfooZQ3Axs_4core3ops8function6FnOnceTRNtBT_11ParseBufferEE9call_onceB7_, symObjAddr: 0x31D8, symBinAddr: 0x11040, symSize: 0x24 }
  - { offset: 0x4492F, size: 0x8, addend: 0x0, symName: __RNvYNvYNtNtCs5AlOhPCr03V_3syn6derive11DeriveInputNtNtB9_17parse_macro_input15ParseMacroInput5parseINtNtNtCsfvfooZQ3Axs_4core3ops8function6FnOnceTRNtNtB9_5parse11ParseBufferEE9call_onceCsjDl19lsdQYR_15datasize_derive, symObjAddr: 0x31FC, symBinAddr: 0x11064, symSize: 0x24 }
  - { offset: 0x44973, size: 0x8, addend: 0x0, symName: __RNvYNvYNtNtNtCs9i5KxIbZ5ph_10proc_macro6bridge3rpc12PanicMessageINtNtCsfvfooZQ3Axs_4core7convert4FromINtNtCse1nGBsou5OW_5alloc5boxed3BoxDNtNtB15_3any3AnyNtNtB15_6marker4SendEL_EE4fromINtNtNtB15_3ops8function6FnOnceTB1B_EE9call_onceCsjDl19lsdQYR_15datasize_derive, symObjAddr: 0x3220, symBinAddr: 0x11088, symSize: 0x2C }
  - { offset: 0x449BD, size: 0x8, addend: 0x0, symName: __RNvYNvCsjDl19lsdQYR_15datasize_derive16derive_data_sizeINtNtNtCsfvfooZQ3Axs_4core3ops8function2FnTNtCs9i5KxIbZ5ph_10proc_macro11TokenStreamEE4callB4_, symObjAddr: 0x3170, symBinAddr: 0x10FD8, symSize: 0x28 }
  - { offset: 0x44ADF, size: 0x8, addend: 0x0, symName: __RNvNtNtNtNtCsfvfooZQ3Axs_4core9core_arch10arm_shared4neon9generated18vreinterpret_s8_u8CsjDl19lsdQYR_15datasize_derive, symObjAddr: 0x1C30, symBinAddr: 0xFA98, symSize: 0xC }
  - { offset: 0x44B0D, size: 0x8, addend: 0x0, symName: __RNvNtNtNtNtCsfvfooZQ3Axs_4core9core_arch10arm_shared4neon9generated19vreinterpret_u64_u8CsjDl19lsdQYR_15datasize_derive, symObjAddr: 0x1C3C, symBinAddr: 0xFAA4, symSize: 0xC }
  - { offset: 0x44B3B, size: 0x8, addend: 0x0, symName: __RNvNtNtNtNtCsfvfooZQ3Axs_4core9core_arch10arm_shared4neon9generated7vceq_u8CsjDl19lsdQYR_15datasize_derive, symObjAddr: 0x1C48, symBinAddr: 0xFAB0, symSize: 0x14 }
  - { offset: 0x44B78, size: 0x8, addend: 0x0, symName: __RNvNtNtNtNtCsfvfooZQ3Axs_4core9core_arch10arm_shared4neon9generated7vorr_u8CsjDl19lsdQYR_15datasize_derive, symObjAddr: 0x1C5C, symBinAddr: 0xFAC4, symSize: 0x14 }
  - { offset: 0x44ECF, size: 0x8, addend: 0x0, symName: __RNCNkNvNvMNtNtCscOYdFFY2T5N_3std4hash6randomNtB8_11RandomState3new4KEYS0s_0CsjDl19lsdQYR_15datasize_derive, symObjAddr: 0x1730, symBinAddr: 0xF598, symSize: 0x3C }
  - { offset: 0x44F0D, size: 0x8, addend: 0x0, symName: __RNvNvNvMNtNtCscOYdFFY2T5N_3std4hash6randomNtB6_11RandomState3new4KEYS6___initCsjDl19lsdQYR_15datasize_derive, symObjAddr: 0x1C8C, symBinAddr: 0xFAF4, symSize: 0x24 }
  - { offset: 0x44F2B, size: 0x8, addend: 0x0, symName: __RNCNvMNtNtCscOYdFFY2T5N_3std4hash6randomNtB4_11RandomState3new0CsjDl19lsdQYR_15datasize_derive, symObjAddr: 0x176C, symBinAddr: 0xF5D4, symSize: 0x2C }
  - { offset: 0x45006, size: 0x8, addend: 0x0, symName: __RNvXs2_NtNtCscOYdFFY2T5N_3std4hash6randomNtB5_13DefaultHasherNtNtCsfvfooZQ3Axs_4core4hash6Hasher6finishCsjDl19lsdQYR_15datasize_derive, symObjAddr: 0x1E7C, symBinAddr: 0xFCE4, symSize: 0x2C }
  - { offset: 0x4504F, size: 0x8, addend: 0x0, symName: __RNvXs2_NtNtCscOYdFFY2T5N_3std4hash6randomNtB5_13DefaultHasherNtNtCsfvfooZQ3Axs_4core4hash6Hasher9write_strCsjDl19lsdQYR_15datasize_derive, symObjAddr: 0x1EA8, symBinAddr: 0xFD10, symSize: 0x38 }
  - { offset: 0x450B0, size: 0x8, addend: 0x0, symName: __RNvXs3_NtNtCscOYdFFY2T5N_3std4hash6randomNtB5_11RandomStateNtNtCsfvfooZQ3Axs_4core7default7Default7defaultCsjDl19lsdQYR_15datasize_derive, symObjAddr: 0x1EE0, symBinAddr: 0xFD48, symSize: 0x1C }
  - { offset: 0x450E8, size: 0x8, addend: 0x0, symName: __RNvXs_NtNtCscOYdFFY2T5N_3std4hash6randomNtB4_11RandomStateNtNtCsfvfooZQ3Axs_4core4hash11BuildHasher12build_hasherCsjDl19lsdQYR_15datasize_derive, symObjAddr: 0x2350, symBinAddr: 0x101B8, symSize: 0xCC }
  - { offset: 0x4532E, size: 0x8, addend: 0x0, symName: __RINvXs5_NtNtNtCscOYdFFY2T5N_3std11collections4hash3setINtB6_7HashSetNtCs3cP53eQoTwO_11proc_macro25IdentEINtNtNtNtCsfvfooZQ3Axs_4core4iter6traits7collect12FromIteratorB14_E9from_iterINtNtNtB1L_8adapters10filter_map9FilterMapINtNtCs5AlOhPCr03V_3syn10punctuated4IterNtNtB3E_8generics12GenericParamENCNvCsjDl19lsdQYR_15datasize_derive21path_contains_generics_0EEB4N_, symObjAddr: 0x117C, symBinAddr: 0xEFE4, symSize: 0x14C }
  - { offset: 0x454C1, size: 0x8, addend: 0x0, symName: __RNvXsz_NtNtNtCscOYdFFY2T5N_3std11collections4hash3setINtB5_12IntersectionNtCs3cP53eQoTwO_11proc_macro25IdentNtNtNtBb_4hash6random11RandomStateENtNtNtNtCsfvfooZQ3Axs_4core4iter6traits8iterator8Iterator4nextCsjDl19lsdQYR_15datasize_derive, symObjAddr: 0x2B94, symBinAddr: 0x109FC, symSize: 0xE8 }
  - { offset: 0x45760, size: 0x8, addend: 0x0, symName: __RNCINvMNtCs5AlOhPCr03V_3syn4attrNtB5_9Attribute15parse_args_withNvYNtCsjDl19lsdQYR_15datasize_derive13DataAttributeNtNtB7_5parse5Parse5parseE0B15_, symObjAddr: 0x1530, symBinAddr: 0xF398, symSize: 0x158 }
  - { offset: 0x4A5B0, size: 0x8, addend: 0x0, symName: __RNvXsf_NtCs5AlOhPCr03V_3syn5parseNCINvMNtB7_4attrNtBB_9Attribute15parse_args_withNvYNtCsjDl19lsdQYR_15datasize_derive13DataAttributeNtB5_5Parse5parseE0NtB5_6Parser6parse2B1m_, symObjAddr: 0x27F4, symBinAddr: 0x1065C, symSize: 0x368 }
  - { offset: 0x4B400, size: 0x8, addend: 0x0, symName: __RINvXs3_NtNtCse1nGBsou5OW_5alloc3vec9into_iterINtB6_8IntoIterTNtNtCs5AlOhPCr03V_3syn4data7VariantNtNtB12_5token5CommaEENtNtNtNtCsfvfooZQ3Axs_4core4iter6traits8iterator8Iterator4folduNCINvNtNtB1Z_8adapters3map8map_foldBX_BY_uNCNvXs8_NtB12_10punctuatedINtB3I_10PunctuatedBY_B1x_ENtNtB1X_7collect12IntoIterator9into_iter0NCINvNvB1T_8for_each4callBY_NCINvMsi_B8_INtB8_3VecBY_E14extend_trustedINtB2Z_3MapBI_B3A_EE0E0E0ECsjDl19lsdQYR_15datasize_derive, symObjAddr: 0x1030, symBinAddr: 0xEE98, symSize: 0x14C }
  - { offset: 0x4B5D0, size: 0x8, addend: 0x0, symName: __RNvXs3_NtNtCse1nGBsou5OW_5alloc3vec9into_iterINtB5_8IntoIterNtNtCs5AlOhPCr03V_3syn4data5FieldENtNtNtNtCsfvfooZQ3Axs_4core4iter6traits8iterator8Iterator4nextCsjDl19lsdQYR_15datasize_derive, symObjAddr: 0x1EFC, symBinAddr: 0xFD64, symSize: 0xE4 }
  - { offset: 0x4B744, size: 0x8, addend: 0x0, symName: __RNvXs3_NtNtCse1nGBsou5OW_5alloc3vec9into_iterINtB5_8IntoIterNtNtCs5AlOhPCr03V_3syn4data5FieldENtNtNtNtCsfvfooZQ3Axs_4core4iter6traits8iterator8Iterator9size_hintCsjDl19lsdQYR_15datasize_derive, symObjAddr: 0x1FE0, symBinAddr: 0xFE48, symSize: 0x6C }
  - { offset: 0x4B79F, size: 0x8, addend: 0x0, symName: __RNvXs3_NtNtCse1nGBsou5OW_5alloc3vec9into_iterINtB5_8IntoIterNtNtCs5AlOhPCr03V_3syn4data7VariantENtNtNtNtCsfvfooZQ3Axs_4core4iter6traits8iterator8Iterator4nextCsjDl19lsdQYR_15datasize_derive, symObjAddr: 0x204C, symBinAddr: 0xFEB4, symSize: 0xE4 }
  - { offset: 0x4B913, size: 0x8, addend: 0x0, symName: __RNvXs3_NtNtCse1nGBsou5OW_5alloc3vec9into_iterINtB5_8IntoIterNtNtCs5AlOhPCr03V_3syn4data7VariantENtNtNtNtCsfvfooZQ3Axs_4core4iter6traits8iterator8Iterator9size_hintCsjDl19lsdQYR_15datasize_derive, symObjAddr: 0x2130, symBinAddr: 0xFF98, symSize: 0x6C }
  - { offset: 0x4B96E, size: 0x8, addend: 0x0, symName: __RNvXs3_NtNtCse1nGBsou5OW_5alloc3vec9into_iterINtB5_8IntoIterTNtNtCs5AlOhPCr03V_3syn4data7VariantNtNtB11_5token5CommaEENtNtNtNtCsfvfooZQ3Axs_4core4iter6traits8iterator8Iterator9size_hintCsjDl19lsdQYR_15datasize_derive, symObjAddr: 0x219C, symBinAddr: 0x10004, symSize: 0x6C }
  - { offset: 0x4B9D9, size: 0x8, addend: 0x0, symName: __RNvXNvXsd_NtNtCse1nGBsou5OW_5alloc3vec9into_iterINtB8_8IntoIterppENtNtNtCsfvfooZQ3Axs_4core3ops4drop4Drop4dropINtB2_9DropGuardNtNtCs5AlOhPCr03V_3syn4data5FieldNtNtBc_5alloc6GlobalEB12_4dropCsjDl19lsdQYR_15datasize_derive, symObjAddr: 0x1CB0, symBinAddr: 0xFB18, symSize: 0x7C }
  - { offset: 0x4BAE6, size: 0x8, addend: 0x0, symName: __RNvXNvXsd_NtNtCse1nGBsou5OW_5alloc3vec9into_iterINtB8_8IntoIterppENtNtNtCsfvfooZQ3Axs_4core3ops4drop4Drop4dropINtB2_9DropGuardNtNtCs5AlOhPCr03V_3syn4data7VariantNtNtBc_5alloc6GlobalEB12_4dropCsjDl19lsdQYR_15datasize_derive, symObjAddr: 0x1D2C, symBinAddr: 0xFB94, symSize: 0x7C }
  - { offset: 0x4BBF3, size: 0x8, addend: 0x0, symName: __RNvXNvXsd_NtNtCse1nGBsou5OW_5alloc3vec9into_iterINtB8_8IntoIterppENtNtNtCsfvfooZQ3Axs_4core3ops4drop4Drop4dropINtB2_9DropGuardTNtNtCs5AlOhPCr03V_3syn4data7VariantNtNtB25_5token5CommaENtNtBc_5alloc6GlobalEB12_4dropCsjDl19lsdQYR_15datasize_derive, symObjAddr: 0x1DA8, symBinAddr: 0xFC10, symSize: 0x7C }
  - { offset: 0x4BD77, size: 0x8, addend: 0x0, symName: __RNvXsd_NtNtCse1nGBsou5OW_5alloc3vec9into_iterINtB5_8IntoIterNtNtCs5AlOhPCr03V_3syn4data5FieldENtNtNtCsfvfooZQ3Axs_4core3ops4drop4Drop4dropCsjDl19lsdQYR_15datasize_derive, symObjAddr: 0x2464, symBinAddr: 0x102CC, symSize: 0x98 }
  - { offset: 0x4BE11, size: 0x8, addend: 0x0, symName: __RNvXsd_NtNtCse1nGBsou5OW_5alloc3vec9into_iterINtB5_8IntoIterNtNtCs5AlOhPCr03V_3syn4data7VariantENtNtNtCsfvfooZQ3Axs_4core3ops4drop4Drop4dropCsjDl19lsdQYR_15datasize_derive, symObjAddr: 0x24FC, symBinAddr: 0x10364, symSize: 0x98 }
  - { offset: 0x4BEAB, size: 0x8, addend: 0x0, symName: __RNvXsd_NtNtCse1nGBsou5OW_5alloc3vec9into_iterINtB5_8IntoIterTNtNtCs5AlOhPCr03V_3syn4data7VariantNtNtB11_5token5CommaEENtNtNtCsfvfooZQ3Axs_4core3ops4drop4Drop4dropCsjDl19lsdQYR_15datasize_derive, symObjAddr: 0x2594, symBinAddr: 0x103FC, symSize: 0x98 }
  - { offset: 0x4C126, size: 0x8, addend: 0x0, symName: __RINvXsh_NtCse1nGBsou5OW_5alloc3vecINtB6_3VecNtNtCs5AlOhPCr03V_3syn4data7VariantEINtNtNtNtCsfvfooZQ3Axs_4core4iter6traits7collect6ExtendBG_E6extendINtNtB1p_6option6OptionBG_EECsjDl19lsdQYR_15datasize_derive, symObjAddr: 0x12C8, symBinAddr: 0xF130, symSize: 0x50 }
  - { offset: 0x4C17B, size: 0x8, addend: 0x0, symName: __RINvXsh_NtCse1nGBsou5OW_5alloc3vecINtB6_3VecNtNtCs5AlOhPCr03V_3syn4data7VariantEINtNtNtNtCsfvfooZQ3Axs_4core4iter6traits7collect6ExtendBG_E6extendINtNtNtB1n_8adapters3map3MapINtNtB6_9into_iter8IntoIterTBG_NtNtBK_5token5CommaEENCNvXs8_NtBK_10punctuatedINtB3K_10PunctuatedBG_B3h_ENtB1j_12IntoIterator9into_iter0EECsjDl19lsdQYR_15datasize_derive, symObjAddr: 0x1318, symBinAddr: 0xF180, symSize: 0x48 }
  - { offset: 0x4C1DB, size: 0x8, addend: 0x0, symName: __RNCINvMsi_NtCse1nGBsou5OW_5alloc3vecINtB8_3VecNtNtCs5AlOhPCr03V_3syn4data7VariantE14extend_trustedINtNtCsfvfooZQ3Axs_4core6option8IntoIterBI_EE0CsjDl19lsdQYR_15datasize_derive, symObjAddr: 0x1688, symBinAddr: 0xF4F0, symSize: 0x54 }
  - { offset: 0x4C299, size: 0x8, addend: 0x0, symName: __RNCINvMsi_NtCse1nGBsou5OW_5alloc3vecINtB8_3VecNtNtCs5AlOhPCr03V_3syn4data7VariantE14extend_trustedINtNtNtNtCsfvfooZQ3Axs_4core4iter8adapters3map3MapINtNtB8_9into_iter8IntoIterTBI_NtNtBM_5token5CommaEENCNvXs8_NtBM_10punctuatedINtB3k_10PunctuatedBI_B2R_ENtNtNtB1F_6traits7collect12IntoIterator9into_iter0EE0CsjDl19lsdQYR_15datasize_derive, symObjAddr: 0x16DC, symBinAddr: 0xF544, symSize: 0x54 }
  - { offset: 0x4C39F, size: 0x8, addend: 0x0, symName: __RNvXs_NtNtCse1nGBsou5OW_5alloc3vec11spec_extendINtB6_3VecNtNtCs5AlOhPCr03V_3syn4data7VariantEINtB4_10SpecExtendBT_INtNtCsfvfooZQ3Axs_4core6option8IntoIterBT_EE11spec_extendCsjDl19lsdQYR_15datasize_derive, symObjAddr: 0x241C, symBinAddr: 0x10284, symSize: 0x24 }
  - { offset: 0x4C3F1, size: 0x8, addend: 0x0, symName: __RNvXs_NtNtCse1nGBsou5OW_5alloc3vec11spec_extendINtB6_3VecNtNtCs5AlOhPCr03V_3syn4data7VariantEINtB4_10SpecExtendBT_INtNtNtNtCsfvfooZQ3Axs_4core4iter8adapters3map3MapINtNtB6_9into_iter8IntoIterTBT_NtNtBX_5token5CommaEENCNvXs8_NtBX_10punctuatedINtB3A_10PunctuatedBT_B37_ENtNtNtB1V_6traits7collect12IntoIterator9into_iter0EE11spec_extendCsjDl19lsdQYR_15datasize_derive, symObjAddr: 0x2440, symBinAddr: 0x102A8, symSize: 0x24 }
  - { offset: 0x4C44A, size: 0x8, addend: 0x0, symName: __RNvXse_NtCse1nGBsou5OW_5alloc3vecINtB5_3VecNtNtCs5AlOhPCr03V_3syn4data7VariantENtNtNtNtCsfvfooZQ3Axs_4core4iter6traits7collect12IntoIterator9into_iterCsjDl19lsdQYR_15datasize_derive, symObjAddr: 0x262C, symBinAddr: 0x10494, symSize: 0xE4 }
  - { offset: 0x4C6DC, size: 0x8, addend: 0x0, symName: __RNvXse_NtCse1nGBsou5OW_5alloc3vecINtB5_3VecTNtNtCs5AlOhPCr03V_3syn4data7VariantNtNtBK_5token5CommaEENtNtNtNtCsfvfooZQ3Axs_4core4iter6traits7collect12IntoIterator9into_iterCsjDl19lsdQYR_15datasize_derive, symObjAddr: 0x2710, symBinAddr: 0x10578, symSize: 0xE4 }
  - { offset: 0x4C974, size: 0x8, addend: 0x0, symName: __RNvXsn_NtCse1nGBsou5OW_5alloc3vecINtB5_3VecNtNtCs5AlOhPCr03V_3syn4data7VariantENtNtNtCsfvfooZQ3Axs_4core3ops4drop4Drop4dropCsjDl19lsdQYR_15datasize_derive, symObjAddr: 0x2B5C, symBinAddr: 0x109C4, symSize: 0x38 }
  - { offset: 0x4D40C, size: 0x8, addend: 0x0, symName: __RNvNtCse1nGBsou5OW_5alloc3fmt6formatCsjDl19lsdQYR_15datasize_derive, symObjAddr: 0x1B5C, symBinAddr: 0xF9C4, symSize: 0xD4 }
  - { offset: 0x4DA52, size: 0x8, addend: 0x0, symName: __RINvMNtCs5AlOhPCr03V_3syn4attrNtB3_9Attribute10parse_argsNtCsjDl19lsdQYR_15datasize_derive13DataAttributeEBV_, symObjAddr: 0x0, symBinAddr: 0xDF10, symSize: 0x34 }
  - { offset: 0x4DAD0, size: 0x8, addend: 0x0, symName: __RINvMNtCs5AlOhPCr03V_3syn4attrNtB3_9Attribute15parse_args_withNvYNtCsjDl19lsdQYR_15datasize_derive13DataAttributeNtNtB5_5parse5Parse5parseEB13_, symObjAddr: 0x34, symBinAddr: 0xDF44, symSize: 0x9C }
  - { offset: 0x4DD92, size: 0x8, addend: 0x0, symName: __RINvMsi_NtCse1nGBsou5OW_5alloc3vecINtB6_3VecNtNtCs5AlOhPCr03V_3syn4data7VariantE14extend_trustedINtNtCsfvfooZQ3Axs_4core6option8IntoIterBG_EECsjDl19lsdQYR_15datasize_derive, symObjAddr: 0xD0, symBinAddr: 0xDFE0, symSize: 0x1A0 }
  - { offset: 0x4E03D, size: 0x8, addend: 0x0, symName: __RINvMsi_NtCse1nGBsou5OW_5alloc3vecINtB6_3VecNtNtCs5AlOhPCr03V_3syn4data7VariantE14extend_trustedINtNtNtNtCsfvfooZQ3Axs_4core4iter8adapters3map3MapINtNtB6_9into_iter8IntoIterTBG_NtNtBK_5token5CommaEENCNvXs8_NtBK_10punctuatedINtB3i_10PunctuatedBG_B2P_ENtNtNtB1D_6traits7collect12IntoIterator9into_iter0EECsjDl19lsdQYR_15datasize_derive, symObjAddr: 0x270, symBinAddr: 0xE180, symSize: 0x188 }
  - { offset: 0x4E8CB, size: 0x8, addend: 0x0, symName: __RNvXs1_NtCsloNvcHxBCre_9hashbrown10scopeguardINtB5_10ScopeGuardNtNtB7_3raw13RawTableInnerNCINvMsa_B11_BZ_14prepare_resizeNtNtCse1nGBsou5OW_5alloc5alloc6GlobalE0ENtNtNtCsfvfooZQ3Axs_4core3ops4drop4Drop4dropCsjDl19lsdQYR_15datasize_derive, symObjAddr: 0x1E24, symBinAddr: 0xFC8C, symSize: 0x2C }
  - { offset: 0x4E905, size: 0x8, addend: 0x0, symName: __RNvXs1_NtCsloNvcHxBCre_9hashbrown10scopeguardINtB5_10ScopeGuardQNtNtB7_3raw13RawTableInnerNCNvMsa_B12_B10_15rehash_in_place0ENtNtNtCsfvfooZQ3Axs_4core3ops4drop4Drop4dropCsjDl19lsdQYR_15datasize_derive, symObjAddr: 0x1E50, symBinAddr: 0xFCB8, symSize: 0x2C }
  - { offset: 0x4EBB7, size: 0x8, addend: 0x0, symName: __RNvMNtCse1nGBsou5OW_5alloc3vecINtB2_3VecNtNtCs5AlOhPCr03V_3syn4data7VariantE13with_capacityCsjDl19lsdQYR_15datasize_derive, symObjAddr: 0x1840, symBinAddr: 0xF6A8, symSize: 0x48 }
  - { offset: 0x4EC2F, size: 0x8, addend: 0x0, symName: __RNvMNtNtNtCscOYdFFY2T5N_3std11collections4hash3setINtB2_7HashSetNtCs3cP53eQoTwO_11proc_macro25IdentE3newCsjDl19lsdQYR_15datasize_derive, symObjAddr: 0x1888, symBinAddr: 0xF6F0, symSize: 0x54 }
  - { offset: 0x4EDF5, size: 0x8, addend: 0x0, symName: __RNvMs0_NtNtNtCscOYdFFY2T5N_3std11collections4hash3setINtB5_7HashSetNtCs3cP53eQoTwO_11proc_macro25IdentE12intersectionCsjDl19lsdQYR_15datasize_derive, symObjAddr: 0x18DC, symBinAddr: 0xF744, symSize: 0x158 }
  - { offset: 0x4F038, size: 0x8, addend: 0x0, symName: __RNvMs0_NtNtNtCscOYdFFY2T5N_3std11collections4hash3setINtB5_7HashSetNtCs3cP53eQoTwO_11proc_macro25IdentE6insertCsjDl19lsdQYR_15datasize_derive, symObjAddr: 0x1A34, symBinAddr: 0xF89C, symSize: 0x48 }
  - { offset: 0x4F210, size: 0x8, addend: 0x0, symName: __RNvMs_NtCse1nGBsou5OW_5alloc3vecINtB4_3VecNtNtCs5AlOhPCr03V_3syn4data7VariantE7reserveCsjDl19lsdQYR_15datasize_derive, symObjAddr: 0x1A7C, symBinAddr: 0xF8E4, symSize: 0xC8 }
  - { offset: 0x4F384, size: 0x8, addend: 0x0, symName: __RNvMs_NtCse1nGBsou5OW_5alloc3vecINtB4_3VecTNtNtCs5AlOhPCr03V_3syn4data7VariantNtNtBJ_5token5CommaEE3lenCsjDl19lsdQYR_15datasize_derive, symObjAddr: 0x1B44, symBinAddr: 0xF9AC, symSize: 0x18 }
  - { offset: 0x505E3, size: 0x8, addend: 0x0, symName: __RNvCsjDl19lsdQYR_15datasize_derive16derive_data_size, symObjAddr: 0x0, symBinAddr: 0x110B4, symSize: 0x49C }
  - { offset: 0x50605, size: 0x8, addend: 0x0, symName: ___rustc_proc_macro_decls_e4b1f67b6cd3ba07__, symObjAddr: 0x67C8, symBinAddr: 0x1D88A8, symSize: 0x0 }
  - { offset: 0x50613, size: 0x8, addend: 0x0, symName: __RNvCsjDl19lsdQYR_15datasize_derive16derive_data_size, symObjAddr: 0x0, symBinAddr: 0x110B4, symSize: 0x49C }
  - { offset: 0x506CB, size: 0x8, addend: 0x0, symName: __RNvCsjDl19lsdQYR_15datasize_derive29remove_default_generic_values, symObjAddr: 0x49C, symBinAddr: 0x11550, symSize: 0x1F0 }
  - { offset: 0x50738, size: 0x8, addend: 0x0, symName: __RNvCsjDl19lsdQYR_15datasize_derive16contains_generic, symObjAddr: 0x68C, symBinAddr: 0x11740, symSize: 0x618 }
  - { offset: 0x508BF, size: 0x8, addend: 0x0, symName: __RNCNvCsjDl19lsdQYR_15datasize_derive16contains_generic0B3_, symObjAddr: 0xCA4, symBinAddr: 0x11D58, symSize: 0x44 }
  - { offset: 0x508FC, size: 0x8, addend: 0x0, symName: __RNCNvCsjDl19lsdQYR_15datasize_derive16contains_generics_0B3_, symObjAddr: 0xCE8, symBinAddr: 0x11D9C, symSize: 0x44 }
  - { offset: 0x50939, size: 0x8, addend: 0x0, symName: __RNCNvCsjDl19lsdQYR_15datasize_derive16contains_generics0_0B3_, symObjAddr: 0xD2C, symBinAddr: 0x11DE0, symSize: 0x44 }
  - { offset: 0x50977, size: 0x8, addend: 0x0, symName: __RNvCsjDl19lsdQYR_15datasize_derive21path_contains_generic, symObjAddr: 0xD70, symBinAddr: 0x11E24, symSize: 0x610 }
  - { offset: 0x50AB4, size: 0x8, addend: 0x0, symName: __RNCNvCsjDl19lsdQYR_15datasize_derive21path_contains_generic0B3_, symObjAddr: 0x1380, symBinAddr: 0x12434, symSize: 0x44 }
  - { offset: 0x50AF1, size: 0x8, addend: 0x0, symName: __RNCNvCsjDl19lsdQYR_15datasize_derive21path_contains_generics_0B3_, symObjAddr: 0x13C4, symBinAddr: 0x12478, symSize: 0xEC }
  - { offset: 0x50B4C, size: 0x8, addend: 0x0, symName: __RNvCsjDl19lsdQYR_15datasize_derive28param_bound_contains_generic, symObjAddr: 0x14B0, symBinAddr: 0x12564, symSize: 0x98 }
  - { offset: 0x50BA8, size: 0x8, addend: 0x0, symName: __RNvXCsjDl19lsdQYR_15datasize_deriveNtB2_13DataAttributeNtNtCs5AlOhPCr03V_3syn5parse5Parse5parse, symObjAddr: 0x1548, symBinAddr: 0x125FC, symSize: 0x390 }
  - { offset: 0x50C81, size: 0x8, addend: 0x0, symName: __RNvCsjDl19lsdQYR_15datasize_derive17derive_for_struct, symObjAddr: 0x1D30, symBinAddr: 0x12DE4, symSize: 0x19EC }
  - { offset: 0x5116C, size: 0x8, addend: 0x0, symName: __RNvCsjDl19lsdQYR_15datasize_derive15derive_for_enum, symObjAddr: 0x371C, symBinAddr: 0x147D0, symSize: 0x2128 }
  - { offset: 0x5AC28, size: 0x8, addend: 0x0, symName: __RNvMs_CsjDl19lsdQYR_15datasize_deriveNtB4_18DataSizeAttributes5parse, symObjAddr: 0x18D8, symBinAddr: 0x1298C, symSize: 0x458 }
  - { offset: 0x5C2D2, size: 0x8, addend: 0x0, symName: __RNvXNtNtCs5AlOhPCr03V_3syn4item7parsingNtB4_4ItemNtNtB6_5parse5Parse5parse, symObjAddr: 0x34F4, symBinAddr: 0x16E10, symSize: 0x4190 }
  - { offset: 0x5CC49, size: 0x8, addend: 0x0, symName: __RNvXs0_NtNtCs5AlOhPCr03V_3syn4item7parsingNtB7_9ItemMacroNtNtB9_5parse5Parse5parse, symObjAddr: 0x7684, symBinAddr: 0x1AFA0, symSize: 0x5C4 }
  - { offset: 0x5CE17, size: 0x8, addend: 0x0, symName: __RNvXs1_NtNtCs5AlOhPCr03V_3syn4item7parsingNtB7_10ItemMacro2NtNtB9_5parse5Parse5parse, symObjAddr: 0x7C48, symBinAddr: 0x1B564, symSize: 0xBAC }
  - { offset: 0x5D12F, size: 0x8, addend: 0x0, symName: __RNvXs2_NtNtCs5AlOhPCr03V_3syn4item7parsingNtB7_15ItemExternCrateNtNtB9_5parse5Parse5parse, symObjAddr: 0x87F4, symBinAddr: 0x1C110, symSize: 0x934 }
  - { offset: 0x5D339, size: 0x8, addend: 0x0, symName: __RNvXs3_NtNtCs5AlOhPCr03V_3syn4item7parsingNtB7_7ItemUseNtNtB9_5parse5Parse5parse, symObjAddr: 0x9128, symBinAddr: 0x1CA44, symSize: 0x5FC }
  - { offset: 0x5D484, size: 0x8, addend: 0x0, symName: __RNvXs4_NtNtCs5AlOhPCr03V_3syn4item7parsingNtB7_7UseTreeNtNtB9_5parse5Parse5parse, symObjAddr: 0x9724, symBinAddr: 0x1D040, symSize: 0xBF0 }
  - { offset: 0x5D65F, size: 0x8, addend: 0x0, symName: __RNvXs7_NtNtCs5AlOhPCr03V_3syn4item7parsingNtB7_9SignatureNtNtB9_5parse5Parse5parse, symObjAddr: 0xB898, symBinAddr: 0x1DC30, symSize: 0xA98 }
  - { offset: 0x5D980, size: 0x8, addend: 0x0, symName: __RNvXs9_NtNtCs5AlOhPCr03V_3syn4item7parsingNtB7_5FnArgNtNtB9_5parse5Parse5parse, symObjAddr: 0xC68C, symBinAddr: 0x1E6C8, symSize: 0x4F4 }
  - { offset: 0x5DA84, size: 0x8, addend: 0x0, symName: __RNvXsa_NtNtCs5AlOhPCr03V_3syn4item7parsingNtB7_8ReceiverNtNtB9_5parse5Parse5parse, symObjAddr: 0xCB80, symBinAddr: 0x1EBBC, symSize: 0x410 }
  - { offset: 0x5DB24, size: 0x8, addend: 0x0, symName: __RNvXsb_NtNtCs5AlOhPCr03V_3syn4item7parsingNtB7_7ItemModNtNtB9_5parse5Parse5parse, symObjAddr: 0xCF90, symBinAddr: 0x1EFCC, symSize: 0xB0C }
  - { offset: 0x5DD59, size: 0x8, addend: 0x0, symName: __RNvXsc_NtNtCs5AlOhPCr03V_3syn4item7parsingNtB7_14ItemForeignModNtNtB9_5parse5Parse5parse, symObjAddr: 0xDA9C, symBinAddr: 0x1FAD8, symSize: 0x564 }
  - { offset: 0x5DEDC, size: 0x8, addend: 0x0, symName: __RNvXsd_NtNtCs5AlOhPCr03V_3syn4item7parsingNtB7_11ForeignItemNtNtB9_5parse5Parse5parse, symObjAddr: 0xE000, symBinAddr: 0x2003C, symSize: 0x1B80 }
  - { offset: 0x5E42E, size: 0x8, addend: 0x0, symName: __RNvXsh_NtNtCs5AlOhPCr03V_3syn4item7parsingNtB7_16ForeignItemMacroNtNtB9_5parse5Parse5parse, symObjAddr: 0x10C50, symBinAddr: 0x21BBC, symSize: 0x328 }
  - { offset: 0x5E542, size: 0x8, addend: 0x0, symName: __RNvXsj_NtNtCs5AlOhPCr03V_3syn4item7parsingNtB7_10ItemStructNtNtB9_5parse5Parse5parse, symObjAddr: 0x11948, symBinAddr: 0x21EE4, symSize: 0x630 }
  - { offset: 0x5E73F, size: 0x8, addend: 0x0, symName: __RNvXsk_NtNtCs5AlOhPCr03V_3syn4item7parsingNtB7_8ItemEnumNtNtB9_5parse5Parse5parse, symObjAddr: 0x11F78, symBinAddr: 0x22514, symSize: 0x624 }
  - { offset: 0x5E93B, size: 0x8, addend: 0x0, symName: __RNvXsl_NtNtCs5AlOhPCr03V_3syn4item7parsingNtB7_9ItemUnionNtNtB9_5parse5Parse5parse, symObjAddr: 0x1259C, symBinAddr: 0x22B38, symSize: 0x61C }
  - { offset: 0x5EB27, size: 0x8, addend: 0x0, symName: __RNvXsm_NtNtCs5AlOhPCr03V_3syn4item7parsingNtB7_9ItemTraitNtNtB9_5parse5Parse5parse, symObjAddr: 0x12BB8, symBinAddr: 0x23154, symSize: 0x62C }
  - { offset: 0x5ED2E, size: 0x8, addend: 0x0, symName: __RNvXso_NtNtCs5AlOhPCr03V_3syn4item7parsingNtB7_9TraitItemNtNtB9_5parse5Parse5parse, symObjAddr: 0x1345C, symBinAddr: 0x23780, symSize: 0xD5C }
  - { offset: 0x5EF81, size: 0x8, addend: 0x0, symName: __RNvXsp_NtNtCs5AlOhPCr03V_3syn4item7parsingNtB7_14TraitItemConstNtNtB9_5parse5Parse5parse, symObjAddr: 0x141B8, symBinAddr: 0x244DC, symSize: 0x8E0 }
  - { offset: 0x5F12F, size: 0x8, addend: 0x0, symName: __RNvXsq_NtNtCs5AlOhPCr03V_3syn4item7parsingNtB7_15TraitItemMethodNtNtB9_5parse5Parse5parse, symObjAddr: 0x14A98, symBinAddr: 0x24DBC, symSize: 0x7D4 }
  - { offset: 0x5F331, size: 0x8, addend: 0x0, symName: __RNvXss_NtNtCs5AlOhPCr03V_3syn4item7parsingNtB7_14TraitItemMacroNtNtB9_5parse5Parse5parse, symObjAddr: 0x15D08, symBinAddr: 0x25590, symSize: 0x328 }
  - { offset: 0x5F445, size: 0x8, addend: 0x0, symName: __RNvXsu_NtNtCs5AlOhPCr03V_3syn4item7parsingNtB7_8ImplItemNtNtB9_5parse5Parse5parse, symObjAddr: 0x16090, symBinAddr: 0x258B8, symSize: 0x1648 }
  - { offset: 0x5F82F, size: 0x8, addend: 0x0, symName: __RNvXsw_NtNtCs5AlOhPCr03V_3syn4item7parsingNtB7_14ImplItemMethodNtNtB9_5parse5Parse5parse, symObjAddr: 0x18304, symBinAddr: 0x26F00, symSize: 0x9C8 }
  - { offset: 0x5FA92, size: 0x8, addend: 0x0, symName: __RNvXsy_NtNtCs5AlOhPCr03V_3syn4item7parsingNtB7_13ImplItemMacroNtNtB9_5parse5Parse5parse, symObjAddr: 0x1950C, symBinAddr: 0x278C8, symSize: 0x328 }
  - { offset: 0x5FBAC, size: 0x8, addend: 0x0, symName: __RNvXNtNtCs5AlOhPCr03V_3syn4item8printingNtB4_15ItemExternCrateNtNtCs2cqEZUIJimJ_5quote9to_tokens8ToTokens9to_tokens, symObjAddr: 0x19834, symBinAddr: 0x27BF0, symSize: 0x110 }
  - { offset: 0x5FC19, size: 0x8, addend: 0x0, symName: __RNvXs_NtNtCs5AlOhPCr03V_3syn4item8printingNtB6_7ItemUseNtNtCs2cqEZUIJimJ_5quote9to_tokens8ToTokens9to_tokens, symObjAddr: 0x19944, symBinAddr: 0x27D00, symSize: 0xA4 }
  - { offset: 0x5FC58, size: 0x8, addend: 0x0, symName: __RNvXs0_NtNtCs5AlOhPCr03V_3syn4item8printingNtB7_10ItemStaticNtNtCs2cqEZUIJimJ_5quote9to_tokens8ToTokens9to_tokens, symObjAddr: 0x199E8, symBinAddr: 0x27DA4, symSize: 0xE4 }
  - { offset: 0x5FC97, size: 0x8, addend: 0x0, symName: __RNvXs1_NtNtCs5AlOhPCr03V_3syn4item8printingNtB7_9ItemConstNtNtCs2cqEZUIJimJ_5quote9to_tokens8ToTokens9to_tokens, symObjAddr: 0x19ACC, symBinAddr: 0x27E88, symSize: 0xD4 }
  - { offset: 0x5FCD6, size: 0x8, addend: 0x0, symName: __RNvXs2_NtNtCs5AlOhPCr03V_3syn4item8printingNtB7_6ItemFnNtNtCs2cqEZUIJimJ_5quote9to_tokens8ToTokens9to_tokens, symObjAddr: 0x19BA0, symBinAddr: 0x27F5C, symSize: 0xB0 }
  - { offset: 0x5FD15, size: 0x8, addend: 0x0, symName: __RNvXs3_NtNtCs5AlOhPCr03V_3syn4item8printingNtB7_7ItemModNtNtCs2cqEZUIJimJ_5quote9to_tokens8ToTokens9to_tokens, symObjAddr: 0x19C50, symBinAddr: 0x2800C, symSize: 0x104 }
  - { offset: 0x5FD82, size: 0x8, addend: 0x0, symName: __RNvXs4_NtNtCs5AlOhPCr03V_3syn4item8printingNtB7_14ItemForeignModNtNtCs2cqEZUIJimJ_5quote9to_tokens8ToTokens9to_tokens, symObjAddr: 0x19D54, symBinAddr: 0x28110, symSize: 0x80 }
  - { offset: 0x5FDC1, size: 0x8, addend: 0x0, symName: __RNvXs5_NtNtCs5AlOhPCr03V_3syn4item8printingNtB7_8ItemTypeNtNtCs2cqEZUIJimJ_5quote9to_tokens8ToTokens9to_tokens, symObjAddr: 0x19DD4, symBinAddr: 0x28190, symSize: 0xD4 }
  - { offset: 0x5FE00, size: 0x8, addend: 0x0, symName: __RNvXs6_NtNtCs5AlOhPCr03V_3syn4item8printingNtB7_8ItemEnumNtNtCs2cqEZUIJimJ_5quote9to_tokens8ToTokens9to_tokens, symObjAddr: 0x19EA8, symBinAddr: 0x28264, symSize: 0xC0 }
  - { offset: 0x5FE3F, size: 0x8, addend: 0x0, symName: __RNvXs7_NtNtCs5AlOhPCr03V_3syn4item8printingNtB7_10ItemStructNtNtCs2cqEZUIJimJ_5quote9to_tokens8ToTokens9to_tokens, symObjAddr: 0x19F68, symBinAddr: 0x28324, symSize: 0x188 }
  - { offset: 0x5FEBA, size: 0x8, addend: 0x0, symName: __RNvXs8_NtNtCs5AlOhPCr03V_3syn4item8printingNtB7_9ItemUnionNtNtCs2cqEZUIJimJ_5quote9to_tokens8ToTokens9to_tokens, symObjAddr: 0x1A0F0, symBinAddr: 0x284AC, symSize: 0xB4 }
  - { offset: 0x5FEF9, size: 0x8, addend: 0x0, symName: __RNvXs9_NtNtCs5AlOhPCr03V_3syn4item8printingNtB7_9ItemTraitNtNtCs2cqEZUIJimJ_5quote9to_tokens8ToTokens9to_tokens, symObjAddr: 0x1A1A4, symBinAddr: 0x28560, symSize: 0x138 }
  - { offset: 0x5FF38, size: 0x8, addend: 0x0, symName: __RNvXsa_NtNtCs5AlOhPCr03V_3syn4item8printingNtB7_14ItemTraitAliasNtNtCs2cqEZUIJimJ_5quote9to_tokens8ToTokens9to_tokens, symObjAddr: 0x1A2DC, symBinAddr: 0x28698, symSize: 0xD4 }
  - { offset: 0x5FF77, size: 0x8, addend: 0x0, symName: __RNvXsb_NtNtCs5AlOhPCr03V_3syn4item8printingNtB7_8ItemImplNtNtCs2cqEZUIJimJ_5quote9to_tokens8ToTokens9to_tokens, symObjAddr: 0x1A3B0, symBinAddr: 0x2876C, symSize: 0x158 }
  - { offset: 0x5FFF4, size: 0x8, addend: 0x0, symName: __RNvXsc_NtNtCs5AlOhPCr03V_3syn4item8printingNtB7_9ItemMacroNtNtCs2cqEZUIJimJ_5quote9to_tokens8ToTokens9to_tokens, symObjAddr: 0x1A508, symBinAddr: 0x288C4, symSize: 0x148 }
  - { offset: 0x60085, size: 0x8, addend: 0x0, symName: __RNvXsd_NtNtCs5AlOhPCr03V_3syn4item8printingNtB7_10ItemMacro2NtNtCs2cqEZUIJimJ_5quote9to_tokens8ToTokens9to_tokens, symObjAddr: 0x1A650, symBinAddr: 0x28A0C, symSize: 0x94 }
  - { offset: 0x600C4, size: 0x8, addend: 0x0, symName: __RNvXse_NtNtCs5AlOhPCr03V_3syn4item8printingNtB7_7UsePathNtNtCs2cqEZUIJimJ_5quote9to_tokens8ToTokens9to_tokens, symObjAddr: 0x1A6E4, symBinAddr: 0x28AA0, symSize: 0x60 }
  - { offset: 0x60103, size: 0x8, addend: 0x0, symName: __RNvXsf_NtNtCs5AlOhPCr03V_3syn4item8printingNtB7_7UseNameNtNtCs2cqEZUIJimJ_5quote9to_tokens8ToTokens9to_tokens, symObjAddr: 0x1A744, symBinAddr: 0x28B00, symSize: 0x3C }
  - { offset: 0x60142, size: 0x8, addend: 0x0, symName: __RNvXsg_NtNtCs5AlOhPCr03V_3syn4item8printingNtB7_9UseRenameNtNtCs2cqEZUIJimJ_5quote9to_tokens8ToTokens9to_tokens, symObjAddr: 0x1A780, symBinAddr: 0x28B3C, symSize: 0x60 }
  - { offset: 0x60181, size: 0x8, addend: 0x0, symName: __RNvXsh_NtNtCs5AlOhPCr03V_3syn4item8printingNtB7_7UseGlobNtNtCs2cqEZUIJimJ_5quote9to_tokens8ToTokens9to_tokens, symObjAddr: 0x1A7E0, symBinAddr: 0x28B9C, symSize: 0x3C }
  - { offset: 0x601C0, size: 0x8, addend: 0x0, symName: __RNvXsi_NtNtCs5AlOhPCr03V_3syn4item8printingNtB7_8UseGroupNtNtCs2cqEZUIJimJ_5quote9to_tokens8ToTokens9to_tokens, symObjAddr: 0x1A81C, symBinAddr: 0x28BD8, symSize: 0x44 }
  - { offset: 0x601FF, size: 0x8, addend: 0x0, symName: __RNvXsj_NtNtCs5AlOhPCr03V_3syn4item8printingNtB7_14TraitItemConstNtNtCs2cqEZUIJimJ_5quote9to_tokens8ToTokens9to_tokens, symObjAddr: 0x1A860, symBinAddr: 0x28C1C, symSize: 0x118 }
  - { offset: 0x6026C, size: 0x8, addend: 0x0, symName: __RNvXsk_NtNtCs5AlOhPCr03V_3syn4item8printingNtB7_15TraitItemMethodNtNtCs2cqEZUIJimJ_5quote9to_tokens8ToTokens9to_tokens, symObjAddr: 0x1A978, symBinAddr: 0x28D34, symSize: 0xDC }
  - { offset: 0x602C9, size: 0x8, addend: 0x0, symName: __RNvXsl_NtNtCs5AlOhPCr03V_3syn4item8printingNtB7_13TraitItemTypeNtNtCs2cqEZUIJimJ_5quote9to_tokens8ToTokens9to_tokens, symObjAddr: 0x1AA54, symBinAddr: 0x28E10, symSize: 0x178 }
  - { offset: 0x60336, size: 0x8, addend: 0x0, symName: __RNvXsm_NtNtCs5AlOhPCr03V_3syn4item8printingNtB7_14TraitItemMacroNtNtCs2cqEZUIJimJ_5quote9to_tokens8ToTokens9to_tokens, symObjAddr: 0x1ABCC, symBinAddr: 0x28F88, symSize: 0x74 }
  - { offset: 0x60375, size: 0x8, addend: 0x0, symName: __RNvXsn_NtNtCs5AlOhPCr03V_3syn4item8printingNtB7_13ImplItemConstNtNtCs2cqEZUIJimJ_5quote9to_tokens8ToTokens9to_tokens, symObjAddr: 0x1AC40, symBinAddr: 0x28FFC, symSize: 0xE4 }
  - { offset: 0x603B4, size: 0x8, addend: 0x0, symName: __RNvXso_NtNtCs5AlOhPCr03V_3syn4item8printingNtB7_14ImplItemMethodNtNtCs2cqEZUIJimJ_5quote9to_tokens8ToTokens9to_tokens, symObjAddr: 0x1AD24, symBinAddr: 0x290E0, symSize: 0x1E8 }
  - { offset: 0x60409, size: 0x8, addend: 0x0, symName: __RNvXsp_NtNtCs5AlOhPCr03V_3syn4item8printingNtB7_12ImplItemTypeNtNtCs2cqEZUIJimJ_5quote9to_tokens8ToTokens9to_tokens, symObjAddr: 0x1AF0C, symBinAddr: 0x292C8, symSize: 0xE4 }
  - { offset: 0x60448, size: 0x8, addend: 0x0, symName: __RNvXsq_NtNtCs5AlOhPCr03V_3syn4item8printingNtB7_13ImplItemMacroNtNtCs2cqEZUIJimJ_5quote9to_tokens8ToTokens9to_tokens, symObjAddr: 0x1AFF0, symBinAddr: 0x293AC, symSize: 0x74 }
  - { offset: 0x60487, size: 0x8, addend: 0x0, symName: __RNvXsr_NtNtCs5AlOhPCr03V_3syn4item8printingNtB7_13ForeignItemFnNtNtCs2cqEZUIJimJ_5quote9to_tokens8ToTokens9to_tokens, symObjAddr: 0x1B064, symBinAddr: 0x29420, symSize: 0x84 }
  - { offset: 0x604C6, size: 0x8, addend: 0x0, symName: __RNvXss_NtNtCs5AlOhPCr03V_3syn4item8printingNtB7_17ForeignItemStaticNtNtCs2cqEZUIJimJ_5quote9to_tokens8ToTokens9to_tokens, symObjAddr: 0x1B0E8, symBinAddr: 0x294A4, symSize: 0xC4 }
  - { offset: 0x60505, size: 0x8, addend: 0x0, symName: __RNvXst_NtNtCs5AlOhPCr03V_3syn4item8printingNtB7_15ForeignItemTypeNtNtCs2cqEZUIJimJ_5quote9to_tokens8ToTokens9to_tokens, symObjAddr: 0x1B1AC, symBinAddr: 0x29568, symSize: 0x94 }
  - { offset: 0x60544, size: 0x8, addend: 0x0, symName: __RNvXsu_NtNtCs5AlOhPCr03V_3syn4item8printingNtB7_16ForeignItemMacroNtNtCs2cqEZUIJimJ_5quote9to_tokens8ToTokens9to_tokens, symObjAddr: 0x1B240, symBinAddr: 0x295FC, symSize: 0x74 }
  - { offset: 0x60583, size: 0x8, addend: 0x0, symName: __RNvXsv_NtNtCs5AlOhPCr03V_3syn4item8printingNtB7_9SignatureNtNtCs2cqEZUIJimJ_5quote9to_tokens8ToTokens9to_tokens, symObjAddr: 0x1B2B4, symBinAddr: 0x29670, symSize: 0xDC }
  - { offset: 0x605C2, size: 0x8, addend: 0x0, symName: __RNvXsw_NtNtCs5AlOhPCr03V_3syn4item8printingNtB7_8ReceiverNtNtCs2cqEZUIJimJ_5quote9to_tokens8ToTokens9to_tokens, symObjAddr: 0x1B390, symBinAddr: 0x2974C, symSize: 0xE0 }
  - { offset: 0x60635, size: 0x8, addend: 0x0, symName: __RNcNtNtNtCs5AlOhPCr03V_3syn4item4Item4Enum0B7_, symObjAddr: 0x1B470, symBinAddr: 0x2982C, symSize: 0x3C }
  - { offset: 0x60664, size: 0x8, addend: 0x0, symName: __RNcNtNtNtCs5AlOhPCr03V_3syn4item4Item11ExternCrate0B7_, symObjAddr: 0x1B4AC, symBinAddr: 0x29868, symSize: 0x3C }
  - { offset: 0x60693, size: 0x8, addend: 0x0, symName: __RNcNtNtNtCs5AlOhPCr03V_3syn4item4Item2Fn0B7_, symObjAddr: 0x1B4E8, symBinAddr: 0x298A4, symSize: 0x30 }
  - { offset: 0x606C2, size: 0x8, addend: 0x0, symName: __RNcNtNtNtCs5AlOhPCr03V_3syn4item4Item10ForeignMod0B7_, symObjAddr: 0x1B518, symBinAddr: 0x298D4, symSize: 0x3C }
  - { offset: 0x606F1, size: 0x8, addend: 0x0, symName: __RNcNtNtNtCs5AlOhPCr03V_3syn4item4Item5Macro0B7_, symObjAddr: 0x1B554, symBinAddr: 0x29910, symSize: 0x3C }
  - { offset: 0x60720, size: 0x8, addend: 0x0, symName: __RNcNtNtNtCs5AlOhPCr03V_3syn4item4Item6Macro20B7_, symObjAddr: 0x1B590, symBinAddr: 0x2994C, symSize: 0x3C }
  - { offset: 0x6074F, size: 0x8, addend: 0x0, symName: __RNcNtNtNtCs5AlOhPCr03V_3syn4item4Item3Mod0B7_, symObjAddr: 0x1B5CC, symBinAddr: 0x29988, symSize: 0x3C }
  - { offset: 0x6077E, size: 0x8, addend: 0x0, symName: __RNcNtNtNtCs5AlOhPCr03V_3syn4item4Item6Struct0B7_, symObjAddr: 0x1B608, symBinAddr: 0x299C4, symSize: 0x3C }
  - { offset: 0x607AD, size: 0x8, addend: 0x0, symName: __RNcNtNtNtCs5AlOhPCr03V_3syn4item4Item5Trait0B7_, symObjAddr: 0x1B644, symBinAddr: 0x29A00, symSize: 0x3C }
  - { offset: 0x607DC, size: 0x8, addend: 0x0, symName: __RNcNtNtNtCs5AlOhPCr03V_3syn4item4Item10TraitAlias0B7_, symObjAddr: 0x1B680, symBinAddr: 0x29A3C, symSize: 0x3C }
  - { offset: 0x6080B, size: 0x8, addend: 0x0, symName: __RNcNtNtNtCs5AlOhPCr03V_3syn4item4Item5Union0B7_, symObjAddr: 0x1B6BC, symBinAddr: 0x29A78, symSize: 0x3C }
  - { offset: 0x6083A, size: 0x8, addend: 0x0, symName: __RNcNtNtNtCs5AlOhPCr03V_3syn4item4Item3Use0B7_, symObjAddr: 0x1B6F8, symBinAddr: 0x29AB4, symSize: 0x3C }
  - { offset: 0x6086A, size: 0x8, addend: 0x0, symName: __RNvXsl_NtCs5AlOhPCr03V_3syn4itemNtB5_4ItemNtNtCs2cqEZUIJimJ_5quote9to_tokens8ToTokens9to_tokens, symObjAddr: 0x1BBE8, symBinAddr: 0x29AF0, symSize: 0x24C }
  - { offset: 0x60A99, size: 0x8, addend: 0x0, symName: __RNvXsr_NtCs5AlOhPCr03V_3syn4itemNtB5_7UseTreeNtNtCs2cqEZUIJimJ_5quote9to_tokens8ToTokens9to_tokens, symObjAddr: 0x1BF78, symBinAddr: 0x29D3C, symSize: 0x114 }
  - { offset: 0x60B6B, size: 0x8, addend: 0x0, symName: __RNcNtNtNtCs5AlOhPCr03V_3syn4item11ForeignItem5Macro0B7_, symObjAddr: 0x1C08C, symBinAddr: 0x29E50, symSize: 0x3C }
  - { offset: 0x60B9D, size: 0x8, addend: 0x0, symName: __RNvXsw_NtCs5AlOhPCr03V_3syn4itemNtB5_11ForeignItemNtNtCs2cqEZUIJimJ_5quote9to_tokens8ToTokens9to_tokens, symObjAddr: 0x1C1EC, symBinAddr: 0x29E8C, symSize: 0x118 }
  - { offset: 0x60C6F, size: 0x8, addend: 0x0, symName: __RNcNtNtNtCs5AlOhPCr03V_3syn4item9TraitItem5Const0B7_, symObjAddr: 0x1C304, symBinAddr: 0x29FA4, symSize: 0x30 }
  - { offset: 0x60CA0, size: 0x8, addend: 0x0, symName: __RNcNtNtNtCs5AlOhPCr03V_3syn4item9TraitItem6Method0B7_, symObjAddr: 0x1C334, symBinAddr: 0x29FD4, symSize: 0x3C }
  - { offset: 0x60CD1, size: 0x8, addend: 0x0, symName: __RNcNtNtNtCs5AlOhPCr03V_3syn4item9TraitItem5Macro0B7_, symObjAddr: 0x1C370, symBinAddr: 0x2A010, symSize: 0x40 }
  - { offset: 0x60D03, size: 0x8, addend: 0x0, symName: __RNvXsB_NtCs5AlOhPCr03V_3syn4itemNtB5_9TraitItemNtNtCs2cqEZUIJimJ_5quote9to_tokens8ToTokens9to_tokens, symObjAddr: 0x1C4D8, symBinAddr: 0x2A050, symSize: 0x11C }
  - { offset: 0x60DD5, size: 0x8, addend: 0x0, symName: __RNcNtNtNtCs5AlOhPCr03V_3syn4item8ImplItem6Method0B7_, symObjAddr: 0x1C5F4, symBinAddr: 0x2A16C, symSize: 0x3C }
  - { offset: 0x60E06, size: 0x8, addend: 0x0, symName: __RNcNtNtNtCs5AlOhPCr03V_3syn4item8ImplItem5Macro0B7_, symObjAddr: 0x1C630, symBinAddr: 0x2A1A8, symSize: 0x40 }
  - { offset: 0x60E38, size: 0x8, addend: 0x0, symName: __RNvXsG_NtCs5AlOhPCr03V_3syn4itemNtB5_8ImplItemNtNtCs2cqEZUIJimJ_5quote9to_tokens8ToTokens9to_tokens, symObjAddr: 0x1C798, symBinAddr: 0x2A1E8, symSize: 0x11C }
  - { offset: 0x69496, size: 0x8, addend: 0x0, symName: __RNvMNtCsfvfooZQ3Axs_4core5sliceSTNtNtCs5AlOhPCr03V_3syn4item5FnArgNtNtBz_5token5CommaE4iterBz_, symObjAddr: 0x146C, symBinAddr: 0x1690C, symSize: 0x28 }
  - { offset: 0x694CD, size: 0x8, addend: 0x0, symName: __RNvMNtCsfvfooZQ3Axs_4core5sliceSTNtNtCs5AlOhPCr03V_3syn4item5FnArgNtNtBz_5token5CommaE8iter_mutBz_, symObjAddr: 0x1494, symBinAddr: 0x16934, symSize: 0x28 }
  - { offset: 0x69504, size: 0x8, addend: 0x0, symName: __RNvMNtCsfvfooZQ3Axs_4core5sliceSTNtNtCs5AlOhPCr03V_3syn4item7UseTreeNtNtBz_5token5CommaE4iterBz_, symObjAddr: 0x14BC, symBinAddr: 0x1695C, symSize: 0x28 }
  - { offset: 0x6AB46, size: 0x8, addend: 0x0, symName: __RNvXNtCs2cqEZUIJimJ_5quote9to_tokensRNtNtCs5AlOhPCr03V_3syn4item11ForeignItemNtB2_8ToTokens9to_tokensBD_, symObjAddr: 0x14E4, symBinAddr: 0x16984, symSize: 0x40 }
  - { offset: 0x6AB85, size: 0x8, addend: 0x0, symName: __RNvXNtCs2cqEZUIJimJ_5quote9to_tokensRNtNtCs5AlOhPCr03V_3syn4item4ItemNtB2_8ToTokens9to_tokensBD_, symObjAddr: 0x1524, symBinAddr: 0x169C4, symSize: 0x40 }
  - { offset: 0x6ABC4, size: 0x8, addend: 0x0, symName: __RNvXNtCs2cqEZUIJimJ_5quote9to_tokensRNtNtCs5AlOhPCr03V_3syn4item7UseTreeNtB2_8ToTokens9to_tokensBD_, symObjAddr: 0x1564, symBinAddr: 0x16A04, symSize: 0x40 }
  - { offset: 0x6AC03, size: 0x8, addend: 0x0, symName: __RNvXNtCs2cqEZUIJimJ_5quote9to_tokensRNtNtCs5AlOhPCr03V_3syn4item8ImplItemNtB2_8ToTokens9to_tokensBD_, symObjAddr: 0x15A4, symBinAddr: 0x16A44, symSize: 0x40 }
  - { offset: 0x6AC42, size: 0x8, addend: 0x0, symName: __RNvXNtCs2cqEZUIJimJ_5quote9to_tokensRNtNtCs5AlOhPCr03V_3syn4item9TraitItemNtB2_8ToTokens9to_tokensBD_, symObjAddr: 0x15E4, symBinAddr: 0x16A84, symSize: 0x40 }
  - { offset: 0x6AC84, size: 0x8, addend: 0x0, symName: __RNvMNtCs5AlOhPCr03V_3syn4itemNtB2_4Item13replace_attrs, symObjAddr: 0x2B90, symBinAddr: 0x16AC4, symSize: 0x34C }
  - { offset: 0x6B134, size: 0x8, addend: 0x0, symName: __RINvMsi_NtCse1nGBsou5OW_5alloc3vecINtB6_3VecNtCs3cP53eQoTwO_11proc_macro29TokenTreeE16extend_desugaredINtNtNtNtCsfvfooZQ3Axs_4core4iter8adapters7flatten7FlattenINtNtB1H_3map3MapIB2z_IB2z_INtNtNtB1L_5slice4iter4IterNtNtCs5AlOhPCr03V_3syn5error12ErrorMessageENvMs_B3s_B3q_16to_compile_errorENCINvXs7_BI_NtBI_11TokenStreamINtNtNtB1J_6traits7collect12FromIteratorB4P_E9from_iterB2U_E0ENCINvXs6_NtBI_3impNtB6g_11TokenStreamIB58_B6p_E9from_iterB2P_Es_0EEEB3u_, symObjAddr: 0x0, symBinAddr: 0x2A304, symSize: 0x1D4 }
  - { offset: 0x753FA, size: 0x8, addend: 0x0, symName: __RINvXsh_NtCse1nGBsou5OW_5alloc3vecINtB6_3VecNtCs3cP53eQoTwO_11proc_macro29TokenTreeEINtNtNtNtCsfvfooZQ3Axs_4core4iter6traits7collect6ExtendBG_E6extendINtNtNtB1r_8adapters7flatten7FlattenINtNtB2t_3map3MapIB2Z_IB2Z_INtNtNtB1t_5slice4iter4IterNtNtCs5AlOhPCr03V_3syn5error12ErrorMessageENvMs_B3S_B3Q_16to_compile_errorENCINvXs7_BI_NtBI_11TokenStreamINtB1n_12FromIteratorB5f_E9from_iterB3k_E0ENCINvXs6_NtBI_3impNtB6n_11TokenStreamIB5y_B6w_E9from_iterB3f_Es_0EEEB3U_, symObjAddr: 0xBBC, symBinAddr: 0x2AB28, symSize: 0x48 }
  - { offset: 0x7544F, size: 0x8, addend: 0x0, symName: __RINvXsh_NtCse1nGBsou5OW_5alloc3vecINtB6_3VecNtNtCs5AlOhPCr03V_3syn4attr9AttributeEINtNtNtNtCsfvfooZQ3Axs_4core4iter6traits7collect6ExtendBG_E6extendBw_EBK_, symObjAddr: 0xC04, symBinAddr: 0x2AB70, symSize: 0x48 }
  - { offset: 0x754A4, size: 0x8, addend: 0x0, symName: __RINvXsh_NtCse1nGBsou5OW_5alloc3vecINtB6_3VecNtNtCs5AlOhPCr03V_3syn4data5FieldEINtNtNtNtCsfvfooZQ3Axs_4core4iter6traits7collect6ExtendBG_E6extendINtNtB1n_6option6OptionBG_EEBK_, symObjAddr: 0xC4C, symBinAddr: 0x2ABB8, symSize: 0x50 }
  - { offset: 0x754F9, size: 0x8, addend: 0x0, symName: __RINvXsh_NtCse1nGBsou5OW_5alloc3vecINtB6_3VecNtNtCs5AlOhPCr03V_3syn4data5FieldEINtNtNtNtCsfvfooZQ3Axs_4core4iter6traits7collect6ExtendBG_E6extendINtNtNtB1l_8adapters3map3MapINtNtB6_9into_iter8IntoIterTBG_NtNtBK_5token5CommaEENCNvXs8_NtBK_10punctuatedINtB3I_10PunctuatedBG_B3f_ENtB1h_12IntoIterator9into_iter0EEBK_, symObjAddr: 0xC9C, symBinAddr: 0x2AC08, symSize: 0x48 }
  - { offset: 0x7554E, size: 0x8, addend: 0x0, symName: __RINvXsh_NtCse1nGBsou5OW_5alloc3vecINtB6_3VecNtNtCs5AlOhPCr03V_3syn8generics14TypeParamBoundEINtNtNtNtCsfvfooZQ3Axs_4core4iter6traits7collect6ExtendBG_E6extendINtNtB1B_6option6OptionBG_EEBK_, symObjAddr: 0xD74, symBinAddr: 0x2AC50, symSize: 0x48 }
  - { offset: 0x755A3, size: 0x8, addend: 0x0, symName: __RINvXsh_NtCse1nGBsou5OW_5alloc3vecINtB6_3VecNtNtCs5AlOhPCr03V_3syn8generics14TypeParamBoundEINtNtNtNtCsfvfooZQ3Axs_4core4iter6traits7collect6ExtendBG_E6extendINtNtNtB1z_8adapters3map3MapINtNtB6_9into_iter8IntoIterTBG_NtNtBK_5token3AddEENCNvXs8_NtBK_10punctuatedINtB3U_10PunctuatedBG_B3t_ENtB1v_12IntoIterator9into_iter0EEBK_, symObjAddr: 0xDBC, symBinAddr: 0x2AC98, symSize: 0x48 }
  - { offset: 0x75603, size: 0x8, addend: 0x0, symName: __RNCINvMsi_NtCse1nGBsou5OW_5alloc3vecINtB8_3VecNtNtCs5AlOhPCr03V_3syn4data5FieldE14extend_trustedINtNtCsfvfooZQ3Axs_4core6option8IntoIterBI_EE0BM_, symObjAddr: 0xE04, symBinAddr: 0x2ACE0, symSize: 0x54 }
  - { offset: 0x756C1, size: 0x8, addend: 0x0, symName: __RNCINvMsi_NtCse1nGBsou5OW_5alloc3vecINtB8_3VecNtNtCs5AlOhPCr03V_3syn4data5FieldE14extend_trustedINtNtNtNtCsfvfooZQ3Axs_4core4iter8adapters3map3MapINtNtB8_9into_iter8IntoIterTBI_NtNtBM_5token5CommaEENCNvXs8_NtBM_10punctuatedINtB3i_10PunctuatedBI_B2P_ENtNtNtB1D_6traits7collect12IntoIterator9into_iter0EE0BM_, symObjAddr: 0xE58, symBinAddr: 0x2AD34, symSize: 0x54 }
  - { offset: 0x7577F, size: 0x8, addend: 0x0, symName: __RNCINvMsi_NtCse1nGBsou5OW_5alloc3vecINtB8_3VecNtNtCs5AlOhPCr03V_3syn8generics14TypeParamBoundE14extend_trustedINtNtCsfvfooZQ3Axs_4core6option8IntoIterBI_EE0BM_, symObjAddr: 0xF00, symBinAddr: 0x2AD88, symSize: 0x54 }
  - { offset: 0x7583D, size: 0x8, addend: 0x0, symName: __RNCINvMsi_NtCse1nGBsou5OW_5alloc3vecINtB8_3VecNtNtCs5AlOhPCr03V_3syn8generics14TypeParamBoundE14extend_trustedINtNtNtNtCsfvfooZQ3Axs_4core4iter8adapters3map3MapINtNtB8_9into_iter8IntoIterTBI_NtNtBM_5token3AddEENCNvXs8_NtBM_10punctuatedINtB3u_10PunctuatedBI_B33_ENtNtNtB1R_6traits7collect12IntoIterator9into_iter0EE0BM_, symObjAddr: 0xF54, symBinAddr: 0x2ADDC, symSize: 0x54 }
  - { offset: 0x75E00, size: 0x8, addend: 0x0, symName: __RNvXs6_NtCse1nGBsou5OW_5alloc3vecINtB5_3VecNtNtCs5AlOhPCr03V_3syn4attr9AttributeENtNtNtCsfvfooZQ3Axs_4core3ops5deref5Deref5derefBJ_, symObjAddr: 0x6C70, symBinAddr: 0x2EC68, symSize: 0x24 }
  - { offset: 0x75E40, size: 0x8, addend: 0x0, symName: __RNvXs6_NtCse1nGBsou5OW_5alloc3vecINtB5_3VecNtNtCs5AlOhPCr03V_3syn4expr3ArmENtNtNtCsfvfooZQ3Axs_4core3ops5deref5Deref5derefBJ_, symObjAddr: 0x6C94, symBinAddr: 0x2EC8C, symSize: 0x24 }
  - { offset: 0x75E80, size: 0x8, addend: 0x0, symName: __RNvXs6_NtCse1nGBsou5OW_5alloc3vecINtB5_3VecNtNtCs5AlOhPCr03V_3syn5error12ErrorMessageENtNtNtCsfvfooZQ3Axs_4core3ops5deref5Deref5derefBJ_, symObjAddr: 0x6CB8, symBinAddr: 0x2ECB0, symSize: 0x24 }
  - { offset: 0x75EC0, size: 0x8, addend: 0x0, symName: __RNvXs6_NtCse1nGBsou5OW_5alloc3vecINtB5_3VecReENtNtNtCsfvfooZQ3Axs_4core3ops5deref5Deref5derefCs5AlOhPCr03V_3syn, symObjAddr: 0x6CDC, symBinAddr: 0x2ECD4, symSize: 0x24 }
  - { offset: 0x75F00, size: 0x8, addend: 0x0, symName: __RNvXs6_NtCse1nGBsou5OW_5alloc3vecINtB5_3VecTNtNtCs5AlOhPCr03V_3syn2ty4TypeNtNtBK_5token5CommaEENtNtNtCsfvfooZQ3Axs_4core3ops5deref5Deref5derefBK_, symObjAddr: 0x6D00, symBinAddr: 0x2ECF8, symSize: 0x24 }
  - { offset: 0x75F40, size: 0x8, addend: 0x0, symName: __RNvXs6_NtCse1nGBsou5OW_5alloc3vecINtB5_3VecTNtNtCs5AlOhPCr03V_3syn2ty9BareFnArgNtNtBK_5token5CommaEENtNtNtCsfvfooZQ3Axs_4core3ops5deref5Deref5derefBK_, symObjAddr: 0x6D24, symBinAddr: 0x2ED1C, symSize: 0x24 }
  - { offset: 0x75F80, size: 0x8, addend: 0x0, symName: __RNvXs6_NtCse1nGBsou5OW_5alloc3vecINtB5_3VecTNtNtCs5AlOhPCr03V_3syn3pat3PatNtNtBK_5token2OrEENtNtNtCsfvfooZQ3Axs_4core3ops5deref5Deref5derefBK_, symObjAddr: 0x6D48, symBinAddr: 0x2ED40, symSize: 0x24 }
  - { offset: 0x75FC0, size: 0x8, addend: 0x0, symName: __RNvXs6_NtCse1nGBsou5OW_5alloc3vecINtB5_3VecTNtNtCs5AlOhPCr03V_3syn3pat3PatNtNtBK_5token5CommaEENtNtNtCsfvfooZQ3Axs_4core3ops5deref5Deref5derefBK_, symObjAddr: 0x6D6C, symBinAddr: 0x2ED64, symSize: 0x24 }
  - { offset: 0x76000, size: 0x8, addend: 0x0, symName: __RNvXs6_NtCse1nGBsou5OW_5alloc3vecINtB5_3VecTNtNtCs5AlOhPCr03V_3syn3pat8FieldPatNtNtBK_5token5CommaEENtNtNtCsfvfooZQ3Axs_4core3ops5deref5Deref5derefBK_, symObjAddr: 0x6D90, symBinAddr: 0x2ED88, symSize: 0x24 }
  - { offset: 0x76040, size: 0x8, addend: 0x0, symName: __RNvXs6_NtCse1nGBsou5OW_5alloc3vecINtB5_3VecTNtNtCs5AlOhPCr03V_3syn4data5FieldNtNtBK_5token5CommaEENtNtNtCsfvfooZQ3Axs_4core3ops5deref5Deref5derefBK_, symObjAddr: 0x6DD8, symBinAddr: 0x2EDAC, symSize: 0x24 }
  - { offset: 0x76080, size: 0x8, addend: 0x0, symName: __RNvXs6_NtCse1nGBsou5OW_5alloc3vecINtB5_3VecTNtNtCs5AlOhPCr03V_3syn4data7VariantNtNtBK_5token5CommaEENtNtNtCsfvfooZQ3Axs_4core3ops5deref5Deref5derefBK_, symObjAddr: 0x6DFC, symBinAddr: 0x2EDD0, symSize: 0x24 }
  - { offset: 0x760C0, size: 0x8, addend: 0x0, symName: __RNvXs6_NtCse1nGBsou5OW_5alloc3vecINtB5_3VecTNtNtCs5AlOhPCr03V_3syn4expr10FieldValueNtNtBK_5token5CommaEENtNtNtCsfvfooZQ3Axs_4core3ops5deref5Deref5derefBK_, symObjAddr: 0x6E20, symBinAddr: 0x2EDF4, symSize: 0x24 }
  - { offset: 0x76100, size: 0x8, addend: 0x0, symName: __RNvXs6_NtCse1nGBsou5OW_5alloc3vecINtB5_3VecTNtNtCs5AlOhPCr03V_3syn4expr21GenericMethodArgumentNtNtBK_5token5CommaEENtNtNtCsfvfooZQ3Axs_4core3ops5deref5Deref5derefBK_, symObjAddr: 0x6E44, symBinAddr: 0x2EE18, symSize: 0x24 }
  - { offset: 0x76140, size: 0x8, addend: 0x0, symName: __RNvXs6_NtCse1nGBsou5OW_5alloc3vecINtB5_3VecTNtNtCs5AlOhPCr03V_3syn4expr4ExprNtNtBK_5token5CommaEENtNtNtCsfvfooZQ3Axs_4core3ops5deref5Deref5derefBK_, symObjAddr: 0x6E68, symBinAddr: 0x2EE3C, symSize: 0x24 }
  - { offset: 0x76180, size: 0x8, addend: 0x0, symName: __RNvXs6_NtCse1nGBsou5OW_5alloc3vecINtB5_3VecTNtNtCs5AlOhPCr03V_3syn4item5FnArgNtNtBK_5token5CommaEENtNtNtCsfvfooZQ3Axs_4core3ops5deref5Deref5derefBK_, symObjAddr: 0x6E8C, symBinAddr: 0x2EE60, symSize: 0x24 }
  - { offset: 0x761C0, size: 0x8, addend: 0x0, symName: __RNvXs6_NtCse1nGBsou5OW_5alloc3vecINtB5_3VecTNtNtCs5AlOhPCr03V_3syn4item7UseTreeNtNtBK_5token5CommaEENtNtNtCsfvfooZQ3Axs_4core3ops5deref5Deref5derefBK_, symObjAddr: 0x6EB0, symBinAddr: 0x2EE84, symSize: 0x24 }
  - { offset: 0x76200, size: 0x8, addend: 0x0, symName: __RNvXs6_NtCse1nGBsou5OW_5alloc3vecINtB5_3VecTNtNtCs5AlOhPCr03V_3syn4path11PathSegmentNtNtBK_5token6Colon2EENtNtNtCsfvfooZQ3Axs_4core3ops5deref5Deref5derefBK_, symObjAddr: 0x6ED4, symBinAddr: 0x2EEA8, symSize: 0x24 }
  - { offset: 0x76240, size: 0x8, addend: 0x0, symName: __RNvXs6_NtCse1nGBsou5OW_5alloc3vecINtB5_3VecTNtNtCs5AlOhPCr03V_3syn4path15GenericArgumentNtNtBK_5token5CommaEENtNtNtCsfvfooZQ3Axs_4core3ops5deref5Deref5derefBK_, symObjAddr: 0x6EF8, symBinAddr: 0x2EECC, symSize: 0x24 }
  - { offset: 0x76280, size: 0x8, addend: 0x0, symName: __RNvXs6_NtCse1nGBsou5OW_5alloc3vecINtB5_3VecTNtNtCs5AlOhPCr03V_3syn8generics11LifetimeDefNtNtBK_5token5CommaEENtNtNtCsfvfooZQ3Axs_4core3ops5deref5Deref5derefBK_, symObjAddr: 0x6F1C, symBinAddr: 0x2EEF0, symSize: 0x24 }
  - { offset: 0x762C0, size: 0x8, addend: 0x0, symName: __RNvXs6_NtCse1nGBsou5OW_5alloc3vecINtB5_3VecTNtNtCs5AlOhPCr03V_3syn8generics12GenericParamNtNtBK_5token5CommaEENtNtNtCsfvfooZQ3Axs_4core3ops5deref5Deref5derefBK_, symObjAddr: 0x6F40, symBinAddr: 0x2EF14, symSize: 0x24 }
  - { offset: 0x76300, size: 0x8, addend: 0x0, symName: __RNvXs6_NtCse1nGBsou5OW_5alloc3vecINtB5_3VecTNtNtCs5AlOhPCr03V_3syn8generics14TypeParamBoundNtNtBK_5token3AddEENtNtNtCsfvfooZQ3Axs_4core3ops5deref5Deref5derefBK_, symObjAddr: 0x6F64, symBinAddr: 0x2EF38, symSize: 0x24 }
  - { offset: 0x76340, size: 0x8, addend: 0x0, symName: __RNvXs6_NtCse1nGBsou5OW_5alloc3vecINtB5_3VecTNtNtCs5AlOhPCr03V_3syn8generics14WherePredicateNtNtBK_5token5CommaEENtNtNtCsfvfooZQ3Axs_4core3ops5deref5Deref5derefBK_, symObjAddr: 0x6F88, symBinAddr: 0x2EF5C, symSize: 0x24 }
  - { offset: 0x76380, size: 0x8, addend: 0x0, symName: __RNvXs6_NtCse1nGBsou5OW_5alloc3vecINtB5_3VecTNtNtCs5AlOhPCr03V_3syn8lifetime8LifetimeNtNtBK_5token3AddEENtNtNtCsfvfooZQ3Axs_4core3ops5deref5Deref5derefBK_, symObjAddr: 0x6FAC, symBinAddr: 0x2EF80, symSize: 0x24 }
  - { offset: 0x763C0, size: 0x8, addend: 0x0, symName: __RNvXs6_NtCse1nGBsou5OW_5alloc3vecINtB5_3VechENtNtNtCsfvfooZQ3Axs_4core3ops5deref5Deref5derefCs5AlOhPCr03V_3syn, symObjAddr: 0x6FD0, symBinAddr: 0x2EFA4, symSize: 0x24 }
  - { offset: 0x766A6, size: 0x8, addend: 0x0, symName: __RNvXsb_NtCse1nGBsou5OW_5alloc3vecINtB5_3VecNtNtCs5AlOhPCr03V_3syn4stmt4StmtEINtNtNtCsfvfooZQ3Axs_4core3ops5index5IndexjE5indexBJ_, symObjAddr: 0x8018, symBinAddr: 0x2F0C4, symSize: 0x84 }
  - { offset: 0x76828, size: 0x8, addend: 0x0, symName: __RNvXsb_NtCse1nGBsou5OW_5alloc3vecINtB5_3VecNtNtCs5AlOhPCr03V_3syn5error12ErrorMessageEINtNtNtCsfvfooZQ3Axs_4core3ops5index5IndexjE5indexBJ_, symObjAddr: 0x809C, symBinAddr: 0x2F148, symSize: 0x84 }
  - { offset: 0x769AA, size: 0x8, addend: 0x0, symName: __RNvXsb_NtCse1nGBsou5OW_5alloc3vecINtB5_3VecReEINtNtNtCsfvfooZQ3Axs_4core3ops5index5IndexjE5indexCs5AlOhPCr03V_3syn, symObjAddr: 0x8120, symBinAddr: 0x2F1CC, symSize: 0x84 }
  - { offset: 0x76B2C, size: 0x8, addend: 0x0, symName: __RNvXsb_NtCse1nGBsou5OW_5alloc3vecINtB5_3VecTNtNtCs5AlOhPCr03V_3syn4path11PathSegmentNtNtBK_5token6Colon2EEINtNtNtCsfvfooZQ3Axs_4core3ops5index5IndexjE5indexBK_, symObjAddr: 0x81A4, symBinAddr: 0x2F250, symSize: 0x84 }
  - { offset: 0x76CAE, size: 0x8, addend: 0x0, symName: __RNvXsb_NtCse1nGBsou5OW_5alloc3vecINtB5_3VechEINtNtNtCsfvfooZQ3Axs_4core3ops5index5IndexINtNtBM_5range9RangeFromjEE5indexCs5AlOhPCr03V_3syn, symObjAddr: 0x8228, symBinAddr: 0x2F2D4, symSize: 0x80 }
  - { offset: 0x76E30, size: 0x8, addend: 0x0, symName: __RNvXsb_NtCse1nGBsou5OW_5alloc3vecINtB5_3VechEINtNtNtCsfvfooZQ3Axs_4core3ops5index5IndexjE5indexCs5AlOhPCr03V_3syn, symObjAddr: 0x82A8, symBinAddr: 0x2F354, symSize: 0x80 }
  - { offset: 0x76FBD, size: 0x8, addend: 0x0, symName: __RNvXNtNtCse1nGBsou5OW_5alloc3vec11spec_extendINtB4_3VecNtCs3cP53eQoTwO_11proc_macro29TokenTreeEINtB2_10SpecExtendBR_INtNtNtNtCsfvfooZQ3Axs_4core4iter8adapters7flatten7FlattenINtNtB1V_3map3MapIB2N_IB2N_INtNtNtB1Z_5slice4iter4IterNtNtCs5AlOhPCr03V_3syn5error12ErrorMessageENvMs_B3G_B3E_16to_compile_errorENCINvXs7_BT_NtBT_11TokenStreamINtNtNtB1X_6traits7collect12FromIteratorB53_E9from_iterB38_E0ENCINvXs6_NtBT_3impNtB6u_11TokenStreamIB5m_B6D_E9from_iterB33_Es_0EEE11spec_extendB3I_, symObjAddr: 0x6884, symBinAddr: 0x2EBAC, symSize: 0x24 }
  - { offset: 0x77015, size: 0x8, addend: 0x0, symName: __RNvXs0_NtNtCse1nGBsou5OW_5alloc3vec11spec_extendINtB7_3VecNtNtCs5AlOhPCr03V_3syn4attr9AttributeEINtB5_10SpecExtendBU_INtNtB7_9into_iter8IntoIterBU_EE11spec_extendBY_, symObjAddr: 0x6B10, symBinAddr: 0x2EBD0, symSize: 0x98 }
  - { offset: 0x77081, size: 0x8, addend: 0x0, symName: __RNvXs_NtNtCse1nGBsou5OW_5alloc3vec11spec_extendINtB6_3VecNtNtCs5AlOhPCr03V_3syn4data5FieldEINtB4_10SpecExtendBT_INtNtCsfvfooZQ3Axs_4core6option8IntoIterBT_EE11spec_extendBX_, symObjAddr: 0x7F64, symBinAddr: 0x2F034, symSize: 0x24 }
  - { offset: 0x770D3, size: 0x8, addend: 0x0, symName: __RNvXs_NtNtCse1nGBsou5OW_5alloc3vec11spec_extendINtB6_3VecNtNtCs5AlOhPCr03V_3syn4data5FieldEINtB4_10SpecExtendBT_INtNtNtNtCsfvfooZQ3Axs_4core4iter8adapters3map3MapINtNtB6_9into_iter8IntoIterTBT_NtNtBX_5token5CommaEENCNvXs8_NtBX_10punctuatedINtB3y_10PunctuatedBT_B35_ENtNtNtB1T_6traits7collect12IntoIterator9into_iter0EE11spec_extendBX_, symObjAddr: 0x7F88, symBinAddr: 0x2F058, symSize: 0x24 }
  - { offset: 0x77125, size: 0x8, addend: 0x0, symName: __RNvXs_NtNtCse1nGBsou5OW_5alloc3vec11spec_extendINtB6_3VecNtNtCs5AlOhPCr03V_3syn8generics14TypeParamBoundEINtB4_10SpecExtendBT_INtNtCsfvfooZQ3Axs_4core6option8IntoIterBT_EE11spec_extendBX_, symObjAddr: 0x7FD0, symBinAddr: 0x2F07C, symSize: 0x24 }
  - { offset: 0x77177, size: 0x8, addend: 0x0, symName: __RNvXs_NtNtCse1nGBsou5OW_5alloc3vec11spec_extendINtB6_3VecNtNtCs5AlOhPCr03V_3syn8generics14TypeParamBoundEINtB4_10SpecExtendBT_INtNtNtNtCsfvfooZQ3Axs_4core4iter8adapters3map3MapINtNtB6_9into_iter8IntoIterTBT_NtNtBX_5token3AddEENCNvXs8_NtBX_10punctuatedINtB3K_10PunctuatedBT_B3j_ENtNtNtB27_6traits7collect12IntoIterator9into_iter0EE11spec_extendBX_, symObjAddr: 0x7FF4, symBinAddr: 0x2F0A0, symSize: 0x24 }
  - { offset: 0x771D0, size: 0x8, addend: 0x0, symName: __RNvXs7_NtCse1nGBsou5OW_5alloc3vecINtB5_3VecTNtNtCs5AlOhPCr03V_3syn4item5FnArgNtNtBK_5token5CommaEENtNtNtCsfvfooZQ3Axs_4core3ops5deref8DerefMut9deref_mutBK_, symObjAddr: 0x7018, symBinAddr: 0x2EFC8, symSize: 0x24 }
  - { offset: 0x77210, size: 0x8, addend: 0x0, symName: __RNvXs7_NtCse1nGBsou5OW_5alloc3vecINtB5_3VecTNtNtCs5AlOhPCr03V_3syn4path11PathSegmentNtNtBK_5token6Colon2EENtNtNtCsfvfooZQ3Axs_4core3ops5deref8DerefMut9deref_mutBK_, symObjAddr: 0x703C, symBinAddr: 0x2EFEC, symSize: 0x24 }
  - { offset: 0x77250, size: 0x8, addend: 0x0, symName: __RNvXs7_NtCse1nGBsou5OW_5alloc3vecINtB5_3VecTNtNtCs5AlOhPCr03V_3syn8generics12GenericParamNtNtBK_5token5CommaEENtNtNtCsfvfooZQ3Axs_4core3ops5deref8DerefMut9deref_mutBK_, symObjAddr: 0x7060, symBinAddr: 0x2F010, symSize: 0x24 }
  - { offset: 0x77326, size: 0x8, addend: 0x0, symName: __RNvXsc_NtCse1nGBsou5OW_5alloc3vecINtB5_3VecNtNtCs5AlOhPCr03V_3syn6buffer5EntryEINtNtNtCsfvfooZQ3Axs_4core3ops5index8IndexMutjE9index_mutBJ_, symObjAddr: 0x8328, symBinAddr: 0x2F3D4, symSize: 0x84 }
  - { offset: 0x7747A, size: 0x8, addend: 0x0, symName: __RNvXsc_NtCse1nGBsou5OW_5alloc3vecINtB5_3VechEINtNtNtCsfvfooZQ3Axs_4core3ops5index8IndexMutjE9index_mutCs5AlOhPCr03V_3syn, symObjAddr: 0x83AC, symBinAddr: 0x2F458, symSize: 0x80 }
  - { offset: 0x775D4, size: 0x8, addend: 0x0, symName: __RNvXse_NtCse1nGBsou5OW_5alloc3vecINtB5_3VecNtNtCs5AlOhPCr03V_3syn4attr9AttributeENtNtNtNtCsfvfooZQ3Axs_4core4iter6traits7collect12IntoIterator9into_iterBJ_, symObjAddr: 0x842C, symBinAddr: 0x2F4D8, symSize: 0xE4 }
  - { offset: 0x77866, size: 0x8, addend: 0x0, symName: __RNvXse_NtCse1nGBsou5OW_5alloc3vecINtB5_3VecNtNtCs5AlOhPCr03V_3syn4data5FieldENtNtNtNtCsfvfooZQ3Axs_4core4iter6traits7collect12IntoIterator9into_iterBJ_, symObjAddr: 0x8510, symBinAddr: 0x2F5BC, symSize: 0xE4 }
  - { offset: 0x77AF8, size: 0x8, addend: 0x0, symName: __RNvXse_NtCse1nGBsou5OW_5alloc3vecINtB5_3VecNtNtCs5AlOhPCr03V_3syn8generics14TypeParamBoundENtNtNtNtCsfvfooZQ3Axs_4core4iter6traits7collect12IntoIterator9into_iterBJ_, symObjAddr: 0x86D8, symBinAddr: 0x2F6A0, symSize: 0xE4 }
  - { offset: 0x77D8A, size: 0x8, addend: 0x0, symName: __RNvXse_NtCse1nGBsou5OW_5alloc3vecINtB5_3VecTNtNtCs5AlOhPCr03V_3syn4data5FieldNtNtBK_5token5CommaEENtNtNtNtCsfvfooZQ3Axs_4core4iter6traits7collect12IntoIterator9into_iterBK_, symObjAddr: 0x87BC, symBinAddr: 0x2F784, symSize: 0xE4 }
  - { offset: 0x7801C, size: 0x8, addend: 0x0, symName: __RNvXse_NtCse1nGBsou5OW_5alloc3vecINtB5_3VecTNtNtCs5AlOhPCr03V_3syn4path11PathSegmentNtNtBK_5token6Colon2EENtNtNtNtCsfvfooZQ3Axs_4core4iter6traits7collect12IntoIterator9into_iterBK_, symObjAddr: 0x8984, symBinAddr: 0x2F868, symSize: 0xE4 }
  - { offset: 0x782AE, size: 0x8, addend: 0x0, symName: __RNvXse_NtCse1nGBsou5OW_5alloc3vecINtB5_3VecTNtNtCs5AlOhPCr03V_3syn8generics14TypeParamBoundNtNtBK_5token3AddEENtNtNtNtCsfvfooZQ3Axs_4core4iter6traits7collect12IntoIterator9into_iterBK_, symObjAddr: 0x8A68, symBinAddr: 0x2F94C, symSize: 0xE4 }
  - { offset: 0x78546, size: 0x8, addend: 0x0, symName: __RNvXsf_NtCse1nGBsou5OW_5alloc3vecRINtB5_3VecNtNtCs5AlOhPCr03V_3syn4attr9AttributeENtNtNtNtCsfvfooZQ3Axs_4core4iter6traits7collect12IntoIterator9into_iterBK_, symObjAddr: 0x8B4C, symBinAddr: 0x2FA30, symSize: 0xA4 }
  - { offset: 0x787A2, size: 0x8, addend: 0x0, symName: __RNvXsf_NtCse1nGBsou5OW_5alloc3vecRINtB5_3VecNtNtCs5AlOhPCr03V_3syn4item11ForeignItemENtNtNtNtCsfvfooZQ3Axs_4core4iter6traits7collect12IntoIterator9into_iterBK_, symObjAddr: 0x8BF0, symBinAddr: 0x2FAD4, symSize: 0xA4 }
  - { offset: 0x789FE, size: 0x8, addend: 0x0, symName: __RNvXsf_NtCse1nGBsou5OW_5alloc3vecRINtB5_3VecNtNtCs5AlOhPCr03V_3syn4item4ItemENtNtNtNtCsfvfooZQ3Axs_4core4iter6traits7collect12IntoIterator9into_iterBK_, symObjAddr: 0x8C94, symBinAddr: 0x2FB78, symSize: 0xA4 }
  - { offset: 0x78C5A, size: 0x8, addend: 0x0, symName: __RNvXsf_NtCse1nGBsou5OW_5alloc3vecRINtB5_3VecNtNtCs5AlOhPCr03V_3syn4item8ImplItemENtNtNtNtCsfvfooZQ3Axs_4core4iter6traits7collect12IntoIterator9into_iterBK_, symObjAddr: 0x8D38, symBinAddr: 0x2FC1C, symSize: 0xA4 }
  - { offset: 0x78EB6, size: 0x8, addend: 0x0, symName: __RNvXsf_NtCse1nGBsou5OW_5alloc3vecRINtB5_3VecNtNtCs5AlOhPCr03V_3syn4item9TraitItemENtNtNtNtCsfvfooZQ3Axs_4core4iter6traits7collect12IntoIterator9into_iterBK_, symObjAddr: 0x8DDC, symBinAddr: 0x2FCC0, symSize: 0xA4 }
  - { offset: 0x79112, size: 0x8, addend: 0x0, symName: __RNvXsf_NtCse1nGBsou5OW_5alloc3vecRINtB5_3VecNtNtCs5AlOhPCr03V_3syn4stmt4StmtENtNtNtNtCsfvfooZQ3Axs_4core4iter6traits7collect12IntoIterator9into_iterBK_, symObjAddr: 0x8E80, symBinAddr: 0x2FD64, symSize: 0xA4 }
  - { offset: 0x79374, size: 0x8, addend: 0x0, symName: __RNvXsg_NtCse1nGBsou5OW_5alloc3vecQINtB5_3VechENtNtNtNtCsfvfooZQ3Axs_4core4iter6traits7collect12IntoIterator9into_iterCs5AlOhPCr03V_3syn, symObjAddr: 0x9BE4, symBinAddr: 0x2FE08, symSize: 0x98 }
  - { offset: 0x795A8, size: 0x8, addend: 0x0, symName: __RNvXsn_NtCse1nGBsou5OW_5alloc3vecINtB5_3VecNtNtCs5AlOhPCr03V_3syn4attr9AttributeENtNtNtCsfvfooZQ3Axs_4core3ops4drop4Drop4dropBJ_, symObjAddr: 0x9CB4, symBinAddr: 0x2FEA0, symSize: 0x38 }
  - { offset: 0x79658, size: 0x8, addend: 0x0, symName: __RNvXsn_NtCse1nGBsou5OW_5alloc3vecINtB5_3VecNtNtCs5AlOhPCr03V_3syn4data5FieldENtNtNtCsfvfooZQ3Axs_4core3ops4drop4Drop4dropBJ_, symObjAddr: 0x9CEC, symBinAddr: 0x2FED8, symSize: 0x38 }
  - { offset: 0x79708, size: 0x8, addend: 0x0, symName: __RNvXsn_NtCse1nGBsou5OW_5alloc3vecINtB5_3VecNtNtCs5AlOhPCr03V_3syn4expr3ArmENtNtNtCsfvfooZQ3Axs_4core3ops4drop4Drop4dropBJ_, symObjAddr: 0x9D24, symBinAddr: 0x2FF10, symSize: 0x38 }
  - { offset: 0x797B8, size: 0x8, addend: 0x0, symName: __RNvXsn_NtCse1nGBsou5OW_5alloc3vecINtB5_3VecNtNtCs5AlOhPCr03V_3syn4item11ForeignItemENtNtNtCsfvfooZQ3Axs_4core3ops4drop4Drop4dropBJ_, symObjAddr: 0x9D5C, symBinAddr: 0x2FF48, symSize: 0x38 }
  - { offset: 0x79868, size: 0x8, addend: 0x0, symName: __RNvXsn_NtCse1nGBsou5OW_5alloc3vecINtB5_3VecNtNtCs5AlOhPCr03V_3syn4item4ItemENtNtNtCsfvfooZQ3Axs_4core3ops4drop4Drop4dropBJ_, symObjAddr: 0x9D94, symBinAddr: 0x2FF80, symSize: 0x38 }
  - { offset: 0x79918, size: 0x8, addend: 0x0, symName: __RNvXsn_NtCse1nGBsou5OW_5alloc3vecINtB5_3VecNtNtCs5AlOhPCr03V_3syn4item8ImplItemENtNtNtCsfvfooZQ3Axs_4core3ops4drop4Drop4dropBJ_, symObjAddr: 0x9DCC, symBinAddr: 0x2FFB8, symSize: 0x38 }
  - { offset: 0x799C8, size: 0x8, addend: 0x0, symName: __RNvXsn_NtCse1nGBsou5OW_5alloc3vecINtB5_3VecNtNtCs5AlOhPCr03V_3syn4item9TraitItemENtNtNtCsfvfooZQ3Axs_4core3ops4drop4Drop4dropBJ_, symObjAddr: 0x9E04, symBinAddr: 0x2FFF0, symSize: 0x38 }
  - { offset: 0x79A78, size: 0x8, addend: 0x0, symName: __RNvXsn_NtCse1nGBsou5OW_5alloc3vecINtB5_3VecNtNtCs5AlOhPCr03V_3syn4stmt4StmtENtNtNtCsfvfooZQ3Axs_4core3ops4drop4Drop4dropBJ_, symObjAddr: 0x9E3C, symBinAddr: 0x30028, symSize: 0x38 }
  - { offset: 0x79B28, size: 0x8, addend: 0x0, symName: __RNvXsn_NtCse1nGBsou5OW_5alloc3vecINtB5_3VecNtNtCs5AlOhPCr03V_3syn5error12ErrorMessageENtNtNtCsfvfooZQ3Axs_4core3ops4drop4Drop4dropBJ_, symObjAddr: 0x9E74, symBinAddr: 0x30060, symSize: 0x38 }
  - { offset: 0x79BD8, size: 0x8, addend: 0x0, symName: __RNvXsn_NtCse1nGBsou5OW_5alloc3vecINtB5_3VecNtNtCs5AlOhPCr03V_3syn6buffer5EntryENtNtNtCsfvfooZQ3Axs_4core3ops4drop4Drop4dropBJ_, symObjAddr: 0x9EAC, symBinAddr: 0x30098, symSize: 0x38 }
  - { offset: 0x79C88, size: 0x8, addend: 0x0, symName: __RNvXsn_NtCse1nGBsou5OW_5alloc3vecINtB5_3VecNtNtCs5AlOhPCr03V_3syn8generics14TypeParamBoundENtNtNtCsfvfooZQ3Axs_4core3ops4drop4Drop4dropBJ_, symObjAddr: 0x9EE4, symBinAddr: 0x300D0, symSize: 0x38 }
  - { offset: 0x79D38, size: 0x8, addend: 0x0, symName: __RNvXsn_NtCse1nGBsou5OW_5alloc3vecINtB5_3VecReENtNtNtCsfvfooZQ3Axs_4core3ops4drop4Drop4dropCs5AlOhPCr03V_3syn, symObjAddr: 0x9F1C, symBinAddr: 0x30108, symSize: 0x24 }
  - { offset: 0x79DE8, size: 0x8, addend: 0x0, symName: __RNvXsn_NtCse1nGBsou5OW_5alloc3vecINtB5_3VecTNtNtCs5AlOhPCr03V_3syn2ty4TypeNtNtBK_5token5CommaEENtNtNtCsfvfooZQ3Axs_4core3ops4drop4Drop4dropBK_, symObjAddr: 0x9F40, symBinAddr: 0x3012C, symSize: 0x38 }
  - { offset: 0x79E98, size: 0x8, addend: 0x0, symName: __RNvXsn_NtCse1nGBsou5OW_5alloc3vecINtB5_3VecTNtNtCs5AlOhPCr03V_3syn2ty9BareFnArgNtNtBK_5token5CommaEENtNtNtCsfvfooZQ3Axs_4core3ops4drop4Drop4dropBK_, symObjAddr: 0x9F78, symBinAddr: 0x30164, symSize: 0x38 }
  - { offset: 0x79F48, size: 0x8, addend: 0x0, symName: __RNvXsn_NtCse1nGBsou5OW_5alloc3vecINtB5_3VecTNtNtCs5AlOhPCr03V_3syn3pat3PatNtNtBK_5token2OrEENtNtNtCsfvfooZQ3Axs_4core3ops4drop4Drop4dropBK_, symObjAddr: 0x9FB0, symBinAddr: 0x3019C, symSize: 0x38 }
  - { offset: 0x79FF8, size: 0x8, addend: 0x0, symName: __RNvXsn_NtCse1nGBsou5OW_5alloc3vecINtB5_3VecTNtNtCs5AlOhPCr03V_3syn3pat3PatNtNtBK_5token5CommaEENtNtNtCsfvfooZQ3Axs_4core3ops4drop4Drop4dropBK_, symObjAddr: 0x9FE8, symBinAddr: 0x301D4, symSize: 0x38 }
  - { offset: 0x7A0A8, size: 0x8, addend: 0x0, symName: __RNvXsn_NtCse1nGBsou5OW_5alloc3vecINtB5_3VecTNtNtCs5AlOhPCr03V_3syn3pat8FieldPatNtNtBK_5token5CommaEENtNtNtCsfvfooZQ3Axs_4core3ops4drop4Drop4dropBK_, symObjAddr: 0xA020, symBinAddr: 0x3020C, symSize: 0x38 }
  - { offset: 0x7A158, size: 0x8, addend: 0x0, symName: __RNvXsn_NtCse1nGBsou5OW_5alloc3vecINtB5_3VecTNtNtCs5AlOhPCr03V_3syn4data5FieldNtNtBK_5token5CommaEENtNtNtCsfvfooZQ3Axs_4core3ops4drop4Drop4dropBK_, symObjAddr: 0xA090, symBinAddr: 0x30244, symSize: 0x38 }
  - { offset: 0x7A208, size: 0x8, addend: 0x0, symName: __RNvXsn_NtCse1nGBsou5OW_5alloc3vecINtB5_3VecTNtNtCs5AlOhPCr03V_3syn4data7VariantNtNtBK_5token5CommaEENtNtNtCsfvfooZQ3Axs_4core3ops4drop4Drop4dropBK_, symObjAddr: 0xA100, symBinAddr: 0x3027C, symSize: 0x38 }
  - { offset: 0x7A2B8, size: 0x8, addend: 0x0, symName: __RNvXsn_NtCse1nGBsou5OW_5alloc3vecINtB5_3VecTNtNtCs5AlOhPCr03V_3syn4expr10FieldValueNtNtBK_5token5CommaEENtNtNtCsfvfooZQ3Axs_4core3ops4drop4Drop4dropBK_, symObjAddr: 0xA138, symBinAddr: 0x302B4, symSize: 0x38 }
  - { offset: 0x7A368, size: 0x8, addend: 0x0, symName: __RNvXsn_NtCse1nGBsou5OW_5alloc3vecINtB5_3VecTNtNtCs5AlOhPCr03V_3syn4expr21GenericMethodArgumentNtNtBK_5token5CommaEENtNtNtCsfvfooZQ3Axs_4core3ops4drop4Drop4dropBK_, symObjAddr: 0xA170, symBinAddr: 0x302EC, symSize: 0x38 }
  - { offset: 0x7A418, size: 0x8, addend: 0x0, symName: __RNvXsn_NtCse1nGBsou5OW_5alloc3vecINtB5_3VecTNtNtCs5AlOhPCr03V_3syn4expr4ExprNtNtBK_5token5CommaEENtNtNtCsfvfooZQ3Axs_4core3ops4drop4Drop4dropBK_, symObjAddr: 0xA1A8, symBinAddr: 0x30324, symSize: 0x38 }
  - { offset: 0x7A4C8, size: 0x8, addend: 0x0, symName: __RNvXsn_NtCse1nGBsou5OW_5alloc3vecINtB5_3VecTNtNtCs5AlOhPCr03V_3syn4item5FnArgNtNtBK_5token5CommaEENtNtNtCsfvfooZQ3Axs_4core3ops4drop4Drop4dropBK_, symObjAddr: 0xA1E0, symBinAddr: 0x3035C, symSize: 0x38 }
  - { offset: 0x7A578, size: 0x8, addend: 0x0, symName: __RNvXsn_NtCse1nGBsou5OW_5alloc3vecINtB5_3VecTNtNtCs5AlOhPCr03V_3syn4item7UseTreeNtNtBK_5token5CommaEENtNtNtCsfvfooZQ3Axs_4core3ops4drop4Drop4dropBK_, symObjAddr: 0xA218, symBinAddr: 0x30394, symSize: 0x38 }
  - { offset: 0x7A628, size: 0x8, addend: 0x0, symName: __RNvXsn_NtCse1nGBsou5OW_5alloc3vecINtB5_3VecTNtNtCs5AlOhPCr03V_3syn4path11PathSegmentNtNtBK_5token6Colon2EENtNtNtCsfvfooZQ3Axs_4core3ops4drop4Drop4dropBK_, symObjAddr: 0xA250, symBinAddr: 0x303CC, symSize: 0x38 }
  - { offset: 0x7A6D8, size: 0x8, addend: 0x0, symName: __RNvXsn_NtCse1nGBsou5OW_5alloc3vecINtB5_3VecTNtNtCs5AlOhPCr03V_3syn4path15GenericArgumentNtNtBK_5token5CommaEENtNtNtCsfvfooZQ3Axs_4core3ops4drop4Drop4dropBK_, symObjAddr: 0xA288, symBinAddr: 0x30404, symSize: 0x38 }
  - { offset: 0x7A788, size: 0x8, addend: 0x0, symName: __RNvXsn_NtCse1nGBsou5OW_5alloc3vecINtB5_3VecTNtNtCs5AlOhPCr03V_3syn8generics11LifetimeDefNtNtBK_5token5CommaEENtNtNtCsfvfooZQ3Axs_4core3ops4drop4Drop4dropBK_, symObjAddr: 0xA2C0, symBinAddr: 0x3043C, symSize: 0x38 }
  - { offset: 0x7A838, size: 0x8, addend: 0x0, symName: __RNvXsn_NtCse1nGBsou5OW_5alloc3vecINtB5_3VecTNtNtCs5AlOhPCr03V_3syn8generics12GenericParamNtNtBK_5token5CommaEENtNtNtCsfvfooZQ3Axs_4core3ops4drop4Drop4dropBK_, symObjAddr: 0xA2F8, symBinAddr: 0x30474, symSize: 0x38 }
  - { offset: 0x7A8E8, size: 0x8, addend: 0x0, symName: __RNvXsn_NtCse1nGBsou5OW_5alloc3vecINtB5_3VecTNtNtCs5AlOhPCr03V_3syn8generics14TypeParamBoundNtNtBK_5token3AddEENtNtNtCsfvfooZQ3Axs_4core3ops4drop4Drop4dropBK_, symObjAddr: 0xA330, symBinAddr: 0x304AC, symSize: 0x38 }
  - { offset: 0x7A998, size: 0x8, addend: 0x0, symName: __RNvXsn_NtCse1nGBsou5OW_5alloc3vecINtB5_3VecTNtNtCs5AlOhPCr03V_3syn8generics14WherePredicateNtNtBK_5token5CommaEENtNtNtCsfvfooZQ3Axs_4core3ops4drop4Drop4dropBK_, symObjAddr: 0xA368, symBinAddr: 0x304E4, symSize: 0x38 }
  - { offset: 0x7AA48, size: 0x8, addend: 0x0, symName: __RNvXsn_NtCse1nGBsou5OW_5alloc3vecINtB5_3VecTNtNtCs5AlOhPCr03V_3syn8lifetime8LifetimeNtNtBK_5token3AddEENtNtNtCsfvfooZQ3Axs_4core3ops4drop4Drop4dropBK_, symObjAddr: 0xA3A0, symBinAddr: 0x3051C, symSize: 0x38 }
  - { offset: 0x7AAFE, size: 0x8, addend: 0x0, symName: __RNvXsp_NtCse1nGBsou5OW_5alloc3vecINtB5_3VecNtNtCs5AlOhPCr03V_3syn5error12ErrorMessageENtNtCsfvfooZQ3Axs_4core3fmt5Debug3fmtBJ_, symObjAddr: 0xA704, symBinAddr: 0x30554, symSize: 0x74 }
  - { offset: 0x7AC0E, size: 0x8, addend: 0x0, symName: __RNvXsp_NtCse1nGBsou5OW_5alloc3vecINtB5_3VechENtNtCsfvfooZQ3Axs_4core3fmt5Debug3fmtCs5AlOhPCr03V_3syn, symObjAddr: 0xA778, symBinAddr: 0x305C8, symSize: 0x70 }
  - { offset: 0x826FE, size: 0x8, addend: 0x0, symName: __RINvMsi_NtCse1nGBsou5OW_5alloc3vecINtB6_3VecNtCs3cP53eQoTwO_11proc_macro29TokenTreeE16extend_desugaredINtNtNtNtCsfvfooZQ3Axs_4core4iter8adapters7flatten7FlattenINtNtB1H_3map3MapIB2z_IB2z_INtNtNtB1L_5slice4iter4IterNtNtCs5AlOhPCr03V_3syn5error12ErrorMessageENvMs_B3s_B3q_16to_compile_errorENCINvXs7_BI_NtBI_11TokenStreamINtNtNtB1J_6traits7collect12FromIteratorB4P_E9from_iterB2U_E0ENCINvXs6_NtBI_3impNtB6g_11TokenStreamIB58_B6p_E9from_iterB2P_Es_0EEEB3u_, symObjAddr: 0x0, symBinAddr: 0x2A304, symSize: 0x1D4 }
  - { offset: 0x83080, size: 0x8, addend: 0x0, symName: __RINvMsi_NtCse1nGBsou5OW_5alloc3vecINtB6_3VecNtNtCs5AlOhPCr03V_3syn4data5FieldE14extend_trustedINtNtCsfvfooZQ3Axs_4core6option8IntoIterBG_EEBK_, symObjAddr: 0x3A8, symBinAddr: 0x2A4D8, symSize: 0x1A0 }
  - { offset: 0x8332C, size: 0x8, addend: 0x0, symName: __RINvMsi_NtCse1nGBsou5OW_5alloc3vecINtB6_3VecNtNtCs5AlOhPCr03V_3syn4data5FieldE14extend_trustedINtNtNtNtCsfvfooZQ3Axs_4core4iter8adapters3map3MapINtNtB6_9into_iter8IntoIterTBG_NtNtBK_5token5CommaEENCNvXs8_NtBK_10punctuatedINtB3g_10PunctuatedBG_B2N_ENtNtNtB1B_6traits7collect12IntoIterator9into_iter0EEBK_, symObjAddr: 0x548, symBinAddr: 0x2A678, symSize: 0x188 }
  - { offset: 0x8362B, size: 0x8, addend: 0x0, symName: __RINvMsi_NtCse1nGBsou5OW_5alloc3vecINtB6_3VecNtNtCs5AlOhPCr03V_3syn8generics14TypeParamBoundE14extend_trustedINtNtCsfvfooZQ3Axs_4core6option8IntoIterBG_EEBK_, symObjAddr: 0x858, symBinAddr: 0x2A800, symSize: 0x1A0 }
  - { offset: 0x838D6, size: 0x8, addend: 0x0, symName: __RINvMsi_NtCse1nGBsou5OW_5alloc3vecINtB6_3VecNtNtCs5AlOhPCr03V_3syn8generics14TypeParamBoundE14extend_trustedINtNtNtNtCsfvfooZQ3Axs_4core4iter8adapters3map3MapINtNtB6_9into_iter8IntoIterTBG_NtNtBK_5token3AddEENCNvXs8_NtBK_10punctuatedINtB3s_10PunctuatedBG_B31_ENtNtNtB1P_6traits7collect12IntoIterator9into_iter0EEBK_, symObjAddr: 0x9F8, symBinAddr: 0x2A9A0, symSize: 0x188 }
  - { offset: 0x83B23, size: 0x8, addend: 0x0, symName: __RNvMNtCse1nGBsou5OW_5alloc3vecINtB2_3VecNtNtCs5AlOhPCr03V_3syn4attr9AttributeE3newBG_, symObjAddr: 0xFBC, symBinAddr: 0x2AE30, symSize: 0x14 }
  - { offset: 0x83BA2, size: 0x8, addend: 0x0, symName: __RNvMNtCse1nGBsou5OW_5alloc3vecINtB2_3VecNtNtCs5AlOhPCr03V_3syn4data5FieldE13with_capacityBG_, symObjAddr: 0xFD0, symBinAddr: 0x2AE44, symSize: 0x48 }
  - { offset: 0x83C1A, size: 0x8, addend: 0x0, symName: __RNvMNtCse1nGBsou5OW_5alloc3vecINtB2_3VecNtNtCs5AlOhPCr03V_3syn4expr3ArmE3newBG_, symObjAddr: 0x1018, symBinAddr: 0x2AE8C, symSize: 0x14 }
  - { offset: 0x83C37, size: 0x8, addend: 0x0, symName: __RNvMNtCse1nGBsou5OW_5alloc3vecINtB2_3VecNtNtCs5AlOhPCr03V_3syn4item11ForeignItemE3newBG_, symObjAddr: 0x102C, symBinAddr: 0x2AEA0, symSize: 0x14 }
  - { offset: 0x83C54, size: 0x8, addend: 0x0, symName: __RNvMNtCse1nGBsou5OW_5alloc3vecINtB2_3VecNtNtCs5AlOhPCr03V_3syn4item4ItemE3newBG_, symObjAddr: 0x1040, symBinAddr: 0x2AEB4, symSize: 0x14 }
  - { offset: 0x83C71, size: 0x8, addend: 0x0, symName: __RNvMNtCse1nGBsou5OW_5alloc3vecINtB2_3VecNtNtCs5AlOhPCr03V_3syn4item8ImplItemE3newBG_, symObjAddr: 0x1054, symBinAddr: 0x2AEC8, symSize: 0x14 }
  - { offset: 0x83C8E, size: 0x8, addend: 0x0, symName: __RNvMNtCse1nGBsou5OW_5alloc3vecINtB2_3VecNtNtCs5AlOhPCr03V_3syn4item9TraitItemE3newBG_, symObjAddr: 0x1068, symBinAddr: 0x2AEDC, symSize: 0x14 }
  - { offset: 0x83CAB, size: 0x8, addend: 0x0, symName: __RNvMNtCse1nGBsou5OW_5alloc3vecINtB2_3VecNtNtCs5AlOhPCr03V_3syn4stmt4StmtE3newBG_, symObjAddr: 0x107C, symBinAddr: 0x2AEF0, symSize: 0x14 }
  - { offset: 0x83CCF, size: 0x8, addend: 0x0, symName: __RNvMNtCse1nGBsou5OW_5alloc3vecINtB2_3VecNtNtCs5AlOhPCr03V_3syn6buffer5EntryE3newBG_, symObjAddr: 0x1090, symBinAddr: 0x2AF04, symSize: 0x14 }
  - { offset: 0x83D4E, size: 0x8, addend: 0x0, symName: __RNvMNtCse1nGBsou5OW_5alloc3vecINtB2_3VecNtNtCs5AlOhPCr03V_3syn8generics14TypeParamBoundE13with_capacityBG_, symObjAddr: 0x10A4, symBinAddr: 0x2AF18, symSize: 0x48 }
  - { offset: 0x83DC6, size: 0x8, addend: 0x0, symName: __RNvMNtCse1nGBsou5OW_5alloc3vecINtB2_3VecReE3newCs5AlOhPCr03V_3syn, symObjAddr: 0x10EC, symBinAddr: 0x2AF60, symSize: 0x14 }
  - { offset: 0x83DE3, size: 0x8, addend: 0x0, symName: __RNvMNtCse1nGBsou5OW_5alloc3vecINtB2_3VecTNtNtCs5AlOhPCr03V_3syn2ty4TypeNtNtBH_5token5CommaEE3newBH_, symObjAddr: 0x1100, symBinAddr: 0x2AF74, symSize: 0x14 }
  - { offset: 0x83E00, size: 0x8, addend: 0x0, symName: __RNvMNtCse1nGBsou5OW_5alloc3vecINtB2_3VecTNtNtCs5AlOhPCr03V_3syn2ty9BareFnArgNtNtBH_5token5CommaEE3newBH_, symObjAddr: 0x1114, symBinAddr: 0x2AF88, symSize: 0x14 }
  - { offset: 0x83E1D, size: 0x8, addend: 0x0, symName: __RNvMNtCse1nGBsou5OW_5alloc3vecINtB2_3VecTNtNtCs5AlOhPCr03V_3syn3pat3PatNtNtBH_5token2OrEE3newBH_, symObjAddr: 0x1128, symBinAddr: 0x2AF9C, symSize: 0x14 }
  - { offset: 0x83E3A, size: 0x8, addend: 0x0, symName: __RNvMNtCse1nGBsou5OW_5alloc3vecINtB2_3VecTNtNtCs5AlOhPCr03V_3syn3pat3PatNtNtBH_5token5CommaEE3newBH_, symObjAddr: 0x113C, symBinAddr: 0x2AFB0, symSize: 0x14 }
  - { offset: 0x83E57, size: 0x8, addend: 0x0, symName: __RNvMNtCse1nGBsou5OW_5alloc3vecINtB2_3VecTNtNtCs5AlOhPCr03V_3syn3pat8FieldPatNtNtBH_5token5CommaEE3newBH_, symObjAddr: 0x1150, symBinAddr: 0x2AFC4, symSize: 0x14 }
  - { offset: 0x83E74, size: 0x8, addend: 0x0, symName: __RNvMNtCse1nGBsou5OW_5alloc3vecINtB2_3VecTNtNtCs5AlOhPCr03V_3syn4data5FieldNtNtBH_5token5CommaEE3newBH_, symObjAddr: 0x1178, symBinAddr: 0x2AFD8, symSize: 0x14 }
  - { offset: 0x83E91, size: 0x8, addend: 0x0, symName: __RNvMNtCse1nGBsou5OW_5alloc3vecINtB2_3VecTNtNtCs5AlOhPCr03V_3syn4data7VariantNtNtBH_5token5CommaEE3newBH_, symObjAddr: 0x11A0, symBinAddr: 0x2AFEC, symSize: 0x14 }
  - { offset: 0x83EAE, size: 0x8, addend: 0x0, symName: __RNvMNtCse1nGBsou5OW_5alloc3vecINtB2_3VecTNtNtCs5AlOhPCr03V_3syn4expr10FieldValueNtNtBH_5token5CommaEE3newBH_, symObjAddr: 0x11B4, symBinAddr: 0x2B000, symSize: 0x14 }
  - { offset: 0x83ECB, size: 0x8, addend: 0x0, symName: __RNvMNtCse1nGBsou5OW_5alloc3vecINtB2_3VecTNtNtCs5AlOhPCr03V_3syn4expr21GenericMethodArgumentNtNtBH_5token5CommaEE3newBH_, symObjAddr: 0x11C8, symBinAddr: 0x2B014, symSize: 0x14 }
  - { offset: 0x83EE8, size: 0x8, addend: 0x0, symName: __RNvMNtCse1nGBsou5OW_5alloc3vecINtB2_3VecTNtNtCs5AlOhPCr03V_3syn4expr4ExprNtNtBH_5token5CommaEE3newBH_, symObjAddr: 0x11DC, symBinAddr: 0x2B028, symSize: 0x14 }
  - { offset: 0x83F05, size: 0x8, addend: 0x0, symName: __RNvMNtCse1nGBsou5OW_5alloc3vecINtB2_3VecTNtNtCs5AlOhPCr03V_3syn4item5FnArgNtNtBH_5token5CommaEE3newBH_, symObjAddr: 0x11F0, symBinAddr: 0x2B03C, symSize: 0x14 }
  - { offset: 0x83F22, size: 0x8, addend: 0x0, symName: __RNvMNtCse1nGBsou5OW_5alloc3vecINtB2_3VecTNtNtCs5AlOhPCr03V_3syn4item7UseTreeNtNtBH_5token5CommaEE3newBH_, symObjAddr: 0x1204, symBinAddr: 0x2B050, symSize: 0x14 }
  - { offset: 0x83F3F, size: 0x8, addend: 0x0, symName: __RNvMNtCse1nGBsou5OW_5alloc3vecINtB2_3VecTNtNtCs5AlOhPCr03V_3syn4path11PathSegmentNtNtBH_5token6Colon2EE3newBH_, symObjAddr: 0x1218, symBinAddr: 0x2B064, symSize: 0x14 }
  - { offset: 0x83F5C, size: 0x8, addend: 0x0, symName: __RNvMNtCse1nGBsou5OW_5alloc3vecINtB2_3VecTNtNtCs5AlOhPCr03V_3syn4path15GenericArgumentNtNtBH_5token5CommaEE3newBH_, symObjAddr: 0x122C, symBinAddr: 0x2B078, symSize: 0x14 }
  - { offset: 0x83F79, size: 0x8, addend: 0x0, symName: __RNvMNtCse1nGBsou5OW_5alloc3vecINtB2_3VecTNtNtCs5AlOhPCr03V_3syn8generics11LifetimeDefNtNtBH_5token5CommaEE3newBH_, symObjAddr: 0x1240, symBinAddr: 0x2B08C, symSize: 0x14 }
  - { offset: 0x83F96, size: 0x8, addend: 0x0, symName: __RNvMNtCse1nGBsou5OW_5alloc3vecINtB2_3VecTNtNtCs5AlOhPCr03V_3syn8generics12GenericParamNtNtBH_5token5CommaEE3newBH_, symObjAddr: 0x1254, symBinAddr: 0x2B0A0, symSize: 0x14 }
  - { offset: 0x83FB3, size: 0x8, addend: 0x0, symName: __RNvMNtCse1nGBsou5OW_5alloc3vecINtB2_3VecTNtNtCs5AlOhPCr03V_3syn8generics14TypeParamBoundNtNtBH_5token3AddEE3newBH_, symObjAddr: 0x1268, symBinAddr: 0x2B0B4, symSize: 0x14 }
  - { offset: 0x83FD0, size: 0x8, addend: 0x0, symName: __RNvMNtCse1nGBsou5OW_5alloc3vecINtB2_3VecTNtNtCs5AlOhPCr03V_3syn8generics14WherePredicateNtNtBH_5token5CommaEE3newBH_, symObjAddr: 0x127C, symBinAddr: 0x2B0C8, symSize: 0x14 }
  - { offset: 0x83FED, size: 0x8, addend: 0x0, symName: __RNvMNtCse1nGBsou5OW_5alloc3vecINtB2_3VecTNtNtCs5AlOhPCr03V_3syn8lifetime8LifetimeNtNtBH_5token3AddEE3newBH_, symObjAddr: 0x1290, symBinAddr: 0x2B0DC, symSize: 0x14 }
  - { offset: 0x8400A, size: 0x8, addend: 0x0, symName: __RNvMNtCse1nGBsou5OW_5alloc3vecINtB2_3VechE3newCs5AlOhPCr03V_3syn, symObjAddr: 0x12A4, symBinAddr: 0x2B0F0, symSize: 0x14 }
  - { offset: 0x8416D, size: 0x8, addend: 0x0, symName: __RNvMs0_NtCse1nGBsou5OW_5alloc3vecINtB5_3VechE6resizeCs5AlOhPCr03V_3syn, symObjAddr: 0x12B8, symBinAddr: 0x2B104, symSize: 0x100 }
  - { offset: 0x8441B, size: 0x8, addend: 0x0, symName: __RNvMs2_NtCse1nGBsou5OW_5alloc3vecINtB5_3VechE11extend_withCs5AlOhPCr03V_3syn, symObjAddr: 0x13B8, symBinAddr: 0x2B204, symSize: 0x230 }
  - { offset: 0x847E6, size: 0x8, addend: 0x0, symName: __RNvMs_NtCse1nGBsou5OW_5alloc3vecINtB4_3VecNtNtCs5AlOhPCr03V_3syn4attr9AttributeE15append_elementsBI_, symObjAddr: 0x1708, symBinAddr: 0x2B434, symSize: 0xE0 }
  - { offset: 0x84A1B, size: 0x8, addend: 0x0, symName: __RNvMs_NtCse1nGBsou5OW_5alloc3vecINtB4_3VecNtNtCs5AlOhPCr03V_3syn4attr9AttributeE4pushBI_, symObjAddr: 0x17E8, symBinAddr: 0x2B514, symSize: 0x120 }
  - { offset: 0x84CB7, size: 0x8, addend: 0x0, symName: __RNvMs_NtCse1nGBsou5OW_5alloc3vecINtB4_3VecNtNtCs5AlOhPCr03V_3syn4attr9AttributeE6appendBI_, symObjAddr: 0x1908, symBinAddr: 0x2B634, symSize: 0x8C }
  - { offset: 0x84EEC, size: 0x8, addend: 0x0, symName: __RNvMs_NtCse1nGBsou5OW_5alloc3vecINtB4_3VecNtNtCs5AlOhPCr03V_3syn4attr9AttributeE7reserveBI_, symObjAddr: 0x1994, symBinAddr: 0x2B6C0, symSize: 0xC8 }
  - { offset: 0x850C3, size: 0x8, addend: 0x0, symName: __RNvMs_NtCse1nGBsou5OW_5alloc3vecINtB4_3VecNtNtCs5AlOhPCr03V_3syn4attr9AttributeE8as_sliceBI_, symObjAddr: 0x1A5C, symBinAddr: 0x2B788, symSize: 0x64 }
  - { offset: 0x851A2, size: 0x8, addend: 0x0, symName: __RNvMs_NtCse1nGBsou5OW_5alloc3vecINtB4_3VecNtNtCs5AlOhPCr03V_3syn4attr9AttributeE8is_emptyBI_, symObjAddr: 0x1AC0, symBinAddr: 0x2B7EC, symSize: 0x20 }
  - { offset: 0x8530B, size: 0x8, addend: 0x0, symName: __RNvMs_NtCse1nGBsou5OW_5alloc3vecINtB4_3VecNtNtCs5AlOhPCr03V_3syn4data5FieldE7reserveBI_, symObjAddr: 0x1AE0, symBinAddr: 0x2B80C, symSize: 0xC8 }
  - { offset: 0x8547F, size: 0x8, addend: 0x0, symName: __RNvMs_NtCse1nGBsou5OW_5alloc3vecINtB4_3VecNtNtCs5AlOhPCr03V_3syn4expr3ArmE3lenBI_, symObjAddr: 0x1BA8, symBinAddr: 0x2B8D4, symSize: 0x18 }
  - { offset: 0x855C7, size: 0x8, addend: 0x0, symName: __RNvMs_NtCse1nGBsou5OW_5alloc3vecINtB4_3VecNtNtCs5AlOhPCr03V_3syn4expr3ArmE4pushBI_, symObjAddr: 0x1BC0, symBinAddr: 0x2B8EC, symSize: 0x120 }
  - { offset: 0x85815, size: 0x8, addend: 0x0, symName: __RNvMs_NtCse1nGBsou5OW_5alloc3vecINtB4_3VecNtNtCs5AlOhPCr03V_3syn4expr3ArmE8as_sliceBI_, symObjAddr: 0x1CE0, symBinAddr: 0x2BA0C, symSize: 0x64 }
  - { offset: 0x859E2, size: 0x8, addend: 0x0, symName: __RNvMs_NtCse1nGBsou5OW_5alloc3vecINtB4_3VecNtNtCs5AlOhPCr03V_3syn4item11ForeignItemE4pushBI_, symObjAddr: 0x1D44, symBinAddr: 0x2BA70, symSize: 0x120 }
  - { offset: 0x85CAC, size: 0x8, addend: 0x0, symName: __RNvMs_NtCse1nGBsou5OW_5alloc3vecINtB4_3VecNtNtCs5AlOhPCr03V_3syn4item4ItemE4pushBI_, symObjAddr: 0x1E64, symBinAddr: 0x2BB90, symSize: 0x120 }
  - { offset: 0x85F76, size: 0x8, addend: 0x0, symName: __RNvMs_NtCse1nGBsou5OW_5alloc3vecINtB4_3VecNtNtCs5AlOhPCr03V_3syn4item8ImplItemE4pushBI_, symObjAddr: 0x1F84, symBinAddr: 0x2BCB0, symSize: 0x120 }
  - { offset: 0x86240, size: 0x8, addend: 0x0, symName: __RNvMs_NtCse1nGBsou5OW_5alloc3vecINtB4_3VecNtNtCs5AlOhPCr03V_3syn4item9TraitItemE4pushBI_, symObjAddr: 0x20A4, symBinAddr: 0x2BDD0, symSize: 0x120 }
  - { offset: 0x86404, size: 0x8, addend: 0x0, symName: __RNvMs_NtCse1nGBsou5OW_5alloc3vecINtB4_3VecNtNtCs5AlOhPCr03V_3syn4stmt4StmtE3lenBI_, symObjAddr: 0x21C4, symBinAddr: 0x2BEF0, symSize: 0x18 }
  - { offset: 0x8654C, size: 0x8, addend: 0x0, symName: __RNvMs_NtCse1nGBsou5OW_5alloc3vecINtB4_3VecNtNtCs5AlOhPCr03V_3syn4stmt4StmtE4pushBI_, symObjAddr: 0x21DC, symBinAddr: 0x2BF08, symSize: 0x120 }
  - { offset: 0x8675E, size: 0x8, addend: 0x0, symName: __RNvMs_NtCse1nGBsou5OW_5alloc3vecINtB4_3VecNtNtCs5AlOhPCr03V_3syn5error12ErrorMessageE3lenBI_, symObjAddr: 0x23DC, symBinAddr: 0x2C028, symSize: 0x18 }
  - { offset: 0x8682E, size: 0x8, addend: 0x0, symName: __RNvMs_NtCse1nGBsou5OW_5alloc3vecINtB4_3VecNtNtCs5AlOhPCr03V_3syn5error12ErrorMessageE8as_sliceBI_, symObjAddr: 0x24BC, symBinAddr: 0x2C040, symSize: 0x64 }
  - { offset: 0x86A15, size: 0x8, addend: 0x0, symName: __RNvMs_NtCse1nGBsou5OW_5alloc3vecINtB4_3VecNtNtCs5AlOhPCr03V_3syn6buffer5EntryE13shrink_to_fitBI_, symObjAddr: 0x2520, symBinAddr: 0x2C0A4, symSize: 0xEC }
  - { offset: 0x86C88, size: 0x8, addend: 0x0, symName: __RNvMs_NtCse1nGBsou5OW_5alloc3vecINtB4_3VecNtNtCs5AlOhPCr03V_3syn6buffer5EntryE16into_boxed_sliceBI_, symObjAddr: 0x260C, symBinAddr: 0x2C190, symSize: 0x110 }
  - { offset: 0x86E51, size: 0x8, addend: 0x0, symName: __RNvMs_NtCse1nGBsou5OW_5alloc3vecINtB4_3VecNtNtCs5AlOhPCr03V_3syn6buffer5EntryE3lenBI_, symObjAddr: 0x271C, symBinAddr: 0x2C2A0, symSize: 0x18 }
  - { offset: 0x86F7F, size: 0x8, addend: 0x0, symName: __RNvMs_NtCse1nGBsou5OW_5alloc3vecINtB4_3VecNtNtCs5AlOhPCr03V_3syn6buffer5EntryE4pushBI_, symObjAddr: 0x2734, symBinAddr: 0x2C2B8, symSize: 0x100 }
  - { offset: 0x87249, size: 0x8, addend: 0x0, symName: __RNvMs_NtCse1nGBsou5OW_5alloc3vecINtB4_3VecNtNtCs5AlOhPCr03V_3syn8generics14TypeParamBoundE7reserveBI_, symObjAddr: 0x2834, symBinAddr: 0x2C3B8, symSize: 0xC8 }
  - { offset: 0x873BD, size: 0x8, addend: 0x0, symName: __RNvMs_NtCse1nGBsou5OW_5alloc3vecINtB4_3VecReE3lenCs5AlOhPCr03V_3syn, symObjAddr: 0x28FC, symBinAddr: 0x2C480, symSize: 0x18 }
  - { offset: 0x87505, size: 0x8, addend: 0x0, symName: __RNvMs_NtCse1nGBsou5OW_5alloc3vecINtB4_3VecReE4pushCs5AlOhPCr03V_3syn, symObjAddr: 0x2914, symBinAddr: 0x2C498, symSize: 0xF4 }
  - { offset: 0x87728, size: 0x8, addend: 0x0, symName: __RNvMs_NtCse1nGBsou5OW_5alloc3vecINtB4_3VecReE8as_sliceCs5AlOhPCr03V_3syn, symObjAddr: 0x2A08, symBinAddr: 0x2C58C, symSize: 0x64 }
  - { offset: 0x878F5, size: 0x8, addend: 0x0, symName: __RNvMs_NtCse1nGBsou5OW_5alloc3vecINtB4_3VecTNtNtCs5AlOhPCr03V_3syn2ty4TypeNtNtBJ_5token5CommaEE4pushBJ_, symObjAddr: 0x2A6C, symBinAddr: 0x2C5F0, symSize: 0x120 }
  - { offset: 0x87B50, size: 0x8, addend: 0x0, symName: __RNvMs_NtCse1nGBsou5OW_5alloc3vecINtB4_3VecTNtNtCs5AlOhPCr03V_3syn2ty4TypeNtNtBJ_5token5CommaEE8as_sliceBJ_, symObjAddr: 0x2B8C, symBinAddr: 0x2C710, symSize: 0x64 }
  - { offset: 0x87D1D, size: 0x8, addend: 0x0, symName: __RNvMs_NtCse1nGBsou5OW_5alloc3vecINtB4_3VecTNtNtCs5AlOhPCr03V_3syn2ty9BareFnArgNtNtBJ_5token5CommaEE4pushBJ_, symObjAddr: 0x2BF0, symBinAddr: 0x2C774, symSize: 0x120 }
  - { offset: 0x87F78, size: 0x8, addend: 0x0, symName: __RNvMs_NtCse1nGBsou5OW_5alloc3vecINtB4_3VecTNtNtCs5AlOhPCr03V_3syn2ty9BareFnArgNtNtBJ_5token5CommaEE8as_sliceBJ_, symObjAddr: 0x2D10, symBinAddr: 0x2C894, symSize: 0x64 }
  - { offset: 0x88145, size: 0x8, addend: 0x0, symName: __RNvMs_NtCse1nGBsou5OW_5alloc3vecINtB4_3VecTNtNtCs5AlOhPCr03V_3syn3pat3PatNtNtBJ_5token2OrEE4pushBJ_, symObjAddr: 0x2D74, symBinAddr: 0x2C8F8, symSize: 0x120 }
  - { offset: 0x883A0, size: 0x8, addend: 0x0, symName: __RNvMs_NtCse1nGBsou5OW_5alloc3vecINtB4_3VecTNtNtCs5AlOhPCr03V_3syn3pat3PatNtNtBJ_5token2OrEE8as_sliceBJ_, symObjAddr: 0x2E94, symBinAddr: 0x2CA18, symSize: 0x64 }
  - { offset: 0x8856D, size: 0x8, addend: 0x0, symName: __RNvMs_NtCse1nGBsou5OW_5alloc3vecINtB4_3VecTNtNtCs5AlOhPCr03V_3syn3pat3PatNtNtBJ_5token5CommaEE4pushBJ_, symObjAddr: 0x2EF8, symBinAddr: 0x2CA7C, symSize: 0x120 }
  - { offset: 0x887C8, size: 0x8, addend: 0x0, symName: __RNvMs_NtCse1nGBsou5OW_5alloc3vecINtB4_3VecTNtNtCs5AlOhPCr03V_3syn3pat3PatNtNtBJ_5token5CommaEE8as_sliceBJ_, symObjAddr: 0x3018, symBinAddr: 0x2CB9C, symSize: 0x64 }
  - { offset: 0x88995, size: 0x8, addend: 0x0, symName: __RNvMs_NtCse1nGBsou5OW_5alloc3vecINtB4_3VecTNtNtCs5AlOhPCr03V_3syn3pat8FieldPatNtNtBJ_5token5CommaEE4pushBJ_, symObjAddr: 0x307C, symBinAddr: 0x2CC00, symSize: 0x118 }
  - { offset: 0x88BEE, size: 0x8, addend: 0x0, symName: __RNvMs_NtCse1nGBsou5OW_5alloc3vecINtB4_3VecTNtNtCs5AlOhPCr03V_3syn3pat8FieldPatNtNtBJ_5token5CommaEE8as_sliceBJ_, symObjAddr: 0x3194, symBinAddr: 0x2CD18, symSize: 0x64 }
  - { offset: 0x88D6B, size: 0x8, addend: 0x0, symName: __RNvMs_NtCse1nGBsou5OW_5alloc3vecINtB4_3VecTNtNtCs5AlOhPCr03V_3syn4data5FieldNtNtBJ_5token5CommaEE3lenBJ_, symObjAddr: 0x33E0, symBinAddr: 0x2CD7C, symSize: 0x18 }
  - { offset: 0x88E7F, size: 0x8, addend: 0x0, symName: __RNvMs_NtCse1nGBsou5OW_5alloc3vecINtB4_3VecTNtNtCs5AlOhPCr03V_3syn4data5FieldNtNtBJ_5token5CommaEE4pushBJ_, symObjAddr: 0x33F8, symBinAddr: 0x2CD94, symSize: 0x120 }
  - { offset: 0x890C4, size: 0x8, addend: 0x0, symName: __RNvMs_NtCse1nGBsou5OW_5alloc3vecINtB4_3VecTNtNtCs5AlOhPCr03V_3syn4data5FieldNtNtBJ_5token5CommaEE8as_sliceBJ_, symObjAddr: 0x3518, symBinAddr: 0x2CEB4, symSize: 0x64 }
  - { offset: 0x89291, size: 0x8, addend: 0x0, symName: __RNvMs_NtCse1nGBsou5OW_5alloc3vecINtB4_3VecTNtNtCs5AlOhPCr03V_3syn4data7VariantNtNtBJ_5token5CommaEE4pushBJ_, symObjAddr: 0x3594, symBinAddr: 0x2CF18, symSize: 0x120 }
  - { offset: 0x894EC, size: 0x8, addend: 0x0, symName: __RNvMs_NtCse1nGBsou5OW_5alloc3vecINtB4_3VecTNtNtCs5AlOhPCr03V_3syn4data7VariantNtNtBJ_5token5CommaEE8as_sliceBJ_, symObjAddr: 0x36B4, symBinAddr: 0x2D038, symSize: 0x64 }
  - { offset: 0x896B9, size: 0x8, addend: 0x0, symName: __RNvMs_NtCse1nGBsou5OW_5alloc3vecINtB4_3VecTNtNtCs5AlOhPCr03V_3syn4expr10FieldValueNtNtBJ_5token5CommaEE4pushBJ_, symObjAddr: 0x3718, symBinAddr: 0x2D09C, symSize: 0x120 }
  - { offset: 0x89914, size: 0x8, addend: 0x0, symName: __RNvMs_NtCse1nGBsou5OW_5alloc3vecINtB4_3VecTNtNtCs5AlOhPCr03V_3syn4expr10FieldValueNtNtBJ_5token5CommaEE8as_sliceBJ_, symObjAddr: 0x3838, symBinAddr: 0x2D1BC, symSize: 0x64 }
  - { offset: 0x89AE1, size: 0x8, addend: 0x0, symName: __RNvMs_NtCse1nGBsou5OW_5alloc3vecINtB4_3VecTNtNtCs5AlOhPCr03V_3syn4expr21GenericMethodArgumentNtNtBJ_5token5CommaEE4pushBJ_, symObjAddr: 0x389C, symBinAddr: 0x2D220, symSize: 0x120 }
  - { offset: 0x89D3C, size: 0x8, addend: 0x0, symName: __RNvMs_NtCse1nGBsou5OW_5alloc3vecINtB4_3VecTNtNtCs5AlOhPCr03V_3syn4expr21GenericMethodArgumentNtNtBJ_5token5CommaEE8as_sliceBJ_, symObjAddr: 0x39BC, symBinAddr: 0x2D340, symSize: 0x64 }
  - { offset: 0x89E03, size: 0x8, addend: 0x0, symName: __RNvMs_NtCse1nGBsou5OW_5alloc3vecINtB4_3VecTNtNtCs5AlOhPCr03V_3syn4expr4ExprNtNtBJ_5token5CommaEE3lenBJ_, symObjAddr: 0x3A20, symBinAddr: 0x2D3A4, symSize: 0x18 }
  - { offset: 0x89F4B, size: 0x8, addend: 0x0, symName: __RNvMs_NtCse1nGBsou5OW_5alloc3vecINtB4_3VecTNtNtCs5AlOhPCr03V_3syn4expr4ExprNtNtBJ_5token5CommaEE4pushBJ_, symObjAddr: 0x3A38, symBinAddr: 0x2D3BC, symSize: 0x118 }
  - { offset: 0x8A199, size: 0x8, addend: 0x0, symName: __RNvMs_NtCse1nGBsou5OW_5alloc3vecINtB4_3VecTNtNtCs5AlOhPCr03V_3syn4expr4ExprNtNtBJ_5token5CommaEE8as_sliceBJ_, symObjAddr: 0x3B50, symBinAddr: 0x2D4D4, symSize: 0x64 }
  - { offset: 0x8A32E, size: 0x8, addend: 0x0, symName: __RNvMs_NtCse1nGBsou5OW_5alloc3vecINtB4_3VecTNtNtCs5AlOhPCr03V_3syn4item5FnArgNtNtBJ_5token5CommaEE12as_mut_sliceBJ_, symObjAddr: 0x3BB4, symBinAddr: 0x2D538, symSize: 0x64 }
  - { offset: 0x8A40A, size: 0x8, addend: 0x0, symName: __RNvMs_NtCse1nGBsou5OW_5alloc3vecINtB4_3VecTNtNtCs5AlOhPCr03V_3syn4item5FnArgNtNtBJ_5token5CommaEE3lenBJ_, symObjAddr: 0x3C18, symBinAddr: 0x2D59C, symSize: 0x18 }
  - { offset: 0x8A558, size: 0x8, addend: 0x0, symName: __RNvMs_NtCse1nGBsou5OW_5alloc3vecINtB4_3VecTNtNtCs5AlOhPCr03V_3syn4item5FnArgNtNtBJ_5token5CommaEE3popBJ_, symObjAddr: 0x3C30, symBinAddr: 0x2D5B4, symSize: 0x100 }
  - { offset: 0x8A7CC, size: 0x8, addend: 0x0, symName: __RNvMs_NtCse1nGBsou5OW_5alloc3vecINtB4_3VecTNtNtCs5AlOhPCr03V_3syn4item5FnArgNtNtBJ_5token5CommaEE4pushBJ_, symObjAddr: 0x3D30, symBinAddr: 0x2D6B4, symSize: 0x120 }
  - { offset: 0x8AA11, size: 0x8, addend: 0x0, symName: __RNvMs_NtCse1nGBsou5OW_5alloc3vecINtB4_3VecTNtNtCs5AlOhPCr03V_3syn4item5FnArgNtNtBJ_5token5CommaEE8as_sliceBJ_, symObjAddr: 0x3E50, symBinAddr: 0x2D7D4, symSize: 0x64 }
  - { offset: 0x8ABDE, size: 0x8, addend: 0x0, symName: __RNvMs_NtCse1nGBsou5OW_5alloc3vecINtB4_3VecTNtNtCs5AlOhPCr03V_3syn4item7UseTreeNtNtBJ_5token5CommaEE4pushBJ_, symObjAddr: 0x3EB4, symBinAddr: 0x2D838, symSize: 0x110 }
  - { offset: 0x8AE37, size: 0x8, addend: 0x0, symName: __RNvMs_NtCse1nGBsou5OW_5alloc3vecINtB4_3VecTNtNtCs5AlOhPCr03V_3syn4item7UseTreeNtNtBJ_5token5CommaEE8as_sliceBJ_, symObjAddr: 0x3FC4, symBinAddr: 0x2D948, symSize: 0x64 }
  - { offset: 0x8AFCC, size: 0x8, addend: 0x0, symName: __RNvMs_NtCse1nGBsou5OW_5alloc3vecINtB4_3VecTNtNtCs5AlOhPCr03V_3syn4path11PathSegmentNtNtBJ_5token6Colon2EE12as_mut_sliceBJ_, symObjAddr: 0x4028, symBinAddr: 0x2D9AC, symSize: 0x64 }
  - { offset: 0x8B0A8, size: 0x8, addend: 0x0, symName: __RNvMs_NtCse1nGBsou5OW_5alloc3vecINtB4_3VecTNtNtCs5AlOhPCr03V_3syn4path11PathSegmentNtNtBJ_5token6Colon2EE3lenBJ_, symObjAddr: 0x408C, symBinAddr: 0x2DA10, symSize: 0x18 }
  - { offset: 0x8B1BC, size: 0x8, addend: 0x0, symName: __RNvMs_NtCse1nGBsou5OW_5alloc3vecINtB4_3VecTNtNtCs5AlOhPCr03V_3syn4path11PathSegmentNtNtBJ_5token6Colon2EE4pushBJ_, symObjAddr: 0x40A4, symBinAddr: 0x2DA28, symSize: 0x120 }
  - { offset: 0x8B4A8, size: 0x8, addend: 0x0, symName: __RNvMs_NtCse1nGBsou5OW_5alloc3vecINtB4_3VecTNtNtCs5AlOhPCr03V_3syn4path11PathSegmentNtNtBJ_5token6Colon2EE6insertBJ_, symObjAddr: 0x41C4, symBinAddr: 0x2DB48, symSize: 0x1EC }
  - { offset: 0x8B77A, size: 0x8, addend: 0x0, symName: __RNvMs_NtCse1nGBsou5OW_5alloc3vecINtB4_3VecTNtNtCs5AlOhPCr03V_3syn4path11PathSegmentNtNtBJ_5token6Colon2EE8as_sliceBJ_, symObjAddr: 0x43B0, symBinAddr: 0x2DD34, symSize: 0x64 }
  - { offset: 0x8B841, size: 0x8, addend: 0x0, symName: __RNvMs_NtCse1nGBsou5OW_5alloc3vecINtB4_3VecTNtNtCs5AlOhPCr03V_3syn4path15GenericArgumentNtNtBJ_5token5CommaEE3lenBJ_, symObjAddr: 0x4414, symBinAddr: 0x2DD98, symSize: 0x18 }
  - { offset: 0x8B989, size: 0x8, addend: 0x0, symName: __RNvMs_NtCse1nGBsou5OW_5alloc3vecINtB4_3VecTNtNtCs5AlOhPCr03V_3syn4path15GenericArgumentNtNtBJ_5token5CommaEE4pushBJ_, symObjAddr: 0x442C, symBinAddr: 0x2DDB0, symSize: 0x120 }
  - { offset: 0x8BBD7, size: 0x8, addend: 0x0, symName: __RNvMs_NtCse1nGBsou5OW_5alloc3vecINtB4_3VecTNtNtCs5AlOhPCr03V_3syn4path15GenericArgumentNtNtBJ_5token5CommaEE8as_sliceBJ_, symObjAddr: 0x454C, symBinAddr: 0x2DED0, symSize: 0x64 }
  - { offset: 0x8BDA4, size: 0x8, addend: 0x0, symName: __RNvMs_NtCse1nGBsou5OW_5alloc3vecINtB4_3VecTNtNtCs5AlOhPCr03V_3syn8generics11LifetimeDefNtNtBJ_5token5CommaEE4pushBJ_, symObjAddr: 0x45B0, symBinAddr: 0x2DF34, symSize: 0x120 }
  - { offset: 0x8BFFF, size: 0x8, addend: 0x0, symName: __RNvMs_NtCse1nGBsou5OW_5alloc3vecINtB4_3VecTNtNtCs5AlOhPCr03V_3syn8generics11LifetimeDefNtNtBJ_5token5CommaEE8as_sliceBJ_, symObjAddr: 0x46D0, symBinAddr: 0x2E054, symSize: 0x64 }
  - { offset: 0x8C194, size: 0x8, addend: 0x0, symName: __RNvMs_NtCse1nGBsou5OW_5alloc3vecINtB4_3VecTNtNtCs5AlOhPCr03V_3syn8generics12GenericParamNtNtBJ_5token5CommaEE12as_mut_sliceBJ_, symObjAddr: 0x4734, symBinAddr: 0x2E0B8, symSize: 0x64 }
  - { offset: 0x8C270, size: 0x8, addend: 0x0, symName: __RNvMs_NtCse1nGBsou5OW_5alloc3vecINtB4_3VecTNtNtCs5AlOhPCr03V_3syn8generics12GenericParamNtNtBJ_5token5CommaEE3lenBJ_, symObjAddr: 0x4798, symBinAddr: 0x2E11C, symSize: 0x18 }
  - { offset: 0x8C384, size: 0x8, addend: 0x0, symName: __RNvMs_NtCse1nGBsou5OW_5alloc3vecINtB4_3VecTNtNtCs5AlOhPCr03V_3syn8generics12GenericParamNtNtBJ_5token5CommaEE4pushBJ_, symObjAddr: 0x47B0, symBinAddr: 0x2E134, symSize: 0x120 }
  - { offset: 0x8C5C9, size: 0x8, addend: 0x0, symName: __RNvMs_NtCse1nGBsou5OW_5alloc3vecINtB4_3VecTNtNtCs5AlOhPCr03V_3syn8generics12GenericParamNtNtBJ_5token5CommaEE8as_sliceBJ_, symObjAddr: 0x48D0, symBinAddr: 0x2E254, symSize: 0x64 }
  - { offset: 0x8C690, size: 0x8, addend: 0x0, symName: __RNvMs_NtCse1nGBsou5OW_5alloc3vecINtB4_3VecTNtNtCs5AlOhPCr03V_3syn8generics14TypeParamBoundNtNtBJ_5token3AddEE3lenBJ_, symObjAddr: 0x4934, symBinAddr: 0x2E2B8, symSize: 0x18 }
  - { offset: 0x8C7CB, size: 0x8, addend: 0x0, symName: __RNvMs_NtCse1nGBsou5OW_5alloc3vecINtB4_3VecTNtNtCs5AlOhPCr03V_3syn8generics14TypeParamBoundNtNtBJ_5token3AddEE4pushBJ_, symObjAddr: 0x494C, symBinAddr: 0x2E2D0, symSize: 0x120 }
  - { offset: 0x8CA6C, size: 0x8, addend: 0x0, symName: __RNvMs_NtCse1nGBsou5OW_5alloc3vecINtB4_3VecTNtNtCs5AlOhPCr03V_3syn8generics14TypeParamBoundNtNtBJ_5token3AddEE5clearBJ_, symObjAddr: 0x4A6C, symBinAddr: 0x2E3F0, symSize: 0x7C }
  - { offset: 0x8CC3F, size: 0x8, addend: 0x0, symName: __RNvMs_NtCse1nGBsou5OW_5alloc3vecINtB4_3VecTNtNtCs5AlOhPCr03V_3syn8generics14TypeParamBoundNtNtBJ_5token3AddEE8as_sliceBJ_, symObjAddr: 0x4AE8, symBinAddr: 0x2E46C, symSize: 0x64 }
  - { offset: 0x8CD06, size: 0x8, addend: 0x0, symName: __RNvMs_NtCse1nGBsou5OW_5alloc3vecINtB4_3VecTNtNtCs5AlOhPCr03V_3syn8generics14WherePredicateNtNtBJ_5token5CommaEE3lenBJ_, symObjAddr: 0x4B4C, symBinAddr: 0x2E4D0, symSize: 0x18 }
  - { offset: 0x8CE4E, size: 0x8, addend: 0x0, symName: __RNvMs_NtCse1nGBsou5OW_5alloc3vecINtB4_3VecTNtNtCs5AlOhPCr03V_3syn8generics14WherePredicateNtNtBJ_5token5CommaEE4pushBJ_, symObjAddr: 0x4B64, symBinAddr: 0x2E4E8, symSize: 0x120 }
  - { offset: 0x8D09C, size: 0x8, addend: 0x0, symName: __RNvMs_NtCse1nGBsou5OW_5alloc3vecINtB4_3VecTNtNtCs5AlOhPCr03V_3syn8generics14WherePredicateNtNtBJ_5token5CommaEE8as_sliceBJ_, symObjAddr: 0x4C84, symBinAddr: 0x2E608, symSize: 0x64 }
  - { offset: 0x8D163, size: 0x8, addend: 0x0, symName: __RNvMs_NtCse1nGBsou5OW_5alloc3vecINtB4_3VecTNtNtCs5AlOhPCr03V_3syn8lifetime8LifetimeNtNtBJ_5token3AddEE3lenBJ_, symObjAddr: 0x4CE8, symBinAddr: 0x2E66C, symSize: 0x18 }
  - { offset: 0x8D2AB, size: 0x8, addend: 0x0, symName: __RNvMs_NtCse1nGBsou5OW_5alloc3vecINtB4_3VecTNtNtCs5AlOhPCr03V_3syn8lifetime8LifetimeNtNtBJ_5token3AddEE4pushBJ_, symObjAddr: 0x4D00, symBinAddr: 0x2E684, symSize: 0x118 }
  - { offset: 0x8D4F7, size: 0x8, addend: 0x0, symName: __RNvMs_NtCse1nGBsou5OW_5alloc3vecINtB4_3VecTNtNtCs5AlOhPCr03V_3syn8lifetime8LifetimeNtNtBJ_5token3AddEE8as_sliceBJ_, symObjAddr: 0x4E18, symBinAddr: 0x2E79C, symSize: 0x64 }
  - { offset: 0x8D6B7, size: 0x8, addend: 0x0, symName: __RNvMs_NtCse1nGBsou5OW_5alloc3vecINtB4_3VechE13shrink_to_fitCs5AlOhPCr03V_3syn, symObjAddr: 0x4E7C, symBinAddr: 0x2E800, symSize: 0xE4 }
  - { offset: 0x8D903, size: 0x8, addend: 0x0, symName: __RNvMs_NtCse1nGBsou5OW_5alloc3vecINtB4_3VechE16into_boxed_sliceCs5AlOhPCr03V_3syn, symObjAddr: 0x4F60, symBinAddr: 0x2E8E4, symSize: 0x110 }
  - { offset: 0x8DACC, size: 0x8, addend: 0x0, symName: __RNvMs_NtCse1nGBsou5OW_5alloc3vecINtB4_3VechE3lenCs5AlOhPCr03V_3syn, symObjAddr: 0x5070, symBinAddr: 0x2E9F4, symSize: 0x18 }
  - { offset: 0x8DB8F, size: 0x8, addend: 0x0, symName: __RNvMs_NtCse1nGBsou5OW_5alloc3vecINtB4_3VechE8as_sliceCs5AlOhPCr03V_3syn, symObjAddr: 0x5088, symBinAddr: 0x2EA0C, symSize: 0x60 }
  - { offset: 0x8DDFF, size: 0x8, addend: 0x0, symName: __RNvMs_NtCse1nGBsou5OW_5alloc3vecINtB4_3VechE9split_offCs5AlOhPCr03V_3syn, symObjAddr: 0x50E8, symBinAddr: 0x2EA6C, symSize: 0x140 }
  - { offset: 0x943C0, size: 0x8, addend: 0x0, symName: __RNvXs6_NtCs5AlOhPCr03V_3syn4exprNtB5_5IndexINtNtCsfvfooZQ3Axs_4core7convert4FromjE4from, symObjAddr: 0x2BE4, symBinAddr: 0x30E20, symSize: 0x84 }
  - { offset: 0x943EF, size: 0x8, addend: 0x0, symName: __RNvNtCs5AlOhPCr03V_3syn4expr19requires_terminator, symObjAddr: 0x2D1C, symBinAddr: 0x30EA4, symSize: 0xFC }
  - { offset: 0x94427, size: 0x8, addend: 0x0, symName: __RNvXs_NtNtCs5AlOhPCr03V_3syn4expr7parsingNtB6_4ExprNtNtB8_5parse5Parse5parse, symObjAddr: 0x2E18, symBinAddr: 0x30FA0, symSize: 0x3C }
  - { offset: 0x9445B, size: 0x8, addend: 0x0, symName: __RNvXsa_NtNtCs5AlOhPCr03V_3syn4expr7parsingNtB7_7ExprLitNtNtB9_5parse5Parse5parse, symObjAddr: 0x38E8, symBinAddr: 0x31018, symSize: 0x14C }
  - { offset: 0x944AE, size: 0x8, addend: 0x0, symName: __RNvXsc_NtNtCs5AlOhPCr03V_3syn4expr7parsingNtB7_21GenericMethodArgumentNtNtB9_5parse5Parse5parse, symObjAddr: 0x3A68, symBinAddr: 0x31164, symSize: 0x2A0 }
  - { offset: 0x9455E, size: 0x8, addend: 0x0, symName: __RNvXsd_NtNtCs5AlOhPCr03V_3syn4expr7parsingNtB7_15MethodTurbofishNtNtB9_5parse5Parse5parse, symObjAddr: 0x3D08, symBinAddr: 0x31404, symSize: 0x508 }
  - { offset: 0x94689, size: 0x8, addend: 0x0, symName: __RNvXse_NtNtCs5AlOhPCr03V_3syn4expr7parsingNtB7_7ExprLetNtNtB9_5parse5Parse5parse, symObjAddr: 0x4210, symBinAddr: 0x3190C, symSize: 0x5D0 }
  - { offset: 0x947DA, size: 0x8, addend: 0x0, symName: __RNvXsf_NtNtCs5AlOhPCr03V_3syn4expr7parsingNtB7_6ExprIfNtNtB9_5parse5Parse5parse, symObjAddr: 0x47E0, symBinAddr: 0x31EDC, symSize: 0x598 }
  - { offset: 0x94916, size: 0x8, addend: 0x0, symName: __RNvXsg_NtNtCs5AlOhPCr03V_3syn4expr7parsingNtB7_11ExprForLoopNtNtB9_5parse5Parse5parse, symObjAddr: 0x4D78, symBinAddr: 0x32474, symSize: 0x92C }
  - { offset: 0x94BC5, size: 0x8, addend: 0x0, symName: __RNvXsh_NtNtCs5AlOhPCr03V_3syn4expr7parsingNtB7_8ExprLoopNtNtB9_5parse5Parse5parse, symObjAddr: 0x56A4, symBinAddr: 0x32DA0, symSize: 0x584 }
  - { offset: 0x94D77, size: 0x8, addend: 0x0, symName: __RNvXsi_NtNtCs5AlOhPCr03V_3syn4expr7parsingNtB7_9ExprMatchNtNtB9_5parse5Parse5parse, symObjAddr: 0x5C28, symBinAddr: 0x33324, symSize: 0x6B8 }
  - { offset: 0x94F48, size: 0x8, addend: 0x0, symName: __RNvXsp_NtNtCs5AlOhPCr03V_3syn4expr7parsingNtB7_12ExprTryBlockNtNtB9_5parse5Parse5parse, symObjAddr: 0x67D0, symBinAddr: 0x339DC, symSize: 0x20C }
  - { offset: 0x94FBA, size: 0x8, addend: 0x0, symName: __RNvXsq_NtNtCs5AlOhPCr03V_3syn4expr7parsingNtB7_9ExprYieldNtNtB9_5parse5Parse5parse, symObjAddr: 0x69DC, symBinAddr: 0x33BE8, symSize: 0x27C }
  - { offset: 0x9501C, size: 0x8, addend: 0x0, symName: __RNvXsr_NtNtCs5AlOhPCr03V_3syn4expr7parsingNtB7_9ExprAsyncNtNtB9_5parse5Parse5parse, symObjAddr: 0x6C58, symBinAddr: 0x33E64, symSize: 0x2D4 }
  - { offset: 0x950AD, size: 0x8, addend: 0x0, symName: __RNvXss_NtNtCs5AlOhPCr03V_3syn4expr7parsingNtB7_9ExprWhileNtNtB9_5parse5Parse5parse, symObjAddr: 0x6F2C, symBinAddr: 0x34138, symSize: 0x758 }
  - { offset: 0x952E2, size: 0x8, addend: 0x0, symName: __RNvXst_NtNtCs5AlOhPCr03V_3syn4expr7parsingNtB7_5LabelNtNtB9_5parse5Parse5parse, symObjAddr: 0x7684, symBinAddr: 0x34890, symSize: 0x1D4 }
  - { offset: 0x95373, size: 0x8, addend: 0x0, symName: __RNvXsv_NtNtCs5AlOhPCr03V_3syn4expr7parsingNtB7_12ExprContinueNtNtB9_5parse5Parse5parse, symObjAddr: 0x7858, symBinAddr: 0x34A64, symSize: 0x200 }
  - { offset: 0x953E5, size: 0x8, addend: 0x0, symName: __RNvXsw_NtNtCs5AlOhPCr03V_3syn4expr7parsingNtB7_10FieldValueNtNtB9_5parse5Parse5parse, symObjAddr: 0x7A58, symBinAddr: 0x34C64, symSize: 0x568 }
  - { offset: 0x95584, size: 0x8, addend: 0x0, symName: __RNvXsy_NtNtCs5AlOhPCr03V_3syn4expr7parsingNtB7_10ExprUnsafeNtNtB9_5parse5Parse5parse, symObjAddr: 0x811C, symBinAddr: 0x351CC, symSize: 0x3A4 }
  - { offset: 0x956D9, size: 0x8, addend: 0x0, symName: __RNvXsz_NtNtCs5AlOhPCr03V_3syn4expr7parsingNtB7_9ExprBlockNtNtB9_5parse5Parse5parse, symObjAddr: 0x84C0, symBinAddr: 0x35570, symSize: 0x4F0 }
  - { offset: 0x9585E, size: 0x8, addend: 0x0, symName: __RNvXsA_NtNtCs5AlOhPCr03V_3syn4expr7parsingNtB7_11RangeLimitsNtNtB9_5parse5Parse5parse, symObjAddr: 0x89B0, symBinAddr: 0x35A60, symSize: 0x2C4 }
  - { offset: 0x958DF, size: 0x8, addend: 0x0, symName: __RNvXsB_NtNtCs5AlOhPCr03V_3syn4expr7parsingNtB7_8ExprPathNtNtB9_5parse5Parse5parse, symObjAddr: 0x8C74, symBinAddr: 0x35D24, symSize: 0x230 }
  - { offset: 0x959B7, size: 0x8, addend: 0x0, symName: __RNvXsC_NtNtCs5AlOhPCr03V_3syn4expr7parsingNtB7_6MemberNtNtB9_5parse5Parse5parse, symObjAddr: 0x8EA4, symBinAddr: 0x35F54, symSize: 0xFC }
  - { offset: 0x959EB, size: 0x8, addend: 0x0, symName: __RNvXsD_NtNtCs5AlOhPCr03V_3syn4expr7parsingNtB7_3ArmNtNtB9_5parse5Parse5parse, symObjAddr: 0x8FA0, symBinAddr: 0x36050, symSize: 0x904 }
  - { offset: 0x95C23, size: 0x8, addend: 0x0, symName: __RNvXsE_NtNtCs5AlOhPCr03V_3syn4expr7parsingNtB7_5IndexNtNtB9_5parse5Parse5parse, symObjAddr: 0x98A4, symBinAddr: 0x36954, symSize: 0x28C }
  - { offset: 0x95CE6, size: 0x8, addend: 0x0, symName: __RNvXNtNtCs5AlOhPCr03V_3syn4expr8printingNtB4_7ExprBoxNtNtCs2cqEZUIJimJ_5quote9to_tokens8ToTokens9to_tokens, symObjAddr: 0x9B9C, symBinAddr: 0x36C4C, symSize: 0x64 }
  - { offset: 0x95D25, size: 0x8, addend: 0x0, symName: __RNvXs_NtNtCs5AlOhPCr03V_3syn4expr8printingNtB6_9ExprArrayNtNtCs2cqEZUIJimJ_5quote9to_tokens8ToTokens9to_tokens, symObjAddr: 0x9C00, symBinAddr: 0x36CB0, symSize: 0x60 }
  - { offset: 0x95D64, size: 0x8, addend: 0x0, symName: __RNvXs0_NtNtCs5AlOhPCr03V_3syn4expr8printingNtB7_8ExprCallNtNtCs2cqEZUIJimJ_5quote9to_tokens8ToTokens9to_tokens, symObjAddr: 0x9C60, symBinAddr: 0x36D10, symSize: 0x70 }
  - { offset: 0x95DA3, size: 0x8, addend: 0x0, symName: __RNvXs1_NtNtCs5AlOhPCr03V_3syn4expr8printingNtB7_14ExprMethodCallNtNtCs2cqEZUIJimJ_5quote9to_tokens8ToTokens9to_tokens, symObjAddr: 0x9CD0, symBinAddr: 0x36D80, symSize: 0xA0 }
  - { offset: 0x95DE2, size: 0x8, addend: 0x0, symName: __RNvXs2_NtNtCs5AlOhPCr03V_3syn4expr8printingNtB7_15MethodTurbofishNtNtCs2cqEZUIJimJ_5quote9to_tokens8ToTokens9to_tokens, symObjAddr: 0x9D70, symBinAddr: 0x36E20, symSize: 0x70 }
  - { offset: 0x95E21, size: 0x8, addend: 0x0, symName: __RNvXs3_NtNtCs5AlOhPCr03V_3syn4expr8printingNtB7_21GenericMethodArgumentNtNtCs2cqEZUIJimJ_5quote9to_tokens8ToTokens9to_tokens, symObjAddr: 0x9DE0, symBinAddr: 0x36E90, symSize: 0xA4 }
  - { offset: 0x95E94, size: 0x8, addend: 0x0, symName: __RNvXs4_NtNtCs5AlOhPCr03V_3syn4expr8printingNtB7_9ExprTupleNtNtCs2cqEZUIJimJ_5quote9to_tokens8ToTokens9to_tokens, symObjAddr: 0x9E84, symBinAddr: 0x36F34, symSize: 0x60 }
  - { offset: 0x95ED3, size: 0x8, addend: 0x0, symName: __RNvXs5_NtNtCs5AlOhPCr03V_3syn4expr8printingNtB7_10ExprBinaryNtNtCs2cqEZUIJimJ_5quote9to_tokens8ToTokens9to_tokens, symObjAddr: 0x9EE4, symBinAddr: 0x36F94, symSize: 0x74 }
  - { offset: 0x95F12, size: 0x8, addend: 0x0, symName: __RNvXs6_NtNtCs5AlOhPCr03V_3syn4expr8printingNtB7_9ExprUnaryNtNtCs2cqEZUIJimJ_5quote9to_tokens8ToTokens9to_tokens, symObjAddr: 0x9F58, symBinAddr: 0x37008, symSize: 0x64 }
  - { offset: 0x95F51, size: 0x8, addend: 0x0, symName: __RNvXs7_NtNtCs5AlOhPCr03V_3syn4expr8printingNtB7_7ExprLitNtNtCs2cqEZUIJimJ_5quote9to_tokens8ToTokens9to_tokens, symObjAddr: 0x9FBC, symBinAddr: 0x3706C, symSize: 0x54 }
  - { offset: 0x95F90, size: 0x8, addend: 0x0, symName: __RNvXs8_NtNtCs5AlOhPCr03V_3syn4expr8printingNtB7_8ExprCastNtNtCs2cqEZUIJimJ_5quote9to_tokens8ToTokens9to_tokens, symObjAddr: 0xA010, symBinAddr: 0x370C0, symSize: 0x74 }
  - { offset: 0x95FCF, size: 0x8, addend: 0x0, symName: __RNvXs9_NtNtCs5AlOhPCr03V_3syn4expr8printingNtB7_8ExprTypeNtNtCs2cqEZUIJimJ_5quote9to_tokens8ToTokens9to_tokens, symObjAddr: 0xA084, symBinAddr: 0x37134, symSize: 0x74 }
  - { offset: 0x9600E, size: 0x8, addend: 0x0, symName: __RNvXsa_NtNtCs5AlOhPCr03V_3syn4expr8printingNtB7_7ExprLetNtNtCs2cqEZUIJimJ_5quote9to_tokens8ToTokens9to_tokens, symObjAddr: 0xA0F8, symBinAddr: 0x371A8, symSize: 0xAC }
  - { offset: 0x9604D, size: 0x8, addend: 0x0, symName: __RNvXsb_NtNtCs5AlOhPCr03V_3syn4expr8printingNtB7_6ExprIfNtNtCs2cqEZUIJimJ_5quote9to_tokens8ToTokens9to_tokens, symObjAddr: 0xA1A4, symBinAddr: 0x37254, symSize: 0xAC }
  - { offset: 0x9608C, size: 0x8, addend: 0x0, symName: __RNvXsc_NtNtCs5AlOhPCr03V_3syn4expr8printingNtB7_9ExprWhileNtNtCs2cqEZUIJimJ_5quote9to_tokens8ToTokens9to_tokens, symObjAddr: 0xA250, symBinAddr: 0x37300, symSize: 0xAC }
  - { offset: 0x960CB, size: 0x8, addend: 0x0, symName: __RNvXsd_NtNtCs5AlOhPCr03V_3syn4expr8printingNtB7_11ExprForLoopNtNtCs2cqEZUIJimJ_5quote9to_tokens8ToTokens9to_tokens, symObjAddr: 0xA2FC, symBinAddr: 0x373AC, symSize: 0xCC }
  - { offset: 0x9610A, size: 0x8, addend: 0x0, symName: __RNvXse_NtNtCs5AlOhPCr03V_3syn4expr8printingNtB7_8ExprLoopNtNtCs2cqEZUIJimJ_5quote9to_tokens8ToTokens9to_tokens, symObjAddr: 0xA3C8, symBinAddr: 0x37478, symSize: 0x80 }
  - { offset: 0x96149, size: 0x8, addend: 0x0, symName: __RNvXsf_NtNtCs5AlOhPCr03V_3syn4expr8printingNtB7_9ExprMatchNtNtCs2cqEZUIJimJ_5quote9to_tokens8ToTokens9to_tokens, symObjAddr: 0xA448, symBinAddr: 0x374F8, symSize: 0x9C }
  - { offset: 0x96188, size: 0x8, addend: 0x0, symName: __RNvXsg_NtNtCs5AlOhPCr03V_3syn4expr8printingNtB7_9ExprAsyncNtNtCs2cqEZUIJimJ_5quote9to_tokens8ToTokens9to_tokens, symObjAddr: 0xA4E4, symBinAddr: 0x37594, symSize: 0x74 }
  - { offset: 0x961C7, size: 0x8, addend: 0x0, symName: __RNvXsh_NtNtCs5AlOhPCr03V_3syn4expr8printingNtB7_9ExprAwaitNtNtCs2cqEZUIJimJ_5quote9to_tokens8ToTokens9to_tokens, symObjAddr: 0xA558, symBinAddr: 0x37608, symSize: 0x74 }
  - { offset: 0x96206, size: 0x8, addend: 0x0, symName: __RNvXsi_NtNtCs5AlOhPCr03V_3syn4expr8printingNtB7_12ExprTryBlockNtNtCs2cqEZUIJimJ_5quote9to_tokens8ToTokens9to_tokens, symObjAddr: 0xA5CC, symBinAddr: 0x3767C, symSize: 0x64 }
  - { offset: 0x96245, size: 0x8, addend: 0x0, symName: __RNvXsj_NtNtCs5AlOhPCr03V_3syn4expr8printingNtB7_9ExprYieldNtNtCs2cqEZUIJimJ_5quote9to_tokens8ToTokens9to_tokens, symObjAddr: 0xA630, symBinAddr: 0x376E0, symSize: 0x64 }
  - { offset: 0x96284, size: 0x8, addend: 0x0, symName: __RNvXsk_NtNtCs5AlOhPCr03V_3syn4expr8printingNtB7_11ExprClosureNtNtCs2cqEZUIJimJ_5quote9to_tokens8ToTokens9to_tokens, symObjAddr: 0xA694, symBinAddr: 0x37744, symSize: 0xC4 }
  - { offset: 0x962C3, size: 0x8, addend: 0x0, symName: __RNvXsl_NtNtCs5AlOhPCr03V_3syn4expr8printingNtB7_10ExprUnsafeNtNtCs2cqEZUIJimJ_5quote9to_tokens8ToTokens9to_tokens, symObjAddr: 0xA758, symBinAddr: 0x37808, symSize: 0x70 }
  - { offset: 0x96302, size: 0x8, addend: 0x0, symName: __RNvXsm_NtNtCs5AlOhPCr03V_3syn4expr8printingNtB7_9ExprBlockNtNtCs2cqEZUIJimJ_5quote9to_tokens8ToTokens9to_tokens, symObjAddr: 0xA7C8, symBinAddr: 0x37878, symSize: 0x70 }
  - { offset: 0x96341, size: 0x8, addend: 0x0, symName: __RNvXsn_NtNtCs5AlOhPCr03V_3syn4expr8printingNtB7_10ExprAssignNtNtCs2cqEZUIJimJ_5quote9to_tokens8ToTokens9to_tokens, symObjAddr: 0xA838, symBinAddr: 0x378E8, symSize: 0x74 }
  - { offset: 0x96380, size: 0x8, addend: 0x0, symName: __RNvXso_NtNtCs5AlOhPCr03V_3syn4expr8printingNtB7_12ExprAssignOpNtNtCs2cqEZUIJimJ_5quote9to_tokens8ToTokens9to_tokens, symObjAddr: 0xA8AC, symBinAddr: 0x3795C, symSize: 0x74 }
  - { offset: 0x963BF, size: 0x8, addend: 0x0, symName: __RNvXsp_NtNtCs5AlOhPCr03V_3syn4expr8printingNtB7_9ExprFieldNtNtCs2cqEZUIJimJ_5quote9to_tokens8ToTokens9to_tokens, symObjAddr: 0xA920, symBinAddr: 0x379D0, symSize: 0x74 }
  - { offset: 0x963FE, size: 0x8, addend: 0x0, symName: __RNvXsq_NtNtCs5AlOhPCr03V_3syn4expr8printingNtB7_6MemberNtNtCs2cqEZUIJimJ_5quote9to_tokens8ToTokens9to_tokens, symObjAddr: 0xA994, symBinAddr: 0x37A44, symSize: 0x98 }
  - { offset: 0x96471, size: 0x8, addend: 0x0, symName: __RNvXsr_NtNtCs5AlOhPCr03V_3syn4expr8printingNtB7_5IndexNtNtCs2cqEZUIJimJ_5quote9to_tokens8ToTokens9to_tokens, symObjAddr: 0xAA2C, symBinAddr: 0x37ADC, symSize: 0xD4 }
  - { offset: 0x964C6, size: 0x8, addend: 0x0, symName: __RNvXss_NtNtCs5AlOhPCr03V_3syn4expr8printingNtB7_9ExprIndexNtNtCs2cqEZUIJimJ_5quote9to_tokens8ToTokens9to_tokens, symObjAddr: 0xAB00, symBinAddr: 0x37BB0, symSize: 0x70 }
  - { offset: 0x96505, size: 0x8, addend: 0x0, symName: __RNvXst_NtNtCs5AlOhPCr03V_3syn4expr8printingNtB7_11RangeLimitsNtNtCs2cqEZUIJimJ_5quote9to_tokens8ToTokens9to_tokens, symObjAddr: 0xAB70, symBinAddr: 0x37C20, symSize: 0x94 }
  - { offset: 0x96578, size: 0x8, addend: 0x0, symName: __RNvXsu_NtNtCs5AlOhPCr03V_3syn4expr8printingNtB7_9ExprRangeNtNtCs2cqEZUIJimJ_5quote9to_tokens8ToTokens9to_tokens, symObjAddr: 0xAC04, symBinAddr: 0x37CB4, symSize: 0x74 }
  - { offset: 0x965B7, size: 0x8, addend: 0x0, symName: __RNvXsv_NtNtCs5AlOhPCr03V_3syn4expr8printingNtB7_8ExprPathNtNtCs2cqEZUIJimJ_5quote9to_tokens8ToTokens9to_tokens, symObjAddr: 0xAC78, symBinAddr: 0x37D28, symSize: 0x5C }
  - { offset: 0x965F6, size: 0x8, addend: 0x0, symName: __RNvXsw_NtNtCs5AlOhPCr03V_3syn4expr8printingNtB7_13ExprReferenceNtNtCs2cqEZUIJimJ_5quote9to_tokens8ToTokens9to_tokens, symObjAddr: 0xACD4, symBinAddr: 0x37D84, symSize: 0x74 }
  - { offset: 0x96635, size: 0x8, addend: 0x0, symName: __RNvXsx_NtNtCs5AlOhPCr03V_3syn4expr8printingNtB7_9ExprBreakNtNtCs2cqEZUIJimJ_5quote9to_tokens8ToTokens9to_tokens, symObjAddr: 0xAD48, symBinAddr: 0x37DF8, symSize: 0x74 }
  - { offset: 0x96674, size: 0x8, addend: 0x0, symName: __RNvXsy_NtNtCs5AlOhPCr03V_3syn4expr8printingNtB7_12ExprContinueNtNtCs2cqEZUIJimJ_5quote9to_tokens8ToTokens9to_tokens, symObjAddr: 0xADBC, symBinAddr: 0x37E6C, symSize: 0x64 }
  - { offset: 0x966B3, size: 0x8, addend: 0x0, symName: __RNvXsz_NtNtCs5AlOhPCr03V_3syn4expr8printingNtB7_10ExprReturnNtNtCs2cqEZUIJimJ_5quote9to_tokens8ToTokens9to_tokens, symObjAddr: 0xAE20, symBinAddr: 0x37ED0, symSize: 0x64 }
  - { offset: 0x966F2, size: 0x8, addend: 0x0, symName: __RNvXsA_NtNtCs5AlOhPCr03V_3syn4expr8printingNtB7_9ExprMacroNtNtCs2cqEZUIJimJ_5quote9to_tokens8ToTokens9to_tokens, symObjAddr: 0xAE84, symBinAddr: 0x37F34, symSize: 0x54 }
  - { offset: 0x96731, size: 0x8, addend: 0x0, symName: __RNvXsB_NtNtCs5AlOhPCr03V_3syn4expr8printingNtB7_10ExprStructNtNtCs2cqEZUIJimJ_5quote9to_tokens8ToTokens9to_tokens, symObjAddr: 0xAED8, symBinAddr: 0x37F88, symSize: 0x70 }
  - { offset: 0x96770, size: 0x8, addend: 0x0, symName: __RNvXsC_NtNtCs5AlOhPCr03V_3syn4expr8printingNtB7_10ExprRepeatNtNtCs2cqEZUIJimJ_5quote9to_tokens8ToTokens9to_tokens, symObjAddr: 0xAF48, symBinAddr: 0x37FF8, symSize: 0x60 }
  - { offset: 0x967AF, size: 0x8, addend: 0x0, symName: __RNvXsD_NtNtCs5AlOhPCr03V_3syn4expr8printingNtB7_9ExprGroupNtNtCs2cqEZUIJimJ_5quote9to_tokens8ToTokens9to_tokens, symObjAddr: 0xAFA8, symBinAddr: 0x38058, symSize: 0x60 }
  - { offset: 0x967EE, size: 0x8, addend: 0x0, symName: __RNvXsE_NtNtCs5AlOhPCr03V_3syn4expr8printingNtB7_9ExprParenNtNtCs2cqEZUIJimJ_5quote9to_tokens8ToTokens9to_tokens, symObjAddr: 0xB008, symBinAddr: 0x380B8, symSize: 0x60 }
  - { offset: 0x9682D, size: 0x8, addend: 0x0, symName: __RNvXsF_NtNtCs5AlOhPCr03V_3syn4expr8printingNtB7_7ExprTryNtNtCs2cqEZUIJimJ_5quote9to_tokens8ToTokens9to_tokens, symObjAddr: 0xB068, symBinAddr: 0x38118, symSize: 0x64 }
  - { offset: 0x9686C, size: 0x8, addend: 0x0, symName: __RNvXsG_NtNtCs5AlOhPCr03V_3syn4expr8printingNtB7_5LabelNtNtCs2cqEZUIJimJ_5quote9to_tokens8ToTokens9to_tokens, symObjAddr: 0xB0CC, symBinAddr: 0x3817C, symSize: 0x50 }
  - { offset: 0x968AB, size: 0x8, addend: 0x0, symName: __RNvXsH_NtNtCs5AlOhPCr03V_3syn4expr8printingNtB7_10FieldValueNtNtCs2cqEZUIJimJ_5quote9to_tokens8ToTokens9to_tokens, symObjAddr: 0xB11C, symBinAddr: 0x381CC, symSize: 0xB4 }
  - { offset: 0x96908, size: 0x8, addend: 0x0, symName: __RNvXsI_NtNtCs5AlOhPCr03V_3syn4expr8printingNtB7_3ArmNtNtCs2cqEZUIJimJ_5quote9to_tokens8ToTokens9to_tokens, symObjAddr: 0xB1D0, symBinAddr: 0x38280, symSize: 0xF4 }
  - { offset: 0x9697B, size: 0x8, addend: 0x0, symName: __RNcNtNtNtCs5AlOhPCr03V_3syn4expr4Expr5Async0B7_, symObjAddr: 0xB330, symBinAddr: 0x383E0, symSize: 0x3C }
  - { offset: 0x969AA, size: 0x8, addend: 0x0, symName: __RNcNtNtNtCs5AlOhPCr03V_3syn4expr4Expr5Block0B7_, symObjAddr: 0xB36C, symBinAddr: 0x3841C, symSize: 0x40 }
  - { offset: 0x969D9, size: 0x8, addend: 0x0, symName: __RNcNtNtNtCs5AlOhPCr03V_3syn4expr4Expr3Box0B7_, symObjAddr: 0xB3AC, symBinAddr: 0x3845C, symSize: 0x3C }
  - { offset: 0x96A08, size: 0x8, addend: 0x0, symName: __RNcNtNtNtCs5AlOhPCr03V_3syn4expr4Expr5Break0B7_, symObjAddr: 0xB3E8, symBinAddr: 0x38498, symSize: 0x40 }
  - { offset: 0x96A37, size: 0x8, addend: 0x0, symName: __RNcNtNtNtCs5AlOhPCr03V_3syn4expr4Expr7Closure0B7_, symObjAddr: 0xB428, symBinAddr: 0x384D8, symSize: 0x40 }
  - { offset: 0x96A66, size: 0x8, addend: 0x0, symName: __RNcNtNtNtCs5AlOhPCr03V_3syn4expr4Expr8Continue0B7_, symObjAddr: 0xB468, symBinAddr: 0x38518, symSize: 0x40 }
  - { offset: 0x96A95, size: 0x8, addend: 0x0, symName: __RNcNtNtNtCs5AlOhPCr03V_3syn4expr4Expr7ForLoop0B7_, symObjAddr: 0xB4A8, symBinAddr: 0x38558, symSize: 0x30 }
  - { offset: 0x96AC4, size: 0x8, addend: 0x0, symName: __RNcNtNtNtCs5AlOhPCr03V_3syn4expr4Expr5Group0B7_, symObjAddr: 0xB4D8, symBinAddr: 0x38588, symSize: 0x3C }
  - { offset: 0x96AF3, size: 0x8, addend: 0x0, symName: __RNcNtNtNtCs5AlOhPCr03V_3syn4expr4Expr2If0B7_, symObjAddr: 0xB514, symBinAddr: 0x385C4, symSize: 0x40 }
  - { offset: 0x96B22, size: 0x8, addend: 0x0, symName: __RNcNtNtNtCs5AlOhPCr03V_3syn4expr4Expr3Let0B7_, symObjAddr: 0xB554, symBinAddr: 0x38604, symSize: 0x40 }
  - { offset: 0x96B51, size: 0x8, addend: 0x0, symName: __RNcNtNtNtCs5AlOhPCr03V_3syn4expr4Expr3Lit0B7_, symObjAddr: 0xB594, symBinAddr: 0x38644, symSize: 0x40 }
  - { offset: 0x96B80, size: 0x8, addend: 0x0, symName: __RNcNtNtNtCs5AlOhPCr03V_3syn4expr4Expr4Loop0B7_, symObjAddr: 0xB5D4, symBinAddr: 0x38684, symSize: 0x40 }
  - { offset: 0x96BAF, size: 0x8, addend: 0x0, symName: __RNcNtNtNtCs5AlOhPCr03V_3syn4expr4Expr5Match0B7_, symObjAddr: 0xB614, symBinAddr: 0x386C4, symSize: 0x40 }
  - { offset: 0x96BDE, size: 0x8, addend: 0x0, symName: __RNcNtNtNtCs5AlOhPCr03V_3syn4expr4Expr5Range0B7_, symObjAddr: 0xB654, symBinAddr: 0x38704, symSize: 0x40 }
  - { offset: 0x96C0D, size: 0x8, addend: 0x0, symName: __RNcNtNtNtCs5AlOhPCr03V_3syn4expr4Expr6Return0B7_, symObjAddr: 0xB694, symBinAddr: 0x38744, symSize: 0x40 }
  - { offset: 0x96C3C, size: 0x8, addend: 0x0, symName: __RNcNtNtNtCs5AlOhPCr03V_3syn4expr4Expr8TryBlock0B7_, symObjAddr: 0xB6D4, symBinAddr: 0x38784, symSize: 0x40 }
  - { offset: 0x96C6B, size: 0x8, addend: 0x0, symName: __RNcNtNtNtCs5AlOhPCr03V_3syn4expr4Expr5Unary0B7_, symObjAddr: 0xB714, symBinAddr: 0x387C4, symSize: 0x40 }
  - { offset: 0x96C9A, size: 0x8, addend: 0x0, symName: __RNcNtNtNtCs5AlOhPCr03V_3syn4expr4Expr6Unsafe0B7_, symObjAddr: 0xB754, symBinAddr: 0x38804, symSize: 0x40 }
  - { offset: 0x96CC9, size: 0x8, addend: 0x0, symName: __RNcNtNtNtCs5AlOhPCr03V_3syn4expr4Expr8Verbatim0B7_, symObjAddr: 0xB794, symBinAddr: 0x38844, symSize: 0x24 }
  - { offset: 0x96CF7, size: 0x8, addend: 0x0, symName: __RNcNtNtNtCs5AlOhPCr03V_3syn4expr4Expr5While0B7_, symObjAddr: 0xB7B8, symBinAddr: 0x38868, symSize: 0x40 }
  - { offset: 0x96D26, size: 0x8, addend: 0x0, symName: __RNcNtNtNtCs5AlOhPCr03V_3syn4expr4Expr5Yield0B7_, symObjAddr: 0xB7F8, symBinAddr: 0x388A8, symSize: 0x40 }
  - { offset: 0x96D56, size: 0x8, addend: 0x0, symName: __RNvXsO_NtCs5AlOhPCr03V_3syn4exprNtB5_4ExprNtNtCs2cqEZUIJimJ_5quote9to_tokens8ToTokens9to_tokens, symObjAddr: 0xC440, symBinAddr: 0x388E8, symSize: 0x4DC }
  - { offset: 0x9723F, size: 0x8, addend: 0x0, symName: __RNcNtNtNtCs5AlOhPCr03V_3syn4expr6Member5Named0B7_, symObjAddr: 0xC91C, symBinAddr: 0x38DC4, symSize: 0x18 }
  - { offset: 0x9726F, size: 0x8, addend: 0x0, symName: __RNcNtNtNtCs5AlOhPCr03V_3syn4expr6Member7Unnamed0B7_, symObjAddr: 0xC934, symBinAddr: 0x38DDC, symSize: 0x28 }
  - { offset: 0x972A5, size: 0x8, addend: 0x0, symName: __RNcNtNtNtCs5AlOhPCr03V_3syn4expr21GenericMethodArgument4Type0B7_, symObjAddr: 0xC95C, symBinAddr: 0x38E04, symSize: 0x30 }
  - { offset: 0x972DC, size: 0x8, addend: 0x0, symName: __RNcNtNtNtCs5AlOhPCr03V_3syn4expr11RangeLimits8HalfOpen0B7_, symObjAddr: 0xC98C, symBinAddr: 0x38E34, symSize: 0x24 }
  - { offset: 0x9730C, size: 0x8, addend: 0x0, symName: __RNcNtNtNtCs5AlOhPCr03V_3syn4expr11RangeLimits6Closed0B7_, symObjAddr: 0xC9B0, symBinAddr: 0x38E58, symSize: 0x20 }
  - { offset: 0x9C9FE, size: 0x8, addend: 0x0, symName: __RNvMNtCsfvfooZQ3Axs_4core5sliceSNtNtCs5AlOhPCr03V_3syn4expr3Arm4iterBy_, symObjAddr: 0xD9C, symBinAddr: 0x30638, symSize: 0x28 }
  - { offset: 0x9CA35, size: 0x8, addend: 0x0, symName: __RNvMNtCsfvfooZQ3Axs_4core5sliceSTNtNtCs5AlOhPCr03V_3syn4expr10FieldValueNtNtBz_5token5CommaE4iterBz_, symObjAddr: 0xDC4, symBinAddr: 0x30660, symSize: 0x28 }
  - { offset: 0x9CA6C, size: 0x8, addend: 0x0, symName: __RNvMNtCsfvfooZQ3Axs_4core5sliceSTNtNtCs5AlOhPCr03V_3syn4expr21GenericMethodArgumentNtNtBz_5token5CommaE4iterBz_, symObjAddr: 0xDEC, symBinAddr: 0x30688, symSize: 0x28 }
  - { offset: 0x9CAA3, size: 0x8, addend: 0x0, symName: __RNvMNtCsfvfooZQ3Axs_4core5sliceSTNtNtCs5AlOhPCr03V_3syn4expr4ExprNtNtBz_5token5CommaE4iterBz_, symObjAddr: 0xE14, symBinAddr: 0x306B0, symSize: 0x28 }
  - { offset: 0x9DFBC, size: 0x8, addend: 0x0, symName: __RNvXNtCs2cqEZUIJimJ_5quote9to_tokensRNtNtCs5AlOhPCr03V_3syn4expr10FieldValueNtB2_8ToTokens9to_tokensBD_, symObjAddr: 0xE3C, symBinAddr: 0x306D8, symSize: 0x40 }
  - { offset: 0x9DFFB, size: 0x8, addend: 0x0, symName: __RNvXNtCs2cqEZUIJimJ_5quote9to_tokensRNtNtCs5AlOhPCr03V_3syn4expr21GenericMethodArgumentNtB2_8ToTokens9to_tokensBD_, symObjAddr: 0xE7C, symBinAddr: 0x30718, symSize: 0x40 }
  - { offset: 0x9E03A, size: 0x8, addend: 0x0, symName: __RNvXNtCs2cqEZUIJimJ_5quote9to_tokensRNtNtCs5AlOhPCr03V_3syn4expr4ExprNtB2_8ToTokens9to_tokensBD_, symObjAddr: 0xEBC, symBinAddr: 0x30758, symSize: 0x40 }
  - { offset: 0x9E089, size: 0x8, addend: 0x0, symName: __RNvMNtCs5AlOhPCr03V_3syn4exprNtB2_4Expr13replace_attrs, symObjAddr: 0x224C, symBinAddr: 0x30798, symSize: 0x688 }
  - { offset: 0x9E12E, size: 0x8, addend: 0x0, symName: __RNvMs0_NtNtCs5AlOhPCr03V_3syn4expr7parsingNtB7_4Expr25parse_without_eager_brace, symObjAddr: 0x2E54, symBinAddr: 0x30FDC, symSize: 0x3C }
  - { offset: 0x9E15E, size: 0x8, addend: 0x0, symName: __RNvMsF_NtNtCs5AlOhPCr03V_3syn4expr7parsingNtB7_6Member8is_named, symObjAddr: 0x9B30, symBinAddr: 0x36BE0, symSize: 0x6C }
  - { offset: 0x9E181, size: 0x8, addend: 0x0, symName: __RNvMs_NtNtCs5AlOhPCr03V_3syn3pat7parsingNtNtB8_4expr6Member10is_unnamed, symObjAddr: 0xB2C4, symBinAddr: 0x38374, symSize: 0x6C }
  - { offset: 0xA04FE, size: 0x8, addend: 0x0, symName: __RNCNvMNtCs5AlOhPCr03V_3syn10punctuatedINtB4_10PunctuatedNtNtB6_4path11PathSegmentNtNtB6_5token6Colon2E10into_pairs0B6_, symObjAddr: 0x4748, symBinAddr: 0x3C9E4, symSize: 0x98 }
  - { offset: 0xA0553, size: 0x8, addend: 0x0, symName: __RNCNvMNtCs5AlOhPCr03V_3syn10punctuatedINtB4_10PunctuatedNtNtB6_4item5FnArgNtNtB6_5token5CommaE3pop0B6_, symObjAddr: 0x90F8, symBinAddr: 0x40FF8, symSize: 0xC0 }
  - { offset: 0xA059B, size: 0x8, addend: 0x0, symName: __RNCNvMNtCs5AlOhPCr03V_3syn10punctuatedINtB4_10PunctuatedNtNtB6_4item5FnArgNtNtB6_5token5CommaE3pops_0B6_, symObjAddr: 0x91B8, symBinAddr: 0x410B8, symSize: 0x74 }
  - { offset: 0xA06AB, size: 0x8, addend: 0x0, symName: __RINvXs7_NtCs5AlOhPCr03V_3syn10punctuatedINtB6_10PunctuatedNtNtB8_4path11PathSegmentNtNtB8_5token6Colon2EINtNtNtNtCsfvfooZQ3Axs_4core4iter6traits7collect6ExtendINtB6_4PairBU_B1j_EE6extendINtB6_9IntoPairsBU_B1j_EEB8_, symObjAddr: 0xE248, symBinAddr: 0x42CB4, symSize: 0x440 }
  - { offset: 0xA07A9, size: 0x8, addend: 0x0, symName: __RNvXs8_NtCs5AlOhPCr03V_3syn10punctuatedINtB5_10PunctuatedNtNtB7_4data5FieldNtNtB7_5token5CommaENtNtNtNtCsfvfooZQ3Axs_4core4iter6traits7collect12IntoIterator9into_iterB7_, symObjAddr: 0xEAA4, symBinAddr: 0x430F4, symSize: 0x1C0 }
  - { offset: 0xA0800, size: 0x8, addend: 0x0, symName: __RNvXs8_NtCs5AlOhPCr03V_3syn10punctuatedINtB5_10PunctuatedNtNtB7_8generics14TypeParamBoundNtNtB7_5token3AddENtNtNtNtCsfvfooZQ3Axs_4core4iter6traits7collect12IntoIterator9into_iterB7_, symObjAddr: 0xEE24, symBinAddr: 0x432B4, symSize: 0x1C0 }
  - { offset: 0xA085C, size: 0x8, addend: 0x0, symName: __RNCNvXs8_NtCs5AlOhPCr03V_3syn10punctuatedINtB7_10PunctuatedNtNtB9_4data5FieldNtNtB9_5token5CommaENtNtNtNtCsfvfooZQ3Axs_4core4iter6traits7collect12IntoIterator9into_iter0B9_, symObjAddr: 0xEFE4, symBinAddr: 0x43474, symSize: 0x44 }
  - { offset: 0xA08A8, size: 0x8, addend: 0x0, symName: __RNCNvXs8_NtCs5AlOhPCr03V_3syn10punctuatedINtB7_10PunctuatedNtNtB9_8generics14TypeParamBoundNtNtB9_5token3AddENtNtNtNtCsfvfooZQ3Axs_4core4iter6traits7collect12IntoIterator9into_iter0B9_, symObjAddr: 0xF06C, symBinAddr: 0x434B8, symSize: 0x44 }
  - { offset: 0xA08F4, size: 0x8, addend: 0x0, symName: __RNCNvXs8_NtCs5AlOhPCr03V_3syn10punctuatedINtB7_10PunctuatedNtNtB9_4data5FieldNtNtB9_5token5CommaENtNtNtNtCsfvfooZQ3Axs_4core4iter6traits7collect12IntoIterator9into_iters_0B9_, symObjAddr: 0xF0B0, symBinAddr: 0x434FC, symSize: 0x98 }
  - { offset: 0xA093F, size: 0x8, addend: 0x0, symName: __RNCNvXs8_NtCs5AlOhPCr03V_3syn10punctuatedINtB7_10PunctuatedNtNtB9_8generics14TypeParamBoundNtNtB9_5token3AddENtNtNtNtCsfvfooZQ3Axs_4core4iter6traits7collect12IntoIterator9into_iters_0B9_, symObjAddr: 0xF1E0, symBinAddr: 0x43594, symSize: 0x98 }
  - { offset: 0xA09AD, size: 0x8, addend: 0x0, symName: __RNvXs9_NtCs5AlOhPCr03V_3syn10punctuatedRINtB5_10PunctuatedNtNtB7_4path11PathSegmentNtNtB7_5token6Colon2ENtNtNtNtCsfvfooZQ3Axs_4core4iter6traits7collect12IntoIterator9into_iterB7_, symObjAddr: 0xF278, symBinAddr: 0x4362C, symSize: 0x34 }
  - { offset: 0xA09ED, size: 0x8, addend: 0x0, symName: __RNvXs9_NtCs5AlOhPCr03V_3syn10punctuatedRINtB5_10PunctuatedNtNtB7_8generics14TypeParamBoundNtNtB7_5token3AddENtNtNtNtCsfvfooZQ3Axs_4core4iter6traits7collect12IntoIterator9into_iterB7_, symObjAddr: 0xF2AC, symBinAddr: 0x43660, symSize: 0x34 }
  - { offset: 0xA0A33, size: 0x8, addend: 0x0, symName: __RNvXsc_NtCs5AlOhPCr03V_3syn10punctuatedINtB5_5PairsNtNtB7_2ty4TypeNtNtB7_5token5CommaENtNtNtNtCsfvfooZQ3Axs_4core4iter6traits8iterator8Iterator4nextB7_, symObjAddr: 0xF2E0, symBinAddr: 0x43694, symSize: 0x5C }
  - { offset: 0xA0A73, size: 0x8, addend: 0x0, symName: __RNvXsc_NtCs5AlOhPCr03V_3syn10punctuatedINtB5_5PairsNtNtB7_2ty9BareFnArgNtNtB7_5token5CommaENtNtNtNtCsfvfooZQ3Axs_4core4iter6traits8iterator8Iterator4nextB7_, symObjAddr: 0xF33C, symBinAddr: 0x436F0, symSize: 0x5C }
  - { offset: 0xA0AB3, size: 0x8, addend: 0x0, symName: __RNvXsc_NtCs5AlOhPCr03V_3syn10punctuatedINtB5_5PairsNtNtB7_3pat3PatNtNtB7_5token2OrENtNtNtNtCsfvfooZQ3Axs_4core4iter6traits8iterator8Iterator4nextB7_, symObjAddr: 0xF398, symBinAddr: 0x4374C, symSize: 0x5C }
  - { offset: 0xA0AF3, size: 0x8, addend: 0x0, symName: __RNvXsc_NtCs5AlOhPCr03V_3syn10punctuatedINtB5_5PairsNtNtB7_3pat3PatNtNtB7_5token5CommaENtNtNtNtCsfvfooZQ3Axs_4core4iter6traits8iterator8Iterator4nextB7_, symObjAddr: 0xF3F4, symBinAddr: 0x437A8, symSize: 0x5C }
  - { offset: 0xA0B33, size: 0x8, addend: 0x0, symName: __RNvXsc_NtCs5AlOhPCr03V_3syn10punctuatedINtB5_5PairsNtNtB7_3pat8FieldPatNtNtB7_5token5CommaENtNtNtNtCsfvfooZQ3Axs_4core4iter6traits8iterator8Iterator4nextB7_, symObjAddr: 0xF450, symBinAddr: 0x43804, symSize: 0x5C }
  - { offset: 0xA0B73, size: 0x8, addend: 0x0, symName: __RNvXsc_NtCs5AlOhPCr03V_3syn10punctuatedINtB5_5PairsNtNtB7_4data5FieldNtNtB7_5token5CommaENtNtNtNtCsfvfooZQ3Axs_4core4iter6traits8iterator8Iterator4nextB7_, symObjAddr: 0xF508, symBinAddr: 0x43860, symSize: 0x5C }
  - { offset: 0xA0BB3, size: 0x8, addend: 0x0, symName: __RNvXsc_NtCs5AlOhPCr03V_3syn10punctuatedINtB5_5PairsNtNtB7_4data7VariantNtNtB7_5token5CommaENtNtNtNtCsfvfooZQ3Axs_4core4iter6traits8iterator8Iterator4nextB7_, symObjAddr: 0xF564, symBinAddr: 0x438BC, symSize: 0x5C }
  - { offset: 0xA0BF3, size: 0x8, addend: 0x0, symName: __RNvXsc_NtCs5AlOhPCr03V_3syn10punctuatedINtB5_5PairsNtNtB7_4expr10FieldValueNtNtB7_5token5CommaENtNtNtNtCsfvfooZQ3Axs_4core4iter6traits8iterator8Iterator4nextB7_, symObjAddr: 0xF5C0, symBinAddr: 0x43918, symSize: 0x5C }
  - { offset: 0xA0C33, size: 0x8, addend: 0x0, symName: __RNvXsc_NtCs5AlOhPCr03V_3syn10punctuatedINtB5_5PairsNtNtB7_4expr21GenericMethodArgumentNtNtB7_5token5CommaENtNtNtNtCsfvfooZQ3Axs_4core4iter6traits8iterator8Iterator4nextB7_, symObjAddr: 0xF61C, symBinAddr: 0x43974, symSize: 0x5C }
  - { offset: 0xA0C73, size: 0x8, addend: 0x0, symName: __RNvXsc_NtCs5AlOhPCr03V_3syn10punctuatedINtB5_5PairsNtNtB7_4expr4ExprNtNtB7_5token5CommaENtNtNtNtCsfvfooZQ3Axs_4core4iter6traits8iterator8Iterator4nextB7_, symObjAddr: 0xF678, symBinAddr: 0x439D0, symSize: 0x5C }
  - { offset: 0xA0CB3, size: 0x8, addend: 0x0, symName: __RNvXsc_NtCs5AlOhPCr03V_3syn10punctuatedINtB5_5PairsNtNtB7_4item5FnArgNtNtB7_5token5CommaENtNtNtNtCsfvfooZQ3Axs_4core4iter6traits8iterator8Iterator4nextB7_, symObjAddr: 0xF6D4, symBinAddr: 0x43A2C, symSize: 0x5C }
  - { offset: 0xA0CF3, size: 0x8, addend: 0x0, symName: __RNvXsc_NtCs5AlOhPCr03V_3syn10punctuatedINtB5_5PairsNtNtB7_4item7UseTreeNtNtB7_5token5CommaENtNtNtNtCsfvfooZQ3Axs_4core4iter6traits8iterator8Iterator4nextB7_, symObjAddr: 0xF730, symBinAddr: 0x43A88, symSize: 0x5C }
  - { offset: 0xA0D33, size: 0x8, addend: 0x0, symName: __RNvXsc_NtCs5AlOhPCr03V_3syn10punctuatedINtB5_5PairsNtNtB7_4path11PathSegmentNtNtB7_5token6Colon2ENtNtNtNtCsfvfooZQ3Axs_4core4iter6traits8iterator8Iterator4nextB7_, symObjAddr: 0xF78C, symBinAddr: 0x43AE4, symSize: 0x5C }
  - { offset: 0xA0D73, size: 0x8, addend: 0x0, symName: __RNvXsc_NtCs5AlOhPCr03V_3syn10punctuatedINtB5_5PairsNtNtB7_4path15GenericArgumentNtNtB7_5token5CommaENtNtNtNtCsfvfooZQ3Axs_4core4iter6traits8iterator8Iterator4nextB7_, symObjAddr: 0xF7E8, symBinAddr: 0x43B40, symSize: 0x5C }
  - { offset: 0xA0DB3, size: 0x8, addend: 0x0, symName: __RNvXsc_NtCs5AlOhPCr03V_3syn10punctuatedINtB5_5PairsNtNtB7_8generics11LifetimeDefNtNtB7_5token5CommaENtNtNtNtCsfvfooZQ3Axs_4core4iter6traits8iterator8Iterator4nextB7_, symObjAddr: 0xF844, symBinAddr: 0x43B9C, symSize: 0x5C }
  - { offset: 0xA0DF3, size: 0x8, addend: 0x0, symName: __RNvXsc_NtCs5AlOhPCr03V_3syn10punctuatedINtB5_5PairsNtNtB7_8generics12GenericParamNtNtB7_5token5CommaENtNtNtNtCsfvfooZQ3Axs_4core4iter6traits8iterator8Iterator4nextB7_, symObjAddr: 0xF8A0, symBinAddr: 0x43BF8, symSize: 0x5C }
  - { offset: 0xA0E33, size: 0x8, addend: 0x0, symName: __RNvXsc_NtCs5AlOhPCr03V_3syn10punctuatedINtB5_5PairsNtNtB7_8generics14TypeParamBoundNtNtB7_5token3AddENtNtNtNtCsfvfooZQ3Axs_4core4iter6traits8iterator8Iterator4nextB7_, symObjAddr: 0xF8FC, symBinAddr: 0x43C54, symSize: 0x5C }
  - { offset: 0xA0E73, size: 0x8, addend: 0x0, symName: __RNvXsc_NtCs5AlOhPCr03V_3syn10punctuatedINtB5_5PairsNtNtB7_8generics14WherePredicateNtNtB7_5token5CommaENtNtNtNtCsfvfooZQ3Axs_4core4iter6traits8iterator8Iterator4nextB7_, symObjAddr: 0xF958, symBinAddr: 0x43CB0, symSize: 0x5C }
  - { offset: 0xA0EB3, size: 0x8, addend: 0x0, symName: __RNvXsc_NtCs5AlOhPCr03V_3syn10punctuatedINtB5_5PairsNtNtB7_8lifetime8LifetimeNtNtB7_5token3AddENtNtNtNtCsfvfooZQ3Axs_4core4iter6traits8iterator8Iterator4nextB7_, symObjAddr: 0xF9B4, symBinAddr: 0x43D0C, symSize: 0x5C }
  - { offset: 0xA0EF8, size: 0x8, addend: 0x0, symName: __RNCNvXsc_NtCs5AlOhPCr03V_3syn10punctuatedINtB7_5PairsNtNtB9_2ty4TypeNtNtB9_5token5CommaENtNtNtNtCsfvfooZQ3Axs_4core4iter6traits8iterator8Iterator4next0B9_, symObjAddr: 0xFA10, symBinAddr: 0x43D68, symSize: 0x40 }
  - { offset: 0xA0F6D, size: 0x8, addend: 0x0, symName: __RNCNvXsc_NtCs5AlOhPCr03V_3syn10punctuatedINtB7_5PairsNtNtB9_2ty9BareFnArgNtNtB9_5token5CommaENtNtNtNtCsfvfooZQ3Axs_4core4iter6traits8iterator8Iterator4next0B9_, symObjAddr: 0xFA50, symBinAddr: 0x43DA8, symSize: 0x40 }
  - { offset: 0xA0FE2, size: 0x8, addend: 0x0, symName: __RNCNvXsc_NtCs5AlOhPCr03V_3syn10punctuatedINtB7_5PairsNtNtB9_3pat3PatNtNtB9_5token2OrENtNtNtNtCsfvfooZQ3Axs_4core4iter6traits8iterator8Iterator4next0B9_, symObjAddr: 0xFA90, symBinAddr: 0x43DE8, symSize: 0x40 }
  - { offset: 0xA1057, size: 0x8, addend: 0x0, symName: __RNCNvXsc_NtCs5AlOhPCr03V_3syn10punctuatedINtB7_5PairsNtNtB9_3pat3PatNtNtB9_5token5CommaENtNtNtNtCsfvfooZQ3Axs_4core4iter6traits8iterator8Iterator4next0B9_, symObjAddr: 0xFAD0, symBinAddr: 0x43E28, symSize: 0x40 }
  - { offset: 0xA10CC, size: 0x8, addend: 0x0, symName: __RNCNvXsc_NtCs5AlOhPCr03V_3syn10punctuatedINtB7_5PairsNtNtB9_3pat8FieldPatNtNtB9_5token5CommaENtNtNtNtCsfvfooZQ3Axs_4core4iter6traits8iterator8Iterator4next0B9_, symObjAddr: 0xFB10, symBinAddr: 0x43E68, symSize: 0x40 }
  - { offset: 0xA1141, size: 0x8, addend: 0x0, symName: __RNCNvXsc_NtCs5AlOhPCr03V_3syn10punctuatedINtB7_5PairsNtNtB9_4data5FieldNtNtB9_5token5CommaENtNtNtNtCsfvfooZQ3Axs_4core4iter6traits8iterator8Iterator4next0B9_, symObjAddr: 0xFB90, symBinAddr: 0x43EA8, symSize: 0x40 }
  - { offset: 0xA11B6, size: 0x8, addend: 0x0, symName: __RNCNvXsc_NtCs5AlOhPCr03V_3syn10punctuatedINtB7_5PairsNtNtB9_4data7VariantNtNtB9_5token5CommaENtNtNtNtCsfvfooZQ3Axs_4core4iter6traits8iterator8Iterator4next0B9_, symObjAddr: 0xFBD0, symBinAddr: 0x43EE8, symSize: 0x40 }
  - { offset: 0xA122B, size: 0x8, addend: 0x0, symName: __RNCNvXsc_NtCs5AlOhPCr03V_3syn10punctuatedINtB7_5PairsNtNtB9_4expr10FieldValueNtNtB9_5token5CommaENtNtNtNtCsfvfooZQ3Axs_4core4iter6traits8iterator8Iterator4next0B9_, symObjAddr: 0xFC10, symBinAddr: 0x43F28, symSize: 0x40 }
  - { offset: 0xA12A0, size: 0x8, addend: 0x0, symName: __RNCNvXsc_NtCs5AlOhPCr03V_3syn10punctuatedINtB7_5PairsNtNtB9_4expr21GenericMethodArgumentNtNtB9_5token5CommaENtNtNtNtCsfvfooZQ3Axs_4core4iter6traits8iterator8Iterator4next0B9_, symObjAddr: 0xFC50, symBinAddr: 0x43F68, symSize: 0x40 }
  - { offset: 0xA1315, size: 0x8, addend: 0x0, symName: __RNCNvXsc_NtCs5AlOhPCr03V_3syn10punctuatedINtB7_5PairsNtNtB9_4expr4ExprNtNtB9_5token5CommaENtNtNtNtCsfvfooZQ3Axs_4core4iter6traits8iterator8Iterator4next0B9_, symObjAddr: 0xFC90, symBinAddr: 0x43FA8, symSize: 0x40 }
  - { offset: 0xA138A, size: 0x8, addend: 0x0, symName: __RNCNvXsc_NtCs5AlOhPCr03V_3syn10punctuatedINtB7_5PairsNtNtB9_4item5FnArgNtNtB9_5token5CommaENtNtNtNtCsfvfooZQ3Axs_4core4iter6traits8iterator8Iterator4next0B9_, symObjAddr: 0xFCD0, symBinAddr: 0x43FE8, symSize: 0x40 }
  - { offset: 0xA13FF, size: 0x8, addend: 0x0, symName: __RNCNvXsc_NtCs5AlOhPCr03V_3syn10punctuatedINtB7_5PairsNtNtB9_4item7UseTreeNtNtB9_5token5CommaENtNtNtNtCsfvfooZQ3Axs_4core4iter6traits8iterator8Iterator4next0B9_, symObjAddr: 0xFD10, symBinAddr: 0x44028, symSize: 0x40 }
  - { offset: 0xA1474, size: 0x8, addend: 0x0, symName: __RNCNvXsc_NtCs5AlOhPCr03V_3syn10punctuatedINtB7_5PairsNtNtB9_4path11PathSegmentNtNtB9_5token6Colon2ENtNtNtNtCsfvfooZQ3Axs_4core4iter6traits8iterator8Iterator4next0B9_, symObjAddr: 0xFD50, symBinAddr: 0x44068, symSize: 0x40 }
  - { offset: 0xA14E9, size: 0x8, addend: 0x0, symName: __RNCNvXsc_NtCs5AlOhPCr03V_3syn10punctuatedINtB7_5PairsNtNtB9_4path15GenericArgumentNtNtB9_5token5CommaENtNtNtNtCsfvfooZQ3Axs_4core4iter6traits8iterator8Iterator4next0B9_, symObjAddr: 0xFD90, symBinAddr: 0x440A8, symSize: 0x40 }
  - { offset: 0xA155E, size: 0x8, addend: 0x0, symName: __RNCNvXsc_NtCs5AlOhPCr03V_3syn10punctuatedINtB7_5PairsNtNtB9_8generics11LifetimeDefNtNtB9_5token5CommaENtNtNtNtCsfvfooZQ3Axs_4core4iter6traits8iterator8Iterator4next0B9_, symObjAddr: 0xFDD0, symBinAddr: 0x440E8, symSize: 0x40 }
  - { offset: 0xA15D3, size: 0x8, addend: 0x0, symName: __RNCNvXsc_NtCs5AlOhPCr03V_3syn10punctuatedINtB7_5PairsNtNtB9_8generics12GenericParamNtNtB9_5token5CommaENtNtNtNtCsfvfooZQ3Axs_4core4iter6traits8iterator8Iterator4next0B9_, symObjAddr: 0xFE10, symBinAddr: 0x44128, symSize: 0x40 }
  - { offset: 0xA1648, size: 0x8, addend: 0x0, symName: __RNCNvXsc_NtCs5AlOhPCr03V_3syn10punctuatedINtB7_5PairsNtNtB9_8generics14TypeParamBoundNtNtB9_5token3AddENtNtNtNtCsfvfooZQ3Axs_4core4iter6traits8iterator8Iterator4next0B9_, symObjAddr: 0xFE50, symBinAddr: 0x44168, symSize: 0x40 }
  - { offset: 0xA16BD, size: 0x8, addend: 0x0, symName: __RNCNvXsc_NtCs5AlOhPCr03V_3syn10punctuatedINtB7_5PairsNtNtB9_8generics14WherePredicateNtNtB9_5token5CommaENtNtNtNtCsfvfooZQ3Axs_4core4iter6traits8iterator8Iterator4next0B9_, symObjAddr: 0xFE90, symBinAddr: 0x441A8, symSize: 0x40 }
  - { offset: 0xA1732, size: 0x8, addend: 0x0, symName: __RNCNvXsc_NtCs5AlOhPCr03V_3syn10punctuatedINtB7_5PairsNtNtB9_8lifetime8LifetimeNtNtB9_5token3AddENtNtNtNtCsfvfooZQ3Axs_4core4iter6traits8iterator8Iterator4next0B9_, symObjAddr: 0xFED0, symBinAddr: 0x441E8, symSize: 0x40 }
  - { offset: 0xA17A7, size: 0x8, addend: 0x0, symName: __RNCNvXsc_NtCs5AlOhPCr03V_3syn10punctuatedINtB7_5PairsNtNtB9_2ty4TypeNtNtB9_5token5CommaENtNtNtNtCsfvfooZQ3Axs_4core4iter6traits8iterator8Iterator4nexts_0B9_, symObjAddr: 0xFF10, symBinAddr: 0x44228, symSize: 0x48 }
  - { offset: 0xA17E9, size: 0x8, addend: 0x0, symName: __RNCNvXsc_NtCs5AlOhPCr03V_3syn10punctuatedINtB7_5PairsNtNtB9_2ty9BareFnArgNtNtB9_5token5CommaENtNtNtNtCsfvfooZQ3Axs_4core4iter6traits8iterator8Iterator4nexts_0B9_, symObjAddr: 0xFF58, symBinAddr: 0x44270, symSize: 0x48 }
  - { offset: 0xA182B, size: 0x8, addend: 0x0, symName: __RNCNvXsc_NtCs5AlOhPCr03V_3syn10punctuatedINtB7_5PairsNtNtB9_3pat3PatNtNtB9_5token2OrENtNtNtNtCsfvfooZQ3Axs_4core4iter6traits8iterator8Iterator4nexts_0B9_, symObjAddr: 0xFFA0, symBinAddr: 0x442B8, symSize: 0x48 }
  - { offset: 0xA186D, size: 0x8, addend: 0x0, symName: __RNCNvXsc_NtCs5AlOhPCr03V_3syn10punctuatedINtB7_5PairsNtNtB9_3pat3PatNtNtB9_5token5CommaENtNtNtNtCsfvfooZQ3Axs_4core4iter6traits8iterator8Iterator4nexts_0B9_, symObjAddr: 0xFFE8, symBinAddr: 0x44300, symSize: 0x48 }
  - { offset: 0xA18AF, size: 0x8, addend: 0x0, symName: __RNCNvXsc_NtCs5AlOhPCr03V_3syn10punctuatedINtB7_5PairsNtNtB9_3pat8FieldPatNtNtB9_5token5CommaENtNtNtNtCsfvfooZQ3Axs_4core4iter6traits8iterator8Iterator4nexts_0B9_, symObjAddr: 0x10030, symBinAddr: 0x44348, symSize: 0x48 }
  - { offset: 0xA18F1, size: 0x8, addend: 0x0, symName: __RNCNvXsc_NtCs5AlOhPCr03V_3syn10punctuatedINtB7_5PairsNtNtB9_4data5FieldNtNtB9_5token5CommaENtNtNtNtCsfvfooZQ3Axs_4core4iter6traits8iterator8Iterator4nexts_0B9_, symObjAddr: 0x100C0, symBinAddr: 0x44390, symSize: 0x48 }
  - { offset: 0xA1933, size: 0x8, addend: 0x0, symName: __RNCNvXsc_NtCs5AlOhPCr03V_3syn10punctuatedINtB7_5PairsNtNtB9_4data7VariantNtNtB9_5token5CommaENtNtNtNtCsfvfooZQ3Axs_4core4iter6traits8iterator8Iterator4nexts_0B9_, symObjAddr: 0x10108, symBinAddr: 0x443D8, symSize: 0x48 }
  - { offset: 0xA1975, size: 0x8, addend: 0x0, symName: __RNCNvXsc_NtCs5AlOhPCr03V_3syn10punctuatedINtB7_5PairsNtNtB9_4expr10FieldValueNtNtB9_5token5CommaENtNtNtNtCsfvfooZQ3Axs_4core4iter6traits8iterator8Iterator4nexts_0B9_, symObjAddr: 0x10150, symBinAddr: 0x44420, symSize: 0x48 }
  - { offset: 0xA19B7, size: 0x8, addend: 0x0, symName: __RNCNvXsc_NtCs5AlOhPCr03V_3syn10punctuatedINtB7_5PairsNtNtB9_4expr21GenericMethodArgumentNtNtB9_5token5CommaENtNtNtNtCsfvfooZQ3Axs_4core4iter6traits8iterator8Iterator4nexts_0B9_, symObjAddr: 0x10198, symBinAddr: 0x44468, symSize: 0x48 }
  - { offset: 0xA19F9, size: 0x8, addend: 0x0, symName: __RNCNvXsc_NtCs5AlOhPCr03V_3syn10punctuatedINtB7_5PairsNtNtB9_4expr4ExprNtNtB9_5token5CommaENtNtNtNtCsfvfooZQ3Axs_4core4iter6traits8iterator8Iterator4nexts_0B9_, symObjAddr: 0x101E0, symBinAddr: 0x444B0, symSize: 0x48 }
  - { offset: 0xA1A3B, size: 0x8, addend: 0x0, symName: __RNCNvXsc_NtCs5AlOhPCr03V_3syn10punctuatedINtB7_5PairsNtNtB9_4item5FnArgNtNtB9_5token5CommaENtNtNtNtCsfvfooZQ3Axs_4core4iter6traits8iterator8Iterator4nexts_0B9_, symObjAddr: 0x10228, symBinAddr: 0x444F8, symSize: 0x48 }
  - { offset: 0xA1A7D, size: 0x8, addend: 0x0, symName: __RNCNvXsc_NtCs5AlOhPCr03V_3syn10punctuatedINtB7_5PairsNtNtB9_4item7UseTreeNtNtB9_5token5CommaENtNtNtNtCsfvfooZQ3Axs_4core4iter6traits8iterator8Iterator4nexts_0B9_, symObjAddr: 0x10270, symBinAddr: 0x44540, symSize: 0x48 }
  - { offset: 0xA1ABF, size: 0x8, addend: 0x0, symName: __RNCNvXsc_NtCs5AlOhPCr03V_3syn10punctuatedINtB7_5PairsNtNtB9_4path11PathSegmentNtNtB9_5token6Colon2ENtNtNtNtCsfvfooZQ3Axs_4core4iter6traits8iterator8Iterator4nexts_0B9_, symObjAddr: 0x102B8, symBinAddr: 0x44588, symSize: 0x48 }
  - { offset: 0xA1B01, size: 0x8, addend: 0x0, symName: __RNCNvXsc_NtCs5AlOhPCr03V_3syn10punctuatedINtB7_5PairsNtNtB9_4path15GenericArgumentNtNtB9_5token5CommaENtNtNtNtCsfvfooZQ3Axs_4core4iter6traits8iterator8Iterator4nexts_0B9_, symObjAddr: 0x10300, symBinAddr: 0x445D0, symSize: 0x48 }
  - { offset: 0xA1B43, size: 0x8, addend: 0x0, symName: __RNCNvXsc_NtCs5AlOhPCr03V_3syn10punctuatedINtB7_5PairsNtNtB9_8generics11LifetimeDefNtNtB9_5token5CommaENtNtNtNtCsfvfooZQ3Axs_4core4iter6traits8iterator8Iterator4nexts_0B9_, symObjAddr: 0x10348, symBinAddr: 0x44618, symSize: 0x48 }
  - { offset: 0xA1B85, size: 0x8, addend: 0x0, symName: __RNCNvXsc_NtCs5AlOhPCr03V_3syn10punctuatedINtB7_5PairsNtNtB9_8generics12GenericParamNtNtB9_5token5CommaENtNtNtNtCsfvfooZQ3Axs_4core4iter6traits8iterator8Iterator4nexts_0B9_, symObjAddr: 0x10390, symBinAddr: 0x44660, symSize: 0x48 }
  - { offset: 0xA1BC7, size: 0x8, addend: 0x0, symName: __RNCNvXsc_NtCs5AlOhPCr03V_3syn10punctuatedINtB7_5PairsNtNtB9_8generics14TypeParamBoundNtNtB9_5token3AddENtNtNtNtCsfvfooZQ3Axs_4core4iter6traits8iterator8Iterator4nexts_0B9_, symObjAddr: 0x103D8, symBinAddr: 0x446A8, symSize: 0x48 }
  - { offset: 0xA1C09, size: 0x8, addend: 0x0, symName: __RNCNvXsc_NtCs5AlOhPCr03V_3syn10punctuatedINtB7_5PairsNtNtB9_8generics14WherePredicateNtNtB9_5token5CommaENtNtNtNtCsfvfooZQ3Axs_4core4iter6traits8iterator8Iterator4nexts_0B9_, symObjAddr: 0x10420, symBinAddr: 0x446F0, symSize: 0x48 }
  - { offset: 0xA1C4B, size: 0x8, addend: 0x0, symName: __RNCNvXsc_NtCs5AlOhPCr03V_3syn10punctuatedINtB7_5PairsNtNtB9_8lifetime8LifetimeNtNtB9_5token3AddENtNtNtNtCsfvfooZQ3Axs_4core4iter6traits8iterator8Iterator4nexts_0B9_, symObjAddr: 0x10468, symBinAddr: 0x44738, symSize: 0x48 }
  - { offset: 0xA1D19, size: 0x8, addend: 0x0, symName: __RNvXsg_NtCs5AlOhPCr03V_3syn10punctuatedINtB5_8PairsMutNtNtB7_4path11PathSegmentNtNtB7_5token6Colon2ENtNtNtNtCsfvfooZQ3Axs_4core4iter6traits8iterator8Iterator4nextB7_, symObjAddr: 0x104B0, symBinAddr: 0x44780, symSize: 0x5C }
  - { offset: 0xA1D5E, size: 0x8, addend: 0x0, symName: __RNCNvXsg_NtCs5AlOhPCr03V_3syn10punctuatedINtB7_8PairsMutNtNtB9_4path11PathSegmentNtNtB9_5token6Colon2ENtNtNtNtCsfvfooZQ3Axs_4core4iter6traits8iterator8Iterator4next0B9_, symObjAddr: 0x1050C, symBinAddr: 0x447DC, symSize: 0x40 }
  - { offset: 0xA1DD3, size: 0x8, addend: 0x0, symName: __RNCNvXsg_NtCs5AlOhPCr03V_3syn10punctuatedINtB7_8PairsMutNtNtB9_4path11PathSegmentNtNtB9_5token6Colon2ENtNtNtNtCsfvfooZQ3Axs_4core4iter6traits8iterator8Iterator4nexts_0B9_, symObjAddr: 0x1054C, symBinAddr: 0x4481C, symSize: 0x48 }
  - { offset: 0xA1E23, size: 0x8, addend: 0x0, symName: __RNvXsj_NtCs5AlOhPCr03V_3syn10punctuatedINtB5_9IntoPairsNtNtB7_4path11PathSegmentNtNtB7_5token6Colon2ENtNtNtNtCsfvfooZQ3Axs_4core4iter6traits8iterator8Iterator4nextB7_, symObjAddr: 0x10594, symBinAddr: 0x44864, symSize: 0x74 }
  - { offset: 0xA1E68, size: 0x8, addend: 0x0, symName: __RNCNvXsj_NtCs5AlOhPCr03V_3syn10punctuatedINtB7_9IntoPairsNtNtB9_4path11PathSegmentNtNtB9_5token6Colon2ENtNtNtNtCsfvfooZQ3Axs_4core4iter6traits8iterator8Iterator4next0B9_, symObjAddr: 0x10608, symBinAddr: 0x448D8, symSize: 0x74 }
  - { offset: 0xA1ED6, size: 0x8, addend: 0x0, symName: __RNCNvXsj_NtCs5AlOhPCr03V_3syn10punctuatedINtB7_9IntoPairsNtNtB9_4path11PathSegmentNtNtB9_5token6Colon2ENtNtNtNtCsfvfooZQ3Axs_4core4iter6traits8iterator8Iterator4nexts_0B9_, symObjAddr: 0x1067C, symBinAddr: 0x4494C, symSize: 0x50 }
  - { offset: 0xA1F26, size: 0x8, addend: 0x0, symName: __RNvXsn_NtCs5AlOhPCr03V_3syn10punctuatedINtB5_8IntoIterNtNtB7_8generics14TypeParamBoundENtNtNtNtCsfvfooZQ3Axs_4core4iter6traits8iterator8Iterator4nextB7_, symObjAddr: 0x106CC, symBinAddr: 0x4499C, symSize: 0x34 }
  - { offset: 0xA1F5E, size: 0x8, addend: 0x0, symName: __RINvNtCs5AlOhPCr03V_3syn10punctuated21empty_punctuated_iterNtNtB4_4data5FieldEB4_, symObjAddr: 0x10700, symBinAddr: 0x449D0, symSize: 0x68 }
  - { offset: 0xA1FA0, size: 0x8, addend: 0x0, symName: __RNvXst_NtCs5AlOhPCr03V_3syn10punctuatedINtB5_4IterNtNtB7_4path11PathSegmentENtNtNtNtCsfvfooZQ3Axs_4core4iter6traits8iterator8Iterator4nextB7_, symObjAddr: 0x107B0, symBinAddr: 0x44A38, symSize: 0x48 }
  - { offset: 0xA1FD7, size: 0x8, addend: 0x0, symName: __RNvXst_NtCs5AlOhPCr03V_3syn10punctuatedINtB5_4IterNtNtB7_8generics12GenericParamENtNtNtNtCsfvfooZQ3Axs_4core4iter6traits8iterator8Iterator4nextB7_, symObjAddr: 0x107F8, symBinAddr: 0x44A80, symSize: 0x48 }
  - { offset: 0xA200E, size: 0x8, addend: 0x0, symName: __RNvXst_NtCs5AlOhPCr03V_3syn10punctuatedINtB5_4IterNtNtB7_8generics14TypeParamBoundENtNtNtNtCsfvfooZQ3Axs_4core4iter6traits8iterator8Iterator4nextB7_, symObjAddr: 0x10840, symBinAddr: 0x44AC8, symSize: 0x48 }
  - { offset: 0xA204B, size: 0x8, addend: 0x0, symName: __RNvXsu_NtCs5AlOhPCr03V_3syn10punctuatedINtB5_4IterNtNtB7_4path11PathSegmentENtNtNtNtCsfvfooZQ3Axs_4core4iter6traits12double_ended19DoubleEndedIterator9next_backB7_, symObjAddr: 0x10888, symBinAddr: 0x44B10, symSize: 0x48 }
  - { offset: 0xA2088, size: 0x8, addend: 0x0, symName: __RNvXsw_NtCs5AlOhPCr03V_3syn10punctuatedINtB5_11PrivateIterNtNtB7_4data5FieldNtNtB7_5token5CommaENtNtNtNtCsfvfooZQ3Axs_4core4iter6traits8iterator8Iterator4nextB7_, symObjAddr: 0x108D0, symBinAddr: 0x44B58, symSize: 0x48 }
  - { offset: 0xA20C8, size: 0x8, addend: 0x0, symName: __RNvXsw_NtCs5AlOhPCr03V_3syn10punctuatedINtB5_11PrivateIterNtNtB7_4path11PathSegmentNtNtB7_5token6Colon2ENtNtNtNtCsfvfooZQ3Axs_4core4iter6traits8iterator8Iterator4nextB7_, symObjAddr: 0x10960, symBinAddr: 0x44BA0, symSize: 0x48 }
  - { offset: 0xA2108, size: 0x8, addend: 0x0, symName: __RNvXsw_NtCs5AlOhPCr03V_3syn10punctuatedINtB5_11PrivateIterNtNtB7_8generics12GenericParamNtNtB7_5token5CommaENtNtNtNtCsfvfooZQ3Axs_4core4iter6traits8iterator8Iterator4nextB7_, symObjAddr: 0x109A8, symBinAddr: 0x44BE8, symSize: 0x48 }
  - { offset: 0xA2148, size: 0x8, addend: 0x0, symName: __RNvXsw_NtCs5AlOhPCr03V_3syn10punctuatedINtB5_11PrivateIterNtNtB7_8generics14TypeParamBoundNtNtB7_5token3AddENtNtNtNtCsfvfooZQ3Axs_4core4iter6traits8iterator8Iterator4nextB7_, symObjAddr: 0x109F0, symBinAddr: 0x44C30, symSize: 0x48 }
  - { offset: 0xA218D, size: 0x8, addend: 0x0, symName: __RNCNvXsw_NtCs5AlOhPCr03V_3syn10punctuatedINtB7_11PrivateIterNtNtB9_4data5FieldNtNtB9_5token5CommaENtNtNtNtCsfvfooZQ3Axs_4core4iter6traits8iterator8Iterator4next0B9_, symObjAddr: 0x10A38, symBinAddr: 0x44C78, symSize: 0x24 }
  - { offset: 0xA21D8, size: 0x8, addend: 0x0, symName: __RNCNvXsw_NtCs5AlOhPCr03V_3syn10punctuatedINtB7_11PrivateIterNtNtB9_4path11PathSegmentNtNtB9_5token6Colon2ENtNtNtNtCsfvfooZQ3Axs_4core4iter6traits8iterator8Iterator4next0B9_, symObjAddr: 0x10A80, symBinAddr: 0x44C9C, symSize: 0x24 }
  - { offset: 0xA2223, size: 0x8, addend: 0x0, symName: __RNCNvXsw_NtCs5AlOhPCr03V_3syn10punctuatedINtB7_11PrivateIterNtNtB9_8generics12GenericParamNtNtB9_5token5CommaENtNtNtNtCsfvfooZQ3Axs_4core4iter6traits8iterator8Iterator4next0B9_, symObjAddr: 0x10AA4, symBinAddr: 0x44CC0, symSize: 0x24 }
  - { offset: 0xA226E, size: 0x8, addend: 0x0, symName: __RNCNvXsw_NtCs5AlOhPCr03V_3syn10punctuatedINtB7_11PrivateIterNtNtB9_8generics14TypeParamBoundNtNtB9_5token3AddENtNtNtNtCsfvfooZQ3Axs_4core4iter6traits8iterator8Iterator4next0B9_, symObjAddr: 0x10AC8, symBinAddr: 0x44CE4, symSize: 0x24 }
  - { offset: 0xA22B9, size: 0x8, addend: 0x0, symName: __RNCNvXsw_NtCs5AlOhPCr03V_3syn10punctuatedINtB7_11PrivateIterNtNtB9_4data5FieldNtNtB9_5token5CommaENtNtNtNtCsfvfooZQ3Axs_4core4iter6traits8iterator8Iterator4nexts_0B9_, symObjAddr: 0x10AEC, symBinAddr: 0x44D08, symSize: 0x3C }
  - { offset: 0xA22FB, size: 0x8, addend: 0x0, symName: __RNCNvXsw_NtCs5AlOhPCr03V_3syn10punctuatedINtB7_11PrivateIterNtNtB9_4path11PathSegmentNtNtB9_5token6Colon2ENtNtNtNtCsfvfooZQ3Axs_4core4iter6traits8iterator8Iterator4nexts_0B9_, symObjAddr: 0x10B64, symBinAddr: 0x44D44, symSize: 0x3C }
  - { offset: 0xA233D, size: 0x8, addend: 0x0, symName: __RNCNvXsw_NtCs5AlOhPCr03V_3syn10punctuatedINtB7_11PrivateIterNtNtB9_8generics12GenericParamNtNtB9_5token5CommaENtNtNtNtCsfvfooZQ3Axs_4core4iter6traits8iterator8Iterator4nexts_0B9_, symObjAddr: 0x10BA0, symBinAddr: 0x44D80, symSize: 0x3C }
  - { offset: 0xA237F, size: 0x8, addend: 0x0, symName: __RNCNvXsw_NtCs5AlOhPCr03V_3syn10punctuatedINtB7_11PrivateIterNtNtB9_8generics14TypeParamBoundNtNtB9_5token3AddENtNtNtNtCsfvfooZQ3Axs_4core4iter6traits8iterator8Iterator4nexts_0B9_, symObjAddr: 0x10BDC, symBinAddr: 0x44DBC, symSize: 0x3C }
  - { offset: 0xA23E4, size: 0x8, addend: 0x0, symName: __RNvXsx_NtCs5AlOhPCr03V_3syn10punctuatedINtB5_11PrivateIterNtNtB7_4data5FieldNtNtB7_5token5CommaENtNtNtNtCsfvfooZQ3Axs_4core4iter6traits12double_ended19DoubleEndedIterator9next_backB7_, symObjAddr: 0x10C18, symBinAddr: 0x44DF8, symSize: 0x48 }
  - { offset: 0xA2424, size: 0x8, addend: 0x0, symName: __RNvXsx_NtCs5AlOhPCr03V_3syn10punctuatedINtB5_11PrivateIterNtNtB7_4path11PathSegmentNtNtB7_5token6Colon2ENtNtNtNtCsfvfooZQ3Axs_4core4iter6traits12double_ended19DoubleEndedIterator9next_backB7_, symObjAddr: 0x10CA8, symBinAddr: 0x44E40, symSize: 0x48 }
  - { offset: 0xA2464, size: 0x8, addend: 0x0, symName: __RNvXsx_NtCs5AlOhPCr03V_3syn10punctuatedINtB5_11PrivateIterNtNtB7_8generics12GenericParamNtNtB7_5token5CommaENtNtNtNtCsfvfooZQ3Axs_4core4iter6traits12double_ended19DoubleEndedIterator9next_backB7_, symObjAddr: 0x10CF0, symBinAddr: 0x44E88, symSize: 0x48 }
  - { offset: 0xA24A4, size: 0x8, addend: 0x0, symName: __RNvXsx_NtCs5AlOhPCr03V_3syn10punctuatedINtB5_11PrivateIterNtNtB7_8generics14TypeParamBoundNtNtB7_5token3AddENtNtNtNtCsfvfooZQ3Axs_4core4iter6traits12double_ended19DoubleEndedIterator9next_backB7_, symObjAddr: 0x10D38, symBinAddr: 0x44ED0, symSize: 0x48 }
  - { offset: 0xA24E9, size: 0x8, addend: 0x0, symName: __RNCNvXsx_NtCs5AlOhPCr03V_3syn10punctuatedINtB7_11PrivateIterNtNtB9_4data5FieldNtNtB9_5token5CommaENtNtNtNtCsfvfooZQ3Axs_4core4iter6traits12double_ended19DoubleEndedIterator9next_back0B9_, symObjAddr: 0x10D80, symBinAddr: 0x44F18, symSize: 0x3C }
  - { offset: 0xA252B, size: 0x8, addend: 0x0, symName: __RNCNvXsx_NtCs5AlOhPCr03V_3syn10punctuatedINtB7_11PrivateIterNtNtB9_4path11PathSegmentNtNtB9_5token6Colon2ENtNtNtNtCsfvfooZQ3Axs_4core4iter6traits12double_ended19DoubleEndedIterator9next_back0B9_, symObjAddr: 0x10DF8, symBinAddr: 0x44F54, symSize: 0x3C }
  - { offset: 0xA256D, size: 0x8, addend: 0x0, symName: __RNCNvXsx_NtCs5AlOhPCr03V_3syn10punctuatedINtB7_11PrivateIterNtNtB9_8generics12GenericParamNtNtB9_5token5CommaENtNtNtNtCsfvfooZQ3Axs_4core4iter6traits12double_ended19DoubleEndedIterator9next_back0B9_, symObjAddr: 0x10E34, symBinAddr: 0x44F90, symSize: 0x3C }
  - { offset: 0xA25AF, size: 0x8, addend: 0x0, symName: __RNCNvXsx_NtCs5AlOhPCr03V_3syn10punctuatedINtB7_11PrivateIterNtNtB9_8generics14TypeParamBoundNtNtB9_5token3AddENtNtNtNtCsfvfooZQ3Axs_4core4iter6traits12double_ended19DoubleEndedIterator9next_back0B9_, symObjAddr: 0x10E70, symBinAddr: 0x44FCC, symSize: 0x3C }
  - { offset: 0xA25F6, size: 0x8, addend: 0x0, symName: __RNCNCNvXsx_NtCs5AlOhPCr03V_3syn10punctuatedINtB9_11PrivateIterNtNtBb_4data5FieldNtNtBb_5token5CommaENtNtNtNtCsfvfooZQ3Axs_4core4iter6traits12double_ended19DoubleEndedIterator9next_back00Bb_, symObjAddr: 0x10EAC, symBinAddr: 0x45008, symSize: 0x24 }
  - { offset: 0xA2641, size: 0x8, addend: 0x0, symName: __RNCNCNvXsx_NtCs5AlOhPCr03V_3syn10punctuatedINtB9_11PrivateIterNtNtBb_4path11PathSegmentNtNtBb_5token6Colon2ENtNtNtNtCsfvfooZQ3Axs_4core4iter6traits12double_ended19DoubleEndedIterator9next_back00Bb_, symObjAddr: 0x10EF4, symBinAddr: 0x4502C, symSize: 0x24 }
  - { offset: 0xA268C, size: 0x8, addend: 0x0, symName: __RNCNCNvXsx_NtCs5AlOhPCr03V_3syn10punctuatedINtB9_11PrivateIterNtNtBb_8generics12GenericParamNtNtBb_5token5CommaENtNtNtNtCsfvfooZQ3Axs_4core4iter6traits12double_ended19DoubleEndedIterator9next_back00Bb_, symObjAddr: 0x10F18, symBinAddr: 0x45050, symSize: 0x24 }
  - { offset: 0xA26D7, size: 0x8, addend: 0x0, symName: __RNCNCNvXsx_NtCs5AlOhPCr03V_3syn10punctuatedINtB9_11PrivateIterNtNtBb_8generics14TypeParamBoundNtNtBb_5token3AddENtNtNtNtCsfvfooZQ3Axs_4core4iter6traits12double_ended19DoubleEndedIterator9next_back00Bb_, symObjAddr: 0x10F3C, symBinAddr: 0x45074, symSize: 0x24 }
  - { offset: 0xA2746, size: 0x8, addend: 0x0, symName: __RNvXsy_NtCs5AlOhPCr03V_3syn10punctuatedINtB5_11PrivateIterNtNtB7_4data5FieldNtNtB7_5token5CommaENtNtNtNtCsfvfooZQ3Axs_4core4iter6traits10exact_size17ExactSizeIterator3lenB7_, symObjAddr: 0x10F60, symBinAddr: 0x45098, symSize: 0x94 }
  - { offset: 0xA27BA, size: 0x8, addend: 0x0, symName: __RNvXsy_NtCs5AlOhPCr03V_3syn10punctuatedINtB5_11PrivateIterNtNtB7_4path11PathSegmentNtNtB7_5token6Colon2ENtNtNtNtCsfvfooZQ3Axs_4core4iter6traits10exact_size17ExactSizeIterator3lenB7_, symObjAddr: 0x11088, symBinAddr: 0x4512C, symSize: 0x94 }
  - { offset: 0xA282E, size: 0x8, addend: 0x0, symName: __RNvXsy_NtCs5AlOhPCr03V_3syn10punctuatedINtB5_11PrivateIterNtNtB7_8generics12GenericParamNtNtB7_5token5CommaENtNtNtNtCsfvfooZQ3Axs_4core4iter6traits10exact_size17ExactSizeIterator3lenB7_, symObjAddr: 0x1111C, symBinAddr: 0x451C0, symSize: 0x94 }
  - { offset: 0xA28A2, size: 0x8, addend: 0x0, symName: __RNvXsy_NtCs5AlOhPCr03V_3syn10punctuatedINtB5_11PrivateIterNtNtB7_8generics14TypeParamBoundNtNtB7_5token3AddENtNtNtNtCsfvfooZQ3Axs_4core4iter6traits10exact_size17ExactSizeIterator3lenB7_, symObjAddr: 0x111B0, symBinAddr: 0x45254, symSize: 0x94 }
  - { offset: 0xA291C, size: 0x8, addend: 0x0, symName: __RNvXsz_NtCs5AlOhPCr03V_3syn10punctuatedINtB5_11PrivateIterNtNtB7_4data5FieldNtNtB7_5token5CommaENtNtCsfvfooZQ3Axs_4core5clone5Clone5cloneB7_, symObjAddr: 0x11244, symBinAddr: 0x452E8, symSize: 0x68 }
  - { offset: 0xA295C, size: 0x8, addend: 0x0, symName: __RNvXsz_NtCs5AlOhPCr03V_3syn10punctuatedINtB5_11PrivateIterNtNtB7_4path11PathSegmentNtNtB7_5token6Colon2ENtNtCsfvfooZQ3Axs_4core5clone5Clone5cloneB7_, symObjAddr: 0x11314, symBinAddr: 0x45350, symSize: 0x68 }
  - { offset: 0xA299C, size: 0x8, addend: 0x0, symName: __RNvXsz_NtCs5AlOhPCr03V_3syn10punctuatedINtB5_11PrivateIterNtNtB7_8generics12GenericParamNtNtB7_5token5CommaENtNtCsfvfooZQ3Axs_4core5clone5Clone5cloneB7_, symObjAddr: 0x1137C, symBinAddr: 0x453B8, symSize: 0x68 }
  - { offset: 0xA29DC, size: 0x8, addend: 0x0, symName: __RNvXsz_NtCs5AlOhPCr03V_3syn10punctuatedINtB5_11PrivateIterNtNtB7_8generics14TypeParamBoundNtNtB7_5token3AddENtNtCsfvfooZQ3Axs_4core5clone5Clone5cloneB7_, symObjAddr: 0x113E4, symBinAddr: 0x45420, symSize: 0x68 }
  - { offset: 0xA2A22, size: 0x8, addend: 0x0, symName: __RNvXsA_NtCs5AlOhPCr03V_3syn10punctuatedINtB5_11PrivateIterNtNtB7_4data5FieldNtNtB7_5token5CommaEINtB5_9IterTraitBU_E9clone_boxB7_, symObjAddr: 0x1144C, symBinAddr: 0x45488, symSize: 0x94 }
  - { offset: 0xA2A80, size: 0x8, addend: 0x0, symName: __RNvXsA_NtCs5AlOhPCr03V_3syn10punctuatedINtB5_11PrivateIterNtNtB7_4path11PathSegmentNtNtB7_5token6Colon2EINtB5_9IterTraitBU_E9clone_boxB7_, symObjAddr: 0x11574, symBinAddr: 0x4551C, symSize: 0x94 }
  - { offset: 0xA2ADE, size: 0x8, addend: 0x0, symName: __RNvXsA_NtCs5AlOhPCr03V_3syn10punctuatedINtB5_11PrivateIterNtNtB7_8generics12GenericParamNtNtB7_5token5CommaEINtB5_9IterTraitBU_E9clone_boxB7_, symObjAddr: 0x11608, symBinAddr: 0x455B0, symSize: 0x94 }
  - { offset: 0xA2B3C, size: 0x8, addend: 0x0, symName: __RNvXsA_NtCs5AlOhPCr03V_3syn10punctuatedINtB5_11PrivateIterNtNtB7_8generics14TypeParamBoundNtNtB7_5token3AddEINtB5_9IterTraitBU_E9clone_boxB7_, symObjAddr: 0x1169C, symBinAddr: 0x45644, symSize: 0x94 }
  - { offset: 0xA2BA0, size: 0x8, addend: 0x0, symName: __RNvXsC_NtCs5AlOhPCr03V_3syn10punctuatedINtB5_7IterMutNtNtB7_8generics12GenericParamENtNtNtNtCsfvfooZQ3Axs_4core4iter6traits8iterator8Iterator4nextB7_, symObjAddr: 0x11798, symBinAddr: 0x456D8, symSize: 0x48 }
  - { offset: 0xA2BDD, size: 0x8, addend: 0x0, symName: __RNvXsD_NtCs5AlOhPCr03V_3syn10punctuatedINtB5_7IterMutNtNtB7_4item5FnArgENtNtNtNtCsfvfooZQ3Axs_4core4iter6traits12double_ended19DoubleEndedIterator9next_backB7_, symObjAddr: 0x117E0, symBinAddr: 0x45720, symSize: 0x48 }
  - { offset: 0xA2C14, size: 0x8, addend: 0x0, symName: __RNvXsD_NtCs5AlOhPCr03V_3syn10punctuatedINtB5_7IterMutNtNtB7_4path11PathSegmentENtNtNtNtCsfvfooZQ3Axs_4core4iter6traits12double_ended19DoubleEndedIterator9next_backB7_, symObjAddr: 0x11828, symBinAddr: 0x45768, symSize: 0x48 }
  - { offset: 0xA2C51, size: 0x8, addend: 0x0, symName: __RNvXsF_NtCs5AlOhPCr03V_3syn10punctuatedINtB5_14PrivateIterMutNtNtB7_4item5FnArgNtNtB7_5token5CommaENtNtNtNtCsfvfooZQ3Axs_4core4iter6traits8iterator8Iterator4nextB7_, symObjAddr: 0x118B8, symBinAddr: 0x457B0, symSize: 0x48 }
  - { offset: 0xA2C91, size: 0x8, addend: 0x0, symName: __RNvXsF_NtCs5AlOhPCr03V_3syn10punctuatedINtB5_14PrivateIterMutNtNtB7_4path11PathSegmentNtNtB7_5token6Colon2ENtNtNtNtCsfvfooZQ3Axs_4core4iter6traits8iterator8Iterator4nextB7_, symObjAddr: 0x11900, symBinAddr: 0x457F8, symSize: 0x48 }
  - { offset: 0xA2CD1, size: 0x8, addend: 0x0, symName: __RNvXsF_NtCs5AlOhPCr03V_3syn10punctuatedINtB5_14PrivateIterMutNtNtB7_8generics12GenericParamNtNtB7_5token5CommaENtNtNtNtCsfvfooZQ3Axs_4core4iter6traits8iterator8Iterator4nextB7_, symObjAddr: 0x11948, symBinAddr: 0x45840, symSize: 0x48 }
  - { offset: 0xA2D16, size: 0x8, addend: 0x0, symName: __RNCNvXsF_NtCs5AlOhPCr03V_3syn10punctuatedINtB7_14PrivateIterMutNtNtB9_4item5FnArgNtNtB9_5token5CommaENtNtNtNtCsfvfooZQ3Axs_4core4iter6traits8iterator8Iterator4next0B9_, symObjAddr: 0x119B4, symBinAddr: 0x45888, symSize: 0x24 }
  - { offset: 0xA2D61, size: 0x8, addend: 0x0, symName: __RNCNvXsF_NtCs5AlOhPCr03V_3syn10punctuatedINtB7_14PrivateIterMutNtNtB9_4path11PathSegmentNtNtB9_5token6Colon2ENtNtNtNtCsfvfooZQ3Axs_4core4iter6traits8iterator8Iterator4next0B9_, symObjAddr: 0x119D8, symBinAddr: 0x458AC, symSize: 0x24 }
  - { offset: 0xA2DAC, size: 0x8, addend: 0x0, symName: __RNCNvXsF_NtCs5AlOhPCr03V_3syn10punctuatedINtB7_14PrivateIterMutNtNtB9_8generics12GenericParamNtNtB9_5token5CommaENtNtNtNtCsfvfooZQ3Axs_4core4iter6traits8iterator8Iterator4next0B9_, symObjAddr: 0x119FC, symBinAddr: 0x458D0, symSize: 0x24 }
  - { offset: 0xA2DF7, size: 0x8, addend: 0x0, symName: __RNCNvXsF_NtCs5AlOhPCr03V_3syn10punctuatedINtB7_14PrivateIterMutNtNtB9_4item5FnArgNtNtB9_5token5CommaENtNtNtNtCsfvfooZQ3Axs_4core4iter6traits8iterator8Iterator4nexts_0B9_, symObjAddr: 0x11A5C, symBinAddr: 0x458F4, symSize: 0x3C }
  - { offset: 0xA2E39, size: 0x8, addend: 0x0, symName: __RNCNvXsF_NtCs5AlOhPCr03V_3syn10punctuatedINtB7_14PrivateIterMutNtNtB9_4path11PathSegmentNtNtB9_5token6Colon2ENtNtNtNtCsfvfooZQ3Axs_4core4iter6traits8iterator8Iterator4nexts_0B9_, symObjAddr: 0x11A98, symBinAddr: 0x45930, symSize: 0x3C }
  - { offset: 0xA2E7B, size: 0x8, addend: 0x0, symName: __RNCNvXsF_NtCs5AlOhPCr03V_3syn10punctuatedINtB7_14PrivateIterMutNtNtB9_8generics12GenericParamNtNtB9_5token5CommaENtNtNtNtCsfvfooZQ3Axs_4core4iter6traits8iterator8Iterator4nexts_0B9_, symObjAddr: 0x11AD4, symBinAddr: 0x4596C, symSize: 0x3C }
  - { offset: 0xA2ED9, size: 0x8, addend: 0x0, symName: __RNvXsG_NtCs5AlOhPCr03V_3syn10punctuatedINtB5_14PrivateIterMutNtNtB7_4item5FnArgNtNtB7_5token5CommaENtNtNtNtCsfvfooZQ3Axs_4core4iter6traits12double_ended19DoubleEndedIterator9next_backB7_, symObjAddr: 0x11B58, symBinAddr: 0x459A8, symSize: 0x48 }
  - { offset: 0xA2F19, size: 0x8, addend: 0x0, symName: __RNvXsG_NtCs5AlOhPCr03V_3syn10punctuatedINtB5_14PrivateIterMutNtNtB7_4path11PathSegmentNtNtB7_5token6Colon2ENtNtNtNtCsfvfooZQ3Axs_4core4iter6traits12double_ended19DoubleEndedIterator9next_backB7_, symObjAddr: 0x11BA0, symBinAddr: 0x459F0, symSize: 0x48 }
  - { offset: 0xA2F59, size: 0x8, addend: 0x0, symName: __RNvXsG_NtCs5AlOhPCr03V_3syn10punctuatedINtB5_14PrivateIterMutNtNtB7_8generics12GenericParamNtNtB7_5token5CommaENtNtNtNtCsfvfooZQ3Axs_4core4iter6traits12double_ended19DoubleEndedIterator9next_backB7_, symObjAddr: 0x11BE8, symBinAddr: 0x45A38, symSize: 0x48 }
  - { offset: 0xA2F9E, size: 0x8, addend: 0x0, symName: __RNCNvXsG_NtCs5AlOhPCr03V_3syn10punctuatedINtB7_14PrivateIterMutNtNtB9_4item5FnArgNtNtB9_5token5CommaENtNtNtNtCsfvfooZQ3Axs_4core4iter6traits12double_ended19DoubleEndedIterator9next_back0B9_, symObjAddr: 0x11C6C, symBinAddr: 0x45A80, symSize: 0x3C }
  - { offset: 0xA2FE0, size: 0x8, addend: 0x0, symName: __RNCNvXsG_NtCs5AlOhPCr03V_3syn10punctuatedINtB7_14PrivateIterMutNtNtB9_4path11PathSegmentNtNtB9_5token6Colon2ENtNtNtNtCsfvfooZQ3Axs_4core4iter6traits12double_ended19DoubleEndedIterator9next_back0B9_, symObjAddr: 0x11CA8, symBinAddr: 0x45ABC, symSize: 0x3C }
  - { offset: 0xA3022, size: 0x8, addend: 0x0, symName: __RNCNvXsG_NtCs5AlOhPCr03V_3syn10punctuatedINtB7_14PrivateIterMutNtNtB9_8generics12GenericParamNtNtB9_5token5CommaENtNtNtNtCsfvfooZQ3Axs_4core4iter6traits12double_ended19DoubleEndedIterator9next_back0B9_, symObjAddr: 0x11CE4, symBinAddr: 0x45AF8, symSize: 0x3C }
  - { offset: 0xA3069, size: 0x8, addend: 0x0, symName: __RNCNCNvXsG_NtCs5AlOhPCr03V_3syn10punctuatedINtB9_14PrivateIterMutNtNtBb_4item5FnArgNtNtBb_5token5CommaENtNtNtNtCsfvfooZQ3Axs_4core4iter6traits12double_ended19DoubleEndedIterator9next_back00Bb_, symObjAddr: 0x11D44, symBinAddr: 0x45B34, symSize: 0x24 }
  - { offset: 0xA30B4, size: 0x8, addend: 0x0, symName: __RNCNCNvXsG_NtCs5AlOhPCr03V_3syn10punctuatedINtB9_14PrivateIterMutNtNtBb_4path11PathSegmentNtNtBb_5token6Colon2ENtNtNtNtCsfvfooZQ3Axs_4core4iter6traits12double_ended19DoubleEndedIterator9next_back00Bb_, symObjAddr: 0x11D68, symBinAddr: 0x45B58, symSize: 0x24 }
  - { offset: 0xA30FF, size: 0x8, addend: 0x0, symName: __RNCNCNvXsG_NtCs5AlOhPCr03V_3syn10punctuatedINtB9_14PrivateIterMutNtNtBb_8generics12GenericParamNtNtBb_5token5CommaENtNtNtNtCsfvfooZQ3Axs_4core4iter6traits12double_ended19DoubleEndedIterator9next_back00Bb_, symObjAddr: 0x11D8C, symBinAddr: 0x45B7C, symSize: 0x24 }
  - { offset: 0xA3167, size: 0x8, addend: 0x0, symName: __RNvXsH_NtCs5AlOhPCr03V_3syn10punctuatedINtB5_14PrivateIterMutNtNtB7_4item5FnArgNtNtB7_5token5CommaENtNtNtNtCsfvfooZQ3Axs_4core4iter6traits10exact_size17ExactSizeIterator3lenB7_, symObjAddr: 0x11E44, symBinAddr: 0x45BA0, symSize: 0x94 }
  - { offset: 0xA31DB, size: 0x8, addend: 0x0, symName: __RNvXsH_NtCs5AlOhPCr03V_3syn10punctuatedINtB5_14PrivateIterMutNtNtB7_4path11PathSegmentNtNtB7_5token6Colon2ENtNtNtNtCsfvfooZQ3Axs_4core4iter6traits10exact_size17ExactSizeIterator3lenB7_, symObjAddr: 0x11ED8, symBinAddr: 0x45C34, symSize: 0x94 }
  - { offset: 0xA324F, size: 0x8, addend: 0x0, symName: __RNvXsH_NtCs5AlOhPCr03V_3syn10punctuatedINtB5_14PrivateIterMutNtNtB7_8generics12GenericParamNtNtB7_5token5CommaENtNtNtNtCsfvfooZQ3Axs_4core4iter6traits10exact_size17ExactSizeIterator3lenB7_, symObjAddr: 0x11F6C, symBinAddr: 0x45CC8, symSize: 0x94 }
  - { offset: 0xA32CE, size: 0x8, addend: 0x0, symName: __RNcNtINtNtCs5AlOhPCr03V_3syn10punctuated4PairNtNtB8_4path11PathSegmentNtNtB8_5token6Colon2E3End0B8_, symObjAddr: 0x12000, symBinAddr: 0x45D5C, symSize: 0x3C }
  - { offset: 0xA330B, size: 0x8, addend: 0x0, symName: __RNcNtINtNtCs5AlOhPCr03V_3syn10punctuated4PairQNtNtB8_4path11PathSegmentQNtNtB8_5token6Colon2E3End0B8_, symObjAddr: 0x1203C, symBinAddr: 0x45D98, symSize: 0x1C }
  - { offset: 0xA3347, size: 0x8, addend: 0x0, symName: __RNcNtINtNtCs5AlOhPCr03V_3syn10punctuated4PairRNtNtB8_2ty4TypeRNtNtB8_5token5CommaE3End0B8_, symObjAddr: 0x12058, symBinAddr: 0x45DB4, symSize: 0x1C }
  - { offset: 0xA3383, size: 0x8, addend: 0x0, symName: __RNcNtINtNtCs5AlOhPCr03V_3syn10punctuated4PairRNtNtB8_2ty9BareFnArgRNtNtB8_5token5CommaE3End0B8_, symObjAddr: 0x12074, symBinAddr: 0x45DD0, symSize: 0x1C }
  - { offset: 0xA33BF, size: 0x8, addend: 0x0, symName: __RNcNtINtNtCs5AlOhPCr03V_3syn10punctuated4PairRNtNtB8_3pat3PatRNtNtB8_5token2OrE3End0B8_, symObjAddr: 0x12090, symBinAddr: 0x45DEC, symSize: 0x1C }
  - { offset: 0xA33FB, size: 0x8, addend: 0x0, symName: __RNcNtINtNtCs5AlOhPCr03V_3syn10punctuated4PairRNtNtB8_3pat3PatRNtNtB8_5token5CommaE3End0B8_, symObjAddr: 0x120AC, symBinAddr: 0x45E08, symSize: 0x1C }
  - { offset: 0xA3437, size: 0x8, addend: 0x0, symName: __RNcNtINtNtCs5AlOhPCr03V_3syn10punctuated4PairRNtNtB8_3pat8FieldPatRNtNtB8_5token5CommaE3End0B8_, symObjAddr: 0x120C8, symBinAddr: 0x45E24, symSize: 0x1C }
  - { offset: 0xA3473, size: 0x8, addend: 0x0, symName: __RNcNtINtNtCs5AlOhPCr03V_3syn10punctuated4PairRNtNtB8_4data5FieldRNtNtB8_5token5CommaE3End0B8_, symObjAddr: 0x12100, symBinAddr: 0x45E40, symSize: 0x1C }
  - { offset: 0xA34AF, size: 0x8, addend: 0x0, symName: __RNcNtINtNtCs5AlOhPCr03V_3syn10punctuated4PairRNtNtB8_4data7VariantRNtNtB8_5token5CommaE3End0B8_, symObjAddr: 0x1211C, symBinAddr: 0x45E5C, symSize: 0x1C }
  - { offset: 0xA34EB, size: 0x8, addend: 0x0, symName: __RNcNtINtNtCs5AlOhPCr03V_3syn10punctuated4PairRNtNtB8_4expr10FieldValueRNtNtB8_5token5CommaE3End0B8_, symObjAddr: 0x12138, symBinAddr: 0x45E78, symSize: 0x1C }
  - { offset: 0xA3527, size: 0x8, addend: 0x0, symName: __RNcNtINtNtCs5AlOhPCr03V_3syn10punctuated4PairRNtNtB8_4expr21GenericMethodArgumentRNtNtB8_5token5CommaE3End0B8_, symObjAddr: 0x12154, symBinAddr: 0x45E94, symSize: 0x1C }
  - { offset: 0xA3563, size: 0x8, addend: 0x0, symName: __RNcNtINtNtCs5AlOhPCr03V_3syn10punctuated4PairRNtNtB8_4expr4ExprRNtNtB8_5token5CommaE3End0B8_, symObjAddr: 0x12170, symBinAddr: 0x45EB0, symSize: 0x1C }
  - { offset: 0xA359F, size: 0x8, addend: 0x0, symName: __RNcNtINtNtCs5AlOhPCr03V_3syn10punctuated4PairRNtNtB8_4item5FnArgRNtNtB8_5token5CommaE3End0B8_, symObjAddr: 0x1218C, symBinAddr: 0x45ECC, symSize: 0x1C }
  - { offset: 0xA35DB, size: 0x8, addend: 0x0, symName: __RNcNtINtNtCs5AlOhPCr03V_3syn10punctuated4PairRNtNtB8_4item7UseTreeRNtNtB8_5token5CommaE3End0B8_, symObjAddr: 0x121A8, symBinAddr: 0x45EE8, symSize: 0x1C }
  - { offset: 0xA3617, size: 0x8, addend: 0x0, symName: __RNcNtINtNtCs5AlOhPCr03V_3syn10punctuated4PairRNtNtB8_4path11PathSegmentRNtNtB8_5token6Colon2E3End0B8_, symObjAddr: 0x121C4, symBinAddr: 0x45F04, symSize: 0x1C }
  - { offset: 0xA3653, size: 0x8, addend: 0x0, symName: __RNcNtINtNtCs5AlOhPCr03V_3syn10punctuated4PairRNtNtB8_4path15GenericArgumentRNtNtB8_5token5CommaE3End0B8_, symObjAddr: 0x121E0, symBinAddr: 0x45F20, symSize: 0x1C }
  - { offset: 0xA368F, size: 0x8, addend: 0x0, symName: __RNcNtINtNtCs5AlOhPCr03V_3syn10punctuated4PairRNtNtB8_8generics11LifetimeDefRNtNtB8_5token5CommaE3End0B8_, symObjAddr: 0x121FC, symBinAddr: 0x45F3C, symSize: 0x1C }
  - { offset: 0xA36CB, size: 0x8, addend: 0x0, symName: __RNcNtINtNtCs5AlOhPCr03V_3syn10punctuated4PairRNtNtB8_8generics12GenericParamRNtNtB8_5token5CommaE3End0B8_, symObjAddr: 0x12218, symBinAddr: 0x45F58, symSize: 0x1C }
  - { offset: 0xA3707, size: 0x8, addend: 0x0, symName: __RNcNtINtNtCs5AlOhPCr03V_3syn10punctuated4PairRNtNtB8_8generics14TypeParamBoundRNtNtB8_5token3AddE3End0B8_, symObjAddr: 0x12234, symBinAddr: 0x45F74, symSize: 0x1C }
  - { offset: 0xA3743, size: 0x8, addend: 0x0, symName: __RNcNtINtNtCs5AlOhPCr03V_3syn10punctuated4PairRNtNtB8_8generics14WherePredicateRNtNtB8_5token5CommaE3End0B8_, symObjAddr: 0x12250, symBinAddr: 0x45F90, symSize: 0x1C }
  - { offset: 0xA377F, size: 0x8, addend: 0x0, symName: __RNcNtINtNtCs5AlOhPCr03V_3syn10punctuated4PairRNtNtB8_8lifetime8LifetimeRNtNtB8_5token3AddE3End0B8_, symObjAddr: 0x1226C, symBinAddr: 0x45FAC, symSize: 0x1C }
  - { offset: 0xA3B06, size: 0x8, addend: 0x0, symName: __RNvXsL_NtCs5AlOhPCr03V_3syn10punctuatedINtB5_10PunctuatedNtNtB7_4path11PathSegmentNtNtB7_5token6Colon2EINtNtNtCsfvfooZQ3Axs_4core3ops5index5IndexjE5indexB7_, symObjAddr: 0x126D4, symBinAddr: 0x46414, symSize: 0x134 }
  - { offset: 0xA3B76, size: 0x8, addend: 0x0, symName: __RNvXNtNtCs5AlOhPCr03V_3syn10punctuated8printingINtB4_10PunctuatedNtNtB6_2ty4TypeNtNtB6_5token5CommaENtNtCs2cqEZUIJimJ_5quote9to_tokens8ToTokens9to_tokensB6_, symObjAddr: 0x12808, symBinAddr: 0x46548, symSize: 0x50 }
  - { offset: 0xA3BC1, size: 0x8, addend: 0x0, symName: __RNvXNtNtCs5AlOhPCr03V_3syn10punctuated8printingINtB4_10PunctuatedNtNtB6_2ty9BareFnArgNtNtB6_5token5CommaENtNtCs2cqEZUIJimJ_5quote9to_tokens8ToTokens9to_tokensB6_, symObjAddr: 0x12858, symBinAddr: 0x46598, symSize: 0x50 }
  - { offset: 0xA3C0C, size: 0x8, addend: 0x0, symName: __RNvXNtNtCs5AlOhPCr03V_3syn10punctuated8printingINtB4_10PunctuatedNtNtB6_3pat3PatNtNtB6_5token2OrENtNtCs2cqEZUIJimJ_5quote9to_tokens8ToTokens9to_tokensB6_, symObjAddr: 0x128A8, symBinAddr: 0x465E8, symSize: 0x50 }
  - { offset: 0xA3C57, size: 0x8, addend: 0x0, symName: __RNvXNtNtCs5AlOhPCr03V_3syn10punctuated8printingINtB4_10PunctuatedNtNtB6_3pat3PatNtNtB6_5token5CommaENtNtCs2cqEZUIJimJ_5quote9to_tokens8ToTokens9to_tokensB6_, symObjAddr: 0x128F8, symBinAddr: 0x46638, symSize: 0x50 }
  - { offset: 0xA3CA2, size: 0x8, addend: 0x0, symName: __RNvXNtNtCs5AlOhPCr03V_3syn10punctuated8printingINtB4_10PunctuatedNtNtB6_3pat8FieldPatNtNtB6_5token5CommaENtNtCs2cqEZUIJimJ_5quote9to_tokens8ToTokens9to_tokensB6_, symObjAddr: 0x12948, symBinAddr: 0x46688, symSize: 0x50 }
  - { offset: 0xA3CED, size: 0x8, addend: 0x0, symName: __RNvXNtNtCs5AlOhPCr03V_3syn10punctuated8printingINtB4_10PunctuatedNtNtB6_4data5FieldNtNtB6_5token5CommaENtNtCs2cqEZUIJimJ_5quote9to_tokens8ToTokens9to_tokensB6_, symObjAddr: 0x129E8, symBinAddr: 0x466D8, symSize: 0x50 }
  - { offset: 0xA3D38, size: 0x8, addend: 0x0, symName: __RNvXNtNtCs5AlOhPCr03V_3syn10punctuated8printingINtB4_10PunctuatedNtNtB6_4data7VariantNtNtB6_5token5CommaENtNtCs2cqEZUIJimJ_5quote9to_tokens8ToTokens9to_tokensB6_, symObjAddr: 0x12A38, symBinAddr: 0x46728, symSize: 0x50 }
  - { offset: 0xA3D83, size: 0x8, addend: 0x0, symName: __RNvXNtNtCs5AlOhPCr03V_3syn10punctuated8printingINtB4_10PunctuatedNtNtB6_4expr10FieldValueNtNtB6_5token5CommaENtNtCs2cqEZUIJimJ_5quote9to_tokens8ToTokens9to_tokensB6_, symObjAddr: 0x12A88, symBinAddr: 0x46778, symSize: 0x50 }
  - { offset: 0xA3DCE, size: 0x8, addend: 0x0, symName: __RNvXNtNtCs5AlOhPCr03V_3syn10punctuated8printingINtB4_10PunctuatedNtNtB6_4expr21GenericMethodArgumentNtNtB6_5token5CommaENtNtCs2cqEZUIJimJ_5quote9to_tokens8ToTokens9to_tokensB6_, symObjAddr: 0x12AD8, symBinAddr: 0x467C8, symSize: 0x50 }
  - { offset: 0xA3E19, size: 0x8, addend: 0x0, symName: __RNvXNtNtCs5AlOhPCr03V_3syn10punctuated8printingINtB4_10PunctuatedNtNtB6_4expr4ExprNtNtB6_5token5CommaENtNtCs2cqEZUIJimJ_5quote9to_tokens8ToTokens9to_tokensB6_, symObjAddr: 0x12B28, symBinAddr: 0x46818, symSize: 0x50 }
  - { offset: 0xA3E64, size: 0x8, addend: 0x0, symName: __RNvXNtNtCs5AlOhPCr03V_3syn10punctuated8printingINtB4_10PunctuatedNtNtB6_4item7UseTreeNtNtB6_5token5CommaENtNtCs2cqEZUIJimJ_5quote9to_tokens8ToTokens9to_tokensB6_, symObjAddr: 0x12B78, symBinAddr: 0x46868, symSize: 0x50 }
  - { offset: 0xA3EAF, size: 0x8, addend: 0x0, symName: __RNvXNtNtCs5AlOhPCr03V_3syn10punctuated8printingINtB4_10PunctuatedNtNtB6_4path11PathSegmentNtNtB6_5token6Colon2ENtNtCs2cqEZUIJimJ_5quote9to_tokens8ToTokens9to_tokensB6_, symObjAddr: 0x12BC8, symBinAddr: 0x468B8, symSize: 0x50 }
  - { offset: 0xA3EFA, size: 0x8, addend: 0x0, symName: __RNvXNtNtCs5AlOhPCr03V_3syn10punctuated8printingINtB4_10PunctuatedNtNtB6_8generics11LifetimeDefNtNtB6_5token5CommaENtNtCs2cqEZUIJimJ_5quote9to_tokens8ToTokens9to_tokensB6_, symObjAddr: 0x12C18, symBinAddr: 0x46908, symSize: 0x50 }
  - { offset: 0xA3F45, size: 0x8, addend: 0x0, symName: __RNvXNtNtCs5AlOhPCr03V_3syn10punctuated8printingINtB4_10PunctuatedNtNtB6_8generics14TypeParamBoundNtNtB6_5token3AddENtNtCs2cqEZUIJimJ_5quote9to_tokens8ToTokens9to_tokensB6_, symObjAddr: 0x12C68, symBinAddr: 0x46958, symSize: 0x50 }
  - { offset: 0xA3F90, size: 0x8, addend: 0x0, symName: __RNvXNtNtCs5AlOhPCr03V_3syn10punctuated8printingINtB4_10PunctuatedNtNtB6_8generics14WherePredicateNtNtB6_5token5CommaENtNtCs2cqEZUIJimJ_5quote9to_tokens8ToTokens9to_tokensB6_, symObjAddr: 0x12CB8, symBinAddr: 0x469A8, symSize: 0x50 }
  - { offset: 0xA3FDB, size: 0x8, addend: 0x0, symName: __RNvXNtNtCs5AlOhPCr03V_3syn10punctuated8printingINtB4_10PunctuatedNtNtB6_8lifetime8LifetimeNtNtB6_5token3AddENtNtCs2cqEZUIJimJ_5quote9to_tokens8ToTokens9to_tokensB6_, symObjAddr: 0x12D08, symBinAddr: 0x469F8, symSize: 0x50 }
  - { offset: 0xA402C, size: 0x8, addend: 0x0, symName: __RNvXs_NtNtCs5AlOhPCr03V_3syn10punctuated8printingINtB6_4PairRNtNtB8_2ty4TypeRNtNtB8_5token5CommaENtNtCs2cqEZUIJimJ_5quote9to_tokens8ToTokens9to_tokensB8_, symObjAddr: 0x12D58, symBinAddr: 0x46A48, symSize: 0xB4 }
  - { offset: 0xA40BB, size: 0x8, addend: 0x0, symName: __RNvXs_NtNtCs5AlOhPCr03V_3syn10punctuated8printingINtB6_4PairRNtNtB8_2ty9BareFnArgRNtNtB8_5token5CommaENtNtCs2cqEZUIJimJ_5quote9to_tokens8ToTokens9to_tokensB8_, symObjAddr: 0x12E0C, symBinAddr: 0x46AFC, symSize: 0xB4 }
  - { offset: 0xA414A, size: 0x8, addend: 0x0, symName: __RNvXs_NtNtCs5AlOhPCr03V_3syn10punctuated8printingINtB6_4PairRNtNtB8_3pat3PatRNtNtB8_5token2OrENtNtCs2cqEZUIJimJ_5quote9to_tokens8ToTokens9to_tokensB8_, symObjAddr: 0x12EC0, symBinAddr: 0x46BB0, symSize: 0xB4 }
  - { offset: 0xA41D9, size: 0x8, addend: 0x0, symName: __RNvXs_NtNtCs5AlOhPCr03V_3syn10punctuated8printingINtB6_4PairRNtNtB8_3pat3PatRNtNtB8_5token5CommaENtNtCs2cqEZUIJimJ_5quote9to_tokens8ToTokens9to_tokensB8_, symObjAddr: 0x12F74, symBinAddr: 0x46C64, symSize: 0xB4 }
  - { offset: 0xA4268, size: 0x8, addend: 0x0, symName: __RNvXs_NtNtCs5AlOhPCr03V_3syn10punctuated8printingINtB6_4PairRNtNtB8_3pat8FieldPatRNtNtB8_5token5CommaENtNtCs2cqEZUIJimJ_5quote9to_tokens8ToTokens9to_tokensB8_, symObjAddr: 0x13028, symBinAddr: 0x46D18, symSize: 0xB4 }
  - { offset: 0xA42F7, size: 0x8, addend: 0x0, symName: __RNvXs_NtNtCs5AlOhPCr03V_3syn10punctuated8printingINtB6_4PairRNtNtB8_4data5FieldRNtNtB8_5token5CommaENtNtCs2cqEZUIJimJ_5quote9to_tokens8ToTokens9to_tokensB8_, symObjAddr: 0x13190, symBinAddr: 0x46DCC, symSize: 0xB4 }
  - { offset: 0xA4386, size: 0x8, addend: 0x0, symName: __RNvXs_NtNtCs5AlOhPCr03V_3syn10punctuated8printingINtB6_4PairRNtNtB8_4data7VariantRNtNtB8_5token5CommaENtNtCs2cqEZUIJimJ_5quote9to_tokens8ToTokens9to_tokensB8_, symObjAddr: 0x13244, symBinAddr: 0x46E80, symSize: 0xB4 }
  - { offset: 0xA4415, size: 0x8, addend: 0x0, symName: __RNvXs_NtNtCs5AlOhPCr03V_3syn10punctuated8printingINtB6_4PairRNtNtB8_4expr10FieldValueRNtNtB8_5token5CommaENtNtCs2cqEZUIJimJ_5quote9to_tokens8ToTokens9to_tokensB8_, symObjAddr: 0x132F8, symBinAddr: 0x46F34, symSize: 0xB4 }
  - { offset: 0xA44A4, size: 0x8, addend: 0x0, symName: __RNvXs_NtNtCs5AlOhPCr03V_3syn10punctuated8printingINtB6_4PairRNtNtB8_4expr21GenericMethodArgumentRNtNtB8_5token5CommaENtNtCs2cqEZUIJimJ_5quote9to_tokens8ToTokens9to_tokensB8_, symObjAddr: 0x133AC, symBinAddr: 0x46FE8, symSize: 0xB4 }
  - { offset: 0xA4533, size: 0x8, addend: 0x0, symName: __RNvXs_NtNtCs5AlOhPCr03V_3syn10punctuated8printingINtB6_4PairRNtNtB8_4expr4ExprRNtNtB8_5token5CommaENtNtCs2cqEZUIJimJ_5quote9to_tokens8ToTokens9to_tokensB8_, symObjAddr: 0x13460, symBinAddr: 0x4709C, symSize: 0xB4 }
  - { offset: 0xA45C2, size: 0x8, addend: 0x0, symName: __RNvXs_NtNtCs5AlOhPCr03V_3syn10punctuated8printingINtB6_4PairRNtNtB8_4item7UseTreeRNtNtB8_5token5CommaENtNtCs2cqEZUIJimJ_5quote9to_tokens8ToTokens9to_tokensB8_, symObjAddr: 0x13514, symBinAddr: 0x47150, symSize: 0xB4 }
  - { offset: 0xA4651, size: 0x8, addend: 0x0, symName: __RNvXs_NtNtCs5AlOhPCr03V_3syn10punctuated8printingINtB6_4PairRNtNtB8_4path11PathSegmentRNtNtB8_5token6Colon2ENtNtCs2cqEZUIJimJ_5quote9to_tokens8ToTokens9to_tokensB8_, symObjAddr: 0x135C8, symBinAddr: 0x47204, symSize: 0xB4 }
  - { offset: 0xA46E0, size: 0x8, addend: 0x0, symName: __RNvXs_NtNtCs5AlOhPCr03V_3syn10punctuated8printingINtB6_4PairRNtNtB8_4path15GenericArgumentRNtNtB8_5token5CommaENtNtCs2cqEZUIJimJ_5quote9to_tokens8ToTokens9to_tokensB8_, symObjAddr: 0x1367C, symBinAddr: 0x472B8, symSize: 0xB4 }
  - { offset: 0xA476F, size: 0x8, addend: 0x0, symName: __RNvXs_NtNtCs5AlOhPCr03V_3syn10punctuated8printingINtB6_4PairRNtNtB8_8generics11LifetimeDefRNtNtB8_5token5CommaENtNtCs2cqEZUIJimJ_5quote9to_tokens8ToTokens9to_tokensB8_, symObjAddr: 0x13730, symBinAddr: 0x4736C, symSize: 0xB4 }
  - { offset: 0xA47FE, size: 0x8, addend: 0x0, symName: __RNvXs_NtNtCs5AlOhPCr03V_3syn10punctuated8printingINtB6_4PairRNtNtB8_8generics12GenericParamRNtNtB8_5token5CommaENtNtCs2cqEZUIJimJ_5quote9to_tokens8ToTokens9to_tokensB8_, symObjAddr: 0x137E4, symBinAddr: 0x47420, symSize: 0xB4 }
  - { offset: 0xA488D, size: 0x8, addend: 0x0, symName: __RNvXs_NtNtCs5AlOhPCr03V_3syn10punctuated8printingINtB6_4PairRNtNtB8_8generics14TypeParamBoundRNtNtB8_5token3AddENtNtCs2cqEZUIJimJ_5quote9to_tokens8ToTokens9to_tokensB8_, symObjAddr: 0x13898, symBinAddr: 0x474D4, symSize: 0xB4 }
  - { offset: 0xA491C, size: 0x8, addend: 0x0, symName: __RNvXs_NtNtCs5AlOhPCr03V_3syn10punctuated8printingINtB6_4PairRNtNtB8_8generics14WherePredicateRNtNtB8_5token5CommaENtNtCs2cqEZUIJimJ_5quote9to_tokens8ToTokens9to_tokensB8_, symObjAddr: 0x1394C, symBinAddr: 0x47588, symSize: 0xB4 }
  - { offset: 0xA49AB, size: 0x8, addend: 0x0, symName: __RNvXs_NtNtCs5AlOhPCr03V_3syn10punctuated8printingINtB6_4PairRNtNtB8_8lifetime8LifetimeRNtNtB8_5token3AddENtNtCs2cqEZUIJimJ_5quote9to_tokens8ToTokens9to_tokensB8_, symObjAddr: 0x13A00, symBinAddr: 0x4763C, symSize: 0xB4 }
  - { offset: 0xB0741, size: 0x8, addend: 0x0, symName: __RNvYINtNtCs5AlOhPCr03V_3syn10punctuated11PrivateIterNtNtB7_4data5FieldNtNtB7_5token5CommaENtNtNtNtCsfvfooZQ3Axs_4core4iter6traits8iterator8Iterator10advance_byB7_, symObjAddr: 0x420, symBinAddr: 0x39260, symSize: 0x134 }
  - { offset: 0xB0897, size: 0x8, addend: 0x0, symName: __RNvYINtNtCs5AlOhPCr03V_3syn10punctuated11PrivateIterNtNtB7_4data5FieldNtNtB7_5token5CommaENtNtNtNtCsfvfooZQ3Axs_4core4iter6traits8iterator8Iterator3nthB7_, symObjAddr: 0x554, symBinAddr: 0x39394, symSize: 0x80 }
  - { offset: 0xB0963, size: 0x8, addend: 0x0, symName: __RNvYINtNtCs5AlOhPCr03V_3syn10punctuated11PrivateIterNtNtB7_4data5FieldNtNtB7_5token5CommaENtNtNtNtCsfvfooZQ3Axs_4core4iter6traits8iterator8Iterator9size_hintB7_, symObjAddr: 0x5D4, symBinAddr: 0x39414, symSize: 0x34 }
  - { offset: 0xB0998, size: 0x8, addend: 0x0, symName: __RNvYINtNtCs5AlOhPCr03V_3syn10punctuated11PrivateIterNtNtB7_4path11PathSegmentNtNtB7_5token6Colon2ENtNtNtNtCsfvfooZQ3Axs_4core4iter6traits8iterator8Iterator10advance_byB7_, symObjAddr: 0xB80, symBinAddr: 0x39610, symSize: 0x134 }
  - { offset: 0xB0AEE, size: 0x8, addend: 0x0, symName: __RNvYINtNtCs5AlOhPCr03V_3syn10punctuated11PrivateIterNtNtB7_4path11PathSegmentNtNtB7_5token6Colon2ENtNtNtNtCsfvfooZQ3Axs_4core4iter6traits8iterator8Iterator3nthB7_, symObjAddr: 0xCB4, symBinAddr: 0x39744, symSize: 0x80 }
  - { offset: 0xB0BBA, size: 0x8, addend: 0x0, symName: __RNvYINtNtCs5AlOhPCr03V_3syn10punctuated11PrivateIterNtNtB7_4path11PathSegmentNtNtB7_5token6Colon2ENtNtNtNtCsfvfooZQ3Axs_4core4iter6traits8iterator8Iterator9size_hintB7_, symObjAddr: 0xD34, symBinAddr: 0x397C4, symSize: 0x34 }
  - { offset: 0xB0BEF, size: 0x8, addend: 0x0, symName: __RNvYINtNtCs5AlOhPCr03V_3syn10punctuated11PrivateIterNtNtB7_8generics12GenericParamNtNtB7_5token5CommaENtNtNtNtCsfvfooZQ3Axs_4core4iter6traits8iterator8Iterator10advance_byB7_, symObjAddr: 0xF30, symBinAddr: 0x399C0, symSize: 0x134 }
  - { offset: 0xB0D45, size: 0x8, addend: 0x0, symName: __RNvYINtNtCs5AlOhPCr03V_3syn10punctuated11PrivateIterNtNtB7_8generics12GenericParamNtNtB7_5token5CommaENtNtNtNtCsfvfooZQ3Axs_4core4iter6traits8iterator8Iterator3nthB7_, symObjAddr: 0x1064, symBinAddr: 0x39AF4, symSize: 0x80 }
  - { offset: 0xB0E11, size: 0x8, addend: 0x0, symName: __RNvYINtNtCs5AlOhPCr03V_3syn10punctuated11PrivateIterNtNtB7_8generics12GenericParamNtNtB7_5token5CommaENtNtNtNtCsfvfooZQ3Axs_4core4iter6traits8iterator8Iterator9size_hintB7_, symObjAddr: 0x10E4, symBinAddr: 0x39B74, symSize: 0x34 }
  - { offset: 0xB0E46, size: 0x8, addend: 0x0, symName: __RNvYINtNtCs5AlOhPCr03V_3syn10punctuated11PrivateIterNtNtB7_8generics14TypeParamBoundNtNtB7_5token3AddENtNtNtNtCsfvfooZQ3Axs_4core4iter6traits8iterator8Iterator10advance_byB7_, symObjAddr: 0x12E0, symBinAddr: 0x39D70, symSize: 0x134 }
  - { offset: 0xB0F9C, size: 0x8, addend: 0x0, symName: __RNvYINtNtCs5AlOhPCr03V_3syn10punctuated11PrivateIterNtNtB7_8generics14TypeParamBoundNtNtB7_5token3AddENtNtNtNtCsfvfooZQ3Axs_4core4iter6traits8iterator8Iterator3nthB7_, symObjAddr: 0x1414, symBinAddr: 0x39EA4, symSize: 0x80 }
  - { offset: 0xB1068, size: 0x8, addend: 0x0, symName: __RNvYINtNtCs5AlOhPCr03V_3syn10punctuated11PrivateIterNtNtB7_8generics14TypeParamBoundNtNtB7_5token3AddENtNtNtNtCsfvfooZQ3Axs_4core4iter6traits8iterator8Iterator9size_hintB7_, symObjAddr: 0x1494, symBinAddr: 0x39F24, symSize: 0x34 }
  - { offset: 0xB109D, size: 0x8, addend: 0x0, symName: __RNvYINtNtCs5AlOhPCr03V_3syn10punctuated14PrivateIterMutNtNtB7_4item5FnArgNtNtB7_5token5CommaENtNtNtNtCsfvfooZQ3Axs_4core4iter6traits8iterator8Iterator10advance_byB7_, symObjAddr: 0x1A40, symBinAddr: 0x3A120, symSize: 0x134 }
  - { offset: 0xB11F3, size: 0x8, addend: 0x0, symName: __RNvYINtNtCs5AlOhPCr03V_3syn10punctuated14PrivateIterMutNtNtB7_4item5FnArgNtNtB7_5token5CommaENtNtNtNtCsfvfooZQ3Axs_4core4iter6traits8iterator8Iterator3nthB7_, symObjAddr: 0x1B74, symBinAddr: 0x3A254, symSize: 0x80 }
  - { offset: 0xB12BF, size: 0x8, addend: 0x0, symName: __RNvYINtNtCs5AlOhPCr03V_3syn10punctuated14PrivateIterMutNtNtB7_4item5FnArgNtNtB7_5token5CommaENtNtNtNtCsfvfooZQ3Axs_4core4iter6traits8iterator8Iterator9size_hintB7_, symObjAddr: 0x1BF4, symBinAddr: 0x3A2D4, symSize: 0x34 }
  - { offset: 0xB12F4, size: 0x8, addend: 0x0, symName: __RNvYINtNtCs5AlOhPCr03V_3syn10punctuated14PrivateIterMutNtNtB7_4path11PathSegmentNtNtB7_5token6Colon2ENtNtNtNtCsfvfooZQ3Axs_4core4iter6traits8iterator8Iterator10advance_byB7_, symObjAddr: 0x1DF0, symBinAddr: 0x3A4D0, symSize: 0x134 }
  - { offset: 0xB144A, size: 0x8, addend: 0x0, symName: __RNvYINtNtCs5AlOhPCr03V_3syn10punctuated14PrivateIterMutNtNtB7_4path11PathSegmentNtNtB7_5token6Colon2ENtNtNtNtCsfvfooZQ3Axs_4core4iter6traits8iterator8Iterator3nthB7_, symObjAddr: 0x1F24, symBinAddr: 0x3A604, symSize: 0x80 }
  - { offset: 0xB1516, size: 0x8, addend: 0x0, symName: __RNvYINtNtCs5AlOhPCr03V_3syn10punctuated14PrivateIterMutNtNtB7_4path11PathSegmentNtNtB7_5token6Colon2ENtNtNtNtCsfvfooZQ3Axs_4core4iter6traits8iterator8Iterator9size_hintB7_, symObjAddr: 0x1FA4, symBinAddr: 0x3A684, symSize: 0x34 }
  - { offset: 0xB154B, size: 0x8, addend: 0x0, symName: __RNvYINtNtCs5AlOhPCr03V_3syn10punctuated14PrivateIterMutNtNtB7_8generics12GenericParamNtNtB7_5token5CommaENtNtNtNtCsfvfooZQ3Axs_4core4iter6traits8iterator8Iterator10advance_byB7_, symObjAddr: 0x21A0, symBinAddr: 0x3A880, symSize: 0x134 }
  - { offset: 0xB16A1, size: 0x8, addend: 0x0, symName: __RNvYINtNtCs5AlOhPCr03V_3syn10punctuated14PrivateIterMutNtNtB7_8generics12GenericParamNtNtB7_5token5CommaENtNtNtNtCsfvfooZQ3Axs_4core4iter6traits8iterator8Iterator3nthB7_, symObjAddr: 0x22D4, symBinAddr: 0x3A9B4, symSize: 0x80 }
  - { offset: 0xB176D, size: 0x8, addend: 0x0, symName: __RNvYINtNtCs5AlOhPCr03V_3syn10punctuated14PrivateIterMutNtNtB7_8generics12GenericParamNtNtB7_5token5CommaENtNtNtNtCsfvfooZQ3Axs_4core4iter6traits8iterator8Iterator9size_hintB7_, symObjAddr: 0x2354, symBinAddr: 0x3AA34, symSize: 0x34 }
  - { offset: 0xB17A2, size: 0x8, addend: 0x0, symName: __RNvYINtNtCs5AlOhPCr03V_3syn10punctuated5PairsNtNtB7_4path11PathSegmentNtNtB7_5token6Colon2ENtNtNtNtCsfvfooZQ3Axs_4core4iter6traits8iterator8Iterator10advance_byB7_, symObjAddr: 0x2388, symBinAddr: 0x3AA68, symSize: 0x130 }
  - { offset: 0xB18F8, size: 0x8, addend: 0x0, symName: __RNvYINtNtCs5AlOhPCr03V_3syn10punctuated5PairsNtNtB7_4path11PathSegmentNtNtB7_5token6Colon2ENtNtNtNtCsfvfooZQ3Axs_4core4iter6traits8iterator8Iterator3nthB7_, symObjAddr: 0x24B8, symBinAddr: 0x3AB98, symSize: 0x84 }
  - { offset: 0xB19C4, size: 0x8, addend: 0x0, symName: __RNvYINtNtCs5AlOhPCr03V_3syn10punctuated5PairsNtNtB7_4path11PathSegmentNtNtB7_5token6Colon2ENtNtNtNtCsfvfooZQ3Axs_4core4iter6traits8iterator8Iterator4skipB7_, symObjAddr: 0x253C, symBinAddr: 0x3AC1C, symSize: 0x24 }
  - { offset: 0xB1A1F, size: 0x8, addend: 0x0, symName: __RNvYINtNtCs5AlOhPCr03V_3syn10punctuated5PairsNtNtB7_4path11PathSegmentNtNtB7_5token6Colon2ENtNtNtNtCsfvfooZQ3Axs_4core4iter6traits8iterator8Iterator6by_refB7_, symObjAddr: 0x2560, symBinAddr: 0x3AC40, symSize: 0x14 }
  - { offset: 0xB1A56, size: 0x8, addend: 0x0, symName: __RNvYQINtNtCs5AlOhPCr03V_3syn10punctuated5PairsNtNtB8_4path11PathSegmentNtNtB8_5token6Colon2ENtNtNtNtCsfvfooZQ3Axs_4core4iter6traits8iterator8Iterator4takeB8_, symObjAddr: 0x2574, symBinAddr: 0x3AC54, symSize: 0x18 }
  - { offset: 0xB1AA2, size: 0x8, addend: 0x0, symName: __RNvXNtNtNtCsfvfooZQ3Axs_4core4iter6traits8iteratorQINtNtCs5AlOhPCr03V_3syn10punctuated5PairsNtNtBS_4path11PathSegmentNtNtBS_5token6Colon2ENtB2_8Iterator4nextBS_, symObjAddr: 0x230, symBinAddr: 0x39070, symSize: 0x28 }
  - { offset: 0xB1AE5, size: 0x8, addend: 0x0, symName: __RNvXNtNtNtCsfvfooZQ3Axs_4core4iter6traits7collectINtNtCs5AlOhPCr03V_3syn10punctuated5PairsNtNtBQ_2ty4TypeNtNtBQ_5token5CommaENtB2_12IntoIterator9into_iterBQ_, symObjAddr: 0x20, symBinAddr: 0x38E78, symSize: 0x18 }
  - { offset: 0xB1B1C, size: 0x8, addend: 0x0, symName: __RNvXNtNtNtCsfvfooZQ3Axs_4core4iter6traits7collectINtNtCs5AlOhPCr03V_3syn10punctuated5PairsNtNtBQ_2ty9BareFnArgNtNtBQ_5token5CommaENtB2_12IntoIterator9into_iterBQ_, symObjAddr: 0x38, symBinAddr: 0x38E90, symSize: 0x18 }
  - { offset: 0xB1B53, size: 0x8, addend: 0x0, symName: __RNvXNtNtNtCsfvfooZQ3Axs_4core4iter6traits7collectINtNtCs5AlOhPCr03V_3syn10punctuated5PairsNtNtBQ_3pat3PatNtNtBQ_5token2OrENtB2_12IntoIterator9into_iterBQ_, symObjAddr: 0x50, symBinAddr: 0x38EA8, symSize: 0x18 }
  - { offset: 0xB1B8A, size: 0x8, addend: 0x0, symName: __RNvXNtNtNtCsfvfooZQ3Axs_4core4iter6traits7collectINtNtCs5AlOhPCr03V_3syn10punctuated5PairsNtNtBQ_3pat3PatNtNtBQ_5token5CommaENtB2_12IntoIterator9into_iterBQ_, symObjAddr: 0x68, symBinAddr: 0x38EC0, symSize: 0x18 }
  - { offset: 0xB1BC1, size: 0x8, addend: 0x0, symName: __RNvXNtNtNtCsfvfooZQ3Axs_4core4iter6traits7collectINtNtCs5AlOhPCr03V_3syn10punctuated5PairsNtNtBQ_3pat8FieldPatNtNtBQ_5token5CommaENtB2_12IntoIterator9into_iterBQ_, symObjAddr: 0x80, symBinAddr: 0x38ED8, symSize: 0x18 }
  - { offset: 0xB1BF8, size: 0x8, addend: 0x0, symName: __RNvXNtNtNtCsfvfooZQ3Axs_4core4iter6traits7collectINtNtCs5AlOhPCr03V_3syn10punctuated5PairsNtNtBQ_4data5FieldNtNtBQ_5token5CommaENtB2_12IntoIterator9into_iterBQ_, symObjAddr: 0xB0, symBinAddr: 0x38EF0, symSize: 0x18 }
  - { offset: 0xB1C2F, size: 0x8, addend: 0x0, symName: __RNvXNtNtNtCsfvfooZQ3Axs_4core4iter6traits7collectINtNtCs5AlOhPCr03V_3syn10punctuated5PairsNtNtBQ_4data7VariantNtNtBQ_5token5CommaENtB2_12IntoIterator9into_iterBQ_, symObjAddr: 0xC8, symBinAddr: 0x38F08, symSize: 0x18 }
  - { offset: 0xB1C66, size: 0x8, addend: 0x0, symName: __RNvXNtNtNtCsfvfooZQ3Axs_4core4iter6traits7collectINtNtCs5AlOhPCr03V_3syn10punctuated5PairsNtNtBQ_4expr10FieldValueNtNtBQ_5token5CommaENtB2_12IntoIterator9into_iterBQ_, symObjAddr: 0xE0, symBinAddr: 0x38F20, symSize: 0x18 }
  - { offset: 0xB1C9D, size: 0x8, addend: 0x0, symName: __RNvXNtNtNtCsfvfooZQ3Axs_4core4iter6traits7collectINtNtCs5AlOhPCr03V_3syn10punctuated5PairsNtNtBQ_4expr21GenericMethodArgumentNtNtBQ_5token5CommaENtB2_12IntoIterator9into_iterBQ_, symObjAddr: 0xF8, symBinAddr: 0x38F38, symSize: 0x18 }
  - { offset: 0xB1CD4, size: 0x8, addend: 0x0, symName: __RNvXNtNtNtCsfvfooZQ3Axs_4core4iter6traits7collectINtNtCs5AlOhPCr03V_3syn10punctuated5PairsNtNtBQ_4expr4ExprNtNtBQ_5token5CommaENtB2_12IntoIterator9into_iterBQ_, symObjAddr: 0x110, symBinAddr: 0x38F50, symSize: 0x18 }
  - { offset: 0xB1D0B, size: 0x8, addend: 0x0, symName: __RNvXNtNtNtCsfvfooZQ3Axs_4core4iter6traits7collectINtNtCs5AlOhPCr03V_3syn10punctuated5PairsNtNtBQ_4item5FnArgNtNtBQ_5token5CommaENtB2_12IntoIterator9into_iterBQ_, symObjAddr: 0x128, symBinAddr: 0x38F68, symSize: 0x18 }
  - { offset: 0xB1D42, size: 0x8, addend: 0x0, symName: __RNvXNtNtNtCsfvfooZQ3Axs_4core4iter6traits7collectINtNtCs5AlOhPCr03V_3syn10punctuated5PairsNtNtBQ_4item7UseTreeNtNtBQ_5token5CommaENtB2_12IntoIterator9into_iterBQ_, symObjAddr: 0x140, symBinAddr: 0x38F80, symSize: 0x18 }
  - { offset: 0xB1D79, size: 0x8, addend: 0x0, symName: __RNvXNtNtNtCsfvfooZQ3Axs_4core4iter6traits7collectINtNtCs5AlOhPCr03V_3syn10punctuated5PairsNtNtBQ_4path11PathSegmentNtNtBQ_5token6Colon2ENtB2_12IntoIterator9into_iterBQ_, symObjAddr: 0x158, symBinAddr: 0x38F98, symSize: 0x18 }
  - { offset: 0xB1DB0, size: 0x8, addend: 0x0, symName: __RNvXNtNtNtCsfvfooZQ3Axs_4core4iter6traits7collectINtNtCs5AlOhPCr03V_3syn10punctuated5PairsNtNtBQ_4path15GenericArgumentNtNtBQ_5token5CommaENtB2_12IntoIterator9into_iterBQ_, symObjAddr: 0x170, symBinAddr: 0x38FB0, symSize: 0x18 }
  - { offset: 0xB1DE7, size: 0x8, addend: 0x0, symName: __RNvXNtNtNtCsfvfooZQ3Axs_4core4iter6traits7collectINtNtCs5AlOhPCr03V_3syn10punctuated5PairsNtNtBQ_8generics11LifetimeDefNtNtBQ_5token5CommaENtB2_12IntoIterator9into_iterBQ_, symObjAddr: 0x188, symBinAddr: 0x38FC8, symSize: 0x18 }
  - { offset: 0xB1E1E, size: 0x8, addend: 0x0, symName: __RNvXNtNtNtCsfvfooZQ3Axs_4core4iter6traits7collectINtNtCs5AlOhPCr03V_3syn10punctuated5PairsNtNtBQ_8generics12GenericParamNtNtBQ_5token5CommaENtB2_12IntoIterator9into_iterBQ_, symObjAddr: 0x1A0, symBinAddr: 0x38FE0, symSize: 0x18 }
  - { offset: 0xB1E55, size: 0x8, addend: 0x0, symName: __RNvXNtNtNtCsfvfooZQ3Axs_4core4iter6traits7collectINtNtCs5AlOhPCr03V_3syn10punctuated5PairsNtNtBQ_8generics14TypeParamBoundNtNtBQ_5token3AddENtB2_12IntoIterator9into_iterBQ_, symObjAddr: 0x1B8, symBinAddr: 0x38FF8, symSize: 0x18 }
  - { offset: 0xB1E8C, size: 0x8, addend: 0x0, symName: __RNvXNtNtNtCsfvfooZQ3Axs_4core4iter6traits7collectINtNtCs5AlOhPCr03V_3syn10punctuated5PairsNtNtBQ_8generics14WherePredicateNtNtBQ_5token5CommaENtB2_12IntoIterator9into_iterBQ_, symObjAddr: 0x1D0, symBinAddr: 0x39010, symSize: 0x18 }
  - { offset: 0xB1EC3, size: 0x8, addend: 0x0, symName: __RNvXNtNtNtCsfvfooZQ3Axs_4core4iter6traits7collectINtNtCs5AlOhPCr03V_3syn10punctuated5PairsNtNtBQ_8lifetime8LifetimeNtNtBQ_5token3AddENtB2_12IntoIterator9into_iterBQ_, symObjAddr: 0x1E8, symBinAddr: 0x39028, symSize: 0x18 }
  - { offset: 0xB1EFA, size: 0x8, addend: 0x0, symName: __RNvXNtNtNtCsfvfooZQ3Axs_4core4iter6traits7collectINtNtCs5AlOhPCr03V_3syn10punctuated9IntoPairsNtNtBQ_4path11PathSegmentNtNtBQ_5token6Colon2ENtB2_12IntoIterator9into_iterBQ_, symObjAddr: 0x200, symBinAddr: 0x39040, symSize: 0x30 }
  - { offset: 0xB1F3E, size: 0x8, addend: 0x0, symName: __RNvYINtNtCs5AlOhPCr03V_3syn10punctuated11PrivateIterNtNtB7_4data5FieldNtNtB7_5token5CommaENtNtNtNtCsfvfooZQ3Axs_4core4iter6traits10exact_size17ExactSizeIterator8is_emptyB7_, symObjAddr: 0x258, symBinAddr: 0x39098, symSize: 0x2C }
  - { offset: 0xB1F73, size: 0x8, addend: 0x0, symName: __RNvYINtNtCs5AlOhPCr03V_3syn10punctuated11PrivateIterNtNtB7_4path11PathSegmentNtNtB7_5token6Colon2ENtNtNtNtCsfvfooZQ3Axs_4core4iter6traits10exact_size17ExactSizeIterator8is_emptyB7_, symObjAddr: 0x9B8, symBinAddr: 0x39448, symSize: 0x2C }
  - { offset: 0xB1FA8, size: 0x8, addend: 0x0, symName: __RNvYINtNtCs5AlOhPCr03V_3syn10punctuated11PrivateIterNtNtB7_8generics12GenericParamNtNtB7_5token5CommaENtNtNtNtCsfvfooZQ3Axs_4core4iter6traits10exact_size17ExactSizeIterator8is_emptyB7_, symObjAddr: 0xD68, symBinAddr: 0x397F8, symSize: 0x2C }
  - { offset: 0xB1FDD, size: 0x8, addend: 0x0, symName: __RNvYINtNtCs5AlOhPCr03V_3syn10punctuated11PrivateIterNtNtB7_8generics14TypeParamBoundNtNtB7_5token3AddENtNtNtNtCsfvfooZQ3Axs_4core4iter6traits10exact_size17ExactSizeIterator8is_emptyB7_, symObjAddr: 0x1118, symBinAddr: 0x39BA8, symSize: 0x2C }
  - { offset: 0xB2012, size: 0x8, addend: 0x0, symName: __RNvYINtNtCs5AlOhPCr03V_3syn10punctuated14PrivateIterMutNtNtB7_4item5FnArgNtNtB7_5token5CommaENtNtNtNtCsfvfooZQ3Axs_4core4iter6traits10exact_size17ExactSizeIterator8is_emptyB7_, symObjAddr: 0x1878, symBinAddr: 0x39F58, symSize: 0x2C }
  - { offset: 0xB2047, size: 0x8, addend: 0x0, symName: __RNvYINtNtCs5AlOhPCr03V_3syn10punctuated14PrivateIterMutNtNtB7_4path11PathSegmentNtNtB7_5token6Colon2ENtNtNtNtCsfvfooZQ3Axs_4core4iter6traits10exact_size17ExactSizeIterator8is_emptyB7_, symObjAddr: 0x1C28, symBinAddr: 0x3A308, symSize: 0x2C }
  - { offset: 0xB207C, size: 0x8, addend: 0x0, symName: __RNvYINtNtCs5AlOhPCr03V_3syn10punctuated14PrivateIterMutNtNtB7_8generics12GenericParamNtNtB7_5token5CommaENtNtNtNtCsfvfooZQ3Axs_4core4iter6traits10exact_size17ExactSizeIterator8is_emptyB7_, symObjAddr: 0x1FD8, symBinAddr: 0x3A6B8, symSize: 0x2C }
  - { offset: 0xB20BD, size: 0x8, addend: 0x0, symName: __RNvYINtNtCs5AlOhPCr03V_3syn10punctuated11PrivateIterNtNtB7_4data5FieldNtNtB7_5token5CommaENtNtNtNtCsfvfooZQ3Axs_4core4iter6traits12double_ended19DoubleEndedIterator15advance_back_byB7_, symObjAddr: 0x284, symBinAddr: 0x390C4, symSize: 0x134 }
  - { offset: 0xB220B, size: 0x8, addend: 0x0, symName: __RNvYINtNtCs5AlOhPCr03V_3syn10punctuated11PrivateIterNtNtB7_4data5FieldNtNtB7_5token5CommaENtNtNtNtCsfvfooZQ3Axs_4core4iter6traits12double_ended19DoubleEndedIterator8nth_backB7_, symObjAddr: 0x3B8, symBinAddr: 0x391F8, symSize: 0x68 }
  - { offset: 0xB2289, size: 0x8, addend: 0x0, symName: __RNvYINtNtCs5AlOhPCr03V_3syn10punctuated11PrivateIterNtNtB7_4path11PathSegmentNtNtB7_5token6Colon2ENtNtNtNtCsfvfooZQ3Axs_4core4iter6traits12double_ended19DoubleEndedIterator15advance_back_byB7_, symObjAddr: 0x9E4, symBinAddr: 0x39474, symSize: 0x134 }
  - { offset: 0xB23D7, size: 0x8, addend: 0x0, symName: __RNvYINtNtCs5AlOhPCr03V_3syn10punctuated11PrivateIterNtNtB7_4path11PathSegmentNtNtB7_5token6Colon2ENtNtNtNtCsfvfooZQ3Axs_4core4iter6traits12double_ended19DoubleEndedIterator8nth_backB7_, symObjAddr: 0xB18, symBinAddr: 0x395A8, symSize: 0x68 }
  - { offset: 0xB2455, size: 0x8, addend: 0x0, symName: __RNvYINtNtCs5AlOhPCr03V_3syn10punctuated11PrivateIterNtNtB7_8generics12GenericParamNtNtB7_5token5CommaENtNtNtNtCsfvfooZQ3Axs_4core4iter6traits12double_ended19DoubleEndedIterator15advance_back_byB7_, symObjAddr: 0xD94, symBinAddr: 0x39824, symSize: 0x134 }
  - { offset: 0xB25A3, size: 0x8, addend: 0x0, symName: __RNvYINtNtCs5AlOhPCr03V_3syn10punctuated11PrivateIterNtNtB7_8generics12GenericParamNtNtB7_5token5CommaENtNtNtNtCsfvfooZQ3Axs_4core4iter6traits12double_ended19DoubleEndedIterator8nth_backB7_, symObjAddr: 0xEC8, symBinAddr: 0x39958, symSize: 0x68 }
  - { offset: 0xB2621, size: 0x8, addend: 0x0, symName: __RNvYINtNtCs5AlOhPCr03V_3syn10punctuated11PrivateIterNtNtB7_8generics14TypeParamBoundNtNtB7_5token3AddENtNtNtNtCsfvfooZQ3Axs_4core4iter6traits12double_ended19DoubleEndedIterator15advance_back_byB7_, symObjAddr: 0x1144, symBinAddr: 0x39BD4, symSize: 0x134 }
  - { offset: 0xB276F, size: 0x8, addend: 0x0, symName: __RNvYINtNtCs5AlOhPCr03V_3syn10punctuated11PrivateIterNtNtB7_8generics14TypeParamBoundNtNtB7_5token3AddENtNtNtNtCsfvfooZQ3Axs_4core4iter6traits12double_ended19DoubleEndedIterator8nth_backB7_, symObjAddr: 0x1278, symBinAddr: 0x39D08, symSize: 0x68 }
  - { offset: 0xB27ED, size: 0x8, addend: 0x0, symName: __RNvYINtNtCs5AlOhPCr03V_3syn10punctuated14PrivateIterMutNtNtB7_4item5FnArgNtNtB7_5token5CommaENtNtNtNtCsfvfooZQ3Axs_4core4iter6traits12double_ended19DoubleEndedIterator15advance_back_byB7_, symObjAddr: 0x18A4, symBinAddr: 0x39F84, symSize: 0x134 }
  - { offset: 0xB293B, size: 0x8, addend: 0x0, symName: __RNvYINtNtCs5AlOhPCr03V_3syn10punctuated14PrivateIterMutNtNtB7_4item5FnArgNtNtB7_5token5CommaENtNtNtNtCsfvfooZQ3Axs_4core4iter6traits12double_ended19DoubleEndedIterator8nth_backB7_, symObjAddr: 0x19D8, symBinAddr: 0x3A0B8, symSize: 0x68 }
  - { offset: 0xB29B9, size: 0x8, addend: 0x0, symName: __RNvYINtNtCs5AlOhPCr03V_3syn10punctuated14PrivateIterMutNtNtB7_4path11PathSegmentNtNtB7_5token6Colon2ENtNtNtNtCsfvfooZQ3Axs_4core4iter6traits12double_ended19DoubleEndedIterator15advance_back_byB7_, symObjAddr: 0x1C54, symBinAddr: 0x3A334, symSize: 0x134 }
  - { offset: 0xB2B07, size: 0x8, addend: 0x0, symName: __RNvYINtNtCs5AlOhPCr03V_3syn10punctuated14PrivateIterMutNtNtB7_4path11PathSegmentNtNtB7_5token6Colon2ENtNtNtNtCsfvfooZQ3Axs_4core4iter6traits12double_ended19DoubleEndedIterator8nth_backB7_, symObjAddr: 0x1D88, symBinAddr: 0x3A468, symSize: 0x68 }
  - { offset: 0xB2B85, size: 0x8, addend: 0x0, symName: __RNvYINtNtCs5AlOhPCr03V_3syn10punctuated14PrivateIterMutNtNtB7_8generics12GenericParamNtNtB7_5token5CommaENtNtNtNtCsfvfooZQ3Axs_4core4iter6traits12double_ended19DoubleEndedIterator15advance_back_byB7_, symObjAddr: 0x2004, symBinAddr: 0x3A6E4, symSize: 0x134 }
  - { offset: 0xB2CD3, size: 0x8, addend: 0x0, symName: __RNvYINtNtCs5AlOhPCr03V_3syn10punctuated14PrivateIterMutNtNtB7_8generics12GenericParamNtNtB7_5token5CommaENtNtNtNtCsfvfooZQ3Axs_4core4iter6traits12double_ended19DoubleEndedIterator8nth_backB7_, symObjAddr: 0x2138, symBinAddr: 0x3A818, symSize: 0x68 }
  - { offset: 0xB51B8, size: 0x8, addend: 0x0, symName: __RNvMNtCs5AlOhPCr03V_3syn10punctuatedINtB2_10PunctuatedNtNtB4_2ty4TypeNtNtB4_5token5CommaE3newB4_, symObjAddr: 0x258C, symBinAddr: 0x3AC6C, symSize: 0x54 }
  - { offset: 0xB51DE, size: 0x8, addend: 0x0, symName: __RNvMNtCs5AlOhPCr03V_3syn10punctuatedINtB2_10PunctuatedNtNtB4_2ty9BareFnArgNtNtB4_5token5CommaE3newB4_, symObjAddr: 0x25E0, symBinAddr: 0x3ACC0, symSize: 0x54 }
  - { offset: 0xB5204, size: 0x8, addend: 0x0, symName: __RNvMNtCs5AlOhPCr03V_3syn10punctuatedINtB2_10PunctuatedNtNtB4_3pat3PatNtNtB4_5token2OrE3newB4_, symObjAddr: 0x2634, symBinAddr: 0x3AD14, symSize: 0x54 }
  - { offset: 0xB522A, size: 0x8, addend: 0x0, symName: __RNvMNtCs5AlOhPCr03V_3syn10punctuatedINtB2_10PunctuatedNtNtB4_3pat3PatNtNtB4_5token5CommaE3newB4_, symObjAddr: 0x2688, symBinAddr: 0x3AD68, symSize: 0x54 }
  - { offset: 0xB5250, size: 0x8, addend: 0x0, symName: __RNvMNtCs5AlOhPCr03V_3syn10punctuatedINtB2_10PunctuatedNtNtB4_3pat8FieldPatNtNtB4_5token5CommaE3newB4_, symObjAddr: 0x26DC, symBinAddr: 0x3ADBC, symSize: 0x54 }
  - { offset: 0xB5276, size: 0x8, addend: 0x0, symName: __RNvMNtCs5AlOhPCr03V_3syn10punctuatedINtB2_10PunctuatedNtNtB4_4data5FieldNtNtB4_5token5CommaE3newB4_, symObjAddr: 0x2784, symBinAddr: 0x3AE10, symSize: 0x54 }
  - { offset: 0xB529C, size: 0x8, addend: 0x0, symName: __RNvMNtCs5AlOhPCr03V_3syn10punctuatedINtB2_10PunctuatedNtNtB4_4data7VariantNtNtB4_5token5CommaE3newB4_, symObjAddr: 0x282C, symBinAddr: 0x3AE64, symSize: 0x54 }
  - { offset: 0xB52C2, size: 0x8, addend: 0x0, symName: __RNvMNtCs5AlOhPCr03V_3syn10punctuatedINtB2_10PunctuatedNtNtB4_4expr10FieldValueNtNtB4_5token5CommaE3newB4_, symObjAddr: 0x2880, symBinAddr: 0x3AEB8, symSize: 0x54 }
  - { offset: 0xB52E8, size: 0x8, addend: 0x0, symName: __RNvMNtCs5AlOhPCr03V_3syn10punctuatedINtB2_10PunctuatedNtNtB4_4expr21GenericMethodArgumentNtNtB4_5token5CommaE3newB4_, symObjAddr: 0x28D4, symBinAddr: 0x3AF0C, symSize: 0x54 }
  - { offset: 0xB530E, size: 0x8, addend: 0x0, symName: __RNvMNtCs5AlOhPCr03V_3syn10punctuatedINtB2_10PunctuatedNtNtB4_4expr4ExprNtNtB4_5token5CommaE3newB4_, symObjAddr: 0x2928, symBinAddr: 0x3AF60, symSize: 0x54 }
  - { offset: 0xB5334, size: 0x8, addend: 0x0, symName: __RNvMNtCs5AlOhPCr03V_3syn10punctuatedINtB2_10PunctuatedNtNtB4_4item5FnArgNtNtB4_5token5CommaE3newB4_, symObjAddr: 0x297C, symBinAddr: 0x3AFB4, symSize: 0x54 }
  - { offset: 0xB535A, size: 0x8, addend: 0x0, symName: __RNvMNtCs5AlOhPCr03V_3syn10punctuatedINtB2_10PunctuatedNtNtB4_4item7UseTreeNtNtB4_5token5CommaE3newB4_, symObjAddr: 0x29D0, symBinAddr: 0x3B008, symSize: 0x54 }
  - { offset: 0xB5380, size: 0x8, addend: 0x0, symName: __RNvMNtCs5AlOhPCr03V_3syn10punctuatedINtB2_10PunctuatedNtNtB4_4path11PathSegmentNtNtB4_5token6Colon2E3newB4_, symObjAddr: 0x2A24, symBinAddr: 0x3B05C, symSize: 0x54 }
  - { offset: 0xB53A6, size: 0x8, addend: 0x0, symName: __RNvMNtCs5AlOhPCr03V_3syn10punctuatedINtB2_10PunctuatedNtNtB4_4path15GenericArgumentNtNtB4_5token5CommaE3newB4_, symObjAddr: 0x2A78, symBinAddr: 0x3B0B0, symSize: 0x54 }
  - { offset: 0xB53CC, size: 0x8, addend: 0x0, symName: __RNvMNtCs5AlOhPCr03V_3syn10punctuatedINtB2_10PunctuatedNtNtB4_8generics11LifetimeDefNtNtB4_5token5CommaE3newB4_, symObjAddr: 0x2ACC, symBinAddr: 0x3B104, symSize: 0x54 }
  - { offset: 0xB53F2, size: 0x8, addend: 0x0, symName: __RNvMNtCs5AlOhPCr03V_3syn10punctuatedINtB2_10PunctuatedNtNtB4_8generics12GenericParamNtNtB4_5token5CommaE3newB4_, symObjAddr: 0x2B20, symBinAddr: 0x3B158, symSize: 0x54 }
  - { offset: 0xB5418, size: 0x8, addend: 0x0, symName: __RNvMNtCs5AlOhPCr03V_3syn10punctuatedINtB2_10PunctuatedNtNtB4_8generics14TypeParamBoundNtNtB4_5token3AddE3newB4_, symObjAddr: 0x2B74, symBinAddr: 0x3B1AC, symSize: 0x54 }
  - { offset: 0xB543E, size: 0x8, addend: 0x0, symName: __RNvMNtCs5AlOhPCr03V_3syn10punctuatedINtB2_10PunctuatedNtNtB4_8generics14WherePredicateNtNtB4_5token5CommaE3newB4_, symObjAddr: 0x2BC8, symBinAddr: 0x3B200, symSize: 0x54 }
  - { offset: 0xB5464, size: 0x8, addend: 0x0, symName: __RNvMNtCs5AlOhPCr03V_3syn10punctuatedINtB2_10PunctuatedNtNtB4_8lifetime8LifetimeNtNtB4_5token3AddE3newB4_, symObjAddr: 0x2C1C, symBinAddr: 0x3B254, symSize: 0x54 }
  - { offset: 0xB54A4, size: 0x8, addend: 0x0, symName: __RNvMNtCs5AlOhPCr03V_3syn10punctuatedINtB2_10PunctuatedNtNtB4_4expr4ExprNtNtB4_5token5CommaE8is_emptyB4_, symObjAddr: 0x2CE4, symBinAddr: 0x3B2A8, symSize: 0x74 }
  - { offset: 0xB54E5, size: 0x8, addend: 0x0, symName: __RNvMNtCs5AlOhPCr03V_3syn10punctuatedINtB2_10PunctuatedNtNtB4_4item5FnArgNtNtB4_5token5CommaE8is_emptyB4_, symObjAddr: 0x2D58, symBinAddr: 0x3B31C, symSize: 0x74 }
  - { offset: 0xB5526, size: 0x8, addend: 0x0, symName: __RNvMNtCs5AlOhPCr03V_3syn10punctuatedINtB2_10PunctuatedNtNtB4_4path11PathSegmentNtNtB4_5token6Colon2E8is_emptyB4_, symObjAddr: 0x2DCC, symBinAddr: 0x3B390, symSize: 0x74 }
  - { offset: 0xB5567, size: 0x8, addend: 0x0, symName: __RNvMNtCs5AlOhPCr03V_3syn10punctuatedINtB2_10PunctuatedNtNtB4_4path15GenericArgumentNtNtB4_5token5CommaE8is_emptyB4_, symObjAddr: 0x2E40, symBinAddr: 0x3B404, symSize: 0x74 }
  - { offset: 0xB55A8, size: 0x8, addend: 0x0, symName: __RNvMNtCs5AlOhPCr03V_3syn10punctuatedINtB2_10PunctuatedNtNtB4_8generics12GenericParamNtNtB4_5token5CommaE8is_emptyB4_, symObjAddr: 0x2EB4, symBinAddr: 0x3B478, symSize: 0x74 }
  - { offset: 0xB55E9, size: 0x8, addend: 0x0, symName: __RNvMNtCs5AlOhPCr03V_3syn10punctuatedINtB2_10PunctuatedNtNtB4_8generics14TypeParamBoundNtNtB4_5token3AddE8is_emptyB4_, symObjAddr: 0x2F28, symBinAddr: 0x3B4EC, symSize: 0x74 }
  - { offset: 0xB562A, size: 0x8, addend: 0x0, symName: __RNvMNtCs5AlOhPCr03V_3syn10punctuatedINtB2_10PunctuatedNtNtB4_8generics14WherePredicateNtNtB4_5token5CommaE8is_emptyB4_, symObjAddr: 0x2F9C, symBinAddr: 0x3B560, symSize: 0x74 }
  - { offset: 0xB566B, size: 0x8, addend: 0x0, symName: __RNvMNtCs5AlOhPCr03V_3syn10punctuatedINtB2_10PunctuatedNtNtB4_8lifetime8LifetimeNtNtB4_5token3AddE8is_emptyB4_, symObjAddr: 0x3010, symBinAddr: 0x3B5D4, symSize: 0x74 }
  - { offset: 0xB569F, size: 0x8, addend: 0x0, symName: __RNvMNtCs5AlOhPCr03V_3syn10punctuatedINtB2_10PunctuatedNtNtB4_4data5FieldNtNtB4_5token5CommaE3lenB4_, symObjAddr: 0x3084, symBinAddr: 0x3B648, symSize: 0xA0 }
  - { offset: 0xB56D3, size: 0x8, addend: 0x0, symName: __RNvMNtCs5AlOhPCr03V_3syn10punctuatedINtB2_10PunctuatedNtNtB4_4expr4ExprNtNtB4_5token5CommaE3lenB4_, symObjAddr: 0x31C4, symBinAddr: 0x3B6E8, symSize: 0xA0 }
  - { offset: 0xB5707, size: 0x8, addend: 0x0, symName: __RNvMNtCs5AlOhPCr03V_3syn10punctuatedINtB2_10PunctuatedNtNtB4_4path11PathSegmentNtNtB4_5token6Colon2E3lenB4_, symObjAddr: 0x3264, symBinAddr: 0x3B788, symSize: 0xA0 }
  - { offset: 0xB573B, size: 0x8, addend: 0x0, symName: __RNvMNtCs5AlOhPCr03V_3syn10punctuatedINtB2_10PunctuatedNtNtB4_8generics14TypeParamBoundNtNtB4_5token3AddE3lenB4_, symObjAddr: 0x3304, symBinAddr: 0x3B828, symSize: 0xA0 }
  - { offset: 0xB576F, size: 0x8, addend: 0x0, symName: __RNvMNtCs5AlOhPCr03V_3syn10punctuatedINtB2_10PunctuatedNtNtB4_4path11PathSegmentNtNtB4_5token6Colon2E4lastB4_, symObjAddr: 0x3428, symBinAddr: 0x3B8C8, symSize: 0x84 }
  - { offset: 0xB57B0, size: 0x8, addend: 0x0, symName: __RNvMNtCs5AlOhPCr03V_3syn10punctuatedINtB2_10PunctuatedNtNtB4_4item5FnArgNtNtB4_5token5CommaE8last_mutB4_, symObjAddr: 0x34AC, symBinAddr: 0x3B94C, symSize: 0x84 }
  - { offset: 0xB57F1, size: 0x8, addend: 0x0, symName: __RNvMNtCs5AlOhPCr03V_3syn10punctuatedINtB2_10PunctuatedNtNtB4_4path11PathSegmentNtNtB4_5token6Colon2E8last_mutB4_, symObjAddr: 0x3530, symBinAddr: 0x3B9D0, symSize: 0x84 }
  - { offset: 0xB587A, size: 0x8, addend: 0x0, symName: __RNvMNtCs5AlOhPCr03V_3syn10punctuatedINtB2_10PunctuatedNtNtB4_4data5FieldNtNtB4_5token5CommaE4iterB4_, symObjAddr: 0x35B4, symBinAddr: 0x3BA54, symSize: 0xC8 }
  - { offset: 0xB5934, size: 0x8, addend: 0x0, symName: __RNvMNtCs5AlOhPCr03V_3syn10punctuatedINtB2_10PunctuatedNtNtB4_4path11PathSegmentNtNtB4_5token6Colon2E4iterB4_, symObjAddr: 0x3744, symBinAddr: 0x3BB1C, symSize: 0xC8 }
  - { offset: 0xB59C0, size: 0x8, addend: 0x0, symName: __RNvMNtCs5AlOhPCr03V_3syn10punctuatedINtB2_10PunctuatedNtNtB4_8generics12GenericParamNtNtB4_5token5CommaE4iterB4_, symObjAddr: 0x380C, symBinAddr: 0x3BBE4, symSize: 0xC8 }
  - { offset: 0xB5A4C, size: 0x8, addend: 0x0, symName: __RNvMNtCs5AlOhPCr03V_3syn10punctuatedINtB2_10PunctuatedNtNtB4_8generics14TypeParamBoundNtNtB4_5token3AddE4iterB4_, symObjAddr: 0x38D4, symBinAddr: 0x3BCAC, symSize: 0xC8 }
  - { offset: 0xB5B2D, size: 0x8, addend: 0x0, symName: __RNvMNtCs5AlOhPCr03V_3syn10punctuatedINtB2_10PunctuatedNtNtB4_4item5FnArgNtNtB4_5token5CommaE8iter_mutB4_, symObjAddr: 0x3A64, symBinAddr: 0x3BD74, symSize: 0xC8 }
  - { offset: 0xB5BB9, size: 0x8, addend: 0x0, symName: __RNvMNtCs5AlOhPCr03V_3syn10punctuatedINtB2_10PunctuatedNtNtB4_4path11PathSegmentNtNtB4_5token6Colon2E8iter_mutB4_, symObjAddr: 0x3B2C, symBinAddr: 0x3BE3C, symSize: 0xC8 }
  - { offset: 0xB5C52, size: 0x8, addend: 0x0, symName: __RNvMNtCs5AlOhPCr03V_3syn10punctuatedINtB2_10PunctuatedNtNtB4_8generics12GenericParamNtNtB4_5token5CommaE8iter_mutB4_, symObjAddr: 0x3BF4, symBinAddr: 0x3BF04, symSize: 0xC8 }
  - { offset: 0xB5CD7, size: 0x8, addend: 0x0, symName: __RNvMNtCs5AlOhPCr03V_3syn10punctuatedINtB2_10PunctuatedNtNtB4_2ty4TypeNtNtB4_5token5CommaE5pairsB4_, symObjAddr: 0x3CBC, symBinAddr: 0x3BFCC, symSize: 0x74 }
  - { offset: 0xB5D3F, size: 0x8, addend: 0x0, symName: __RNvMNtCs5AlOhPCr03V_3syn10punctuatedINtB2_10PunctuatedNtNtB4_2ty9BareFnArgNtNtB4_5token5CommaE5pairsB4_, symObjAddr: 0x3D30, symBinAddr: 0x3C040, symSize: 0x74 }
  - { offset: 0xB5DA7, size: 0x8, addend: 0x0, symName: __RNvMNtCs5AlOhPCr03V_3syn10punctuatedINtB2_10PunctuatedNtNtB4_3pat3PatNtNtB4_5token2OrE5pairsB4_, symObjAddr: 0x3DA4, symBinAddr: 0x3C0B4, symSize: 0x74 }
  - { offset: 0xB5E02, size: 0x8, addend: 0x0, symName: __RNvMNtCs5AlOhPCr03V_3syn10punctuatedINtB2_10PunctuatedNtNtB4_3pat3PatNtNtB4_5token5CommaE5pairsB4_, symObjAddr: 0x3E18, symBinAddr: 0x3C128, symSize: 0x74 }
  - { offset: 0xB5E6A, size: 0x8, addend: 0x0, symName: __RNvMNtCs5AlOhPCr03V_3syn10punctuatedINtB2_10PunctuatedNtNtB4_3pat8FieldPatNtNtB4_5token5CommaE5pairsB4_, symObjAddr: 0x3E8C, symBinAddr: 0x3C19C, symSize: 0x74 }
  - { offset: 0xB5E9E, size: 0x8, addend: 0x0, symName: __RNvMNtCs5AlOhPCr03V_3syn10punctuatedINtB2_10PunctuatedNtNtB4_4data5FieldNtNtB4_5token5CommaE5pairsB4_, symObjAddr: 0x3F74, symBinAddr: 0x3C210, symSize: 0x74 }
  - { offset: 0xB5F06, size: 0x8, addend: 0x0, symName: __RNvMNtCs5AlOhPCr03V_3syn10punctuatedINtB2_10PunctuatedNtNtB4_4data7VariantNtNtB4_5token5CommaE5pairsB4_, symObjAddr: 0x3FE8, symBinAddr: 0x3C284, symSize: 0x74 }
  - { offset: 0xB5F6E, size: 0x8, addend: 0x0, symName: __RNvMNtCs5AlOhPCr03V_3syn10punctuatedINtB2_10PunctuatedNtNtB4_4expr10FieldValueNtNtB4_5token5CommaE5pairsB4_, symObjAddr: 0x405C, symBinAddr: 0x3C2F8, symSize: 0x74 }
  - { offset: 0xB5FD6, size: 0x8, addend: 0x0, symName: __RNvMNtCs5AlOhPCr03V_3syn10punctuatedINtB2_10PunctuatedNtNtB4_4expr21GenericMethodArgumentNtNtB4_5token5CommaE5pairsB4_, symObjAddr: 0x40D0, symBinAddr: 0x3C36C, symSize: 0x74 }
  - { offset: 0xB6031, size: 0x8, addend: 0x0, symName: __RNvMNtCs5AlOhPCr03V_3syn10punctuatedINtB2_10PunctuatedNtNtB4_4expr4ExprNtNtB4_5token5CommaE5pairsB4_, symObjAddr: 0x4144, symBinAddr: 0x3C3E0, symSize: 0x74 }
  - { offset: 0xB6065, size: 0x8, addend: 0x0, symName: __RNvMNtCs5AlOhPCr03V_3syn10punctuatedINtB2_10PunctuatedNtNtB4_4item5FnArgNtNtB4_5token5CommaE5pairsB4_, symObjAddr: 0x41B8, symBinAddr: 0x3C454, symSize: 0x74 }
  - { offset: 0xB60CD, size: 0x8, addend: 0x0, symName: __RNvMNtCs5AlOhPCr03V_3syn10punctuatedINtB2_10PunctuatedNtNtB4_4item7UseTreeNtNtB4_5token5CommaE5pairsB4_, symObjAddr: 0x422C, symBinAddr: 0x3C4C8, symSize: 0x74 }
  - { offset: 0xB6101, size: 0x8, addend: 0x0, symName: __RNvMNtCs5AlOhPCr03V_3syn10punctuatedINtB2_10PunctuatedNtNtB4_4path11PathSegmentNtNtB4_5token6Colon2E5pairsB4_, symObjAddr: 0x42A0, symBinAddr: 0x3C53C, symSize: 0x74 }
  - { offset: 0xB615C, size: 0x8, addend: 0x0, symName: __RNvMNtCs5AlOhPCr03V_3syn10punctuatedINtB2_10PunctuatedNtNtB4_4path15GenericArgumentNtNtB4_5token5CommaE5pairsB4_, symObjAddr: 0x4314, symBinAddr: 0x3C5B0, symSize: 0x74 }
  - { offset: 0xB61C4, size: 0x8, addend: 0x0, symName: __RNvMNtCs5AlOhPCr03V_3syn10punctuatedINtB2_10PunctuatedNtNtB4_8generics11LifetimeDefNtNtB4_5token5CommaE5pairsB4_, symObjAddr: 0x4388, symBinAddr: 0x3C624, symSize: 0x74 }
  - { offset: 0xB61F8, size: 0x8, addend: 0x0, symName: __RNvMNtCs5AlOhPCr03V_3syn10punctuatedINtB2_10PunctuatedNtNtB4_8generics12GenericParamNtNtB4_5token5CommaE5pairsB4_, symObjAddr: 0x43FC, symBinAddr: 0x3C698, symSize: 0x74 }
  - { offset: 0xB622C, size: 0x8, addend: 0x0, symName: __RNvMNtCs5AlOhPCr03V_3syn10punctuatedINtB2_10PunctuatedNtNtB4_8generics14TypeParamBoundNtNtB4_5token3AddE5pairsB4_, symObjAddr: 0x4470, symBinAddr: 0x3C70C, symSize: 0x74 }
  - { offset: 0xB6287, size: 0x8, addend: 0x0, symName: __RNvMNtCs5AlOhPCr03V_3syn10punctuatedINtB2_10PunctuatedNtNtB4_8generics14WherePredicateNtNtB4_5token5CommaE5pairsB4_, symObjAddr: 0x44E4, symBinAddr: 0x3C780, symSize: 0x74 }
  - { offset: 0xB62E2, size: 0x8, addend: 0x0, symName: __RNvMNtCs5AlOhPCr03V_3syn10punctuatedINtB2_10PunctuatedNtNtB4_8lifetime8LifetimeNtNtB4_5token3AddE5pairsB4_, symObjAddr: 0x4558, symBinAddr: 0x3C7F4, symSize: 0x74 }
  - { offset: 0xB6316, size: 0x8, addend: 0x0, symName: __RNvMNtCs5AlOhPCr03V_3syn10punctuatedINtB2_10PunctuatedNtNtB4_4path11PathSegmentNtNtB4_5token6Colon2E9pairs_mutB4_, symObjAddr: 0x45CC, symBinAddr: 0x3C868, symSize: 0x74 }
  - { offset: 0xB634A, size: 0x8, addend: 0x0, symName: __RNvMNtCs5AlOhPCr03V_3syn10punctuatedINtB2_10PunctuatedNtNtB4_4path11PathSegmentNtNtB4_5token6Colon2E10into_pairsB4_, symObjAddr: 0x4640, symBinAddr: 0x3C8DC, symSize: 0x108 }
  - { offset: 0xB638C, size: 0x8, addend: 0x0, symName: __RNvMNtCs5AlOhPCr03V_3syn10punctuatedINtB2_10PunctuatedNtNtB4_2ty4TypeNtNtB4_5token5CommaE10push_valueB4_, symObjAddr: 0x47E0, symBinAddr: 0x3CA7C, symSize: 0x1AC }
  - { offset: 0xB63FA, size: 0x8, addend: 0x0, symName: __RNvMNtCs5AlOhPCr03V_3syn10punctuatedINtB2_10PunctuatedNtNtB4_2ty9BareFnArgNtNtB4_5token5CommaE10push_valueB4_, symObjAddr: 0x498C, symBinAddr: 0x3CC28, symSize: 0x1AC }
  - { offset: 0xB6468, size: 0x8, addend: 0x0, symName: __RNvMNtCs5AlOhPCr03V_3syn10punctuatedINtB2_10PunctuatedNtNtB4_3pat3PatNtNtB4_5token2OrE10push_valueB4_, symObjAddr: 0x4B38, symBinAddr: 0x3CDD4, symSize: 0x1AC }
  - { offset: 0xB64D6, size: 0x8, addend: 0x0, symName: __RNvMNtCs5AlOhPCr03V_3syn10punctuatedINtB2_10PunctuatedNtNtB4_3pat3PatNtNtB4_5token5CommaE10push_valueB4_, symObjAddr: 0x4CE4, symBinAddr: 0x3CF80, symSize: 0x1AC }
  - { offset: 0xB6544, size: 0x8, addend: 0x0, symName: __RNvMNtCs5AlOhPCr03V_3syn10punctuatedINtB2_10PunctuatedNtNtB4_3pat8FieldPatNtNtB4_5token5CommaE10push_valueB4_, symObjAddr: 0x4E90, symBinAddr: 0x3D12C, symSize: 0x1A4 }
  - { offset: 0xB65A5, size: 0x8, addend: 0x0, symName: __RNvMNtCs5AlOhPCr03V_3syn10punctuatedINtB2_10PunctuatedNtNtB4_4data5FieldNtNtB4_5token5CommaE10push_valueB4_, symObjAddr: 0x51D8, symBinAddr: 0x3D2D0, symSize: 0x1AC }
  - { offset: 0xB6613, size: 0x8, addend: 0x0, symName: __RNvMNtCs5AlOhPCr03V_3syn10punctuatedINtB2_10PunctuatedNtNtB4_4data7VariantNtNtB4_5token5CommaE10push_valueB4_, symObjAddr: 0x5384, symBinAddr: 0x3D47C, symSize: 0x1AC }
  - { offset: 0xB6681, size: 0x8, addend: 0x0, symName: __RNvMNtCs5AlOhPCr03V_3syn10punctuatedINtB2_10PunctuatedNtNtB4_4expr10FieldValueNtNtB4_5token5CommaE10push_valueB4_, symObjAddr: 0x5530, symBinAddr: 0x3D628, symSize: 0x1AC }
  - { offset: 0xB66EF, size: 0x8, addend: 0x0, symName: __RNvMNtCs5AlOhPCr03V_3syn10punctuatedINtB2_10PunctuatedNtNtB4_4expr21GenericMethodArgumentNtNtB4_5token5CommaE10push_valueB4_, symObjAddr: 0x56DC, symBinAddr: 0x3D7D4, symSize: 0x1AC }
  - { offset: 0xB675D, size: 0x8, addend: 0x0, symName: __RNvMNtCs5AlOhPCr03V_3syn10punctuatedINtB2_10PunctuatedNtNtB4_4expr4ExprNtNtB4_5token5CommaE10push_valueB4_, symObjAddr: 0x5888, symBinAddr: 0x3D980, symSize: 0x1AC }
  - { offset: 0xB67BE, size: 0x8, addend: 0x0, symName: __RNvMNtCs5AlOhPCr03V_3syn10punctuatedINtB2_10PunctuatedNtNtB4_4item5FnArgNtNtB4_5token5CommaE10push_valueB4_, symObjAddr: 0x5A34, symBinAddr: 0x3DB2C, symSize: 0x1A4 }
  - { offset: 0xB682C, size: 0x8, addend: 0x0, symName: __RNvMNtCs5AlOhPCr03V_3syn10punctuatedINtB2_10PunctuatedNtNtB4_4item7UseTreeNtNtB4_5token5CommaE10push_valueB4_, symObjAddr: 0x5BD8, symBinAddr: 0x3DCD0, symSize: 0x1A4 }
  - { offset: 0xB688D, size: 0x8, addend: 0x0, symName: __RNvMNtCs5AlOhPCr03V_3syn10punctuatedINtB2_10PunctuatedNtNtB4_4path11PathSegmentNtNtB4_5token6Colon2E10push_valueB4_, symObjAddr: 0x5D7C, symBinAddr: 0x3DE74, symSize: 0x1A4 }
  - { offset: 0xB68FB, size: 0x8, addend: 0x0, symName: __RNvMNtCs5AlOhPCr03V_3syn10punctuatedINtB2_10PunctuatedNtNtB4_4path15GenericArgumentNtNtB4_5token5CommaE10push_valueB4_, symObjAddr: 0x5F20, symBinAddr: 0x3E018, symSize: 0x1AC }
  - { offset: 0xB6969, size: 0x8, addend: 0x0, symName: __RNvMNtCs5AlOhPCr03V_3syn10punctuatedINtB2_10PunctuatedNtNtB4_8generics11LifetimeDefNtNtB4_5token5CommaE10push_valueB4_, symObjAddr: 0x60CC, symBinAddr: 0x3E1C4, symSize: 0x1A4 }
  - { offset: 0xB69CA, size: 0x8, addend: 0x0, symName: __RNvMNtCs5AlOhPCr03V_3syn10punctuatedINtB2_10PunctuatedNtNtB4_8generics12GenericParamNtNtB4_5token5CommaE10push_valueB4_, symObjAddr: 0x6270, symBinAddr: 0x3E368, symSize: 0x1AC }
  - { offset: 0xB6A38, size: 0x8, addend: 0x0, symName: __RNvMNtCs5AlOhPCr03V_3syn10punctuatedINtB2_10PunctuatedNtNtB4_8generics14TypeParamBoundNtNtB4_5token3AddE10push_valueB4_, symObjAddr: 0x641C, symBinAddr: 0x3E514, symSize: 0x1AC }
  - { offset: 0xB6AA6, size: 0x8, addend: 0x0, symName: __RNvMNtCs5AlOhPCr03V_3syn10punctuatedINtB2_10PunctuatedNtNtB4_8generics14WherePredicateNtNtB4_5token5CommaE10push_valueB4_, symObjAddr: 0x65C8, symBinAddr: 0x3E6C0, symSize: 0x1AC }
  - { offset: 0xB6B14, size: 0x8, addend: 0x0, symName: __RNvMNtCs5AlOhPCr03V_3syn10punctuatedINtB2_10PunctuatedNtNtB4_8lifetime8LifetimeNtNtB4_5token3AddE10push_valueB4_, symObjAddr: 0x6774, symBinAddr: 0x3E86C, symSize: 0x19C }
  - { offset: 0xB6BCB, size: 0x8, addend: 0x0, symName: __RNvMNtCs5AlOhPCr03V_3syn10punctuatedINtB2_10PunctuatedNtNtB4_2ty4TypeNtNtB4_5token5CommaE10push_punctB4_, symObjAddr: 0x6910, symBinAddr: 0x3EA08, symSize: 0x1F8 }
  - { offset: 0xB6C74, size: 0x8, addend: 0x0, symName: __RNvMNtCs5AlOhPCr03V_3syn10punctuatedINtB2_10PunctuatedNtNtB4_2ty9BareFnArgNtNtB4_5token5CommaE10push_punctB4_, symObjAddr: 0x6B08, symBinAddr: 0x3EC00, symSize: 0x1F8 }
  - { offset: 0xB6D1D, size: 0x8, addend: 0x0, symName: __RNvMNtCs5AlOhPCr03V_3syn10punctuatedINtB2_10PunctuatedNtNtB4_3pat3PatNtNtB4_5token2OrE10push_punctB4_, symObjAddr: 0x6D00, symBinAddr: 0x3EDF8, symSize: 0x1F8 }
  - { offset: 0xB6D9B, size: 0x8, addend: 0x0, symName: __RNvMNtCs5AlOhPCr03V_3syn10punctuatedINtB2_10PunctuatedNtNtB4_3pat3PatNtNtB4_5token5CommaE10push_punctB4_, symObjAddr: 0x6EF8, symBinAddr: 0x3EFF0, symSize: 0x1F8 }
  - { offset: 0xB6E44, size: 0x8, addend: 0x0, symName: __RNvMNtCs5AlOhPCr03V_3syn10punctuatedINtB2_10PunctuatedNtNtB4_3pat8FieldPatNtNtB4_5token5CommaE10push_punctB4_, symObjAddr: 0x70F0, symBinAddr: 0x3F1E8, symSize: 0x1F8 }
  - { offset: 0xB6EED, size: 0x8, addend: 0x0, symName: __RNvMNtCs5AlOhPCr03V_3syn10punctuatedINtB2_10PunctuatedNtNtB4_4data5FieldNtNtB4_5token5CommaE10push_punctB4_, symObjAddr: 0x74E0, symBinAddr: 0x3F3E0, symSize: 0x1F8 }
  - { offset: 0xB6F96, size: 0x8, addend: 0x0, symName: __RNvMNtCs5AlOhPCr03V_3syn10punctuatedINtB2_10PunctuatedNtNtB4_4data7VariantNtNtB4_5token5CommaE10push_punctB4_, symObjAddr: 0x76D8, symBinAddr: 0x3F5D8, symSize: 0x1F8 }
  - { offset: 0xB703F, size: 0x8, addend: 0x0, symName: __RNvMNtCs5AlOhPCr03V_3syn10punctuatedINtB2_10PunctuatedNtNtB4_4expr10FieldValueNtNtB4_5token5CommaE10push_punctB4_, symObjAddr: 0x78D0, symBinAddr: 0x3F7D0, symSize: 0x1F8 }
  - { offset: 0xB70E8, size: 0x8, addend: 0x0, symName: __RNvMNtCs5AlOhPCr03V_3syn10punctuatedINtB2_10PunctuatedNtNtB4_4expr21GenericMethodArgumentNtNtB4_5token5CommaE10push_punctB4_, symObjAddr: 0x7AC8, symBinAddr: 0x3F9C8, symSize: 0x1F8 }
  - { offset: 0xB7191, size: 0x8, addend: 0x0, symName: __RNvMNtCs5AlOhPCr03V_3syn10punctuatedINtB2_10PunctuatedNtNtB4_4expr4ExprNtNtB4_5token5CommaE10push_punctB4_, symObjAddr: 0x7CC0, symBinAddr: 0x3FBC0, symSize: 0x1F8 }
  - { offset: 0xB723A, size: 0x8, addend: 0x0, symName: __RNvMNtCs5AlOhPCr03V_3syn10punctuatedINtB2_10PunctuatedNtNtB4_4item5FnArgNtNtB4_5token5CommaE10push_punctB4_, symObjAddr: 0x7EB8, symBinAddr: 0x3FDB8, symSize: 0x1F8 }
  - { offset: 0xB72E3, size: 0x8, addend: 0x0, symName: __RNvMNtCs5AlOhPCr03V_3syn10punctuatedINtB2_10PunctuatedNtNtB4_4item7UseTreeNtNtB4_5token5CommaE10push_punctB4_, symObjAddr: 0x80B0, symBinAddr: 0x3FFB0, symSize: 0x1F8 }
  - { offset: 0xB738C, size: 0x8, addend: 0x0, symName: __RNvMNtCs5AlOhPCr03V_3syn10punctuatedINtB2_10PunctuatedNtNtB4_4path11PathSegmentNtNtB4_5token6Colon2E10push_punctB4_, symObjAddr: 0x82A8, symBinAddr: 0x401A8, symSize: 0x1F8 }
  - { offset: 0xB7435, size: 0x8, addend: 0x0, symName: __RNvMNtCs5AlOhPCr03V_3syn10punctuatedINtB2_10PunctuatedNtNtB4_4path15GenericArgumentNtNtB4_5token5CommaE10push_punctB4_, symObjAddr: 0x84A0, symBinAddr: 0x403A0, symSize: 0x1F8 }
  - { offset: 0xB74DE, size: 0x8, addend: 0x0, symName: __RNvMNtCs5AlOhPCr03V_3syn10punctuatedINtB2_10PunctuatedNtNtB4_8generics11LifetimeDefNtNtB4_5token5CommaE10push_punctB4_, symObjAddr: 0x8698, symBinAddr: 0x40598, symSize: 0x1F8 }
  - { offset: 0xB7587, size: 0x8, addend: 0x0, symName: __RNvMNtCs5AlOhPCr03V_3syn10punctuatedINtB2_10PunctuatedNtNtB4_8generics12GenericParamNtNtB4_5token5CommaE10push_punctB4_, symObjAddr: 0x8890, symBinAddr: 0x40790, symSize: 0x1FC }
  - { offset: 0xB7630, size: 0x8, addend: 0x0, symName: __RNvMNtCs5AlOhPCr03V_3syn10punctuatedINtB2_10PunctuatedNtNtB4_8generics14TypeParamBoundNtNtB4_5token3AddE10push_punctB4_, symObjAddr: 0x8A8C, symBinAddr: 0x4098C, symSize: 0x1F8 }
  - { offset: 0xB76D9, size: 0x8, addend: 0x0, symName: __RNvMNtCs5AlOhPCr03V_3syn10punctuatedINtB2_10PunctuatedNtNtB4_8generics14WherePredicateNtNtB4_5token5CommaE10push_punctB4_, symObjAddr: 0x8C84, symBinAddr: 0x40B84, symSize: 0x1FC }
  - { offset: 0xB7782, size: 0x8, addend: 0x0, symName: __RNvMNtCs5AlOhPCr03V_3syn10punctuatedINtB2_10PunctuatedNtNtB4_8lifetime8LifetimeNtNtB4_5token3AddE10push_punctB4_, symObjAddr: 0x8E80, symBinAddr: 0x40D80, symSize: 0x1E8 }
  - { offset: 0xB77FE, size: 0x8, addend: 0x0, symName: __RNvMNtCs5AlOhPCr03V_3syn10punctuatedINtB2_10PunctuatedNtNtB4_4item5FnArgNtNtB4_5token5CommaE3popB4_, symObjAddr: 0x9068, symBinAddr: 0x40F68, symSize: 0x90 }
  - { offset: 0xB7832, size: 0x8, addend: 0x0, symName: __RNvMNtCs5AlOhPCr03V_3syn10punctuatedINtB2_10PunctuatedNtNtB4_4expr4ExprNtNtB4_5token5CommaE14trailing_punctB4_, symObjAddr: 0x922C, symBinAddr: 0x4112C, symSize: 0x80 }
  - { offset: 0xB7866, size: 0x8, addend: 0x0, symName: __RNvMNtCs5AlOhPCr03V_3syn10punctuatedINtB2_10PunctuatedNtNtB4_4item5FnArgNtNtB4_5token5CommaE14trailing_punctB4_, symObjAddr: 0x92AC, symBinAddr: 0x411AC, symSize: 0x80 }
  - { offset: 0xB789A, size: 0x8, addend: 0x0, symName: __RNvMNtCs5AlOhPCr03V_3syn10punctuatedINtB2_10PunctuatedNtNtB4_4path11PathSegmentNtNtB4_5token6Colon2E14trailing_punctB4_, symObjAddr: 0x932C, symBinAddr: 0x4122C, symSize: 0x80 }
  - { offset: 0xB78CE, size: 0x8, addend: 0x0, symName: __RNvMNtCs5AlOhPCr03V_3syn10punctuatedINtB2_10PunctuatedNtNtB4_8generics14TypeParamBoundNtNtB4_5token3AddE14trailing_punctB4_, symObjAddr: 0x93AC, symBinAddr: 0x412AC, symSize: 0x80 }
  - { offset: 0xB7902, size: 0x8, addend: 0x0, symName: __RNvMNtCs5AlOhPCr03V_3syn10punctuatedINtB2_10PunctuatedNtNtB4_2ty4TypeNtNtB4_5token5CommaE17empty_or_trailingB4_, symObjAddr: 0x942C, symBinAddr: 0x4132C, symSize: 0x34 }
  - { offset: 0xB7936, size: 0x8, addend: 0x0, symName: __RNvMNtCs5AlOhPCr03V_3syn10punctuatedINtB2_10PunctuatedNtNtB4_2ty9BareFnArgNtNtB4_5token5CommaE17empty_or_trailingB4_, symObjAddr: 0x9460, symBinAddr: 0x41360, symSize: 0x34 }
  - { offset: 0xB796A, size: 0x8, addend: 0x0, symName: __RNvMNtCs5AlOhPCr03V_3syn10punctuatedINtB2_10PunctuatedNtNtB4_3pat3PatNtNtB4_5token2OrE17empty_or_trailingB4_, symObjAddr: 0x9494, symBinAddr: 0x41394, symSize: 0x34 }
  - { offset: 0xB799E, size: 0x8, addend: 0x0, symName: __RNvMNtCs5AlOhPCr03V_3syn10punctuatedINtB2_10PunctuatedNtNtB4_3pat3PatNtNtB4_5token5CommaE17empty_or_trailingB4_, symObjAddr: 0x94C8, symBinAddr: 0x413C8, symSize: 0x34 }
  - { offset: 0xB79D2, size: 0x8, addend: 0x0, symName: __RNvMNtCs5AlOhPCr03V_3syn10punctuatedINtB2_10PunctuatedNtNtB4_3pat8FieldPatNtNtB4_5token5CommaE17empty_or_trailingB4_, symObjAddr: 0x94FC, symBinAddr: 0x413FC, symSize: 0x34 }
  - { offset: 0xB7A06, size: 0x8, addend: 0x0, symName: __RNvMNtCs5AlOhPCr03V_3syn10punctuatedINtB2_10PunctuatedNtNtB4_4data5FieldNtNtB4_5token5CommaE17empty_or_trailingB4_, symObjAddr: 0x9564, symBinAddr: 0x41430, symSize: 0x34 }
  - { offset: 0xB7A3A, size: 0x8, addend: 0x0, symName: __RNvMNtCs5AlOhPCr03V_3syn10punctuatedINtB2_10PunctuatedNtNtB4_4data7VariantNtNtB4_5token5CommaE17empty_or_trailingB4_, symObjAddr: 0x9598, symBinAddr: 0x41464, symSize: 0x34 }
  - { offset: 0xB7A6E, size: 0x8, addend: 0x0, symName: __RNvMNtCs5AlOhPCr03V_3syn10punctuatedINtB2_10PunctuatedNtNtB4_4expr10FieldValueNtNtB4_5token5CommaE17empty_or_trailingB4_, symObjAddr: 0x95CC, symBinAddr: 0x41498, symSize: 0x34 }
  - { offset: 0xB7AA2, size: 0x8, addend: 0x0, symName: __RNvMNtCs5AlOhPCr03V_3syn10punctuatedINtB2_10PunctuatedNtNtB4_4expr21GenericMethodArgumentNtNtB4_5token5CommaE17empty_or_trailingB4_, symObjAddr: 0x9600, symBinAddr: 0x414CC, symSize: 0x34 }
  - { offset: 0xB7AD6, size: 0x8, addend: 0x0, symName: __RNvMNtCs5AlOhPCr03V_3syn10punctuatedINtB2_10PunctuatedNtNtB4_4expr4ExprNtNtB4_5token5CommaE17empty_or_trailingB4_, symObjAddr: 0x9634, symBinAddr: 0x41500, symSize: 0x34 }
  - { offset: 0xB7B0A, size: 0x8, addend: 0x0, symName: __RNvMNtCs5AlOhPCr03V_3syn10punctuatedINtB2_10PunctuatedNtNtB4_4item5FnArgNtNtB4_5token5CommaE17empty_or_trailingB4_, symObjAddr: 0x9668, symBinAddr: 0x41534, symSize: 0x34 }
  - { offset: 0xB7B3E, size: 0x8, addend: 0x0, symName: __RNvMNtCs5AlOhPCr03V_3syn10punctuatedINtB2_10PunctuatedNtNtB4_4item7UseTreeNtNtB4_5token5CommaE17empty_or_trailingB4_, symObjAddr: 0x969C, symBinAddr: 0x41568, symSize: 0x34 }
  - { offset: 0xB7B72, size: 0x8, addend: 0x0, symName: __RNvMNtCs5AlOhPCr03V_3syn10punctuatedINtB2_10PunctuatedNtNtB4_4path11PathSegmentNtNtB4_5token6Colon2E17empty_or_trailingB4_, symObjAddr: 0x96D0, symBinAddr: 0x4159C, symSize: 0x34 }
  - { offset: 0xB7BA6, size: 0x8, addend: 0x0, symName: __RNvMNtCs5AlOhPCr03V_3syn10punctuatedINtB2_10PunctuatedNtNtB4_4path15GenericArgumentNtNtB4_5token5CommaE17empty_or_trailingB4_, symObjAddr: 0x9704, symBinAddr: 0x415D0, symSize: 0x34 }
  - { offset: 0xB7BDA, size: 0x8, addend: 0x0, symName: __RNvMNtCs5AlOhPCr03V_3syn10punctuatedINtB2_10PunctuatedNtNtB4_8generics11LifetimeDefNtNtB4_5token5CommaE17empty_or_trailingB4_, symObjAddr: 0x9738, symBinAddr: 0x41604, symSize: 0x34 }
  - { offset: 0xB7C0E, size: 0x8, addend: 0x0, symName: __RNvMNtCs5AlOhPCr03V_3syn10punctuatedINtB2_10PunctuatedNtNtB4_8generics12GenericParamNtNtB4_5token5CommaE17empty_or_trailingB4_, symObjAddr: 0x976C, symBinAddr: 0x41638, symSize: 0x34 }
  - { offset: 0xB7C42, size: 0x8, addend: 0x0, symName: __RNvMNtCs5AlOhPCr03V_3syn10punctuatedINtB2_10PunctuatedNtNtB4_8generics14TypeParamBoundNtNtB4_5token3AddE17empty_or_trailingB4_, symObjAddr: 0x97A0, symBinAddr: 0x4166C, symSize: 0x34 }
  - { offset: 0xB7C76, size: 0x8, addend: 0x0, symName: __RNvMNtCs5AlOhPCr03V_3syn10punctuatedINtB2_10PunctuatedNtNtB4_8generics14WherePredicateNtNtB4_5token5CommaE17empty_or_trailingB4_, symObjAddr: 0x97D4, symBinAddr: 0x416A0, symSize: 0x34 }
  - { offset: 0xB7CAA, size: 0x8, addend: 0x0, symName: __RNvMNtCs5AlOhPCr03V_3syn10punctuatedINtB2_10PunctuatedNtNtB4_8lifetime8LifetimeNtNtB4_5token3AddE17empty_or_trailingB4_, symObjAddr: 0x9808, symBinAddr: 0x416D4, symSize: 0x34 }
  - { offset: 0xB7CDE, size: 0x8, addend: 0x0, symName: __RNvMNtCs5AlOhPCr03V_3syn10punctuatedINtB2_10PunctuatedNtNtB4_4expr10FieldValueNtNtB4_5token5CommaE4pushB4_, symObjAddr: 0x983C, symBinAddr: 0x41708, symSize: 0x124 }
  - { offset: 0xB7D21, size: 0x8, addend: 0x0, symName: __RNvMNtCs5AlOhPCr03V_3syn10punctuatedINtB2_10PunctuatedNtNtB4_4path11PathSegmentNtNtB4_5token6Colon2E4pushB4_, symObjAddr: 0x9960, symBinAddr: 0x4182C, symSize: 0x10C }
  - { offset: 0xB7D64, size: 0x8, addend: 0x0, symName: __RNvMNtCs5AlOhPCr03V_3syn10punctuatedINtB2_10PunctuatedNtNtB4_4path11PathSegmentNtNtB4_5token6Colon2E6insertB4_, symObjAddr: 0x9A6C, symBinAddr: 0x41938, symSize: 0x1D8 }
  - { offset: 0xB7DB5, size: 0x8, addend: 0x0, symName: __RNvMNtCs5AlOhPCr03V_3syn10punctuatedINtB2_10PunctuatedNtNtB4_8generics14TypeParamBoundNtNtB4_5token3AddE5clearB4_, symObjAddr: 0x9C44, symBinAddr: 0x41B10, symSize: 0x7C }
  - { offset: 0xB7E5D, size: 0x8, addend: 0x0, symName: __RNvMNtCs5AlOhPCr03V_3syn10punctuatedINtB2_10PunctuatedNtNtB4_2ty4TypeNtNtB4_5token5CommaE21parse_terminated_withB4_, symObjAddr: 0x9CC0, symBinAddr: 0x41B8C, symSize: 0x378 }
  - { offset: 0xB7F7A, size: 0x8, addend: 0x0, symName: __RNvMNtCs5AlOhPCr03V_3syn10punctuatedINtB2_10PunctuatedNtNtB4_4data5FieldNtNtB4_5token5CommaE21parse_terminated_withB4_, symObjAddr: 0xA3AC, symBinAddr: 0x41F04, symSize: 0x374 }
  - { offset: 0xB8097, size: 0x8, addend: 0x0, symName: __RNvMNtCs5AlOhPCr03V_3syn10punctuatedINtB2_10PunctuatedNtNtB4_4data7VariantNtNtB4_5token5CommaE21parse_terminated_withB4_, symObjAddr: 0xA720, symBinAddr: 0x42278, symSize: 0x35C }
  - { offset: 0xB81B4, size: 0x8, addend: 0x0, symName: __RNvMNtCs5AlOhPCr03V_3syn10punctuatedINtB2_10PunctuatedNtNtB4_4expr4ExprNtNtB4_5token5CommaE21parse_terminated_withB4_, symObjAddr: 0xAA7C, symBinAddr: 0x425D4, symSize: 0x378 }
  - { offset: 0xB82D1, size: 0x8, addend: 0x0, symName: __RNvMNtCs5AlOhPCr03V_3syn10punctuatedINtB2_10PunctuatedNtNtB4_4item7UseTreeNtNtB4_5token5CommaE21parse_terminated_withB4_, symObjAddr: 0xADF4, symBinAddr: 0x4294C, symSize: 0x368 }
  - { offset: 0xB8465, size: 0x8, addend: 0x0, symName: __RNvMsJ_NtCs5AlOhPCr03V_3syn10punctuatedINtB5_4PairRNtNtB7_4item5FnArgRNtNtB7_5token5CommaE5valueB7_, symObjAddr: 0x12288, symBinAddr: 0x45FC8, symSize: 0x74 }
  - { offset: 0xB84D2, size: 0x8, addend: 0x0, symName: __RNvMsJ_NtCs5AlOhPCr03V_3syn10punctuatedINtB5_4PairRNtNtB7_4path11PathSegmentRNtNtB7_5token6Colon2E5valueB7_, symObjAddr: 0x122FC, symBinAddr: 0x4603C, symSize: 0x74 }
  - { offset: 0xB853F, size: 0x8, addend: 0x0, symName: __RNvMsJ_NtCs5AlOhPCr03V_3syn10punctuatedINtB5_4PairRNtNtB7_4path15GenericArgumentRNtNtB7_5token5CommaE5valueB7_, symObjAddr: 0x12370, symBinAddr: 0x460B0, symSize: 0x74 }
  - { offset: 0xB85AC, size: 0x8, addend: 0x0, symName: __RNvMsJ_NtCs5AlOhPCr03V_3syn10punctuatedINtB5_4PairRNtNtB7_8generics12GenericParamRNtNtB7_5token5CommaE5valueB7_, symObjAddr: 0x123E4, symBinAddr: 0x46124, symSize: 0x74 }
  - { offset: 0xB860C, size: 0x8, addend: 0x0, symName: __RNvMsJ_NtCs5AlOhPCr03V_3syn10punctuatedINtB5_4PairRNtNtB7_4item5FnArgRNtNtB7_5token5CommaE5punctB7_, symObjAddr: 0x12458, symBinAddr: 0x46198, symSize: 0x78 }
  - { offset: 0xB866C, size: 0x8, addend: 0x0, symName: __RNvMsJ_NtCs5AlOhPCr03V_3syn10punctuatedINtB5_4PairRNtNtB7_4path11PathSegmentRNtNtB7_5token6Colon2E5punctB7_, symObjAddr: 0x124D0, symBinAddr: 0x46210, symSize: 0x78 }
  - { offset: 0xB86BF, size: 0x8, addend: 0x0, symName: __RNvMsJ_NtCs5AlOhPCr03V_3syn10punctuatedINtB5_4PairRNtNtB7_4path15GenericArgumentRNtNtB7_5token5CommaE5punctB7_, symObjAddr: 0x12548, symBinAddr: 0x46288, symSize: 0x78 }
  - { offset: 0xB8712, size: 0x8, addend: 0x0, symName: __RNvMsJ_NtCs5AlOhPCr03V_3syn10punctuatedINtB5_4PairRNtNtB7_8generics12GenericParamRNtNtB7_5token5CommaE5punctB7_, symObjAddr: 0x125C0, symBinAddr: 0x46300, symSize: 0x78 }
  - { offset: 0xB8790, size: 0x8, addend: 0x0, symName: __RNvMsJ_NtCs5AlOhPCr03V_3syn10punctuatedINtB5_4PairQNtNtB7_4path11PathSegmentQNtNtB7_5token6Colon2E10into_tupleB7_, symObjAddr: 0x12638, symBinAddr: 0x46378, symSize: 0x9C }
  - { offset: 0xB9FA7, size: 0x8, addend: 0x0, symName: __RNvXss_NtCse1nGBsou5OW_5alloc6stringNtB5_6StringNtNtNtCsfvfooZQ3Axs_4core3ops5deref5Deref5derefCs5AlOhPCr03V_3syn, symObjAddr: 0x14950, symBinAddr: 0x5A258, symSize: 0x24 }
  - { offset: 0xBA020, size: 0x8, addend: 0x0, symName: __RNvXs1J_NtCse1nGBsou5OW_5alloc6stringReNtB6_12SpecToString14spec_to_stringCs5AlOhPCr03V_3syn, symObjAddr: 0x686C, symBinAddr: 0x4D650, symSize: 0x5C }
  - { offset: 0xBA151, size: 0x8, addend: 0x0, symName: __RNvXs1j_NtCse1nGBsou5OW_5alloc6stringNtB6_13FromUtf8ErrorNtNtCsfvfooZQ3Axs_4core3fmt5Debug3fmtCs5AlOhPCr03V_3syn, symObjAddr: 0x6924, symBinAddr: 0x4D6AC, symSize: 0x88 }
  - { offset: 0xBA1CE, size: 0x8, addend: 0x0, symName: __RNvXs1q_NtCse1nGBsou5OW_5alloc6stringNtB6_6StringINtNtCsfvfooZQ3Axs_4core3cmp9PartialEqReE2eqCs5AlOhPCr03V_3syn, symObjAddr: 0x69AC, symBinAddr: 0x4D734, symSize: 0xC8 }
  - { offset: 0xBA410, size: 0x8, addend: 0x0, symName: __RNvXsE_NtCse1nGBsou5OW_5alloc6stringNtB5_6StringNtB5_12SpecToString14spec_to_stringCs5AlOhPCr03V_3syn, symObjAddr: 0x6AA0, symBinAddr: 0x4D828, symSize: 0x24 }
  - { offset: 0xBA462, size: 0x8, addend: 0x0, symName: __RNvXsI_NtCse1nGBsou5OW_5alloc6stringNtB5_6StringINtNtCsfvfooZQ3Axs_4core7convert5AsRefShE6as_refCs5AlOhPCr03V_3syn, symObjAddr: 0x6AC4, symBinAddr: 0x4D84C, symSize: 0x24 }
  - { offset: 0xBA4B4, size: 0x8, addend: 0x0, symName: __RNvXsW_NtCse1nGBsou5OW_5alloc6stringNtB5_6StringNtNtCsfvfooZQ3Axs_4core3fmt5Write10write_charCs5AlOhPCr03V_3syn, symObjAddr: 0x6AE8, symBinAddr: 0x4D870, symSize: 0x30 }
  - { offset: 0xBA4F1, size: 0x8, addend: 0x0, symName: __RNvXsW_NtCse1nGBsou5OW_5alloc6stringNtB5_6StringNtNtCsfvfooZQ3Axs_4core3fmt5Write9write_strCs5AlOhPCr03V_3syn, symObjAddr: 0x6B18, symBinAddr: 0x4D8A0, symSize: 0x38 }
  - { offset: 0xBA534, size: 0x8, addend: 0x0, symName: __RNvXsm_NtCse1nGBsou5OW_5alloc6stringNtB5_6StringNtNtCsfvfooZQ3Axs_4core3fmt5Debug3fmtCs5AlOhPCr03V_3syn, symObjAddr: 0x6B50, symBinAddr: 0x4D8D8, symSize: 0x80 }
  - { offset: 0xBA699, size: 0x8, addend: 0x0, symName: __RNvXsp_NtCse1nGBsou5OW_5alloc6stringNtB5_6StringINtNtNtCsfvfooZQ3Axs_4core3ops5arith9AddAssignReE10add_assignCs5AlOhPCr03V_3syn, symObjAddr: 0xF654, symBinAddr: 0x55F34, symSize: 0x30 }
  - { offset: 0xBA6D8, size: 0x8, addend: 0x0, symName: __RNvXsw_NtCse1nGBsou5OW_5alloc6stringNtB5_6StringNtB5_8ToString9to_stringCs5AlOhPCr03V_3syn, symObjAddr: 0x14974, symBinAddr: 0x5A27C, symSize: 0x24 }
  - { offset: 0xBA70F, size: 0x8, addend: 0x0, symName: __RNvXsw_NtCse1nGBsou5OW_5alloc6stringReNtB5_8ToString9to_stringCs5AlOhPCr03V_3syn, symObjAddr: 0x14998, symBinAddr: 0x5A2A0, symSize: 0x24 }
  - { offset: 0xBA80A, size: 0x8, addend: 0x0, symName: __RNvNtCse1nGBsou5OW_5alloc3fmt6formatCs5AlOhPCr03V_3syn, symObjAddr: 0x6748, symBinAddr: 0x4D52C, symSize: 0xD4 }
  - { offset: 0xBDA4D, size: 0x8, addend: 0x0, symName: __RINvNtCsfvfooZQ3Axs_4core3cmp3minjECs5AlOhPCr03V_3syn, symObjAddr: 0x564C, symBinAddr: 0x4C78C, symSize: 0x24 }
  - { offset: 0xBDB10, size: 0x8, addend: 0x0, symName: __RNvXs5_NtCsfvfooZQ3Axs_4core3cmpNtB5_8OrderingNtB5_9PartialEq2eqCs5AlOhPCr03V_3syn, symObjAddr: 0x6A74, symBinAddr: 0x4D7FC, symSize: 0x2C }
  - { offset: 0xBDB53, size: 0x8, addend: 0x0, symName: __RNvYjNtNtCsfvfooZQ3Axs_4core3cmp3Ord3minCs5AlOhPCr03V_3syn, symObjAddr: 0x14A60, symBinAddr: 0x5A338, symSize: 0x80 }
  - { offset: 0xC3FC3, size: 0x8, addend: 0x0, symName: __RNvXso_NtCsfvfooZQ3Axs_4core6resultINtB5_6ResultANtCs3cP53eQoTwO_11proc_macro24Spanj1_NtNtCs5AlOhPCr03V_3syn5error5ErrorENtNtNtB7_3ops9try_trait3Try6branchB1q_, symObjAddr: 0x6BD0, symBinAddr: 0x4D958, symSize: 0x8C }
  - { offset: 0xC4040, size: 0x8, addend: 0x0, symName: __RNvXso_NtCsfvfooZQ3Axs_4core6resultINtB5_6ResultANtCs3cP53eQoTwO_11proc_macro24Spanj2_NtNtCs5AlOhPCr03V_3syn5error5ErrorENtNtNtB7_3ops9try_trait3Try6branchB1q_, symObjAddr: 0x6C5C, symBinAddr: 0x4D9E4, symSize: 0x8C }
  - { offset: 0xC40BD, size: 0x8, addend: 0x0, symName: __RNvXso_NtCsfvfooZQ3Axs_4core6resultINtB5_6ResultANtCs3cP53eQoTwO_11proc_macro24Spanj3_NtNtCs5AlOhPCr03V_3syn5error5ErrorENtNtNtB7_3ops9try_trait3Try6branchB1q_, symObjAddr: 0x6CE8, symBinAddr: 0x4DA70, symSize: 0x9C }
  - { offset: 0xC413A, size: 0x8, addend: 0x0, symName: __RNvXso_NtCsfvfooZQ3Axs_4core6resultINtB5_6ResultINtNtB7_6option6OptionINtNtCse1nGBsou5OW_5alloc5boxed3BoxNtNtCs5AlOhPCr03V_3syn4expr4ExprEENtNtB1J_5error5ErrorENtNtNtB7_3ops9try_trait3Try6branchB1J_, symObjAddr: 0x6D84, symBinAddr: 0x4DB0C, symSize: 0x88 }
  - { offset: 0xC41B8, size: 0x8, addend: 0x0, symName: __RNvXso_NtCsfvfooZQ3Axs_4core6resultINtB5_6ResultINtNtB7_6option6OptionNtCs3cP53eQoTwO_11proc_macro25IdentENtNtCs5AlOhPCr03V_3syn5error5ErrorENtNtNtB7_3ops9try_trait3Try6branchB1K_, symObjAddr: 0x6E0C, symBinAddr: 0x4DB94, symSize: 0x94 }
  - { offset: 0xC4235, size: 0x8, addend: 0x0, symName: __RNvXso_NtCsfvfooZQ3Axs_4core6resultINtB5_6ResultINtNtB7_6option6OptionNtNtCs5AlOhPCr03V_3syn2ty10TypeBareFnENtNtB1a_5error5ErrorENtNtNtB7_3ops9try_trait3Try6branchB1a_, symObjAddr: 0x6EA0, symBinAddr: 0x4DC28, symSize: 0xB4 }
  - { offset: 0xC42B3, size: 0x8, addend: 0x0, symName: __RNvXso_NtCsfvfooZQ3Axs_4core6resultINtB5_6ResultINtNtB7_6option6OptionNtNtCs5AlOhPCr03V_3syn2ty3AbiENtNtB1a_5error5ErrorENtNtNtB7_3ops9try_trait3Try6branchB1a_, symObjAddr: 0x6F54, symBinAddr: 0x4DCDC, symSize: 0x94 }
  - { offset: 0xC4330, size: 0x8, addend: 0x0, symName: __RNvXso_NtCsfvfooZQ3Axs_4core6resultINtB5_6ResultINtNtB7_6option6OptionNtNtCs5AlOhPCr03V_3syn2ty9BareFnArgENtNtB1a_5error5ErrorENtNtNtB7_3ops9try_trait3Try6branchB1a_, symObjAddr: 0x6FE8, symBinAddr: 0x4DD70, symSize: 0xB8 }
  - { offset: 0xC43AE, size: 0x8, addend: 0x0, symName: __RNvXso_NtCsfvfooZQ3Axs_4core6resultINtB5_6ResultINtNtB7_6option6OptionNtNtCs5AlOhPCr03V_3syn3lit6LitStrENtNtB1a_5error5ErrorENtNtNtB7_3ops9try_trait3Try6branchB1a_, symObjAddr: 0x70A0, symBinAddr: 0x4DE28, symSize: 0x88 }
  - { offset: 0xC442C, size: 0x8, addend: 0x0, symName: __RNvXso_NtCsfvfooZQ3Axs_4core6resultINtB5_6ResultINtNtB7_6option6OptionNtNtCs5AlOhPCr03V_3syn3lit8LitFloatENtNtB1a_5error5ErrorENtNtNtB7_3ops9try_trait3Try6branchB1a_, symObjAddr: 0x7128, symBinAddr: 0x4DEB0, symSize: 0x88 }
  - { offset: 0xC44AA, size: 0x8, addend: 0x0, symName: __RNvXso_NtCsfvfooZQ3Axs_4core6resultINtB5_6ResultINtNtB7_6option6OptionNtNtCs5AlOhPCr03V_3syn4expr5LabelENtNtB1a_5error5ErrorENtNtNtB7_3ops9try_trait3Try6branchB1a_, symObjAddr: 0x71B0, symBinAddr: 0x4DF38, symSize: 0xB0 }
  - { offset: 0xC4527, size: 0x8, addend: 0x0, symName: __RNvXso_NtCsfvfooZQ3Axs_4core6resultINtB5_6ResultINtNtB7_6option6OptionNtNtCs5AlOhPCr03V_3syn4item8ItemImplENtNtB1a_5error5ErrorENtNtNtB7_3ops9try_trait3Try6branchB1a_, symObjAddr: 0x7260, symBinAddr: 0x4DFE8, symSize: 0xC4 }
  - { offset: 0xC45A5, size: 0x8, addend: 0x0, symName: __RNvXso_NtCsfvfooZQ3Axs_4core6resultINtB5_6ResultINtNtB7_6option6OptionNtNtCs5AlOhPCr03V_3syn5token2EqENtNtB1a_5error5ErrorENtNtNtB7_3ops9try_trait3Try6branchB1a_, symObjAddr: 0x7324, symBinAddr: 0x4E0AC, symSize: 0x8C }
  - { offset: 0xC4622, size: 0x8, addend: 0x0, symName: __RNvXso_NtCsfvfooZQ3Axs_4core6resultINtB5_6ResultINtNtB7_6option6OptionNtNtCs5AlOhPCr03V_3syn5token2OrENtNtB1a_5error5ErrorENtNtNtB7_3ops9try_trait3Try6branchB1a_, symObjAddr: 0x73B0, symBinAddr: 0x4E138, symSize: 0x8C }
  - { offset: 0xC469F, size: 0x8, addend: 0x0, symName: __RNvXso_NtCsfvfooZQ3Axs_4core6resultINtB5_6ResultINtNtB7_6option6OptionNtNtCs5AlOhPCr03V_3syn5token3AddENtNtB1a_5error5ErrorENtNtNtB7_3ops9try_trait3Try6branchB1a_, symObjAddr: 0x743C, symBinAddr: 0x4E1C4, symSize: 0x8C }
  - { offset: 0xC471C, size: 0x8, addend: 0x0, symName: __RNvXso_NtCsfvfooZQ3Axs_4core6resultINtB5_6ResultINtNtB7_6option6OptionNtNtCs5AlOhPCr03V_3syn5token3BoxENtNtB1a_5error5ErrorENtNtNtB7_3ops9try_trait3Try6branchB1a_, symObjAddr: 0x74C8, symBinAddr: 0x4E250, symSize: 0x94 }
  - { offset: 0xC479A, size: 0x8, addend: 0x0, symName: __RNvXso_NtCsfvfooZQ3Axs_4core6resultINtB5_6ResultINtNtB7_6option6OptionNtNtCs5AlOhPCr03V_3syn5token3DynENtNtB1a_5error5ErrorENtNtNtB7_3ops9try_trait3Try6branchB1a_, symObjAddr: 0x755C, symBinAddr: 0x4E2E4, symSize: 0x94 }
  - { offset: 0xC4818, size: 0x8, addend: 0x0, symName: __RNvXso_NtCsfvfooZQ3Axs_4core6resultINtB5_6ResultINtNtB7_6option6OptionNtNtCs5AlOhPCr03V_3syn5token3MutENtNtB1a_5error5ErrorENtNtNtB7_3ops9try_trait3Try6branchB1a_, symObjAddr: 0x75F0, symBinAddr: 0x4E378, symSize: 0x94 }
  - { offset: 0xC4896, size: 0x8, addend: 0x0, symName: __RNvXso_NtCsfvfooZQ3Axs_4core6resultINtB5_6ResultINtNtB7_6option6OptionNtNtCs5AlOhPCr03V_3syn5token3RefENtNtB1a_5error5ErrorENtNtNtB7_3ops9try_trait3Try6branchB1a_, symObjAddr: 0x7684, symBinAddr: 0x4E40C, symSize: 0x94 }
  - { offset: 0xC4914, size: 0x8, addend: 0x0, symName: __RNvXso_NtCsfvfooZQ3Axs_4core6resultINtB5_6ResultINtNtB7_6option6OptionNtNtCs5AlOhPCr03V_3syn5token3SubENtNtB1a_5error5ErrorENtNtNtB7_3ops9try_trait3Try6branchB1a_, symObjAddr: 0x7718, symBinAddr: 0x4E4A0, symSize: 0x8C }
  - { offset: 0xC4991, size: 0x8, addend: 0x0, symName: __RNvXso_NtCsfvfooZQ3Axs_4core6resultINtB5_6ResultINtNtB7_6option6OptionNtNtCs5AlOhPCr03V_3syn5token4AutoENtNtB1a_5error5ErrorENtNtNtB7_3ops9try_trait3Try6branchB1a_, symObjAddr: 0x77A4, symBinAddr: 0x4E52C, symSize: 0x94 }
  - { offset: 0xC4A0F, size: 0x8, addend: 0x0, symName: __RNvXso_NtCsfvfooZQ3Axs_4core6resultINtB5_6ResultINtNtB7_6option6OptionNtNtCs5AlOhPCr03V_3syn5token4Dot3ENtNtB1a_5error5ErrorENtNtNtB7_3ops9try_trait3Try6branchB1a_, symObjAddr: 0x7838, symBinAddr: 0x4E5C0, symSize: 0x8C }
  - { offset: 0xC4A8C, size: 0x8, addend: 0x0, symName: __RNvXso_NtCsfvfooZQ3Axs_4core6resultINtB5_6ResultINtNtB7_6option6OptionNtNtCs5AlOhPCr03V_3syn5token4MoveENtNtB1a_5error5ErrorENtNtNtB7_3ops9try_trait3Try6branchB1a_, symObjAddr: 0x78C4, symBinAddr: 0x4E64C, symSize: 0x94 }
  - { offset: 0xC4B0A, size: 0x8, addend: 0x0, symName: __RNvXso_NtCsfvfooZQ3Axs_4core6resultINtB5_6ResultINtNtB7_6option6OptionNtNtCs5AlOhPCr03V_3syn5token4SemiENtNtB1a_5error5ErrorENtNtNtB7_3ops9try_trait3Try6branchB1a_, symObjAddr: 0x7958, symBinAddr: 0x4E6E0, symSize: 0x8C }
  - { offset: 0xC4B87, size: 0x8, addend: 0x0, symName: __RNvXso_NtCsfvfooZQ3Axs_4core6resultINtB5_6ResultINtNtB7_6option6OptionNtNtCs5AlOhPCr03V_3syn5token4StarENtNtB1a_5error5ErrorENtNtNtB7_3ops9try_trait3Try6branchB1a_, symObjAddr: 0x79E4, symBinAddr: 0x4E76C, symSize: 0x8C }
  - { offset: 0xC4C04, size: 0x8, addend: 0x0, symName: __RNvXso_NtCsfvfooZQ3Axs_4core6resultINtB5_6ResultINtNtB7_6option6OptionNtNtCs5AlOhPCr03V_3syn5token5AsyncENtNtB1a_5error5ErrorENtNtNtB7_3ops9try_trait3Try6branchB1a_, symObjAddr: 0x7A70, symBinAddr: 0x4E7F8, symSize: 0x94 }
  - { offset: 0xC4C82, size: 0x8, addend: 0x0, symName: __RNvXso_NtCsfvfooZQ3Axs_4core6resultINtB5_6ResultINtNtB7_6option6OptionNtNtCs5AlOhPCr03V_3syn5token5AwaitENtNtB1a_5error5ErrorENtNtNtB7_3ops9try_trait3Try6branchB1a_, symObjAddr: 0x7B04, symBinAddr: 0x4E88C, symSize: 0x94 }
  - { offset: 0xC4D00, size: 0x8, addend: 0x0, symName: __RNvXso_NtCsfvfooZQ3Axs_4core6resultINtB5_6ResultINtNtB7_6option6OptionNtNtCs5AlOhPCr03V_3syn5token5ColonENtNtB1a_5error5ErrorENtNtNtB7_3ops9try_trait3Try6branchB1a_, symObjAddr: 0x7B98, symBinAddr: 0x4E920, symSize: 0x8C }
  - { offset: 0xC4D7D, size: 0x8, addend: 0x0, symName: __RNvXso_NtCsfvfooZQ3Axs_4core6resultINtB5_6ResultINtNtB7_6option6OptionNtNtCs5AlOhPCr03V_3syn5token5CommaENtNtB1a_5error5ErrorENtNtNtB7_3ops9try_trait3Try6branchB1a_, symObjAddr: 0x7C24, symBinAddr: 0x4E9AC, symSize: 0x8C }
  - { offset: 0xC4DFA, size: 0x8, addend: 0x0, symName: __RNvXso_NtCsfvfooZQ3Axs_4core6resultINtB5_6ResultINtNtB7_6option6OptionNtNtCs5AlOhPCr03V_3syn5token5ConstENtNtB1a_5error5ErrorENtNtNtB7_3ops9try_trait3Try6branchB1a_, symObjAddr: 0x7CB0, symBinAddr: 0x4EA38, symSize: 0x94 }
  - { offset: 0xC4E78, size: 0x8, addend: 0x0, symName: __RNvXso_NtCsfvfooZQ3Axs_4core6resultINtB5_6ResultINtNtB7_6option6OptionNtNtCs5AlOhPCr03V_3syn5token6Colon2ENtNtB1a_5error5ErrorENtNtNtB7_3ops9try_trait3Try6branchB1a_, symObjAddr: 0x7D44, symBinAddr: 0x4EACC, symSize: 0x9C }
  - { offset: 0xC4EF5, size: 0x8, addend: 0x0, symName: __RNvXso_NtCsfvfooZQ3Axs_4core6resultINtB5_6ResultINtNtB7_6option6OptionNtNtCs5AlOhPCr03V_3syn5token6StaticENtNtB1a_5error5ErrorENtNtNtB7_3ops9try_trait3Try6branchB1a_, symObjAddr: 0x7DE0, symBinAddr: 0x4EB68, symSize: 0x94 }
  - { offset: 0xC4F73, size: 0x8, addend: 0x0, symName: __RNvXso_NtCsfvfooZQ3Axs_4core6resultINtB5_6ResultINtNtB7_6option6OptionNtNtCs5AlOhPCr03V_3syn5token6UnsafeENtNtB1a_5error5ErrorENtNtNtB7_3ops9try_trait3Try6branchB1a_, symObjAddr: 0x7E74, symBinAddr: 0x4EBFC, symSize: 0x94 }
  - { offset: 0xC4FF1, size: 0x8, addend: 0x0, symName: __RNvXso_NtCsfvfooZQ3Axs_4core6resultINtB5_6ResultINtNtB7_6option6OptionNtNtCs5AlOhPCr03V_3syn5token7DefaultENtNtB1a_5error5ErrorENtNtNtB7_3ops9try_trait3Try6branchB1a_, symObjAddr: 0x7F08, symBinAddr: 0x4EC90, symSize: 0x94 }
  - { offset: 0xC506F, size: 0x8, addend: 0x0, symName: __RNvXso_NtCsfvfooZQ3Axs_4core6resultINtB5_6ResultINtNtB7_6option6OptionNtNtCs5AlOhPCr03V_3syn5token8QuestionENtNtB1a_5error5ErrorENtNtNtB7_3ops9try_trait3Try6branchB1a_, symObjAddr: 0x7F9C, symBinAddr: 0x4ED24, symSize: 0x8C }
  - { offset: 0xC50EC, size: 0x8, addend: 0x0, symName: __RNvXso_NtCsfvfooZQ3Axs_4core6resultINtB5_6ResultINtNtB7_6option6OptionNtNtCs5AlOhPCr03V_3syn5token9SelfValueENtNtB1a_5error5ErrorENtNtNtB7_3ops9try_trait3Try6branchB1a_, symObjAddr: 0x8028, symBinAddr: 0x4EDB0, symSize: 0x94 }
  - { offset: 0xC516A, size: 0x8, addend: 0x0, symName: __RNvXso_NtCsfvfooZQ3Axs_4core6resultINtB5_6ResultINtNtB7_6option6OptionNtNtCs5AlOhPCr03V_3syn8generics11WhereClauseENtNtB1a_5error5ErrorENtNtNtB7_3ops9try_trait3Try6branchB1a_, symObjAddr: 0x80BC, symBinAddr: 0x4EE44, symSize: 0xB0 }
  - { offset: 0xC51E7, size: 0x8, addend: 0x0, symName: __RNvXso_NtCsfvfooZQ3Axs_4core6resultINtB5_6ResultINtNtB7_6option6OptionNtNtCs5AlOhPCr03V_3syn8generics14BoundLifetimesENtNtB1a_5error5ErrorENtNtNtB7_3ops9try_trait3Try6branchB1a_, symObjAddr: 0x816C, symBinAddr: 0x4EEF4, symSize: 0xB0 }
  - { offset: 0xC5264, size: 0x8, addend: 0x0, symName: __RNvXso_NtCsfvfooZQ3Axs_4core6resultINtB5_6ResultINtNtB7_6option6OptionNtNtCs5AlOhPCr03V_3syn8lifetime8LifetimeENtNtB1a_5error5ErrorENtNtNtB7_3ops9try_trait3Try6branchB1a_, symObjAddr: 0x821C, symBinAddr: 0x4EFA4, symSize: 0x94 }
  - { offset: 0xC52E1, size: 0x8, addend: 0x0, symName: __RNvXso_NtCsfvfooZQ3Axs_4core6resultINtB5_6ResultINtNtCs5AlOhPCr03V_3syn10punctuated10PunctuatedNtNtBP_2ty4TypeNtNtBP_5token5CommaENtNtBP_5error5ErrorENtNtNtB7_3ops9try_trait3Try6branchBP_, symObjAddr: 0x82B0, symBinAddr: 0x4F038, symSize: 0xA0 }
  - { offset: 0xC535E, size: 0x8, addend: 0x0, symName: __RNvXso_NtCsfvfooZQ3Axs_4core6resultINtB5_6ResultINtNtCs5AlOhPCr03V_3syn10punctuated10PunctuatedNtNtBP_4data5FieldNtNtBP_5token5CommaENtNtBP_5error5ErrorENtNtNtB7_3ops9try_trait3Try6branchBP_, symObjAddr: 0x83F0, symBinAddr: 0x4F0D8, symSize: 0xA0 }
  - { offset: 0xC53DB, size: 0x8, addend: 0x0, symName: __RNvXso_NtCsfvfooZQ3Axs_4core6resultINtB5_6ResultINtNtCs5AlOhPCr03V_3syn10punctuated10PunctuatedNtNtBP_4data7VariantNtNtBP_5token5CommaENtNtBP_5error5ErrorENtNtNtB7_3ops9try_trait3Try6branchBP_, symObjAddr: 0x8490, symBinAddr: 0x4F178, symSize: 0xA0 }
  - { offset: 0xC5458, size: 0x8, addend: 0x0, symName: __RNvXso_NtCsfvfooZQ3Axs_4core6resultINtB5_6ResultINtNtCs5AlOhPCr03V_3syn10punctuated10PunctuatedNtNtBP_4expr4ExprNtNtBP_5token5CommaENtNtBP_5error5ErrorENtNtNtB7_3ops9try_trait3Try6branchBP_, symObjAddr: 0x8530, symBinAddr: 0x4F218, symSize: 0xA0 }
  - { offset: 0xC54D5, size: 0x8, addend: 0x0, symName: __RNvXso_NtCsfvfooZQ3Axs_4core6resultINtB5_6ResultINtNtCs5AlOhPCr03V_3syn10punctuated10PunctuatedNtNtBP_4item5FnArgNtNtBP_5token5CommaENtNtBP_5error5ErrorENtNtNtB7_3ops9try_trait3Try6branchBP_, symObjAddr: 0x85D0, symBinAddr: 0x4F2B8, symSize: 0xA0 }
  - { offset: 0xC5552, size: 0x8, addend: 0x0, symName: __RNvXso_NtCsfvfooZQ3Axs_4core6resultINtB5_6ResultINtNtCs5AlOhPCr03V_3syn10punctuated10PunctuatedNtNtBP_4item7UseTreeNtNtBP_5token5CommaENtNtBP_5error5ErrorENtNtNtB7_3ops9try_trait3Try6branchBP_, symObjAddr: 0x8670, symBinAddr: 0x4F358, symSize: 0xA0 }
  - { offset: 0xC55CF, size: 0x8, addend: 0x0, symName: __RNvXso_NtCsfvfooZQ3Axs_4core6resultINtB5_6ResultINtNtCs5AlOhPCr03V_3syn10punctuated10PunctuatedNtNtBP_8generics14TypeParamBoundNtNtBP_5token3AddENtNtBP_5error5ErrorENtNtNtB7_3ops9try_trait3Try6branchBP_, symObjAddr: 0x8710, symBinAddr: 0x4F3F8, symSize: 0xA0 }
  - { offset: 0xC564C, size: 0x8, addend: 0x0, symName: __RNvXso_NtCsfvfooZQ3Axs_4core6resultINtB5_6ResultINtNtCse1nGBsou5OW_5alloc3vec3VecNtNtCs5AlOhPCr03V_3syn4attr9AttributeENtNtB1l_5error5ErrorENtNtNtB7_3ops9try_trait3Try6branchB1l_, symObjAddr: 0x87B0, symBinAddr: 0x4F498, symSize: 0x94 }
  - { offset: 0xC56C9, size: 0x8, addend: 0x0, symName: __RNvXso_NtCsfvfooZQ3Axs_4core6resultINtB5_6ResultINtNtCse1nGBsou5OW_5alloc3vec3VecNtNtCs5AlOhPCr03V_3syn4stmt4StmtENtNtB1l_5error5ErrorENtNtNtB7_3ops9try_trait3Try6branchB1l_, symObjAddr: 0x8844, symBinAddr: 0x4F52C, symSize: 0x94 }
  - { offset: 0xC5746, size: 0x8, addend: 0x0, symName: __RNvXso_NtCsfvfooZQ3Axs_4core6resultINtB5_6ResultINtNtCse1nGBsou5OW_5alloc5boxed3BoxNtNtCs5AlOhPCr03V_3syn2ty4TypeENtNtB1n_5error5ErrorENtNtNtB7_3ops9try_trait3Try6branchB1n_, symObjAddr: 0x88D8, symBinAddr: 0x4F5C0, symSize: 0x88 }
  - { offset: 0xC57C4, size: 0x8, addend: 0x0, symName: __RNvXso_NtCsfvfooZQ3Axs_4core6resultINtB5_6ResultINtNtCse1nGBsou5OW_5alloc5boxed3BoxNtNtCs5AlOhPCr03V_3syn3pat3PatENtNtB1n_5error5ErrorENtNtNtB7_3ops9try_trait3Try6branchB1n_, symObjAddr: 0x8960, symBinAddr: 0x4F648, symSize: 0x88 }
  - { offset: 0xC5842, size: 0x8, addend: 0x0, symName: __RNvXso_NtCsfvfooZQ3Axs_4core6resultINtB5_6ResultINtNtCse1nGBsou5OW_5alloc5boxed3BoxNtNtCs5AlOhPCr03V_3syn4expr4ExprENtNtB1n_5error5ErrorENtNtNtB7_3ops9try_trait3Try6branchB1n_, symObjAddr: 0x89E8, symBinAddr: 0x4F6D0, symSize: 0x88 }
  - { offset: 0xC58C0, size: 0x8, addend: 0x0, symName: __RNvXso_NtCsfvfooZQ3Axs_4core6resultINtB5_6ResultNtCs3cP53eQoTwO_11proc_macro211TokenStreamNtBM_8LexErrorENtNtNtB7_3ops9try_trait3Try6branchCs5AlOhPCr03V_3syn, symObjAddr: 0x8A70, symBinAddr: 0x4F758, symSize: 0x84 }
  - { offset: 0xC593D, size: 0x8, addend: 0x0, symName: __RNvXso_NtCsfvfooZQ3Axs_4core6resultINtB5_6ResultNtCs3cP53eQoTwO_11proc_macro211TokenStreamNtNtCs5AlOhPCr03V_3syn5error5ErrorENtNtNtB7_3ops9try_trait3Try6branchB1u_, symObjAddr: 0x8AF4, symBinAddr: 0x4F7DC, symSize: 0xA0 }
  - { offset: 0xC59BA, size: 0x8, addend: 0x0, symName: __RNvXso_NtCsfvfooZQ3Axs_4core6resultINtB5_6ResultNtCs3cP53eQoTwO_11proc_macro24SpanNtNtCs5AlOhPCr03V_3syn5error5ErrorENtNtNtB7_3ops9try_trait3Try6branchB1m_, symObjAddr: 0x8B94, symBinAddr: 0x4F87C, symSize: 0x88 }
  - { offset: 0xC5A38, size: 0x8, addend: 0x0, symName: __RNvXso_NtCsfvfooZQ3Axs_4core6resultINtB5_6ResultNtCs3cP53eQoTwO_11proc_macro25IdentNtNtCs5AlOhPCr03V_3syn5error5ErrorENtNtNtB7_3ops9try_trait3Try6branchB1n_, symObjAddr: 0x8C1C, symBinAddr: 0x4F904, symSize: 0x94 }
  - { offset: 0xC5AB5, size: 0x8, addend: 0x0, symName: __RNvXso_NtCsfvfooZQ3Axs_4core6resultINtB5_6ResultNtCs3cP53eQoTwO_11proc_macro29TokenTreeNtNtCs5AlOhPCr03V_3syn5error5ErrorENtNtNtB7_3ops9try_trait3Try6branchB1r_, symObjAddr: 0x8CB0, symBinAddr: 0x4F998, symSize: 0x9C }
  - { offset: 0xC5B32, size: 0x8, addend: 0x0, symName: __RNvXso_NtCsfvfooZQ3Axs_4core6resultINtB5_6ResultNtNtCs5AlOhPCr03V_3syn2op4UnOpNtNtBO_5error5ErrorENtNtNtB7_3ops9try_trait3Try6branchBO_, symObjAddr: 0x8D4C, symBinAddr: 0x4FA34, symSize: 0x8C }
  - { offset: 0xC5BAF, size: 0x8, addend: 0x0, symName: __RNvXso_NtCsfvfooZQ3Axs_4core6resultINtB5_6ResultNtNtCs5AlOhPCr03V_3syn2op5BinOpNtNtBO_5error5ErrorENtNtNtB7_3ops9try_trait3Try6branchBO_, symObjAddr: 0x8DD8, symBinAddr: 0x4FAC0, symSize: 0x8C }
  - { offset: 0xC5C2C, size: 0x8, addend: 0x0, symName: __RNvXso_NtCsfvfooZQ3Axs_4core6resultINtB5_6ResultNtNtCs5AlOhPCr03V_3syn2ty10ReturnTypeNtNtBO_5error5ErrorENtNtNtB7_3ops9try_trait3Try6branchBO_, symObjAddr: 0x8E64, symBinAddr: 0x4FB4C, symSize: 0x8C }
  - { offset: 0xC5CA9, size: 0x8, addend: 0x0, symName: __RNvXso_NtCsfvfooZQ3Axs_4core6resultINtB5_6ResultNtNtCs5AlOhPCr03V_3syn2ty15TypeTraitObjectNtNtBO_5error5ErrorENtNtNtB7_3ops9try_trait3Try6branchBO_, symObjAddr: 0x8EF0, symBinAddr: 0x4FBD8, symSize: 0xB0 }
  - { offset: 0xC5D26, size: 0x8, addend: 0x0, symName: __RNvXso_NtCsfvfooZQ3Axs_4core6resultINtB5_6ResultNtNtCs5AlOhPCr03V_3syn2ty3AbiNtNtBO_5error5ErrorENtNtNtB7_3ops9try_trait3Try6branchBO_, symObjAddr: 0x8FA0, symBinAddr: 0x4FC88, symSize: 0x94 }
  - { offset: 0xC5DA4, size: 0x8, addend: 0x0, symName: __RNvXso_NtCsfvfooZQ3Axs_4core6resultINtB5_6ResultNtNtCs5AlOhPCr03V_3syn2ty4TypeNtNtBO_5error5ErrorENtNtNtB7_3ops9try_trait3Try6branchBO_, symObjAddr: 0x9034, symBinAddr: 0x4FD1C, symSize: 0xCC }
  - { offset: 0xC5E22, size: 0x8, addend: 0x0, symName: __RNvXso_NtCsfvfooZQ3Axs_4core6resultINtB5_6ResultNtNtCs5AlOhPCr03V_3syn2ty8TypePathNtNtBO_5error5ErrorENtNtNtB7_3ops9try_trait3Try6branchBO_, symObjAddr: 0x9100, symBinAddr: 0x4FDE8, symSize: 0xB0 }
  - { offset: 0xC5E9F, size: 0x8, addend: 0x0, symName: __RNvXso_NtCsfvfooZQ3Axs_4core6resultINtB5_6ResultNtNtCs5AlOhPCr03V_3syn2ty9TypeGroupNtNtBO_5error5ErrorENtNtNtB7_3ops9try_trait3Try6branchBO_, symObjAddr: 0x91B0, symBinAddr: 0x4FE98, symSize: 0x94 }
  - { offset: 0xC5F1D, size: 0x8, addend: 0x0, symName: __RNvXso_NtCsfvfooZQ3Axs_4core6resultINtB5_6ResultNtNtCs5AlOhPCr03V_3syn3lit3LitNtNtBO_5error5ErrorENtNtNtB7_3ops9try_trait3Try6branchBO_, symObjAddr: 0x9244, symBinAddr: 0x4FF2C, symSize: 0x94 }
  - { offset: 0xC5F9A, size: 0x8, addend: 0x0, symName: __RNvXso_NtCsfvfooZQ3Axs_4core6resultINtB5_6ResultNtNtCs5AlOhPCr03V_3syn3lit6LitIntNtNtBO_5error5ErrorENtNtNtB7_3ops9try_trait3Try6branchBO_, symObjAddr: 0x92D8, symBinAddr: 0x4FFC0, symSize: 0x88 }
  - { offset: 0xC6018, size: 0x8, addend: 0x0, symName: __RNvXso_NtCsfvfooZQ3Axs_4core6resultINtB5_6ResultNtNtCs5AlOhPCr03V_3syn3lit6LitStrNtNtBO_5error5ErrorENtNtNtB7_3ops9try_trait3Try6branchBO_, symObjAddr: 0x9360, symBinAddr: 0x50048, symSize: 0x88 }
  - { offset: 0xC6096, size: 0x8, addend: 0x0, symName: __RNvXso_NtCsfvfooZQ3Axs_4core6resultINtB5_6ResultNtNtCs5AlOhPCr03V_3syn3lit8LitFloatNtNtBO_5error5ErrorENtNtNtB7_3ops9try_trait3Try6branchBO_, symObjAddr: 0x93E8, symBinAddr: 0x500D0, symSize: 0x88 }
  - { offset: 0xC6114, size: 0x8, addend: 0x0, symName: __RNvXso_NtCsfvfooZQ3Axs_4core6resultINtB5_6ResultNtNtCs5AlOhPCr03V_3syn3mac5MacroNtNtBO_5error5ErrorENtNtNtB7_3ops9try_trait3Try6branchBO_, symObjAddr: 0x9470, symBinAddr: 0x50158, symSize: 0xB0 }
  - { offset: 0xC6191, size: 0x8, addend: 0x0, symName: __RNvXso_NtCsfvfooZQ3Axs_4core6resultINtB5_6ResultNtNtCs5AlOhPCr03V_3syn3pat14PatTupleStructNtNtBO_5error5ErrorENtNtNtB7_3ops9try_trait3Try6branchBO_, symObjAddr: 0x9520, symBinAddr: 0x50208, symSize: 0xC4 }
  - { offset: 0xC620F, size: 0x8, addend: 0x0, symName: __RNvXso_NtCsfvfooZQ3Axs_4core6resultINtB5_6ResultNtNtCs5AlOhPCr03V_3syn3pat3PatNtNtBO_5error5ErrorENtNtNtB7_3ops9try_trait3Try6branchBO_, symObjAddr: 0x95E4, symBinAddr: 0x502CC, symSize: 0xCC }
  - { offset: 0xC628D, size: 0x8, addend: 0x0, symName: __RNvXso_NtCsfvfooZQ3Axs_4core6resultINtB5_6ResultNtNtCs5AlOhPCr03V_3syn3pat7PatTypeNtNtBO_5error5ErrorENtNtNtB7_3ops9try_trait3Try6branchBO_, symObjAddr: 0x96B0, symBinAddr: 0x50398, symSize: 0xB0 }
  - { offset: 0xC630A, size: 0x8, addend: 0x0, symName: __RNvXso_NtCsfvfooZQ3Axs_4core6resultINtB5_6ResultNtNtCs5AlOhPCr03V_3syn3pat8FieldPatNtNtBO_5error5ErrorENtNtNtB7_3ops9try_trait3Try6branchBO_, symObjAddr: 0x9760, symBinAddr: 0x50448, symSize: 0xB0 }
  - { offset: 0xC6387, size: 0x8, addend: 0x0, symName: __RNvXso_NtCsfvfooZQ3Axs_4core6resultINtB5_6ResultNtNtCs5AlOhPCr03V_3syn3pat8PatTupleNtNtBO_5error5ErrorENtNtNtB7_3ops9try_trait3Try6branchBO_, symObjAddr: 0x9810, symBinAddr: 0x504F8, symSize: 0xB0 }
  - { offset: 0xC6404, size: 0x8, addend: 0x0, symName: __RNvXso_NtCsfvfooZQ3Axs_4core6resultINtB5_6ResultNtNtCs5AlOhPCr03V_3syn4attr9AttributeNtNtBO_5error5ErrorENtNtNtB7_3ops9try_trait3Try6branchBO_, symObjAddr: 0x9A28, symBinAddr: 0x505A8, symSize: 0xB0 }
  - { offset: 0xC6481, size: 0x8, addend: 0x0, symName: __RNvXso_NtCsfvfooZQ3Axs_4core6resultINtB5_6ResultNtNtCs5AlOhPCr03V_3syn4data10VisibilityNtNtBO_5error5ErrorENtNtNtB7_3ops9try_trait3Try6branchBO_, symObjAddr: 0x9AD8, symBinAddr: 0x50658, symSize: 0x94 }
  - { offset: 0xC64FE, size: 0x8, addend: 0x0, symName: __RNvXso_NtCsfvfooZQ3Axs_4core6resultINtB5_6ResultNtNtCs5AlOhPCr03V_3syn4data11FieldsNamedNtNtBO_5error5ErrorENtNtNtB7_3ops9try_trait3Try6branchBO_, symObjAddr: 0x9B6C, symBinAddr: 0x506EC, symSize: 0xB0 }
  - { offset: 0xC657B, size: 0x8, addend: 0x0, symName: __RNvXso_NtCsfvfooZQ3Axs_4core6resultINtB5_6ResultNtNtCs5AlOhPCr03V_3syn4data13FieldsUnnamedNtNtBO_5error5ErrorENtNtNtB7_3ops9try_trait3Try6branchBO_, symObjAddr: 0x9C1C, symBinAddr: 0x5079C, symSize: 0xB0 }
  - { offset: 0xC65F8, size: 0x8, addend: 0x0, symName: __RNvXso_NtCsfvfooZQ3Axs_4core6resultINtB5_6ResultNtNtCs5AlOhPCr03V_3syn4data5FieldNtNtBO_5error5ErrorENtNtNtB7_3ops9try_trait3Try6branchBO_, symObjAddr: 0x9CCC, symBinAddr: 0x5084C, symSize: 0xC4 }
  - { offset: 0xC6676, size: 0x8, addend: 0x0, symName: __RNvXso_NtCsfvfooZQ3Axs_4core6resultINtB5_6ResultNtNtCs5AlOhPCr03V_3syn4data7VariantNtNtBO_5error5ErrorENtNtNtB7_3ops9try_trait3Try6branchBO_, symObjAddr: 0x9D90, symBinAddr: 0x50910, symSize: 0xB4 }
  - { offset: 0xC66F4, size: 0x8, addend: 0x0, symName: __RNvXso_NtCsfvfooZQ3Axs_4core6resultINtB5_6ResultNtNtCs5AlOhPCr03V_3syn4expr10ExprStructNtNtBO_5error5ErrorENtNtNtB7_3ops9try_trait3Try6branchBO_, symObjAddr: 0x9E44, symBinAddr: 0x509C4, symSize: 0xB0 }
  - { offset: 0xC6771, size: 0x8, addend: 0x0, symName: __RNvXso_NtCsfvfooZQ3Axs_4core6resultINtB5_6ResultNtNtCs5AlOhPCr03V_3syn4expr10ExprUnsafeNtNtBO_5error5ErrorENtNtNtB7_3ops9try_trait3Try6branchBO_, symObjAddr: 0x9EF4, symBinAddr: 0x50A74, symSize: 0xB0 }
  - { offset: 0xC67EE, size: 0x8, addend: 0x0, symName: __RNvXso_NtCsfvfooZQ3Axs_4core6resultINtB5_6ResultNtNtCs5AlOhPCr03V_3syn4expr10FieldValueNtNtBO_5error5ErrorENtNtNtB7_3ops9try_trait3Try6branchBO_, symObjAddr: 0x9FA4, symBinAddr: 0x50B24, symSize: 0xB8 }
  - { offset: 0xC686C, size: 0x8, addend: 0x0, symName: __RNvXso_NtCsfvfooZQ3Axs_4core6resultINtB5_6ResultNtNtCs5AlOhPCr03V_3syn4expr11ExprClosureNtNtBO_5error5ErrorENtNtNtB7_3ops9try_trait3Try6branchBO_, symObjAddr: 0xA05C, symBinAddr: 0x50BDC, symSize: 0xB0 }
  - { offset: 0xC68E9, size: 0x8, addend: 0x0, symName: __RNvXso_NtCsfvfooZQ3Axs_4core6resultINtB5_6ResultNtNtCs5AlOhPCr03V_3syn4expr11ExprForLoopNtNtBO_5error5ErrorENtNtNtB7_3ops9try_trait3Try6branchBO_, symObjAddr: 0xA10C, symBinAddr: 0x50C8C, symSize: 0xC4 }
  - { offset: 0xC6967, size: 0x8, addend: 0x0, symName: __RNvXso_NtCsfvfooZQ3Axs_4core6resultINtB5_6ResultNtNtCs5AlOhPCr03V_3syn4expr11RangeLimitsNtNtBO_5error5ErrorENtNtNtB7_3ops9try_trait3Try6branchBO_, symObjAddr: 0xA1D0, symBinAddr: 0x50D50, symSize: 0x8C }
  - { offset: 0xC69E4, size: 0x8, addend: 0x0, symName: __RNvXso_NtCsfvfooZQ3Axs_4core6resultINtB5_6ResultNtNtCs5AlOhPCr03V_3syn4expr12ExprTryBlockNtNtBO_5error5ErrorENtNtNtB7_3ops9try_trait3Try6branchBO_, symObjAddr: 0xA25C, symBinAddr: 0x50DDC, symSize: 0xB0 }
  - { offset: 0xC6A61, size: 0x8, addend: 0x0, symName: __RNvXso_NtCsfvfooZQ3Axs_4core6resultINtB5_6ResultNtNtCs5AlOhPCr03V_3syn4expr15MethodTurbofishNtNtBO_5error5ErrorENtNtNtB7_3ops9try_trait3Try6branchBO_, symObjAddr: 0xA30C, symBinAddr: 0x50E8C, symSize: 0xB0 }
  - { offset: 0xC6ADE, size: 0x8, addend: 0x0, symName: __RNvXso_NtCsfvfooZQ3Axs_4core6resultINtB5_6ResultNtNtCs5AlOhPCr03V_3syn4expr21GenericMethodArgumentNtNtBO_5error5ErrorENtNtNtB7_3ops9try_trait3Try6branchBO_, symObjAddr: 0xA3BC, symBinAddr: 0x50F3C, symSize: 0xCC }
  - { offset: 0xC6B5C, size: 0x8, addend: 0x0, symName: __RNvXso_NtCsfvfooZQ3Axs_4core6resultINtB5_6ResultNtNtCs5AlOhPCr03V_3syn4expr3ArmNtNtBO_5error5ErrorENtNtNtB7_3ops9try_trait3Try6branchBO_, symObjAddr: 0xA488, symBinAddr: 0x51008, symSize: 0xC4 }
  - { offset: 0xC6BDA, size: 0x8, addend: 0x0, symName: __RNvXso_NtCsfvfooZQ3Axs_4core6resultINtB5_6ResultNtNtCs5AlOhPCr03V_3syn4expr4ExprNtNtBO_5error5ErrorENtNtNtB7_3ops9try_trait3Try6branchBO_, symObjAddr: 0xA54C, symBinAddr: 0x510CC, symSize: 0xCC }
  - { offset: 0xC6C58, size: 0x8, addend: 0x0, symName: __RNvXso_NtCsfvfooZQ3Axs_4core6resultINtB5_6ResultNtNtCs5AlOhPCr03V_3syn4expr5IndexNtNtBO_5error5ErrorENtNtNtB7_3ops9try_trait3Try6branchBO_, symObjAddr: 0xA618, symBinAddr: 0x51198, symSize: 0x94 }
  - { offset: 0xC6CD6, size: 0x8, addend: 0x0, symName: __RNvXso_NtCsfvfooZQ3Axs_4core6resultINtB5_6ResultNtNtCs5AlOhPCr03V_3syn4expr5LabelNtNtBO_5error5ErrorENtNtNtB7_3ops9try_trait3Try6branchBO_, symObjAddr: 0xA6AC, symBinAddr: 0x5122C, symSize: 0xB0 }
  - { offset: 0xC6D53, size: 0x8, addend: 0x0, symName: __RNvXso_NtCsfvfooZQ3Axs_4core6resultINtB5_6ResultNtNtCs5AlOhPCr03V_3syn4expr6ExprIfNtNtBO_5error5ErrorENtNtNtB7_3ops9try_trait3Try6branchBO_, symObjAddr: 0xA75C, symBinAddr: 0x512DC, symSize: 0xB0 }
  - { offset: 0xC6DD0, size: 0x8, addend: 0x0, symName: __RNvXso_NtCsfvfooZQ3Axs_4core6resultINtB5_6ResultNtNtCs5AlOhPCr03V_3syn4expr6MemberNtNtBO_5error5ErrorENtNtNtB7_3ops9try_trait3Try6branchBO_, symObjAddr: 0xA80C, symBinAddr: 0x5138C, symSize: 0x94 }
  - { offset: 0xC6E4D, size: 0x8, addend: 0x0, symName: __RNvXso_NtCsfvfooZQ3Axs_4core6resultINtB5_6ResultNtNtCs5AlOhPCr03V_3syn4expr7ExprLitNtNtBO_5error5ErrorENtNtNtB7_3ops9try_trait3Try6branchBO_, symObjAddr: 0xA8A0, symBinAddr: 0x51420, symSize: 0xB0 }
  - { offset: 0xC6ECA, size: 0x8, addend: 0x0, symName: __RNvXso_NtCsfvfooZQ3Axs_4core6resultINtB5_6ResultNtNtCs5AlOhPCr03V_3syn4expr8ExprLoopNtNtBO_5error5ErrorENtNtNtB7_3ops9try_trait3Try6branchBO_, symObjAddr: 0xA950, symBinAddr: 0x514D0, symSize: 0xBC }
  - { offset: 0xC6F47, size: 0x8, addend: 0x0, symName: __RNvXso_NtCsfvfooZQ3Axs_4core6resultINtB5_6ResultNtNtCs5AlOhPCr03V_3syn4expr8ExprPathNtNtBO_5error5ErrorENtNtNtB7_3ops9try_trait3Try6branchBO_, symObjAddr: 0xAA0C, symBinAddr: 0x5158C, symSize: 0xBC }
  - { offset: 0xC6FC4, size: 0x8, addend: 0x0, symName: __RNvXso_NtCsfvfooZQ3Axs_4core6resultINtB5_6ResultNtNtCs5AlOhPCr03V_3syn4expr9ExprBlockNtNtBO_5error5ErrorENtNtNtB7_3ops9try_trait3Try6branchBO_, symObjAddr: 0xAAC8, symBinAddr: 0x51648, symSize: 0xB0 }
  - { offset: 0xC7041, size: 0x8, addend: 0x0, symName: __RNvXso_NtCsfvfooZQ3Axs_4core6resultINtB5_6ResultNtNtCs5AlOhPCr03V_3syn4expr9ExprMatchNtNtBO_5error5ErrorENtNtNtB7_3ops9try_trait3Try6branchBO_, symObjAddr: 0xAB78, symBinAddr: 0x516F8, symSize: 0xB0 }
  - { offset: 0xC70BE, size: 0x8, addend: 0x0, symName: __RNvXso_NtCsfvfooZQ3Axs_4core6resultINtB5_6ResultNtNtCs5AlOhPCr03V_3syn4expr9ExprWhileNtNtBO_5error5ErrorENtNtNtB7_3ops9try_trait3Try6branchBO_, symObjAddr: 0xAC28, symBinAddr: 0x517A8, symSize: 0xB0 }
  - { offset: 0xC713B, size: 0x8, addend: 0x0, symName: __RNvXso_NtCsfvfooZQ3Axs_4core6resultINtB5_6ResultNtNtCs5AlOhPCr03V_3syn4item11ForeignItemNtNtBO_5error5ErrorENtNtNtB7_3ops9try_trait3Try6branchBO_, symObjAddr: 0xAD88, symBinAddr: 0x51858, symSize: 0xC0 }
  - { offset: 0xC71B9, size: 0x8, addend: 0x0, symName: __RNvXso_NtCsfvfooZQ3Axs_4core6resultINtB5_6ResultNtNtCs5AlOhPCr03V_3syn4item14ItemForeignModNtNtBO_5error5ErrorENtNtNtB7_3ops9try_trait3Try6branchBO_, symObjAddr: 0xAE48, symBinAddr: 0x51918, symSize: 0xB0 }
  - { offset: 0xC7236, size: 0x8, addend: 0x0, symName: __RNvXso_NtCsfvfooZQ3Axs_4core6resultINtB5_6ResultNtNtCs5AlOhPCr03V_3syn4item4ItemNtNtBO_5error5ErrorENtNtNtB7_3ops9try_trait3Try6branchBO_, symObjAddr: 0xAEF8, symBinAddr: 0x519C8, symSize: 0xC0 }
  - { offset: 0xC72B4, size: 0x8, addend: 0x0, symName: __RNvXso_NtCsfvfooZQ3Axs_4core6resultINtB5_6ResultNtNtCs5AlOhPCr03V_3syn4item5FnArgNtNtBO_5error5ErrorENtNtNtB7_3ops9try_trait3Try6branchBO_, symObjAddr: 0xAFB8, symBinAddr: 0x51A88, symSize: 0xB0 }
  - { offset: 0xC7331, size: 0x8, addend: 0x0, symName: __RNvXso_NtCsfvfooZQ3Axs_4core6resultINtB5_6ResultNtNtCs5AlOhPCr03V_3syn4item7ItemModNtNtBO_5error5ErrorENtNtNtB7_3ops9try_trait3Try6branchBO_, symObjAddr: 0xB068, symBinAddr: 0x51B38, symSize: 0xBC }
  - { offset: 0xC73AE, size: 0x8, addend: 0x0, symName: __RNvXso_NtCsfvfooZQ3Axs_4core6resultINtB5_6ResultNtNtCs5AlOhPCr03V_3syn4item7UseTreeNtNtBO_5error5ErrorENtNtNtB7_3ops9try_trait3Try6branchBO_, symObjAddr: 0xB124, symBinAddr: 0x51BF4, symSize: 0xAC }
  - { offset: 0xC742B, size: 0x8, addend: 0x0, symName: __RNvXso_NtCsfvfooZQ3Axs_4core6resultINtB5_6ResultNtNtCs5AlOhPCr03V_3syn4item8ImplItemNtNtBO_5error5ErrorENtNtNtB7_3ops9try_trait3Try6branchBO_, symObjAddr: 0xB1D0, symBinAddr: 0x51CA0, symSize: 0xC0 }
  - { offset: 0xC74A9, size: 0x8, addend: 0x0, symName: __RNvXso_NtCsfvfooZQ3Axs_4core6resultINtB5_6ResultNtNtCs5AlOhPCr03V_3syn4item9ItemMacroNtNtBO_5error5ErrorENtNtNtB7_3ops9try_trait3Try6branchBO_, symObjAddr: 0xB290, symBinAddr: 0x51D60, symSize: 0xC4 }
  - { offset: 0xC7527, size: 0x8, addend: 0x0, symName: __RNvXso_NtCsfvfooZQ3Axs_4core6resultINtB5_6ResultNtNtCs5AlOhPCr03V_3syn4item9SignatureNtNtBO_5error5ErrorENtNtNtB7_3ops9try_trait3Try6branchBO_, symObjAddr: 0xB354, symBinAddr: 0x51E24, symSize: 0xB4 }
  - { offset: 0xC75A5, size: 0x8, addend: 0x0, symName: __RNvXso_NtCsfvfooZQ3Axs_4core6resultINtB5_6ResultNtNtCs5AlOhPCr03V_3syn4item9TraitItemNtNtBO_5error5ErrorENtNtNtB7_3ops9try_trait3Try6branchBO_, symObjAddr: 0xB408, symBinAddr: 0x51ED8, symSize: 0xCC }
  - { offset: 0xC7623, size: 0x8, addend: 0x0, symName: __RNvXso_NtCsfvfooZQ3Axs_4core6resultINtB5_6ResultNtNtCs5AlOhPCr03V_3syn4path10ConstraintNtNtBO_5error5ErrorENtNtNtB7_3ops9try_trait3Try6branchBO_, symObjAddr: 0xB4D4, symBinAddr: 0x51FA4, symSize: 0xB0 }
  - { offset: 0xC76A0, size: 0x8, addend: 0x0, symName: __RNvXso_NtCsfvfooZQ3Axs_4core6resultINtB5_6ResultNtNtCs5AlOhPCr03V_3syn4path11PathSegmentNtNtBO_5error5ErrorENtNtNtB7_3ops9try_trait3Try6branchBO_, symObjAddr: 0xB584, symBinAddr: 0x52054, symSize: 0xAC }
  - { offset: 0xC771D, size: 0x8, addend: 0x0, symName: __RNvXso_NtCsfvfooZQ3Axs_4core6resultINtB5_6ResultNtNtCs5AlOhPCr03V_3syn4path15GenericArgumentNtNtBO_5error5ErrorENtNtNtB7_3ops9try_trait3Try6branchBO_, symObjAddr: 0xB630, symBinAddr: 0x52100, symSize: 0xCC }
  - { offset: 0xC779B, size: 0x8, addend: 0x0, symName: __RNvXso_NtCsfvfooZQ3Axs_4core6resultINtB5_6ResultNtNtCs5AlOhPCr03V_3syn4path29ParenthesizedGenericArgumentsNtNtBO_5error5ErrorENtNtNtB7_3ops9try_trait3Try6branchBO_, symObjAddr: 0xB6FC, symBinAddr: 0x521CC, symSize: 0xB0 }
  - { offset: 0xC7818, size: 0x8, addend: 0x0, symName: __RNvXso_NtCsfvfooZQ3Axs_4core6resultINtB5_6ResultNtNtCs5AlOhPCr03V_3syn4path30AngleBracketedGenericArgumentsNtNtBO_5error5ErrorENtNtNtB7_3ops9try_trait3Try6branchBO_, symObjAddr: 0xB7AC, symBinAddr: 0x5227C, symSize: 0xB0 }
  - { offset: 0xC7895, size: 0x8, addend: 0x0, symName: __RNvXso_NtCsfvfooZQ3Axs_4core6resultINtB5_6ResultNtNtCs5AlOhPCr03V_3syn4path4PathNtNtBO_5error5ErrorENtNtNtB7_3ops9try_trait3Try6branchBO_, symObjAddr: 0xB85C, symBinAddr: 0x5232C, symSize: 0xB0 }
  - { offset: 0xC7912, size: 0x8, addend: 0x0, symName: __RNvXso_NtCsfvfooZQ3Axs_4core6resultINtB5_6ResultNtNtCs5AlOhPCr03V_3syn4stmt4StmtNtNtBO_5error5ErrorENtNtNtB7_3ops9try_trait3Try6branchBO_, symObjAddr: 0xB90C, symBinAddr: 0x523DC, symSize: 0xC0 }
  - { offset: 0xC7990, size: 0x8, addend: 0x0, symName: __RNvXso_NtCsfvfooZQ3Axs_4core6resultINtB5_6ResultNtNtCs5AlOhPCr03V_3syn4stmt5BlockNtNtBO_5error5ErrorENtNtNtB7_3ops9try_trait3Try6branchBO_, symObjAddr: 0xB9CC, symBinAddr: 0x5249C, symSize: 0xA0 }
  - { offset: 0xC7A0D, size: 0x8, addend: 0x0, symName: __RNvXso_NtCsfvfooZQ3Axs_4core6resultINtB5_6ResultNtNtCs5AlOhPCr03V_3syn5group5GroupNtNtBO_5error5ErrorENtNtNtB7_3ops9try_trait3Try6branchBO_, symObjAddr: 0xBA6C, symBinAddr: 0x5253C, symSize: 0xB0 }
  - { offset: 0xC7A8A, size: 0x8, addend: 0x0, symName: __RNvXso_NtCsfvfooZQ3Axs_4core6resultINtB5_6ResultNtNtCs5AlOhPCr03V_3syn5token10UnderscoreNtNtBO_5error5ErrorENtNtNtB7_3ops9try_trait3Try6branchBO_, symObjAddr: 0xBB1C, symBinAddr: 0x525EC, symSize: 0x8C }
  - { offset: 0xC7B07, size: 0x8, addend: 0x0, symName: __RNvXso_NtCsfvfooZQ3Axs_4core6resultINtB5_6ResultNtNtCs5AlOhPCr03V_3syn5token2AsNtNtBO_5error5ErrorENtNtNtB7_3ops9try_trait3Try6branchBO_, symObjAddr: 0xBBA8, symBinAddr: 0x52678, symSize: 0x88 }
  - { offset: 0xC7B85, size: 0x8, addend: 0x0, symName: __RNvXso_NtCsfvfooZQ3Axs_4core6resultINtB5_6ResultNtNtCs5AlOhPCr03V_3syn5token2AtNtNtBO_5error5ErrorENtNtNtB7_3ops9try_trait3Try6branchBO_, symObjAddr: 0xBC30, symBinAddr: 0x52700, symSize: 0x8C }
  - { offset: 0xC7C02, size: 0x8, addend: 0x0, symName: __RNvXso_NtCsfvfooZQ3Axs_4core6resultINtB5_6ResultNtNtCs5AlOhPCr03V_3syn5token2EqNtNtBO_5error5ErrorENtNtNtB7_3ops9try_trait3Try6branchBO_, symObjAddr: 0xBCBC, symBinAddr: 0x5278C, symSize: 0x8C }
  - { offset: 0xC7C7F, size: 0x8, addend: 0x0, symName: __RNvXso_NtCsfvfooZQ3Axs_4core6resultINtB5_6ResultNtNtCs5AlOhPCr03V_3syn5token2FnNtNtBO_5error5ErrorENtNtNtB7_3ops9try_trait3Try6branchBO_, symObjAddr: 0xBD48, symBinAddr: 0x52818, symSize: 0x88 }
  - { offset: 0xC7CFD, size: 0x8, addend: 0x0, symName: __RNvXso_NtCsfvfooZQ3Axs_4core6resultINtB5_6ResultNtNtCs5AlOhPCr03V_3syn5token2GtNtNtBO_5error5ErrorENtNtNtB7_3ops9try_trait3Try6branchBO_, symObjAddr: 0xBDD0, symBinAddr: 0x528A0, symSize: 0x8C }
  - { offset: 0xC7D7A, size: 0x8, addend: 0x0, symName: __RNvXso_NtCsfvfooZQ3Axs_4core6resultINtB5_6ResultNtNtCs5AlOhPCr03V_3syn5token2IfNtNtBO_5error5ErrorENtNtNtB7_3ops9try_trait3Try6branchBO_, symObjAddr: 0xBE5C, symBinAddr: 0x5292C, symSize: 0x88 }
  - { offset: 0xC7DF8, size: 0x8, addend: 0x0, symName: __RNvXso_NtCsfvfooZQ3Axs_4core6resultINtB5_6ResultNtNtCs5AlOhPCr03V_3syn5token2InNtNtBO_5error5ErrorENtNtNtB7_3ops9try_trait3Try6branchBO_, symObjAddr: 0xBEE4, symBinAddr: 0x529B4, symSize: 0x88 }
  - { offset: 0xC7E76, size: 0x8, addend: 0x0, symName: __RNvXso_NtCsfvfooZQ3Axs_4core6resultINtB5_6ResultNtNtCs5AlOhPCr03V_3syn5token2LtNtNtBO_5error5ErrorENtNtNtB7_3ops9try_trait3Try6branchBO_, symObjAddr: 0xBF6C, symBinAddr: 0x52A3C, symSize: 0x8C }
  - { offset: 0xC7EF3, size: 0x8, addend: 0x0, symName: __RNvXso_NtCsfvfooZQ3Axs_4core6resultINtB5_6ResultNtNtCs5AlOhPCr03V_3syn5token2OrNtNtBO_5error5ErrorENtNtNtB7_3ops9try_trait3Try6branchBO_, symObjAddr: 0xBFF8, symBinAddr: 0x52AC8, symSize: 0x8C }
  - { offset: 0xC7F70, size: 0x8, addend: 0x0, symName: __RNvXso_NtCsfvfooZQ3Axs_4core6resultINtB5_6ResultNtNtCs5AlOhPCr03V_3syn5token3AddNtNtBO_5error5ErrorENtNtNtB7_3ops9try_trait3Try6branchBO_, symObjAddr: 0xC084, symBinAddr: 0x52B54, symSize: 0x8C }
  - { offset: 0xC7FED, size: 0x8, addend: 0x0, symName: __RNvXso_NtCsfvfooZQ3Axs_4core6resultINtB5_6ResultNtNtCs5AlOhPCr03V_3syn5token3AndNtNtBO_5error5ErrorENtNtNtB7_3ops9try_trait3Try6branchBO_, symObjAddr: 0xC110, symBinAddr: 0x52BE0, symSize: 0x8C }
  - { offset: 0xC806A, size: 0x8, addend: 0x0, symName: __RNvXso_NtCsfvfooZQ3Axs_4core6resultINtB5_6ResultNtNtCs5AlOhPCr03V_3syn5token3BoxNtNtBO_5error5ErrorENtNtNtB7_3ops9try_trait3Try6branchBO_, symObjAddr: 0xC19C, symBinAddr: 0x52C6C, symSize: 0x88 }
  - { offset: 0xC80E8, size: 0x8, addend: 0x0, symName: __RNvXso_NtCsfvfooZQ3Axs_4core6resultINtB5_6ResultNtNtCs5AlOhPCr03V_3syn5token3DotNtNtBO_5error5ErrorENtNtNtB7_3ops9try_trait3Try6branchBO_, symObjAddr: 0xC224, symBinAddr: 0x52CF4, symSize: 0x8C }
  - { offset: 0xC8165, size: 0x8, addend: 0x0, symName: __RNvXso_NtCsfvfooZQ3Axs_4core6resultINtB5_6ResultNtNtCs5AlOhPCr03V_3syn5token3DynNtNtBO_5error5ErrorENtNtNtB7_3ops9try_trait3Try6branchBO_, symObjAddr: 0xC2B0, symBinAddr: 0x52D80, symSize: 0x88 }
  - { offset: 0xC81E3, size: 0x8, addend: 0x0, symName: __RNvXso_NtCsfvfooZQ3Axs_4core6resultINtB5_6ResultNtNtCs5AlOhPCr03V_3syn5token3ForNtNtBO_5error5ErrorENtNtNtB7_3ops9try_trait3Try6branchBO_, symObjAddr: 0xC338, symBinAddr: 0x52E08, symSize: 0x88 }
  - { offset: 0xC8261, size: 0x8, addend: 0x0, symName: __RNvXso_NtCsfvfooZQ3Axs_4core6resultINtB5_6ResultNtNtCs5AlOhPCr03V_3syn5token3LetNtNtBO_5error5ErrorENtNtNtB7_3ops9try_trait3Try6branchBO_, symObjAddr: 0xC3C0, symBinAddr: 0x52E90, symSize: 0x88 }
  - { offset: 0xC82DF, size: 0x8, addend: 0x0, symName: __RNvXso_NtCsfvfooZQ3Axs_4core6resultINtB5_6ResultNtNtCs5AlOhPCr03V_3syn5token3ModNtNtBO_5error5ErrorENtNtNtB7_3ops9try_trait3Try6branchBO_, symObjAddr: 0xC448, symBinAddr: 0x52F18, symSize: 0x88 }
  - { offset: 0xC835D, size: 0x8, addend: 0x0, symName: __RNvXso_NtCsfvfooZQ3Axs_4core6resultINtB5_6ResultNtNtCs5AlOhPCr03V_3syn5token3MutNtNtBO_5error5ErrorENtNtNtB7_3ops9try_trait3Try6branchBO_, symObjAddr: 0xC4D0, symBinAddr: 0x52FA0, symSize: 0x88 }
  - { offset: 0xC83DB, size: 0x8, addend: 0x0, symName: __RNvXso_NtCsfvfooZQ3Axs_4core6resultINtB5_6ResultNtNtCs5AlOhPCr03V_3syn5token3PubNtNtBO_5error5ErrorENtNtNtB7_3ops9try_trait3Try6branchBO_, symObjAddr: 0xC558, symBinAddr: 0x53028, symSize: 0x88 }
  - { offset: 0xC8459, size: 0x8, addend: 0x0, symName: __RNvXso_NtCsfvfooZQ3Axs_4core6resultINtB5_6ResultNtNtCs5AlOhPCr03V_3syn5token3RefNtNtBO_5error5ErrorENtNtNtB7_3ops9try_trait3Try6branchBO_, symObjAddr: 0xC5E0, symBinAddr: 0x530B0, symSize: 0x88 }
  - { offset: 0xC84D7, size: 0x8, addend: 0x0, symName: __RNvXso_NtCsfvfooZQ3Axs_4core6resultINtB5_6ResultNtNtCs5AlOhPCr03V_3syn5token3SubNtNtBO_5error5ErrorENtNtNtB7_3ops9try_trait3Try6branchBO_, symObjAddr: 0xC668, symBinAddr: 0x53138, symSize: 0x8C }
  - { offset: 0xC8554, size: 0x8, addend: 0x0, symName: __RNvXso_NtCsfvfooZQ3Axs_4core6resultINtB5_6ResultNtNtCs5AlOhPCr03V_3syn5token3TryNtNtBO_5error5ErrorENtNtNtB7_3ops9try_trait3Try6branchBO_, symObjAddr: 0xC6F4, symBinAddr: 0x531C4, symSize: 0x88 }
  - { offset: 0xC85D2, size: 0x8, addend: 0x0, symName: __RNvXso_NtCsfvfooZQ3Axs_4core6resultINtB5_6ResultNtNtCs5AlOhPCr03V_3syn5token3UseNtNtBO_5error5ErrorENtNtNtB7_3ops9try_trait3Try6branchBO_, symObjAddr: 0xC77C, symBinAddr: 0x5324C, symSize: 0x88 }
  - { offset: 0xC8650, size: 0x8, addend: 0x0, symName: __RNvXso_NtCsfvfooZQ3Axs_4core6resultINtB5_6ResultNtNtCs5AlOhPCr03V_3syn5token4AutoNtNtBO_5error5ErrorENtNtNtB7_3ops9try_trait3Try6branchBO_, symObjAddr: 0xC804, symBinAddr: 0x532D4, symSize: 0x88 }
  - { offset: 0xC86CE, size: 0x8, addend: 0x0, symName: __RNvXso_NtCsfvfooZQ3Axs_4core6resultINtB5_6ResultNtNtCs5AlOhPCr03V_3syn5token4BangNtNtBO_5error5ErrorENtNtNtB7_3ops9try_trait3Try6branchBO_, symObjAddr: 0xC88C, symBinAddr: 0x5335C, symSize: 0x8C }
  - { offset: 0xC874B, size: 0x8, addend: 0x0, symName: __RNvXso_NtCsfvfooZQ3Axs_4core6resultINtB5_6ResultNtNtCs5AlOhPCr03V_3syn5token4Dot2NtNtBO_5error5ErrorENtNtNtB7_3ops9try_trait3Try6branchBO_, symObjAddr: 0xC918, symBinAddr: 0x533E8, symSize: 0x8C }
  - { offset: 0xC87C8, size: 0x8, addend: 0x0, symName: __RNvXso_NtCsfvfooZQ3Axs_4core6resultINtB5_6ResultNtNtCs5AlOhPCr03V_3syn5token4Dot3NtNtBO_5error5ErrorENtNtNtB7_3ops9try_trait3Try6branchBO_, symObjAddr: 0xC9A4, symBinAddr: 0x53474, symSize: 0x9C }
  - { offset: 0xC8845, size: 0x8, addend: 0x0, symName: __RNvXso_NtCsfvfooZQ3Axs_4core6resultINtB5_6ResultNtNtCs5AlOhPCr03V_3syn5token4ElseNtNtBO_5error5ErrorENtNtNtB7_3ops9try_trait3Try6branchBO_, symObjAddr: 0xCA40, symBinAddr: 0x53510, symSize: 0x88 }
  - { offset: 0xC88C3, size: 0x8, addend: 0x0, symName: __RNvXso_NtCsfvfooZQ3Axs_4core6resultINtB5_6ResultNtNtCs5AlOhPCr03V_3syn5token4EnumNtNtBO_5error5ErrorENtNtNtB7_3ops9try_trait3Try6branchBO_, symObjAddr: 0xCAC8, symBinAddr: 0x53598, symSize: 0x88 }
  - { offset: 0xC8941, size: 0x8, addend: 0x0, symName: __RNvXso_NtCsfvfooZQ3Axs_4core6resultINtB5_6ResultNtNtCs5AlOhPCr03V_3syn5token4ImplNtNtBO_5error5ErrorENtNtNtB7_3ops9try_trait3Try6branchBO_, symObjAddr: 0xCB50, symBinAddr: 0x53620, symSize: 0x88 }
  - { offset: 0xC89BF, size: 0x8, addend: 0x0, symName: __RNvXso_NtCsfvfooZQ3Axs_4core6resultINtB5_6ResultNtNtCs5AlOhPCr03V_3syn5token4LoopNtNtBO_5error5ErrorENtNtNtB7_3ops9try_trait3Try6branchBO_, symObjAddr: 0xCBD8, symBinAddr: 0x536A8, symSize: 0x88 }
  - { offset: 0xC8A3D, size: 0x8, addend: 0x0, symName: __RNvXso_NtCsfvfooZQ3Axs_4core6resultINtB5_6ResultNtNtCs5AlOhPCr03V_3syn5token4MoveNtNtBO_5error5ErrorENtNtNtB7_3ops9try_trait3Try6branchBO_, symObjAddr: 0xCC60, symBinAddr: 0x53730, symSize: 0x88 }
  - { offset: 0xC8ABB, size: 0x8, addend: 0x0, symName: __RNvXso_NtCsfvfooZQ3Axs_4core6resultINtB5_6ResultNtNtCs5AlOhPCr03V_3syn5token4SemiNtNtBO_5error5ErrorENtNtNtB7_3ops9try_trait3Try6branchBO_, symObjAddr: 0xCCE8, symBinAddr: 0x537B8, symSize: 0x8C }
  - { offset: 0xC8B38, size: 0x8, addend: 0x0, symName: __RNvXso_NtCsfvfooZQ3Axs_4core6resultINtB5_6ResultNtNtCs5AlOhPCr03V_3syn5token4StarNtNtBO_5error5ErrorENtNtNtB7_3ops9try_trait3Try6branchBO_, symObjAddr: 0xCD74, symBinAddr: 0x53844, symSize: 0x8C }
  - { offset: 0xC8BB5, size: 0x8, addend: 0x0, symName: __RNvXso_NtCsfvfooZQ3Axs_4core6resultINtB5_6ResultNtNtCs5AlOhPCr03V_3syn5token4TypeNtNtBO_5error5ErrorENtNtNtB7_3ops9try_trait3Try6branchBO_, symObjAddr: 0xCE00, symBinAddr: 0x538D0, symSize: 0x88 }
  - { offset: 0xC8C33, size: 0x8, addend: 0x0, symName: __RNvXso_NtCsfvfooZQ3Axs_4core6resultINtB5_6ResultNtNtCs5AlOhPCr03V_3syn5token5AsyncNtNtBO_5error5ErrorENtNtNtB7_3ops9try_trait3Try6branchBO_, symObjAddr: 0xCE88, symBinAddr: 0x53958, symSize: 0x88 }
  - { offset: 0xC8CB1, size: 0x8, addend: 0x0, symName: __RNvXso_NtCsfvfooZQ3Axs_4core6resultINtB5_6ResultNtNtCs5AlOhPCr03V_3syn5token5AwaitNtNtBO_5error5ErrorENtNtNtB7_3ops9try_trait3Try6branchBO_, symObjAddr: 0xCF10, symBinAddr: 0x539E0, symSize: 0x88 }
  - { offset: 0xC8D2F, size: 0x8, addend: 0x0, symName: __RNvXso_NtCsfvfooZQ3Axs_4core6resultINtB5_6ResultNtNtCs5AlOhPCr03V_3syn5token5BreakNtNtBO_5error5ErrorENtNtNtB7_3ops9try_trait3Try6branchBO_, symObjAddr: 0xCF98, symBinAddr: 0x53A68, symSize: 0x88 }
  - { offset: 0xC8DAD, size: 0x8, addend: 0x0, symName: __RNvXso_NtCsfvfooZQ3Axs_4core6resultINtB5_6ResultNtNtCs5AlOhPCr03V_3syn5token5ColonNtNtBO_5error5ErrorENtNtNtB7_3ops9try_trait3Try6branchBO_, symObjAddr: 0xD020, symBinAddr: 0x53AF0, symSize: 0x8C }
  - { offset: 0xC8E2A, size: 0x8, addend: 0x0, symName: __RNvXso_NtCsfvfooZQ3Axs_4core6resultINtB5_6ResultNtNtCs5AlOhPCr03V_3syn5token5CommaNtNtBO_5error5ErrorENtNtNtB7_3ops9try_trait3Try6branchBO_, symObjAddr: 0xD0AC, symBinAddr: 0x53B7C, symSize: 0x8C }
  - { offset: 0xC8EA7, size: 0x8, addend: 0x0, symName: __RNvXso_NtCsfvfooZQ3Axs_4core6resultINtB5_6ResultNtNtCs5AlOhPCr03V_3syn5token5ConstNtNtBO_5error5ErrorENtNtNtB7_3ops9try_trait3Try6branchBO_, symObjAddr: 0xD138, symBinAddr: 0x53C08, symSize: 0x88 }
  - { offset: 0xC8F25, size: 0x8, addend: 0x0, symName: __RNvXso_NtCsfvfooZQ3Axs_4core6resultINtB5_6ResultNtNtCs5AlOhPCr03V_3syn5token5CrateNtNtBO_5error5ErrorENtNtNtB7_3ops9try_trait3Try6branchBO_, symObjAddr: 0xD1C0, symBinAddr: 0x53C90, symSize: 0x88 }
  - { offset: 0xC8FA3, size: 0x8, addend: 0x0, symName: __RNvXso_NtCsfvfooZQ3Axs_4core6resultINtB5_6ResultNtNtCs5AlOhPCr03V_3syn5token5MacroNtNtBO_5error5ErrorENtNtNtB7_3ops9try_trait3Try6branchBO_, symObjAddr: 0xD248, symBinAddr: 0x53D18, symSize: 0x88 }
  - { offset: 0xC9021, size: 0x8, addend: 0x0, symName: __RNvXso_NtCsfvfooZQ3Axs_4core6resultINtB5_6ResultNtNtCs5AlOhPCr03V_3syn5token5MatchNtNtBO_5error5ErrorENtNtNtB7_3ops9try_trait3Try6branchBO_, symObjAddr: 0xD2D0, symBinAddr: 0x53DA0, symSize: 0x88 }
  - { offset: 0xC909F, size: 0x8, addend: 0x0, symName: __RNvXso_NtCsfvfooZQ3Axs_4core6resultINtB5_6ResultNtNtCs5AlOhPCr03V_3syn5token5PoundNtNtBO_5error5ErrorENtNtNtB7_3ops9try_trait3Try6branchBO_, symObjAddr: 0xD358, symBinAddr: 0x53E28, symSize: 0x8C }
  - { offset: 0xC911C, size: 0x8, addend: 0x0, symName: __RNvXso_NtCsfvfooZQ3Axs_4core6resultINtB5_6ResultNtNtCs5AlOhPCr03V_3syn5token5TildeNtNtBO_5error5ErrorENtNtNtB7_3ops9try_trait3Try6branchBO_, symObjAddr: 0xD3E4, symBinAddr: 0x53EB4, symSize: 0x8C }
  - { offset: 0xC9199, size: 0x8, addend: 0x0, symName: __RNvXso_NtCsfvfooZQ3Axs_4core6resultINtB5_6ResultNtNtCs5AlOhPCr03V_3syn5token5TraitNtNtBO_5error5ErrorENtNtNtB7_3ops9try_trait3Try6branchBO_, symObjAddr: 0xD470, symBinAddr: 0x53F40, symSize: 0x88 }
  - { offset: 0xC9217, size: 0x8, addend: 0x0, symName: __RNvXso_NtCsfvfooZQ3Axs_4core6resultINtB5_6ResultNtNtCs5AlOhPCr03V_3syn5token5UnionNtNtBO_5error5ErrorENtNtNtB7_3ops9try_trait3Try6branchBO_, symObjAddr: 0xD4F8, symBinAddr: 0x53FC8, symSize: 0x88 }
  - { offset: 0xC9295, size: 0x8, addend: 0x0, symName: __RNvXso_NtCsfvfooZQ3Axs_4core6resultINtB5_6ResultNtNtCs5AlOhPCr03V_3syn5token5WhereNtNtBO_5error5ErrorENtNtNtB7_3ops9try_trait3Try6branchBO_, symObjAddr: 0xD580, symBinAddr: 0x54050, symSize: 0x88 }
  - { offset: 0xC9313, size: 0x8, addend: 0x0, symName: __RNvXso_NtCsfvfooZQ3Axs_4core6resultINtB5_6ResultNtNtCs5AlOhPCr03V_3syn5token5WhileNtNtBO_5error5ErrorENtNtNtB7_3ops9try_trait3Try6branchBO_, symObjAddr: 0xD608, symBinAddr: 0x540D8, symSize: 0x88 }
  - { offset: 0xC9391, size: 0x8, addend: 0x0, symName: __RNvXso_NtCsfvfooZQ3Axs_4core6resultINtB5_6ResultNtNtCs5AlOhPCr03V_3syn5token5YieldNtNtBO_5error5ErrorENtNtNtB7_3ops9try_trait3Try6branchBO_, symObjAddr: 0xD690, symBinAddr: 0x54160, symSize: 0x88 }
  - { offset: 0xC940F, size: 0x8, addend: 0x0, symName: __RNvXso_NtCsfvfooZQ3Axs_4core6resultINtB5_6ResultNtNtCs5AlOhPCr03V_3syn5token6Colon2NtNtBO_5error5ErrorENtNtNtB7_3ops9try_trait3Try6branchBO_, symObjAddr: 0xD718, symBinAddr: 0x541E8, symSize: 0x8C }
  - { offset: 0xC948C, size: 0x8, addend: 0x0, symName: __RNvXso_NtCsfvfooZQ3Axs_4core6resultINtB5_6ResultNtNtCs5AlOhPCr03V_3syn5token6ExternNtNtBO_5error5ErrorENtNtNtB7_3ops9try_trait3Try6branchBO_, symObjAddr: 0xD7A4, symBinAddr: 0x54274, symSize: 0x88 }
  - { offset: 0xC950A, size: 0x8, addend: 0x0, symName: __RNvXso_NtCsfvfooZQ3Axs_4core6resultINtB5_6ResultNtNtCs5AlOhPCr03V_3syn5token6RArrowNtNtBO_5error5ErrorENtNtNtB7_3ops9try_trait3Try6branchBO_, symObjAddr: 0xD82C, symBinAddr: 0x542FC, symSize: 0x8C }
  - { offset: 0xC9587, size: 0x8, addend: 0x0, symName: __RNvXso_NtCsfvfooZQ3Axs_4core6resultINtB5_6ResultNtNtCs5AlOhPCr03V_3syn5token6ReturnNtNtBO_5error5ErrorENtNtNtB7_3ops9try_trait3Try6branchBO_, symObjAddr: 0xD8B8, symBinAddr: 0x54388, symSize: 0x88 }
  - { offset: 0xC9605, size: 0x8, addend: 0x0, symName: __RNvXso_NtCsfvfooZQ3Axs_4core6resultINtB5_6ResultNtNtCs5AlOhPCr03V_3syn5token6StaticNtNtBO_5error5ErrorENtNtNtB7_3ops9try_trait3Try6branchBO_, symObjAddr: 0xD940, symBinAddr: 0x54410, symSize: 0x88 }
  - { offset: 0xC9683, size: 0x8, addend: 0x0, symName: __RNvXso_NtCsfvfooZQ3Axs_4core6resultINtB5_6ResultNtNtCs5AlOhPCr03V_3syn5token6StructNtNtBO_5error5ErrorENtNtNtB7_3ops9try_trait3Try6branchBO_, symObjAddr: 0xD9C8, symBinAddr: 0x54498, symSize: 0x88 }
  - { offset: 0xC9701, size: 0x8, addend: 0x0, symName: __RNvXso_NtCsfvfooZQ3Axs_4core6resultINtB5_6ResultNtNtCs5AlOhPCr03V_3syn5token6UnsafeNtNtBO_5error5ErrorENtNtNtB7_3ops9try_trait3Try6branchBO_, symObjAddr: 0xDA50, symBinAddr: 0x54520, symSize: 0x88 }
  - { offset: 0xC977F, size: 0x8, addend: 0x0, symName: __RNvXso_NtCsfvfooZQ3Axs_4core6resultINtB5_6ResultNtNtCs5AlOhPCr03V_3syn5token7DefaultNtNtBO_5error5ErrorENtNtNtB7_3ops9try_trait3Try6branchBO_, symObjAddr: 0xDAD8, symBinAddr: 0x545A8, symSize: 0x88 }
  - { offset: 0xC97FD, size: 0x8, addend: 0x0, symName: __RNvXso_NtCsfvfooZQ3Axs_4core6resultINtB5_6ResultNtNtCs5AlOhPCr03V_3syn5token8ContinueNtNtBO_5error5ErrorENtNtNtB7_3ops9try_trait3Try6branchBO_, symObjAddr: 0xDB60, symBinAddr: 0x54630, symSize: 0x88 }
  - { offset: 0xC987B, size: 0x8, addend: 0x0, symName: __RNvXso_NtCsfvfooZQ3Axs_4core6resultINtB5_6ResultNtNtCs5AlOhPCr03V_3syn5token8FatArrowNtNtBO_5error5ErrorENtNtNtB7_3ops9try_trait3Try6branchBO_, symObjAddr: 0xDBE8, symBinAddr: 0x546B8, symSize: 0x8C }
  - { offset: 0xC98F8, size: 0x8, addend: 0x0, symName: __RNvXso_NtCsfvfooZQ3Axs_4core6resultINtB5_6ResultNtNtCs5AlOhPCr03V_3syn5token8QuestionNtNtBO_5error5ErrorENtNtNtB7_3ops9try_trait3Try6branchBO_, symObjAddr: 0xDC74, symBinAddr: 0x54744, symSize: 0x8C }
  - { offset: 0xC9975, size: 0x8, addend: 0x0, symName: __RNvXso_NtCsfvfooZQ3Axs_4core6resultINtB5_6ResultNtNtCs5AlOhPCr03V_3syn5token9SelfValueNtNtBO_5error5ErrorENtNtNtB7_3ops9try_trait3Try6branchBO_, symObjAddr: 0xDD00, symBinAddr: 0x547D0, symSize: 0x88 }
  - { offset: 0xC99F3, size: 0x8, addend: 0x0, symName: __RNvXso_NtCsfvfooZQ3Axs_4core6resultINtB5_6ResultNtNtCs5AlOhPCr03V_3syn8generics10ConstParamNtNtBO_5error5ErrorENtNtNtB7_3ops9try_trait3Try6branchBO_, symObjAddr: 0xDD88, symBinAddr: 0x54858, symSize: 0xB8 }
  - { offset: 0xC9A71, size: 0x8, addend: 0x0, symName: __RNvXso_NtCsfvfooZQ3Axs_4core6resultINtB5_6ResultNtNtCs5AlOhPCr03V_3syn8generics10TraitBoundNtNtBO_5error5ErrorENtNtNtB7_3ops9try_trait3Try6branchBO_, symObjAddr: 0xDE40, symBinAddr: 0x54910, symSize: 0xB0 }
  - { offset: 0xC9AEE, size: 0x8, addend: 0x0, symName: __RNvXso_NtCsfvfooZQ3Axs_4core6resultINtB5_6ResultNtNtCs5AlOhPCr03V_3syn8generics11LifetimeDefNtNtBO_5error5ErrorENtNtNtB7_3ops9try_trait3Try6branchBO_, symObjAddr: 0xDEF0, symBinAddr: 0x549C0, symSize: 0xB0 }
  - { offset: 0xC9B6B, size: 0x8, addend: 0x0, symName: __RNvXso_NtCsfvfooZQ3Axs_4core6resultINtB5_6ResultNtNtCs5AlOhPCr03V_3syn8generics11WhereClauseNtNtBO_5error5ErrorENtNtNtB7_3ops9try_trait3Try6branchBO_, symObjAddr: 0xDFA0, symBinAddr: 0x54A70, symSize: 0xB0 }
  - { offset: 0xC9BE8, size: 0x8, addend: 0x0, symName: __RNvXso_NtCsfvfooZQ3Axs_4core6resultINtB5_6ResultNtNtCs5AlOhPCr03V_3syn8generics14BoundLifetimesNtNtBO_5error5ErrorENtNtNtB7_3ops9try_trait3Try6branchBO_, symObjAddr: 0xE050, symBinAddr: 0x54B20, symSize: 0xB0 }
  - { offset: 0xC9C65, size: 0x8, addend: 0x0, symName: __RNvXso_NtCsfvfooZQ3Axs_4core6resultINtB5_6ResultNtNtCs5AlOhPCr03V_3syn8generics14TypeParamBoundNtNtBO_5error5ErrorENtNtNtB7_3ops9try_trait3Try6branchBO_, symObjAddr: 0xE100, symBinAddr: 0x54BD0, symSize: 0xB0 }
  - { offset: 0xC9CE2, size: 0x8, addend: 0x0, symName: __RNvXso_NtCsfvfooZQ3Axs_4core6resultINtB5_6ResultNtNtCs5AlOhPCr03V_3syn8generics14WherePredicateNtNtBO_5error5ErrorENtNtNtB7_3ops9try_trait3Try6branchBO_, symObjAddr: 0xE1B0, symBinAddr: 0x54C80, symSize: 0xCC }
  - { offset: 0xC9D60, size: 0x8, addend: 0x0, symName: __RNvXso_NtCsfvfooZQ3Axs_4core6resultINtB5_6ResultNtNtCs5AlOhPCr03V_3syn8generics18TraitBoundModifierNtNtBO_5error5ErrorENtNtNtB7_3ops9try_trait3Try6branchBO_, symObjAddr: 0xE27C, symBinAddr: 0x54D4C, symSize: 0x8C }
  - { offset: 0xC9DDD, size: 0x8, addend: 0x0, symName: __RNvXso_NtCsfvfooZQ3Axs_4core6resultINtB5_6ResultNtNtCs5AlOhPCr03V_3syn8generics8GenericsNtNtBO_5error5ErrorENtNtNtB7_3ops9try_trait3Try6branchBO_, symObjAddr: 0xE308, symBinAddr: 0x54DD8, symSize: 0xB0 }
  - { offset: 0xC9E5A, size: 0x8, addend: 0x0, symName: __RNvXso_NtCsfvfooZQ3Axs_4core6resultINtB5_6ResultNtNtCs5AlOhPCr03V_3syn8generics9TypeParamNtNtBO_5error5ErrorENtNtNtB7_3ops9try_trait3Try6branchBO_, symObjAddr: 0xE3B8, symBinAddr: 0x54E88, symSize: 0xC4 }
  - { offset: 0xC9ED8, size: 0x8, addend: 0x0, symName: __RNvXso_NtCsfvfooZQ3Axs_4core6resultINtB5_6ResultNtNtCs5AlOhPCr03V_3syn8lifetime8LifetimeNtNtBO_5error5ErrorENtNtNtB7_3ops9try_trait3Try6branchBO_, symObjAddr: 0xE47C, symBinAddr: 0x54F4C, symSize: 0x94 }
  - { offset: 0xC9F55, size: 0x8, addend: 0x0, symName: __RNvXso_NtCsfvfooZQ3Axs_4core6resultINtB5_6ResultNtNtNtCs5AlOhPCr03V_3syn4expr7parsing3rawNtNtBQ_5error5ErrorENtNtNtB7_3ops9try_trait3Try6branchBQ_, symObjAddr: 0xE510, symBinAddr: 0x54FE0, symSize: 0x88 }
  - { offset: 0xC9FD3, size: 0x8, addend: 0x0, symName: __RNvXso_NtCsfvfooZQ3Axs_4core6resultINtB5_6ResultNtNtNtCs5AlOhPCr03V_3syn4item7parsing16FlexibleItemTypeNtNtBQ_5error5ErrorENtNtNtB7_3ops9try_trait3Try6branchBQ_, symObjAddr: 0xE598, symBinAddr: 0x55068, symSize: 0xB8 }
  - { offset: 0xCA051, size: 0x8, addend: 0x0, symName: __RNvXso_NtCsfvfooZQ3Axs_4core6resultINtB5_6ResultTINtNtB7_6option6OptionNtNtCs5AlOhPCr03V_3syn4path5QSelfENtB19_4PathENtNtB1b_5error5ErrorENtNtNtB7_3ops9try_trait3Try6branchB1b_, symObjAddr: 0xE650, symBinAddr: 0x55120, symSize: 0xB0 }
  - { offset: 0xCA0CE, size: 0x8, addend: 0x0, symName: __RNvXso_NtCsfvfooZQ3Axs_4core6resultINtB5_6ResultTINtNtB7_6option6OptionNtNtCs5AlOhPCr03V_3syn8generics11WhereClauseENtNtB1b_4data11FieldsNamedENtNtB1b_5error5ErrorENtNtNtB7_3ops9try_trait3Try6branchB1b_, symObjAddr: 0xE700, symBinAddr: 0x551D0, symSize: 0xB0 }
  - { offset: 0xCA14B, size: 0x8, addend: 0x0, symName: __RNvXso_NtCsfvfooZQ3Axs_4core6resultINtB5_6ResultTINtNtB7_6option6OptionNtNtCs5AlOhPCr03V_3syn8generics11WhereClauseENtNtB1b_4data6FieldsIBM_NtNtB1b_5token4SemiEENtNtB1b_5error5ErrorENtNtNtB7_3ops9try_trait3Try6branchB1b_, symObjAddr: 0xE7B0, symBinAddr: 0x55280, symSize: 0xAC }
  - { offset: 0xCA1C8, size: 0x8, addend: 0x0, symName: __RNvXso_NtCsfvfooZQ3Axs_4core6resultINtB5_6ResultTINtNtB7_6option6OptionNtNtCs5AlOhPCr03V_3syn8generics11WhereClauseENtNtB1b_5token5BraceINtNtB1b_10punctuated10PunctuatedNtNtB1b_4data7VariantNtB1S_5CommaEENtNtB1b_5error5ErrorENtNtNtB7_3ops9try_trait3Try6branchB1b_, symObjAddr: 0xE85C, symBinAddr: 0x5532C, symSize: 0xB0 }
  - { offset: 0xCA245, size: 0x8, addend: 0x0, symName: __RNvXso_NtCsfvfooZQ3Axs_4core6resultINtB5_6ResultTINtNtCse1nGBsou5OW_5alloc3vec3VecNtNtCs5AlOhPCr03V_3syn4attr9AttributeENtNtB1m_4data10VisibilityNtNtB1m_5token5TraitNtCs3cP53eQoTwO_11proc_macro25IdentNtNtB1m_8generics8GenericsENtNtB1m_5error5ErrorENtNtNtB7_3ops9try_trait3Try6branchB1m_, symObjAddr: 0xE90C, symBinAddr: 0x553DC, symSize: 0xC4 }
  - { offset: 0xCA2C3, size: 0x8, addend: 0x0, symName: __RNvXso_NtCsfvfooZQ3Axs_4core6resultINtB5_6ResultTNtCs3cP53eQoTwO_11proc_macro211TokenStreamNtNtCs5AlOhPCr03V_3syn6buffer6CursorENtNtB1v_5error5ErrorENtNtNtB7_3ops9try_trait3Try6branchB1v_, symObjAddr: 0xE9D0, symBinAddr: 0x554A0, symSize: 0xB0 }
  - { offset: 0xCA340, size: 0x8, addend: 0x0, symName: __RNvXso_NtCsfvfooZQ3Axs_4core6resultINtB5_6ResultTNtCs3cP53eQoTwO_11proc_macro24SpanNtNtCs5AlOhPCr03V_3syn6buffer6CursorENtNtB1n_5error5ErrorENtNtNtB7_3ops9try_trait3Try6branchB1n_, symObjAddr: 0xEA80, symBinAddr: 0x55550, symSize: 0x94 }
  - { offset: 0xCA3BD, size: 0x8, addend: 0x0, symName: __RNvXso_NtCsfvfooZQ3Axs_4core6resultINtB5_6ResultTNtCs3cP53eQoTwO_11proc_macro25IdentNtNtCs5AlOhPCr03V_3syn6buffer6CursorENtNtB1o_5error5ErrorENtNtNtB7_3ops9try_trait3Try6branchB1o_, symObjAddr: 0xEBC0, symBinAddr: 0x555E4, symSize: 0xB0 }
  - { offset: 0xCA43A, size: 0x8, addend: 0x0, symName: __RNvXso_NtCsfvfooZQ3Axs_4core6resultINtB5_6ResultTNtCs3cP53eQoTwO_11proc_macro25PunctNtNtCs5AlOhPCr03V_3syn6buffer6CursorENtNtB1o_5error5ErrorENtNtNtB7_3ops9try_trait3Try6branchB1o_, symObjAddr: 0xEC70, symBinAddr: 0x55694, symSize: 0x9C }
  - { offset: 0xCA4B7, size: 0x8, addend: 0x0, symName: __RNvXso_NtCsfvfooZQ3Axs_4core6resultINtB5_6ResultTNtCs3cP53eQoTwO_11proc_macro29TokenTreeNtNtCs5AlOhPCr03V_3syn6buffer6CursorENtNtB1s_5error5ErrorENtNtNtB7_3ops9try_trait3Try6branchB1s_, symObjAddr: 0xEDBC, symBinAddr: 0x55730, symSize: 0xAC }
  - { offset: 0xCA534, size: 0x8, addend: 0x0, symName: __RNvXso_NtCsfvfooZQ3Axs_4core6resultINtB5_6ResultTNtNtCs5AlOhPCr03V_3syn3lit3LitNtNtBP_6buffer6CursorENtNtBP_5error5ErrorENtNtNtB7_3ops9try_trait3Try6branchBP_, symObjAddr: 0xEE68, symBinAddr: 0x557DC, symSize: 0xB8 }
  - { offset: 0xCA5B1, size: 0x8, addend: 0x0, symName: __RNvXso_NtCsfvfooZQ3Axs_4core6resultINtB5_6ResultTNtNtCs5AlOhPCr03V_3syn3mac14MacroDelimiterNtCs3cP53eQoTwO_11proc_macro211TokenStreamENtNtBP_5error5ErrorENtNtNtB7_3ops9try_trait3Try6branchBP_, symObjAddr: 0xEF20, symBinAddr: 0x55894, symSize: 0xB0 }
  - { offset: 0xCA62E, size: 0x8, addend: 0x0, symName: __RNvXso_NtCsfvfooZQ3Axs_4core6resultINtB5_6ResultTNtNtCs5AlOhPCr03V_3syn5token10UnderscoreNtNtBP_6buffer6CursorENtNtBP_5error5ErrorENtNtNtB7_3ops9try_trait3Try6branchBP_, symObjAddr: 0xEFD0, symBinAddr: 0x55944, symSize: 0x94 }
  - { offset: 0xCA6AB, size: 0x8, addend: 0x0, symName: __RNvXso_NtCsfvfooZQ3Axs_4core6resultINtB5_6ResultTNtNtCs5AlOhPCr03V_3syn5token4ElseINtNtCse1nGBsou5OW_5alloc5boxed3BoxNtNtBP_4expr4ExprEENtNtBP_5error5ErrorENtNtNtB7_3ops9try_trait3Try6branchBP_, symObjAddr: 0xF064, symBinAddr: 0x559D8, symSize: 0x94 }
  - { offset: 0xCA729, size: 0x8, addend: 0x0, symName: __RNvXso_NtCsfvfooZQ3Axs_4core6resultINtB5_6ResultTNtNtCs5AlOhPCr03V_3syn8lifetime8LifetimeNtNtBP_6buffer6CursorENtNtBP_5error5ErrorENtNtNtB7_3ops9try_trait3Try6branchBP_, symObjAddr: 0xF0F8, symBinAddr: 0x55A6C, symSize: 0xAC }
  - { offset: 0xCA7A6, size: 0x8, addend: 0x0, symName: __RNvXso_NtCsfvfooZQ3Axs_4core6resultINtB5_6ResultTNtNtNtCs5AlOhPCr03V_3syn4expr7parsing3rawNtNtBR_6buffer6CursorENtNtBR_5error5ErrorENtNtNtB7_3ops9try_trait3Try6branchBR_, symObjAddr: 0xF1A4, symBinAddr: 0x55B18, symSize: 0x94 }
  - { offset: 0xCA823, size: 0x8, addend: 0x0, symName: __RNvXso_NtCsfvfooZQ3Axs_4core6resultINtB5_6ResultTTNtCs3cP53eQoTwO_11proc_macro24SpanNtNtCs5AlOhPCr03V_3syn5parse11ParseBufferENtNtB1o_6buffer6CursorENtNtB1o_5error5ErrorENtNtNtB7_3ops9try_trait3Try6branchB1o_, symObjAddr: 0xF2CC, symBinAddr: 0x55BAC, symSize: 0xB0 }
  - { offset: 0xCA8A0, size: 0x8, addend: 0x0, symName: __RNvXso_NtCsfvfooZQ3Axs_4core6resultINtB5_6ResultTTNtNtCs5AlOhPCr03V_3syn3mac14MacroDelimiterNtCs3cP53eQoTwO_11proc_macro211TokenStreamENtNtBQ_6buffer6CursorENtNtBQ_5error5ErrorENtNtNtB7_3ops9try_trait3Try6branchBQ_, symObjAddr: 0xF37C, symBinAddr: 0x55C5C, symSize: 0xB0 }
  - { offset: 0xCA91D, size: 0x8, addend: 0x0, symName: __RNvXso_NtCsfvfooZQ3Axs_4core6resultINtB5_6ResultTuNtNtCs5AlOhPCr03V_3syn6buffer6CursorENtNtBQ_5error5ErrorENtNtNtB7_3ops9try_trait3Try6branchBQ_, symObjAddr: 0xF42C, symBinAddr: 0x55D0C, symSize: 0x94 }
  - { offset: 0xCA99B, size: 0x8, addend: 0x0, symName: __RNvXso_NtCsfvfooZQ3Axs_4core6resultINtB5_6ResultbNtNtCs5AlOhPCr03V_3syn5error5ErrorENtNtNtB7_3ops9try_trait3Try6branchBP_, symObjAddr: 0xF4C0, symBinAddr: 0x55DA0, symSize: 0x94 }
  - { offset: 0xCAA19, size: 0x8, addend: 0x0, symName: __RNvXso_NtCsfvfooZQ3Axs_4core6resultINtB5_6ResultmNtNtCs5AlOhPCr03V_3syn5error5ErrorENtNtNtB7_3ops9try_trait3Try6branchBP_, symObjAddr: 0xF554, symBinAddr: 0x55E34, symSize: 0x88 }
  - { offset: 0xCAA97, size: 0x8, addend: 0x0, symName: __RNvXso_NtCsfvfooZQ3Axs_4core6resultINtB5_6ResultuNtNtCs5AlOhPCr03V_3syn5error5ErrorENtNtNtB7_3ops9try_trait3Try6branchBP_, symObjAddr: 0xF5DC, symBinAddr: 0x55EBC, symSize: 0x78 }
  - { offset: 0xCAB1B, size: 0x8, addend: 0x0, symName: __RNvXsp_NtCsfvfooZQ3Axs_4core6resultINtB5_6ResultANtCs3cP53eQoTwO_11proc_macro24Spanj1_NtNtCs5AlOhPCr03V_3syn5error5ErrorEINtNtNtB7_3ops9try_trait12FromResidualIBy_NtNtB7_7convert10InfallibleB1m_EE13from_residualB1q_, symObjAddr: 0xF684, symBinAddr: 0x55F64, symSize: 0x40 }
  - { offset: 0xCABA0, size: 0x8, addend: 0x0, symName: __RNvXsp_NtCsfvfooZQ3Axs_4core6resultINtB5_6ResultANtCs3cP53eQoTwO_11proc_macro24Spanj2_NtNtCs5AlOhPCr03V_3syn5error5ErrorEINtNtNtB7_3ops9try_trait12FromResidualIBy_NtNtB7_7convert10InfallibleB1m_EE13from_residualB1q_, symObjAddr: 0xF6C4, symBinAddr: 0x55FA4, symSize: 0x40 }
  - { offset: 0xCAC25, size: 0x8, addend: 0x0, symName: __RNvXsp_NtCsfvfooZQ3Axs_4core6resultINtB5_6ResultANtCs3cP53eQoTwO_11proc_macro24Spanj3_NtNtCs5AlOhPCr03V_3syn5error5ErrorEINtNtNtB7_3ops9try_trait12FromResidualIBy_NtNtB7_7convert10InfallibleB1m_EE13from_residualB1q_, symObjAddr: 0xF704, symBinAddr: 0x55FE4, symSize: 0x40 }
  - { offset: 0xCACAA, size: 0x8, addend: 0x0, symName: __RNvXsp_NtCsfvfooZQ3Axs_4core6resultINtB5_6ResultINtNtB7_6option6OptionINtNtCse1nGBsou5OW_5alloc5boxed3BoxNtNtCs5AlOhPCr03V_3syn4expr4ExprEENtNtB1J_5error5ErrorEINtNtNtB7_3ops9try_trait12FromResidualIBy_NtNtB7_7convert10InfallibleB2d_EE13from_residualB1J_, symObjAddr: 0xF744, symBinAddr: 0x56024, symSize: 0x40 }
  - { offset: 0xCAD2F, size: 0x8, addend: 0x0, symName: __RNvXsp_NtCsfvfooZQ3Axs_4core6resultINtB5_6ResultINtNtB7_6option6OptionNtCs3cP53eQoTwO_11proc_macro25IdentENtNtCs5AlOhPCr03V_3syn5error5ErrorEINtNtNtB7_3ops9try_trait12FromResidualIBy_NtNtB7_7convert10InfallibleB1G_EE13from_residualB1K_, symObjAddr: 0xF784, symBinAddr: 0x56064, symSize: 0x48 }
  - { offset: 0xCADB4, size: 0x8, addend: 0x0, symName: __RNvXsp_NtCsfvfooZQ3Axs_4core6resultINtB5_6ResultINtNtB7_6option6OptionNtNtCs5AlOhPCr03V_3syn2ty10TypeBareFnENtNtB1a_5error5ErrorEINtNtNtB7_3ops9try_trait12FromResidualIBy_NtNtB7_7convert10InfallibleB1I_EE13from_residualB1a_, symObjAddr: 0xF7CC, symBinAddr: 0x560AC, symSize: 0x48 }
  - { offset: 0xCAE39, size: 0x8, addend: 0x0, symName: __RNvXsp_NtCsfvfooZQ3Axs_4core6resultINtB5_6ResultINtNtB7_6option6OptionNtNtCs5AlOhPCr03V_3syn2ty9BareFnArgENtNtB1a_5error5ErrorEINtNtNtB7_3ops9try_trait12FromResidualIBy_NtNtB7_7convert10InfallibleB1G_EE13from_residualB1a_, symObjAddr: 0xF814, symBinAddr: 0x560F4, symSize: 0x48 }
  - { offset: 0xCAEBE, size: 0x8, addend: 0x0, symName: __RNvXsp_NtCsfvfooZQ3Axs_4core6resultINtB5_6ResultINtNtB7_6option6OptionNtNtCs5AlOhPCr03V_3syn3lit6LitStrENtNtB1a_5error5ErrorEINtNtNtB7_3ops9try_trait12FromResidualIBy_NtNtB7_7convert10InfallibleB1E_EE13from_residualB1a_, symObjAddr: 0xF85C, symBinAddr: 0x5613C, symSize: 0x40 }
  - { offset: 0xCAF43, size: 0x8, addend: 0x0, symName: __RNvXsp_NtCsfvfooZQ3Axs_4core6resultINtB5_6ResultINtNtB7_6option6OptionNtNtCs5AlOhPCr03V_3syn3lit8LitFloatENtNtB1a_5error5ErrorEINtNtNtB7_3ops9try_trait12FromResidualIBy_NtNtB7_7convert10InfallibleB1G_EE13from_residualB1a_, symObjAddr: 0xF89C, symBinAddr: 0x5617C, symSize: 0x40 }
  - { offset: 0xCAFC8, size: 0x8, addend: 0x0, symName: __RNvXsp_NtCsfvfooZQ3Axs_4core6resultINtB5_6ResultINtNtB7_6option6OptionNtNtCs5AlOhPCr03V_3syn4item8ItemImplENtNtB1a_5error5ErrorEINtNtNtB7_3ops9try_trait12FromResidualIBy_NtNtB7_7convert10InfallibleB1H_EE13from_residualB1a_, symObjAddr: 0xF8DC, symBinAddr: 0x561BC, symSize: 0x48 }
  - { offset: 0xCB04D, size: 0x8, addend: 0x0, symName: __RNvXsp_NtCsfvfooZQ3Axs_4core6resultINtB5_6ResultINtNtB7_6option6OptionNtNtCs5AlOhPCr03V_3syn5token2EqENtNtB1a_5error5ErrorEINtNtNtB7_3ops9try_trait12FromResidualIBy_NtNtB7_7convert10InfallibleB1C_EE13from_residualB1a_, symObjAddr: 0xF924, symBinAddr: 0x56204, symSize: 0x40 }
  - { offset: 0xCB0D2, size: 0x8, addend: 0x0, symName: __RNvXsp_NtCsfvfooZQ3Axs_4core6resultINtB5_6ResultINtNtB7_6option6OptionNtNtCs5AlOhPCr03V_3syn5token2OrENtNtB1a_5error5ErrorEINtNtNtB7_3ops9try_trait12FromResidualIBy_NtNtB7_7convert10InfallibleB1C_EE13from_residualB1a_, symObjAddr: 0xF964, symBinAddr: 0x56244, symSize: 0x40 }
  - { offset: 0xCB157, size: 0x8, addend: 0x0, symName: __RNvXsp_NtCsfvfooZQ3Axs_4core6resultINtB5_6ResultINtNtB7_6option6OptionNtNtCs5AlOhPCr03V_3syn5token3AddENtNtB1a_5error5ErrorEINtNtNtB7_3ops9try_trait12FromResidualIBy_NtNtB7_7convert10InfallibleB1D_EE13from_residualB1a_, symObjAddr: 0xF9A4, symBinAddr: 0x56284, symSize: 0x40 }
  - { offset: 0xCB1DC, size: 0x8, addend: 0x0, symName: __RNvXsp_NtCsfvfooZQ3Axs_4core6resultINtB5_6ResultINtNtB7_6option6OptionNtNtCs5AlOhPCr03V_3syn5token3BoxENtNtB1a_5error5ErrorEINtNtNtB7_3ops9try_trait12FromResidualIBy_NtNtB7_7convert10InfallibleB1D_EE13from_residualB1a_, symObjAddr: 0xF9E4, symBinAddr: 0x562C4, symSize: 0x40 }
  - { offset: 0xCB261, size: 0x8, addend: 0x0, symName: __RNvXsp_NtCsfvfooZQ3Axs_4core6resultINtB5_6ResultINtNtB7_6option6OptionNtNtCs5AlOhPCr03V_3syn5token3DynENtNtB1a_5error5ErrorEINtNtNtB7_3ops9try_trait12FromResidualIBy_NtNtB7_7convert10InfallibleB1D_EE13from_residualB1a_, symObjAddr: 0xFA24, symBinAddr: 0x56304, symSize: 0x40 }
  - { offset: 0xCB2E6, size: 0x8, addend: 0x0, symName: __RNvXsp_NtCsfvfooZQ3Axs_4core6resultINtB5_6ResultINtNtB7_6option6OptionNtNtCs5AlOhPCr03V_3syn5token3MutENtNtB1a_5error5ErrorEINtNtNtB7_3ops9try_trait12FromResidualIBy_NtNtB7_7convert10InfallibleB1D_EE13from_residualB1a_, symObjAddr: 0xFA64, symBinAddr: 0x56344, symSize: 0x40 }
  - { offset: 0xCB36B, size: 0x8, addend: 0x0, symName: __RNvXsp_NtCsfvfooZQ3Axs_4core6resultINtB5_6ResultINtNtB7_6option6OptionNtNtCs5AlOhPCr03V_3syn5token3RefENtNtB1a_5error5ErrorEINtNtNtB7_3ops9try_trait12FromResidualIBy_NtNtB7_7convert10InfallibleB1D_EE13from_residualB1a_, symObjAddr: 0xFAA4, symBinAddr: 0x56384, symSize: 0x40 }
  - { offset: 0xCB3F0, size: 0x8, addend: 0x0, symName: __RNvXsp_NtCsfvfooZQ3Axs_4core6resultINtB5_6ResultINtNtB7_6option6OptionNtNtCs5AlOhPCr03V_3syn5token3SubENtNtB1a_5error5ErrorEINtNtNtB7_3ops9try_trait12FromResidualIBy_NtNtB7_7convert10InfallibleB1D_EE13from_residualB1a_, symObjAddr: 0xFAE4, symBinAddr: 0x563C4, symSize: 0x40 }
  - { offset: 0xCB475, size: 0x8, addend: 0x0, symName: __RNvXsp_NtCsfvfooZQ3Axs_4core6resultINtB5_6ResultINtNtB7_6option6OptionNtNtCs5AlOhPCr03V_3syn5token4AutoENtNtB1a_5error5ErrorEINtNtNtB7_3ops9try_trait12FromResidualIBy_NtNtB7_7convert10InfallibleB1E_EE13from_residualB1a_, symObjAddr: 0xFB24, symBinAddr: 0x56404, symSize: 0x40 }
  - { offset: 0xCB4FA, size: 0x8, addend: 0x0, symName: __RNvXsp_NtCsfvfooZQ3Axs_4core6resultINtB5_6ResultINtNtB7_6option6OptionNtNtCs5AlOhPCr03V_3syn5token4Dot3ENtNtB1a_5error5ErrorEINtNtNtB7_3ops9try_trait12FromResidualIBy_NtNtB7_7convert10InfallibleB1E_EE13from_residualB1a_, symObjAddr: 0xFB64, symBinAddr: 0x56444, symSize: 0x40 }
  - { offset: 0xCB57F, size: 0x8, addend: 0x0, symName: __RNvXsp_NtCsfvfooZQ3Axs_4core6resultINtB5_6ResultINtNtB7_6option6OptionNtNtCs5AlOhPCr03V_3syn5token4MoveENtNtB1a_5error5ErrorEINtNtNtB7_3ops9try_trait12FromResidualIBy_NtNtB7_7convert10InfallibleB1E_EE13from_residualB1a_, symObjAddr: 0xFBA4, symBinAddr: 0x56484, symSize: 0x40 }
  - { offset: 0xCB604, size: 0x8, addend: 0x0, symName: __RNvXsp_NtCsfvfooZQ3Axs_4core6resultINtB5_6ResultINtNtB7_6option6OptionNtNtCs5AlOhPCr03V_3syn5token4SemiENtNtB1a_5error5ErrorEINtNtNtB7_3ops9try_trait12FromResidualIBy_NtNtB7_7convert10InfallibleB1E_EE13from_residualB1a_, symObjAddr: 0xFBE4, symBinAddr: 0x564C4, symSize: 0x40 }
  - { offset: 0xCB689, size: 0x8, addend: 0x0, symName: __RNvXsp_NtCsfvfooZQ3Axs_4core6resultINtB5_6ResultINtNtB7_6option6OptionNtNtCs5AlOhPCr03V_3syn5token4StarENtNtB1a_5error5ErrorEINtNtNtB7_3ops9try_trait12FromResidualIBy_NtNtB7_7convert10InfallibleB1E_EE13from_residualB1a_, symObjAddr: 0xFC24, symBinAddr: 0x56504, symSize: 0x40 }
  - { offset: 0xCB70E, size: 0x8, addend: 0x0, symName: __RNvXsp_NtCsfvfooZQ3Axs_4core6resultINtB5_6ResultINtNtB7_6option6OptionNtNtCs5AlOhPCr03V_3syn5token5AsyncENtNtB1a_5error5ErrorEINtNtNtB7_3ops9try_trait12FromResidualIBy_NtNtB7_7convert10InfallibleB1F_EE13from_residualB1a_, symObjAddr: 0xFC64, symBinAddr: 0x56544, symSize: 0x40 }
  - { offset: 0xCB793, size: 0x8, addend: 0x0, symName: __RNvXsp_NtCsfvfooZQ3Axs_4core6resultINtB5_6ResultINtNtB7_6option6OptionNtNtCs5AlOhPCr03V_3syn5token5AwaitENtNtB1a_5error5ErrorEINtNtNtB7_3ops9try_trait12FromResidualIBy_NtNtB7_7convert10InfallibleB1F_EE13from_residualB1a_, symObjAddr: 0xFCA4, symBinAddr: 0x56584, symSize: 0x40 }
  - { offset: 0xCB818, size: 0x8, addend: 0x0, symName: __RNvXsp_NtCsfvfooZQ3Axs_4core6resultINtB5_6ResultINtNtB7_6option6OptionNtNtCs5AlOhPCr03V_3syn5token5ColonENtNtB1a_5error5ErrorEINtNtNtB7_3ops9try_trait12FromResidualIBy_NtNtB7_7convert10InfallibleB1F_EE13from_residualB1a_, symObjAddr: 0xFCE4, symBinAddr: 0x565C4, symSize: 0x40 }
  - { offset: 0xCB89D, size: 0x8, addend: 0x0, symName: __RNvXsp_NtCsfvfooZQ3Axs_4core6resultINtB5_6ResultINtNtB7_6option6OptionNtNtCs5AlOhPCr03V_3syn5token5CommaENtNtB1a_5error5ErrorEINtNtNtB7_3ops9try_trait12FromResidualIBy_NtNtB7_7convert10InfallibleB1F_EE13from_residualB1a_, symObjAddr: 0xFD24, symBinAddr: 0x56604, symSize: 0x40 }
  - { offset: 0xCB922, size: 0x8, addend: 0x0, symName: __RNvXsp_NtCsfvfooZQ3Axs_4core6resultINtB5_6ResultINtNtB7_6option6OptionNtNtCs5AlOhPCr03V_3syn5token5ConstENtNtB1a_5error5ErrorEINtNtNtB7_3ops9try_trait12FromResidualIBy_NtNtB7_7convert10InfallibleB1F_EE13from_residualB1a_, symObjAddr: 0xFD64, symBinAddr: 0x56644, symSize: 0x40 }
  - { offset: 0xCB9A7, size: 0x8, addend: 0x0, symName: __RNvXsp_NtCsfvfooZQ3Axs_4core6resultINtB5_6ResultINtNtB7_6option6OptionNtNtCs5AlOhPCr03V_3syn5token6Colon2ENtNtB1a_5error5ErrorEINtNtNtB7_3ops9try_trait12FromResidualIBy_NtNtB7_7convert10InfallibleB1G_EE13from_residualB1a_, symObjAddr: 0xFDA4, symBinAddr: 0x56684, symSize: 0x40 }
  - { offset: 0xCBA2C, size: 0x8, addend: 0x0, symName: __RNvXsp_NtCsfvfooZQ3Axs_4core6resultINtB5_6ResultINtNtB7_6option6OptionNtNtCs5AlOhPCr03V_3syn5token6StaticENtNtB1a_5error5ErrorEINtNtNtB7_3ops9try_trait12FromResidualIBy_NtNtB7_7convert10InfallibleB1G_EE13from_residualB1a_, symObjAddr: 0xFDE4, symBinAddr: 0x566C4, symSize: 0x40 }
  - { offset: 0xCBAB1, size: 0x8, addend: 0x0, symName: __RNvXsp_NtCsfvfooZQ3Axs_4core6resultINtB5_6ResultINtNtB7_6option6OptionNtNtCs5AlOhPCr03V_3syn5token6UnsafeENtNtB1a_5error5ErrorEINtNtNtB7_3ops9try_trait12FromResidualIBy_NtNtB7_7convert10InfallibleB1G_EE13from_residualB1a_, symObjAddr: 0xFE24, symBinAddr: 0x56704, symSize: 0x40 }
  - { offset: 0xCBB36, size: 0x8, addend: 0x0, symName: __RNvXsp_NtCsfvfooZQ3Axs_4core6resultINtB5_6ResultINtNtB7_6option6OptionNtNtCs5AlOhPCr03V_3syn5token7DefaultENtNtB1a_5error5ErrorEINtNtNtB7_3ops9try_trait12FromResidualIBy_NtNtB7_7convert10InfallibleB1H_EE13from_residualB1a_, symObjAddr: 0xFE64, symBinAddr: 0x56744, symSize: 0x40 }
  - { offset: 0xCBBBB, size: 0x8, addend: 0x0, symName: __RNvXsp_NtCsfvfooZQ3Axs_4core6resultINtB5_6ResultINtNtB7_6option6OptionNtNtCs5AlOhPCr03V_3syn5token8QuestionENtNtB1a_5error5ErrorEINtNtNtB7_3ops9try_trait12FromResidualIBy_NtNtB7_7convert10InfallibleB1I_EE13from_residualB1a_, symObjAddr: 0xFEA4, symBinAddr: 0x56784, symSize: 0x40 }
  - { offset: 0xCBC40, size: 0x8, addend: 0x0, symName: __RNvXsp_NtCsfvfooZQ3Axs_4core6resultINtB5_6ResultINtNtB7_6option6OptionNtNtCs5AlOhPCr03V_3syn5token9SelfValueENtNtB1a_5error5ErrorEINtNtNtB7_3ops9try_trait12FromResidualIBy_NtNtB7_7convert10InfallibleB1J_EE13from_residualB1a_, symObjAddr: 0xFEE4, symBinAddr: 0x567C4, symSize: 0x40 }
  - { offset: 0xCBCC5, size: 0x8, addend: 0x0, symName: __RNvXsp_NtCsfvfooZQ3Axs_4core6resultINtB5_6ResultINtNtB7_6option6OptionNtNtCs5AlOhPCr03V_3syn8lifetime8LifetimeENtNtB1a_5error5ErrorEINtNtNtB7_3ops9try_trait12FromResidualIBy_NtNtB7_7convert10InfallibleB1L_EE13from_residualB1a_, symObjAddr: 0xFF24, symBinAddr: 0x56804, symSize: 0x48 }
  - { offset: 0xCBD4A, size: 0x8, addend: 0x0, symName: __RNvXsp_NtCsfvfooZQ3Axs_4core6resultINtB5_6ResultINtNtCs5AlOhPCr03V_3syn10punctuated10PunctuatedNtNtBP_2ty4TypeNtNtBP_5token5CommaENtNtBP_5error5ErrorEINtNtNtB7_3ops9try_trait12FromResidualIBy_NtNtB7_7convert10InfallibleB24_EE13from_residualBP_, symObjAddr: 0xFF6C, symBinAddr: 0x5684C, symSize: 0x48 }
  - { offset: 0xCBDCF, size: 0x8, addend: 0x0, symName: __RNvXsp_NtCsfvfooZQ3Axs_4core6resultINtB5_6ResultINtNtCs5AlOhPCr03V_3syn10punctuated10PunctuatedNtNtBP_4data5FieldNtNtBP_5token5CommaENtNtBP_5error5ErrorEINtNtNtB7_3ops9try_trait12FromResidualIBy_NtNtB7_7convert10InfallibleB27_EE13from_residualBP_, symObjAddr: 0xFFFC, symBinAddr: 0x56894, symSize: 0x48 }
  - { offset: 0xCBE54, size: 0x8, addend: 0x0, symName: __RNvXsp_NtCsfvfooZQ3Axs_4core6resultINtB5_6ResultINtNtCs5AlOhPCr03V_3syn10punctuated10PunctuatedNtNtBP_4data7VariantNtNtBP_5token5CommaENtNtBP_5error5ErrorEINtNtNtB7_3ops9try_trait12FromResidualIBy_NtNtB7_7convert10InfallibleB29_EE13from_residualBP_, symObjAddr: 0x10044, symBinAddr: 0x568DC, symSize: 0x48 }
  - { offset: 0xCBED9, size: 0x8, addend: 0x0, symName: __RNvXsp_NtCsfvfooZQ3Axs_4core6resultINtB5_6ResultINtNtCs5AlOhPCr03V_3syn10punctuated10PunctuatedNtNtBP_4expr4ExprNtNtBP_5token5CommaENtNtBP_5error5ErrorEINtNtNtB7_3ops9try_trait12FromResidualIBy_NtNtB7_7convert10InfallibleB26_EE13from_residualBP_, symObjAddr: 0x1008C, symBinAddr: 0x56924, symSize: 0x48 }
  - { offset: 0xCBF5E, size: 0x8, addend: 0x0, symName: __RNvXsp_NtCsfvfooZQ3Axs_4core6resultINtB5_6ResultINtNtCs5AlOhPCr03V_3syn10punctuated10PunctuatedNtNtBP_4item5FnArgNtNtBP_5token5CommaENtNtBP_5error5ErrorEINtNtNtB7_3ops9try_trait12FromResidualIBy_NtNtB7_7convert10InfallibleB27_EE13from_residualBP_, symObjAddr: 0x100D4, symBinAddr: 0x5696C, symSize: 0x48 }
  - { offset: 0xCBFE3, size: 0x8, addend: 0x0, symName: __RNvXsp_NtCsfvfooZQ3Axs_4core6resultINtB5_6ResultINtNtCs5AlOhPCr03V_3syn10punctuated10PunctuatedNtNtBP_4item7UseTreeNtNtBP_5token5CommaENtNtBP_5error5ErrorEINtNtNtB7_3ops9try_trait12FromResidualIBy_NtNtB7_7convert10InfallibleB29_EE13from_residualBP_, symObjAddr: 0x1011C, symBinAddr: 0x569B4, symSize: 0x48 }
  - { offset: 0xCC068, size: 0x8, addend: 0x0, symName: __RNvXsp_NtCsfvfooZQ3Axs_4core6resultINtB5_6ResultINtNtCs5AlOhPCr03V_3syn10punctuated10PunctuatedNtNtBP_8generics14TypeParamBoundNtNtBP_5token3AddENtNtBP_5error5ErrorEINtNtNtB7_3ops9try_trait12FromResidualIBy_NtNtB7_7convert10InfallibleB2j_EE13from_residualBP_, symObjAddr: 0x10164, symBinAddr: 0x569FC, symSize: 0x48 }
  - { offset: 0xCC0ED, size: 0x8, addend: 0x0, symName: __RNvXsp_NtCsfvfooZQ3Axs_4core6resultINtB5_6ResultINtNtCse1nGBsou5OW_5alloc3vec3VecNtNtCs5AlOhPCr03V_3syn4attr9AttributeENtNtB1l_5error5ErrorEINtNtNtB7_3ops9try_trait12FromResidualIBy_NtNtB7_7convert10InfallibleB1T_EE13from_residualB1l_, symObjAddr: 0x101F4, symBinAddr: 0x56A44, symSize: 0x48 }
  - { offset: 0xCC172, size: 0x8, addend: 0x0, symName: __RNvXsp_NtCsfvfooZQ3Axs_4core6resultINtB5_6ResultINtNtCse1nGBsou5OW_5alloc3vec3VecNtNtCs5AlOhPCr03V_3syn4stmt4StmtENtNtB1l_5error5ErrorEINtNtNtB7_3ops9try_trait12FromResidualIBy_NtNtB7_7convert10InfallibleB1O_EE13from_residualB1l_, symObjAddr: 0x1023C, symBinAddr: 0x56A8C, symSize: 0x48 }
  - { offset: 0xCC1F7, size: 0x8, addend: 0x0, symName: __RNvXsp_NtCsfvfooZQ3Axs_4core6resultINtB5_6ResultNtCs3cP53eQoTwO_11proc_macro211TokenStreamNtNtCs5AlOhPCr03V_3syn5error5ErrorEINtNtNtB7_3ops9try_trait12FromResidualIBy_NtNtB7_7convert10InfallibleB1q_EE13from_residualB1u_, symObjAddr: 0x10284, symBinAddr: 0x56AD4, symSize: 0x48 }
  - { offset: 0xCC27C, size: 0x8, addend: 0x0, symName: __RNvXsp_NtCsfvfooZQ3Axs_4core6resultINtB5_6ResultNtCs3cP53eQoTwO_11proc_macro24SpanNtNtCs5AlOhPCr03V_3syn5error5ErrorEINtNtNtB7_3ops9try_trait12FromResidualIBy_NtNtB7_7convert10InfallibleB1i_EE13from_residualB1m_, symObjAddr: 0x102CC, symBinAddr: 0x56B1C, symSize: 0x40 }
  - { offset: 0xCC301, size: 0x8, addend: 0x0, symName: __RNvXsp_NtCsfvfooZQ3Axs_4core6resultINtB5_6ResultNtCs3cP53eQoTwO_11proc_macro25IdentNtNtCs5AlOhPCr03V_3syn5error5ErrorEINtNtNtB7_3ops9try_trait12FromResidualIBy_NtNtB7_7convert10InfallibleB1j_EE13from_residualB1n_, symObjAddr: 0x10354, symBinAddr: 0x56B5C, symSize: 0x48 }
  - { offset: 0xCC386, size: 0x8, addend: 0x0, symName: __RNvXsp_NtCsfvfooZQ3Axs_4core6resultINtB5_6ResultNtCs3cP53eQoTwO_11proc_macro25PunctNtNtCs5AlOhPCr03V_3syn5error5ErrorEINtNtNtB7_3ops9try_trait12FromResidualIBy_NtNtB7_7convert10InfallibleB1j_EE13from_residualB1n_, symObjAddr: 0x1039C, symBinAddr: 0x56BA4, symSize: 0x40 }
  - { offset: 0xCC40B, size: 0x8, addend: 0x0, symName: __RNvXsp_NtCsfvfooZQ3Axs_4core6resultINtB5_6ResultNtCs3cP53eQoTwO_11proc_macro29TokenTreeNtNtCs5AlOhPCr03V_3syn5error5ErrorEINtNtNtB7_3ops9try_trait12FromResidualIBy_NtNtB7_7convert10InfallibleB1n_EE13from_residualB1r_, symObjAddr: 0x10424, symBinAddr: 0x56BE4, symSize: 0x48 }
  - { offset: 0xCC490, size: 0x8, addend: 0x0, symName: __RNvXsp_NtCsfvfooZQ3Axs_4core6resultINtB5_6ResultNtNtCs5AlOhPCr03V_3syn2ty10ReturnTypeNtNtBO_5error5ErrorEINtNtNtB7_3ops9try_trait12FromResidualIBy_NtNtB7_7convert10InfallibleB1l_EE13from_residualBO_, symObjAddr: 0x1046C, symBinAddr: 0x56C2C, symSize: 0x40 }
  - { offset: 0xCC515, size: 0x8, addend: 0x0, symName: __RNvXsp_NtCsfvfooZQ3Axs_4core6resultINtB5_6ResultNtNtCs5AlOhPCr03V_3syn2ty13TypeImplTraitNtNtBO_5error5ErrorEINtNtNtB7_3ops9try_trait12FromResidualIBy_NtNtB7_7convert10InfallibleB1o_EE13from_residualBO_, symObjAddr: 0x104AC, symBinAddr: 0x56C6C, symSize: 0x48 }
  - { offset: 0xCC59A, size: 0x8, addend: 0x0, symName: __RNvXsp_NtCsfvfooZQ3Axs_4core6resultINtB5_6ResultNtNtCs5AlOhPCr03V_3syn2ty13TypeReferenceNtNtBO_5error5ErrorEINtNtNtB7_3ops9try_trait12FromResidualIBy_NtNtB7_7convert10InfallibleB1o_EE13from_residualBO_, symObjAddr: 0x104F4, symBinAddr: 0x56CB4, symSize: 0x48 }
  - { offset: 0xCC61F, size: 0x8, addend: 0x0, symName: __RNvXsp_NtCsfvfooZQ3Axs_4core6resultINtB5_6ResultNtNtCs5AlOhPCr03V_3syn2ty15TypeTraitObjectNtNtBO_5error5ErrorEINtNtNtB7_3ops9try_trait12FromResidualIBy_NtNtB7_7convert10InfallibleB1q_EE13from_residualBO_, symObjAddr: 0x1053C, symBinAddr: 0x56CFC, symSize: 0x48 }
  - { offset: 0xCC6A4, size: 0x8, addend: 0x0, symName: __RNvXsp_NtCsfvfooZQ3Axs_4core6resultINtB5_6ResultNtNtCs5AlOhPCr03V_3syn2ty3AbiNtNtBO_5error5ErrorEINtNtNtB7_3ops9try_trait12FromResidualIBy_NtNtB7_7convert10InfallibleB1d_EE13from_residualBO_, symObjAddr: 0x10584, symBinAddr: 0x56D44, symSize: 0x40 }
  - { offset: 0xCC729, size: 0x8, addend: 0x0, symName: __RNvXsp_NtCsfvfooZQ3Axs_4core6resultINtB5_6ResultNtNtCs5AlOhPCr03V_3syn2ty4TypeNtNtBO_5error5ErrorEINtNtNtB7_3ops9try_trait12FromResidualIBy_NtNtB7_7convert10InfallibleB1e_EE13from_residualBO_, symObjAddr: 0x105C4, symBinAddr: 0x56D84, symSize: 0x4C }
  - { offset: 0xCC7AE, size: 0x8, addend: 0x0, symName: __RNvXsp_NtCsfvfooZQ3Axs_4core6resultINtB5_6ResultNtNtCs5AlOhPCr03V_3syn2ty7TypePtrNtNtBO_5error5ErrorEINtNtNtB7_3ops9try_trait12FromResidualIBy_NtNtB7_7convert10InfallibleB1h_EE13from_residualBO_, symObjAddr: 0x10610, symBinAddr: 0x56DD0, symSize: 0x48 }
  - { offset: 0xCC833, size: 0x8, addend: 0x0, symName: __RNvXsp_NtCsfvfooZQ3Axs_4core6resultINtB5_6ResultNtNtCs5AlOhPCr03V_3syn2ty8TypePathNtNtBO_5error5ErrorEINtNtNtB7_3ops9try_trait12FromResidualIBy_NtNtB7_7convert10InfallibleB1i_EE13from_residualBO_, symObjAddr: 0x10658, symBinAddr: 0x56E18, symSize: 0x48 }
  - { offset: 0xCC8B8, size: 0x8, addend: 0x0, symName: __RNvXsp_NtCsfvfooZQ3Axs_4core6resultINtB5_6ResultNtNtCs5AlOhPCr03V_3syn2ty9TypeGroupNtNtBO_5error5ErrorEINtNtNtB7_3ops9try_trait12FromResidualIBy_NtNtB7_7convert10InfallibleB1j_EE13from_residualBO_, symObjAddr: 0x106EC, symBinAddr: 0x56E60, symSize: 0x40 }
  - { offset: 0xCC93D, size: 0x8, addend: 0x0, symName: __RNvXsp_NtCsfvfooZQ3Axs_4core6resultINtB5_6ResultNtNtCs5AlOhPCr03V_3syn2ty9TypeInferNtNtBO_5error5ErrorEINtNtNtB7_3ops9try_trait12FromResidualIBy_NtNtB7_7convert10InfallibleB1j_EE13from_residualBO_, symObjAddr: 0x1072C, symBinAddr: 0x56EA0, symSize: 0x40 }
  - { offset: 0xCC9C2, size: 0x8, addend: 0x0, symName: __RNvXsp_NtCsfvfooZQ3Axs_4core6resultINtB5_6ResultNtNtCs5AlOhPCr03V_3syn2ty9TypeNeverNtNtBO_5error5ErrorEINtNtNtB7_3ops9try_trait12FromResidualIBy_NtNtB7_7convert10InfallibleB1j_EE13from_residualBO_, symObjAddr: 0x107B4, symBinAddr: 0x56EE0, symSize: 0x40 }
  - { offset: 0xCCA47, size: 0x8, addend: 0x0, symName: __RNvXsp_NtCsfvfooZQ3Axs_4core6resultINtB5_6ResultNtNtCs5AlOhPCr03V_3syn3lit3LitNtNtBO_5error5ErrorEINtNtNtB7_3ops9try_trait12FromResidualIBy_NtNtB7_7convert10InfallibleB1e_EE13from_residualBO_, symObjAddr: 0x108BC, symBinAddr: 0x56F20, symSize: 0x48 }
  - { offset: 0xCCACC, size: 0x8, addend: 0x0, symName: __RNvXsp_NtCsfvfooZQ3Axs_4core6resultINtB5_6ResultNtNtCs5AlOhPCr03V_3syn3mac5MacroNtNtBO_5error5ErrorEINtNtNtB7_3ops9try_trait12FromResidualIBy_NtNtB7_7convert10InfallibleB1g_EE13from_residualBO_, symObjAddr: 0x10904, symBinAddr: 0x56F68, symSize: 0x48 }
  - { offset: 0xCCB51, size: 0x8, addend: 0x0, symName: __RNvXsp_NtCsfvfooZQ3Axs_4core6resultINtB5_6ResultNtNtCs5AlOhPCr03V_3syn3pat12PatReferenceNtNtBO_5error5ErrorEINtNtNtB7_3ops9try_trait12FromResidualIBy_NtNtB7_7convert10InfallibleB1o_EE13from_residualBO_, symObjAddr: 0x1094C, symBinAddr: 0x56FB0, symSize: 0x48 }
  - { offset: 0xCCBD6, size: 0x8, addend: 0x0, symName: __RNvXsp_NtCsfvfooZQ3Axs_4core6resultINtB5_6ResultNtNtCs5AlOhPCr03V_3syn3pat14PatTupleStructNtNtBO_5error5ErrorEINtNtNtB7_3ops9try_trait12FromResidualIBy_NtNtB7_7convert10InfallibleB1q_EE13from_residualBO_, symObjAddr: 0x10994, symBinAddr: 0x56FF8, symSize: 0x48 }
  - { offset: 0xCCC5B, size: 0x8, addend: 0x0, symName: __RNvXsp_NtCsfvfooZQ3Axs_4core6resultINtB5_6ResultNtNtCs5AlOhPCr03V_3syn3pat3PatNtNtBO_5error5ErrorEINtNtNtB7_3ops9try_trait12FromResidualIBy_NtNtB7_7convert10InfallibleB1e_EE13from_residualBO_, symObjAddr: 0x109DC, symBinAddr: 0x57040, symSize: 0x4C }
  - { offset: 0xCCCE0, size: 0x8, addend: 0x0, symName: __RNvXsp_NtCsfvfooZQ3Axs_4core6resultINtB5_6ResultNtNtCs5AlOhPCr03V_3syn3pat6PatBoxNtNtBO_5error5ErrorEINtNtNtB7_3ops9try_trait12FromResidualIBy_NtNtB7_7convert10InfallibleB1h_EE13from_residualBO_, symObjAddr: 0x10A28, symBinAddr: 0x5708C, symSize: 0x48 }
  - { offset: 0xCCD65, size: 0x8, addend: 0x0, symName: __RNvXsp_NtCsfvfooZQ3Axs_4core6resultINtB5_6ResultNtNtCs5AlOhPCr03V_3syn3pat7PatTypeNtNtBO_5error5ErrorEINtNtNtB7_3ops9try_trait12FromResidualIBy_NtNtB7_7convert10InfallibleB1i_EE13from_residualBO_, symObjAddr: 0x10A70, symBinAddr: 0x570D4, symSize: 0x48 }
  - { offset: 0xCCDEA, size: 0x8, addend: 0x0, symName: __RNvXsp_NtCsfvfooZQ3Axs_4core6resultINtB5_6ResultNtNtCs5AlOhPCr03V_3syn3pat7PatWildNtNtBO_5error5ErrorEINtNtNtB7_3ops9try_trait12FromResidualIBy_NtNtB7_7convert10InfallibleB1i_EE13from_residualBO_, symObjAddr: 0x10AB8, symBinAddr: 0x5711C, symSize: 0x48 }
  - { offset: 0xCCE6F, size: 0x8, addend: 0x0, symName: __RNvXsp_NtCsfvfooZQ3Axs_4core6resultINtB5_6ResultNtNtCs5AlOhPCr03V_3syn3pat8FieldPatNtNtBO_5error5ErrorEINtNtNtB7_3ops9try_trait12FromResidualIBy_NtNtB7_7convert10InfallibleB1j_EE13from_residualBO_, symObjAddr: 0x10B00, symBinAddr: 0x57164, symSize: 0x48 }
  - { offset: 0xCCEF4, size: 0x8, addend: 0x0, symName: __RNvXsp_NtCsfvfooZQ3Axs_4core6resultINtB5_6ResultNtNtCs5AlOhPCr03V_3syn3pat8PatIdentNtNtBO_5error5ErrorEINtNtNtB7_3ops9try_trait12FromResidualIBy_NtNtB7_7convert10InfallibleB1j_EE13from_residualBO_, symObjAddr: 0x10B48, symBinAddr: 0x571AC, symSize: 0x48 }
  - { offset: 0xCCF79, size: 0x8, addend: 0x0, symName: __RNvXsp_NtCsfvfooZQ3Axs_4core6resultINtB5_6ResultNtNtCs5AlOhPCr03V_3syn3pat8PatSliceNtNtBO_5error5ErrorEINtNtNtB7_3ops9try_trait12FromResidualIBy_NtNtB7_7convert10InfallibleB1j_EE13from_residualBO_, symObjAddr: 0x10B90, symBinAddr: 0x571F4, symSize: 0x48 }
  - { offset: 0xCCFFE, size: 0x8, addend: 0x0, symName: __RNvXsp_NtCsfvfooZQ3Axs_4core6resultINtB5_6ResultNtNtCs5AlOhPCr03V_3syn3pat8PatTupleNtNtBO_5error5ErrorEINtNtNtB7_3ops9try_trait12FromResidualIBy_NtNtB7_7convert10InfallibleB1j_EE13from_residualBO_, symObjAddr: 0x10BD8, symBinAddr: 0x5723C, symSize: 0x48 }
  - { offset: 0xCD083, size: 0x8, addend: 0x0, symName: __RNvXsp_NtCsfvfooZQ3Axs_4core6resultINtB5_6ResultNtNtCs5AlOhPCr03V_3syn4attr9AttributeNtNtBO_5error5ErrorEINtNtNtB7_3ops9try_trait12FromResidualIBy_NtNtB7_7convert10InfallibleB1l_EE13from_residualBO_, symObjAddr: 0x10CF8, symBinAddr: 0x57284, symSize: 0x48 }
  - { offset: 0xCD108, size: 0x8, addend: 0x0, symName: __RNvXsp_NtCsfvfooZQ3Axs_4core6resultINtB5_6ResultNtNtCs5AlOhPCr03V_3syn4data10VisibilityNtNtBO_5error5ErrorEINtNtNtB7_3ops9try_trait12FromResidualIBy_NtNtB7_7convert10InfallibleB1n_EE13from_residualBO_, symObjAddr: 0x10D40, symBinAddr: 0x572CC, symSize: 0x48 }
  - { offset: 0xCD18D, size: 0x8, addend: 0x0, symName: __RNvXsp_NtCsfvfooZQ3Axs_4core6resultINtB5_6ResultNtNtCs5AlOhPCr03V_3syn4data11FieldsNamedNtNtBO_5error5ErrorEINtNtNtB7_3ops9try_trait12FromResidualIBy_NtNtB7_7convert10InfallibleB1o_EE13from_residualBO_, symObjAddr: 0x10D88, symBinAddr: 0x57314, symSize: 0x48 }
  - { offset: 0xCD212, size: 0x8, addend: 0x0, symName: __RNvXsp_NtCsfvfooZQ3Axs_4core6resultINtB5_6ResultNtNtCs5AlOhPCr03V_3syn4data13FieldsUnnamedNtNtBO_5error5ErrorEINtNtNtB7_3ops9try_trait12FromResidualIBy_NtNtB7_7convert10InfallibleB1q_EE13from_residualBO_, symObjAddr: 0x10DD0, symBinAddr: 0x5735C, symSize: 0x48 }
  - { offset: 0xCD297, size: 0x8, addend: 0x0, symName: __RNvXsp_NtCsfvfooZQ3Axs_4core6resultINtB5_6ResultNtNtCs5AlOhPCr03V_3syn4data5FieldNtNtBO_5error5ErrorEINtNtNtB7_3ops9try_trait12FromResidualIBy_NtNtB7_7convert10InfallibleB1h_EE13from_residualBO_, symObjAddr: 0x10E18, symBinAddr: 0x573A4, symSize: 0x48 }
  - { offset: 0xCD31C, size: 0x8, addend: 0x0, symName: __RNvXsp_NtCsfvfooZQ3Axs_4core6resultINtB5_6ResultNtNtCs5AlOhPCr03V_3syn4data7VariantNtNtBO_5error5ErrorEINtNtNtB7_3ops9try_trait12FromResidualIBy_NtNtB7_7convert10InfallibleB1j_EE13from_residualBO_, symObjAddr: 0x10E60, symBinAddr: 0x573EC, symSize: 0x48 }
  - { offset: 0xCD3A1, size: 0x8, addend: 0x0, symName: __RNvXsp_NtCsfvfooZQ3Axs_4core6resultINtB5_6ResultNtNtCs5AlOhPCr03V_3syn4expr10ExprReturnNtNtBO_5error5ErrorEINtNtNtB7_3ops9try_trait12FromResidualIBy_NtNtB7_7convert10InfallibleB1n_EE13from_residualBO_, symObjAddr: 0x10F80, symBinAddr: 0x57434, symSize: 0x48 }
  - { offset: 0xCD426, size: 0x8, addend: 0x0, symName: __RNvXsp_NtCsfvfooZQ3Axs_4core6resultINtB5_6ResultNtNtCs5AlOhPCr03V_3syn4expr10ExprStructNtNtBO_5error5ErrorEINtNtNtB7_3ops9try_trait12FromResidualIBy_NtNtB7_7convert10InfallibleB1n_EE13from_residualBO_, symObjAddr: 0x10FC8, symBinAddr: 0x5747C, symSize: 0x48 }
  - { offset: 0xCD4AB, size: 0x8, addend: 0x0, symName: __RNvXsp_NtCsfvfooZQ3Axs_4core6resultINtB5_6ResultNtNtCs5AlOhPCr03V_3syn4expr10ExprUnsafeNtNtBO_5error5ErrorEINtNtNtB7_3ops9try_trait12FromResidualIBy_NtNtB7_7convert10InfallibleB1n_EE13from_residualBO_, symObjAddr: 0x11010, symBinAddr: 0x574C4, symSize: 0x48 }
  - { offset: 0xCD530, size: 0x8, addend: 0x0, symName: __RNvXsp_NtCsfvfooZQ3Axs_4core6resultINtB5_6ResultNtNtCs5AlOhPCr03V_3syn4expr10FieldValueNtNtBO_5error5ErrorEINtNtNtB7_3ops9try_trait12FromResidualIBy_NtNtB7_7convert10InfallibleB1n_EE13from_residualBO_, symObjAddr: 0x11058, symBinAddr: 0x5750C, symSize: 0x48 }
  - { offset: 0xCD5B5, size: 0x8, addend: 0x0, symName: __RNvXsp_NtCsfvfooZQ3Axs_4core6resultINtB5_6ResultNtNtCs5AlOhPCr03V_3syn4expr11ExprClosureNtNtBO_5error5ErrorEINtNtNtB7_3ops9try_trait12FromResidualIBy_NtNtB7_7convert10InfallibleB1o_EE13from_residualBO_, symObjAddr: 0x110A0, symBinAddr: 0x57554, symSize: 0x48 }
  - { offset: 0xCD63A, size: 0x8, addend: 0x0, symName: __RNvXsp_NtCsfvfooZQ3Axs_4core6resultINtB5_6ResultNtNtCs5AlOhPCr03V_3syn4expr11ExprForLoopNtNtBO_5error5ErrorEINtNtNtB7_3ops9try_trait12FromResidualIBy_NtNtB7_7convert10InfallibleB1o_EE13from_residualBO_, symObjAddr: 0x110E8, symBinAddr: 0x5759C, symSize: 0x48 }
  - { offset: 0xCD6BF, size: 0x8, addend: 0x0, symName: __RNvXsp_NtCsfvfooZQ3Axs_4core6resultINtB5_6ResultNtNtCs5AlOhPCr03V_3syn4expr11RangeLimitsNtNtBO_5error5ErrorEINtNtNtB7_3ops9try_trait12FromResidualIBy_NtNtB7_7convert10InfallibleB1o_EE13from_residualBO_, symObjAddr: 0x11130, symBinAddr: 0x575E4, symSize: 0x40 }
  - { offset: 0xCD744, size: 0x8, addend: 0x0, symName: __RNvXsp_NtCsfvfooZQ3Axs_4core6resultINtB5_6ResultNtNtCs5AlOhPCr03V_3syn4expr12ExprContinueNtNtBO_5error5ErrorEINtNtNtB7_3ops9try_trait12FromResidualIBy_NtNtB7_7convert10InfallibleB1p_EE13from_residualBO_, symObjAddr: 0x111B8, symBinAddr: 0x57624, symSize: 0x48 }
  - { offset: 0xCD7C9, size: 0x8, addend: 0x0, symName: __RNvXsp_NtCsfvfooZQ3Axs_4core6resultINtB5_6ResultNtNtCs5AlOhPCr03V_3syn4expr12ExprTryBlockNtNtBO_5error5ErrorEINtNtNtB7_3ops9try_trait12FromResidualIBy_NtNtB7_7convert10InfallibleB1p_EE13from_residualBO_, symObjAddr: 0x11200, symBinAddr: 0x5766C, symSize: 0x48 }
  - { offset: 0xCD84E, size: 0x8, addend: 0x0, symName: __RNvXsp_NtCsfvfooZQ3Axs_4core6resultINtB5_6ResultNtNtCs5AlOhPCr03V_3syn4expr15MethodTurbofishNtNtBO_5error5ErrorEINtNtNtB7_3ops9try_trait12FromResidualIBy_NtNtB7_7convert10InfallibleB1s_EE13from_residualBO_, symObjAddr: 0x112D8, symBinAddr: 0x576B4, symSize: 0x48 }
  - { offset: 0xCD8D3, size: 0x8, addend: 0x0, symName: __RNvXsp_NtCsfvfooZQ3Axs_4core6resultINtB5_6ResultNtNtCs5AlOhPCr03V_3syn4expr21GenericMethodArgumentNtNtBO_5error5ErrorEINtNtNtB7_3ops9try_trait12FromResidualIBy_NtNtB7_7convert10InfallibleB1y_EE13from_residualBO_, symObjAddr: 0x11320, symBinAddr: 0x576FC, symSize: 0x4C }
  - { offset: 0xCD958, size: 0x8, addend: 0x0, symName: __RNvXsp_NtCsfvfooZQ3Axs_4core6resultINtB5_6ResultNtNtCs5AlOhPCr03V_3syn4expr3ArmNtNtBO_5error5ErrorEINtNtNtB7_3ops9try_trait12FromResidualIBy_NtNtB7_7convert10InfallibleB1f_EE13from_residualBO_, symObjAddr: 0x1136C, symBinAddr: 0x57748, symSize: 0x48 }
  - { offset: 0xCD9DD, size: 0x8, addend: 0x0, symName: __RNvXsp_NtCsfvfooZQ3Axs_4core6resultINtB5_6ResultNtNtCs5AlOhPCr03V_3syn4expr4ExprNtNtBO_5error5ErrorEINtNtNtB7_3ops9try_trait12FromResidualIBy_NtNtB7_7convert10InfallibleB1g_EE13from_residualBO_, symObjAddr: 0x113B4, symBinAddr: 0x57790, symSize: 0x4C }
  - { offset: 0xCDA62, size: 0x8, addend: 0x0, symName: __RNvXsp_NtCsfvfooZQ3Axs_4core6resultINtB5_6ResultNtNtCs5AlOhPCr03V_3syn4expr5IndexNtNtBO_5error5ErrorEINtNtNtB7_3ops9try_trait12FromResidualIBy_NtNtB7_7convert10InfallibleB1h_EE13from_residualBO_, symObjAddr: 0x11400, symBinAddr: 0x577DC, symSize: 0x40 }
  - { offset: 0xCDAE7, size: 0x8, addend: 0x0, symName: __RNvXsp_NtCsfvfooZQ3Axs_4core6resultINtB5_6ResultNtNtCs5AlOhPCr03V_3syn4expr5IndexNtNtBO_5error5ErrorEINtNtNtB7_3ops9try_trait12FromResidualIBy_NtNtB7_7convert10InfallibleNtCs3cP53eQoTwO_11proc_macro28LexErrorEE13from_residualBO_, symObjAddr: 0x11440, symBinAddr: 0x5781C, symSize: 0x44 }
  - { offset: 0xCDB4E, size: 0x8, addend: 0x0, symName: __RNvXsp_NtCsfvfooZQ3Axs_4core6resultINtB5_6ResultNtNtCs5AlOhPCr03V_3syn4expr5LabelNtNtBO_5error5ErrorEINtNtNtB7_3ops9try_trait12FromResidualIBy_NtNtB7_7convert10InfallibleB1h_EE13from_residualBO_, symObjAddr: 0x11484, symBinAddr: 0x57860, symSize: 0x48 }
  - { offset: 0xCDBD3, size: 0x8, addend: 0x0, symName: __RNvXsp_NtCsfvfooZQ3Axs_4core6resultINtB5_6ResultNtNtCs5AlOhPCr03V_3syn4expr6ExprIfNtNtBO_5error5ErrorEINtNtNtB7_3ops9try_trait12FromResidualIBy_NtNtB7_7convert10InfallibleB1i_EE13from_residualBO_, symObjAddr: 0x114CC, symBinAddr: 0x578A8, symSize: 0x48 }
  - { offset: 0xCDC58, size: 0x8, addend: 0x0, symName: __RNvXsp_NtCsfvfooZQ3Axs_4core6resultINtB5_6ResultNtNtCs5AlOhPCr03V_3syn4expr7ExprBoxNtNtBO_5error5ErrorEINtNtNtB7_3ops9try_trait12FromResidualIBy_NtNtB7_7convert10InfallibleB1j_EE13from_residualBO_, symObjAddr: 0x11514, symBinAddr: 0x578F0, symSize: 0x48 }
  - { offset: 0xCDCDD, size: 0x8, addend: 0x0, symName: __RNvXsp_NtCsfvfooZQ3Axs_4core6resultINtB5_6ResultNtNtCs5AlOhPCr03V_3syn4expr7ExprLetNtNtBO_5error5ErrorEINtNtNtB7_3ops9try_trait12FromResidualIBy_NtNtB7_7convert10InfallibleB1j_EE13from_residualBO_, symObjAddr: 0x1155C, symBinAddr: 0x57938, symSize: 0x48 }
  - { offset: 0xCDD62, size: 0x8, addend: 0x0, symName: __RNvXsp_NtCsfvfooZQ3Axs_4core6resultINtB5_6ResultNtNtCs5AlOhPCr03V_3syn4expr7ExprLitNtNtBO_5error5ErrorEINtNtNtB7_3ops9try_trait12FromResidualIBy_NtNtB7_7convert10InfallibleB1j_EE13from_residualBO_, symObjAddr: 0x115A4, symBinAddr: 0x57980, symSize: 0x48 }
  - { offset: 0xCDDE7, size: 0x8, addend: 0x0, symName: __RNvXsp_NtCsfvfooZQ3Axs_4core6resultINtB5_6ResultNtNtCs5AlOhPCr03V_3syn4expr8ExprLoopNtNtBO_5error5ErrorEINtNtNtB7_3ops9try_trait12FromResidualIBy_NtNtB7_7convert10InfallibleB1k_EE13from_residualBO_, symObjAddr: 0x116C4, symBinAddr: 0x579C8, symSize: 0x48 }
  - { offset: 0xCDE6C, size: 0x8, addend: 0x0, symName: __RNvXsp_NtCsfvfooZQ3Axs_4core6resultINtB5_6ResultNtNtCs5AlOhPCr03V_3syn4expr8ExprPathNtNtBO_5error5ErrorEINtNtNtB7_3ops9try_trait12FromResidualIBy_NtNtB7_7convert10InfallibleB1k_EE13from_residualBO_, symObjAddr: 0x1170C, symBinAddr: 0x57A10, symSize: 0x48 }
  - { offset: 0xCDEF1, size: 0x8, addend: 0x0, symName: __RNvXsp_NtCsfvfooZQ3Axs_4core6resultINtB5_6ResultNtNtCs5AlOhPCr03V_3syn4expr9ExprAsyncNtNtBO_5error5ErrorEINtNtNtB7_3ops9try_trait12FromResidualIBy_NtNtB7_7convert10InfallibleB1l_EE13from_residualBO_, symObjAddr: 0x117E4, symBinAddr: 0x57A58, symSize: 0x48 }
  - { offset: 0xCDF76, size: 0x8, addend: 0x0, symName: __RNvXsp_NtCsfvfooZQ3Axs_4core6resultINtB5_6ResultNtNtCs5AlOhPCr03V_3syn4expr9ExprBlockNtNtBO_5error5ErrorEINtNtNtB7_3ops9try_trait12FromResidualIBy_NtNtB7_7convert10InfallibleB1l_EE13from_residualBO_, symObjAddr: 0x11874, symBinAddr: 0x57AA0, symSize: 0x48 }
  - { offset: 0xCDFFB, size: 0x8, addend: 0x0, symName: __RNvXsp_NtCsfvfooZQ3Axs_4core6resultINtB5_6ResultNtNtCs5AlOhPCr03V_3syn4expr9ExprBreakNtNtBO_5error5ErrorEINtNtNtB7_3ops9try_trait12FromResidualIBy_NtNtB7_7convert10InfallibleB1l_EE13from_residualBO_, symObjAddr: 0x118BC, symBinAddr: 0x57AE8, symSize: 0x48 }
  - { offset: 0xCE080, size: 0x8, addend: 0x0, symName: __RNvXsp_NtCsfvfooZQ3Axs_4core6resultINtB5_6ResultNtNtCs5AlOhPCr03V_3syn4expr9ExprGroupNtNtBO_5error5ErrorEINtNtNtB7_3ops9try_trait12FromResidualIBy_NtNtB7_7convert10InfallibleB1l_EE13from_residualBO_, symObjAddr: 0x1194C, symBinAddr: 0x57B30, symSize: 0x48 }
  - { offset: 0xCE105, size: 0x8, addend: 0x0, symName: __RNvXsp_NtCsfvfooZQ3Axs_4core6resultINtB5_6ResultNtNtCs5AlOhPCr03V_3syn4expr9ExprMatchNtNtBO_5error5ErrorEINtNtNtB7_3ops9try_trait12FromResidualIBy_NtNtB7_7convert10InfallibleB1l_EE13from_residualBO_, symObjAddr: 0x11A24, symBinAddr: 0x57B78, symSize: 0x48 }
  - { offset: 0xCE18A, size: 0x8, addend: 0x0, symName: __RNvXsp_NtCsfvfooZQ3Axs_4core6resultINtB5_6ResultNtNtCs5AlOhPCr03V_3syn4expr9ExprRangeNtNtBO_5error5ErrorEINtNtNtB7_3ops9try_trait12FromResidualIBy_NtNtB7_7convert10InfallibleB1l_EE13from_residualBO_, symObjAddr: 0x11AB4, symBinAddr: 0x57BC0, symSize: 0x48 }
  - { offset: 0xCE20F, size: 0x8, addend: 0x0, symName: __RNvXsp_NtCsfvfooZQ3Axs_4core6resultINtB5_6ResultNtNtCs5AlOhPCr03V_3syn4expr9ExprUnaryNtNtBO_5error5ErrorEINtNtNtB7_3ops9try_trait12FromResidualIBy_NtNtB7_7convert10InfallibleB1l_EE13from_residualBO_, symObjAddr: 0x11B44, symBinAddr: 0x57C08, symSize: 0x48 }
  - { offset: 0xCE294, size: 0x8, addend: 0x0, symName: __RNvXsp_NtCsfvfooZQ3Axs_4core6resultINtB5_6ResultNtNtCs5AlOhPCr03V_3syn4expr9ExprWhileNtNtBO_5error5ErrorEINtNtNtB7_3ops9try_trait12FromResidualIBy_NtNtB7_7convert10InfallibleB1l_EE13from_residualBO_, symObjAddr: 0x11B8C, symBinAddr: 0x57C50, symSize: 0x48 }
  - { offset: 0xCE319, size: 0x8, addend: 0x0, symName: __RNvXsp_NtCsfvfooZQ3Axs_4core6resultINtB5_6ResultNtNtCs5AlOhPCr03V_3syn4expr9ExprYieldNtNtBO_5error5ErrorEINtNtNtB7_3ops9try_trait12FromResidualIBy_NtNtB7_7convert10InfallibleB1l_EE13from_residualBO_, symObjAddr: 0x11BD4, symBinAddr: 0x57C98, symSize: 0x48 }
  - { offset: 0xCE39E, size: 0x8, addend: 0x0, symName: __RNvXsp_NtCsfvfooZQ3Axs_4core6resultINtB5_6ResultNtNtCs5AlOhPCr03V_3syn4item10ItemMacro2NtNtBO_5error5ErrorEINtNtNtB7_3ops9try_trait12FromResidualIBy_NtNtB7_7convert10InfallibleB1n_EE13from_residualBO_, symObjAddr: 0x11CB0, symBinAddr: 0x57CE0, symSize: 0x48 }
  - { offset: 0xCE423, size: 0x8, addend: 0x0, symName: __RNvXsp_NtCsfvfooZQ3Axs_4core6resultINtB5_6ResultNtNtCs5AlOhPCr03V_3syn4item10ItemStructNtNtBO_5error5ErrorEINtNtNtB7_3ops9try_trait12FromResidualIBy_NtNtB7_7convert10InfallibleB1n_EE13from_residualBO_, symObjAddr: 0x11D40, symBinAddr: 0x57D28, symSize: 0x48 }
  - { offset: 0xCE4A8, size: 0x8, addend: 0x0, symName: __RNvXsp_NtCsfvfooZQ3Axs_4core6resultINtB5_6ResultNtNtCs5AlOhPCr03V_3syn4item11ForeignItemNtNtBO_5error5ErrorEINtNtNtB7_3ops9try_trait12FromResidualIBy_NtNtB7_7convert10InfallibleB1o_EE13from_residualBO_, symObjAddr: 0x11D88, symBinAddr: 0x57D70, symSize: 0x48 }
  - { offset: 0xCE52D, size: 0x8, addend: 0x0, symName: __RNvXsp_NtCsfvfooZQ3Axs_4core6resultINtB5_6ResultNtNtCs5AlOhPCr03V_3syn4item13ImplItemMacroNtNtBO_5error5ErrorEINtNtNtB7_3ops9try_trait12FromResidualIBy_NtNtB7_7convert10InfallibleB1q_EE13from_residualBO_, symObjAddr: 0x11EA8, symBinAddr: 0x57DB8, symSize: 0x48 }
  - { offset: 0xCE5B2, size: 0x8, addend: 0x0, symName: __RNvXsp_NtCsfvfooZQ3Axs_4core6resultINtB5_6ResultNtNtCs5AlOhPCr03V_3syn4item14ImplItemMethodNtNtBO_5error5ErrorEINtNtNtB7_3ops9try_trait12FromResidualIBy_NtNtB7_7convert10InfallibleB1r_EE13from_residualBO_, symObjAddr: 0x11F38, symBinAddr: 0x57E00, symSize: 0x48 }
  - { offset: 0xCE637, size: 0x8, addend: 0x0, symName: __RNvXsp_NtCsfvfooZQ3Axs_4core6resultINtB5_6ResultNtNtCs5AlOhPCr03V_3syn4item14ItemForeignModNtNtBO_5error5ErrorEINtNtNtB7_3ops9try_trait12FromResidualIBy_NtNtB7_7convert10InfallibleB1r_EE13from_residualBO_, symObjAddr: 0x11F80, symBinAddr: 0x57E48, symSize: 0x48 }
  - { offset: 0xCE6BC, size: 0x8, addend: 0x0, symName: __RNvXsp_NtCsfvfooZQ3Axs_4core6resultINtB5_6ResultNtNtCs5AlOhPCr03V_3syn4item14ItemTraitAliasNtNtBO_5error5ErrorEINtNtNtB7_3ops9try_trait12FromResidualIBy_NtNtB7_7convert10InfallibleB1r_EE13from_residualBO_, symObjAddr: 0x11FC8, symBinAddr: 0x57E90, symSize: 0x48 }
  - { offset: 0xCE741, size: 0x8, addend: 0x0, symName: __RNvXsp_NtCsfvfooZQ3Axs_4core6resultINtB5_6ResultNtNtCs5AlOhPCr03V_3syn4item14TraitItemConstNtNtBO_5error5ErrorEINtNtNtB7_3ops9try_trait12FromResidualIBy_NtNtB7_7convert10InfallibleB1r_EE13from_residualBO_, symObjAddr: 0x12010, symBinAddr: 0x57ED8, symSize: 0x48 }
  - { offset: 0xCE7C6, size: 0x8, addend: 0x0, symName: __RNvXsp_NtCsfvfooZQ3Axs_4core6resultINtB5_6ResultNtNtCs5AlOhPCr03V_3syn4item14TraitItemMacroNtNtBO_5error5ErrorEINtNtNtB7_3ops9try_trait12FromResidualIBy_NtNtB7_7convert10InfallibleB1r_EE13from_residualBO_, symObjAddr: 0x12058, symBinAddr: 0x57F20, symSize: 0x48 }
  - { offset: 0xCE84B, size: 0x8, addend: 0x0, symName: __RNvXsp_NtCsfvfooZQ3Axs_4core6resultINtB5_6ResultNtNtCs5AlOhPCr03V_3syn4item15ItemExternCrateNtNtBO_5error5ErrorEINtNtNtB7_3ops9try_trait12FromResidualIBy_NtNtB7_7convert10InfallibleB1s_EE13from_residualBO_, symObjAddr: 0x120E8, symBinAddr: 0x57F68, symSize: 0x48 }
  - { offset: 0xCE8D0, size: 0x8, addend: 0x0, symName: __RNvXsp_NtCsfvfooZQ3Axs_4core6resultINtB5_6ResultNtNtCs5AlOhPCr03V_3syn4item15TraitItemMethodNtNtBO_5error5ErrorEINtNtNtB7_3ops9try_trait12FromResidualIBy_NtNtB7_7convert10InfallibleB1s_EE13from_residualBO_, symObjAddr: 0x12130, symBinAddr: 0x57FB0, symSize: 0x48 }
  - { offset: 0xCE955, size: 0x8, addend: 0x0, symName: __RNvXsp_NtCsfvfooZQ3Axs_4core6resultINtB5_6ResultNtNtCs5AlOhPCr03V_3syn4item16ForeignItemMacroNtNtBO_5error5ErrorEINtNtNtB7_3ops9try_trait12FromResidualIBy_NtNtB7_7convert10InfallibleB1t_EE13from_residualBO_, symObjAddr: 0x12178, symBinAddr: 0x57FF8, symSize: 0x48 }
  - { offset: 0xCE9DA, size: 0x8, addend: 0x0, symName: __RNvXsp_NtCsfvfooZQ3Axs_4core6resultINtB5_6ResultNtNtCs5AlOhPCr03V_3syn4item4ItemNtNtBO_5error5ErrorEINtNtNtB7_3ops9try_trait12FromResidualIBy_NtNtB7_7convert10InfallibleB1g_EE13from_residualBO_, symObjAddr: 0x12208, symBinAddr: 0x58040, symSize: 0x48 }
  - { offset: 0xCEA5F, size: 0x8, addend: 0x0, symName: __RNvXsp_NtCsfvfooZQ3Axs_4core6resultINtB5_6ResultNtNtCs5AlOhPCr03V_3syn4item5FnArgNtNtBO_5error5ErrorEINtNtNtB7_3ops9try_trait12FromResidualIBy_NtNtB7_7convert10InfallibleB1h_EE13from_residualBO_, symObjAddr: 0x12250, symBinAddr: 0x58088, symSize: 0x48 }
  - { offset: 0xCEAE4, size: 0x8, addend: 0x0, symName: __RNvXsp_NtCsfvfooZQ3Axs_4core6resultINtB5_6ResultNtNtCs5AlOhPCr03V_3syn4item6ItemFnNtNtBO_5error5ErrorEINtNtNtB7_3ops9try_trait12FromResidualIBy_NtNtB7_7convert10InfallibleB1i_EE13from_residualBO_, symObjAddr: 0x12298, symBinAddr: 0x580D0, symSize: 0x48 }
  - { offset: 0xCEB69, size: 0x8, addend: 0x0, symName: __RNvXsp_NtCsfvfooZQ3Axs_4core6resultINtB5_6ResultNtNtCs5AlOhPCr03V_3syn4item7ItemModNtNtBO_5error5ErrorEINtNtNtB7_3ops9try_trait12FromResidualIBy_NtNtB7_7convert10InfallibleB1j_EE13from_residualBO_, symObjAddr: 0x122E0, symBinAddr: 0x58118, symSize: 0x48 }
  - { offset: 0xCEBEE, size: 0x8, addend: 0x0, symName: __RNvXsp_NtCsfvfooZQ3Axs_4core6resultINtB5_6ResultNtNtCs5AlOhPCr03V_3syn4item7ItemUseNtNtBO_5error5ErrorEINtNtNtB7_3ops9try_trait12FromResidualIBy_NtNtB7_7convert10InfallibleB1j_EE13from_residualBO_, symObjAddr: 0x12328, symBinAddr: 0x58160, symSize: 0x48 }
  - { offset: 0xCEC73, size: 0x8, addend: 0x0, symName: __RNvXsp_NtCsfvfooZQ3Axs_4core6resultINtB5_6ResultNtNtCs5AlOhPCr03V_3syn4item7UseTreeNtNtBO_5error5ErrorEINtNtNtB7_3ops9try_trait12FromResidualIBy_NtNtB7_7convert10InfallibleB1j_EE13from_residualBO_, symObjAddr: 0x12370, symBinAddr: 0x581A8, symSize: 0x48 }
  - { offset: 0xCECF8, size: 0x8, addend: 0x0, symName: __RNvXsp_NtCsfvfooZQ3Axs_4core6resultINtB5_6ResultNtNtCs5AlOhPCr03V_3syn4item8ImplItemNtNtBO_5error5ErrorEINtNtNtB7_3ops9try_trait12FromResidualIBy_NtNtB7_7convert10InfallibleB1k_EE13from_residualBO_, symObjAddr: 0x123B8, symBinAddr: 0x581F0, symSize: 0x4C }
  - { offset: 0xCED7D, size: 0x8, addend: 0x0, symName: __RNvXsp_NtCsfvfooZQ3Axs_4core6resultINtB5_6ResultNtNtCs5AlOhPCr03V_3syn4item8ItemEnumNtNtBO_5error5ErrorEINtNtNtB7_3ops9try_trait12FromResidualIBy_NtNtB7_7convert10InfallibleB1k_EE13from_residualBO_, symObjAddr: 0x12404, symBinAddr: 0x5823C, symSize: 0x48 }
  - { offset: 0xCEE02, size: 0x8, addend: 0x0, symName: __RNvXsp_NtCsfvfooZQ3Axs_4core6resultINtB5_6ResultNtNtCs5AlOhPCr03V_3syn4item8ReceiverNtNtBO_5error5ErrorEINtNtNtB7_3ops9try_trait12FromResidualIBy_NtNtB7_7convert10InfallibleB1k_EE13from_residualBO_, symObjAddr: 0x12494, symBinAddr: 0x58284, symSize: 0x48 }
  - { offset: 0xCEE87, size: 0x8, addend: 0x0, symName: __RNvXsp_NtCsfvfooZQ3Axs_4core6resultINtB5_6ResultNtNtCs5AlOhPCr03V_3syn4item9ItemMacroNtNtBO_5error5ErrorEINtNtNtB7_3ops9try_trait12FromResidualIBy_NtNtB7_7convert10InfallibleB1l_EE13from_residualBO_, symObjAddr: 0x12524, symBinAddr: 0x582CC, symSize: 0x48 }
  - { offset: 0xCEF0C, size: 0x8, addend: 0x0, symName: __RNvXsp_NtCsfvfooZQ3Axs_4core6resultINtB5_6ResultNtNtCs5AlOhPCr03V_3syn4item9ItemTraitNtNtBO_5error5ErrorEINtNtNtB7_3ops9try_trait12FromResidualIBy_NtNtB7_7convert10InfallibleB1l_EE13from_residualBO_, symObjAddr: 0x1256C, symBinAddr: 0x58314, symSize: 0x48 }
  - { offset: 0xCEF91, size: 0x8, addend: 0x0, symName: __RNvXsp_NtCsfvfooZQ3Axs_4core6resultINtB5_6ResultNtNtCs5AlOhPCr03V_3syn4item9ItemUnionNtNtBO_5error5ErrorEINtNtNtB7_3ops9try_trait12FromResidualIBy_NtNtB7_7convert10InfallibleB1l_EE13from_residualBO_, symObjAddr: 0x125B4, symBinAddr: 0x5835C, symSize: 0x48 }
  - { offset: 0xCF016, size: 0x8, addend: 0x0, symName: __RNvXsp_NtCsfvfooZQ3Axs_4core6resultINtB5_6ResultNtNtCs5AlOhPCr03V_3syn4item9SignatureNtNtBO_5error5ErrorEINtNtNtB7_3ops9try_trait12FromResidualIBy_NtNtB7_7convert10InfallibleB1l_EE13from_residualBO_, symObjAddr: 0x125FC, symBinAddr: 0x583A4, symSize: 0x48 }
  - { offset: 0xCF09B, size: 0x8, addend: 0x0, symName: __RNvXsp_NtCsfvfooZQ3Axs_4core6resultINtB5_6ResultNtNtCs5AlOhPCr03V_3syn4item9TraitItemNtNtBO_5error5ErrorEINtNtNtB7_3ops9try_trait12FromResidualIBy_NtNtB7_7convert10InfallibleB1l_EE13from_residualBO_, symObjAddr: 0x12644, symBinAddr: 0x583EC, symSize: 0x4C }
  - { offset: 0xCF120, size: 0x8, addend: 0x0, symName: __RNvXsp_NtCsfvfooZQ3Axs_4core6resultINtB5_6ResultNtNtCs5AlOhPCr03V_3syn4path10ConstraintNtNtBO_5error5ErrorEINtNtNtB7_3ops9try_trait12FromResidualIBy_NtNtB7_7convert10InfallibleB1n_EE13from_residualBO_, symObjAddr: 0x12690, symBinAddr: 0x58438, symSize: 0x48 }
  - { offset: 0xCF1A5, size: 0x8, addend: 0x0, symName: __RNvXsp_NtCsfvfooZQ3Axs_4core6resultINtB5_6ResultNtNtCs5AlOhPCr03V_3syn4path11PathSegmentNtNtBO_5error5ErrorEINtNtNtB7_3ops9try_trait12FromResidualIBy_NtNtB7_7convert10InfallibleB1o_EE13from_residualBO_, symObjAddr: 0x126D8, symBinAddr: 0x58480, symSize: 0x48 }
  - { offset: 0xCF22A, size: 0x8, addend: 0x0, symName: __RNvXsp_NtCsfvfooZQ3Axs_4core6resultINtB5_6ResultNtNtCs5AlOhPCr03V_3syn4path15GenericArgumentNtNtBO_5error5ErrorEINtNtNtB7_3ops9try_trait12FromResidualIBy_NtNtB7_7convert10InfallibleB1s_EE13from_residualBO_, symObjAddr: 0x12720, symBinAddr: 0x584C8, symSize: 0x4C }
  - { offset: 0xCF2AF, size: 0x8, addend: 0x0, symName: __RNvXsp_NtCsfvfooZQ3Axs_4core6resultINtB5_6ResultNtNtCs5AlOhPCr03V_3syn4path29ParenthesizedGenericArgumentsNtNtBO_5error5ErrorEINtNtNtB7_3ops9try_trait12FromResidualIBy_NtNtB7_7convert10InfallibleB1G_EE13from_residualBO_, symObjAddr: 0x1276C, symBinAddr: 0x58514, symSize: 0x48 }
  - { offset: 0xCF334, size: 0x8, addend: 0x0, symName: __RNvXsp_NtCsfvfooZQ3Axs_4core6resultINtB5_6ResultNtNtCs5AlOhPCr03V_3syn4path30AngleBracketedGenericArgumentsNtNtBO_5error5ErrorEINtNtNtB7_3ops9try_trait12FromResidualIBy_NtNtB7_7convert10InfallibleB1H_EE13from_residualBO_, symObjAddr: 0x127B4, symBinAddr: 0x5855C, symSize: 0x48 }
  - { offset: 0xCF3B9, size: 0x8, addend: 0x0, symName: __RNvXsp_NtCsfvfooZQ3Axs_4core6resultINtB5_6ResultNtNtCs5AlOhPCr03V_3syn4path4PathNtNtBO_5error5ErrorEINtNtNtB7_3ops9try_trait12FromResidualIBy_NtNtB7_7convert10InfallibleB1g_EE13from_residualBO_, symObjAddr: 0x127FC, symBinAddr: 0x585A4, symSize: 0x48 }
  - { offset: 0xCF43E, size: 0x8, addend: 0x0, symName: __RNvXsp_NtCsfvfooZQ3Axs_4core6resultINtB5_6ResultNtNtCs5AlOhPCr03V_3syn4stmt4StmtNtNtBO_5error5ErrorEINtNtNtB7_3ops9try_trait12FromResidualIBy_NtNtB7_7convert10InfallibleB1g_EE13from_residualBO_, symObjAddr: 0x12890, symBinAddr: 0x585EC, symSize: 0x48 }
  - { offset: 0xCF4C3, size: 0x8, addend: 0x0, symName: __RNvXsp_NtCsfvfooZQ3Axs_4core6resultINtB5_6ResultNtNtCs5AlOhPCr03V_3syn4stmt5BlockNtNtBO_5error5ErrorEINtNtNtB7_3ops9try_trait12FromResidualIBy_NtNtB7_7convert10InfallibleB1h_EE13from_residualBO_, symObjAddr: 0x128D8, symBinAddr: 0x58634, symSize: 0x48 }
  - { offset: 0xCF548, size: 0x8, addend: 0x0, symName: __RNvXsp_NtCsfvfooZQ3Axs_4core6resultINtB5_6ResultNtNtCs5AlOhPCr03V_3syn5token10UnderscoreNtNtBO_5error5ErrorEINtNtNtB7_3ops9try_trait12FromResidualIBy_NtNtB7_7convert10InfallibleB1o_EE13from_residualBO_, symObjAddr: 0x12920, symBinAddr: 0x5867C, symSize: 0x40 }
  - { offset: 0xCF5CD, size: 0x8, addend: 0x0, symName: __RNvXsp_NtCsfvfooZQ3Axs_4core6resultINtB5_6ResultNtNtCs5AlOhPCr03V_3syn5token2AsNtNtBO_5error5ErrorEINtNtNtB7_3ops9try_trait12FromResidualIBy_NtNtB7_7convert10InfallibleB1f_EE13from_residualBO_, symObjAddr: 0x12960, symBinAddr: 0x586BC, symSize: 0x40 }
  - { offset: 0xCF652, size: 0x8, addend: 0x0, symName: __RNvXsp_NtCsfvfooZQ3Axs_4core6resultINtB5_6ResultNtNtCs5AlOhPCr03V_3syn5token2AtNtNtBO_5error5ErrorEINtNtNtB7_3ops9try_trait12FromResidualIBy_NtNtB7_7convert10InfallibleB1f_EE13from_residualBO_, symObjAddr: 0x129A0, symBinAddr: 0x586FC, symSize: 0x40 }
  - { offset: 0xCF6D7, size: 0x8, addend: 0x0, symName: __RNvXsp_NtCsfvfooZQ3Axs_4core6resultINtB5_6ResultNtNtCs5AlOhPCr03V_3syn5token2EqNtNtBO_5error5ErrorEINtNtNtB7_3ops9try_trait12FromResidualIBy_NtNtB7_7convert10InfallibleB1f_EE13from_residualBO_, symObjAddr: 0x12A20, symBinAddr: 0x5873C, symSize: 0x40 }
  - { offset: 0xCF75C, size: 0x8, addend: 0x0, symName: __RNvXsp_NtCsfvfooZQ3Axs_4core6resultINtB5_6ResultNtNtCs5AlOhPCr03V_3syn5token2FnNtNtBO_5error5ErrorEINtNtNtB7_3ops9try_trait12FromResidualIBy_NtNtB7_7convert10InfallibleB1f_EE13from_residualBO_, symObjAddr: 0x12A60, symBinAddr: 0x5877C, symSize: 0x40 }
  - { offset: 0xCF7E1, size: 0x8, addend: 0x0, symName: __RNvXsp_NtCsfvfooZQ3Axs_4core6resultINtB5_6ResultNtNtCs5AlOhPCr03V_3syn5token2GeNtNtBO_5error5ErrorEINtNtNtB7_3ops9try_trait12FromResidualIBy_NtNtB7_7convert10InfallibleB1f_EE13from_residualBO_, symObjAddr: 0x12AA0, symBinAddr: 0x587BC, symSize: 0x40 }
  - { offset: 0xCF866, size: 0x8, addend: 0x0, symName: __RNvXsp_NtCsfvfooZQ3Axs_4core6resultINtB5_6ResultNtNtCs5AlOhPCr03V_3syn5token2GtNtNtBO_5error5ErrorEINtNtNtB7_3ops9try_trait12FromResidualIBy_NtNtB7_7convert10InfallibleB1f_EE13from_residualBO_, symObjAddr: 0x12AE0, symBinAddr: 0x587FC, symSize: 0x40 }
  - { offset: 0xCF8EB, size: 0x8, addend: 0x0, symName: __RNvXsp_NtCsfvfooZQ3Axs_4core6resultINtB5_6ResultNtNtCs5AlOhPCr03V_3syn5token2IfNtNtBO_5error5ErrorEINtNtNtB7_3ops9try_trait12FromResidualIBy_NtNtB7_7convert10InfallibleB1f_EE13from_residualBO_, symObjAddr: 0x12B20, symBinAddr: 0x5883C, symSize: 0x40 }
  - { offset: 0xCF970, size: 0x8, addend: 0x0, symName: __RNvXsp_NtCsfvfooZQ3Axs_4core6resultINtB5_6ResultNtNtCs5AlOhPCr03V_3syn5token2InNtNtBO_5error5ErrorEINtNtNtB7_3ops9try_trait12FromResidualIBy_NtNtB7_7convert10InfallibleB1f_EE13from_residualBO_, symObjAddr: 0x12B60, symBinAddr: 0x5887C, symSize: 0x40 }
  - { offset: 0xCF9F5, size: 0x8, addend: 0x0, symName: __RNvXsp_NtCsfvfooZQ3Axs_4core6resultINtB5_6ResultNtNtCs5AlOhPCr03V_3syn5token2LeNtNtBO_5error5ErrorEINtNtNtB7_3ops9try_trait12FromResidualIBy_NtNtB7_7convert10InfallibleB1f_EE13from_residualBO_, symObjAddr: 0x12BA0, symBinAddr: 0x588BC, symSize: 0x40 }
  - { offset: 0xCFA7A, size: 0x8, addend: 0x0, symName: __RNvXsp_NtCsfvfooZQ3Axs_4core6resultINtB5_6ResultNtNtCs5AlOhPCr03V_3syn5token2LtNtNtBO_5error5ErrorEINtNtNtB7_3ops9try_trait12FromResidualIBy_NtNtB7_7convert10InfallibleB1f_EE13from_residualBO_, symObjAddr: 0x12BE0, symBinAddr: 0x588FC, symSize: 0x40 }
  - { offset: 0xCFAFF, size: 0x8, addend: 0x0, symName: __RNvXsp_NtCsfvfooZQ3Axs_4core6resultINtB5_6ResultNtNtCs5AlOhPCr03V_3syn5token2NeNtNtBO_5error5ErrorEINtNtNtB7_3ops9try_trait12FromResidualIBy_NtNtB7_7convert10InfallibleB1f_EE13from_residualBO_, symObjAddr: 0x12C20, symBinAddr: 0x5893C, symSize: 0x40 }
  - { offset: 0xCFB84, size: 0x8, addend: 0x0, symName: __RNvXsp_NtCsfvfooZQ3Axs_4core6resultINtB5_6ResultNtNtCs5AlOhPCr03V_3syn5token2OrNtNtBO_5error5ErrorEINtNtNtB7_3ops9try_trait12FromResidualIBy_NtNtB7_7convert10InfallibleB1f_EE13from_residualBO_, symObjAddr: 0x12C60, symBinAddr: 0x5897C, symSize: 0x40 }
  - { offset: 0xCFC09, size: 0x8, addend: 0x0, symName: __RNvXsp_NtCsfvfooZQ3Axs_4core6resultINtB5_6ResultNtNtCs5AlOhPCr03V_3syn5token3AddNtNtBO_5error5ErrorEINtNtNtB7_3ops9try_trait12FromResidualIBy_NtNtB7_7convert10InfallibleB1g_EE13from_residualBO_, symObjAddr: 0x12CA0, symBinAddr: 0x589BC, symSize: 0x40 }
  - { offset: 0xCFC8E, size: 0x8, addend: 0x0, symName: __RNvXsp_NtCsfvfooZQ3Axs_4core6resultINtB5_6ResultNtNtCs5AlOhPCr03V_3syn5token3AndNtNtBO_5error5ErrorEINtNtNtB7_3ops9try_trait12FromResidualIBy_NtNtB7_7convert10InfallibleB1g_EE13from_residualBO_, symObjAddr: 0x12CE0, symBinAddr: 0x589FC, symSize: 0x40 }
  - { offset: 0xCFD13, size: 0x8, addend: 0x0, symName: __RNvXsp_NtCsfvfooZQ3Axs_4core6resultINtB5_6ResultNtNtCs5AlOhPCr03V_3syn5token3BoxNtNtBO_5error5ErrorEINtNtNtB7_3ops9try_trait12FromResidualIBy_NtNtB7_7convert10InfallibleB1g_EE13from_residualBO_, symObjAddr: 0x12D20, symBinAddr: 0x58A3C, symSize: 0x40 }
  - { offset: 0xCFD98, size: 0x8, addend: 0x0, symName: __RNvXsp_NtCsfvfooZQ3Axs_4core6resultINtB5_6ResultNtNtCs5AlOhPCr03V_3syn5token3DivNtNtBO_5error5ErrorEINtNtNtB7_3ops9try_trait12FromResidualIBy_NtNtB7_7convert10InfallibleB1g_EE13from_residualBO_, symObjAddr: 0x12D60, symBinAddr: 0x58A7C, symSize: 0x40 }
  - { offset: 0xCFE1D, size: 0x8, addend: 0x0, symName: __RNvXsp_NtCsfvfooZQ3Axs_4core6resultINtB5_6ResultNtNtCs5AlOhPCr03V_3syn5token3DotNtNtBO_5error5ErrorEINtNtNtB7_3ops9try_trait12FromResidualIBy_NtNtB7_7convert10InfallibleB1g_EE13from_residualBO_, symObjAddr: 0x12DA0, symBinAddr: 0x58ABC, symSize: 0x40 }
  - { offset: 0xCFEA2, size: 0x8, addend: 0x0, symName: __RNvXsp_NtCsfvfooZQ3Axs_4core6resultINtB5_6ResultNtNtCs5AlOhPCr03V_3syn5token3DynNtNtBO_5error5ErrorEINtNtNtB7_3ops9try_trait12FromResidualIBy_NtNtB7_7convert10InfallibleB1g_EE13from_residualBO_, symObjAddr: 0x12DE0, symBinAddr: 0x58AFC, symSize: 0x40 }
  - { offset: 0xCFF27, size: 0x8, addend: 0x0, symName: __RNvXsp_NtCsfvfooZQ3Axs_4core6resultINtB5_6ResultNtNtCs5AlOhPCr03V_3syn5token3ForNtNtBO_5error5ErrorEINtNtNtB7_3ops9try_trait12FromResidualIBy_NtNtB7_7convert10InfallibleB1g_EE13from_residualBO_, symObjAddr: 0x12E20, symBinAddr: 0x58B3C, symSize: 0x40 }
  - { offset: 0xCFFAC, size: 0x8, addend: 0x0, symName: __RNvXsp_NtCsfvfooZQ3Axs_4core6resultINtB5_6ResultNtNtCs5AlOhPCr03V_3syn5token3LetNtNtBO_5error5ErrorEINtNtNtB7_3ops9try_trait12FromResidualIBy_NtNtB7_7convert10InfallibleB1g_EE13from_residualBO_, symObjAddr: 0x12E60, symBinAddr: 0x58B7C, symSize: 0x40 }
  - { offset: 0xD0031, size: 0x8, addend: 0x0, symName: __RNvXsp_NtCsfvfooZQ3Axs_4core6resultINtB5_6ResultNtNtCs5AlOhPCr03V_3syn5token3ModNtNtBO_5error5ErrorEINtNtNtB7_3ops9try_trait12FromResidualIBy_NtNtB7_7convert10InfallibleB1g_EE13from_residualBO_, symObjAddr: 0x12EA0, symBinAddr: 0x58BBC, symSize: 0x40 }
  - { offset: 0xD00B6, size: 0x8, addend: 0x0, symName: __RNvXsp_NtCsfvfooZQ3Axs_4core6resultINtB5_6ResultNtNtCs5AlOhPCr03V_3syn5token3MutNtNtBO_5error5ErrorEINtNtNtB7_3ops9try_trait12FromResidualIBy_NtNtB7_7convert10InfallibleB1g_EE13from_residualBO_, symObjAddr: 0x12EE0, symBinAddr: 0x58BFC, symSize: 0x40 }
  - { offset: 0xD013B, size: 0x8, addend: 0x0, symName: __RNvXsp_NtCsfvfooZQ3Axs_4core6resultINtB5_6ResultNtNtCs5AlOhPCr03V_3syn5token3PubNtNtBO_5error5ErrorEINtNtNtB7_3ops9try_trait12FromResidualIBy_NtNtB7_7convert10InfallibleB1g_EE13from_residualBO_, symObjAddr: 0x12F20, symBinAddr: 0x58C3C, symSize: 0x40 }
  - { offset: 0xD01C0, size: 0x8, addend: 0x0, symName: __RNvXsp_NtCsfvfooZQ3Axs_4core6resultINtB5_6ResultNtNtCs5AlOhPCr03V_3syn5token3RefNtNtBO_5error5ErrorEINtNtNtB7_3ops9try_trait12FromResidualIBy_NtNtB7_7convert10InfallibleB1g_EE13from_residualBO_, symObjAddr: 0x12F60, symBinAddr: 0x58C7C, symSize: 0x40 }
  - { offset: 0xD0245, size: 0x8, addend: 0x0, symName: __RNvXsp_NtCsfvfooZQ3Axs_4core6resultINtB5_6ResultNtNtCs5AlOhPCr03V_3syn5token3RemNtNtBO_5error5ErrorEINtNtNtB7_3ops9try_trait12FromResidualIBy_NtNtB7_7convert10InfallibleB1g_EE13from_residualBO_, symObjAddr: 0x12FA0, symBinAddr: 0x58CBC, symSize: 0x40 }
  - { offset: 0xD02CA, size: 0x8, addend: 0x0, symName: __RNvXsp_NtCsfvfooZQ3Axs_4core6resultINtB5_6ResultNtNtCs5AlOhPCr03V_3syn5token3ShlNtNtBO_5error5ErrorEINtNtNtB7_3ops9try_trait12FromResidualIBy_NtNtB7_7convert10InfallibleB1g_EE13from_residualBO_, symObjAddr: 0x12FE0, symBinAddr: 0x58CFC, symSize: 0x40 }
  - { offset: 0xD034F, size: 0x8, addend: 0x0, symName: __RNvXsp_NtCsfvfooZQ3Axs_4core6resultINtB5_6ResultNtNtCs5AlOhPCr03V_3syn5token3ShrNtNtBO_5error5ErrorEINtNtNtB7_3ops9try_trait12FromResidualIBy_NtNtB7_7convert10InfallibleB1g_EE13from_residualBO_, symObjAddr: 0x13020, symBinAddr: 0x58D3C, symSize: 0x40 }
  - { offset: 0xD03D4, size: 0x8, addend: 0x0, symName: __RNvXsp_NtCsfvfooZQ3Axs_4core6resultINtB5_6ResultNtNtCs5AlOhPCr03V_3syn5token3SubNtNtBO_5error5ErrorEINtNtNtB7_3ops9try_trait12FromResidualIBy_NtNtB7_7convert10InfallibleB1g_EE13from_residualBO_, symObjAddr: 0x13060, symBinAddr: 0x58D7C, symSize: 0x40 }
  - { offset: 0xD0459, size: 0x8, addend: 0x0, symName: __RNvXsp_NtCsfvfooZQ3Axs_4core6resultINtB5_6ResultNtNtCs5AlOhPCr03V_3syn5token3TryNtNtBO_5error5ErrorEINtNtNtB7_3ops9try_trait12FromResidualIBy_NtNtB7_7convert10InfallibleB1g_EE13from_residualBO_, symObjAddr: 0x130A0, symBinAddr: 0x58DBC, symSize: 0x40 }
  - { offset: 0xD04DE, size: 0x8, addend: 0x0, symName: __RNvXsp_NtCsfvfooZQ3Axs_4core6resultINtB5_6ResultNtNtCs5AlOhPCr03V_3syn5token3UseNtNtBO_5error5ErrorEINtNtNtB7_3ops9try_trait12FromResidualIBy_NtNtB7_7convert10InfallibleB1g_EE13from_residualBO_, symObjAddr: 0x130E0, symBinAddr: 0x58DFC, symSize: 0x40 }
  - { offset: 0xD0563, size: 0x8, addend: 0x0, symName: __RNvXsp_NtCsfvfooZQ3Axs_4core6resultINtB5_6ResultNtNtCs5AlOhPCr03V_3syn5token4AutoNtNtBO_5error5ErrorEINtNtNtB7_3ops9try_trait12FromResidualIBy_NtNtB7_7convert10InfallibleB1h_EE13from_residualBO_, symObjAddr: 0x13120, symBinAddr: 0x58E3C, symSize: 0x40 }
  - { offset: 0xD05E8, size: 0x8, addend: 0x0, symName: __RNvXsp_NtCsfvfooZQ3Axs_4core6resultINtB5_6ResultNtNtCs5AlOhPCr03V_3syn5token4BangNtNtBO_5error5ErrorEINtNtNtB7_3ops9try_trait12FromResidualIBy_NtNtB7_7convert10InfallibleB1h_EE13from_residualBO_, symObjAddr: 0x13160, symBinAddr: 0x58E7C, symSize: 0x40 }
  - { offset: 0xD066D, size: 0x8, addend: 0x0, symName: __RNvXsp_NtCsfvfooZQ3Axs_4core6resultINtB5_6ResultNtNtCs5AlOhPCr03V_3syn5token4Dot2NtNtBO_5error5ErrorEINtNtNtB7_3ops9try_trait12FromResidualIBy_NtNtB7_7convert10InfallibleB1h_EE13from_residualBO_, symObjAddr: 0x131A0, symBinAddr: 0x58EBC, symSize: 0x40 }
  - { offset: 0xD06F2, size: 0x8, addend: 0x0, symName: __RNvXsp_NtCsfvfooZQ3Axs_4core6resultINtB5_6ResultNtNtCs5AlOhPCr03V_3syn5token4Dot3NtNtBO_5error5ErrorEINtNtNtB7_3ops9try_trait12FromResidualIBy_NtNtB7_7convert10InfallibleB1h_EE13from_residualBO_, symObjAddr: 0x131E0, symBinAddr: 0x58EFC, symSize: 0x40 }
  - { offset: 0xD0777, size: 0x8, addend: 0x0, symName: __RNvXsp_NtCsfvfooZQ3Axs_4core6resultINtB5_6ResultNtNtCs5AlOhPCr03V_3syn5token4ElseNtNtBO_5error5ErrorEINtNtNtB7_3ops9try_trait12FromResidualIBy_NtNtB7_7convert10InfallibleB1h_EE13from_residualBO_, symObjAddr: 0x13220, symBinAddr: 0x58F3C, symSize: 0x40 }
  - { offset: 0xD07FC, size: 0x8, addend: 0x0, symName: __RNvXsp_NtCsfvfooZQ3Axs_4core6resultINtB5_6ResultNtNtCs5AlOhPCr03V_3syn5token4EnumNtNtBO_5error5ErrorEINtNtNtB7_3ops9try_trait12FromResidualIBy_NtNtB7_7convert10InfallibleB1h_EE13from_residualBO_, symObjAddr: 0x13260, symBinAddr: 0x58F7C, symSize: 0x40 }
  - { offset: 0xD0881, size: 0x8, addend: 0x0, symName: __RNvXsp_NtCsfvfooZQ3Axs_4core6resultINtB5_6ResultNtNtCs5AlOhPCr03V_3syn5token4EqEqNtNtBO_5error5ErrorEINtNtNtB7_3ops9try_trait12FromResidualIBy_NtNtB7_7convert10InfallibleB1h_EE13from_residualBO_, symObjAddr: 0x132A0, symBinAddr: 0x58FBC, symSize: 0x40 }
  - { offset: 0xD0906, size: 0x8, addend: 0x0, symName: __RNvXsp_NtCsfvfooZQ3Axs_4core6resultINtB5_6ResultNtNtCs5AlOhPCr03V_3syn5token4ImplNtNtBO_5error5ErrorEINtNtNtB7_3ops9try_trait12FromResidualIBy_NtNtB7_7convert10InfallibleB1h_EE13from_residualBO_, symObjAddr: 0x132E0, symBinAddr: 0x58FFC, symSize: 0x40 }
  - { offset: 0xD098B, size: 0x8, addend: 0x0, symName: __RNvXsp_NtCsfvfooZQ3Axs_4core6resultINtB5_6ResultNtNtCs5AlOhPCr03V_3syn5token4LoopNtNtBO_5error5ErrorEINtNtNtB7_3ops9try_trait12FromResidualIBy_NtNtB7_7convert10InfallibleB1h_EE13from_residualBO_, symObjAddr: 0x13320, symBinAddr: 0x5903C, symSize: 0x40 }
  - { offset: 0xD0A10, size: 0x8, addend: 0x0, symName: __RNvXsp_NtCsfvfooZQ3Axs_4core6resultINtB5_6ResultNtNtCs5AlOhPCr03V_3syn5token4MoveNtNtBO_5error5ErrorEINtNtNtB7_3ops9try_trait12FromResidualIBy_NtNtB7_7convert10InfallibleB1h_EE13from_residualBO_, symObjAddr: 0x13360, symBinAddr: 0x5907C, symSize: 0x40 }
  - { offset: 0xD0A95, size: 0x8, addend: 0x0, symName: __RNvXsp_NtCsfvfooZQ3Axs_4core6resultINtB5_6ResultNtNtCs5AlOhPCr03V_3syn5token4OrEqNtNtBO_5error5ErrorEINtNtNtB7_3ops9try_trait12FromResidualIBy_NtNtB7_7convert10InfallibleB1h_EE13from_residualBO_, symObjAddr: 0x133A0, symBinAddr: 0x590BC, symSize: 0x40 }
  - { offset: 0xD0B1A, size: 0x8, addend: 0x0, symName: __RNvXsp_NtCsfvfooZQ3Axs_4core6resultINtB5_6ResultNtNtCs5AlOhPCr03V_3syn5token4OrOrNtNtBO_5error5ErrorEINtNtNtB7_3ops9try_trait12FromResidualIBy_NtNtB7_7convert10InfallibleB1h_EE13from_residualBO_, symObjAddr: 0x133E0, symBinAddr: 0x590FC, symSize: 0x40 }
  - { offset: 0xD0B9F, size: 0x8, addend: 0x0, symName: __RNvXsp_NtCsfvfooZQ3Axs_4core6resultINtB5_6ResultNtNtCs5AlOhPCr03V_3syn5token4SemiNtNtBO_5error5ErrorEINtNtNtB7_3ops9try_trait12FromResidualIBy_NtNtB7_7convert10InfallibleB1h_EE13from_residualBO_, symObjAddr: 0x13460, symBinAddr: 0x5913C, symSize: 0x40 }
  - { offset: 0xD0C24, size: 0x8, addend: 0x0, symName: __RNvXsp_NtCsfvfooZQ3Axs_4core6resultINtB5_6ResultNtNtCs5AlOhPCr03V_3syn5token4StarNtNtBO_5error5ErrorEINtNtNtB7_3ops9try_trait12FromResidualIBy_NtNtB7_7convert10InfallibleB1h_EE13from_residualBO_, symObjAddr: 0x134A0, symBinAddr: 0x5917C, symSize: 0x40 }
  - { offset: 0xD0CA9, size: 0x8, addend: 0x0, symName: __RNvXsp_NtCsfvfooZQ3Axs_4core6resultINtB5_6ResultNtNtCs5AlOhPCr03V_3syn5token4TypeNtNtBO_5error5ErrorEINtNtNtB7_3ops9try_trait12FromResidualIBy_NtNtB7_7convert10InfallibleB1h_EE13from_residualBO_, symObjAddr: 0x134E0, symBinAddr: 0x591BC, symSize: 0x40 }
  - { offset: 0xD0D2E, size: 0x8, addend: 0x0, symName: __RNvXsp_NtCsfvfooZQ3Axs_4core6resultINtB5_6ResultNtNtCs5AlOhPCr03V_3syn5token5AddEqNtNtBO_5error5ErrorEINtNtNtB7_3ops9try_trait12FromResidualIBy_NtNtB7_7convert10InfallibleB1i_EE13from_residualBO_, symObjAddr: 0x13520, symBinAddr: 0x591FC, symSize: 0x40 }
  - { offset: 0xD0DB3, size: 0x8, addend: 0x0, symName: __RNvXsp_NtCsfvfooZQ3Axs_4core6resultINtB5_6ResultNtNtCs5AlOhPCr03V_3syn5token5AndEqNtNtBO_5error5ErrorEINtNtNtB7_3ops9try_trait12FromResidualIBy_NtNtB7_7convert10InfallibleB1i_EE13from_residualBO_, symObjAddr: 0x13560, symBinAddr: 0x5923C, symSize: 0x40 }
  - { offset: 0xD0E38, size: 0x8, addend: 0x0, symName: __RNvXsp_NtCsfvfooZQ3Axs_4core6resultINtB5_6ResultNtNtCs5AlOhPCr03V_3syn5token5AsyncNtNtBO_5error5ErrorEINtNtNtB7_3ops9try_trait12FromResidualIBy_NtNtB7_7convert10InfallibleB1i_EE13from_residualBO_, symObjAddr: 0x135A0, symBinAddr: 0x5927C, symSize: 0x40 }
  - { offset: 0xD0EBD, size: 0x8, addend: 0x0, symName: __RNvXsp_NtCsfvfooZQ3Axs_4core6resultINtB5_6ResultNtNtCs5AlOhPCr03V_3syn5token5AwaitNtNtBO_5error5ErrorEINtNtNtB7_3ops9try_trait12FromResidualIBy_NtNtB7_7convert10InfallibleB1i_EE13from_residualBO_, symObjAddr: 0x135E0, symBinAddr: 0x592BC, symSize: 0x40 }
  - { offset: 0xD0F42, size: 0x8, addend: 0x0, symName: __RNvXsp_NtCsfvfooZQ3Axs_4core6resultINtB5_6ResultNtNtCs5AlOhPCr03V_3syn5token5BreakNtNtBO_5error5ErrorEINtNtNtB7_3ops9try_trait12FromResidualIBy_NtNtB7_7convert10InfallibleB1i_EE13from_residualBO_, symObjAddr: 0x13620, symBinAddr: 0x592FC, symSize: 0x40 }
  - { offset: 0xD0FC7, size: 0x8, addend: 0x0, symName: __RNvXsp_NtCsfvfooZQ3Axs_4core6resultINtB5_6ResultNtNtCs5AlOhPCr03V_3syn5token5CaretNtNtBO_5error5ErrorEINtNtNtB7_3ops9try_trait12FromResidualIBy_NtNtB7_7convert10InfallibleB1i_EE13from_residualBO_, symObjAddr: 0x13660, symBinAddr: 0x5933C, symSize: 0x40 }
  - { offset: 0xD104C, size: 0x8, addend: 0x0, symName: __RNvXsp_NtCsfvfooZQ3Axs_4core6resultINtB5_6ResultNtNtCs5AlOhPCr03V_3syn5token5ColonNtNtBO_5error5ErrorEINtNtNtB7_3ops9try_trait12FromResidualIBy_NtNtB7_7convert10InfallibleB1i_EE13from_residualBO_, symObjAddr: 0x136A0, symBinAddr: 0x5937C, symSize: 0x40 }
  - { offset: 0xD10D1, size: 0x8, addend: 0x0, symName: __RNvXsp_NtCsfvfooZQ3Axs_4core6resultINtB5_6ResultNtNtCs5AlOhPCr03V_3syn5token5CommaNtNtBO_5error5ErrorEINtNtNtB7_3ops9try_trait12FromResidualIBy_NtNtB7_7convert10InfallibleB1i_EE13from_residualBO_, symObjAddr: 0x136E0, symBinAddr: 0x593BC, symSize: 0x40 }
  - { offset: 0xD1156, size: 0x8, addend: 0x0, symName: __RNvXsp_NtCsfvfooZQ3Axs_4core6resultINtB5_6ResultNtNtCs5AlOhPCr03V_3syn5token5ConstNtNtBO_5error5ErrorEINtNtNtB7_3ops9try_trait12FromResidualIBy_NtNtB7_7convert10InfallibleB1i_EE13from_residualBO_, symObjAddr: 0x13720, symBinAddr: 0x593FC, symSize: 0x40 }
  - { offset: 0xD11DB, size: 0x8, addend: 0x0, symName: __RNvXsp_NtCsfvfooZQ3Axs_4core6resultINtB5_6ResultNtNtCs5AlOhPCr03V_3syn5token5CrateNtNtBO_5error5ErrorEINtNtNtB7_3ops9try_trait12FromResidualIBy_NtNtB7_7convert10InfallibleB1i_EE13from_residualBO_, symObjAddr: 0x13760, symBinAddr: 0x5943C, symSize: 0x40 }
  - { offset: 0xD1260, size: 0x8, addend: 0x0, symName: __RNvXsp_NtCsfvfooZQ3Axs_4core6resultINtB5_6ResultNtNtCs5AlOhPCr03V_3syn5token5DivEqNtNtBO_5error5ErrorEINtNtNtB7_3ops9try_trait12FromResidualIBy_NtNtB7_7convert10InfallibleB1i_EE13from_residualBO_, symObjAddr: 0x137A0, symBinAddr: 0x5947C, symSize: 0x40 }
  - { offset: 0xD12E5, size: 0x8, addend: 0x0, symName: __RNvXsp_NtCsfvfooZQ3Axs_4core6resultINtB5_6ResultNtNtCs5AlOhPCr03V_3syn5token5MacroNtNtBO_5error5ErrorEINtNtNtB7_3ops9try_trait12FromResidualIBy_NtNtB7_7convert10InfallibleB1i_EE13from_residualBO_, symObjAddr: 0x13820, symBinAddr: 0x594BC, symSize: 0x40 }
  - { offset: 0xD136A, size: 0x8, addend: 0x0, symName: __RNvXsp_NtCsfvfooZQ3Axs_4core6resultINtB5_6ResultNtNtCs5AlOhPCr03V_3syn5token5MatchNtNtBO_5error5ErrorEINtNtNtB7_3ops9try_trait12FromResidualIBy_NtNtB7_7convert10InfallibleB1i_EE13from_residualBO_, symObjAddr: 0x13860, symBinAddr: 0x594FC, symSize: 0x40 }
  - { offset: 0xD13EF, size: 0x8, addend: 0x0, symName: __RNvXsp_NtCsfvfooZQ3Axs_4core6resultINtB5_6ResultNtNtCs5AlOhPCr03V_3syn5token5MulEqNtNtBO_5error5ErrorEINtNtNtB7_3ops9try_trait12FromResidualIBy_NtNtB7_7convert10InfallibleB1i_EE13from_residualBO_, symObjAddr: 0x138A0, symBinAddr: 0x5953C, symSize: 0x40 }
  - { offset: 0xD1474, size: 0x8, addend: 0x0, symName: __RNvXsp_NtCsfvfooZQ3Axs_4core6resultINtB5_6ResultNtNtCs5AlOhPCr03V_3syn5token5PoundNtNtBO_5error5ErrorEINtNtNtB7_3ops9try_trait12FromResidualIBy_NtNtB7_7convert10InfallibleB1i_EE13from_residualBO_, symObjAddr: 0x138E0, symBinAddr: 0x5957C, symSize: 0x40 }
  - { offset: 0xD14F9, size: 0x8, addend: 0x0, symName: __RNvXsp_NtCsfvfooZQ3Axs_4core6resultINtB5_6ResultNtNtCs5AlOhPCr03V_3syn5token5RemEqNtNtBO_5error5ErrorEINtNtNtB7_3ops9try_trait12FromResidualIBy_NtNtB7_7convert10InfallibleB1i_EE13from_residualBO_, symObjAddr: 0x13920, symBinAddr: 0x595BC, symSize: 0x40 }
  - { offset: 0xD157E, size: 0x8, addend: 0x0, symName: __RNvXsp_NtCsfvfooZQ3Axs_4core6resultINtB5_6ResultNtNtCs5AlOhPCr03V_3syn5token5ShlEqNtNtBO_5error5ErrorEINtNtNtB7_3ops9try_trait12FromResidualIBy_NtNtB7_7convert10InfallibleB1i_EE13from_residualBO_, symObjAddr: 0x13960, symBinAddr: 0x595FC, symSize: 0x40 }
  - { offset: 0xD1603, size: 0x8, addend: 0x0, symName: __RNvXsp_NtCsfvfooZQ3Axs_4core6resultINtB5_6ResultNtNtCs5AlOhPCr03V_3syn5token5ShrEqNtNtBO_5error5ErrorEINtNtNtB7_3ops9try_trait12FromResidualIBy_NtNtB7_7convert10InfallibleB1i_EE13from_residualBO_, symObjAddr: 0x139A0, symBinAddr: 0x5963C, symSize: 0x40 }
  - { offset: 0xD1688, size: 0x8, addend: 0x0, symName: __RNvXsp_NtCsfvfooZQ3Axs_4core6resultINtB5_6ResultNtNtCs5AlOhPCr03V_3syn5token5SubEqNtNtBO_5error5ErrorEINtNtNtB7_3ops9try_trait12FromResidualIBy_NtNtB7_7convert10InfallibleB1i_EE13from_residualBO_, symObjAddr: 0x139E0, symBinAddr: 0x5967C, symSize: 0x40 }
  - { offset: 0xD170D, size: 0x8, addend: 0x0, symName: __RNvXsp_NtCsfvfooZQ3Axs_4core6resultINtB5_6ResultNtNtCs5AlOhPCr03V_3syn5token5TildeNtNtBO_5error5ErrorEINtNtNtB7_3ops9try_trait12FromResidualIBy_NtNtB7_7convert10InfallibleB1i_EE13from_residualBO_, symObjAddr: 0x13A60, symBinAddr: 0x596BC, symSize: 0x40 }
  - { offset: 0xD1792, size: 0x8, addend: 0x0, symName: __RNvXsp_NtCsfvfooZQ3Axs_4core6resultINtB5_6ResultNtNtCs5AlOhPCr03V_3syn5token5TraitNtNtBO_5error5ErrorEINtNtNtB7_3ops9try_trait12FromResidualIBy_NtNtB7_7convert10InfallibleB1i_EE13from_residualBO_, symObjAddr: 0x13AA0, symBinAddr: 0x596FC, symSize: 0x40 }
  - { offset: 0xD1817, size: 0x8, addend: 0x0, symName: __RNvXsp_NtCsfvfooZQ3Axs_4core6resultINtB5_6ResultNtNtCs5AlOhPCr03V_3syn5token5UnionNtNtBO_5error5ErrorEINtNtNtB7_3ops9try_trait12FromResidualIBy_NtNtB7_7convert10InfallibleB1i_EE13from_residualBO_, symObjAddr: 0x13AE0, symBinAddr: 0x5973C, symSize: 0x40 }
  - { offset: 0xD189C, size: 0x8, addend: 0x0, symName: __RNvXsp_NtCsfvfooZQ3Axs_4core6resultINtB5_6ResultNtNtCs5AlOhPCr03V_3syn5token5WhereNtNtBO_5error5ErrorEINtNtNtB7_3ops9try_trait12FromResidualIBy_NtNtB7_7convert10InfallibleB1i_EE13from_residualBO_, symObjAddr: 0x13B20, symBinAddr: 0x5977C, symSize: 0x40 }
  - { offset: 0xD1921, size: 0x8, addend: 0x0, symName: __RNvXsp_NtCsfvfooZQ3Axs_4core6resultINtB5_6ResultNtNtCs5AlOhPCr03V_3syn5token5WhileNtNtBO_5error5ErrorEINtNtNtB7_3ops9try_trait12FromResidualIBy_NtNtB7_7convert10InfallibleB1i_EE13from_residualBO_, symObjAddr: 0x13B60, symBinAddr: 0x597BC, symSize: 0x40 }
  - { offset: 0xD19A6, size: 0x8, addend: 0x0, symName: __RNvXsp_NtCsfvfooZQ3Axs_4core6resultINtB5_6ResultNtNtCs5AlOhPCr03V_3syn5token5YieldNtNtBO_5error5ErrorEINtNtNtB7_3ops9try_trait12FromResidualIBy_NtNtB7_7convert10InfallibleB1i_EE13from_residualBO_, symObjAddr: 0x13BA0, symBinAddr: 0x597FC, symSize: 0x40 }
  - { offset: 0xD1A2B, size: 0x8, addend: 0x0, symName: __RNvXsp_NtCsfvfooZQ3Axs_4core6resultINtB5_6ResultNtNtCs5AlOhPCr03V_3syn5token6AndAndNtNtBO_5error5ErrorEINtNtNtB7_3ops9try_trait12FromResidualIBy_NtNtB7_7convert10InfallibleB1j_EE13from_residualBO_, symObjAddr: 0x13BE0, symBinAddr: 0x5983C, symSize: 0x40 }
  - { offset: 0xD1AB0, size: 0x8, addend: 0x0, symName: __RNvXsp_NtCsfvfooZQ3Axs_4core6resultINtB5_6ResultNtNtCs5AlOhPCr03V_3syn5token6Colon2NtNtBO_5error5ErrorEINtNtNtB7_3ops9try_trait12FromResidualIBy_NtNtB7_7convert10InfallibleB1j_EE13from_residualBO_, symObjAddr: 0x13C60, symBinAddr: 0x5987C, symSize: 0x40 }
  - { offset: 0xD1B35, size: 0x8, addend: 0x0, symName: __RNvXsp_NtCsfvfooZQ3Axs_4core6resultINtB5_6ResultNtNtCs5AlOhPCr03V_3syn5token6ExternNtNtBO_5error5ErrorEINtNtNtB7_3ops9try_trait12FromResidualIBy_NtNtB7_7convert10InfallibleB1j_EE13from_residualBO_, symObjAddr: 0x13CE0, symBinAddr: 0x598BC, symSize: 0x40 }
  - { offset: 0xD1BBA, size: 0x8, addend: 0x0, symName: __RNvXsp_NtCsfvfooZQ3Axs_4core6resultINtB5_6ResultNtNtCs5AlOhPCr03V_3syn5token6RArrowNtNtBO_5error5ErrorEINtNtNtB7_3ops9try_trait12FromResidualIBy_NtNtB7_7convert10InfallibleB1j_EE13from_residualBO_, symObjAddr: 0x13D60, symBinAddr: 0x598FC, symSize: 0x40 }
  - { offset: 0xD1C3F, size: 0x8, addend: 0x0, symName: __RNvXsp_NtCsfvfooZQ3Axs_4core6resultINtB5_6ResultNtNtCs5AlOhPCr03V_3syn5token6ReturnNtNtBO_5error5ErrorEINtNtNtB7_3ops9try_trait12FromResidualIBy_NtNtB7_7convert10InfallibleB1j_EE13from_residualBO_, symObjAddr: 0x13DA0, symBinAddr: 0x5993C, symSize: 0x40 }
  - { offset: 0xD1CC4, size: 0x8, addend: 0x0, symName: __RNvXsp_NtCsfvfooZQ3Axs_4core6resultINtB5_6ResultNtNtCs5AlOhPCr03V_3syn5token6StaticNtNtBO_5error5ErrorEINtNtNtB7_3ops9try_trait12FromResidualIBy_NtNtB7_7convert10InfallibleB1j_EE13from_residualBO_, symObjAddr: 0x13DE0, symBinAddr: 0x5997C, symSize: 0x40 }
  - { offset: 0xD1D49, size: 0x8, addend: 0x0, symName: __RNvXsp_NtCsfvfooZQ3Axs_4core6resultINtB5_6ResultNtNtCs5AlOhPCr03V_3syn5token6StructNtNtBO_5error5ErrorEINtNtNtB7_3ops9try_trait12FromResidualIBy_NtNtB7_7convert10InfallibleB1j_EE13from_residualBO_, symObjAddr: 0x13E20, symBinAddr: 0x599BC, symSize: 0x40 }
  - { offset: 0xD1DCE, size: 0x8, addend: 0x0, symName: __RNvXsp_NtCsfvfooZQ3Axs_4core6resultINtB5_6ResultNtNtCs5AlOhPCr03V_3syn5token6UnsafeNtNtBO_5error5ErrorEINtNtNtB7_3ops9try_trait12FromResidualIBy_NtNtB7_7convert10InfallibleB1j_EE13from_residualBO_, symObjAddr: 0x13EA0, symBinAddr: 0x599FC, symSize: 0x40 }
  - { offset: 0xD1E53, size: 0x8, addend: 0x0, symName: __RNvXsp_NtCsfvfooZQ3Axs_4core6resultINtB5_6ResultNtNtCs5AlOhPCr03V_3syn5token7CaretEqNtNtBO_5error5ErrorEINtNtNtB7_3ops9try_trait12FromResidualIBy_NtNtB7_7convert10InfallibleB1k_EE13from_residualBO_, symObjAddr: 0x13EE0, symBinAddr: 0x59A3C, symSize: 0x40 }
  - { offset: 0xD1ED8, size: 0x8, addend: 0x0, symName: __RNvXsp_NtCsfvfooZQ3Axs_4core6resultINtB5_6ResultNtNtCs5AlOhPCr03V_3syn5token7DefaultNtNtBO_5error5ErrorEINtNtNtB7_3ops9try_trait12FromResidualIBy_NtNtB7_7convert10InfallibleB1k_EE13from_residualBO_, symObjAddr: 0x13F20, symBinAddr: 0x59A7C, symSize: 0x40 }
  - { offset: 0xD1F5D, size: 0x8, addend: 0x0, symName: __RNvXsp_NtCsfvfooZQ3Axs_4core6resultINtB5_6ResultNtNtCs5AlOhPCr03V_3syn5token8ContinueNtNtBO_5error5ErrorEINtNtNtB7_3ops9try_trait12FromResidualIBy_NtNtB7_7convert10InfallibleB1l_EE13from_residualBO_, symObjAddr: 0x14020, symBinAddr: 0x59ABC, symSize: 0x40 }
  - { offset: 0xD1FE2, size: 0x8, addend: 0x0, symName: __RNvXsp_NtCsfvfooZQ3Axs_4core6resultINtB5_6ResultNtNtCs5AlOhPCr03V_3syn5token8DotDotEqNtNtBO_5error5ErrorEINtNtNtB7_3ops9try_trait12FromResidualIBy_NtNtB7_7convert10InfallibleB1l_EE13from_residualBO_, symObjAddr: 0x14060, symBinAddr: 0x59AFC, symSize: 0x40 }
  - { offset: 0xD2067, size: 0x8, addend: 0x0, symName: __RNvXsp_NtCsfvfooZQ3Axs_4core6resultINtB5_6ResultNtNtCs5AlOhPCr03V_3syn5token8FatArrowNtNtBO_5error5ErrorEINtNtNtB7_3ops9try_trait12FromResidualIBy_NtNtB7_7convert10InfallibleB1l_EE13from_residualBO_, symObjAddr: 0x140A0, symBinAddr: 0x59B3C, symSize: 0x40 }
  - { offset: 0xD20EC, size: 0x8, addend: 0x0, symName: __RNvXsp_NtCsfvfooZQ3Axs_4core6resultINtB5_6ResultNtNtCs5AlOhPCr03V_3syn5token8QuestionNtNtBO_5error5ErrorEINtNtNtB7_3ops9try_trait12FromResidualIBy_NtNtB7_7convert10InfallibleB1l_EE13from_residualBO_, symObjAddr: 0x14120, symBinAddr: 0x59B7C, symSize: 0x40 }
  - { offset: 0xD2171, size: 0x8, addend: 0x0, symName: __RNvXsp_NtCsfvfooZQ3Axs_4core6resultINtB5_6ResultNtNtCs5AlOhPCr03V_3syn5token9SelfValueNtNtBO_5error5ErrorEINtNtNtB7_3ops9try_trait12FromResidualIBy_NtNtB7_7convert10InfallibleB1m_EE13from_residualBO_, symObjAddr: 0x141A0, symBinAddr: 0x59BBC, symSize: 0x40 }
  - { offset: 0xD21F6, size: 0x8, addend: 0x0, symName: __RNvXsp_NtCsfvfooZQ3Axs_4core6resultINtB5_6ResultNtNtCs5AlOhPCr03V_3syn6derive11DeriveInputNtNtBO_5error5ErrorEINtNtNtB7_3ops9try_trait12FromResidualIBy_NtNtB7_7convert10InfallibleB1q_EE13from_residualBO_, symObjAddr: 0x141E0, symBinAddr: 0x59BFC, symSize: 0x48 }
  - { offset: 0xD227B, size: 0x8, addend: 0x0, symName: __RNvXsp_NtCsfvfooZQ3Axs_4core6resultINtB5_6ResultNtNtCs5AlOhPCr03V_3syn8generics10ConstParamNtNtBO_5error5ErrorEINtNtNtB7_3ops9try_trait12FromResidualIBy_NtNtB7_7convert10InfallibleB1r_EE13from_residualBO_, symObjAddr: 0x14228, symBinAddr: 0x59C44, symSize: 0x48 }
  - { offset: 0xD2300, size: 0x8, addend: 0x0, symName: __RNvXsp_NtCsfvfooZQ3Axs_4core6resultINtB5_6ResultNtNtCs5AlOhPCr03V_3syn8generics10TraitBoundNtNtBO_5error5ErrorEINtNtNtB7_3ops9try_trait12FromResidualIBy_NtNtB7_7convert10InfallibleB1r_EE13from_residualBO_, symObjAddr: 0x14270, symBinAddr: 0x59C8C, symSize: 0x48 }
  - { offset: 0xD2385, size: 0x8, addend: 0x0, symName: __RNvXsp_NtCsfvfooZQ3Axs_4core6resultINtB5_6ResultNtNtCs5AlOhPCr03V_3syn8generics11LifetimeDefNtNtBO_5error5ErrorEINtNtNtB7_3ops9try_trait12FromResidualIBy_NtNtB7_7convert10InfallibleB1s_EE13from_residualBO_, symObjAddr: 0x142B8, symBinAddr: 0x59CD4, symSize: 0x48 }
  - { offset: 0xD240A, size: 0x8, addend: 0x0, symName: __RNvXsp_NtCsfvfooZQ3Axs_4core6resultINtB5_6ResultNtNtCs5AlOhPCr03V_3syn8generics11WhereClauseNtNtBO_5error5ErrorEINtNtNtB7_3ops9try_trait12FromResidualIBy_NtNtB7_7convert10InfallibleB1s_EE13from_residualBO_, symObjAddr: 0x14300, symBinAddr: 0x59D1C, symSize: 0x48 }
  - { offset: 0xD248F, size: 0x8, addend: 0x0, symName: __RNvXsp_NtCsfvfooZQ3Axs_4core6resultINtB5_6ResultNtNtCs5AlOhPCr03V_3syn8generics14BoundLifetimesNtNtBO_5error5ErrorEINtNtNtB7_3ops9try_trait12FromResidualIBy_NtNtB7_7convert10InfallibleB1v_EE13from_residualBO_, symObjAddr: 0x14394, symBinAddr: 0x59D64, symSize: 0x48 }
  - { offset: 0xD2514, size: 0x8, addend: 0x0, symName: __RNvXsp_NtCsfvfooZQ3Axs_4core6resultINtB5_6ResultNtNtCs5AlOhPCr03V_3syn8generics14TypeParamBoundNtNtBO_5error5ErrorEINtNtNtB7_3ops9try_trait12FromResidualIBy_NtNtB7_7convert10InfallibleB1v_EE13from_residualBO_, symObjAddr: 0x143DC, symBinAddr: 0x59DAC, symSize: 0x48 }
  - { offset: 0xD2599, size: 0x8, addend: 0x0, symName: __RNvXsp_NtCsfvfooZQ3Axs_4core6resultINtB5_6ResultNtNtCs5AlOhPCr03V_3syn8generics14WherePredicateNtNtBO_5error5ErrorEINtNtNtB7_3ops9try_trait12FromResidualIBy_NtNtB7_7convert10InfallibleB1v_EE13from_residualBO_, symObjAddr: 0x14424, symBinAddr: 0x59DF4, symSize: 0x4C }
  - { offset: 0xD261E, size: 0x8, addend: 0x0, symName: __RNvXsp_NtCsfvfooZQ3Axs_4core6resultINtB5_6ResultNtNtCs5AlOhPCr03V_3syn8generics8GenericsNtNtBO_5error5ErrorEINtNtNtB7_3ops9try_trait12FromResidualIBy_NtNtB7_7convert10InfallibleB1o_EE13from_residualBO_, symObjAddr: 0x14470, symBinAddr: 0x59E40, symSize: 0x48 }
  - { offset: 0xD26A3, size: 0x8, addend: 0x0, symName: __RNvXsp_NtCsfvfooZQ3Axs_4core6resultINtB5_6ResultNtNtCs5AlOhPCr03V_3syn8generics9TypeParamNtNtBO_5error5ErrorEINtNtNtB7_3ops9try_trait12FromResidualIBy_NtNtB7_7convert10InfallibleB1p_EE13from_residualBO_, symObjAddr: 0x144B8, symBinAddr: 0x59E88, symSize: 0x48 }
  - { offset: 0xD2728, size: 0x8, addend: 0x0, symName: __RNvXsp_NtCsfvfooZQ3Axs_4core6resultINtB5_6ResultNtNtCs5AlOhPCr03V_3syn8lifetime8LifetimeNtNtBO_5error5ErrorEINtNtNtB7_3ops9try_trait12FromResidualIBy_NtNtB7_7convert10InfallibleB1o_EE13from_residualBO_, symObjAddr: 0x14500, symBinAddr: 0x59ED0, symSize: 0x48 }
  - { offset: 0xD27AD, size: 0x8, addend: 0x0, symName: __RNvXsp_NtCsfvfooZQ3Axs_4core6resultINtB5_6ResultNtNtNtCs5AlOhPCr03V_3syn4expr7parsing3rawNtNtBQ_5error5ErrorEINtNtNtB7_3ops9try_trait12FromResidualIBy_NtNtB7_7convert10InfallibleB1p_EE13from_residualBQ_, symObjAddr: 0x14548, symBinAddr: 0x59F18, symSize: 0x40 }
  - { offset: 0xD2832, size: 0x8, addend: 0x0, symName: __RNvXsp_NtCsfvfooZQ3Axs_4core6resultINtB5_6ResultNtNtNtCs5AlOhPCr03V_3syn4item7parsing16FlexibleItemTypeNtNtBQ_5error5ErrorEINtNtNtB7_3ops9try_trait12FromResidualIBy_NtNtB7_7convert10InfallibleB1D_EE13from_residualBQ_, symObjAddr: 0x145C8, symBinAddr: 0x59F58, symSize: 0x48 }
  - { offset: 0xD28B7, size: 0x8, addend: 0x0, symName: __RNvXsp_NtCsfvfooZQ3Axs_4core6resultINtB5_6ResultTINtNtB7_6option6OptionNtNtCs5AlOhPCr03V_3syn4path5QSelfENtB19_4PathENtNtB1b_5error5ErrorEINtNtNtB7_3ops9try_trait12FromResidualIBy_NtNtB7_7convert10InfallibleB1R_EE13from_residualB1b_, symObjAddr: 0x14610, symBinAddr: 0x59FA0, symSize: 0x48 }
  - { offset: 0xD293C, size: 0x8, addend: 0x0, symName: __RNvXsp_NtCsfvfooZQ3Axs_4core6resultINtB5_6ResultTINtNtB7_6option6OptionNtNtCs5AlOhPCr03V_3syn8generics11WhereClauseENtNtB1b_4data11FieldsNamedENtNtB1b_5error5ErrorEINtNtNtB7_3ops9try_trait12FromResidualIBy_NtNtB7_7convert10InfallibleB2h_EE13from_residualB1b_, symObjAddr: 0x14658, symBinAddr: 0x59FE8, symSize: 0x48 }
  - { offset: 0xD29C1, size: 0x8, addend: 0x0, symName: __RNvXsp_NtCsfvfooZQ3Axs_4core6resultINtB5_6ResultTINtNtB7_6option6OptionNtNtCs5AlOhPCr03V_3syn8generics11WhereClauseENtNtB1b_4data6FieldsIBM_NtNtB1b_5token4SemiEENtNtB1b_5error5ErrorEINtNtNtB7_3ops9try_trait12FromResidualIBy_NtNtB7_7convert10InfallibleB2z_EE13from_residualB1b_, symObjAddr: 0x146A0, symBinAddr: 0x5A030, symSize: 0x48 }
  - { offset: 0xD2A46, size: 0x8, addend: 0x0, symName: __RNvXsp_NtCsfvfooZQ3Axs_4core6resultINtB5_6ResultTINtNtB7_6option6OptionNtNtCs5AlOhPCr03V_3syn8generics11WhereClauseENtNtB1b_5token5BraceINtNtB1b_10punctuated10PunctuatedNtNtB1b_4data7VariantNtB1S_5CommaEENtNtB1b_5error5ErrorEINtNtNtB7_3ops9try_trait12FromResidualIBy_NtNtB7_7convert10InfallibleB3g_EE13from_residualB1b_, symObjAddr: 0x146E8, symBinAddr: 0x5A078, symSize: 0x48 }
  - { offset: 0xD2ACB, size: 0x8, addend: 0x0, symName: __RNvXsp_NtCsfvfooZQ3Axs_4core6resultINtB5_6ResultTINtNtCse1nGBsou5OW_5alloc3vec3VecNtNtCs5AlOhPCr03V_3syn4attr9AttributeENtNtB1m_4data10VisibilityNtNtB1m_5token5TraitNtCs3cP53eQoTwO_11proc_macro25IdentNtNtB1m_8generics8GenericsENtNtB1m_5error5ErrorEINtNtNtB7_3ops9try_trait12FromResidualIBy_NtNtB7_7convert10InfallibleB3D_EE13from_residualB1m_, symObjAddr: 0x14730, symBinAddr: 0x5A0C0, symSize: 0x48 }
  - { offset: 0xD2B50, size: 0x8, addend: 0x0, symName: __RNvXsp_NtCsfvfooZQ3Axs_4core6resultINtB5_6ResultTNtCs3cP53eQoTwO_11proc_macro24SpanNtNtCs5AlOhPCr03V_3syn5parse11ParseBufferENtNtB1n_5error5ErrorEINtNtNtB7_3ops9try_trait12FromResidualIBy_NtNtB7_7convert10InfallibleB1Z_EE13from_residualB1n_, symObjAddr: 0x14778, symBinAddr: 0x5A108, symSize: 0x48 }
  - { offset: 0xD2BD5, size: 0x8, addend: 0x0, symName: __RNvXsp_NtCsfvfooZQ3Axs_4core6resultINtB5_6ResultTNtNtCs5AlOhPCr03V_3syn3mac14MacroDelimiterNtCs3cP53eQoTwO_11proc_macro211TokenStreamENtNtBP_5error5ErrorEINtNtNtB7_3ops9try_trait12FromResidualIBy_NtNtB7_7convert10InfallibleB28_EE13from_residualBP_, symObjAddr: 0x147C0, symBinAddr: 0x5A150, symSize: 0x48 }
  - { offset: 0xD2C5A, size: 0x8, addend: 0x0, symName: __RNvXsp_NtCsfvfooZQ3Axs_4core6resultINtB5_6ResultTNtNtCs5AlOhPCr03V_3syn5token4ElseINtNtCse1nGBsou5OW_5alloc5boxed3BoxNtNtBP_4expr4ExprEENtNtBP_5error5ErrorEINtNtNtB7_3ops9try_trait12FromResidualIBy_NtNtB7_7convert10InfallibleB2a_EE13from_residualBP_, symObjAddr: 0x14808, symBinAddr: 0x5A198, symSize: 0x40 }
  - { offset: 0xD2CDF, size: 0x8, addend: 0x0, symName: __RNvXsp_NtCsfvfooZQ3Axs_4core6resultINtB5_6ResultbNtNtCs5AlOhPCr03V_3syn5error5ErrorEINtNtNtB7_3ops9try_trait12FromResidualIBy_NtNtB7_7convert10InfallibleBL_EE13from_residualBP_, symObjAddr: 0x14848, symBinAddr: 0x5A1D8, symSize: 0x40 }
  - { offset: 0xD2D64, size: 0x8, addend: 0x0, symName: __RNvXsp_NtCsfvfooZQ3Axs_4core6resultINtB5_6ResultuNtNtCs5AlOhPCr03V_3syn5error5ErrorEINtNtNtB7_3ops9try_trait12FromResidualIBy_NtNtB7_7convert10InfallibleBL_EE13from_residualBP_, symObjAddr: 0x14888, symBinAddr: 0x5A218, symSize: 0x40 }
  - { offset: 0xD7FDA, size: 0x8, addend: 0x0, symName: __RINvYNtNtCs3cP53eQoTwO_11proc_macro212token_stream8IntoIterNtNtNtNtCsfvfooZQ3Axs_4core4iter6traits8iterator8Iterator4foldINtNtB13_6option6OptionNtB7_9TokenTreeEINvNvBV_4last4someB2i_EECs5AlOhPCr03V_3syn, symObjAddr: 0x56C0, symBinAddr: 0x4C7B0, symSize: 0x18C }
  - { offset: 0xD8070, size: 0x8, addend: 0x0, symName: __RNvYNtNtCs3cP53eQoTwO_11proc_macro212token_stream8IntoIterNtNtNtNtCsfvfooZQ3Axs_4core4iter6traits8iterator8Iterator4lastCs5AlOhPCr03V_3syn, symObjAddr: 0x149BC, symBinAddr: 0x5A2C4, symSize: 0x28 }
  - { offset: 0xD80A6, size: 0x8, addend: 0x0, symName: __RNvYNtNtCs3cP53eQoTwO_11proc_macro212token_stream8IntoIterNtNtNtNtCsfvfooZQ3Axs_4core4iter6traits8iterator8Iterator8peekableCs5AlOhPCr03V_3syn, symObjAddr: 0x149E4, symBinAddr: 0x5A2EC, symSize: 0x4C }
  - { offset: 0xD845F, size: 0x8, addend: 0x0, symName: __RNvNvMNtNtCsfvfooZQ3Axs_4core5alloc6layoutNtB4_6Layout25from_size_align_unchecked18precondition_checkCs5AlOhPCr03V_3syn, symObjAddr: 0x681C, symBinAddr: 0x4D600, symSize: 0x50 }
  - { offset: 0xE5088, size: 0x8, addend: 0x0, symName: __RNvXNtCs5AlOhPCr03V_3syn8reservedNtB2_8ReservedNtNtCsfvfooZQ3Axs_4core7default7Default7default, symObjAddr: 0x15618, symBinAddr: 0x5A3B8, symSize: 0x14 }
  - { offset: 0xE538D, size: 0x8, addend: 0x0, symName: __RINvCs5AlOhPCr03V_3syn6parse2NtNtB2_5token4Dot3EB2_, symObjAddr: 0x156AC, symBinAddr: 0x5A3CC, symSize: 0x24 }
  - { offset: 0xE53C5, size: 0x8, addend: 0x0, symName: __RINvCs5AlOhPCr03V_3syn9parse_strNtNtB2_4expr5IndexEB2_, symObjAddr: 0x156D0, symBinAddr: 0x5A3F0, symSize: 0x38 }
  - { offset: 0xE5B22, size: 0x8, addend: 0x0, symName: __RINvMNtCsfvfooZQ3Axs_4core6resultINtB3_6ResultNtCs3cP53eQoTwO_11proc_macro211TokenStreamNtNtCs5AlOhPCr03V_3syn5error5ErrorE3mapNtNtB1s_3pat3PatNcNtB21_8Verbatim0EB1s_, symObjAddr: 0x270, symBinAddr: 0x476F0, symSize: 0xC8 }
  - { offset: 0xE5BCD, size: 0x8, addend: 0x0, symName: __RINvMNtCsfvfooZQ3Axs_4core6resultINtB3_6ResultNtCs3cP53eQoTwO_11proc_macro211TokenStreamNtNtCs5AlOhPCr03V_3syn5error5ErrorE3mapNtNtB1s_4expr4ExprNcNtB21_8Verbatim0EB1s_, symObjAddr: 0x338, symBinAddr: 0x477B8, symSize: 0xC8 }
  - { offset: 0xE5C78, size: 0x8, addend: 0x0, symName: __RINvMNtCsfvfooZQ3Axs_4core6resultINtB3_6ResultNtCs3cP53eQoTwO_11proc_macro25IdentNtNtCs5AlOhPCr03V_3syn5error5ErrorE3mapNtNtB1l_4expr6MemberNcNtB1U_5Named0EB1l_, symObjAddr: 0x400, symBinAddr: 0x47880, symSize: 0xAC }
  - { offset: 0xE5D23, size: 0x8, addend: 0x0, symName: __RINvMNtCsfvfooZQ3Axs_4core6resultINtB3_6ResultNtNtCs5AlOhPCr03V_3syn2ty13TypeImplTraitNtNtBM_5error5ErrorE3mapNtBK_4TypeNcNtB1K_9ImplTrait0EBM_, symObjAddr: 0x4AC, symBinAddr: 0x4792C, symSize: 0xE0 }
  - { offset: 0xE5DCE, size: 0x8, addend: 0x0, symName: __RINvMNtCsfvfooZQ3Axs_4core6resultINtB3_6ResultNtNtCs5AlOhPCr03V_3syn2ty13TypeReferenceNtNtBM_5error5ErrorE3mapNtBK_4TypeNcNtB1K_9Reference0EBM_, symObjAddr: 0x58C, symBinAddr: 0x47A0C, symSize: 0xDC }
  - { offset: 0xE5E79, size: 0x8, addend: 0x0, symName: __RINvMNtCsfvfooZQ3Axs_4core6resultINtB3_6ResultNtNtCs5AlOhPCr03V_3syn2ty15TypeTraitObjectNtNtBM_5error5ErrorE3mapNtBK_4TypeNcNtB1M_11TraitObject0EBM_, symObjAddr: 0x668, symBinAddr: 0x47AE8, symSize: 0xE0 }
  - { offset: 0xE5F24, size: 0x8, addend: 0x0, symName: __RINvMNtCsfvfooZQ3Axs_4core6resultINtB3_6ResultNtNtCs5AlOhPCr03V_3syn2ty3AbiNtNtBM_5error5ErrorE3mapINtNtB5_6option6OptionBI_ENcNtB1z_4Some0EBM_, symObjAddr: 0x748, symBinAddr: 0x47BC8, symSize: 0xA4 }
  - { offset: 0xE5FCF, size: 0x8, addend: 0x0, symName: __RINvMNtCsfvfooZQ3Axs_4core6resultINtB3_6ResultNtNtCs5AlOhPCr03V_3syn2ty4TypeNtNtBM_5error5ErrorE3mapINtNtCse1nGBsou5OW_5alloc5boxed3BoxBI_ENvMB1D_B1A_3newEBM_, symObjAddr: 0x7EC, symBinAddr: 0x47C6C, symSize: 0xC0 }
  - { offset: 0xE607A, size: 0x8, addend: 0x0, symName: __RINvMNtCsfvfooZQ3Axs_4core6resultINtB3_6ResultNtNtCs5AlOhPCr03V_3syn2ty4TypeNtNtBM_5error5ErrorE3mapNtNtBM_4expr21GenericMethodArgumentNcNtB1A_4Type0EBM_, symObjAddr: 0x8AC, symBinAddr: 0x47D2C, symSize: 0xE0 }
  - { offset: 0xE6125, size: 0x8, addend: 0x0, symName: __RINvMNtCsfvfooZQ3Axs_4core6resultINtB3_6ResultNtNtCs5AlOhPCr03V_3syn2ty7TypePtrNtNtBM_5error5ErrorE3mapNtBK_4TypeNcNtB1D_3Ptr0EBM_, symObjAddr: 0x98C, symBinAddr: 0x47E0C, symSize: 0xC4 }
  - { offset: 0xE61D0, size: 0x8, addend: 0x0, symName: __RINvMNtCsfvfooZQ3Axs_4core6resultINtB3_6ResultNtNtCs5AlOhPCr03V_3syn2ty9TypeInferNtNtBM_5error5ErrorE3mapNtBK_4TypeNcNtB1F_5Infer0EBM_, symObjAddr: 0xA50, symBinAddr: 0x47ED0, symSize: 0xC8 }
  - { offset: 0xE627B, size: 0x8, addend: 0x0, symName: __RINvMNtCsfvfooZQ3Axs_4core6resultINtB3_6ResultNtNtCs5AlOhPCr03V_3syn2ty9TypeNeverNtNtBM_5error5ErrorE3mapNtBK_4TypeNcNtB1F_5Never0EBM_, symObjAddr: 0xB18, symBinAddr: 0x47F98, symSize: 0xC8 }
  - { offset: 0xE6369, size: 0x8, addend: 0x0, symName: __RINvMNtCsfvfooZQ3Axs_4core6resultINtB3_6ResultNtNtCs5AlOhPCr03V_3syn3pat12PatReferenceNtNtBM_5error5ErrorE3mapNtBK_3PatNcNtB1K_9Reference0EBM_, symObjAddr: 0xC90, symBinAddr: 0x48060, symSize: 0xE0 }
  - { offset: 0xE6414, size: 0x8, addend: 0x0, symName: __RINvMNtCsfvfooZQ3Axs_4core6resultINtB3_6ResultNtNtCs5AlOhPCr03V_3syn3pat3PatNtNtBM_5error5ErrorE3mapINtNtCse1nGBsou5OW_5alloc5boxed3BoxBI_ENvMB1D_B1A_3newEBM_, symObjAddr: 0xD70, symBinAddr: 0x48140, symSize: 0xC0 }
  - { offset: 0xE64BF, size: 0x8, addend: 0x0, symName: __RINvMNtCsfvfooZQ3Axs_4core6resultINtB3_6ResultNtNtCs5AlOhPCr03V_3syn3pat6PatBoxNtNtBM_5error5ErrorE3mapNtBK_3PatNcNtB1D_3Box0EBM_, symObjAddr: 0xE30, symBinAddr: 0x48200, symSize: 0xE0 }
  - { offset: 0xE656A, size: 0x8, addend: 0x0, symName: __RINvMNtCsfvfooZQ3Axs_4core6resultINtB3_6ResultNtNtCs5AlOhPCr03V_3syn3pat7PatWildNtNtBM_5error5ErrorE3mapNtBK_3PatNcNtB1E_4Wild0EBM_, symObjAddr: 0xF10, symBinAddr: 0x482E0, symSize: 0xC8 }
  - { offset: 0xE6615, size: 0x8, addend: 0x0, symName: __RINvMNtCsfvfooZQ3Axs_4core6resultINtB3_6ResultNtNtCs5AlOhPCr03V_3syn3pat8PatIdentNtNtBM_5error5ErrorE3mapNtBK_3PatNcNtB1F_5Ident0EBM_, symObjAddr: 0xFD8, symBinAddr: 0x483A8, symSize: 0xE0 }
  - { offset: 0xE66C0, size: 0x8, addend: 0x0, symName: __RINvMNtCsfvfooZQ3Axs_4core6resultINtB3_6ResultNtNtCs5AlOhPCr03V_3syn3pat8PatSliceNtNtBM_5error5ErrorE3mapNtBK_3PatNcNtB1F_5Slice0EBM_, symObjAddr: 0x10B8, symBinAddr: 0x48488, symSize: 0xE0 }
