---
triple:          'arm64-apple-darwin'
binary-path:     '/Users/cedric/orange/ran-llm-claude-flow/src/rust-pipeline/target/debug/build/httparse-a74b3fa21d8bff1e/build_script_build-a74b3fa21d8bff1e'
relocations:
  - { offset: 0x1E, size: 0x8, addend: 0x0, symName: __RINvMNtCsfvfooZQ3Axs_4core3stre11starts_withReECs8gSf4wuA74h_18build_script_build, symObjAddr: 0x0, symBinAddr: 0x100000BF0, symSize: 0x4C }
  - { offset: 0x7C, size: 0x8, addend: 0x0, symName: __RNCINvNtCscOYdFFY2T5N_3std2rt10lang_startuE0Cs8gSf4wuA74h_18build_script_build, symObjAddr: 0x193C, symBinAddr: 0x10000241C, symSize: 0x34 }
  - { offset: 0xE6, size: 0x8, addend: 0x0, symName: __RINvNtCscOYdFFY2T5N_3std2rt10lang_startuECs8gSf4wuA74h_18build_script_build, symObjAddr: 0x684, symBinAddr: 0x100001274, symSize: 0x60 }
  - { offset: 0x3D6, size: 0x8, addend: 0x0, symName: __RNvXNvNtNtCscOYdFFY2T5N_3std2io5Write9write_fmtINtB2_7AdapterNtNtNtNtNtB8_3sys3pal4unix5stdio6StderrENtNtCsfvfooZQ3Axs_4core3fmt5Write9write_strCs8gSf4wuA74h_18build_script_build, symObjAddr: 0x37E0, symBinAddr: 0x1000042C0, symSize: 0xB8 }
  - { offset: 0x434, size: 0x8, addend: 0x0, symName: __RNvYNtNtNtNtNtCscOYdFFY2T5N_3std3sys3pal4unix5stdio6StderrNtNtBc_2io5Write9write_allCs8gSf4wuA74h_18build_script_build, symObjAddr: 0x4E54, symBinAddr: 0x10000592C, symSize: 0x180 }
  - { offset: 0x4D5, size: 0x8, addend: 0x0, symName: __RNvYNtNtNtNtNtCscOYdFFY2T5N_3std3sys3pal4unix5stdio6StderrNtNtBc_2io5Write9write_fmtCs8gSf4wuA74h_18build_script_build, symObjAddr: 0x4FD4, symBinAddr: 0x100005AAC, symSize: 0x128 }
  - { offset: 0x795, size: 0x8, addend: 0x0, symName: __RNvNtNtNtNtCscOYdFFY2T5N_3std3sys3pal4unix2fs23debug_assert_fd_is_openCs8gSf4wuA74h_18build_script_build, symObjAddr: 0x2EC8, symBinAddr: 0x1000039A8, symSize: 0xC8 }
  - { offset: 0x977, size: 0x8, addend: 0x0, symName: __RNvXs2_NtNtCscOYdFFY2T5N_3std3ffi6os_strNtB5_8OsStringINtNtCsfvfooZQ3Axs_4core7convert4FromReE4fromCs8gSf4wuA74h_18build_script_build, symObjAddr: 0x3CEC, symBinAddr: 0x1000047C4, symSize: 0x54 }
  - { offset: 0x9D2, size: 0x8, addend: 0x0, symName: __RNvXs3_NtNtCscOYdFFY2T5N_3std3ffi6os_strNtB5_8OsStringINtNtNtCsfvfooZQ3Axs_4core3ops5index5IndexNtNtBV_5range9RangeFullE5indexCs8gSf4wuA74h_18build_script_build, symObjAddr: 0x3DEC, symBinAddr: 0x1000048C4, symSize: 0x78 }
  - { offset: 0xB23, size: 0x8, addend: 0x0, symName: __RNvXsV_NtNtCscOYdFFY2T5N_3std3ffi6os_strNtB5_8OsStringINtNtCsfvfooZQ3Axs_4core7convert5AsRefNtB5_5OsStrE6as_refCs8gSf4wuA74h_18build_script_build, symObjAddr: 0x44F4, symBinAddr: 0x100004FCC, symSize: 0x2C }
  - { offset: 0xB75, size: 0x8, addend: 0x0, symName: __RNvXsW_NtNtCscOYdFFY2T5N_3std3ffi6os_streINtNtCsfvfooZQ3Axs_4core7convert5AsRefNtB5_5OsStrE6as_refCs8gSf4wuA74h_18build_script_build, symObjAddr: 0x4520, symBinAddr: 0x100004FF8, symSize: 0x18 }
  - { offset: 0xBBA, size: 0x8, addend: 0x0, symName: __RNvXs5_NtNtNtCscOYdFFY2T5N_3std2os2fd5ownedNtB5_7OwnedFdNtNtNtCsfvfooZQ3Axs_4core3ops4drop4Drop4dropCs8gSf4wuA74h_18build_script_build, symObjAddr: 0x3EB4, symBinAddr: 0x10000498C, symSize: 0x40 }
  - { offset: 0xDE2, size: 0x8, addend: 0x0, symName: __RNvNvMs1_NtNtCsfvfooZQ3Axs_4core3ptr8non_nullINtB7_7NonNullpE13new_unchecked18precondition_checkCs8gSf4wuA74h_18build_script_build, symObjAddr: 0x2FD0, symBinAddr: 0x100003AB0, symSize: 0x38 }
  - { offset: 0x1696, size: 0x8, addend: 0x0, symName: __RNvNvMNtNtCsfvfooZQ3Axs_4core3ptr9const_ptrPp7sub_ptr18precondition_checkCs8gSf4wuA74h_18build_script_build, symObjAddr: 0x2F90, symBinAddr: 0x100003A70, symSize: 0x40 }
  - { offset: 0x175A, size: 0x8, addend: 0x0, symName: __RINvNtCsfvfooZQ3Axs_4core3ptr13drop_in_placeINtNtB4_6option6OptionINtNtCse1nGBsou5OW_5alloc5boxed3BoxSmEEECs8gSf4wuA74h_18build_script_build, symObjAddr: 0x774, symBinAddr: 0x1000012D4, symSize: 0x44 }
  - { offset: 0x1789, size: 0x8, addend: 0x0, symName: __RINvNtCsfvfooZQ3Axs_4core3ptr13drop_in_placeINtNtB4_6option6OptionNtNtNtCscOYdFFY2T5N_3std3ffi6os_str8OsStringEECs8gSf4wuA74h_18build_script_build, symObjAddr: 0x7B8, symBinAddr: 0x100001318, symSize: 0x48 }
  - { offset: 0x17B8, size: 0x8, addend: 0x0, symName: __RINvNtCsfvfooZQ3Axs_4core3ptr13drop_in_placeINtNtB4_6option6OptionNtNtNtCse1nGBsou5OW_5alloc3ffi5c_str7CStringEECs8gSf4wuA74h_18build_script_build, symObjAddr: 0x800, symBinAddr: 0x100001360, symSize: 0x44 }
  - { offset: 0x17E7, size: 0x8, addend: 0x0, symName: __RINvNtCsfvfooZQ3Axs_4core3ptr13drop_in_placeINtNtB4_6option6OptionNtNtNtNtNtNtCscOYdFFY2T5N_3std3sys3pal4unix7process14process_common5StdioEECs8gSf4wuA74h_18build_script_build, symObjAddr: 0x844, symBinAddr: 0x1000013A4, symSize: 0x44 }
  - { offset: 0x1816, size: 0x8, addend: 0x0, symName: __RINvNtCsfvfooZQ3Axs_4core3ptr13drop_in_placeINtNtB4_6result6ResultNtNtCse1nGBsou5OW_5alloc6string6StringNtNtCscOYdFFY2T5N_3std3env8VarErrorEECs8gSf4wuA74h_18build_script_build, symObjAddr: 0x888, symBinAddr: 0x1000013E8, symSize: 0x50 }
  - { offset: 0x1845, size: 0x8, addend: 0x0, symName: __RINvNtCsfvfooZQ3Axs_4core3ptr13drop_in_placeINtNtB4_6result6ResultNtNtCse1nGBsou5OW_5alloc6string6StringNtNtNtCscOYdFFY2T5N_3std3ffi6os_str8OsStringEECs8gSf4wuA74h_18build_script_build, symObjAddr: 0x8D8, symBinAddr: 0x100001438, symSize: 0x50 }
  - { offset: 0x1874, size: 0x8, addend: 0x0, symName: __RINvNtCsfvfooZQ3Axs_4core3ptr13drop_in_placeINtNtB4_6result6ResultmNtNtCse1nGBsou5OW_5alloc6string6StringEECs8gSf4wuA74h_18build_script_build, symObjAddr: 0x928, symBinAddr: 0x100001488, symSize: 0x48 }
  - { offset: 0x18A3, size: 0x8, addend: 0x0, symName: __RINvNtCsfvfooZQ3Axs_4core3ptr13drop_in_placeINtNtB4_6result6ResultuNtNtNtCscOYdFFY2T5N_3std2io5error5ErrorEECs8gSf4wuA74h_18build_script_build, symObjAddr: 0x970, symBinAddr: 0x1000014D0, symSize: 0x44 }
  - { offset: 0x18D2, size: 0x8, addend: 0x0, symName: __RINvNtCsfvfooZQ3Axs_4core3ptr13drop_in_placeINtNtCse1nGBsou5OW_5alloc3vec3VecINtNtBL_5boxed3BoxDINtNtNtB4_3ops8function5FnMutuEp6OutputINtNtB4_6result6ResultuNtNtNtCscOYdFFY2T5N_3std2io5error5ErrorENtNtB4_6marker4SendNtB3c_4SyncEL_EEECs8gSf4wuA74h_18build_script_build, symObjAddr: 0x9B4, symBinAddr: 0x100001514, symSize: 0x5C }
  - { offset: 0x1901, size: 0x8, addend: 0x0, symName: __RINvNtCsfvfooZQ3Axs_4core3ptr13drop_in_placeINtNtCse1nGBsou5OW_5alloc3vec3VecNtNtNtBL_3ffi5c_str7CStringEECs8gSf4wuA74h_18build_script_build, symObjAddr: 0xA10, symBinAddr: 0x100001570, symSize: 0x5C }
  - { offset: 0x1930, size: 0x8, addend: 0x0, symName: __RINvNtCsfvfooZQ3Axs_4core3ptr13drop_in_placeINtNtCse1nGBsou5OW_5alloc3vec3VecPaEECs8gSf4wuA74h_18build_script_build, symObjAddr: 0xA6C, symBinAddr: 0x1000015CC, symSize: 0x5C }
  - { offset: 0x195F, size: 0x8, addend: 0x0, symName: __RINvNtCsfvfooZQ3Axs_4core3ptr13drop_in_placeINtNtCse1nGBsou5OW_5alloc3vec3VechEECs8gSf4wuA74h_18build_script_build, symObjAddr: 0xAC8, symBinAddr: 0x100001628, symSize: 0x5C }
  - { offset: 0x198E, size: 0x8, addend: 0x0, symName: __RINvNtCsfvfooZQ3Axs_4core3ptr13drop_in_placeINtNtCse1nGBsou5OW_5alloc5boxed3BoxDINtNtNtB4_3ops8function5FnMutuEp6OutputINtNtB4_6result6ResultuNtNtNtCscOYdFFY2T5N_3std2io5error5ErrorENtNtB4_6marker4SendNtB2W_4SyncEL_EECs8gSf4wuA74h_18build_script_build, symObjAddr: 0xB24, symBinAddr: 0x100001684, symSize: 0x80 }
  - { offset: 0x19BD, size: 0x8, addend: 0x0, symName: __RINvNtCsfvfooZQ3Axs_4core3ptr13drop_in_placeINtNtCse1nGBsou5OW_5alloc5boxed3BoxDNtNtB4_5error5ErrorNtNtB4_6marker4SendNtB1B_4SyncEL_EECs8gSf4wuA74h_18build_script_build, symObjAddr: 0xBA4, symBinAddr: 0x100001704, symSize: 0x80 }
  - { offset: 0x19EC, size: 0x8, addend: 0x0, symName: __RINvNtCsfvfooZQ3Axs_4core3ptr13drop_in_placeINtNtCse1nGBsou5OW_5alloc5boxed3BoxNtNtNtCscOYdFFY2T5N_3std2io5error6CustomEECs8gSf4wuA74h_18build_script_build, symObjAddr: 0xC24, symBinAddr: 0x100001784, symSize: 0x60 }
  - { offset: 0x1A1B, size: 0x8, addend: 0x0, symName: __RINvNtCsfvfooZQ3Axs_4core3ptr13drop_in_placeINtNtCse1nGBsou5OW_5alloc5boxed3BoxShEECs8gSf4wuA74h_18build_script_build, symObjAddr: 0xC84, symBinAddr: 0x1000017E4, symSize: 0x2C }
  - { offset: 0x1A4A, size: 0x8, addend: 0x0, symName: __RINvNtCsfvfooZQ3Axs_4core3ptr13drop_in_placeINtNtCse1nGBsou5OW_5alloc5boxed3BoxSmEECs8gSf4wuA74h_18build_script_build, symObjAddr: 0xCB0, symBinAddr: 0x100001810, symSize: 0x2C }
  - { offset: 0x1A79, size: 0x8, addend: 0x0, symName: __RINvNtCsfvfooZQ3Axs_4core3ptr13drop_in_placeINtNtCse1nGBsou5OW_5alloc7raw_vec6RawVecINtNtBL_5boxed3BoxDINtNtNtB4_3ops8function5FnMutuEp6OutputINtNtB4_6result6ResultuNtNtNtCscOYdFFY2T5N_3std2io5error5ErrorENtNtB4_6marker4SendNtB3j_4SyncEL_EEECs8gSf4wuA74h_18build_script_build, symObjAddr: 0xCDC, symBinAddr: 0x10000183C, symSize: 0x24 }
  - { offset: 0x1AA8, size: 0x8, addend: 0x0, symName: __RINvNtCsfvfooZQ3Axs_4core3ptr13drop_in_placeINtNtCse1nGBsou5OW_5alloc7raw_vec6RawVecNtNtNtBL_3ffi5c_str7CStringEECs8gSf4wuA74h_18build_script_build, symObjAddr: 0xD00, symBinAddr: 0x100001860, symSize: 0x24 }
  - { offset: 0x1AD7, size: 0x8, addend: 0x0, symName: __RINvNtCsfvfooZQ3Axs_4core3ptr13drop_in_placeINtNtCse1nGBsou5OW_5alloc7raw_vec6RawVecPaEECs8gSf4wuA74h_18build_script_build, symObjAddr: 0xD24, symBinAddr: 0x100001884, symSize: 0x24 }
  - { offset: 0x1B06, size: 0x8, addend: 0x0, symName: __RINvNtCsfvfooZQ3Axs_4core3ptr13drop_in_placeINtNtCse1nGBsou5OW_5alloc7raw_vec6RawVechEECs8gSf4wuA74h_18build_script_build, symObjAddr: 0xD48, symBinAddr: 0x1000018A8, symSize: 0x24 }
  - { offset: 0x1B35, size: 0x8, addend: 0x0, symName: __RINvNtCsfvfooZQ3Axs_4core3ptr13drop_in_placeINtNtNtCscOYdFFY2T5N_3std2io5error9ErrorDataINtNtCse1nGBsou5OW_5alloc5boxed3BoxNtBJ_6CustomEEECs8gSf4wuA74h_18build_script_build, symObjAddr: 0xD6C, symBinAddr: 0x1000018CC, symSize: 0x48 }
  - { offset: 0x1B64, size: 0x8, addend: 0x0, symName: __RINvNtCsfvfooZQ3Axs_4core3ptr13drop_in_placeINtNtNtNtCse1nGBsou5OW_5alloc11collections5btree3map8BTreeMapNtNtNtCscOYdFFY2T5N_3std3ffi6os_str8OsStringINtNtB4_6option6OptionB1F_EEECs8gSf4wuA74h_18build_script_build, symObjAddr: 0xDB4, symBinAddr: 0x100001914, symSize: 0x24 }
  - { offset: 0x1B93, size: 0x8, addend: 0x0, symName: __RINvNtCsfvfooZQ3Axs_4core3ptr13drop_in_placeINtNtNtNtCse1nGBsou5OW_5alloc11collections5btree3map8IntoIterNtNtNtCscOYdFFY2T5N_3std3ffi6os_str8OsStringINtNtB4_6option6OptionB1F_EEECs8gSf4wuA74h_18build_script_build, symObjAddr: 0xDD8, symBinAddr: 0x100001938, symSize: 0x24 }
  - { offset: 0x1BC2, size: 0x8, addend: 0x0, symName: __RINvNtCsfvfooZQ3Axs_4core3ptr13drop_in_placeINtNvMsT_NtNtNtCse1nGBsou5OW_5alloc11collections5btree4nodeINtBP_6HandleINtBP_7NodeRefNtNtBP_6marker5DyingpppENtB26_2KVE12drop_key_val7DropperINtNtB4_6option6OptionNtNtNtCscOYdFFY2T5N_3std3ffi6os_str8OsStringEEECs8gSf4wuA74h_18build_script_build, symObjAddr: 0xDFC, symBinAddr: 0x10000195C, symSize: 0x24 }
  - { offset: 0x1BF1, size: 0x8, addend: 0x0, symName: __RINvNtCsfvfooZQ3Axs_4core3ptr13drop_in_placeINtNvNtNtCscOYdFFY2T5N_3std2io5Write9write_fmt7AdapterNtNtNtNtNtBP_3sys3pal4unix5stdio6StderrEECs8gSf4wuA74h_18build_script_build, symObjAddr: 0xE20, symBinAddr: 0x100001980, symSize: 0x24 }
  - { offset: 0x1C20, size: 0x8, addend: 0x0, symName: __RINvNtCsfvfooZQ3Axs_4core3ptr13drop_in_placeINtNvXsw_NtNtNtCse1nGBsou5OW_5alloc11collections5btree3mapINtBP_8IntoIterpppENtNtNtB4_3ops4drop4Drop4drop9DropGuardNtNtNtCscOYdFFY2T5N_3std3ffi6os_str8OsStringINtNtB4_6option6OptionB2x_ENtNtBV_5alloc6GlobalEECs8gSf4wuA74h_18build_script_build, symObjAddr: 0xE44, symBinAddr: 0x1000019A4, symSize: 0x24 }
  - { offset: 0x1C4F, size: 0x8, addend: 0x0, symName: __RINvNtCsfvfooZQ3Axs_4core3ptr13drop_in_placeNtNtCscOYdFFY2T5N_3std3env8VarErrorECs8gSf4wuA74h_18build_script_build, symObjAddr: 0xE88, symBinAddr: 0x1000019C8, symSize: 0x48 }
  - { offset: 0x1C7E, size: 0x8, addend: 0x0, symName: __RINvNtCsfvfooZQ3Axs_4core3ptr13drop_in_placeNtNtCscOYdFFY2T5N_3std7process7CommandECs8gSf4wuA74h_18build_script_build, symObjAddr: 0xED0, symBinAddr: 0x100001A10, symSize: 0x24 }
  - { offset: 0x1CAD, size: 0x8, addend: 0x0, symName: __RINvNtCsfvfooZQ3Axs_4core3ptr13drop_in_placeNtNtCse1nGBsou5OW_5alloc6string13FromUtf8ErrorECs8gSf4wuA74h_18build_script_build, symObjAddr: 0xEF4, symBinAddr: 0x100001A34, symSize: 0x24 }
  - { offset: 0x1CDC, size: 0x8, addend: 0x0, symName: __RINvNtCsfvfooZQ3Axs_4core3ptr13drop_in_placeNtNtCse1nGBsou5OW_5alloc6string6StringECs8gSf4wuA74h_18build_script_build, symObjAddr: 0xF18, symBinAddr: 0x100001A58, symSize: 0x24 }
  - { offset: 0x1D0B, size: 0x8, addend: 0x0, symName: __RINvNtCsfvfooZQ3Axs_4core3ptr13drop_in_placeNtNtNtCscOYdFFY2T5N_3std10sys_common7process10CommandEnvECs8gSf4wuA74h_18build_script_build, symObjAddr: 0xF4C, symBinAddr: 0x100001A7C, symSize: 0x24 }
  - { offset: 0x1D3A, size: 0x8, addend: 0x0, symName: __RINvNtCsfvfooZQ3Axs_4core3ptr13drop_in_placeNtNtNtCscOYdFFY2T5N_3std2io5error5ErrorECs8gSf4wuA74h_18build_script_build, symObjAddr: 0xF70, symBinAddr: 0x100001AA0, symSize: 0x24 }
  - { offset: 0x1D69, size: 0x8, addend: 0x0, symName: __RINvNtCsfvfooZQ3Axs_4core3ptr13drop_in_placeNtNtNtCscOYdFFY2T5N_3std2io5error6CustomECs8gSf4wuA74h_18build_script_build, symObjAddr: 0xF94, symBinAddr: 0x100001AC4, symSize: 0x24 }
  - { offset: 0x1D98, size: 0x8, addend: 0x0, symName: __RINvNtCsfvfooZQ3Axs_4core3ptr13drop_in_placeNtNtNtCscOYdFFY2T5N_3std3ffi6os_str8OsStringECs8gSf4wuA74h_18build_script_build, symObjAddr: 0xFB8, symBinAddr: 0x100001AE8, symSize: 0x24 }
  - { offset: 0x1DC7, size: 0x8, addend: 0x0, symName: __RINvNtCsfvfooZQ3Axs_4core3ptr13drop_in_placeNtNtNtCse1nGBsou5OW_5alloc3ffi5c_str7CStringECs8gSf4wuA74h_18build_script_build, symObjAddr: 0xFDC, symBinAddr: 0x100001B0C, symSize: 0x5C }
  - { offset: 0x1DF6, size: 0x8, addend: 0x0, symName: __RINvNtCsfvfooZQ3Axs_4core3ptr13drop_in_placeNtNtNtNtCscOYdFFY2T5N_3std2io5error14repr_bitpacked4ReprECs8gSf4wuA74h_18build_script_build, symObjAddr: 0x1038, symBinAddr: 0x100001B68, symSize: 0x24 }
  - { offset: 0x1E25, size: 0x8, addend: 0x0, symName: __RINvNtCsfvfooZQ3Axs_4core3ptr13drop_in_placeNtNtNtNtCscOYdFFY2T5N_3std2os2fd5owned7OwnedFdECs8gSf4wuA74h_18build_script_build, symObjAddr: 0x105C, symBinAddr: 0x100001B8C, symSize: 0x24 }
  - { offset: 0x1E54, size: 0x8, addend: 0x0, symName: __RINvNtCsfvfooZQ3Axs_4core3ptr13drop_in_placeNtNtNtNtCscOYdFFY2T5N_3std3sys6os_str5bytes3BufECs8gSf4wuA74h_18build_script_build, symObjAddr: 0x1080, symBinAddr: 0x100001BB0, symSize: 0x24 }
  - { offset: 0x1E83, size: 0x8, addend: 0x0, symName: __RINvNtCsfvfooZQ3Axs_4core3ptr13drop_in_placeNtNtNtNtNtCscOYdFFY2T5N_3std3sys3pal4unix2fd8FileDescECs8gSf4wuA74h_18build_script_build, symObjAddr: 0x10A4, symBinAddr: 0x100001BD4, symSize: 0x24 }
  - { offset: 0x1EB2, size: 0x8, addend: 0x0, symName: __RINvNtCsfvfooZQ3Axs_4core3ptr13drop_in_placeNtNtNtNtNtNtCscOYdFFY2T5N_3std3sys3pal4unix7process14process_common4ArgvECs8gSf4wuA74h_18build_script_build, symObjAddr: 0x10C8, symBinAddr: 0x100001BF8, symSize: 0x24 }
  - { offset: 0x1EE1, size: 0x8, addend: 0x0, symName: __RINvNtCsfvfooZQ3Axs_4core3ptr13drop_in_placeNtNtNtNtNtNtCscOYdFFY2T5N_3std3sys3pal4unix7process14process_common5StdioECs8gSf4wuA74h_18build_script_build, symObjAddr: 0x10EC, symBinAddr: 0x100001C1C, symSize: 0x44 }
  - { offset: 0x1F10, size: 0x8, addend: 0x0, symName: __RINvNtCsfvfooZQ3Axs_4core3ptr13drop_in_placeNtNtNtNtNtNtCscOYdFFY2T5N_3std3sys3pal4unix7process14process_common7CommandECs8gSf4wuA74h_18build_script_build, symObjAddr: 0x1130, symBinAddr: 0x100001C60, symSize: 0x1DC }
  - { offset: 0x1F3F, size: 0x8, addend: 0x0, symName: __RINvNtCsfvfooZQ3Axs_4core3ptr13drop_in_placeNtNvNtNtNtCse1nGBsou5OW_5alloc11collections5btree3mem7replace10PanicGuardECs8gSf4wuA74h_18build_script_build, symObjAddr: 0x130C, symBinAddr: 0x100001E3C, symSize: 0x24 }
  - { offset: 0x1F6E, size: 0x8, addend: 0x0, symName: __RINvNtCsfvfooZQ3Axs_4core3ptr13drop_in_placeSINtNtCse1nGBsou5OW_5alloc5boxed3BoxDINtNtNtB4_3ops8function5FnMutuEp6OutputINtNtB4_6result6ResultuNtNtNtCscOYdFFY2T5N_3std2io5error5ErrorENtNtB4_6marker4SendNtB2X_4SyncEL_EECs8gSf4wuA74h_18build_script_build, symObjAddr: 0x1370, symBinAddr: 0x100001E60, symSize: 0xB4 }
  - { offset: 0x1F9D, size: 0x8, addend: 0x0, symName: __RINvNtCsfvfooZQ3Axs_4core3ptr13drop_in_placeSNtNtNtCse1nGBsou5OW_5alloc3ffi5c_str7CStringECs8gSf4wuA74h_18build_script_build, symObjAddr: 0x1424, symBinAddr: 0x100001F14, symSize: 0xB4 }
  - { offset: 0x2444, size: 0x8, addend: 0x0, symName: __RNvMsA_NtCsfvfooZQ3Axs_4core3numm16from_ascii_radixCs8gSf4wuA74h_18build_script_build, symObjAddr: 0x2468, symBinAddr: 0x100002F48, symSize: 0x53C }
  - { offset: 0x26E3, size: 0x8, addend: 0x0, symName: __RNvNvMs3_NtCsfvfooZQ3Axs_4core3numi13unchecked_neg18precondition_checkCs8gSf4wuA74h_18build_script_build, symObjAddr: 0x3008, symBinAddr: 0x100003AE8, symSize: 0x4C }
  - { offset: 0x279C, size: 0x8, addend: 0x0, symName: __RNvNvMs9_NtCsfvfooZQ3Axs_4core3numj13unchecked_add18precondition_checkCs8gSf4wuA74h_18build_script_build, symObjAddr: 0x3054, symBinAddr: 0x100003B34, symSize: 0x44 }
  - { offset: 0x27FE, size: 0x8, addend: 0x0, symName: __RNvNvMs9_NtCsfvfooZQ3Axs_4core3numj13unchecked_sub18precondition_checkCs8gSf4wuA74h_18build_script_build, symObjAddr: 0x3098, symBinAddr: 0x100003B78, symSize: 0x40 }
  - { offset: 0x2949, size: 0x8, addend: 0x0, symName: __RNvXsz_NtCsfvfooZQ3Axs_4core3nummNtNtNtB7_3str6traits7FromStr8from_strCs8gSf4wuA74h_18build_script_build, symObjAddr: 0x4C54, symBinAddr: 0x10000572C, symSize: 0x40 }
  - { offset: 0x29CF, size: 0x8, addend: 0x0, symName: __RNvXs8_NtNtCsfvfooZQ3Axs_4core3str5errorNtB5_9Utf8ErrorNtNtB9_3fmt5Debug3fmtCs8gSf4wuA74h_18build_script_build, symObjAddr: 0x43D4, symBinAddr: 0x100004EAC, symSize: 0x88 }
  - { offset: 0x2A10, size: 0x8, addend: 0x0, symName: __RINvMNtCsfvfooZQ3Axs_4core3stre11starts_withReECs8gSf4wuA74h_18build_script_build, symObjAddr: 0x0, symBinAddr: 0x100000BF0, symSize: 0x4C }
  - { offset: 0x2A8A, size: 0x8, addend: 0x0, symName: __RINvMNtCsfvfooZQ3Axs_4core3stre12trim_matchesNCNvB2_4trim0ECs8gSf4wuA74h_18build_script_build, symObjAddr: 0x4C, symBinAddr: 0x100000C3C, symSize: 0x128 }
  - { offset: 0x2C77, size: 0x8, addend: 0x0, symName: __RINvMNtCsfvfooZQ3Axs_4core3stre18trim_start_matchesReECs8gSf4wuA74h_18build_script_build, symObjAddr: 0x174, symBinAddr: 0x100000D64, symSize: 0xFC }
  - { offset: 0x2E18, size: 0x8, addend: 0x0, symName: __RINvMNtCsfvfooZQ3Axs_4core3stre4findNCNCNvMCs8gSf4wuA74h_18build_script_buildNtBF_7Version5parse00EBF_, symObjAddr: 0x270, symBinAddr: 0x100000E60, symSize: 0xAC }
  - { offset: 0x2EA0, size: 0x8, addend: 0x0, symName: __RINvMNtCsfvfooZQ3Axs_4core3stre5parsemECs8gSf4wuA74h_18build_script_build, symObjAddr: 0x31C, symBinAddr: 0x100000F0C, symSize: 0x38 }
  - { offset: 0x2ED7, size: 0x8, addend: 0x0, symName: __RINvMNtCsfvfooZQ3Axs_4core3stre5splitcECs8gSf4wuA74h_18build_script_build, symObjAddr: 0x354, symBinAddr: 0x100000F44, symSize: 0x98 }
  - { offset: 0x2F22, size: 0x8, addend: 0x0, symName: __RNCNvMNtCsfvfooZQ3Axs_4core3stre4trim0Cs8gSf4wuA74h_18build_script_build, symObjAddr: 0x1CE8, symBinAddr: 0x1000027C8, symSize: 0x94 }
  - { offset: 0x2F8F, size: 0x8, addend: 0x0, symName: __RNvMNtCsfvfooZQ3Axs_4core3stre4trimCs8gSf4wuA74h_18build_script_build, symObjAddr: 0x1DEC, symBinAddr: 0x1000028CC, symSize: 0x28 }
  - { offset: 0x2FBD, size: 0x8, addend: 0x0, symName: __RNvMNtCsfvfooZQ3Axs_4core3stre5charsCs8gSf4wuA74h_18build_script_build, symObjAddr: 0x1E14, symBinAddr: 0x1000028F4, symSize: 0x20 }
  - { offset: 0x30FF, size: 0x8, addend: 0x0, symName: __RNvNvXs5_NtNtCsfvfooZQ3Axs_4core3str6traitsINtNtNtBb_3ops5range5RangejEINtNtNtBb_5slice5index10SliceIndexeE13get_unchecked18precondition_checkCs8gSf4wuA74h_18build_script_build, symObjAddr: 0x364C, symBinAddr: 0x10000412C, symSize: 0x60 }
  - { offset: 0x314A, size: 0x8, addend: 0x0, symName: __RNvXs2_NtNtCsfvfooZQ3Axs_4core3str6traitseINtNtNtB9_3ops5index5IndexINtNtBJ_5range7RangeTojEE5indexCs8gSf4wuA74h_18build_script_build, symObjAddr: 0x3D40, symBinAddr: 0x100004818, symSize: 0x44 }
  - { offset: 0x3193, size: 0x8, addend: 0x0, symName: __RNvXs_NtNtCsfvfooZQ3Axs_4core3str6traitseNtNtB8_3cmp9PartialEq2eqCs8gSf4wuA74h_18build_script_build, symObjAddr: 0x462C, symBinAddr: 0x100005104, symSize: 0x64 }
  - { offset: 0x3357, size: 0x8, addend: 0x0, symName: __RNvXs3_NtNtCsfvfooZQ3Axs_4core3str7patternNCNCNvMCs8gSf4wuA74h_18build_script_buildNtBL_7Version5parse00NtB5_11MultiCharEq7matchesBL_, symObjAddr: 0x3E64, symBinAddr: 0x10000493C, symSize: 0x28 }
  - { offset: 0x339D, size: 0x8, addend: 0x0, symName: __RNvXs3_NtNtCsfvfooZQ3Axs_4core3str7patternNCNvMB7_e4trim0NtB5_11MultiCharEq7matchesCs8gSf4wuA74h_18build_script_build, symObjAddr: 0x3E8C, symBinAddr: 0x100004964, symSize: 0x28 }
  - { offset: 0x33E9, size: 0x8, addend: 0x0, symName: __RNvXsr_NtNtCsfvfooZQ3Axs_4core3str7patternNCNCNvMCs8gSf4wuA74h_18build_script_buildNtBL_7Version5parse00NtB5_7Pattern13into_searcherBL_, symObjAddr: 0x4BC4, symBinAddr: 0x10000569C, symSize: 0x48 }
  - { offset: 0x342F, size: 0x8, addend: 0x0, symName: __RNvXsr_NtNtCsfvfooZQ3Axs_4core3str7patternNCNvMB7_e4trim0NtB5_7Pattern13into_searcherCs8gSf4wuA74h_18build_script_build, symObjAddr: 0x4C0C, symBinAddr: 0x1000056E4, symSize: 0x48 }
  - { offset: 0x3B48, size: 0x8, addend: 0x0, symName: __RNvXsI_NtCsfvfooZQ3Axs_4core6optionINtB5_6OptionhENtNtB7_3fmt5Debug3fmtCs8gSf4wuA74h_18build_script_build, symObjAddr: 0x445C, symBinAddr: 0x100004F34, symSize: 0x98 }
  - { offset: 0x42C3, size: 0x8, addend: 0x0, symName: __RNvXs1a_NtCsfvfooZQ3Axs_4core3fmtRINtNtB8_6option6OptionhENtB6_5Debug3fmtCs8gSf4wuA74h_18build_script_build, symObjAddr: 0x3A80, symBinAddr: 0x100004558, symSize: 0x30 }
  - { offset: 0x4309, size: 0x8, addend: 0x0, symName: __RNvXs1a_NtCsfvfooZQ3Axs_4core3fmtRNtNtNtB8_3str5error9Utf8ErrorNtB6_5Debug3fmtCs8gSf4wuA74h_18build_script_build, symObjAddr: 0x3AB0, symBinAddr: 0x100004588, symSize: 0x30 }
  - { offset: 0x435F, size: 0x8, addend: 0x0, symName: __RNvXs_NvNtNtCsfvfooZQ3Axs_4core3fmt5Write9write_fmtQINtNvNtNtCscOYdFFY2T5N_3std2io5Write9write_fmt7AdapterNtNtNtNtNtBX_3sys3pal4unix5stdio6StderrENtB4_12SpecWriteFmt14spec_write_fmtCs8gSf4wuA74h_18build_script_build, symObjAddr: 0x46F4, symBinAddr: 0x1000051CC, symSize: 0x164 }
  - { offset: 0x440E, size: 0x8, addend: 0x0, symName: __RNvYINtNvNtNtCscOYdFFY2T5N_3std2io5Write9write_fmt7AdapterNtNtNtNtNtBb_3sys3pal4unix5stdio6StderrENtNtCsfvfooZQ3Axs_4core3fmt5Write10write_charCs8gSf4wuA74h_18build_script_build, symObjAddr: 0x4CCC, symBinAddr: 0x1000057A4, symSize: 0x70 }
  - { offset: 0x4476, size: 0x8, addend: 0x0, symName: __RNvYINtNvNtNtCscOYdFFY2T5N_3std2io5Write9write_fmt7AdapterNtNtNtNtNtBb_3sys3pal4unix5stdio6StderrENtNtCsfvfooZQ3Axs_4core3fmt5Write9write_fmtCs8gSf4wuA74h_18build_script_build, symObjAddr: 0x4D3C, symBinAddr: 0x100005814, symSize: 0x24 }
  - { offset: 0x4B93, size: 0x8, addend: 0x0, symName: __RNvXso_NtCsfvfooZQ3Axs_4core6resultINtB5_6ResultmNtNtCse1nGBsou5OW_5alloc6string6StringENtNtNtB7_3ops9try_trait3Try6branchCs8gSf4wuA74h_18build_script_build, symObjAddr: 0x4A8C, symBinAddr: 0x100005564, symSize: 0x88 }
  - { offset: 0x4C17, size: 0x8, addend: 0x0, symName: __RNvXsp_NtCsfvfooZQ3Axs_4core6resultINtB5_6ResultNtCs8gSf4wuA74h_18build_script_build7VersionNtNtCse1nGBsou5OW_5alloc6string6StringEINtNtNtB7_3ops9try_trait12FromResidualIBy_NtNtB7_7convert10InfallibleB1s_EE13from_residualBM_, symObjAddr: 0x4B84, symBinAddr: 0x10000565C, symSize: 0x40 }
  - { offset: 0x4E44, size: 0x8, addend: 0x0, symName: __RNvXNtNtCsfvfooZQ3Axs_4core3cmp5implsuNtB4_9PartialEq2eqCs8gSf4wuA74h_18build_script_build, symObjAddr: 0x36DC, symBinAddr: 0x1000041BC, symSize: 0x1C }
  - { offset: 0x4E87, size: 0x8, addend: 0x0, symName: __RNvXs10_NtNtCsfvfooZQ3Axs_4core3cmp5implsmNtB8_10PartialOrd11partial_cmpCs8gSf4wuA74h_18build_script_build, symObjAddr: 0x3A30, symBinAddr: 0x100004508, symSize: 0x40 }
  - { offset: 0x4ECA, size: 0x8, addend: 0x0, symName: __RNvXs7_NtNtCsfvfooZQ3Axs_4core3cmp5implsReNtB7_9PartialEq2eqCs8gSf4wuA74h_18build_script_build, symObjAddr: 0x42A4, symBinAddr: 0x100004D7C, symSize: 0x44 }
  - { offset: 0x4FC8, size: 0x8, addend: 0x0, symName: __RNvYNtCs8gSf4wuA74h_18build_script_build7VersionNtNtCsfvfooZQ3Axs_4core3cmp10PartialOrd2geB4_, symObjAddr: 0x4DDC, symBinAddr: 0x1000058B4, symSize: 0x78 }
  - { offset: 0x501D, size: 0x8, addend: 0x0, symName: __RNvYjNtNtCsfvfooZQ3Axs_4core3cmp3Ord3maxCs8gSf4wuA74h_18build_script_build, symObjAddr: 0x5128, symBinAddr: 0x100005C00, symSize: 0x80 }
  - { offset: 0x51CC, size: 0x8, addend: 0x0, symName: __RNvXNtNtCsfvfooZQ3Axs_4core3ops12control_flowINtB2_11ControlFlowINtNtB4_9try_trait17NeverShortCircuitjEjENtB13_3Try11from_outputCs8gSf4wuA74h_18build_script_build, symObjAddr: 0x36F8, symBinAddr: 0x1000041D8, symSize: 0x20 }
  - { offset: 0x520A, size: 0x8, addend: 0x0, symName: __RNvXNtNtCsfvfooZQ3Axs_4core3ops12control_flowINtB2_11ControlFlowINtNtB4_9try_trait17NeverShortCircuitjEjENtB13_3Try6branchCs8gSf4wuA74h_18build_script_build, symObjAddr: 0x3718, symBinAddr: 0x1000041F8, symSize: 0x5C }
  - { offset: 0x5282, size: 0x8, addend: 0x0, symName: __RNvXNtNtCsfvfooZQ3Axs_4core3ops12control_flowINtB2_11ControlFlowuENtNtB4_9try_trait3Try11from_outputCs8gSf4wuA74h_18build_script_build, symObjAddr: 0x3774, symBinAddr: 0x100004254, symSize: 0x18 }
  - { offset: 0x52C0, size: 0x8, addend: 0x0, symName: __RNvXNtNtCsfvfooZQ3Axs_4core3ops12control_flowINtB2_11ControlFlowuENtNtB4_9try_trait3Try6branchCs8gSf4wuA74h_18build_script_build, symObjAddr: 0x378C, symBinAddr: 0x10000426C, symSize: 0x38 }
  - { offset: 0x533E, size: 0x8, addend: 0x0, symName: __RNvXs7_NtNtCsfvfooZQ3Axs_4core3ops12control_flowINtB5_11ControlFlowuENtNtB9_3cmp9PartialEq2eqCs8gSf4wuA74h_18build_script_build, symObjAddr: 0x42E8, symBinAddr: 0x100004DC0, symSize: 0xEC }
  - { offset: 0x545D, size: 0x8, addend: 0x0, symName: __RNvXs_NtNtCsfvfooZQ3Axs_4core3ops12control_flowINtB4_11ControlFlowINtNtB6_9try_trait17NeverShortCircuitjEjEINtB15_12FromResidualIBK_B12_NtNtB8_7convert10InfallibleEE13from_residualCs8gSf4wuA74h_18build_script_build, symObjAddr: 0x45C0, symBinAddr: 0x100005098, symSize: 0x28 }
  - { offset: 0x549B, size: 0x8, addend: 0x0, symName: __RNvXs_NtNtCsfvfooZQ3Axs_4core3ops12control_flowINtB4_11ControlFlowuEINtNtB6_9try_trait12FromResidualIBK_uNtNtB8_7convert10InfallibleEE13from_residualCs8gSf4wuA74h_18build_script_build, symObjAddr: 0x45E8, symBinAddr: 0x1000050C0, symSize: 0x1C }
  - { offset: 0x5867, size: 0x8, addend: 0x0, symName: __RNCINvMNtNtCsfvfooZQ3Axs_4core3ops9try_traitINtB5_17NeverShortCircuitjE10wrap_mut_2jReNCINvNtNtNtB9_4iter8adapters3map8map_foldB1k_B1k_jNCNvMCs8gSf4wuA74h_18build_script_buildNtB2f_7Version5parse0NCIB1p_B1k_INtNtB9_6result6ResultmNtNtCse1nGBsou5OW_5alloc6string6StringEjNCB2c_s_0NCNvYINtB1r_3MapIB4z_INtNtB1t_4take4TakeINtNtNtB9_3str4iter5SplitcEEB2a_EB4k_ENtNtNtB1v_6traits8iterator8Iterator5count0E0E0E0B2f_, symObjAddr: 0x18F0, symBinAddr: 0x1000023D0, symSize: 0x4C }
  - { offset: 0x58FD, size: 0x8, addend: 0x0, symName: __RNvXs_NtNtCsfvfooZQ3Axs_4core3ops9try_traitINtB4_17NeverShortCircuitjENtB4_3Try11from_outputCs8gSf4wuA74h_18build_script_build, symObjAddr: 0x4604, symBinAddr: 0x1000050DC, symSize: 0x10 }
  - { offset: 0x5934, size: 0x8, addend: 0x0, symName: __RNvXs_NtNtCsfvfooZQ3Axs_4core3ops9try_traitINtB4_17NeverShortCircuitjENtB4_3Try6branchCs8gSf4wuA74h_18build_script_build, symObjAddr: 0x4614, symBinAddr: 0x1000050EC, symSize: 0x18 }
  - { offset: 0x5977, size: 0x8, addend: 0x0, symName: __RNSNvYNCINvNtCscOYdFFY2T5N_3std2rt10lang_startuE0INtNtNtCsfvfooZQ3Axs_4core3ops8function6FnOnceuE9call_once6vtableCs8gSf4wuA74h_18build_script_build, symObjAddr: 0x1DC4, symBinAddr: 0x1000028A4, symSize: 0x28 }
  - { offset: 0x59BB, size: 0x8, addend: 0x0, symName: __RNvYFEuINtNtNtCsfvfooZQ3Axs_4core3ops8function6FnOnceuE9call_onceCs8gSf4wuA74h_18build_script_build, symObjAddr: 0x4C94, symBinAddr: 0x10000576C, symSize: 0x20 }
  - { offset: 0x59FB, size: 0x8, addend: 0x0, symName: __RNvYNCINvNtCscOYdFFY2T5N_3std2rt10lang_startuE0INtNtNtCsfvfooZQ3Axs_4core3ops8function6FnOnceuE9call_onceCs8gSf4wuA74h_18build_script_build, symObjAddr: 0x4D60, symBinAddr: 0x100005838, symSize: 0x4C }
  - { offset: 0x5A3F, size: 0x8, addend: 0x0, symName: __RNvYNvYeNtNtCse1nGBsou5OW_5alloc6borrow7ToOwned8to_ownedINtNtNtCsfvfooZQ3Axs_4core3ops8function6FnOnceTReEE9call_onceCs8gSf4wuA74h_18build_script_build, symObjAddr: 0x50FC, symBinAddr: 0x100005BD4, symSize: 0x2C }
  - { offset: 0x5A8E, size: 0x8, addend: 0x0, symName: __RNvXs2_NtNtNtCsfvfooZQ3Axs_4core3ops8function5implsQNCNvMCs8gSf4wuA74h_18build_script_buildNtBT_7Version5parse0INtB7_6FnOnceTReEE9call_onceBT_, symObjAddr: 0x3D84, symBinAddr: 0x10000485C, symSize: 0x34 }
  - { offset: 0x5ADD, size: 0x8, addend: 0x0, symName: __RNvXs2_NtNtNtCsfvfooZQ3Axs_4core3ops8function5implsQNCNvMCs8gSf4wuA74h_18build_script_buildNtBT_7Version5parses_0INtB7_6FnOnceTReEE9call_onceBT_, symObjAddr: 0x3DB8, symBinAddr: 0x100004890, symSize: 0x34 }
  - { offset: 0x5C24, size: 0x8, addend: 0x0, symName: __RNvXs2U_NtNtCsfvfooZQ3Axs_4core5slice4iterINtB6_4IterhENtNtNtNtBa_4iter6traits8iterator8Iterator4nextCs8gSf4wuA74h_18build_script_build, symObjAddr: 0x3AE0, symBinAddr: 0x1000045B8, symSize: 0xBC }
  - { offset: 0x5D78, size: 0x8, addend: 0x0, symName: __RNvXs2V_NtNtCsfvfooZQ3Axs_4core5slice4iterINtB6_4IterhENtNtNtNtBa_4iter6traits12double_ended19DoubleEndedIterator9next_backCs8gSf4wuA74h_18build_script_build, symObjAddr: 0x3B9C, symBinAddr: 0x100004674, symSize: 0x100 }
  - { offset: 0x5FBC, size: 0x8, addend: 0x0, symName: __RNvNvNtNtCsfvfooZQ3Axs_4core5slice3raw14from_raw_parts18precondition_checkCs8gSf4wuA74h_18build_script_build, symObjAddr: 0x329C, symBinAddr: 0x100003D7C, symSize: 0x168 }
  - { offset: 0x6102, size: 0x8, addend: 0x0, symName: __RNvNvNtNtCsfvfooZQ3Axs_4core5slice3raw18from_raw_parts_mut18precondition_checkCs8gSf4wuA74h_18build_script_build, symObjAddr: 0x3404, symBinAddr: 0x100003EE4, symSize: 0x168 }
  - { offset: 0x62B3, size: 0x8, addend: 0x0, symName: __RNvNvXs0_NtNtCsfvfooZQ3Axs_4core5slice5indexjINtB7_10SliceIndexSpE13get_unchecked18precondition_checkCs8gSf4wuA74h_18build_script_build, symObjAddr: 0x356C, symBinAddr: 0x10000404C, symSize: 0x40 }
  - { offset: 0x62EF, size: 0x8, addend: 0x0, symName: __RNvNvXs0_NtNtCsfvfooZQ3Axs_4core5slice5indexjINtB7_10SliceIndexSpE17get_unchecked_mut18precondition_checkCs8gSf4wuA74h_18build_script_build, symObjAddr: 0x35AC, symBinAddr: 0x10000408C, symSize: 0x40 }
  - { offset: 0x6365, size: 0x8, addend: 0x0, symName: __RNvNvXs2_NtNtCsfvfooZQ3Axs_4core5slice5indexINtNtNtBb_3ops5range5RangejEINtB7_10SliceIndexSpE13get_unchecked18precondition_checkCs8gSf4wuA74h_18build_script_build, symObjAddr: 0x35EC, symBinAddr: 0x1000040CC, symSize: 0x60 }
  - { offset: 0x6476, size: 0x8, addend: 0x0, symName: __RINvXs0_NtNtNtCsfvfooZQ3Axs_4core4iter8adapters3mapINtB6_3MapIBO_INtNtB8_4take4TakeINtNtNtBc_3str4iter5SplitcEENCNvMCs8gSf4wuA74h_18build_script_buildNtB1Q_7Version5parse0ENCB1N_s_0ENtNtNtBa_6traits8iterator8Iterator4foldjNCNvYBN_B2U_5count0EB1Q_, symObjAddr: 0x14E8, symBinAddr: 0x100001FC8, symSize: 0x4C }
  - { offset: 0x64EC, size: 0x8, addend: 0x0, symName: __RINvXs0_NtNtNtCsfvfooZQ3Axs_4core4iter8adapters3mapINtB6_3MapINtNtB8_4take4TakeINtNtNtBc_3str4iter5SplitcEENCNvMCs8gSf4wuA74h_18build_script_buildNtB1M_7Version5parse0ENtNtNtBa_6traits8iterator8Iterator4foldjNCINvB6_8map_foldReINtNtBc_6result6ResultmNtNtCse1nGBsou5OW_5alloc6string6StringEjNCB1J_s_0NCNvYIBO_BN_B4E_EB2G_5count0E0EB1M_, symObjAddr: 0x1534, symBinAddr: 0x100002014, symSize: 0x4C }
  - { offset: 0x6562, size: 0x8, addend: 0x0, symName: __RINvXs0_NtNtNtCsfvfooZQ3Axs_4core4iter8adapters3mapINtB6_3MapINtNtNtBc_3str4iter5SplitcENCNvCs8gSf4wuA74h_18build_script_build11enable_simd0ENtNtNtBa_6traits8iterator8Iterator8try_folduNCINvNvB2f_3any5checkReNCB1q_s0_0E0INtNtNtBc_3ops12control_flow11ControlFlowuEEB1s_, symObjAddr: 0x1580, symBinAddr: 0x100002060, symSize: 0x30 }
  - { offset: 0x65E0, size: 0x8, addend: 0x0, symName: __RINvXs0_NtNtNtCsfvfooZQ3Axs_4core4iter8adapters3mapINtB6_3MapINtNtNtBc_3str4iter5SplitcENCNvCs8gSf4wuA74h_18build_script_build11enable_simd0ENtNtNtBa_6traits8iterator8Iterator8try_folduNCINvNvB2f_3any5checkReNCB1q_s_0E0INtNtNtBc_3ops12control_flow11ControlFlowuEEB1s_, symObjAddr: 0x15B0, symBinAddr: 0x100002090, symSize: 0x30 }
  - { offset: 0x665E, size: 0x8, addend: 0x0, symName: __RNvXs0_NtNtNtCsfvfooZQ3Axs_4core4iter8adapters3mapINtB5_3MapIBN_INtNtB7_4take4TakeINtNtNtBb_3str4iter5SplitcEENCNvMCs8gSf4wuA74h_18build_script_buildNtB1P_7Version5parse0ENCB1M_s_0ENtNtNtB9_6traits8iterator8Iterator4nextB1P_, symObjAddr: 0x390C, symBinAddr: 0x1000043E4, symSize: 0x9C }
  - { offset: 0x66D8, size: 0x8, addend: 0x0, symName: __RNvXs0_NtNtNtCsfvfooZQ3Axs_4core4iter8adapters3mapINtB5_3MapINtNtB7_4take4TakeINtNtNtBb_3str4iter5SplitcEENCNvMCs8gSf4wuA74h_18build_script_buildNtB1L_7Version5parse0ENtNtNtB9_6traits8iterator8Iterator4nextB1L_, symObjAddr: 0x39A8, symBinAddr: 0x100004480, symSize: 0x88 }
  - { offset: 0x6816, size: 0x8, addend: 0x0, symName: __RNCINvNtNtNtCsfvfooZQ3Axs_4core4iter8adapters3map12map_try_foldReBZ_uINtNtNtBa_3ops12control_flow11ControlFlowuENCNvCs8gSf4wuA74h_18build_script_build11enable_simd0NCINvNvNtNtNtB8_6traits8iterator8Iterator3any5checkBZ_NCB1O_s0_0E0E0B1Q_, symObjAddr: 0x1970, symBinAddr: 0x100002450, symSize: 0x98 }
  - { offset: 0x68A8, size: 0x8, addend: 0x0, symName: __RNCINvNtNtNtCsfvfooZQ3Axs_4core4iter8adapters3map12map_try_foldReBZ_uINtNtNtBa_3ops12control_flow11ControlFlowuENCNvCs8gSf4wuA74h_18build_script_build11enable_simd0NCINvNvNtNtNtB8_6traits8iterator8Iterator3any5checkBZ_NCB1O_s_0E0E0B1Q_, symObjAddr: 0x1A08, symBinAddr: 0x1000024E8, symSize: 0x98 }
  - { offset: 0x6940, size: 0x8, addend: 0x0, symName: __RNCINvNtNtNtCsfvfooZQ3Axs_4core4iter8adapters3map8map_foldReBU_jNCNvMCs8gSf4wuA74h_18build_script_buildNtB15_7Version5parse0NCIB2_BU_INtNtBa_6result6ResultmNtNtCse1nGBsou5OW_5alloc6string6StringEjNCB12_s_0NCNvYINtB4_3MapIB3n_INtNtB6_4take4TakeINtNtNtBa_3str4iter5SplitcEEB10_EB38_ENtNtNtB8_6traits8iterator8Iterator5count0E0E0B15_, symObjAddr: 0x1AA0, symBinAddr: 0x100002580, symSize: 0xC0 }
  - { offset: 0x69C7, size: 0x8, addend: 0x0, symName: __RNCINvNtNtNtCsfvfooZQ3Axs_4core4iter8adapters3map8map_foldReINtNtBa_6result6ResultmNtNtCse1nGBsou5OW_5alloc6string6StringEjNCNvMCs8gSf4wuA74h_18build_script_buildNtB22_7Version5parses_0NCNvYINtB4_3MapIB33_INtNtB6_4take4TakeINtNtNtBa_3str4iter5SplitcEENCB1Z_0EB1X_ENtNtNtB8_6traits8iterator8Iterator5count0E0B22_, symObjAddr: 0x1B60, symBinAddr: 0x100002640, symSize: 0xBC }
  - { offset: 0x6A90, size: 0x8, addend: 0x0, symName: __RNvXsb_NtNtNtCsfvfooZQ3Axs_4core4iter8adapters3mapINtB5_3MapIBN_INtNtB7_4take4TakeINtNtNtBb_3str4iter5SplitcEENCNvMCs8gSf4wuA74h_18build_script_buildNtB1P_7Version5parse0ENCB1M_s_0ENtNtBb_5clone5Clone5cloneB1P_, symObjAddr: 0x4858, symBinAddr: 0x100005330, symSize: 0x68 }
  - { offset: 0x6ACE, size: 0x8, addend: 0x0, symName: __RNvXsb_NtNtNtCsfvfooZQ3Axs_4core4iter8adapters3mapINtB5_3MapINtNtB7_4take4TakeINtNtNtBb_3str4iter5SplitcEENCNvMCs8gSf4wuA74h_18build_script_buildNtB1L_7Version5parse0ENtNtBb_5clone5Clone5cloneB1L_, symObjAddr: 0x48C0, symBinAddr: 0x100005398, symSize: 0x68 }
  - { offset: 0x6B0C, size: 0x8, addend: 0x0, symName: __RNvXsb_NtNtNtCsfvfooZQ3Axs_4core4iter8adapters3mapINtB5_3MapINtNtNtBb_3str4iter5SplitcENCNvCs8gSf4wuA74h_18build_script_build11enable_simd0ENtNtBb_5clone5Clone5cloneB1r_, symObjAddr: 0x4928, symBinAddr: 0x100005400, symSize: 0x68 }
  - { offset: 0x6B89, size: 0x8, addend: 0x0, symName: __RINvXs7_NtNtNtCsfvfooZQ3Axs_4core4iter8adapters4takeINtB6_4TakeINtNtNtBc_3str4iter5SplitcEENtB6_8SpecTake9spec_foldjNCINvNtB8_3map8map_foldReB2d_jNCNvMCs8gSf4wuA74h_18build_script_buildNtB2p_7Version5parse0NCIB1T_B2d_INtNtBc_6result6ResultmNtNtCse1nGBsou5OW_5alloc6string6StringEjNCB2m_s_0NCNvYINtB1V_3MapIB4J_BO_B2k_EB4u_ENtNtNtBa_6traits8iterator8Iterator5count0E0E0EB2p_, symObjAddr: 0x15E0, symBinAddr: 0x1000020C0, symSize: 0x44 }
  - { offset: 0x6BF7, size: 0x8, addend: 0x0, symName: __RINvXs_NtNtNtCsfvfooZQ3Axs_4core4iter8adapters4takeINtB5_4TakeINtNtNtBb_3str4iter5SplitcEENtNtNtB9_6traits8iterator8Iterator4foldjNCINvNtB7_3map8map_foldReB2r_jNCNvMCs8gSf4wuA74h_18build_script_buildNtB2D_7Version5parse0NCIB27_B2r_INtNtBb_6result6ResultmNtNtCse1nGBsou5OW_5alloc6string6StringEjNCB2A_s_0NCNvYINtB29_3MapIB4X_BN_B2y_EB4I_EB1q_5count0E0E0EB2D_, symObjAddr: 0x16FC, symBinAddr: 0x1000021DC, symSize: 0x20 }
  - { offset: 0x6C5B, size: 0x8, addend: 0x0, symName: __RINvXs_NtNtNtCsfvfooZQ3Axs_4core4iter8adapters4takeINtB5_4TakeINtNtNtBb_3str4iter5SplitcEENtNtNtB9_6traits8iterator8Iterator8try_foldjNCINvMNtNtBb_3ops9try_traitINtB2e_17NeverShortCircuitjE10wrap_mut_2jReNCINvNtB7_3map8map_foldB3e_B3e_jNCNvMCs8gSf4wuA74h_18build_script_buildNtB3R_7Version5parse0NCIB3j_B3e_INtNtBb_6result6ResultmNtNtCse1nGBsou5OW_5alloc6string6StringEjNCB3O_s_0NCNvYINtB3l_3MapIB6b_BN_B3M_EB5W_EB1q_5count0E0E0E0B2z_EB3R_, symObjAddr: 0x171C, symBinAddr: 0x1000021FC, symSize: 0xFC }
  - { offset: 0x6D1F, size: 0x8, addend: 0x0, symName: __RNCINvNvXs_NtNtNtCsfvfooZQ3Axs_4core4iter8adapters4takeINtB9_4TakepENtNtNtBd_6traits8iterator8Iterator8try_fold5checkRejINtNtNtBf_3ops9try_trait17NeverShortCircuitjENCINvMB1X_B1U_10wrap_mut_2jB1R_NCINvNtBb_3map8map_foldB1R_B1R_jNCNvMCs8gSf4wuA74h_18build_script_buildNtB3J_7Version5parse0NCIB3b_B1R_INtNtBf_6result6ResultmNtNtCse1nGBsou5OW_5alloc6string6StringEjNCB3G_s_0NCNvYINtB3d_3MapIB63_IBS_INtNtNtBf_3str4iter5SplitcEEB3E_EB5O_EB14_5count0E0E0E0E0B3J_, symObjAddr: 0x1C1C, symBinAddr: 0x1000026FC, symSize: 0xCC }
  - { offset: 0x6DE1, size: 0x8, addend: 0x0, symName: __RNvXs_NtNtNtCsfvfooZQ3Axs_4core4iter8adapters4takeINtB4_4TakeINtNtNtBa_3str4iter5SplitcEENtNtNtB8_6traits8iterator8Iterator4nextCs8gSf4wuA74h_18build_script_build, symObjAddr: 0x4690, symBinAddr: 0x100005168, symSize: 0x64 }
  - { offset: 0x6E46, size: 0x8, addend: 0x0, symName: __RNvXsc_NtNtNtCsfvfooZQ3Axs_4core4iter8adapters4takeINtB5_4TakeINtNtNtBb_3str4iter5SplitcEENtNtBb_5clone5Clone5cloneCs8gSf4wuA74h_18build_script_build, symObjAddr: 0x4990, symBinAddr: 0x100005468, symSize: 0x68 }
  - { offset: 0x6E8D, size: 0x8, addend: 0x0, symName: __RINvYINtNtNtNtCsfvfooZQ3Axs_4core4iter8adapters3map3MapINtNtB8_4take4TakeINtNtNtBc_3str4iter5SplitcEENCNvMCs8gSf4wuA74h_18build_script_buildNtB1G_7Version5parse0ENtNtNtBa_6traits8iterator8Iterator3mapINtNtBc_6result6ResultmNtNtCse1nGBsou5OW_5alloc6string6StringENCB1D_s_0EB1G_, symObjAddr: 0x1818, symBinAddr: 0x1000022F8, symSize: 0x30 }
  - { offset: 0x6EFB, size: 0x8, addend: 0x0, symName: __RINvYINtNtNtNtCsfvfooZQ3Axs_4core4iter8adapters3map3MapINtNtNtBc_3str4iter5SplitcENCNvCs8gSf4wuA74h_18build_script_build11enable_simd0ENtNtNtBa_6traits8iterator8Iterator3anyNCB1k_s0_0EB1m_, symObjAddr: 0x1848, symBinAddr: 0x100002328, symSize: 0x3C }
  - { offset: 0x6F4A, size: 0x8, addend: 0x0, symName: __RINvYINtNtNtNtCsfvfooZQ3Axs_4core4iter8adapters3map3MapINtNtNtBc_3str4iter5SplitcENCNvCs8gSf4wuA74h_18build_script_build11enable_simd0ENtNtNtBa_6traits8iterator8Iterator3anyNCB1k_s_0EB1m_, symObjAddr: 0x1884, symBinAddr: 0x100002364, symSize: 0x3C }
  - { offset: 0x6F99, size: 0x8, addend: 0x0, symName: __RINvYINtNtNtNtCsfvfooZQ3Axs_4core4iter8adapters4take4TakeINtNtNtBc_3str4iter5SplitcEENtNtNtBa_6traits8iterator8Iterator3mapReNCNvMCs8gSf4wuA74h_18build_script_buildNtB24_7Version5parse0EB24_, symObjAddr: 0x18C0, symBinAddr: 0x1000023A0, symSize: 0x30 }
  - { offset: 0x7007, size: 0x8, addend: 0x0, symName: __RNvYINtNtNtNtCsfvfooZQ3Axs_4core4iter8adapters3map3MapIB3_INtNtB7_4take4TakeINtNtNtBb_3str4iter5SplitcEENCNvMCs8gSf4wuA74h_18build_script_buildNtB1J_7Version5parse0ENCB1G_s_0ENtNtNtB9_6traits8iterator8Iterator5countB1J_, symObjAddr: 0x4CB4, symBinAddr: 0x10000578C, symSize: 0x18 }
  - { offset: 0x7088, size: 0x8, addend: 0x0, symName: __RNvXNtNtNtCsfvfooZQ3Axs_4core4iter6traits7collectINtNtNtB8_5slice4iter4IterhENtB2_12IntoIterator9into_iterCs8gSf4wuA74h_18build_script_build, symObjAddr: 0x37C4, symBinAddr: 0x1000042A4, symSize: 0x1C }
  - { offset: 0x71D3, size: 0x8, addend: 0x0, symName: __RNvMNtNtCsfvfooZQ3Axs_4core4char7methodsc14is_ascii_digitCs8gSf4wuA74h_18build_script_build, symObjAddr: 0x2198, symBinAddr: 0x100002C78, symSize: 0x54 }
  - { offset: 0x7201, size: 0x8, addend: 0x0, symName: __RNvMNtNtCsfvfooZQ3Axs_4core4char7methodsc8to_digitCs8gSf4wuA74h_18build_script_build, symObjAddr: 0x21EC, symBinAddr: 0x100002CCC, symSize: 0x14C }
  - { offset: 0x732B, size: 0x8, addend: 0x0, symName: __RNvNtNtCsfvfooZQ3Axs_4core4char7methods15encode_utf8_rawCs8gSf4wuA74h_18build_script_build, symObjAddr: 0x2B54, symBinAddr: 0x100003634, symSize: 0x228 }
  - { offset: 0x7517, size: 0x8, addend: 0x0, symName: __RNvNvNtNtCsfvfooZQ3Axs_4core4char7convert18from_u32_unchecked18precondition_checkCs8gSf4wuA74h_18build_script_build, symObjAddr: 0x3204, symBinAddr: 0x100003CE4, symSize: 0x98 }
  - { offset: 0x78A8, size: 0x8, addend: 0x0, symName: __RNvNtNtNtCsfvfooZQ3Axs_4core7unicode12unicode_data11white_space6lookupCs8gSf4wuA74h_18build_script_build, symObjAddr: 0x2D7C, symBinAddr: 0x10000385C, symSize: 0x14C }
  - { offset: 0x78E3, size: 0x8, addend: 0x0, symName: __RNvNvNtCsfvfooZQ3Axs_4core4hint16assert_unchecked18precondition_checkCs8gSf4wuA74h_18build_script_build, symObjAddr: 0x30D8, symBinAddr: 0x100003BB8, symSize: 0x38 }
  - { offset: 0x7911, size: 0x8, addend: 0x0, symName: __RNvNvNtCsfvfooZQ3Axs_4core4hint21unreachable_unchecked18precondition_checkCs8gSf4wuA74h_18build_script_build, symObjAddr: 0x3110, symBinAddr: 0x100003BF0, symSize: 0x1C }
  - { offset: 0x795D, size: 0x8, addend: 0x0, symName: __RNvNvNtCsfvfooZQ3Axs_4core9ub_checks23maybe_is_nonoverlapping7runtimeCs8gSf4wuA74h_18build_script_build, symObjAddr: 0x312C, symBinAddr: 0x100003C0C, symSize: 0xD8 }
  - { offset: 0x7C54, size: 0x8, addend: 0x0, symName: __RNvXNtCsfvfooZQ3Axs_4core7convertReINtB2_5AsRefNtNtNtCscOYdFFY2T5N_3std3ffi6os_str5OsStrE6as_refCs8gSf4wuA74h_18build_script_build, symObjAddr: 0x36AC, symBinAddr: 0x10000418C, symSize: 0x30 }
  - { offset: 0x7DDE, size: 0x8, addend: 0x0, symName: __RNvYNCNvCs8gSf4wuA74h_18build_script_build11enable_simd0NtNtCsfvfooZQ3Axs_4core5clone5Clone5cloneB6_, symObjAddr: 0x4DAC, symBinAddr: 0x100005884, symSize: 0x10 }
  - { offset: 0x7E0B, size: 0x8, addend: 0x0, symName: __RNvYNCNvMCs8gSf4wuA74h_18build_script_buildNtB7_7Version5parse0NtNtCsfvfooZQ3Axs_4core5clone5Clone5cloneB7_, symObjAddr: 0x4DBC, symBinAddr: 0x100005894, symSize: 0x10 }
  - { offset: 0x7E38, size: 0x8, addend: 0x0, symName: __RNvYNCNvMCs8gSf4wuA74h_18build_script_buildNtB7_7Version5parses_0NtNtCsfvfooZQ3Axs_4core5clone5Clone5cloneB7_, symObjAddr: 0x4DCC, symBinAddr: 0x1000058A4, symSize: 0x10 }
  - { offset: 0x8155, size: 0x8, addend: 0x0, symName: __RNvXsn_NtCse1nGBsou5OW_5alloc3vecINtB5_3VecINtNtB7_5boxed3BoxDINtNtNtCsfvfooZQ3Axs_4core3ops8function5FnMutuEp6OutputINtNtB15_6result6ResultuNtNtNtCscOYdFFY2T5N_3std2io5error5ErrorENtNtB15_6marker4SendNtB2V_4SyncEL_EENtNtB13_4drop4Drop4dropCs8gSf4wuA74h_18build_script_build, symObjAddr: 0x49F8, symBinAddr: 0x1000054D0, symSize: 0x38 }
  - { offset: 0x8205, size: 0x8, addend: 0x0, symName: __RNvXsn_NtCse1nGBsou5OW_5alloc3vecINtB5_3VecNtNtNtB7_3ffi5c_str7CStringENtNtNtCsfvfooZQ3Axs_4core3ops4drop4Drop4dropCs8gSf4wuA74h_18build_script_build, symObjAddr: 0x4A30, symBinAddr: 0x100005508, symSize: 0x38 }
  - { offset: 0x82B5, size: 0x8, addend: 0x0, symName: __RNvXsn_NtCse1nGBsou5OW_5alloc3vecINtB5_3VecPaENtNtNtCsfvfooZQ3Axs_4core3ops4drop4Drop4dropCs8gSf4wuA74h_18build_script_build, symObjAddr: 0x4A68, symBinAddr: 0x100005540, symSize: 0x24 }
  - { offset: 0x8421, size: 0x8, addend: 0x0, symName: __RNvXsp_NtCse1nGBsou5OW_5alloc3vecINtB5_3VechENtNtCsfvfooZQ3Axs_4core3fmt5Debug3fmtCs8gSf4wuA74h_18build_script_build, symObjAddr: 0x4B14, symBinAddr: 0x1000055EC, symSize: 0x70 }
  - { offset: 0x8545, size: 0x8, addend: 0x0, symName: __RNvXs1_NtCse1nGBsou5OW_5alloc5allocNtB5_6GlobalNtNtCsfvfooZQ3Axs_4core5clone5Clone5cloneCs8gSf4wuA74h_18build_script_build, symObjAddr: 0x3A70, symBinAddr: 0x100004548, symSize: 0x10 }
  - { offset: 0x8596, size: 0x8, addend: 0x0, symName: __RNvXs_NtCse1nGBsou5OW_5alloc5allocNtB4_6GlobalNtNtCsfvfooZQ3Axs_4core5alloc9Allocator10deallocateCs8gSf4wuA74h_18build_script_build, symObjAddr: 0x4538, symBinAddr: 0x100005010, symSize: 0x88 }
  - { offset: 0x89F5, size: 0x8, addend: 0x0, symName: __RNCNvNtCse1nGBsou5OW_5alloc3fmt6format0Cs8gSf4wuA74h_18build_script_build, symObjAddr: 0x1D7C, symBinAddr: 0x10000285C, symSize: 0x48 }
  - { offset: 0x8A26, size: 0x8, addend: 0x0, symName: __RNvNtCse1nGBsou5OW_5alloc3fmt6formatCs8gSf4wuA74h_18build_script_build, symObjAddr: 0x2A80, symBinAddr: 0x100003560, symSize: 0xD4 }
  - { offset: 0x8A91, size: 0x8, addend: 0x0, symName: __RINvXs_NtNtCse1nGBsou5OW_5alloc5slice4hackhNtB5_10ConvertVec6to_vecNtNtB9_5alloc6GlobalECs8gSf4wuA74h_18build_script_build, symObjAddr: 0x1624, symBinAddr: 0x100002104, symSize: 0xD8 }
  - { offset: 0x8D3A, size: 0x8, addend: 0x0, symName: __RNvXs0_NtNtCse1nGBsou5OW_5alloc3ffi5c_strNtB5_7CStringNtNtNtCsfvfooZQ3Axs_4core3ops4drop4Drop4dropCs8gSf4wuA74h_18build_script_build, symObjAddr: 0x3898, symBinAddr: 0x100004378, symSize: 0x6C }
  - { offset: 0x8DE8, size: 0x8, addend: 0x0, symName: __RNvXs2_NtCse1nGBsou5OW_5alloc3streNtNtB7_6borrow7ToOwned8to_ownedCs8gSf4wuA74h_18build_script_build, symObjAddr: 0x3C9C, symBinAddr: 0x100004774, symSize: 0x50 }
  - { offset: 0x8EE1, size: 0x8, addend: 0x0, symName: __RNvXs6_NtCse1nGBsou5OW_5alloc5boxedINtB5_3BoxDINtNtNtCsfvfooZQ3Axs_4core3ops8function5FnMutuEp6OutputINtNtBP_6result6ResultuNtNtNtCscOYdFFY2T5N_3std2io5error5ErrorENtNtBP_6marker4SendNtB2E_4SyncEL_ENtNtBN_4drop4Drop4dropCs8gSf4wuA74h_18build_script_build, symObjAddr: 0x3EF4, symBinAddr: 0x1000049CC, symSize: 0xC4 }
  - { offset: 0x9018, size: 0x8, addend: 0x0, symName: __RNvXs6_NtCse1nGBsou5OW_5alloc5boxedINtB5_3BoxDNtNtCsfvfooZQ3Axs_4core5error5ErrorNtNtBM_6marker4SendNtB1j_4SyncEL_ENtNtNtBM_3ops4drop4Drop4dropCs8gSf4wuA74h_18build_script_build, symObjAddr: 0x3FB8, symBinAddr: 0x100004A90, symSize: 0xC4 }
  - { offset: 0x914F, size: 0x8, addend: 0x0, symName: __RNvXs6_NtCse1nGBsou5OW_5alloc5boxedINtB5_3BoxNtNtNtCscOYdFFY2T5N_3std2io5error6CustomENtNtNtCsfvfooZQ3Axs_4core3ops4drop4Drop4dropCs8gSf4wuA74h_18build_script_build, symObjAddr: 0x407C, symBinAddr: 0x100004B54, symSize: 0xB0 }
  - { offset: 0x9286, size: 0x8, addend: 0x0, symName: __RNvXs6_NtCse1nGBsou5OW_5alloc5boxedINtB5_3BoxShENtNtNtCsfvfooZQ3Axs_4core3ops4drop4Drop4dropCs8gSf4wuA74h_18build_script_build, symObjAddr: 0x412C, symBinAddr: 0x100004C04, symSize: 0xBC }
  - { offset: 0x93BD, size: 0x8, addend: 0x0, symName: __RNvXs6_NtCse1nGBsou5OW_5alloc5boxedINtB5_3BoxSmENtNtNtCsfvfooZQ3Axs_4core3ops4drop4Drop4dropCs8gSf4wuA74h_18build_script_build, symObjAddr: 0x41E8, symBinAddr: 0x100004CC0, symSize: 0xBC }
  - { offset: 0x9AF2, size: 0x8, addend: 0x0, symName: __RINvMNtCsfvfooZQ3Axs_4core6optionINtB3_6OptionReE11map_or_elseNtNtCse1nGBsou5OW_5alloc6string6StringNCNvNtB12_3fmt6format0NvYeNtNtB12_6borrow7ToOwned8to_ownedECs8gSf4wuA74h_18build_script_build, symObjAddr: 0x3EC, symBinAddr: 0x100000FDC, symSize: 0xCC }
  - { offset: 0x9B90, size: 0x8, addend: 0x0, symName: __RNCNCNvMCs8gSf4wuA74h_18build_script_buildNtB6_7Version5parses_00B6_, symObjAddr: 0x6130, symBinAddr: 0x100006C08, symSize: 0x38 }
  - { offset: 0x9BD5, size: 0x8, addend: 0x0, symName: __RNCNvMCs8gSf4wuA74h_18build_script_buildNtB4_7Version5parse0B4_, symObjAddr: 0x5FC8, symBinAddr: 0x100006AA0, symSize: 0xBC }
  - { offset: 0x9C2D, size: 0x8, addend: 0x0, symName: __RNCNCNvMCs8gSf4wuA74h_18build_script_buildNtB6_7Version5parse00B6_, symObjAddr: 0x6084, symBinAddr: 0x100006B5C, symSize: 0x40 }
  - { offset: 0x9C6B, size: 0x8, addend: 0x0, symName: __RNCNvMCs8gSf4wuA74h_18build_script_buildNtB4_7Version5parses_0B4_, symObjAddr: 0x60C4, symBinAddr: 0x100006B9C, symSize: 0x6C }
  - { offset: 0x9CA3, size: 0x8, addend: 0x0, symName: __RNvCs8gSf4wuA74h_18build_script_build4main, symObjAddr: 0x51A8, symBinAddr: 0x100005C80, symSize: 0x358 }
  - { offset: 0x9D32, size: 0x8, addend: 0x0, symName: __RNvCs8gSf4wuA74h_18build_script_build19enable_new_features, symObjAddr: 0x5500, symBinAddr: 0x100005FD8, symSize: 0x44 }
  - { offset: 0x9D5B, size: 0x8, addend: 0x0, symName: __RNvCs8gSf4wuA74h_18build_script_build11enable_simd, symObjAddr: 0x5544, symBinAddr: 0x10000601C, symSize: 0x568 }
  - { offset: 0x9E15, size: 0x8, addend: 0x0, symName: __RNCNvCs8gSf4wuA74h_18build_script_build11enable_simd0B3_, symObjAddr: 0x5AAC, symBinAddr: 0x100006584, symSize: 0x48 }
  - { offset: 0x9E4B, size: 0x8, addend: 0x0, symName: __RNCNvCs8gSf4wuA74h_18build_script_build11enable_simds_0B3_, symObjAddr: 0x5AF4, symBinAddr: 0x1000065CC, symSize: 0x48 }
  - { offset: 0x9E81, size: 0x8, addend: 0x0, symName: __RNCNvCs8gSf4wuA74h_18build_script_build11enable_simds0_0B3_, symObjAddr: 0x5B3C, symBinAddr: 0x100006614, symSize: 0x48 }
  - { offset: 0x9F0F, size: 0x8, addend: 0x0, symName: __RNvCs8gSf4wuA74h_18build_script_build6var_is, symObjAddr: 0x6168, symBinAddr: 0x100006C40, symSize: 0x118 }
  - { offset: 0x9F64, size: 0x8, addend: 0x0, symName: __RNvXs4_Cs8gSf4wuA74h_18build_script_buildNtB5_7VersionNtNtCsfvfooZQ3Axs_4core3cmp10PartialOrd11partial_cmpB5_, symObjAddr: 0x6280, symBinAddr: 0x100006D58, symSize: 0xC8 }
  - { offset: 0x9FDA, size: 0x8, addend: 0x0, symName: __RINvMNtCsfvfooZQ3Axs_4core6resultINtB3_6ResultmNtNtNtB5_3num5error13ParseIntErrorE7map_errNtNtCse1nGBsou5OW_5alloc6string6StringNCNCNvMCs8gSf4wuA74h_18build_script_buildNtB29_7Version5parses_00EB29_, symObjAddr: 0x4B8, symBinAddr: 0x1000010A8, symSize: 0x78 }
  - { offset: 0xA080, size: 0x8, addend: 0x0, symName: __RINvMs5_NtNtCsfvfooZQ3Axs_4core3fmt8buildersNtB6_9DebugList7entriesRhINtNtNtBa_5slice4iter4IterhEECs8gSf4wuA74h_18build_script_build, symObjAddr: 0x530, symBinAddr: 0x100001120, symSize: 0xD0 }
  - { offset: 0xA13D, size: 0x8, addend: 0x0, symName: __RINvMs_NtNtCsfvfooZQ3Axs_4core3fmt2rtNtB5_8Argument11new_displayNtNtCse1nGBsou5OW_5alloc6string6StringECs8gSf4wuA74h_18build_script_build, symObjAddr: 0x600, symBinAddr: 0x1000011F0, symSize: 0x2C }
  - { offset: 0xA1CA, size: 0x8, addend: 0x0, symName: __RINvMs_NtNtCsfvfooZQ3Axs_4core3fmt2rtNtB5_8Argument11new_displayReECs8gSf4wuA74h_18build_script_build, symObjAddr: 0x62C, symBinAddr: 0x10000121C, symSize: 0x2C }
  - { offset: 0xA22D, size: 0x8, addend: 0x0, symName: __RINvMs_NtNtCsfvfooZQ3Axs_4core3fmt2rtNtB5_8Argument9new_debugReECs8gSf4wuA74h_18build_script_build, symObjAddr: 0x658, symBinAddr: 0x100001248, symSize: 0x2C }
  - { offset: 0xA4F1, size: 0x8, addend: 0x0, symName: __RNvMNtCsfvfooZQ3Axs_4core6optionINtB2_6OptionNtNtNtCscOYdFFY2T5N_3std3ffi6os_str8OsStringE7is_noneCs8gSf4wuA74h_18build_script_build, symObjAddr: 0x1E34, symBinAddr: 0x100002914, symSize: 0x2C }
  - { offset: 0xA53B, size: 0x8, addend: 0x0, symName: __RNvMNtCsfvfooZQ3Axs_4core6optionINtB2_6OptionNtNtNtCscOYdFFY2T5N_3std3ffi6os_str8OsStringE7is_someCs8gSf4wuA74h_18build_script_build, symObjAddr: 0x1E60, symBinAddr: 0x100002940, symSize: 0x2C }
  - { offset: 0xA567, size: 0x8, addend: 0x0, symName: __RNvMNtCsfvfooZQ3Axs_4core6optionINtB2_6OptionNtNtNtCscOYdFFY2T5N_3std3ffi6os_str8OsStringE9unwrap_orCs8gSf4wuA74h_18build_script_build, symObjAddr: 0x1E8C, symBinAddr: 0x10000296C, symSize: 0x8C }
  - { offset: 0xA5C2, size: 0x8, addend: 0x0, symName: __RNvMNtCsfvfooZQ3Axs_4core6resultINtB2_6ResultNtNtCscOYdFFY2T5N_3std7process6OutputNtNtNtBL_2io5error5ErrorE6expectCs8gSf4wuA74h_18build_script_build, symObjAddr: 0x1F18, symBinAddr: 0x1000029F8, symSize: 0xBC }
  - { offset: 0xA625, size: 0x8, addend: 0x0, symName: __RNvMNtCsfvfooZQ3Axs_4core6resultINtB2_6ResultNtNtCse1nGBsou5OW_5alloc6string6StringNtBJ_13FromUtf8ErrorE6expectCs8gSf4wuA74h_18build_script_build, symObjAddr: 0x1FD4, symBinAddr: 0x100002AB4, symSize: 0xC8 }
  - { offset: 0xA688, size: 0x8, addend: 0x0, symName: __RNvMNtCsfvfooZQ3Axs_4core6resultINtB2_6ResulthNtNtNtB4_3num5error15TryFromIntErrorE6expectCs8gSf4wuA74h_18build_script_build, symObjAddr: 0x209C, symBinAddr: 0x100002B7C, symSize: 0x84 }
  - { offset: 0xA6EA, size: 0x8, addend: 0x0, symName: __RNvMNtCsfvfooZQ3Axs_4core6resultINtB2_6ResultuNtNtB4_3fmt5ErrorE6expectCs8gSf4wuA74h_18build_script_build, symObjAddr: 0x2120, symBinAddr: 0x100002C00, symSize: 0x78 }
  - { offset: 0xA7DC, size: 0x8, addend: 0x0, symName: __RNvMs0_NtNtCscOYdFFY2T5N_3std3ffi6os_strNtB5_8OsString11into_stringCs8gSf4wuA74h_18build_script_build, symObjAddr: 0x2338, symBinAddr: 0x100002E18, symSize: 0xBC }
  - { offset: 0xA88B, size: 0x8, addend: 0x0, symName: __RNvMs1_NtNtCsfvfooZQ3Axs_4core3ptr8non_nullINtB5_7NonNullhE7sub_ptrCs8gSf4wuA74h_18build_script_build, symObjAddr: 0x23F4, symBinAddr: 0x100002ED4, symSize: 0x74 }
  - { offset: 0xAA58, size: 0x8, addend: 0x0, symName: __RNvMs_NtCse1nGBsou5OW_5alloc3vecINtB4_3VechE4pushCs8gSf4wuA74h_18build_script_build, symObjAddr: 0x29A4, symBinAddr: 0x100003484, symSize: 0xDC }
  - { offset: 0xB8D3, size: 0x8, addend: 0x0, symName: __RNvMCs8gSf4wuA74h_18build_script_buildNtB2_7Version5parse, symObjAddr: 0x5B84, symBinAddr: 0x10000665C, symSize: 0x444 }
  - { offset: 0xBFF9, size: 0x8, addend: 0x0, symName: __RINvMsb_NtNtNtCse1nGBsou5OW_5alloc11collections5btree8navigateINtB6_13LazyLeafRangeNtNtNtB8_4node6marker5DyingNtNtNtCscOYdFFY2T5N_3std3ffi6os_str8OsStringINtNtCsfvfooZQ3Axs_4core6option6OptionB1K_EE16deallocating_endNtNtBc_5alloc6GlobalECs8gSf4wuA74h_18build_script_build, symObjAddr: 0x0, symBinAddr: 0x100006E4C, symSize: 0xA8 }
  - { offset: 0xC3FE, size: 0x8, addend: 0x0, symName: __RNvXs1j_NtCse1nGBsou5OW_5alloc6stringNtB6_13FromUtf8ErrorNtNtCsfvfooZQ3Axs_4core3fmt5Debug3fmtCs8gSf4wuA74h_18build_script_build, symObjAddr: 0x1E0C, symBinAddr: 0x100008C3C, symSize: 0x88 }
  - { offset: 0xC47B, size: 0x8, addend: 0x0, symName: __RNvXs1q_NtCse1nGBsou5OW_5alloc6stringNtB6_6StringINtNtCsfvfooZQ3Axs_4core3cmp9PartialEqReE2eqCs8gSf4wuA74h_18build_script_build, symObjAddr: 0x1E94, symBinAddr: 0x100008CC4, symSize: 0xC8 }
  - { offset: 0xC6BD, size: 0x8, addend: 0x0, symName: __RNvXsW_NtCse1nGBsou5OW_5alloc6stringNtB5_6StringNtNtCsfvfooZQ3Axs_4core3fmt5Write10write_charCs8gSf4wuA74h_18build_script_build, symObjAddr: 0x2600, symBinAddr: 0x100009430, symSize: 0x30 }
  - { offset: 0xC6FA, size: 0x8, addend: 0x0, symName: __RNvXsW_NtCse1nGBsou5OW_5alloc6stringNtB5_6StringNtNtCsfvfooZQ3Axs_4core3fmt5Write9write_strCs8gSf4wuA74h_18build_script_build, symObjAddr: 0x2630, symBinAddr: 0x100009460, symSize: 0x38 }
  - { offset: 0xC75B, size: 0x8, addend: 0x0, symName: __RNvXss_NtCse1nGBsou5OW_5alloc6stringNtB5_6StringNtNtNtCsfvfooZQ3Axs_4core3ops5deref5Deref5derefCs8gSf4wuA74h_18build_script_build, symObjAddr: 0x2C5C, symBinAddr: 0x100009A8C, symSize: 0x24 }
  - { offset: 0xC78F, size: 0x8, addend: 0x0, symName: __RNvXsl_NtCse1nGBsou5OW_5alloc6stringNtB5_6StringNtNtCsfvfooZQ3Axs_4core3fmt7Display3fmtCs8gSf4wuA74h_18build_script_build, symObjAddr: 0x2B70, symBinAddr: 0x1000099A0, symSize: 0x80 }
  - { offset: 0xC8F4, size: 0x8, addend: 0x0, symName: __RNvXsw_NtCse1nGBsou5OW_5alloc6stringNtNtNtCsfvfooZQ3Axs_4core3num5error13ParseIntErrorNtB5_8ToString9to_stringCs8gSf4wuA74h_18build_script_build, symObjAddr: 0x315C, symBinAddr: 0x100009F8C, symSize: 0x24 }
  - { offset: 0xC931, size: 0x8, addend: 0x0, symName: __RNvXsx_NtCse1nGBsou5OW_5alloc6stringNtNtNtCsfvfooZQ3Axs_4core3num5error13ParseIntErrorNtB5_12SpecToString14spec_to_stringCs8gSf4wuA74h_18build_script_build, symObjAddr: 0x3180, symBinAddr: 0x100009FB0, symSize: 0x144 }
  - { offset: 0xCBA1, size: 0x8, addend: 0x0, symName: __RNCINvMsm_NtNtNtCse1nGBsou5OW_5alloc11collections5btree8navigateINtNtBa_4node6HandleINtB13_7NodeRefNtNtB13_6marker5DyingNtNtNtCscOYdFFY2T5N_3std3ffi6os_str8OsStringINtNtCsfvfooZQ3Axs_4core6option6OptionB1U_ENtB1B_4LeafENtB1B_4EdgeE27deallocating_next_uncheckedNtNtBe_5alloc6GlobalE0Cs8gSf4wuA74h_18build_script_build, symObjAddr: 0xC28, symBinAddr: 0x100007A5C, symSize: 0x58 }
  - { offset: 0xD6DF, size: 0x8, addend: 0x0, symName: __RNvXNvMsT_NtNtNtCse1nGBsou5OW_5alloc11collections5btree4nodeINtB8_6HandleINtB8_7NodeRefNtNtB8_6marker5DyingpppENtB1p_2KVE12drop_key_valINtB2_7DropperINtNtCsfvfooZQ3Axs_4core6option6OptionNtNtNtCscOYdFFY2T5N_3std3ffi6os_str8OsStringEENtNtNtB2s_3ops4drop4Drop4dropCs8gSf4wuA74h_18build_script_build, symObjAddr: 0x1DE0, symBinAddr: 0x100008C10, symSize: 0x2C }
  - { offset: 0xE101, size: 0x8, addend: 0x0, symName: __RNvXs5_NtNtCsfvfooZQ3Axs_4core3num5errorNtB5_15TryFromIntErrorNtNtB9_3fmt5Debug3fmtCs8gSf4wuA74h_18build_script_build, symObjAddr: 0x2070, symBinAddr: 0x100008EA0, symSize: 0x54 }
  - { offset: 0xE387, size: 0x8, addend: 0x0, symName: __RNvXs2_NtNtCsfvfooZQ3Axs_4core3str7patterncNtB5_7Pattern13into_searcherCs8gSf4wuA74h_18build_script_build, symObjAddr: 0x1F5C, symBinAddr: 0x100008D8C, symSize: 0x114 }
  - { offset: 0xE4A5, size: 0x8, addend: 0x0, symName: __RNvXs7_NtNtCsfvfooZQ3Axs_4core3str7patternINtB5_18MultiCharEqPatternNCNCNvMCs8gSf4wuA74h_18build_script_buildNtB1b_7Version5parse00ENtB5_7Pattern13into_searcherB1b_, symObjAddr: 0x20C4, symBinAddr: 0x100008EF4, symSize: 0x90 }
  - { offset: 0xE501, size: 0x8, addend: 0x0, symName: __RNvXs7_NtNtCsfvfooZQ3Axs_4core3str7patternINtB5_18MultiCharEqPatternNCNvMB7_e4trim0ENtB5_7Pattern13into_searcherCs8gSf4wuA74h_18build_script_build, symObjAddr: 0x2154, symBinAddr: 0x100008F84, symSize: 0x90 }
  - { offset: 0xE563, size: 0x8, addend: 0x0, symName: __RNvXs8_NtNtCsfvfooZQ3Axs_4core3str7patternINtB5_19MultiCharEqSearcherNCNCNvMCs8gSf4wuA74h_18build_script_buildNtB1c_7Version5parse00ENtB5_8Searcher4nextB1c_, symObjAddr: 0x21E4, symBinAddr: 0x100009014, symSize: 0x13C }
  - { offset: 0xE683, size: 0x8, addend: 0x0, symName: __RNvXs8_NtNtCsfvfooZQ3Axs_4core3str7patternINtB5_19MultiCharEqSearcherNCNvMB7_e4trim0ENtB5_8Searcher4nextCs8gSf4wuA74h_18build_script_build, symObjAddr: 0x2320, symBinAddr: 0x100009150, symSize: 0x13C }
  - { offset: 0xE7A9, size: 0x8, addend: 0x0, symName: __RNvXs9_NtNtCsfvfooZQ3Axs_4core3str7patternINtB5_19MultiCharEqSearcherNCNvMB7_e4trim0ENtB5_15ReverseSearcher9next_backCs8gSf4wuA74h_18build_script_build, symObjAddr: 0x245C, symBinAddr: 0x10000928C, symSize: 0x13C }
  - { offset: 0xE8CF, size: 0x8, addend: 0x0, symName: __RNvXsM_NtNtCsfvfooZQ3Axs_4core3str7patternNtB5_12CharSearcherNtNtB9_5clone5Clone5cloneCs8gSf4wuA74h_18build_script_build, symObjAddr: 0x2598, symBinAddr: 0x1000093C8, symSize: 0x58 }
  - { offset: 0xE96A, size: 0x8, addend: 0x0, symName: __RNvXs_NtNtCsfvfooZQ3Axs_4core3str7patternNtB4_12CharSearcherNtB4_8Searcher10next_matchCs8gSf4wuA74h_18build_script_build, symObjAddr: 0x2668, symBinAddr: 0x100009498, symSize: 0x384 }
  - { offset: 0xEE0B, size: 0x8, addend: 0x0, symName: __RNvXs_NtNtCsfvfooZQ3Axs_4core3str7patternNtB4_12CharSearcherNtB4_8Searcher8haystackCs8gSf4wuA74h_18build_script_build, symObjAddr: 0x29EC, symBinAddr: 0x10000981C, symSize: 0x20 }
  - { offset: 0xEE3F, size: 0x8, addend: 0x0, symName: __RNvXso_NtNtCsfvfooZQ3Axs_4core3str7patternINtB5_21CharPredicateSearcherNCNCNvMCs8gSf4wuA74h_18build_script_buildNtB1e_7Version5parse00ENtB5_8Searcher10next_matchB1e_, symObjAddr: 0x2BF0, symBinAddr: 0x100009A20, symSize: 0x24 }
  - { offset: 0xEE76, size: 0x8, addend: 0x0, symName: __RNvXso_NtNtCsfvfooZQ3Axs_4core3str7patternINtB5_21CharPredicateSearcherNCNvMB7_e4trim0ENtB5_8Searcher11next_rejectCs8gSf4wuA74h_18build_script_build, symObjAddr: 0x2C14, symBinAddr: 0x100009A44, symSize: 0x24 }
  - { offset: 0xEEB3, size: 0x8, addend: 0x0, symName: __RNvXsp_NtNtCsfvfooZQ3Axs_4core3str7patternINtB5_21CharPredicateSearcherNCNvMB7_e4trim0ENtB5_15ReverseSearcher16next_reject_backCs8gSf4wuA74h_18build_script_build, symObjAddr: 0x2C38, symBinAddr: 0x100009A68, symSize: 0x24 }
  - { offset: 0xEEF0, size: 0x8, addend: 0x0, symName: __RNvXst_NtNtCsfvfooZQ3Axs_4core3str7patternReNtB5_7Pattern12is_prefix_ofCs8gSf4wuA74h_18build_script_build, symObjAddr: 0x2C80, symBinAddr: 0x100009AB0, symSize: 0x4C }
  - { offset: 0xEF2D, size: 0x8, addend: 0x0, symName: __RNvXst_NtNtCsfvfooZQ3Axs_4core3str7patternReNtB5_7Pattern13into_searcherCs8gSf4wuA74h_18build_script_build, symObjAddr: 0x2CCC, symBinAddr: 0x100009AFC, symSize: 0x4C }
  - { offset: 0xEF70, size: 0x8, addend: 0x0, symName: __RNvXsv_NtNtCsfvfooZQ3Axs_4core3str7patternNtB5_11StrSearcherNtB5_8Searcher4nextCs8gSf4wuA74h_18build_script_build, symObjAddr: 0x2D18, symBinAddr: 0x100009B48, symSize: 0x444 }
  - { offset: 0xF27B, size: 0x8, addend: 0x0, symName: __RNvXsz_NtNtCsfvfooZQ3Axs_4core3str7patternNtB5_14RejectAndMatchNtB5_14TwoWayStrategy16use_early_rejectCs8gSf4wuA74h_18build_script_build, symObjAddr: 0x32C4, symBinAddr: 0x10000A0F4, symSize: 0xC }
  - { offset: 0xF299, size: 0x8, addend: 0x0, symName: __RNvXsz_NtNtCsfvfooZQ3Axs_4core3str7patternNtB5_14RejectAndMatchNtB5_14TwoWayStrategy8matchingCs8gSf4wuA74h_18build_script_build, symObjAddr: 0x32D0, symBinAddr: 0x10000A100, symSize: 0x20 }
  - { offset: 0xF2D6, size: 0x8, addend: 0x0, symName: __RNvXsz_NtNtCsfvfooZQ3Axs_4core3str7patternNtB5_14RejectAndMatchNtB5_14TwoWayStrategy9rejectingCs8gSf4wuA74h_18build_script_build, symObjAddr: 0x32F0, symBinAddr: 0x10000A120, symSize: 0x28 }
  - { offset: 0xF319, size: 0x8, addend: 0x0, symName: __RNvYINtNtNtCsfvfooZQ3Axs_4core3str7pattern19MultiCharEqSearcherNCNCNvMCs8gSf4wuA74h_18build_script_buildNtB16_7Version5parse00ENtB5_8Searcher10next_matchB16_, symObjAddr: 0x3318, symBinAddr: 0x10000A148, symSize: 0x90 }
  - { offset: 0xF37A, size: 0x8, addend: 0x0, symName: __RNvYINtNtNtCsfvfooZQ3Axs_4core3str7pattern19MultiCharEqSearcherNCNvMB7_e4trim0ENtB5_8Searcher11next_rejectCs8gSf4wuA74h_18build_script_build, symObjAddr: 0x3438, symBinAddr: 0x10000A268, symSize: 0x90 }
  - { offset: 0xF3DF, size: 0x8, addend: 0x0, symName: __RNvYNtNtNtCsfvfooZQ3Axs_4core3str7pattern11StrSearcherNtB4_8Searcher11next_rejectCs8gSf4wuA74h_18build_script_build, symObjAddr: 0x34EC, symBinAddr: 0x10000A31C, symSize: 0x90 }
  - { offset: 0xF44A, size: 0x8, addend: 0x0, symName: __RNvYINtNtNtCsfvfooZQ3Axs_4core3str7pattern19MultiCharEqSearcherNCNvMB7_e4trim0ENtB5_15ReverseSearcher16next_reject_backCs8gSf4wuA74h_18build_script_build, symObjAddr: 0x33A8, symBinAddr: 0x10000A1D8, symSize: 0x90 }
  - { offset: 0x106EE, size: 0x8, addend: 0x0, symName: __RNvXs_NvNtNtCsfvfooZQ3Axs_4core3fmt5Write9write_fmtQNtNtCse1nGBsou5OW_5alloc6string6StringNtB4_12SpecWriteFmt14spec_write_fmtCs8gSf4wuA74h_18build_script_build, symObjAddr: 0x2A0C, symBinAddr: 0x10000983C, symSize: 0x164 }
  - { offset: 0x1079D, size: 0x8, addend: 0x0, symName: __RNvYNtNtCse1nGBsou5OW_5alloc6string6StringNtNtCsfvfooZQ3Axs_4core3fmt5Write9write_fmtCs8gSf4wuA74h_18build_script_build, symObjAddr: 0x34C8, symBinAddr: 0x10000A2F8, symSize: 0x24 }
  - { offset: 0x10DF3, size: 0x8, addend: 0x0, symName: __RNvNvMNtNtCsfvfooZQ3Axs_4core5alloc6layoutNtB4_6Layout25from_size_align_unchecked18precondition_checkCs8gSf4wuA74h_18build_script_build, symObjAddr: 0x1AAC, symBinAddr: 0x1000088DC, symSize: 0x50 }
  - { offset: 0x11576, size: 0x8, addend: 0x0, symName: __RNvNtNtCsfvfooZQ3Axs_4core5slice6memchr6memchrCs8gSf4wuA74h_18build_script_build, symObjAddr: 0x1998, symBinAddr: 0x1000087C8, symSize: 0x114 }
  - { offset: 0x11A5B, size: 0x8, addend: 0x0, symName: __RNvNvNtCsfvfooZQ3Axs_4core10intrinsics19copy_nonoverlapping18precondition_checkCs8gSf4wuA74h_18build_script_build, symObjAddr: 0x1AFC, symBinAddr: 0x10000892C, symSize: 0x2E4 }
  - { offset: 0x121D2, size: 0x8, addend: 0x0, symName: __RINvNtNtCscOYdFFY2T5N_3std3sys9backtrace28___rust_begin_short_backtraceFEuuECs8gSf4wuA74h_18build_script_build, symObjAddr: 0xC04, symBinAddr: 0x100007A38, symSize: 0x24 }
  - { offset: 0x12641, size: 0x8, addend: 0x0, symName: __RNvXsT_NtCscOYdFFY2T5N_3std7processuNtB5_11Termination6reportCs8gSf4wuA74h_18build_script_build, symObjAddr: 0x25F0, symBinAddr: 0x100009420, symSize: 0x10 }
  - { offset: 0x1279C, size: 0x8, addend: 0x0, symName: __RINvMsb_NtNtNtCse1nGBsou5OW_5alloc11collections5btree8navigateINtB6_13LazyLeafRangeNtNtNtB8_4node6marker5DyingNtNtNtCscOYdFFY2T5N_3std3ffi6os_str8OsStringINtNtCsfvfooZQ3Axs_4core6option6OptionB1K_EE16deallocating_endNtNtBc_5alloc6GlobalECs8gSf4wuA74h_18build_script_build, symObjAddr: 0x0, symBinAddr: 0x100006E4C, symSize: 0xA8 }
  - { offset: 0x128A9, size: 0x8, addend: 0x0, symName: __RINvMsb_NtNtNtCse1nGBsou5OW_5alloc11collections5btree8navigateINtB6_13LazyLeafRangeNtNtNtB8_4node6marker5DyingNtNtNtCscOYdFFY2T5N_3std3ffi6os_str8OsStringINtNtCsfvfooZQ3Axs_4core6option6OptionB1K_EE27deallocating_next_uncheckedNtNtBc_5alloc6GlobalECs8gSf4wuA74h_18build_script_build, symObjAddr: 0xA8, symBinAddr: 0x100006EF4, symSize: 0xA8 }
  - { offset: 0x12A34, size: 0x8, addend: 0x0, symName: __RINvMsh_NtNtNtCse1nGBsou5OW_5alloc11collections5btree4nodeINtB6_7NodeRefNtNtB6_6marker5DyingNtNtNtCscOYdFFY2T5N_3std3ffi6os_str8OsStringINtNtCsfvfooZQ3Axs_4core6option6OptionB1s_ENtB1a_14LeafOrInternalE21deallocate_and_ascendNtNtBc_5alloc6GlobalECs8gSf4wuA74h_18build_script_build, symObjAddr: 0x150, symBinAddr: 0x100006F9C, symSize: 0x178 }
  - { offset: 0x12C5C, size: 0x8, addend: 0x0, symName: __RINvMsj_NtNtNtCse1nGBsou5OW_5alloc11collections5btree8navigateINtNtB8_4node6HandleINtB11_7NodeRefNtNtB11_6marker5DyingNtNtNtCscOYdFFY2T5N_3std3ffi6os_str8OsStringINtNtCsfvfooZQ3Axs_4core6option6OptionB1S_ENtB1z_4LeafENtB1z_4EdgeE16deallocating_endNtNtBc_5alloc6GlobalECs8gSf4wuA74h_18build_script_build, symObjAddr: 0x2C8, symBinAddr: 0x100007114, symSize: 0xD8 }
  - { offset: 0x12EDD, size: 0x8, addend: 0x0, symName: __RINvMsj_NtNtNtCse1nGBsou5OW_5alloc11collections5btree8navigateINtNtB8_4node6HandleINtB11_7NodeRefNtNtB11_6marker5DyingNtNtNtCscOYdFFY2T5N_3std3ffi6os_str8OsStringINtNtCsfvfooZQ3Axs_4core6option6OptionB1S_ENtB1z_4LeafENtB1z_4EdgeE17deallocating_nextNtNtBc_5alloc6GlobalECs8gSf4wuA74h_18build_script_build, symObjAddr: 0x3A0, symBinAddr: 0x1000071EC, symSize: 0x254 }
  - { offset: 0x131C9, size: 0x8, addend: 0x0, symName: __RINvMsk_NtCscOYdFFY2T5N_3std7processNtB6_7Command3argReECs8gSf4wuA74h_18build_script_build, symObjAddr: 0x5F4, symBinAddr: 0x100007440, symSize: 0x70 }
  - { offset: 0x13204, size: 0x8, addend: 0x0, symName: __RINvMsk_NtCscOYdFFY2T5N_3std7processNtB6_7Command3newNtNtNtB8_3ffi6os_str8OsStringECs8gSf4wuA74h_18build_script_build, symObjAddr: 0x664, symBinAddr: 0x1000074B0, symSize: 0x90 }
  - { offset: 0x132CC, size: 0x8, addend: 0x0, symName: __RINvMsx_NtNtCsfvfooZQ3Axs_4core3str7patternNtB6_14TwoWaySearcher4nextNtB6_14RejectAndMatchECs8gSf4wuA74h_18build_script_build, symObjAddr: 0x6F4, symBinAddr: 0x100007540, symSize: 0x4F8 }
  - { offset: 0x13773, size: 0x8, addend: 0x0, symName: __RNvMNtCse1nGBsou5OW_5alloc6stringNtB2_6String4pushCs8gSf4wuA74h_18build_script_build, symObjAddr: 0xC80, symBinAddr: 0x100007AB4, symSize: 0x100 }
  - { offset: 0x13A26, size: 0x8, addend: 0x0, symName: __RNvMNtCse1nGBsou5OW_5alloc6stringNtB2_6String6as_strCs8gSf4wuA74h_18build_script_build, symObjAddr: 0xD80, symBinAddr: 0x100007BB4, symSize: 0x70 }
  - { offset: 0x13C02, size: 0x8, addend: 0x0, symName: __RNvMNtCse1nGBsou5OW_5alloc6stringNtB2_6String8push_strCs8gSf4wuA74h_18build_script_build, symObjAddr: 0xDF0, symBinAddr: 0x100007C24, symSize: 0x60 }
  - { offset: 0x13E0F, size: 0x8, addend: 0x0, symName: __RNvMNtCse1nGBsou5OW_5alloc6stringNtB2_6String9from_utf8Cs8gSf4wuA74h_18build_script_build, symObjAddr: 0xE50, symBinAddr: 0x100007C84, symSize: 0x150 }
  - { offset: 0x13FBB, size: 0x8, addend: 0x0, symName: __RNvMs5_NtNtCscOYdFFY2T5N_3std2io5errorNtB5_5Error14is_interruptedCs8gSf4wuA74h_18build_script_build, symObjAddr: 0xFA0, symBinAddr: 0x100007DD4, symSize: 0x138 }
  - { offset: 0x141D3, size: 0x8, addend: 0x0, symName: __RNvMsO_NtNtNtCse1nGBsou5OW_5alloc11collections5btree4nodeINtB5_6HandleINtB5_7NodeRefNtNtB5_6marker5DyingNtNtNtCscOYdFFY2T5N_3std3ffi6os_str8OsStringINtNtCsfvfooZQ3Axs_4core6option6OptionB1E_ENtB1m_8InternalENtB1m_4EdgeE7descendCs8gSf4wuA74h_18build_script_build, symObjAddr: 0x10D8, symBinAddr: 0x100007F0C, symSize: 0x94 }
  - { offset: 0x144D8, size: 0x8, addend: 0x0, symName: __RNvMsT_NtNtNtCse1nGBsou5OW_5alloc11collections5btree4nodeINtB5_6HandleINtB5_7NodeRefNtNtB5_6marker5DyingNtNtNtCscOYdFFY2T5N_3std3ffi6os_str8OsStringINtNtCsfvfooZQ3Axs_4core6option6OptionB1E_ENtB1m_14LeafOrInternalENtB1m_2KVE12drop_key_valCs8gSf4wuA74h_18build_script_build, symObjAddr: 0x116C, symBinAddr: 0x100007FA0, symSize: 0x128 }
  - { offset: 0x14869, size: 0x8, addend: 0x0, symName: __RNvMsb_NtNtNtCse1nGBsou5OW_5alloc11collections5btree8navigateINtB5_13LazyLeafRangeNtNtNtB7_4node6marker5DyingNtNtNtCscOYdFFY2T5N_3std3ffi6os_str8OsStringINtNtCsfvfooZQ3Axs_4core6option6OptionB1J_EE10take_frontCs8gSf4wuA74h_18build_script_build, symObjAddr: 0x1294, symBinAddr: 0x1000080C8, symSize: 0x1C4 }
  - { offset: 0x14BF2, size: 0x8, addend: 0x0, symName: __RNvMsc_NtNtNtCse1nGBsou5OW_5alloc11collections5btree8navigateINtB5_13LazyLeafRangeNtNtNtB7_4node6marker5DyingNtNtNtCscOYdFFY2T5N_3std3ffi6os_str8OsStringINtNtCsfvfooZQ3Axs_4core6option6OptionB1J_EE10init_frontCs8gSf4wuA74h_18build_script_build, symObjAddr: 0x1458, symBinAddr: 0x10000828C, symSize: 0x1C4 }
  - { offset: 0x14E8B, size: 0x8, addend: 0x0, symName: __RNvMse_NtNtNtCse1nGBsou5OW_5alloc11collections5btree4nodeINtB5_7NodeRefNtNtB5_6marker5DyingNtNtNtCscOYdFFY2T5N_3std3ffi6os_str8OsStringINtNtCsfvfooZQ3Axs_4core6option6OptionB1r_ENtB19_14LeafOrInternalE6ascendCs8gSf4wuA74h_18build_script_build, symObjAddr: 0x161C, symBinAddr: 0x100008450, symSize: 0x168 }
  - { offset: 0x151F7, size: 0x8, addend: 0x0, symName: __RNvMsp_NtNtNtCse1nGBsou5OW_5alloc11collections5btree8navigateINtNtB7_4node6HandleINtB10_7NodeRefNtNtB10_6marker5DyingNtNtNtCscOYdFFY2T5N_3std3ffi6os_str8OsStringINtNtCsfvfooZQ3Axs_4core6option6OptionB1R_ENtB1y_14LeafOrInternalENtB1y_2KVE14next_leaf_edgeCs8gSf4wuA74h_18build_script_build, symObjAddr: 0x1784, symBinAddr: 0x1000085B8, symSize: 0x210 }
  - { offset: 0x1591C, size: 0x8, addend: 0x0, symName: __RINvMs3_NtCsfvfooZQ3Axs_4core3fmtNtB6_9Arguments6new_v1Kj1_KBS_ECs8gSf4wuA74h_18build_script_build, symObjAddr: 0x0, symBinAddr: 0x10000A3AC, symSize: 0x50 }
  - { offset: 0x15C0C, size: 0x8, addend: 0x0, symName: __RNvXs1a_NtCsfvfooZQ3Axs_4core3fmtReNtB6_5Debug3fmtCs8gSf4wuA74h_18build_script_build, symObjAddr: 0x1C9C, symBinAddr: 0x10000C048, symSize: 0x3C }
  - { offset: 0x15C52, size: 0x8, addend: 0x0, symName: __RNvXs1a_NtCsfvfooZQ3Axs_4core3fmtRhNtB6_5Debug3fmtCs8gSf4wuA74h_18build_script_build, symObjAddr: 0x1CD8, symBinAddr: 0x10000C084, symSize: 0x30 }
  - { offset: 0x15C98, size: 0x8, addend: 0x0, symName: __RNvXs1a_NtCsfvfooZQ3Axs_4core3fmtRuNtB6_5Debug3fmtCs8gSf4wuA74h_18build_script_build, symObjAddr: 0x1D08, symBinAddr: 0x10000C0B4, symSize: 0x30 }
  - { offset: 0x15CE4, size: 0x8, addend: 0x0, symName: __RNvXs1c_NtCsfvfooZQ3Axs_4core3fmtReNtB6_7Display3fmtCs8gSf4wuA74h_18build_script_build, symObjAddr: 0x1D38, symBinAddr: 0x10000C0E4, symSize: 0x3C }
  - { offset: 0x15D35, size: 0x8, addend: 0x0, symName: __RNvXs1k_NtNtCsfvfooZQ3Axs_4core3fmt3numhNtB8_5Debug3fmtCs8gSf4wuA74h_18build_script_build, symObjAddr: 0x1D74, symBinAddr: 0x10000C120, symSize: 0x90 }
  - { offset: 0x15DAF, size: 0x8, addend: 0x0, symName: __RNvXs1p_NtNtCsfvfooZQ3Axs_4core3fmt3numjNtB8_5Debug3fmtCs8gSf4wuA74h_18build_script_build, symObjAddr: 0x1E04, symBinAddr: 0x10000C1B0, symSize: 0x90 }
  - { offset: 0x15E2A, size: 0x8, addend: 0x0, symName: __RNvXsI_NtCsfvfooZQ3Axs_4core3fmtNtB5_5ErrorNtB5_5Debug3fmtCs8gSf4wuA74h_18build_script_build, symObjAddr: 0x250C, symBinAddr: 0x10000C8B8, symSize: 0x40 }
  - { offset: 0x15E6A, size: 0x8, addend: 0x0, symName: __RNvXsr_NtCsfvfooZQ3Axs_4core3fmtShNtB5_5Debug3fmtCs8gSf4wuA74h_18build_script_build, symObjAddr: 0x2614, symBinAddr: 0x10000C9C0, symSize: 0x88 }
  - { offset: 0x15FCE, size: 0x8, addend: 0x0, symName: __RNvXss_NtCsfvfooZQ3Axs_4core3fmtuNtB5_5Debug3fmtCs8gSf4wuA74h_18build_script_build, symObjAddr: 0x269C, symBinAddr: 0x10000CA48, symSize: 0x40 }
  - { offset: 0x1751D, size: 0x8, addend: 0x0, symName: __RINvNtNtCsfvfooZQ3Axs_4core3str11validations15next_code_pointINtNtNtB6_5slice4iter4IterhEECs8gSf4wuA74h_18build_script_build, symObjAddr: 0x1BC, symBinAddr: 0x10000A568, symSize: 0x20C }
  - { offset: 0x177D7, size: 0x8, addend: 0x0, symName: __RINvNtNtCsfvfooZQ3Axs_4core3str11validations23next_code_point_reverseINtNtNtB6_5slice4iter4IterhEECs8gSf4wuA74h_18build_script_build, symObjAddr: 0x3C8, symBinAddr: 0x10000A774, symSize: 0x234 }
  - { offset: 0x17BA0, size: 0x8, addend: 0x0, symName: __RNvXs3_NtNtCsfvfooZQ3Axs_4core3str4iterNtB5_11CharIndicesNtNtNtNtB9_4iter6traits8iterator8Iterator4nextCs8gSf4wuA74h_18build_script_build, symObjAddr: 0x1E94, symBinAddr: 0x10000C240, symSize: 0x120 }
  - { offset: 0x17DD9, size: 0x8, addend: 0x0, symName: __RNvXs4_NtNtCsfvfooZQ3Axs_4core3str4iterNtB5_11CharIndicesNtNtNtNtB9_4iter6traits12double_ended19DoubleEndedIterator9next_backCs8gSf4wuA74h_18build_script_build, symObjAddr: 0x1FB4, symBinAddr: 0x10000C360, symSize: 0x13C }
  - { offset: 0x17F2C, size: 0x8, addend: 0x0, symName: __RNvXsX_NtNtCsfvfooZQ3Axs_4core3str4iterINtB5_5SplitcENtNtNtNtB9_4iter6traits8iterator8Iterator4nextCs8gSf4wuA74h_18build_script_build, symObjAddr: 0x254C, symBinAddr: 0x10000C8F8, symSize: 0x24 }
  - { offset: 0x17FA5, size: 0x8, addend: 0x0, symName: __RNvXsY_NtNtCsfvfooZQ3Axs_4core3str4iterINtB5_5SplitcENtNtB9_5clone5Clone5cloneCs8gSf4wuA74h_18build_script_build, symObjAddr: 0x2570, symBinAddr: 0x10000C91C, symSize: 0xA4 }
  - { offset: 0x181D5, size: 0x8, addend: 0x0, symName: __RNvXs8_NtNtCsfvfooZQ3Axs_4core3str6traitsINtNtNtB9_3ops5range7RangeTojEINtNtNtB9_5slice5index10SliceIndexeE3getCs8gSf4wuA74h_18build_script_build, symObjAddr: 0x2178, symBinAddr: 0x10000C524, symSize: 0x138 }
  - { offset: 0x182EE, size: 0x8, addend: 0x0, symName: __RNvXs8_NtNtCsfvfooZQ3Axs_4core3str6traitsINtNtNtB9_3ops5range7RangeTojEINtNtNtB9_5slice5index10SliceIndexeE5indexCs8gSf4wuA74h_18build_script_build, symObjAddr: 0x22B0, symBinAddr: 0x10000C65C, symSize: 0x84 }
  - { offset: 0x18389, size: 0x8, addend: 0x0, symName: __RNvXs9_NtNtCsfvfooZQ3Axs_4core3str6traitsINtNtNtB9_3ops5range9RangeFromjEINtNtNtB9_5slice5index10SliceIndexeE3getCs8gSf4wuA74h_18build_script_build, symObjAddr: 0x2334, symBinAddr: 0x10000C6E0, symSize: 0x148 }
  - { offset: 0x18E6B, size: 0x8, addend: 0x0, symName: __RINvYINtNtNtCsfvfooZQ3Axs_4core3str4iter5SplitcENtNtNtNtBa_4iter6traits8iterator8Iterator3mapReNCNvCs8gSf4wuA74h_18build_script_build11enable_simd0EB1z_, symObjAddr: 0xB28, symBinAddr: 0x10000AED4, symSize: 0x30 }
  - { offset: 0x18ED9, size: 0x8, addend: 0x0, symName: __RINvYINtNtNtCsfvfooZQ3Axs_4core3str4iter5SplitcENtNtNtNtBa_4iter6traits8iterator8Iterator8try_foldjNCINvNvXs_NtNtBQ_8adapters4takeINtB1J_4TakepEBK_8try_fold5checkRejINtNtNtBa_3ops9try_trait17NeverShortCircuitjENCINvMB2G_B2D_10wrap_mut_2jB2A_NCINvNtB1L_3map8map_foldB2A_B2A_jNCNvMCs8gSf4wuA74h_18build_script_buildNtB4t_7Version5parse0NCIB3U_B2A_INtNtBa_6result6ResultmNtNtCse1nGBsou5OW_5alloc6string6StringEjNCB4q_s_0NCNvYINtB3W_3MapIB6N_IB25_B3_EB4o_EB6y_EBK_5count0E0E0E0E0INtNtB2I_12control_flow11ControlFlowB2D_jEEB4t_, symObjAddr: 0xB58, symBinAddr: 0x10000AF04, symSize: 0x1BC }
  - { offset: 0x18F97, size: 0x8, addend: 0x0, symName: __RINvYINtNtNtCsfvfooZQ3Axs_4core3str4iter5SplitcENtNtNtNtBa_4iter6traits8iterator8Iterator8try_folduNCINvNtNtBQ_8adapters3map12map_try_foldReB2c_uINtNtNtBa_3ops12control_flow11ControlFlowuENCNvCs8gSf4wuA74h_18build_script_build11enable_simd0NCINvNvBK_3any5checkB2c_NCB32_s0_0E0E0B2j_EB34_, symObjAddr: 0xD14, symBinAddr: 0x10000B0C0, symSize: 0x14C }
  - { offset: 0x19051, size: 0x8, addend: 0x0, symName: __RINvYINtNtNtCsfvfooZQ3Axs_4core3str4iter5SplitcENtNtNtNtBa_4iter6traits8iterator8Iterator8try_folduNCINvNtNtBQ_8adapters3map12map_try_foldReB2c_uINtNtNtBa_3ops12control_flow11ControlFlowuENCNvCs8gSf4wuA74h_18build_script_build11enable_simd0NCINvNvBK_3any5checkB2c_NCB32_s_0E0E0B2j_EB34_, symObjAddr: 0xE60, symBinAddr: 0x10000B20C, symSize: 0x14C }
  - { offset: 0x19115, size: 0x8, addend: 0x0, symName: __RNCINvNvNtNtNtNtCsfvfooZQ3Axs_4core4iter6traits8iterator8Iterator3any5checkReNCNvCs8gSf4wuA74h_18build_script_build11enable_simds0_0E0B1h_, symObjAddr: 0xFAC, symBinAddr: 0x10000B358, symSize: 0x54 }
  - { offset: 0x19171, size: 0x8, addend: 0x0, symName: __RNCINvNvNtNtNtNtCsfvfooZQ3Axs_4core4iter6traits8iterator8Iterator3any5checkReNCNvCs8gSf4wuA74h_18build_script_build11enable_simds_0E0B1h_, symObjAddr: 0x1000, symBinAddr: 0x10000B3AC, symSize: 0x54 }
  - { offset: 0x191FA, size: 0x8, addend: 0x0, symName: __RNCNvYINtNtNtNtCsfvfooZQ3Axs_4core4iter8adapters3map3MapIB5_INtNtB9_4take4TakeINtNtNtBd_3str4iter5SplitcEENCNvMCs8gSf4wuA74h_18build_script_buildNtB1L_7Version5parse0ENCB1I_s_0ENtNtNtBb_6traits8iterator8Iterator5count0B1L_, symObjAddr: 0x109C, symBinAddr: 0x10000B448, symSize: 0x80 }
  - { offset: 0x1924C, size: 0x8, addend: 0x0, symName: __RNvYINtNtNtCsfvfooZQ3Axs_4core3str4iter5SplitcENtNtNtNtB9_4iter6traits8iterator8Iterator4takeCs8gSf4wuA74h_18build_script_build, symObjAddr: 0x2910, symBinAddr: 0x10000CCBC, symSize: 0x4C }
  - { offset: 0x192B5, size: 0x8, addend: 0x0, symName: __RNvXsF_NtNtCsfvfooZQ3Axs_4core4iter5rangejNtB5_4Step17forward_uncheckedCs8gSf4wuA74h_18build_script_build, symObjAddr: 0x247C, symBinAddr: 0x10000C828, symSize: 0x48 }
  - { offset: 0x19314, size: 0x8, addend: 0x0, symName: __RNvXsF_NtNtCsfvfooZQ3Axs_4core4iter5rangejNtB5_4Step18backward_uncheckedCs8gSf4wuA74h_18build_script_build, symObjAddr: 0x24C4, symBinAddr: 0x10000C870, symSize: 0x48 }
  - { offset: 0x19542, size: 0x8, addend: 0x0, symName: __RNvXs5_NtNtCsfvfooZQ3Axs_4core5slice5indexINtNtNtB9_3ops5range9RangeFromjEINtB5_10SliceIndexShE5indexCs8gSf4wuA74h_18build_script_build, symObjAddr: 0x20F0, symBinAddr: 0x10000C49C, symSize: 0x88 }
  - { offset: 0x19906, size: 0x8, addend: 0x0, symName: __RNCNvXs1_NtNtNtCscOYdFFY2T5N_3std2io5error14repr_bitpackedNtB7_4ReprNtNtNtCsfvfooZQ3Axs_4core3ops4drop4Drop4drop0Cs8gSf4wuA74h_18build_script_build, symObjAddr: 0x1068, symBinAddr: 0x10000B414, symSize: 0x34 }
  - { offset: 0x199BB, size: 0x8, addend: 0x0, symName: __RNvXs1_NtNtNtCscOYdFFY2T5N_3std2io5error14repr_bitpackedNtB5_4ReprNtNtNtCsfvfooZQ3Axs_4core3ops4drop4Drop4dropCs8gSf4wuA74h_18build_script_build, symObjAddr: 0x1C64, symBinAddr: 0x10000C010, symSize: 0x38 }
  - { offset: 0x199E4, size: 0x8, addend: 0x0, symName: __RINvNtNtNtCscOYdFFY2T5N_3std2io5error14repr_bitpacked11decode_reprINtNtCse1nGBsou5OW_5alloc5boxed3BoxNtB4_6CustomENCNvXs1_B2_NtB2_4ReprNtNtNtCsfvfooZQ3Axs_4core3ops4drop4Drop4drop0ECs8gSf4wuA74h_18build_script_build, symObjAddr: 0x5FC, symBinAddr: 0x10000A9A8, symSize: 0x230 }
  - { offset: 0x19C9A, size: 0x8, addend: 0x0, symName: __RNCNvMs0_NtNtNtCscOYdFFY2T5N_3std2io5error14repr_bitpackedNtB7_4Repr4data0Cs8gSf4wuA74h_18build_script_build, symObjAddr: 0x1054, symBinAddr: 0x10000B400, symSize: 0x14 }
  - { offset: 0x19CD2, size: 0x8, addend: 0x0, symName: __RINvNtNtNtCscOYdFFY2T5N_3std2io5error14repr_bitpacked11decode_reprRNtB4_6CustomNCNvMs0_B2_NtB2_4Repr4data0ECs8gSf4wuA74h_18build_script_build, symObjAddr: 0x82C, symBinAddr: 0x10000ABD8, symSize: 0x230 }
  - { offset: 0x19F77, size: 0x8, addend: 0x0, symName: __RNvNtNtNtCscOYdFFY2T5N_3std2io5error14repr_bitpacked14kind_from_primCs8gSf4wuA74h_18build_script_build, symObjAddr: 0x1510, symBinAddr: 0x10000B8BC, symSize: 0x608 }
  - { offset: 0x1A94C, size: 0x8, addend: 0x0, symName: __RINvNtCscOYdFFY2T5N_3std3env3varReECs8gSf4wuA74h_18build_script_build, symObjAddr: 0xEC, symBinAddr: 0x10000A498, symSize: 0x68 }
  - { offset: 0x1A981, size: 0x8, addend: 0x0, symName: __RINvNtCscOYdFFY2T5N_3std3env6var_osReECs8gSf4wuA74h_18build_script_build, symObjAddr: 0x154, symBinAddr: 0x10000A500, symSize: 0x68 }
  - { offset: 0x1ABDB, size: 0x8, addend: 0x0, symName: __RINvMs3_NtCsfvfooZQ3Axs_4core3fmtNtB6_9Arguments6new_v1Kj1_KBS_ECs8gSf4wuA74h_18build_script_build, symObjAddr: 0x0, symBinAddr: 0x10000A3AC, symSize: 0x50 }
  - { offset: 0x1AC27, size: 0x8, addend: 0x0, symName: __RINvMs3_NtCsfvfooZQ3Axs_4core3fmtNtB6_9Arguments6new_v1Kj2_Kj1_ECs8gSf4wuA74h_18build_script_build, symObjAddr: 0x50, symBinAddr: 0x10000A3FC, symSize: 0x54 }
  - { offset: 0x1AC59, size: 0x8, addend: 0x0, symName: __RINvMs3_NtCsfvfooZQ3Axs_4core3fmtNtB6_9Arguments9new_constKj1_ECs8gSf4wuA74h_18build_script_build, symObjAddr: 0xA4, symBinAddr: 0x10000A450, symSize: 0x48 }
  - { offset: 0x1B231, size: 0x8, addend: 0x0, symName: __RINvNtNtNtCse1nGBsou5OW_5alloc11collections5btree3mem7replaceINtNtB4_4node6HandleINtB10_7NodeRefNtNtB10_6marker5DyingNtNtNtCscOYdFFY2T5N_3std3ffi6os_str8OsStringINtNtCsfvfooZQ3Axs_4core6option6OptionB1R_ENtB1y_4LeafENtB1y_4EdgeEIBY_IB1i_B1w_B1R_B2z_NtB1y_14LeafOrInternalENtB1y_2KVENCINvMsm_NtB4_8navigateBX_27deallocating_next_uncheckedNtNtB8_5alloc6GlobalE0ECs8gSf4wuA74h_18build_script_build, symObjAddr: 0xA5C, symBinAddr: 0x10000AE08, symSize: 0xCC }
  - { offset: 0x1B407, size: 0x8, addend: 0x0, symName: __RNvXNtNtNtCse1nGBsou5OW_5alloc11collections5btree3mapINtB2_8BTreeMapNtNtNtCscOYdFFY2T5N_3std3ffi6os_str8OsStringINtNtCsfvfooZQ3Axs_4core6option6OptionB14_EENtNtNtB1R_3ops4drop4Drop4dropCs8gSf4wuA74h_18build_script_build, symObjAddr: 0x1B18, symBinAddr: 0x10000BEC4, symSize: 0x4C }
  - { offset: 0x1B494, size: 0x8, addend: 0x0, symName: __RNvXNvXsw_NtNtNtCse1nGBsou5OW_5alloc11collections5btree3mapINtB8_8IntoIterpppENtNtNtCsfvfooZQ3Axs_4core3ops4drop4Drop4dropINtB2_9DropGuardNtNtNtCscOYdFFY2T5N_3std3ffi6os_str8OsStringINtNtB1k_6option6OptionB2c_ENtNtBe_5alloc6GlobalEB1e_4dropCs8gSf4wuA74h_18build_script_build, symObjAddr: 0x1B64, symBinAddr: 0x10000BF10, symSize: 0x68 }
  - { offset: 0x1B529, size: 0x8, addend: 0x0, symName: __RNvXsw_NtNtNtCse1nGBsou5OW_5alloc11collections5btree3mapINtB5_8IntoIterNtNtNtCscOYdFFY2T5N_3std3ffi6os_str8OsStringINtNtCsfvfooZQ3Axs_4core6option6OptionB17_EENtNtNtB1U_3ops4drop4Drop4dropCs8gSf4wuA74h_18build_script_build, symObjAddr: 0x2870, symBinAddr: 0x10000CC1C, symSize: 0xA0 }
  - { offset: 0x1B5A0, size: 0x8, addend: 0x0, symName: __RNvXsv_NtNtNtCse1nGBsou5OW_5alloc11collections5btree3mapINtB5_8BTreeMapNtNtNtCscOYdFFY2T5N_3std3ffi6os_str8OsStringINtNtCsfvfooZQ3Axs_4core6option6OptionB17_EENtNtNtNtB1U_4iter6traits7collect12IntoIterator9into_iterCs8gSf4wuA74h_18build_script_build, symObjAddr: 0x26DC, symBinAddr: 0x10000CA88, symSize: 0x194 }
  - { offset: 0x1BA4D, size: 0x8, addend: 0x0, symName: __RNvXs1_NtCse1nGBsou5OW_5alloc7raw_vecINtB5_6RawVecINtNtB7_5boxed3BoxDINtNtNtCsfvfooZQ3Axs_4core3ops8function5FnMutuEp6OutputINtNtB1c_6result6ResultuNtNtNtCscOYdFFY2T5N_3std2io5error5ErrorENtNtB1c_6marker4SendNtB32_4SyncEL_EENtNtB1a_4drop4Drop4dropCs8gSf4wuA74h_18build_script_build, symObjAddr: 0x1BCC, symBinAddr: 0x10000BF78, symSize: 0x34 }
  - { offset: 0x1BA89, size: 0x8, addend: 0x0, symName: __RNvXs1_NtCse1nGBsou5OW_5alloc7raw_vecINtB5_6RawVecNtNtNtB7_3ffi5c_str7CStringENtNtNtCsfvfooZQ3Axs_4core3ops4drop4Drop4dropCs8gSf4wuA74h_18build_script_build, symObjAddr: 0x1C00, symBinAddr: 0x10000BFAC, symSize: 0x34 }
  - { offset: 0x1BAC5, size: 0x8, addend: 0x0, symName: __RNvXs1_NtCse1nGBsou5OW_5alloc7raw_vecINtB5_6RawVecPaENtNtNtCsfvfooZQ3Axs_4core3ops4drop4Drop4dropCs8gSf4wuA74h_18build_script_build, symObjAddr: 0x1C34, symBinAddr: 0x10000BFE0, symSize: 0x30 }
  - { offset: 0x1BE1A, size: 0x8, addend: 0x0, symName: __RNvMs2_NtCse1nGBsou5OW_5alloc7raw_vecNtB5_11RawVecInner16with_capacity_inCs8gSf4wuA74h_18build_script_build, symObjAddr: 0x111C, symBinAddr: 0x10000B4C8, symSize: 0x10C }
  - { offset: 0x1BFAD, size: 0x8, addend: 0x0, symName: __RNvMsf_NtNtCsfvfooZQ3Axs_4core3str4iterINtB5_13SplitInternalcE4nextCs8gSf4wuA74h_18build_script_build, symObjAddr: 0x1228, symBinAddr: 0x10000B5D4, symSize: 0x138 }
  - { offset: 0x1C0E9, size: 0x8, addend: 0x0, symName: __RNvMsf_NtNtCsfvfooZQ3Axs_4core3str4iterINtB5_13SplitInternalcE7get_endCs8gSf4wuA74h_18build_script_build, symObjAddr: 0x1360, symBinAddr: 0x10000B70C, symSize: 0x120 }
  - { offset: 0x1C212, size: 0x8, addend: 0x0, symName: __RNvMsx_NtNtNtCse1nGBsou5OW_5alloc11collections5btree3mapINtB5_8IntoIterNtNtNtCscOYdFFY2T5N_3std3ffi6os_str8OsStringINtNtCsfvfooZQ3Axs_4core6option6OptionB17_EE10dying_nextCs8gSf4wuA74h_18build_script_build, symObjAddr: 0x1480, symBinAddr: 0x10000B82C, symSize: 0x90 }
  - { offset: 0x1C768, size: 0x8, addend: 0x0, symName: ___llvm_profile_get_magic, symObjAddr: 0x28, symBinAddr: 0x10000CD1C, symSize: 0x14 }
  - { offset: 0x1C789, size: 0x8, addend: 0x0, symName: ___llvm_profile_get_num_padding_bytes, symObjAddr: 0x44, symBinAddr: 0x10000CD30, symSize: 0xC }
  - { offset: 0x1C791, size: 0x8, addend: 0x0, symName: ___llvm_profile_get_version, symObjAddr: 0x50, symBinAddr: 0x10000CD3C, symSize: 0xC }
  - { offset: 0x1C7BA, size: 0x8, addend: 0x0, symName: ___llvm_profile_get_version, symObjAddr: 0x50, symBinAddr: 0x10000CD3C, symSize: 0xC }
  - { offset: 0x1C82F, size: 0x8, addend: 0x0, symName: ___llvm_profile_is_continuous_mode_enabled, symObjAddr: 0x0, symBinAddr: 0x10000CD48, symSize: 0x20 }
  - { offset: 0x1C84C, size: 0x8, addend: 0x0, symName: __MergedGlobals, symObjAddr: 0x3E20, symBinAddr: 0x10006D398, symSize: 0x0 }
  - { offset: 0x1C86E, size: 0x8, addend: 0x0, symName: __MergedGlobals, symObjAddr: 0x3E20, symBinAddr: 0x10006D398, symSize: 0x0 }
  - { offset: 0x1C89E, size: 0x8, addend: 0x0, symName: ___llvm_profile_is_continuous_mode_enabled, symObjAddr: 0x0, symBinAddr: 0x10000CD48, symSize: 0x20 }
  - { offset: 0x1C8A6, size: 0x8, addend: 0x0, symName: ___llvm_profile_enable_continuous_mode, symObjAddr: 0x20, symBinAddr: 0x10000CD68, symSize: 0x10 }
  - { offset: 0x1C8B6, size: 0x8, addend: 0x0, symName: ___llvm_profile_enable_continuous_mode, symObjAddr: 0x20, symBinAddr: 0x10000CD68, symSize: 0x10 }
  - { offset: 0x1C8BE, size: 0x8, addend: 0x0, symName: ___llvm_profile_disable_continuous_mode, symObjAddr: 0x30, symBinAddr: 0x10000CD78, symSize: 0xC }
  - { offset: 0x1C8D3, size: 0x8, addend: 0x0, symName: ___llvm_profile_disable_continuous_mode, symObjAddr: 0x30, symBinAddr: 0x10000CD78, symSize: 0xC }
  - { offset: 0x1C8DB, size: 0x8, addend: 0x0, symName: ___llvm_profile_set_page_size, symObjAddr: 0x3C, symBinAddr: 0x10000CD84, symSize: 0xC }
  - { offset: 0x1C8F0, size: 0x8, addend: 0x0, symName: ___llvm_profile_set_page_size, symObjAddr: 0x3C, symBinAddr: 0x10000CD84, symSize: 0xC }
  - { offset: 0x1C8F8, size: 0x8, addend: 0x0, symName: ___llvm_profile_get_size_for_buffer, symObjAddr: 0x48, symBinAddr: 0x10000CD90, symSize: 0xC4 }
  - { offset: 0x1C91B, size: 0x8, addend: 0x0, symName: ___llvm_profile_get_size_for_buffer, symObjAddr: 0x48, symBinAddr: 0x10000CD90, symSize: 0xC4 }
  - { offset: 0x1C923, size: 0x8, addend: 0x0, symName: ___llvm_profile_get_size_for_buffer_internal, symObjAddr: 0x10C, symBinAddr: 0x10000CE54, symSize: 0x1C0 }
  - { offset: 0x1CD86, size: 0x8, addend: 0x0, symName: ___llvm_profile_get_size_for_buffer_internal, symObjAddr: 0x10C, symBinAddr: 0x10000CE54, symSize: 0x1C0 }
  - { offset: 0x1CD8E, size: 0x8, addend: 0x0, symName: ___llvm_profile_get_num_data, symObjAddr: 0x2CC, symBinAddr: 0x10000D014, symSize: 0x10 }
  - { offset: 0x1D17D, size: 0x8, addend: 0x0, symName: ___llvm_profile_get_num_data, symObjAddr: 0x2CC, symBinAddr: 0x10000D014, symSize: 0x10 }
  - { offset: 0x1D185, size: 0x8, addend: 0x0, symName: ___llvm_profile_get_data_size, symObjAddr: 0x2DC, symBinAddr: 0x10000D024, symSize: 0x10 }
  - { offset: 0x1D1B6, size: 0x8, addend: 0x0, symName: ___llvm_profile_get_data_size, symObjAddr: 0x2DC, symBinAddr: 0x10000D024, symSize: 0x10 }
  - { offset: 0x1D1BE, size: 0x8, addend: 0x0, symName: ___llvm_profile_get_num_vtable, symObjAddr: 0x2EC, symBinAddr: 0x10000D034, symSize: 0x18 }
  - { offset: 0x1D1E2, size: 0x8, addend: 0x0, symName: ___llvm_profile_get_data_size, symObjAddr: 0x2DC, symBinAddr: 0x10000D024, symSize: 0x10 }
  - { offset: 0x1D214, size: 0x8, addend: 0x0, symName: ___llvm_profile_get_num_vtable, symObjAddr: 0x2EC, symBinAddr: 0x10000D034, symSize: 0x18 }
  - { offset: 0x1D21C, size: 0x8, addend: 0x0, symName: ___llvm_profile_get_vtable_section_size, symObjAddr: 0x304, symBinAddr: 0x10000D04C, symSize: 0x8 }
  - { offset: 0x1D26E, size: 0x8, addend: 0x0, symName: ___llvm_profile_get_vtable_section_size, symObjAddr: 0x304, symBinAddr: 0x10000D04C, symSize: 0x8 }
  - { offset: 0x1D276, size: 0x8, addend: 0x0, symName: ___llvm_profile_counter_entry_size, symObjAddr: 0x30C, symBinAddr: 0x10000D054, symSize: 0x1C }
  - { offset: 0x1D297, size: 0x8, addend: 0x0, symName: ___llvm_profile_counter_entry_size, symObjAddr: 0x30C, symBinAddr: 0x10000D054, symSize: 0x1C }
  - { offset: 0x1D29F, size: 0x8, addend: 0x0, symName: ___llvm_profile_get_num_counters, symObjAddr: 0x328, symBinAddr: 0x10000D070, symSize: 0x48 }
  - { offset: 0x1D2AF, size: 0x8, addend: 0x0, symName: ___llvm_profile_get_num_counters, symObjAddr: 0x328, symBinAddr: 0x10000D070, symSize: 0x48 }
  - { offset: 0x1D2B7, size: 0x8, addend: 0x0, symName: ___llvm_profile_get_counters_size, symObjAddr: 0x370, symBinAddr: 0x10000D0B8, symSize: 0x5C }
  - { offset: 0x1D31C, size: 0x8, addend: 0x0, symName: ___llvm_profile_get_counters_size, symObjAddr: 0x370, symBinAddr: 0x10000D0B8, symSize: 0x5C }
  - { offset: 0x1D324, size: 0x8, addend: 0x0, symName: ___llvm_profile_get_num_bitmap_bytes, symObjAddr: 0x3CC, symBinAddr: 0x10000D114, symSize: 0x8 }
  - { offset: 0x1D3C8, size: 0x8, addend: 0x0, symName: ___llvm_profile_get_num_bitmap_bytes, symObjAddr: 0x3CC, symBinAddr: 0x10000D114, symSize: 0x8 }
  - { offset: 0x1D3D0, size: 0x8, addend: 0x0, symName: ___llvm_profile_get_name_size, symObjAddr: 0x3D4, symBinAddr: 0x10000D11C, symSize: 0x8 }
  - { offset: 0x1D3F1, size: 0x8, addend: 0x0, symName: ___llvm_profile_get_name_size, symObjAddr: 0x3D4, symBinAddr: 0x10000D11C, symSize: 0x8 }
  - { offset: 0x1D3F9, size: 0x8, addend: 0x0, symName: ___llvm_profile_get_padding_sizes_for_counters, symObjAddr: 0x3DC, symBinAddr: 0x10000D124, symSize: 0x15C }
  - { offset: 0x1D41A, size: 0x8, addend: 0x0, symName: ___llvm_profile_get_padding_sizes_for_counters, symObjAddr: 0x3DC, symBinAddr: 0x10000D124, symSize: 0x15C }
  - { offset: 0x1D422, size: 0x8, addend: 0x0, symName: _initBufferWriter, symObjAddr: 0x538, symBinAddr: 0x10000D280, symSize: 0x10 }
  - { offset: 0x1D576, size: 0x8, addend: 0x0, symName: _initBufferWriter, symObjAddr: 0x538, symBinAddr: 0x10000D280, symSize: 0x10 }
  - { offset: 0x1D6E0, size: 0x8, addend: 0x0, symName: __MergedGlobals, symObjAddr: 0xA4F0, symBinAddr: 0x10006D3A8, symSize: 0x0 }
  - { offset: 0x1D7FC, size: 0x8, addend: 0x0, symName: __MergedGlobals, symObjAddr: 0xA4F0, symBinAddr: 0x10006D3A8, symSize: 0x0 }
  - { offset: 0x1DA2C, size: 0x8, addend: 0x0, symName: __MergedGlobals, symObjAddr: 0xA4F0, symBinAddr: 0x10006D3A8, symSize: 0x0 }
  - { offset: 0x1DB53, size: 0x8, addend: 0x0, symName: _getCurFilenameLength, symObjAddr: 0x1C8, symBinAddr: 0x10000D290, symSize: 0x108 }
  - { offset: 0x1DB5B, size: 0x8, addend: 0x0, symName: _getCurFilename, symObjAddr: 0x2D0, symBinAddr: 0x10000D398, symSize: 0x2B8 }
  - { offset: 0x1DBDE, size: 0x8, addend: 0x0, symName: _getCurFilename, symObjAddr: 0x2D0, symBinAddr: 0x10000D398, symSize: 0x2B8 }
  - { offset: 0x1DE0F, size: 0x8, addend: 0x0, symName: _parseAndSetFilename, symObjAddr: 0x688, symBinAddr: 0x10000D650, symSize: 0x4B8 }
  - { offset: 0x1DE17, size: 0x8, addend: 0x0, symName: ___llvm_profile_initialize, symObjAddr: 0xB40, symBinAddr: 0x10000DB08, symSize: 0xB8 }
  - { offset: 0x1DFFF, size: 0x8, addend: 0x0, symName: ___llvm_profile_initialize, symObjAddr: 0xB40, symBinAddr: 0x10000DB08, symSize: 0xB8 }
  - { offset: 0x1E07B, size: 0x8, addend: 0x0, symName: ___llvm_profile_write_file, symObjAddr: 0xC74, symBinAddr: 0x10000DBC0, symSize: 0x1B4 }
  - { offset: 0x1E083, size: 0x8, addend: 0x0, symName: _writeFile, symObjAddr: 0xE28, symBinAddr: 0x10000DD74, symSize: 0x294 }
  - { offset: 0x1E1DE, size: 0x8, addend: 0x0, symName: _writeFile, symObjAddr: 0xE28, symBinAddr: 0x10000DD74, symSize: 0x294 }
  - { offset: 0x1E352, size: 0x8, addend: 0x0, symName: _writeFileWithoutReturn, symObjAddr: 0x138C, symBinAddr: 0x10000E008, symSize: 0x4 }
  - { offset: 0x1E389, size: 0x8, addend: 0x0, symName: _getProfileFileSizeForMerging, symObjAddr: 0x1574, symBinAddr: 0x10000E00C, symSize: 0x110 }
  - { offset: 0x1E391, size: 0x8, addend: 0x0, symName: _mmapProfileForMerging, symObjAddr: 0x1684, symBinAddr: 0x10000E11C, symSize: 0xBC }
  - { offset: 0x1E3CE, size: 0x8, addend: 0x0, symName: _mmapProfileForMerging, symObjAddr: 0x1684, symBinAddr: 0x10000E11C, symSize: 0xBC }
  - { offset: 0x1E3D6, size: 0x8, addend: 0x0, symName: _mmapForContinuousMode, symObjAddr: 0x1740, symBinAddr: 0x10000E1D8, symSize: 0x264 }
  - { offset: 0x1E424, size: 0x8, addend: 0x0, symName: _mmapForContinuousMode, symObjAddr: 0x1740, symBinAddr: 0x10000E1D8, symSize: 0x264 }
  - { offset: 0x1E42C, size: 0x8, addend: 0x0, symName: _fileWriter, symObjAddr: 0x19A4, symBinAddr: 0x10000E43C, symSize: 0x140 }
  - { offset: 0x1E5EB, size: 0x8, addend: 0x0, symName: _fileWriter, symObjAddr: 0x19A4, symBinAddr: 0x10000E43C, symSize: 0x140 }
  - { offset: 0x1E5F3, size: 0x8, addend: 0x0, symName: _truncateCurrentFile, symObjAddr: 0x1AE4, symBinAddr: 0x10000E57C, symSize: 0xD8 }
  - { offset: 0x1E6BB, size: 0x8, addend: 0x0, symName: _truncateCurrentFile, symObjAddr: 0x1AE4, symBinAddr: 0x10000E57C, symSize: 0xD8 }
  - { offset: 0x1E6C3, size: 0x8, addend: 0x0, symName: _initializeProfileForContinuousMode, symObjAddr: 0x1BBC, symBinAddr: 0x10000E654, symSize: 0x25C }
  - { offset: 0x1E761, size: 0x8, addend: 0x0, symName: _initializeProfileForContinuousMode, symObjAddr: 0x1BBC, symBinAddr: 0x10000E654, symSize: 0x25C }
  - { offset: 0x1E769, size: 0x8, addend: 0x0, symName: _createProfileDir, symObjAddr: 0x1E18, symBinAddr: 0x10000E8B0, symSize: 0xA4 }
  - { offset: 0x1E936, size: 0x8, addend: 0x0, symName: _createProfileDir, symObjAddr: 0x1E18, symBinAddr: 0x10000E8B0, symSize: 0xA4 }
  - { offset: 0x1E93E, size: 0x8, addend: 0x0, symName: _parseAndSetFilename.cold.1, symObjAddr: 0x1EBC, symBinAddr: 0x10004B87C, symSize: 0x24 }
  - { offset: 0x1E99B, size: 0x8, addend: 0x0, symName: _parseAndSetFilename.cold.1, symObjAddr: 0x1EBC, symBinAddr: 0x10004B87C, symSize: 0x24 }
  - { offset: 0x1E9A3, size: 0x8, addend: 0x0, symName: _parseAndSetFilename.cold.2, symObjAddr: 0x1EE0, symBinAddr: 0x10004B8A0, symSize: 0x24 }
  - { offset: 0x1E9C5, size: 0x8, addend: 0x0, symName: _parseAndSetFilename.cold.2, symObjAddr: 0x1EE0, symBinAddr: 0x10004B8A0, symSize: 0x24 }
  - { offset: 0x1E9DF, size: 0x8, addend: 0x0, symName: _parseAndSetFilename.cold.2, symObjAddr: 0x1EE0, symBinAddr: 0x10004B8A0, symSize: 0x24 }
  - { offset: 0x1E9EF, size: 0x8, addend: 0x0, symName: _parseAndSetFilename.cold.2, symObjAddr: 0x1EE0, symBinAddr: 0x10004B8A0, symSize: 0x24 }
  - { offset: 0x1EB54, size: 0x8, addend: 0x0, symName: _lprofProfileDumped, symObjAddr: 0x0, symBinAddr: 0x10000E954, symSize: 0xC }
  - { offset: 0x1EB71, size: 0x8, addend: 0x0, symName: _ProfileDumped, symObjAddr: 0x4E0, symBinAddr: 0x10006D478, symSize: 0x0 }
  - { offset: 0x1EB81, size: 0x8, addend: 0x0, symName: _lprofProfileDumped, symObjAddr: 0x0, symBinAddr: 0x10000E954, symSize: 0xC }
  - { offset: 0x1EBC9, size: 0x8, addend: 0x0, symName: _lprofGetLoadModuleSignature, symObjAddr: 0x0, symBinAddr: 0x10000E960, symSize: 0xD0 }
  - { offset: 0x1EBF6, size: 0x8, addend: 0x0, symName: _VPMergeHook, symBinAddr: 0x10006D390, symSize: 0x0 }
  - { offset: 0x1EE5A, size: 0x8, addend: 0x0, symName: _lprofGetLoadModuleSignature, symObjAddr: 0x0, symBinAddr: 0x10000E960, symSize: 0xD0 }
  - { offset: 0x1EE62, size: 0x8, addend: 0x0, symName: ___llvm_profile_check_compatibility, symObjAddr: 0xD0, symBinAddr: 0x10000EA30, symSize: 0x1CC }
  - { offset: 0x1EED1, size: 0x8, addend: 0x0, symName: ___llvm_profile_check_compatibility, symObjAddr: 0xD0, symBinAddr: 0x10000EA30, symSize: 0x1CC }
  - { offset: 0x1EED9, size: 0x8, addend: 0x0, symName: ___llvm_profile_merge_from_buffer, symObjAddr: 0x29C, symBinAddr: 0x10000EBFC, symSize: 0x48C }
  - { offset: 0x1EFB1, size: 0x8, addend: 0x0, symName: ___llvm_profile_merge_from_buffer, symObjAddr: 0x29C, symBinAddr: 0x10000EBFC, symSize: 0x48C }
  - { offset: 0x1F218, size: 0x8, addend: 0x0, symName: _lprofMergeValueProfData, symObjAddr: 0x0, symBinAddr: 0x10000F088, symSize: 0xF0 }
  - { offset: 0x1F229, size: 0x8, addend: 0x0, symName: _lprofMergeValueProfData, symObjAddr: 0x0, symBinAddr: 0x10000F088, symSize: 0xF0 }
  - { offset: 0x1F4F4, size: 0x8, addend: 0x0, symName: ___llvm_profile_begin_data, symObjAddr: 0x0, symBinAddr: 0x10000F178, symSize: 0xC }
  - { offset: 0x1F513, size: 0x8, addend: 0x0, symName: _CurrentVNode, symObjAddr: 0xC0, symBinAddr: 0x10006C838, symSize: 0x0 }
  - { offset: 0x1F58F, size: 0x8, addend: 0x0, symName: _EndVNode, symObjAddr: 0xC8, symBinAddr: 0x10006C840, symSize: 0x0 }
  - { offset: 0x1F598, size: 0x8, addend: 0x0, symName: ___llvm_profile_begin_data, symObjAddr: 0x0, symBinAddr: 0x10000F178, symSize: 0xC }
  - { offset: 0x1F5A0, size: 0x8, addend: 0x0, symName: ___llvm_profile_end_data, symObjAddr: 0xC, symBinAddr: 0x10000F184, symSize: 0xC }
  - { offset: 0x1F5B9, size: 0x8, addend: 0x0, symName: ___llvm_profile_end_data, symObjAddr: 0xC, symBinAddr: 0x10000F184, symSize: 0xC }
  - { offset: 0x1F5C1, size: 0x8, addend: 0x0, symName: ___llvm_profile_begin_names, symObjAddr: 0x18, symBinAddr: 0x10000F190, symSize: 0xC }
  - { offset: 0x1F5DA, size: 0x8, addend: 0x0, symName: ___llvm_profile_begin_names, symObjAddr: 0x18, symBinAddr: 0x10000F190, symSize: 0xC }
  - { offset: 0x1F5E2, size: 0x8, addend: 0x0, symName: ___llvm_profile_end_names, symObjAddr: 0x24, symBinAddr: 0x10000F19C, symSize: 0xC }
  - { offset: 0x1F5FB, size: 0x8, addend: 0x0, symName: ___llvm_profile_end_names, symObjAddr: 0x24, symBinAddr: 0x10000F19C, symSize: 0xC }
  - { offset: 0x1F603, size: 0x8, addend: 0x0, symName: ___llvm_profile_begin_counters, symObjAddr: 0x30, symBinAddr: 0x10000F1A8, symSize: 0xC }
  - { offset: 0x1F61C, size: 0x8, addend: 0x0, symName: ___llvm_profile_begin_counters, symObjAddr: 0x30, symBinAddr: 0x10000F1A8, symSize: 0xC }
  - { offset: 0x1F624, size: 0x8, addend: 0x0, symName: ___llvm_profile_end_counters, symObjAddr: 0x3C, symBinAddr: 0x10000F1B4, symSize: 0xC }
  - { offset: 0x1F63D, size: 0x8, addend: 0x0, symName: ___llvm_profile_end_counters, symObjAddr: 0x3C, symBinAddr: 0x10000F1B4, symSize: 0xC }
  - { offset: 0x1F645, size: 0x8, addend: 0x0, symName: ___llvm_profile_begin_bitmap, symObjAddr: 0x48, symBinAddr: 0x10000F1C0, symSize: 0xC }
  - { offset: 0x1F65E, size: 0x8, addend: 0x0, symName: ___llvm_profile_begin_bitmap, symObjAddr: 0x48, symBinAddr: 0x10000F1C0, symSize: 0xC }
  - { offset: 0x1F666, size: 0x8, addend: 0x0, symName: ___llvm_profile_end_bitmap, symObjAddr: 0x54, symBinAddr: 0x10000F1CC, symSize: 0xC }
  - { offset: 0x1F67F, size: 0x8, addend: 0x0, symName: ___llvm_profile_end_bitmap, symObjAddr: 0x54, symBinAddr: 0x10000F1CC, symSize: 0xC }
  - { offset: 0x1F687, size: 0x8, addend: 0x0, symName: ___llvm_profile_begin_vtables, symObjAddr: 0x60, symBinAddr: 0x10000F1D8, symSize: 0xC }
  - { offset: 0x1F6A1, size: 0x8, addend: 0x0, symName: ___llvm_profile_begin_vtables, symObjAddr: 0x60, symBinAddr: 0x10000F1D8, symSize: 0xC }
  - { offset: 0x1F6A9, size: 0x8, addend: 0x0, symName: ___llvm_profile_end_vtables, symObjAddr: 0x6C, symBinAddr: 0x10000F1E4, symSize: 0xC }
  - { offset: 0x1F6C2, size: 0x8, addend: 0x0, symName: ___llvm_profile_end_vtables, symObjAddr: 0x6C, symBinAddr: 0x10000F1E4, symSize: 0xC }
  - { offset: 0x1F6CA, size: 0x8, addend: 0x0, symName: ___llvm_profile_begin_vtabnames, symObjAddr: 0x78, symBinAddr: 0x10000F1F0, symSize: 0xC }
  - { offset: 0x1F6E2, size: 0x8, addend: 0x0, symName: ___llvm_profile_begin_vtabnames, symObjAddr: 0x78, symBinAddr: 0x10000F1F0, symSize: 0xC }
  - { offset: 0x1F6EA, size: 0x8, addend: 0x0, symName: ___llvm_profile_end_vtabnames, symObjAddr: 0x84, symBinAddr: 0x10000F1FC, symSize: 0xC }
  - { offset: 0x1F703, size: 0x8, addend: 0x0, symName: ___llvm_profile_end_vtabnames, symObjAddr: 0x84, symBinAddr: 0x10000F1FC, symSize: 0xC }
  - { offset: 0x1F725, size: 0x8, addend: 0x0, symName: ___llvm_profile_begin_vnodes, symObjAddr: 0x9C, symBinAddr: 0x10000F208, symSize: 0xC }
  - { offset: 0x1F72D, size: 0x8, addend: 0x0, symName: ___llvm_profile_end_vnodes, symObjAddr: 0xA8, symBinAddr: 0x10000F214, symSize: 0xC }
  - { offset: 0x1F746, size: 0x8, addend: 0x0, symName: ___llvm_profile_end_vnodes, symObjAddr: 0xA8, symBinAddr: 0x10000F214, symSize: 0xC }
  - { offset: 0x1F74E, size: 0x8, addend: 0x0, symName: ___llvm_write_binary_ids, symObjAddr: 0xB4, symBinAddr: 0x10000F220, symSize: 0x8 }
  - { offset: 0x1F766, size: 0x8, addend: 0x0, symName: ___llvm_write_binary_ids, symObjAddr: 0xB4, symBinAddr: 0x10000F220, symSize: 0x8 }
  - { offset: 0x1F9EC, size: 0x8, addend: 0x0, symName: __GLOBAL__sub_I_InstrProfilingRuntime.cpp, symObjAddr: 0x0, symBinAddr: 0x10000F228, symSize: 0x18 }
  - { offset: 0x1FA0F, size: 0x8, addend: 0x0, symName: ___llvm_profile_runtime, symObjAddr: 0x590, symBinAddr: 0x10006D34C, symSize: 0x0 }
  - { offset: 0x1FA3F, size: 0x8, addend: 0x0, symName: __GLOBAL__sub_I_InstrProfilingRuntime.cpp, symObjAddr: 0x0, symBinAddr: 0x10000F228, symSize: 0x18 }
  - { offset: 0x1FABB, size: 0x8, addend: 0x0, symName: ___llvm_profile_recursive_mkdir, symObjAddr: 0x0, symBinAddr: 0x10000F240, symSize: 0x58 }
  - { offset: 0x1FAC3, size: 0x8, addend: 0x0, symName: _lprofDirMode, symObjAddr: 0x5A8, symBinAddr: 0x10006C848, symSize: 0x0 }
  - { offset: 0x1FADA, size: 0x8, addend: 0x0, symName: _lprofDirMode, symObjAddr: 0x5A8, symBinAddr: 0x10006C848, symSize: 0x0 }
  - { offset: 0x1FB0F, size: 0x8, addend: 0x0, symName: ___llvm_profile_recursive_mkdir, symObjAddr: 0x0, symBinAddr: 0x10000F240, symSize: 0x58 }
  - { offset: 0x1FB8E, size: 0x8, addend: 0x0, symName: _lprofGetHostName, symObjAddr: 0x70, symBinAddr: 0x10000F298, symSize: 0x80 }
  - { offset: 0x1FCC3, size: 0x8, addend: 0x0, symName: _lprofLockFileHandle, symObjAddr: 0x208, symBinAddr: 0x10000F318, symSize: 0x90 }
  - { offset: 0x1FCCB, size: 0x8, addend: 0x0, symName: _lprofUnlockFileHandle, symObjAddr: 0x298, symBinAddr: 0x10000F3A8, symSize: 0x90 }
  - { offset: 0x1FD51, size: 0x8, addend: 0x0, symName: _lprofUnlockFileHandle, symObjAddr: 0x298, symBinAddr: 0x10000F3A8, symSize: 0x90 }
  - { offset: 0x1FD59, size: 0x8, addend: 0x0, symName: _lprofOpenFileEx, symObjAddr: 0x328, symBinAddr: 0x10000F438, symSize: 0xD0 }
  - { offset: 0x1FDB9, size: 0x8, addend: 0x0, symName: _lprofOpenFileEx, symObjAddr: 0x328, symBinAddr: 0x10000F438, symSize: 0xD0 }
  - { offset: 0x1FE31, size: 0x8, addend: 0x0, symName: _lprofFindFirstDirSeparator, symObjAddr: 0x538, symBinAddr: 0x10000F508, symSize: 0x8 }
  - { offset: 0x1FE71, size: 0x8, addend: 0x0, symName: _lprofSuspendSigKill, symObjAddr: 0x548, symBinAddr: 0x10000F510, symSize: 0x8 }
  - { offset: 0x1FE79, size: 0x8, addend: 0x0, symName: _lprofRestoreSigKill, symObjAddr: 0x550, symBinAddr: 0x10000F518, symSize: 0x4 }
  - { offset: 0x1FE93, size: 0x8, addend: 0x0, symName: _lprofRestoreSigKill, symObjAddr: 0x550, symBinAddr: 0x10000F518, symSize: 0x4 }
  - { offset: 0x2013D, size: 0x8, addend: 0x0, symName: _getValueProfRecordHeaderSize, symObjAddr: 0x0, symBinAddr: 0x10000F51C, symSize: 0xC }
  - { offset: 0x2015C, size: 0x8, addend: 0x0, symName: _VPMaxNumValsPerSite, symObjAddr: 0x1740, symBinAddr: 0x10006C850, symSize: 0x0 }
  - { offset: 0x201F1, size: 0x8, addend: 0x0, symName: __MergedGlobals, symObjAddr: 0xEF68, symBinAddr: 0x10006D4A8, symSize: 0x0 }
  - { offset: 0x20218, size: 0x8, addend: 0x0, symName: __MergedGlobals, symObjAddr: 0xEF68, symBinAddr: 0x10006D4A8, symSize: 0x0 }
  - { offset: 0x2022F, size: 0x8, addend: 0x0, symName: __MergedGlobals, symObjAddr: 0xEF68, symBinAddr: 0x10006D4A8, symSize: 0x0 }
  - { offset: 0x2024E, size: 0x8, addend: 0x0, symName: _TheVPDataReader, symObjAddr: 0x1748, symBinAddr: 0x10006C858, symSize: 0x0 }
  - { offset: 0x204EE, size: 0x8, addend: 0x0, symName: _RTRecord, symObjAddr: 0xEF40, symBinAddr: 0x10006D480, symSize: 0x0 }
  - { offset: 0x206E2, size: 0x8, addend: 0x0, symName: _getValueProfRecordHeaderSize, symObjAddr: 0x0, symBinAddr: 0x10000F51C, symSize: 0xC }
  - { offset: 0x20738, size: 0x8, addend: 0x0, symName: _getValueProfRecordValueData, symObjAddr: 0x1C, symBinAddr: 0x10000F528, symSize: 0x14 }
  - { offset: 0x207E6, size: 0x8, addend: 0x0, symName: _getValueProfRecordNext, symObjAddr: 0x1B4, symBinAddr: 0x10000F53C, symSize: 0x1A4 }
  - { offset: 0x207EE, size: 0x8, addend: 0x0, symName: _getFirstValueProfRecord, symObjAddr: 0x358, symBinAddr: 0x10000F6E0, symSize: 0x8 }
  - { offset: 0x20855, size: 0x8, addend: 0x0, symName: _getFirstValueProfRecord, symObjAddr: 0x358, symBinAddr: 0x10000F6E0, symSize: 0x8 }
  - { offset: 0x20938, size: 0x8, addend: 0x0, symName: _lprofSetupValueProfiler, symObjAddr: 0xB38, symBinAddr: 0x10000F6E8, symSize: 0x64 }
  - { offset: 0x20A49, size: 0x8, addend: 0x0, symName: ___llvm_profile_instrument_target_value, symObjAddr: 0xE30, symBinAddr: 0x10000F74C, symSize: 0x290 }
  - { offset: 0x20B67, size: 0x8, addend: 0x0, symName: _lprofGetVPDataReader, symObjAddr: 0x1108, symBinAddr: 0x10000F9DC, symSize: 0xC }
  - { offset: 0x20B6F, size: 0x8, addend: 0x0, symName: _initializeValueProfRuntimeRecord, symObjAddr: 0x1114, symBinAddr: 0x10000F9E8, symSize: 0x210 }
  - { offset: 0x20B89, size: 0x8, addend: 0x0, symName: _initializeValueProfRuntimeRecord, symObjAddr: 0x1114, symBinAddr: 0x10000F9E8, symSize: 0x210 }
  - { offset: 0x20B91, size: 0x8, addend: 0x0, symName: _getNumValueDataForSiteWrapper, symObjAddr: 0x1324, symBinAddr: 0x10000FBF8, symSize: 0x14 }
  - { offset: 0x20CAC, size: 0x8, addend: 0x0, symName: _getNumValueDataForSiteWrapper, symObjAddr: 0x1324, symBinAddr: 0x10000FBF8, symSize: 0x14 }
  - { offset: 0x20CB4, size: 0x8, addend: 0x0, symName: _getValueProfDataSizeWrapper, symObjAddr: 0x1338, symBinAddr: 0x10000FC0C, symSize: 0xDC }
  - { offset: 0x20CF2, size: 0x8, addend: 0x0, symName: _getNumValueDataForSiteWrapper, symObjAddr: 0x1324, symBinAddr: 0x10000FBF8, symSize: 0x14 }
  - { offset: 0x20D18, size: 0x8, addend: 0x0, symName: _getValueProfDataSizeWrapper, symObjAddr: 0x1338, symBinAddr: 0x10000FC0C, symSize: 0xDC }
  - { offset: 0x20D20, size: 0x8, addend: 0x0, symName: _getNextNValueData, symObjAddr: 0x1414, symBinAddr: 0x10000FCE8, symSize: 0x44 }
  - { offset: 0x20DB7, size: 0x8, addend: 0x0, symName: _getNextNValueData, symObjAddr: 0x1414, symBinAddr: 0x10000FCE8, symSize: 0x44 }
  - { offset: 0x20DBF, size: 0x8, addend: 0x0, symName: _getNumValueSitesRT, symObjAddr: 0x1458, symBinAddr: 0x10000FD2C, symSize: 0x10 }
  - { offset: 0x20E4D, size: 0x8, addend: 0x0, symName: _getNumValueSitesRT, symObjAddr: 0x1458, symBinAddr: 0x10000FD2C, symSize: 0x10 }
  - { offset: 0x20E55, size: 0x8, addend: 0x0, symName: _getNumValueDataRT, symObjAddr: 0x1468, symBinAddr: 0x10000FD3C, symSize: 0x190 }
  - { offset: 0x20E90, size: 0x8, addend: 0x0, symName: _getNumValueDataRT, symObjAddr: 0x1468, symBinAddr: 0x10000FD3C, symSize: 0x190 }
  - { offset: 0x20F06, size: 0x8, addend: 0x0, symName: ___llvm_profile_instrument_target_value.cold.1, symObjAddr: 0x161C, symBinAddr: 0x10004B8C4, symSize: 0x24 }
  - { offset: 0x20F96, size: 0x8, addend: 0x0, symName: ___llvm_profile_raw_version, symObjAddr: 0x0, symBinAddr: 0x10006C888, symSize: 0x0 }
  - { offset: 0x20FD8, size: 0x8, addend: 0x0, symName: _lprofBufferWriter, symObjAddr: 0x0, symBinAddr: 0x10000FECC, symSize: 0x6C }
  - { offset: 0x20FF7, size: 0x8, addend: 0x0, symName: _FreeHook, symObjAddr: 0x4F30, symBinAddr: 0x10006D350, symSize: 0x0 }
  - { offset: 0x2101D, size: 0x8, addend: 0x0, symName: _DynamicBufferIOBuffer, symObjAddr: 0x4F38, symBinAddr: 0x10006D358, symSize: 0x0 }
  - { offset: 0x2104B, size: 0x8, addend: 0x0, symName: _VPBufferSize, symObjAddr: 0x4F40, symBinAddr: 0x10006D360, symSize: 0x0 }
  - { offset: 0x21072, size: 0x8, addend: 0x0, symName: __MergedGlobals, symObjAddr: 0x6F48, symBinAddr: 0x10006F4B8, symSize: 0x0 }
  - { offset: 0x211BC, size: 0x8, addend: 0x0, symName: _BufferIOBuffer, symObjAddr: 0x4F48, symBinAddr: 0x10006D4B8, symSize: 0x0 }
  - { offset: 0x211E6, size: 0x8, addend: 0x0, symName: __MergedGlobals, symObjAddr: 0x6F48, symBinAddr: 0x10006F4B8, symSize: 0x0 }
  - { offset: 0x21262, size: 0x8, addend: 0x0, symName: _lprofBufferWriter, symObjAddr: 0x0, symBinAddr: 0x10000FECC, symSize: 0x6C }
  - { offset: 0x2137A, size: 0x8, addend: 0x0, symName: _lprofBufferIOWrite, symObjAddr: 0x100, symBinAddr: 0x10000FF38, symSize: 0x134 }
  - { offset: 0x2147B, size: 0x8, addend: 0x0, symName: _lprofWriteData, symObjAddr: 0x2F4, symBinAddr: 0x10001006C, symSize: 0xD4 }
  - { offset: 0x21483, size: 0x8, addend: 0x0, symName: _lprofWriteDataImpl, symObjAddr: 0x3C8, symBinAddr: 0x100010140, symSize: 0x46C }
  - { offset: 0x218A9, size: 0x8, addend: 0x0, symName: _lprofWriteDataImpl, symObjAddr: 0x3C8, symBinAddr: 0x100010140, symSize: 0x46C }
  - { offset: 0x21BD3, size: 0x8, addend: 0x0, symName: _writeOneValueProfData, symObjAddr: 0x8C0, symBinAddr: 0x1000105AC, symSize: 0x4A8 }
  - { offset: 0x21E98, size: 0x8, addend: 0x0, symName: '__ZN108_$LT$alloc..collections..btree..map..Iter$LT$K$C$V$GT$$u20$as$u20$core..iter..traits..iterator..Iterator$GT$4next17h45e1d25cf43a5166E', symObjAddr: 0x0, symBinAddr: 0x100010A54, symSize: 0x13C }
  - { offset: 0x222AE, size: 0x8, addend: 0x0, symName: '__ZN5alloc11collections5btree4node208Handle$LT$alloc..collections..btree..node..NodeRef$LT$alloc..collections..btree..node..marker..Mut$C$K$C$V$C$alloc..collections..btree..node..marker..Leaf$GT$$C$alloc..collections..btree..node..marker..KV$GT$5split17ha102f583f1ae45bdE', symObjAddr: 0xF314, symBinAddr: 0x10001D5D0, symSize: 0x1C8 }
  - { offset: 0x2276C, size: 0x8, addend: 0x0, symName: '__ZN5alloc11collections5btree4node212Handle$LT$alloc..collections..btree..node..NodeRef$LT$alloc..collections..btree..node..marker..Mut$C$K$C$V$C$alloc..collections..btree..node..marker..Internal$GT$$C$alloc..collections..btree..node..marker..KV$GT$5split17he1631b8e3d135de0E', symObjAddr: 0xF950, symBinAddr: 0x10001D798, symSize: 0x294 }
  - { offset: 0x22E85, size: 0x8, addend: 0x0, symName: '__ZN5alloc11collections5btree6remove259_$LT$impl$u20$alloc..collections..btree..node..Handle$LT$alloc..collections..btree..node..NodeRef$LT$alloc..collections..btree..node..marker..Mut$C$K$C$V$C$alloc..collections..btree..node..marker..Leaf$GT$$C$alloc..collections..btree..node..marker..KV$GT$$GT$14remove_leaf_kv17h6b3fb6c543c3f14fE', symObjAddr: 0x10904, symBinAddr: 0x10001E1B0, symSize: 0x59C }
  - { offset: 0x24533, size: 0x8, addend: 0x0, symName: '__ZN5alloc11collections5btree4node29BalancingContext$LT$K$C$V$GT$15bulk_steal_left17h116648e9c1058487E', symObjAddr: 0xFBE4, symBinAddr: 0x10001DA2C, symSize: 0x284 }
  - { offset: 0x24B88, size: 0x8, addend: 0x0, symName: '__ZN5alloc11collections5btree4node29BalancingContext$LT$K$C$V$GT$16bulk_steal_right17h7dc2c295fb017210E', symObjAddr: 0xFE68, symBinAddr: 0x10001DCB0, symSize: 0x2A8 }
  - { offset: 0x252BE, size: 0x8, addend: 0x0, symName: '__ZN5alloc11collections5btree4node29BalancingContext$LT$K$C$V$GT$8do_merge17h5a11588cadfa6da9E', symObjAddr: 0x10110, symBinAddr: 0x10001DF58, symSize: 0x258 }
  - { offset: 0x25A2D, size: 0x8, addend: 0x0, symName: '__ZN108_$LT$alloc..collections..btree..map..Iter$LT$K$C$V$GT$$u20$as$u20$core..iter..traits..iterator..Iterator$GT$4next17h45e1d25cf43a5166E', symObjAddr: 0x0, symBinAddr: 0x100010A54, symSize: 0x13C }
  - { offset: 0x25DC0, size: 0x8, addend: 0x0, symName: '__ZN5alloc11collections5btree3map25BTreeMap$LT$K$C$V$C$A$GT$6insert17h4e30f42673c48afbE', symObjAddr: 0xD8AC, symBinAddr: 0x10001C584, symSize: 0x9E0 }
  - { offset: 0x276AA, size: 0x8, addend: 0x0, symName: '__ZN5alloc11collections5btree3map25IntoIter$LT$K$C$V$C$A$GT$10dying_next17h1d88f957430bad1dE', symObjAddr: 0xECA8, symBinAddr: 0x10001CF64, symSize: 0x224 }
  - { offset: 0x27A99, size: 0x8, addend: 0x0, symName: '__ZN5alloc11collections5btree3map25IntoIter$LT$K$C$V$C$A$GT$10dying_next17h50da07c4ee930b47E', symObjAddr: 0xEECC, symBinAddr: 0x10001D188, symSize: 0x224 }
  - { offset: 0x27E88, size: 0x8, addend: 0x0, symName: '__ZN5alloc11collections5btree3map25IntoIter$LT$K$C$V$C$A$GT$10dying_next17hfaa5a005d7e39d8eE', symObjAddr: 0xF0F0, symBinAddr: 0x10001D3AC, symSize: 0x224 }
  - { offset: 0x28DAE, size: 0x8, addend: 0x0, symName: '__ZN5alloc7raw_vec19RawVec$LT$T$C$A$GT$8grow_one17h095dc4f4c91ff6b9E', symObjAddr: 0x114B8, symBinAddr: 0x10001EB38, symSize: 0xD0 }
  - { offset: 0x28F04, size: 0x8, addend: 0x0, symName: '__ZN5alloc7raw_vec19RawVec$LT$T$C$A$GT$8grow_one17h3a19a4ab2b92359dE', symObjAddr: 0x11658, symBinAddr: 0x10001EC08, symSize: 0xC0 }
  - { offset: 0x2905A, size: 0x8, addend: 0x0, symName: '__ZN5alloc7raw_vec19RawVec$LT$T$C$A$GT$8grow_one17h40071feec6bbd372E', symObjAddr: 0x11718, symBinAddr: 0x10001ECC8, symSize: 0xD0 }
  - { offset: 0x291B0, size: 0x8, addend: 0x0, symName: '__ZN5alloc7raw_vec19RawVec$LT$T$C$A$GT$8grow_one17h4a39c02819ac1667E', symObjAddr: 0x117E8, symBinAddr: 0x10001ED98, symSize: 0xD0 }
  - { offset: 0x29306, size: 0x8, addend: 0x0, symName: '__ZN5alloc7raw_vec19RawVec$LT$T$C$A$GT$8grow_one17h4a92fc1fe476e477E', symObjAddr: 0x118B8, symBinAddr: 0x10001EE68, symSize: 0xC0 }
  - { offset: 0x2945C, size: 0x8, addend: 0x0, symName: '__ZN5alloc7raw_vec19RawVec$LT$T$C$A$GT$8grow_one17h4fe34a41a9b5eb13E', symObjAddr: 0x11978, symBinAddr: 0x10001EF28, symSize: 0xC0 }
  - { offset: 0x295B2, size: 0x8, addend: 0x0, symName: '__ZN5alloc7raw_vec19RawVec$LT$T$C$A$GT$8grow_one17h51ebdaf7922ccb0fE', symObjAddr: 0x11A38, symBinAddr: 0x10001EFE8, symSize: 0xD0 }
  - { offset: 0x29708, size: 0x8, addend: 0x0, symName: '__ZN5alloc7raw_vec19RawVec$LT$T$C$A$GT$8grow_one17h5fa1addd75b9c473E', symObjAddr: 0x11B08, symBinAddr: 0x10001F0B8, symSize: 0xC0 }
  - { offset: 0x2985E, size: 0x8, addend: 0x0, symName: '__ZN5alloc7raw_vec19RawVec$LT$T$C$A$GT$8grow_one17h86dfd012ac0923eeE', symObjAddr: 0x11BC8, symBinAddr: 0x10001F178, symSize: 0xCC }
  - { offset: 0x299B4, size: 0x8, addend: 0x0, symName: '__ZN5alloc7raw_vec19RawVec$LT$T$C$A$GT$8grow_one17h94e52b7d38af74feE', symObjAddr: 0x11C94, symBinAddr: 0x10001F244, symSize: 0xCC }
  - { offset: 0x29B0A, size: 0x8, addend: 0x0, symName: '__ZN5alloc7raw_vec19RawVec$LT$T$C$A$GT$8grow_one17hbaffb1ea2421dae5E', symObjAddr: 0x11D60, symBinAddr: 0x10001F310, symSize: 0xCC }
  - { offset: 0x2A3A4, size: 0x8, addend: 0x0, symName: __ZN5alloc7raw_vec11finish_grow17hd37f20dcfa74548bE, symObjAddr: 0x11430, symBinAddr: 0x10004BA94, symSize: 0x88 }
  - { offset: 0x2A43F, size: 0x8, addend: 0x0, symName: '__ZN5alloc7raw_vec20RawVecInner$LT$A$GT$7reserve21do_reserve_and_handle17h59c9ec03f2a10329E', symObjAddr: 0x11E2C, symBinAddr: 0x10004BB1C, symSize: 0xF0 }
  - { offset: 0x2BA5F, size: 0x8, addend: 0x0, symName: '__ZN5alloc4sync16Arc$LT$T$C$A$GT$9drop_slow17h382cff577ce4ab40E', symObjAddr: 0x10FD0, symBinAddr: 0x10001E74C, symSize: 0x100 }
  - { offset: 0x2BD8F, size: 0x8, addend: 0x0, symName: '__ZN5alloc4sync16Arc$LT$T$C$A$GT$9drop_slow17h5608352b196d8cb3E', symObjAddr: 0x110D0, symBinAddr: 0x10001E84C, symSize: 0xA0 }
  - { offset: 0x2C0B3, size: 0x8, addend: 0x0, symName: '__ZN5alloc4sync16Arc$LT$T$C$A$GT$9drop_slow17h5ede859a095ca78aE', symObjAddr: 0x111E4, symBinAddr: 0x10001E8EC, symSize: 0x78 }
  - { offset: 0x2C27F, size: 0x8, addend: 0x0, symName: '__ZN5alloc4sync16Arc$LT$T$C$A$GT$9drop_slow17h7cf1d5f987884bcfE', symObjAddr: 0x1125C, symBinAddr: 0x10001E964, symSize: 0xC0 }
  - { offset: 0x2C5A4, size: 0x8, addend: 0x0, symName: '__ZN5alloc4sync16Arc$LT$T$C$A$GT$9drop_slow17h90e2e762cfbfaa1eE', symObjAddr: 0x1131C, symBinAddr: 0x10001EA24, symSize: 0x44 }
  - { offset: 0x2C681, size: 0x8, addend: 0x0, symName: '__ZN5alloc4sync16Arc$LT$T$C$A$GT$9drop_slow17h9659d3e2cd59fce8E', symObjAddr: 0x11360, symBinAddr: 0x10001EA68, symSize: 0xD0 }
  - { offset: 0x2CBF7, size: 0x8, addend: 0x0, symName: '__ZN64_$LT$alloc..ffi..c_str..NulError$u20$as$u20$core..fmt..Debug$GT$3fmt17h18ce3d950e35fa91E', symObjAddr: 0x18D64, symBinAddr: 0x100026224, symSize: 0x4C }
  - { offset: 0x2D0B4, size: 0x8, addend: 0x0, symName: '__ZN58_$LT$alloc..string..String$u20$as$u20$core..fmt..Debug$GT$3fmt17hdbacb71d50eff926E', symObjAddr: 0xD6B8, symBinAddr: 0x10001C390, symSize: 0x1C }
  - { offset: 0x2D16F, size: 0x8, addend: 0x0, symName: '__ZN58_$LT$alloc..string..String$u20$as$u20$core..fmt..Write$GT$10write_char17h67c485e816708459E', symObjAddr: 0xD6D4, symBinAddr: 0x10001C3AC, symSize: 0x158 }
  - { offset: 0x2D3D4, size: 0x8, addend: 0x0, symName: '__ZN58_$LT$alloc..string..String$u20$as$u20$core..fmt..Write$GT$9write_str17h4bc2793cacc1d696E', symObjAddr: 0xD82C, symBinAddr: 0x10001C504, symSize: 0x80 }
  - { offset: 0x2D52D, size: 0x8, addend: 0x0, symName: '__ZN60_$LT$alloc..string..String$u20$as$u20$core..fmt..Display$GT$3fmt17ha0099383a97e68c2E', symObjAddr: 0x18D48, symBinAddr: 0x100026208, symSize: 0x1C }
  - { offset: 0x2ED3C, size: 0x8, addend: 0x0, symName: '__ZN4core3ptr107drop_in_place$LT$alloc..vec..Vec$LT$$LP$std..ffi..os_str..OsString$C$std..ffi..os_str..OsString$RP$$GT$$GT$17h6612d33457a8ea03E', symObjAddr: 0x1AE4, symBinAddr: 0x100011730, symSize: 0x94 }
  - { offset: 0x2EFC3, size: 0x8, addend: 0x0, symName: '__ZN4core3ptr107drop_in_place$LT$core..option..Option$LT$std..sys..pal..unix..process..process_common..CStringArray$GT$$GT$17hf3f42dd5b05d3cc1E', symObjAddr: 0x1C04, symBinAddr: 0x1000117C4, symSize: 0xAC }
  - { offset: 0x2F1D4, size: 0x8, addend: 0x0, symName: '__ZN4core3ptr107drop_in_place$LT$core..pin..Pin$LT$alloc..boxed..Box$LT$std..sys..pal..unix..sync..mutex..Mutex$GT$$GT$$GT$17hc07c140671e79445E', symObjAddr: 0x1CB0, symBinAddr: 0x100011870, symSize: 0x2C }
  - { offset: 0x2F2CD, size: 0x8, addend: 0x0, symName: '__ZN4core3ptr108drop_in_place$LT$alloc..collections..btree..map..BTreeMap$LT$u64$C$gimli..read..abbrev..Abbreviation$GT$$GT$17haa74a0211d9ed923E', symObjAddr: 0x1CDC, symBinAddr: 0x10001189C, symSize: 0xB0 }
  - { offset: 0x2F4A0, size: 0x8, addend: 0x0, symName: '__ZN4core3ptr109drop_in_place$LT$alloc..sync..Arc$LT$std..sync..poison..mutex..Mutex$LT$alloc..vec..Vec$LT$u8$GT$$GT$$GT$$GT$17h61b1cac8a1fede90E', symObjAddr: 0x1D8C, symBinAddr: 0x10001194C, symSize: 0x30 }
  - { offset: 0x2F543, size: 0x8, addend: 0x0, symName: '__ZN4core3ptr118drop_in_place$LT$std..io..Write..write_fmt..Adapter$LT$std..io..cursor..Cursor$LT$$RF$mut$u20$$u5b$u8$u5d$$GT$$GT$$GT$17h5c63d0c0bee45058E', symObjAddr: 0x1E54, symBinAddr: 0x10001197C, symSize: 0x20 }
  - { offset: 0x2F57B, size: 0x8, addend: 0x0, symName: '__ZN4core3ptr123drop_in_place$LT$addr2line..Context$LT$gimli..read..endian_slice..EndianSlice$LT$gimli..endianity..LittleEndian$GT$$GT$$GT$17hc6d5be859abd218dE', symObjAddr: 0x1E74, symBinAddr: 0x10001199C, symSize: 0x70 }
  - { offset: 0x2F650, size: 0x8, addend: 0x0, symName: '__ZN4core3ptr124drop_in_place$LT$alloc..collections..btree..map..BTreeMap$LT$std..ffi..os_str..OsString$C$std..ffi..os_str..OsString$GT$$GT$17hc9840ba1a16bc149E', symObjAddr: 0x1EE4, symBinAddr: 0x100011A0C, symSize: 0xB8 }
  - { offset: 0x2F883, size: 0x8, addend: 0x0, symName: '__ZN4core3ptr124drop_in_place$LT$alloc..collections..btree..map..IntoIter$LT$std..ffi..os_str..OsString$C$std..ffi..os_str..OsString$GT$$GT$17h1e45a95309140dfeE', symObjAddr: 0x1F9C, symBinAddr: 0x100011AC4, symSize: 0x90 }
  - { offset: 0x2FB0A, size: 0x8, addend: 0x0, symName: '__ZN4core3ptr129drop_in_place$LT$addr2line..unit..ResUnit$LT$gimli..read..endian_slice..EndianSlice$LT$gimli..endianity..LittleEndian$GT$$GT$$GT$17h3200663a94d9b140E', symObjAddr: 0x202C, symBinAddr: 0x100011B54, symSize: 0xE4 }
  - { offset: 0x2FD2C, size: 0x8, addend: 0x0, symName: '__ZN4core3ptr129drop_in_place$LT$addr2line..unit..SupUnit$LT$gimli..read..endian_slice..EndianSlice$LT$gimli..endianity..LittleEndian$GT$$GT$$GT$17hea048140b03f01afE', symObjAddr: 0x2110, symBinAddr: 0x100011C38, symSize: 0x54 }
  - { offset: 0x2FE07, size: 0x8, addend: 0x0, symName: '__ZN4core3ptr130drop_in_place$LT$addr2line..unit..ResUnits$LT$gimli..read..endian_slice..EndianSlice$LT$gimli..endianity..LittleEndian$GT$$GT$$GT$17he56c193886414dbaE', symObjAddr: 0x2164, symBinAddr: 0x100011C8C, symSize: 0xD0 }
  - { offset: 0x2FFB0, size: 0x8, addend: 0x0, symName: '__ZN4core3ptr130drop_in_place$LT$addr2line..unit..SupUnits$LT$gimli..read..endian_slice..EndianSlice$LT$gimli..endianity..LittleEndian$GT$$GT$$GT$17h74d4d2bc946c0774E', symObjAddr: 0x2234, symBinAddr: 0x100011D5C, symSize: 0xE4 }
  - { offset: 0x3016E, size: 0x8, addend: 0x0, symName: '__ZN4core3ptr130drop_in_place$LT$gimli..read..dwarf..Dwarf$LT$gimli..read..endian_slice..EndianSlice$LT$gimli..endianity..LittleEndian$GT$$GT$$GT$17h733659cc5e33a4cbE', symObjAddr: 0x2318, symBinAddr: 0x100011E40, symSize: 0x58 }
  - { offset: 0x3023C, size: 0x8, addend: 0x0, symName: '__ZN4core3ptr131drop_in_place$LT$$u5b$core..option..Option$LT$core..option..Option$LT$std..backtrace_rs..symbolize..gimli..Mapping$GT$$GT$$u5d$$GT$17h1b55ae3732cae68aE', symObjAddr: 0x2370, symBinAddr: 0x100011E98, symSize: 0xCC }
  - { offset: 0x302E6, size: 0x8, addend: 0x0, symName: '__ZN4core3ptr137drop_in_place$LT$gimli..read..dwarf..Unit$LT$gimli..read..endian_slice..EndianSlice$LT$gimli..endianity..LittleEndian$GT$$C$usize$GT$$GT$17h90351d6bab11b82cE', symObjAddr: 0x2500, symBinAddr: 0x100011F64, symSize: 0x54 }
  - { offset: 0x303E3, size: 0x8, addend: 0x0, symName: '__ZN4core3ptr138drop_in_place$LT$addr2line..function..LazyFunction$LT$gimli..read..endian_slice..EndianSlice$LT$gimli..endianity..LittleEndian$GT$$GT$$GT$17h0f9458c797bd90e9E', symObjAddr: 0x2554, symBinAddr: 0x100011FB8, symSize: 0x64 }
  - { offset: 0x303FA, size: 0x8, addend: 0x0, symName: '__ZN4core3ptr138drop_in_place$LT$addr2line..function..LazyFunction$LT$gimli..read..endian_slice..EndianSlice$LT$gimli..endianity..LittleEndian$GT$$GT$$GT$17h0f9458c797bd90e9E', symObjAddr: 0x2554, symBinAddr: 0x100011FB8, symSize: 0x64 }
  - { offset: 0x3040F, size: 0x8, addend: 0x0, symName: '__ZN4core3ptr138drop_in_place$LT$addr2line..function..LazyFunction$LT$gimli..read..endian_slice..EndianSlice$LT$gimli..endianity..LittleEndian$GT$$GT$$GT$17h0f9458c797bd90e9E', symObjAddr: 0x2554, symBinAddr: 0x100011FB8, symSize: 0x64 }
  - { offset: 0x30424, size: 0x8, addend: 0x0, symName: '__ZN4core3ptr138drop_in_place$LT$addr2line..function..LazyFunction$LT$gimli..read..endian_slice..EndianSlice$LT$gimli..endianity..LittleEndian$GT$$GT$$GT$17h0f9458c797bd90e9E', symObjAddr: 0x2554, symBinAddr: 0x100011FB8, symSize: 0x64 }
  - { offset: 0x30566, size: 0x8, addend: 0x0, symName: '__ZN4core3ptr144drop_in_place$LT$alloc..vec..Vec$LT$core..option..Option$LT$core..option..Option$LT$std..backtrace_rs..symbolize..gimli..Mapping$GT$$GT$$GT$$GT$17hd5b41028903956eeE', symObjAddr: 0x25B8, symBinAddr: 0x10001201C, symSize: 0x78 }
  - { offset: 0x306CE, size: 0x8, addend: 0x0, symName: '__ZN4core3ptr152drop_in_place$LT$alloc..vec..Vec$LT$addr2line..unit..ResUnit$LT$gimli..read..endian_slice..EndianSlice$LT$gimli..endianity..LittleEndian$GT$$GT$$GT$$GT$17hdd35552c1680b2ebE', symObjAddr: 0x26FC, symBinAddr: 0x100012094, symSize: 0xC4 }
  - { offset: 0x3083D, size: 0x8, addend: 0x0, symName: '__ZN4core3ptr152drop_in_place$LT$alloc..vec..Vec$LT$addr2line..unit..SupUnit$LT$gimli..read..endian_slice..EndianSlice$LT$gimli..endianity..LittleEndian$GT$$GT$$GT$$GT$17h6431a2f92897bef0E', symObjAddr: 0x27C0, symBinAddr: 0x100012158, symSize: 0xF4 }
  - { offset: 0x30A55, size: 0x8, addend: 0x0, symName: '__ZN4core3ptr156drop_in_place$LT$alloc..boxed..Box$LT$$u5b$core..option..Option$LT$core..option..Option$LT$std..backtrace_rs..symbolize..gimli..Mapping$GT$$GT$$u5d$$GT$$GT$17h61627ecd782bd92dE', symObjAddr: 0x28B4, symBinAddr: 0x10001224C, symSize: 0xF8 }
  - { offset: 0x30B7F, size: 0x8, addend: 0x0, symName: '__ZN4core3ptr159drop_in_place$LT$alloc..sync..ArcInner$LT$gimli..read..dwarf..Dwarf$LT$gimli..read..endian_slice..EndianSlice$LT$gimli..endianity..LittleEndian$GT$$GT$$GT$$GT$17h71c073e2ea863d36E', symObjAddr: 0x29AC, symBinAddr: 0x100012344, symSize: 0x58 }
  - { offset: 0x30C5C, size: 0x8, addend: 0x0, symName: '__ZN4core3ptr161drop_in_place$LT$alloc..vec..Vec$LT$addr2line..function..LazyFunction$LT$gimli..read..endian_slice..EndianSlice$LT$gimli..endianity..LittleEndian$GT$$GT$$GT$$GT$17h938f97b5a308fc3cE', symObjAddr: 0x2A04, symBinAddr: 0x10001239C, symSize: 0xAC }
  - { offset: 0x30E99, size: 0x8, addend: 0x0, symName: '__ZN4core3ptr172drop_in_place$LT$core..result..Result$LT$addr2line..Context$LT$gimli..read..endian_slice..EndianSlice$LT$gimli..endianity..LittleEndian$GT$$GT$$C$gimli..read..Error$GT$$GT$17h8205db00afecd676E', symObjAddr: 0x2B5C, symBinAddr: 0x100012448, symSize: 0x80 }
  - { offset: 0x30F2E, size: 0x8, addend: 0x0, symName: '__ZN4core3ptr173drop_in_place$LT$alloc..boxed..Box$LT$$u5b$addr2line..function..LazyFunction$LT$gimli..read..endian_slice..EndianSlice$LT$gimli..endianity..LittleEndian$GT$$GT$$u5d$$GT$$GT$17h141b901e37828fa3E', symObjAddr: 0x2BDC, symBinAddr: 0x1000124C8, symSize: 0x9C }
  - { offset: 0x30F45, size: 0x8, addend: 0x0, symName: '__ZN4core3ptr173drop_in_place$LT$alloc..boxed..Box$LT$$u5b$addr2line..function..LazyFunction$LT$gimli..read..endian_slice..EndianSlice$LT$gimli..endianity..LittleEndian$GT$$GT$$u5d$$GT$$GT$17h141b901e37828fa3E', symObjAddr: 0x2BDC, symBinAddr: 0x1000124C8, symSize: 0x9C }
  - { offset: 0x3118A, size: 0x8, addend: 0x0, symName: '__ZN4core3ptr181drop_in_place$LT$core..option..Option$LT$gimli..read..line..IncompleteLineProgram$LT$gimli..read..endian_slice..EndianSlice$LT$gimli..endianity..LittleEndian$GT$$C$usize$GT$$GT$$GT$17h0ce7bfce5e4abb6bE', symObjAddr: 0x2CE8, symBinAddr: 0x100012564, symSize: 0x98 }
  - { offset: 0x31445, size: 0x8, addend: 0x0, symName: '__ZN4core3ptr181drop_in_place$LT$core..result..Result$LT$addr2line..frame..FrameIter$LT$gimli..read..endian_slice..EndianSlice$LT$gimli..endianity..LittleEndian$GT$$GT$$C$gimli..read..Error$GT$$GT$17hc32763af75cf70e4E', symObjAddr: 0x2D80, symBinAddr: 0x1000125FC, symSize: 0x44 }
  - { offset: 0x31583, size: 0x8, addend: 0x0, symName: '__ZN4core3ptr184drop_in_place$LT$core..result..Result$LT$addr2line..function..Functions$LT$gimli..read..endian_slice..EndianSlice$LT$gimli..endianity..LittleEndian$GT$$GT$$C$gimli..read..Error$GT$$GT$17hae974801a783d12aE', symObjAddr: 0x2DC4, symBinAddr: 0x100012640, symSize: 0xD8 }
  - { offset: 0x3207C, size: 0x8, addend: 0x0, symName: '__ZN4core3ptr223drop_in_place$LT$std..sys..thread_local..native..lazy..State$LT$core..cell..Cell$LT$core..option..Option$LT$alloc..sync..Arc$LT$std..sync..poison..mutex..Mutex$LT$alloc..vec..Vec$LT$u8$GT$$GT$$GT$$GT$$GT$$C$$LP$$RP$$GT$$GT$17h8e1dbbdc8aa6e2b2E', symObjAddr: 0x2F10, symBinAddr: 0x100012718, symSize: 0x40 }
  - { offset: 0x32168, size: 0x8, addend: 0x0, symName: '__ZN4core3ptr231drop_in_place$LT$core..result..Result$LT$core..option..Option$LT$alloc..boxed..Box$LT$addr2line..unit..DwoUnit$LT$gimli..read..endian_slice..EndianSlice$LT$gimli..endianity..LittleEndian$GT$$GT$$GT$$GT$$C$gimli..read..Error$GT$$GT$17h48abe14940fae1d7E', symObjAddr: 0x2F50, symBinAddr: 0x100012758, symSize: 0xD4 }
  - { offset: 0x32351, size: 0x8, addend: 0x0, symName: '__ZN4core3ptr275drop_in_place$LT$gimli..read..line..LineRows$LT$gimli..read..endian_slice..EndianSlice$LT$gimli..endianity..LittleEndian$GT$$C$gimli..read..line..IncompleteLineProgram$LT$gimli..read..endian_slice..EndianSlice$LT$gimli..endianity..LittleEndian$GT$$C$usize$GT$$C$usize$GT$$GT$17h1fb49ddc3575d792E', symObjAddr: 0x304C, symBinAddr: 0x10001282C, symSize: 0x8C }
  - { offset: 0x325C6, size: 0x8, addend: 0x0, symName: '__ZN4core3ptr280drop_in_place$LT$$LT$alloc..collections..btree..map..IntoIter$LT$K$C$V$C$A$GT$$u20$as$u20$core..ops..drop..Drop$GT$..drop..DropGuard$LT$u64$C$core..result..Result$LT$alloc..sync..Arc$LT$gimli..read..abbrev..Abbreviations$GT$$C$gimli..read..Error$GT$$C$alloc..alloc..Global$GT$$GT$17h412edb4cf40f508aE', symObjAddr: 0x30D8, symBinAddr: 0x1000128B8, symSize: 0x84 }
  - { offset: 0x32769, size: 0x8, addend: 0x0, symName: '__ZN4core3ptr37drop_in_place$LT$std..env..VarsOs$GT$17h8833fb9321bef3f6E', symObjAddr: 0x315C, symBinAddr: 0x10001293C, symSize: 0xAC }
  - { offset: 0x32A68, size: 0x8, addend: 0x0, symName: '__ZN4core3ptr42drop_in_place$LT$alloc..string..String$GT$17h49e49416d7fc736bE', symObjAddr: 0x3330, symBinAddr: 0x1000129E8, symSize: 0x28 }
  - { offset: 0x32B43, size: 0x8, addend: 0x0, symName: '__ZN4core3ptr42drop_in_place$LT$std..io..error..Error$GT$17h2076e24185186a1eE', symObjAddr: 0x3358, symBinAddr: 0x100012A10, symSize: 0xAC }
  - { offset: 0x32D5D, size: 0x8, addend: 0x0, symName: '__ZN4core3ptr44drop_in_place$LT$object..read..ObjectMap$GT$17hefa7b8970618855fE', symObjAddr: 0x3404, symBinAddr: 0x100012ABC, symSize: 0x58 }
  - { offset: 0x32E8C, size: 0x8, addend: 0x0, symName: '__ZN4core3ptr46drop_in_place$LT$alloc..vec..Vec$LT$u8$GT$$GT$17he05f3434a0e55321E', symObjAddr: 0x350C, symBinAddr: 0x100012B14, symSize: 0x28 }
  - { offset: 0x32F19, size: 0x8, addend: 0x0, symName: '__ZN4core3ptr46drop_in_place$LT$std..io..stdio..StdinLock$GT$17h7f23f0068af34be6E', symObjAddr: 0x3534, symBinAddr: 0x100012B3C, symSize: 0x54 }
  - { offset: 0x32F30, size: 0x8, addend: 0x0, symName: '__ZN4core3ptr46drop_in_place$LT$std..io..stdio..StdinLock$GT$17h7f23f0068af34be6E', symObjAddr: 0x3534, symBinAddr: 0x100012B3C, symSize: 0x54 }
  - { offset: 0x32F45, size: 0x8, addend: 0x0, symName: '__ZN4core3ptr46drop_in_place$LT$std..io..stdio..StdinLock$GT$17h7f23f0068af34be6E', symObjAddr: 0x3534, symBinAddr: 0x100012B3C, symSize: 0x54 }
  - { offset: 0x33029, size: 0x8, addend: 0x0, symName: '__ZN4core3ptr48drop_in_place$LT$alloc..ffi..c_str..NulError$GT$17hf807e8c3d992613aE', symObjAddr: 0x35E0, symBinAddr: 0x100012B90, symSize: 0x28 }
  - { offset: 0x330E8, size: 0x8, addend: 0x0, symName: '__ZN4core3ptr55drop_in_place$LT$gimli..read..abbrev..Abbreviations$GT$17h5028fd7f23a66a5dE', symObjAddr: 0x38D4, symBinAddr: 0x100012BB8, symSize: 0x84 }
  - { offset: 0x332A3, size: 0x8, addend: 0x0, symName: '__ZN4core3ptr60drop_in_place$LT$gimli..read..abbrev..AbbreviationsCache$GT$17h109635aebb38ad94E', symObjAddr: 0x39E8, symBinAddr: 0x100012C3C, symSize: 0xCC }
  - { offset: 0x33465, size: 0x8, addend: 0x0, symName: '__ZN4core3ptr62drop_in_place$LT$std..sys..sync..rwlock..queue..PanicGuard$GT$17ha6ff6fed8f58b75aE', symObjAddr: 0x3AB4, symBinAddr: 0x100012D08, symSize: 0x44 }
  - { offset: 0x334AC, size: 0x8, addend: 0x0, symName: '__ZN4core3ptr64drop_in_place$LT$std..sys..pal..unix..sync..mutex..AttrGuard$GT$17hfae1c338ebc17455E', symObjAddr: 0x3AF8, symBinAddr: 0x100012D4C, symSize: 0x48 }
  - { offset: 0x334EB, size: 0x8, addend: 0x0, symName: '__ZN4core3ptr65drop_in_place$LT$alloc..vec..Vec$LT$alloc..string..String$GT$$GT$17h0e8d3320a68b6c20E', symObjAddr: 0x3B40, symBinAddr: 0x100012D94, symSize: 0x80 }
  - { offset: 0x33689, size: 0x8, addend: 0x0, symName: '__ZN4core3ptr65drop_in_place$LT$std..backtrace_rs..symbolize..gimli..Context$GT$17he1a9681aa2b789c5E', symObjAddr: 0x3BC0, symBinAddr: 0x100012E14, symSize: 0xE8 }
  - { offset: 0x3391B, size: 0x8, addend: 0x0, symName: '__ZN4core3ptr65drop_in_place$LT$std..backtrace_rs..symbolize..gimli..Mapping$GT$17h1ad26fdf3d4d883aE', symObjAddr: 0x3CA8, symBinAddr: 0x100012EFC, symSize: 0x50 }
  - { offset: 0x33986, size: 0x8, addend: 0x0, symName: '__ZN4core3ptr66drop_in_place$LT$std..backtrace_rs..backtrace..libunwind..Bomb$GT$17hcf55bbc6e2408f91E', symObjAddr: 0x3D50, symBinAddr: 0x100012F4C, symSize: 0x40 }
  - { offset: 0x339C4, size: 0x8, addend: 0x0, symName: '__ZN4core3ptr70drop_in_place$LT$alloc..vec..Vec$LT$alloc..ffi..c_str..CString$GT$$GT$17hfd0a4040cac87084E', symObjAddr: 0x3D90, symBinAddr: 0x100012F8C, symSize: 0x7C }
  - { offset: 0x33B77, size: 0x8, addend: 0x0, symName: '__ZN4core3ptr70drop_in_place$LT$std..backtrace_rs..symbolize..gimli..stash..Stash$GT$17h823b9ed5294710a1E', symObjAddr: 0x3E8C, symBinAddr: 0x100013008, symSize: 0xB8 }
  - { offset: 0x33E1D, size: 0x8, addend: 0x0, symName: '__ZN4core3ptr71drop_in_place$LT$std..backtrace_rs..symbolize..gimli..macho..Object$GT$17h7d766a5d50e6fcdbE', symObjAddr: 0x3F44, symBinAddr: 0x1000130C0, symSize: 0xD8 }
  - { offset: 0x340F0, size: 0x8, addend: 0x0, symName: '__ZN4core3ptr72drop_in_place$LT$core..option..Option$LT$object..read..ObjectMap$GT$$GT$17hc34cda9cf8984625E', symObjAddr: 0x4088, symBinAddr: 0x100013198, symSize: 0x64 }
  - { offset: 0x3426D, size: 0x8, addend: 0x0, symName: '__ZN4core3ptr73drop_in_place$LT$alloc..vec..Vec$LT$addr2line..line..LineSequence$GT$$GT$17h0feaef6467c5bb06E', symObjAddr: 0x40EC, symBinAddr: 0x1000131FC, symSize: 0x84 }
  - { offset: 0x343C5, size: 0x8, addend: 0x0, symName: '__ZN4core3ptr77drop_in_place$LT$alloc..boxed..Box$LT$$u5b$alloc..string..String$u5d$$GT$$GT$17h8657c1556d878703E', symObjAddr: 0x41C8, symBinAddr: 0x100013280, symSize: 0x70 }
  - { offset: 0x343DC, size: 0x8, addend: 0x0, symName: '__ZN4core3ptr77drop_in_place$LT$alloc..boxed..Box$LT$$u5b$alloc..string..String$u5d$$GT$$GT$17h8657c1556d878703E', symObjAddr: 0x41C8, symBinAddr: 0x100013280, symSize: 0x70 }
  - { offset: 0x344E8, size: 0x8, addend: 0x0, symName: '__ZN4core3ptr77drop_in_place$LT$std..panicking..begin_panic_handler..FormatStringPayload$GT$17h1141e34cc3e1cd8cE', symObjAddr: 0x4238, symBinAddr: 0x1000132F0, symSize: 0x34 }
  - { offset: 0x345B2, size: 0x8, addend: 0x0, symName: '__ZN4core3ptr77drop_in_place$LT$std..sys..pal..unix..process..process_common..ChildPipes$GT$17h620614c70ca5ad33E', symObjAddr: 0x426C, symBinAddr: 0x100013324, symSize: 0x78 }
  - { offset: 0x346C2, size: 0x8, addend: 0x0, symName: '__ZN4core3ptr77drop_in_place$LT$std..sys..pal..unix..process..process_common..StdioPipes$GT$17ha094cdbd3e642bc1E', symObjAddr: 0x42E4, symBinAddr: 0x10001339C, symSize: 0x54 }
  - { offset: 0x3481E, size: 0x8, addend: 0x0, symName: '__ZN4core3ptr78drop_in_place$LT$core..result..Result$LT$usize$C$std..io..error..Error$GT$$GT$17h31f04dfac34de6cfE', symObjAddr: 0x4338, symBinAddr: 0x1000133F0, symSize: 0x24 }
  - { offset: 0x34832, size: 0x8, addend: 0x0, symName: '__ZN4core3ptr79drop_in_place$LT$std..sync..poison..rwlock..RwLockReadGuard$LT$$LP$$RP$$GT$$GT$17h3c7acdfaefb6864dE', symObjAddr: 0x435C, symBinAddr: 0x100013414, symSize: 0x68 }
  - { offset: 0x348CE, size: 0x8, addend: 0x0, symName: '__ZN4core3ptr79drop_in_place$LT$std..sys..pal..unix..process..process_common..CStringArray$GT$17h6aeb88f15641d3f5E', symObjAddr: 0x43C4, symBinAddr: 0x10001347C, symSize: 0x94 }
  - { offset: 0x34AAD, size: 0x8, addend: 0x0, symName: '__ZN4core3ptr81drop_in_place$LT$$LP$usize$C$std..backtrace_rs..symbolize..gimli..Mapping$RP$$GT$17h0fc60d1e178e2af3E', symObjAddr: 0x4458, symBinAddr: 0x100013510, symSize: 0x54 }
  - { offset: 0x34B2E, size: 0x8, addend: 0x0, symName: '__ZN4core3ptr81drop_in_place$LT$core..result..Result$LT$$LP$$RP$$C$std..io..error..Error$GT$$GT$17h32d66e7d6b4290f9E', symObjAddr: 0x44AC, symBinAddr: 0x100013564, symSize: 0x20 }
  - { offset: 0x34B42, size: 0x8, addend: 0x0, symName: '__ZN4core3ptr84drop_in_place$LT$$LP$std..ffi..os_str..OsString$C$std..ffi..os_str..OsString$RP$$GT$17hce73656bd67f13b5E', symObjAddr: 0x4510, symBinAddr: 0x100013584, symSize: 0x4C }
  - { offset: 0x34C9D, size: 0x8, addend: 0x0, symName: '__ZN4core3ptr84drop_in_place$LT$alloc..sync..ArcInner$LT$gimli..read..abbrev..Abbreviations$GT$$GT$17hc1742a6ee5f4f5c4E', symObjAddr: 0x455C, symBinAddr: 0x1000135D0, symSize: 0x84 }
  - { offset: 0x34E67, size: 0x8, addend: 0x0, symName: '__ZN4core3ptr87drop_in_place$LT$alloc..sync..ArcInner$LT$std..sys..pal..unix..fs..InnerReadDir$GT$$GT$17h22f7f5fc9c3aa8bdE', symObjAddr: 0x45E0, symBinAddr: 0x100013654, symSize: 0x60 }
  - { offset: 0x35050, size: 0x8, addend: 0x0, symName: '__ZN4core3ptr88drop_in_place$LT$alloc..vec..Vec$LT$std..backtrace_rs..symbolize..gimli..Library$GT$$GT$17heda6be67225cff8cE', symObjAddr: 0x4674, symBinAddr: 0x1000136B4, symSize: 0x98 }
  - { offset: 0x35266, size: 0x8, addend: 0x0, symName: '__ZN4core3ptr90drop_in_place$LT$std..io..buffered..bufwriter..BufWriter$LT$W$GT$..flush_buf..BufGuard$GT$17h18eab3e558793eacE', symObjAddr: 0x470C, symBinAddr: 0x10001374C, symSize: 0x60 }
  - { offset: 0x35427, size: 0x8, addend: 0x0, symName: '__ZN4core3ptr92drop_in_place$LT$core..result..Result$LT$addr2line..line..Lines$C$gimli..read..Error$GT$$GT$17h75873180c89d56d0E', symObjAddr: 0x47E8, symBinAddr: 0x1000137AC, symSize: 0xE4 }
  - { offset: 0x3566D, size: 0x8, addend: 0x0, symName: '__ZN4core3ptr93drop_in_place$LT$core..option..Option$LT$std..backtrace_rs..symbolize..gimli..Mapping$GT$$GT$17h8ea9f8655928f4fcE', symObjAddr: 0x48CC, symBinAddr: 0x100013890, symSize: 0x6C }
  - { offset: 0x3570A, size: 0x8, addend: 0x0, symName: '__ZN4core3ptr95drop_in_place$LT$core..option..IntoIter$LT$std..backtrace_rs..symbolize..gimli..Library$GT$$GT$17he46fad7f279ea952E', symObjAddr: 0x4938, symBinAddr: 0x1000138FC, symSize: 0x5C }
  - { offset: 0x35728, size: 0x8, addend: 0x0, symName: '__ZN4core3ptr95drop_in_place$LT$core..option..IntoIter$LT$std..backtrace_rs..symbolize..gimli..Library$GT$$GT$17he46fad7f279ea952E', symObjAddr: 0x4938, symBinAddr: 0x1000138FC, symSize: 0x5C }
  - { offset: 0x3573D, size: 0x8, addend: 0x0, symName: '__ZN4core3ptr95drop_in_place$LT$core..option..IntoIter$LT$std..backtrace_rs..symbolize..gimli..Library$GT$$GT$17he46fad7f279ea952E', symObjAddr: 0x4938, symBinAddr: 0x1000138FC, symSize: 0x5C }
  - { offset: 0x358A6, size: 0x8, addend: 0x0, symName: '__ZN4core3ptr95drop_in_place$LT$std..io..buffered..linewriter..LineWriter$LT$std..io..stdio..StdoutRaw$GT$$GT$17h3bd57fa990556d59E', symObjAddr: 0x4994, symBinAddr: 0x100013958, symSize: 0xF0 }
  - { offset: 0x383D2, size: 0x8, addend: 0x0, symName: __ZN4core5slice4sort6shared5pivot11median3_rec17h025645fbfb2d8cd1E, symObjAddr: 0x4D90, symBinAddr: 0x100013B58, symSize: 0x134 }
  - { offset: 0x385F9, size: 0x8, addend: 0x0, symName: __ZN4core5slice4sort6shared5pivot11median3_rec17h246a4f2d911688a1E, symObjAddr: 0x4EC4, symBinAddr: 0x100013C8C, symSize: 0xD0 }
  - { offset: 0x386F4, size: 0x8, addend: 0x0, symName: __ZN4core5slice4sort6shared5pivot11median3_rec17h6ce4cdb71517d19eE, symObjAddr: 0x4F94, symBinAddr: 0x100013D5C, symSize: 0xCC }
  - { offset: 0x387EF, size: 0x8, addend: 0x0, symName: __ZN4core5slice4sort6shared5pivot11median3_rec17h6e4fd85017a3f5e4E, symObjAddr: 0x5060, symBinAddr: 0x100013E28, symSize: 0xD0 }
  - { offset: 0x388EA, size: 0x8, addend: 0x0, symName: __ZN4core5slice4sort6shared5pivot11median3_rec17ha3c898ebd570d9a9E, symObjAddr: 0x5130, symBinAddr: 0x100013EF8, symSize: 0xCC }
  - { offset: 0x38A3B, size: 0x8, addend: 0x0, symName: __ZN4core5slice4sort6shared5pivot11median3_rec17hbe3f226301cd071dE, symObjAddr: 0x51FC, symBinAddr: 0x100013FC4, symSize: 0xCC }
  - { offset: 0x38B36, size: 0x8, addend: 0x0, symName: __ZN4core5slice4sort6shared5pivot11median3_rec17hc3d7c76f255c304aE, symObjAddr: 0x52C8, symBinAddr: 0x100014090, symSize: 0xD0 }
  - { offset: 0x38C31, size: 0x8, addend: 0x0, symName: __ZN4core5slice4sort6shared5pivot11median3_rec17heb13e39171436e07E, symObjAddr: 0x5398, symBinAddr: 0x100014160, symSize: 0x11C }
  - { offset: 0x38E07, size: 0x8, addend: 0x0, symName: __ZN4core5slice4sort6shared9smallsort12sort4_stable17h29d5ecfff8d25808E, symObjAddr: 0x54B4, symBinAddr: 0x10001427C, symSize: 0x1B4 }
  - { offset: 0x38FB2, size: 0x8, addend: 0x0, symName: __ZN4core5slice4sort6shared9smallsort12sort4_stable17he2b82e95c0946cc4E, symObjAddr: 0x5668, symBinAddr: 0x100014430, symSize: 0x180 }
  - { offset: 0x393D4, size: 0x8, addend: 0x0, symName: __ZN4core5slice4sort6shared9smallsort12sort8_stable17h40f301b851efa79fE, symObjAddr: 0x57E8, symBinAddr: 0x1000145B0, symSize: 0x2B8 }
  - { offset: 0x3996D, size: 0x8, addend: 0x0, symName: __ZN4core5slice4sort6shared9smallsort18small_sort_general17h8f0f2bfe6ac37bfbE, symObjAddr: 0x5AA0, symBinAddr: 0x100014868, symSize: 0x490 }
  - { offset: 0x3A082, size: 0x8, addend: 0x0, symName: __ZN4core5slice4sort6shared9smallsort18small_sort_general17h9886ba35fa9ddf7bE, symObjAddr: 0x5F30, symBinAddr: 0x100014CF8, symSize: 0x3E0 }
  - { offset: 0x3A59C, size: 0x8, addend: 0x0, symName: __ZN4core5slice4sort6shared9smallsort25insertion_sort_shift_left17h001473db42a80264E, symObjAddr: 0x6310, symBinAddr: 0x1000150D8, symSize: 0xB0 }
  - { offset: 0x3A63F, size: 0x8, addend: 0x0, symName: __ZN4core5slice4sort6shared9smallsort25insertion_sort_shift_left17h1e1ea2c4d7503f74E, symObjAddr: 0x63C0, symBinAddr: 0x100015188, symSize: 0xCC }
  - { offset: 0x3A740, size: 0x8, addend: 0x0, symName: __ZN4core5slice4sort6shared9smallsort25insertion_sort_shift_left17h4c238536f310567cE, symObjAddr: 0x648C, symBinAddr: 0x100015254, symSize: 0xFC }
  - { offset: 0x3A8D7, size: 0x8, addend: 0x0, symName: __ZN4core5slice4sort6shared9smallsort25insertion_sort_shift_left17h5ae8ea909444dc00E, symObjAddr: 0x6588, symBinAddr: 0x100015350, symSize: 0xAC }
  - { offset: 0x3A97A, size: 0x8, addend: 0x0, symName: __ZN4core5slice4sort6shared9smallsort25insertion_sort_shift_left17h677848d84e66ea2aE, symObjAddr: 0x6634, symBinAddr: 0x1000153FC, symSize: 0xA8 }
  - { offset: 0x3AA1D, size: 0x8, addend: 0x0, symName: __ZN4core5slice4sort6shared9smallsort25insertion_sort_shift_left17h753c2c33d7211ceaE, symObjAddr: 0x66DC, symBinAddr: 0x1000154A4, symSize: 0xBC }
  - { offset: 0x3AAC0, size: 0x8, addend: 0x0, symName: __ZN4core5slice4sort6shared9smallsort25insertion_sort_shift_left17hceef73df05978c22E, symObjAddr: 0x6798, symBinAddr: 0x100015560, symSize: 0x90 }
  - { offset: 0x3AB63, size: 0x8, addend: 0x0, symName: __ZN4core5slice4sort6shared9smallsort25insertion_sort_shift_left17hfb494d5f79707c02E, symObjAddr: 0x6828, symBinAddr: 0x1000155F0, symSize: 0xAC }
  - { offset: 0x3AE53, size: 0x8, addend: 0x0, symName: __ZN4core5slice4sort6stable14driftsort_main17h103ff636fd5ab89dE, symObjAddr: 0x68D4, symBinAddr: 0x10001569C, symSize: 0x148 }
  - { offset: 0x3B0F6, size: 0x8, addend: 0x0, symName: __ZN4core5slice4sort6stable14driftsort_main17h1e88dc2727ad5c37E, symObjAddr: 0x6A1C, symBinAddr: 0x1000157E4, symSize: 0x16C }
  - { offset: 0x3B3EF, size: 0x8, addend: 0x0, symName: __ZN4core5slice4sort6stable14driftsort_main17h54d923433181cd8aE, symObjAddr: 0x6B88, symBinAddr: 0x100015950, symSize: 0x16C }
  - { offset: 0x3B6E8, size: 0x8, addend: 0x0, symName: __ZN4core5slice4sort6stable14driftsort_main17h76405073938de01eE, symObjAddr: 0x6CF4, symBinAddr: 0x100015ABC, symSize: 0x148 }
  - { offset: 0x3B98B, size: 0x8, addend: 0x0, symName: __ZN4core5slice4sort6stable14driftsort_main17h9cb82a8482cd4f53E, symObjAddr: 0x6E3C, symBinAddr: 0x100015C04, symSize: 0x148 }
  - { offset: 0x3BC2E, size: 0x8, addend: 0x0, symName: __ZN4core5slice4sort6stable14driftsort_main17hf9ea8a01734384bdE, symObjAddr: 0x6F84, symBinAddr: 0x100015D4C, symSize: 0x148 }
  - { offset: 0x3C040, size: 0x8, addend: 0x0, symName: __ZN4core5slice4sort6stable5drift4sort17h00ab1c6180ac4055E, symObjAddr: 0x70CC, symBinAddr: 0x100015E94, symSize: 0x4E0 }
  - { offset: 0x3C675, size: 0x8, addend: 0x0, symName: __ZN4core5slice4sort6stable5drift4sort17h0aa4aacce1cc6d7cE, symObjAddr: 0x75AC, symBinAddr: 0x100016374, symSize: 0x5E8 }
  - { offset: 0x3CCFD, size: 0x8, addend: 0x0, symName: __ZN4core5slice4sort6stable5drift4sort17h343dbae25f37733bE, symObjAddr: 0x7B94, symBinAddr: 0x10001695C, symSize: 0x538 }
  - { offset: 0x3D3D0, size: 0x8, addend: 0x0, symName: __ZN4core5slice4sort6stable5drift4sort17h4258b1bc2caa3ec0E, symObjAddr: 0x80CC, symBinAddr: 0x100016E94, symSize: 0x6F0 }
  - { offset: 0x3DAA6, size: 0x8, addend: 0x0, symName: __ZN4core5slice4sort6stable5drift4sort17h9cf8228521243839E, symObjAddr: 0x87BC, symBinAddr: 0x100017584, symSize: 0x5E8 }
  - { offset: 0x3E12E, size: 0x8, addend: 0x0, symName: __ZN4core5slice4sort6stable5drift4sort17he5c0348fca8b4ee7E, symObjAddr: 0x8DA4, symBinAddr: 0x100017B6C, symSize: 0x63C }
  - { offset: 0x3E9A6, size: 0x8, addend: 0x0, symName: __ZN4core5slice4sort6stable9quicksort9quicksort17h115e1a8136b6fa84E, symObjAddr: 0x93E0, symBinAddr: 0x1000181A8, symSize: 0x820 }
  - { offset: 0x3F573, size: 0x8, addend: 0x0, symName: __ZN4core5slice4sort6stable9quicksort9quicksort17h270cbea95e7bc0c9E, symObjAddr: 0x9C00, symBinAddr: 0x1000189C8, symSize: 0x73C }
  - { offset: 0x3FC94, size: 0x8, addend: 0x0, symName: __ZN4core5slice4sort6stable9quicksort9quicksort17h3e7b305b5c7976baE, symObjAddr: 0xA33C, symBinAddr: 0x100019104, symSize: 0x6C8 }
  - { offset: 0x40721, size: 0x8, addend: 0x0, symName: __ZN4core5slice4sort6stable9quicksort9quicksort17hc1d95435bd0f54c5E, symObjAddr: 0xAA04, symBinAddr: 0x1000197CC, symSize: 0x828 }
  - { offset: 0x417E2, size: 0x8, addend: 0x0, symName: __ZN4core5slice4sort6stable9quicksort9quicksort17hcf4fb219382f768bE, symObjAddr: 0xB22C, symBinAddr: 0x100019FF4, symSize: 0x7FC }
  - { offset: 0x423AF, size: 0x8, addend: 0x0, symName: __ZN4core5slice4sort6stable9quicksort9quicksort17hfd59b4f11a472dd5E, symObjAddr: 0xBA28, symBinAddr: 0x10001A7F0, symSize: 0x6D0 }
  - { offset: 0x42E77, size: 0x8, addend: 0x0, symName: __ZN4core5slice4sort8unstable7ipnsort17h519db9bb88c7d2c0E, symObjAddr: 0xC0F8, symBinAddr: 0x10001AEC0, symSize: 0x1E4 }
  - { offset: 0x42F8E, size: 0x8, addend: 0x0, symName: __ZN4core5slice4sort8unstable7ipnsort17hc49a474c49f61d9aE, symObjAddr: 0xC2DC, symBinAddr: 0x10001B0A4, symSize: 0x290 }
  - { offset: 0x43237, size: 0x8, addend: 0x0, symName: __ZN4core5slice4sort8unstable8heapsort8heapsort17h6b7b52018c9f5da0E, symObjAddr: 0xC56C, symBinAddr: 0x10001B334, symSize: 0x10C }
  - { offset: 0x4343E, size: 0x8, addend: 0x0, symName: __ZN4core5slice4sort8unstable8heapsort8heapsort17h719a9553e129d672E, symObjAddr: 0xC678, symBinAddr: 0x10001B440, symSize: 0x160 }
  - { offset: 0x437DC, size: 0x8, addend: 0x0, symName: __ZN4core5slice4sort8unstable9quicksort9quicksort17h96e7db41672c501eE, symObjAddr: 0xC7D8, symBinAddr: 0x10001B5A0, symSize: 0x448 }
  - { offset: 0x44092, size: 0x8, addend: 0x0, symName: __ZN4core5slice4sort8unstable9quicksort9quicksort17ha039472c97b018d8E, symObjAddr: 0xCC20, symBinAddr: 0x10001B9E8, symSize: 0x5BC }
  - { offset: 0x44DC4, size: 0x8, addend: 0x0, symName: '__ZN36_$LT$T$u20$as$u20$core..any..Any$GT$7type_id17h225d92188c8db6c3E', symObjAddr: 0x13C, symBinAddr: 0x100010B90, symSize: 0x30 }
  - { offset: 0x44DDE, size: 0x8, addend: 0x0, symName: '__ZN36_$LT$T$u20$as$u20$core..any..Any$GT$7type_id17h22a55d7ebb819ea6E', symObjAddr: 0x16C, symBinAddr: 0x100010BC0, symSize: 0x30 }
  - { offset: 0x44E4C, size: 0x8, addend: 0x0, symName: '__ZN42_$LT$$RF$T$u20$as$u20$core..fmt..Debug$GT$3fmt17h229631da8bdd67acE', symObjAddr: 0x464, symBinAddr: 0x100010BF0, symSize: 0x1C }
  - { offset: 0x44E60, size: 0x8, addend: 0x0, symName: '__ZN42_$LT$$RF$T$u20$as$u20$core..fmt..Debug$GT$3fmt17h45300256e973f494E', symObjAddr: 0x4F8, symBinAddr: 0x100010C0C, symSize: 0x30 }
  - { offset: 0x44EA6, size: 0x8, addend: 0x0, symName: '__ZN42_$LT$$RF$T$u20$as$u20$core..fmt..Debug$GT$3fmt17h6cf282856d53ef8fE', symObjAddr: 0x66C, symBinAddr: 0x100010C3C, symSize: 0x74 }
  - { offset: 0x44FE8, size: 0x8, addend: 0x0, symName: '__ZN42_$LT$$RF$T$u20$as$u20$core..fmt..Debug$GT$3fmt17h832369a0cde054d2E', symObjAddr: 0x77C, symBinAddr: 0x100010CB0, symSize: 0x30 }
  - { offset: 0x4503C, size: 0x8, addend: 0x0, symName: '__ZN42_$LT$$RF$T$u20$as$u20$core..fmt..Debug$GT$3fmt17h8bbb2abac655b284E', symObjAddr: 0x7AC, symBinAddr: 0x100010CE0, symSize: 0x9C }
  - { offset: 0x450E6, size: 0x8, addend: 0x0, symName: '__ZN42_$LT$$RF$T$u20$as$u20$core..fmt..Debug$GT$3fmt17h99ba184c1a5db1eaE', symObjAddr: 0x91C, symBinAddr: 0x100010D7C, symSize: 0x1C }
  - { offset: 0x45125, size: 0x8, addend: 0x0, symName: '__ZN42_$LT$$RF$T$u20$as$u20$core..fmt..Debug$GT$3fmt17h9e2071203f91d82eE', symObjAddr: 0x938, symBinAddr: 0x100010D98, symSize: 0x74 }
  - { offset: 0x451E4, size: 0x8, addend: 0x0, symName: '__ZN42_$LT$$RF$T$u20$as$u20$core..fmt..Debug$GT$3fmt17hc3e2ad6268e8985cE', symObjAddr: 0xB50, symBinAddr: 0x100010E0C, symSize: 0x20 }
  - { offset: 0x4529A, size: 0x8, addend: 0x0, symName: '__ZN4core3fmt3num50_$LT$impl$u20$core..fmt..Debug$u20$for$u20$i32$GT$3fmt17h15c50277390862aeE', symObjAddr: 0xCF0, symBinAddr: 0x100010EB0, symSize: 0x2C }
  - { offset: 0x452C9, size: 0x8, addend: 0x0, symName: '__ZN4core3fmt3num52_$LT$impl$u20$core..fmt..Debug$u20$for$u20$usize$GT$3fmt17h6def11b803266407E', symObjAddr: 0xDA0, symBinAddr: 0x100010EDC, symSize: 0x2C }
  - { offset: 0x45348, size: 0x8, addend: 0x0, symName: '__ZN44_$LT$$RF$T$u20$as$u20$core..fmt..Display$GT$3fmt17h3bfca5eae23b0d69E', symObjAddr: 0xC20, symBinAddr: 0x100010E2C, symSize: 0x1C }
  - { offset: 0x45363, size: 0x8, addend: 0x0, symName: '__ZN44_$LT$$RF$T$u20$as$u20$core..fmt..Display$GT$3fmt17ha43e2829162aef39E', symObjAddr: 0xC3C, symBinAddr: 0x100010E48, symSize: 0x68 }
  - { offset: 0x457AE, size: 0x8, addend: 0x0, symName: __ZN4core3fmt5Write10write_char17h2bd2da6422df0c04E, symObjAddr: 0xDCC, symBinAddr: 0x100010F08, symSize: 0x128 }
  - { offset: 0x45946, size: 0x8, addend: 0x0, symName: __ZN4core3fmt5Write10write_char17h375232e784da95c3E, symObjAddr: 0xEF4, symBinAddr: 0x100011030, symSize: 0x174 }
  - { offset: 0x45B48, size: 0x8, addend: 0x0, symName: __ZN4core3fmt5Write10write_char17h5fd94b4a6a085facE, symObjAddr: 0x11E8, symBinAddr: 0x1000111A4, symSize: 0x140 }
  - { offset: 0x45BAE, size: 0x8, addend: 0x0, symName: __ZN4core3fmt5Write10write_char17h7453f2c039370a9dE, symObjAddr: 0x1328, symBinAddr: 0x1000112E4, symSize: 0x180 }
  - { offset: 0x45D9A, size: 0x8, addend: 0x0, symName: __ZN4core3fmt5Write9write_fmt17h2a0fceba8367f855E, symObjAddr: 0x1620, symBinAddr: 0x100011464, symSize: 0x1C }
  - { offset: 0x45DC9, size: 0x8, addend: 0x0, symName: __ZN4core3fmt5Write9write_fmt17h7b0eee5bb9fc5859E, symObjAddr: 0x163C, symBinAddr: 0x100011480, symSize: 0x1C }
  - { offset: 0x45DF8, size: 0x8, addend: 0x0, symName: __ZN4core3fmt5Write9write_fmt17hb212afec46fd02ecE, symObjAddr: 0x1658, symBinAddr: 0x10001149C, symSize: 0x1C }
  - { offset: 0x45E27, size: 0x8, addend: 0x0, symName: __ZN4core3fmt5Write9write_fmt17hbad323a678cb2207E, symObjAddr: 0x1674, symBinAddr: 0x1000114B8, symSize: 0x1C }
  - { offset: 0x45E56, size: 0x8, addend: 0x0, symName: __ZN4core3fmt5Write9write_fmt17he153d8ed26875afeE, symObjAddr: 0x1690, symBinAddr: 0x1000114D4, symSize: 0x1C }
  - { offset: 0x45EB3, size: 0x8, addend: 0x0, symName: '__ZN50_$LT$$BP$mut$u20$T$u20$as$u20$core..fmt..Debug$GT$3fmt17he39465caf33bcc4eE', symObjAddr: 0xD258, symBinAddr: 0x10001BFA4, symSize: 0x14 }
  - { offset: 0x45F00, size: 0x8, addend: 0x0, symName: '__ZN52_$LT$$RF$mut$u20$T$u20$as$u20$core..fmt..Display$GT$3fmt17hc6db9c4561bb0640E', symObjAddr: 0xD2E0, symBinAddr: 0x10001BFB8, symSize: 0x1C }
  - { offset: 0x46483, size: 0x8, addend: 0x0, symName: '__ZN70_$LT$core..num..error..TryFromIntError$u20$as$u20$core..fmt..Debug$GT$3fmt17heb63bc146d788e8fE', symObjAddr: 0x19870, symBinAddr: 0x1000268DC, symSize: 0x40 }
  - { offset: 0x46629, size: 0x8, addend: 0x0, symName: '__ZN4core5array69_$LT$impl$u20$core..fmt..Debug$u20$for$u20$$u5b$T$u3b$$u20$N$u5d$$GT$3fmt17h705a2aa453ffacd4E', symObjAddr: 0x4BD8, symBinAddr: 0x100013A48, symSize: 0xFC }
  - { offset: 0x46B4C, size: 0x8, addend: 0x0, symName: '__ZN55_$LT$$RF$str$u20$as$u20$core..str..pattern..Pattern$GT$15is_contained_in17h07538af93eae73f4E', symObjAddr: 0xD2FC, symBinAddr: 0x10001BFD4, symSize: 0x3BC }
  - { offset: 0x46F6B, size: 0x8, addend: 0x0, symName: __ZN4core5panic12PanicPayload6as_str17h5cdc46f655586ed2E, symObjAddr: 0x4D7C, symBinAddr: 0x100013B44, symSize: 0x14 }
  - { offset: 0x48004, size: 0x8, addend: 0x0, symName: '__ZN4core3ops8function6FnOnce40call_once$u7b$$u7b$vtable.shim$u7d$$u7d$17h372dd670162a11a3E', symObjAddr: 0x1714, symBinAddr: 0x1000114F0, symSize: 0x18 }
  - { offset: 0x48055, size: 0x8, addend: 0x0, symName: '__ZN4core3ops8function6FnOnce40call_once$u7b$$u7b$vtable.shim$u7d$$u7d$17h49be7b3161c92e51E', symObjAddr: 0x172C, symBinAddr: 0x100011508, symSize: 0x28 }
  - { offset: 0x48091, size: 0x8, addend: 0x0, symName: '__ZN4core3ops8function6FnOnce40call_once$u7b$$u7b$vtable.shim$u7d$$u7d$17h4dbfbb5401248555E', symObjAddr: 0x1754, symBinAddr: 0x100011530, symSize: 0xA4 }
  - { offset: 0x481D7, size: 0x8, addend: 0x0, symName: '__ZN4core3ops8function6FnOnce40call_once$u7b$$u7b$vtable.shim$u7d$$u7d$17h59664865ad50834bE', symObjAddr: 0x17F8, symBinAddr: 0x1000115D4, symSize: 0x10 }
  - { offset: 0x48213, size: 0x8, addend: 0x0, symName: '__ZN4core3ops8function6FnOnce40call_once$u7b$$u7b$vtable.shim$u7d$$u7d$17h5dd18c650d3d28d5E', symObjAddr: 0x18B8, symBinAddr: 0x1000115E4, symSize: 0x80 }
  - { offset: 0x483A8, size: 0x8, addend: 0x0, symName: '__ZN4core3ops8function6FnOnce40call_once$u7b$$u7b$vtable.shim$u7d$$u7d$17hb8f0a3a311886dd1E', symObjAddr: 0x194C, symBinAddr: 0x100011664, symSize: 0x18 }
  - { offset: 0x483F9, size: 0x8, addend: 0x0, symName: '__ZN4core3ops8function6FnOnce40call_once$u7b$$u7b$vtable.shim$u7d$$u7d$17hc37bdb1ed22c5dd7E', symObjAddr: 0x19E0, symBinAddr: 0x10001167C, symSize: 0x10 }
  - { offset: 0x48435, size: 0x8, addend: 0x0, symName: '__ZN4core3ops8function6FnOnce40call_once$u7b$$u7b$vtable.shim$u7d$$u7d$17heb56308df1374649E', symObjAddr: 0x19F0, symBinAddr: 0x10001168C, symSize: 0x60 }
  - { offset: 0x48537, size: 0x8, addend: 0x0, symName: __ZN4core3ops8function6FnOnce9call_once17he5d2535e31b739dcE, symObjAddr: 0x1A78, symBinAddr: 0x1000116EC, symSize: 0x44 }
  - { offset: 0x4AE68, size: 0x8, addend: 0x0, symName: '__ZN4core4cell4once17OnceCell$LT$T$GT$8try_init17he4193c4098c349bdE', symObjAddr: 0x4A84, symBinAddr: 0x10004B8E8, symSize: 0x154 }
  - { offset: 0x4B34A, size: 0x8, addend: 0x0, symName: __ZN4core9panicking13assert_failed17h5ef480159103c8ebE, symObjAddr: 0xD1DC, symBinAddr: 0x10004BA3C, symSize: 0x34 }
  - { offset: 0x4B365, size: 0x8, addend: 0x0, symName: __ZN4core9panicking13assert_failed17he664f25a4eeebf5cE, symObjAddr: 0xD234, symBinAddr: 0x10004BA70, symSize: 0x24 }
  - { offset: 0x4B7E8, size: 0x8, addend: 0x0, symName: __ZN3std9panicking11panic_count8increase17h1d24b79d4790a8a8E, symObjAddr: 0x3A9E8, symBinAddr: 0x100031C3C, symSize: 0x80 }
  - { offset: 0x4B8DF, size: 0x8, addend: 0x0, symName: __ZN3std9panicking11panic_count17is_zero_slow_path17hbb753c2ecca816a8E, symObjAddr: 0x3AB00, symBinAddr: 0x10004C2B8, symSize: 0x2C }
  - { offset: 0x4BA15, size: 0x8, addend: 0x0, symName: ___rust_drop_panic, symObjAddr: 0x39FEC, symBinAddr: 0x1000314B4, symSize: 0xB8 }
  - { offset: 0x4BC07, size: 0x8, addend: 0x0, symName: ___rust_foreign_exception, symObjAddr: 0x3A0A4, symBinAddr: 0x10003156C, symSize: 0xB8 }
  - { offset: 0x4BDF9, size: 0x8, addend: 0x0, symName: __ZN3std9panicking12default_hook17ha0b223ccc4379930E, symObjAddr: 0x3A3D0, symBinAddr: 0x100031624, symSize: 0x1EC }
  - { offset: 0x4C09A, size: 0x8, addend: 0x0, symName: '__ZN3std9panicking12default_hook28_$u7b$$u7b$closure$u7d$$u7d$17h5c3a234feebd11a5E', symObjAddr: 0x3A5BC, symBinAddr: 0x100031810, symSize: 0x1A8 }
  - { offset: 0x4C27E, size: 0x8, addend: 0x0, symName: '__ZN3std9panicking12default_hook28_$u7b$$u7b$closure$u7d$$u7d$28_$u7b$$u7b$closure$u7d$$u7d$17h2cb359aea37a8eccE', symObjAddr: 0x3A764, symBinAddr: 0x1000319B8, symSize: 0x284 }
  - { offset: 0x4C6F4, size: 0x8, addend: 0x0, symName: _rust_begin_unwind, symObjAddr: 0x3AB80, symBinAddr: 0x100031CBC, symSize: 0x20 }
  - { offset: 0x4C75D, size: 0x8, addend: 0x0, symName: '__ZN102_$LT$std..panicking..begin_panic_handler..FormatStringPayload$u20$as$u20$core..panic..PanicPayload$GT$8take_box17hf9936339f9bb3e6eE', symObjAddr: 0x3ABA0, symBinAddr: 0x100031CDC, symSize: 0x110 }
  - { offset: 0x4C9F1, size: 0x8, addend: 0x0, symName: '__ZN102_$LT$std..panicking..begin_panic_handler..FormatStringPayload$u20$as$u20$core..panic..PanicPayload$GT$3get17h671f5c789103ccc6E', symObjAddr: 0x3ACB0, symBinAddr: 0x100031DEC, symSize: 0xB0 }
  - { offset: 0x4CB2A, size: 0x8, addend: 0x0, symName: '__ZN95_$LT$std..panicking..begin_panic_handler..FormatStringPayload$u20$as$u20$core..fmt..Display$GT$3fmt17h1a7e141a9fd2e841E', symObjAddr: 0x3AD60, symBinAddr: 0x100031E9C, symSize: 0x5C }
  - { offset: 0x4CC27, size: 0x8, addend: 0x0, symName: '__ZN99_$LT$std..panicking..begin_panic_handler..StaticStrPayload$u20$as$u20$core..panic..PanicPayload$GT$8take_box17hfde794f38dfdff84E', symObjAddr: 0x3ADBC, symBinAddr: 0x100031EF8, symSize: 0x50 }
  - { offset: 0x4CC9E, size: 0x8, addend: 0x0, symName: '__ZN99_$LT$std..panicking..begin_panic_handler..StaticStrPayload$u20$as$u20$core..panic..PanicPayload$GT$3get17h40c5dcbca42c5d43E', symObjAddr: 0x3AE0C, symBinAddr: 0x100031F48, symSize: 0x18 }
  - { offset: 0x4CCB9, size: 0x8, addend: 0x0, symName: '__ZN99_$LT$std..panicking..begin_panic_handler..StaticStrPayload$u20$as$u20$core..panic..PanicPayload$GT$6as_str17h36252a21ddc56c9bE', symObjAddr: 0x3AE24, symBinAddr: 0x100031F60, symSize: 0x18 }
  - { offset: 0x4CCDA, size: 0x8, addend: 0x0, symName: '__ZN92_$LT$std..panicking..begin_panic_handler..StaticStrPayload$u20$as$u20$core..fmt..Display$GT$3fmt17hd84ef799566d4562E', symObjAddr: 0x3AE3C, symBinAddr: 0x100031F78, symSize: 0x1C }
  - { offset: 0x4CCF6, size: 0x8, addend: 0x0, symName: '__ZN3std9panicking19begin_panic_handler28_$u7b$$u7b$closure$u7d$$u7d$17hcc8f653f753c0254E', symObjAddr: 0x3AE58, symBinAddr: 0x100031F94, symSize: 0xC4 }
  - { offset: 0x4CE5E, size: 0x8, addend: 0x0, symName: __ZN3std9panicking14payload_as_str17h326c21158c3ccbd7E, symObjAddr: 0x3B008, symBinAddr: 0x100032058, symSize: 0xB0 }
  - { offset: 0x4CF42, size: 0x8, addend: 0x0, symName: __ZN3std9panicking20rust_panic_with_hook17h203f96c93e7ac62dE, symObjAddr: 0x3B0B8, symBinAddr: 0x100032108, symSize: 0x3F8 }
  - { offset: 0x4D755, size: 0x8, addend: 0x0, symName: _rust_panic, symObjAddr: 0x3B5E4, symBinAddr: 0x100032500, symSize: 0x60 }
  - { offset: 0x4D79B, size: 0x8, addend: 0x0, symName: __ZN3std7process7Command6output17h173f2f9f8e9cb0e1E, symObjAddr: 0x35188, symBinAddr: 0x100030280, symSize: 0x2FC }
  - { offset: 0x4DD6D, size: 0x8, addend: 0x0, symName: __ZN3std7process5abort17h5bdab09773b2c592E, symObjAddr: 0x35D9C, symBinAddr: 0x10004BEE8, symSize: 0xC }
  - { offset: 0x4DDFB, size: 0x8, addend: 0x0, symName: __ZN3std4path4Path13_strip_prefix17h55294dff41b26308E, symObjAddr: 0x33B38, symBinAddr: 0x10002FEB8, symSize: 0x21C }
  - { offset: 0x4DF3B, size: 0x8, addend: 0x0, symName: __ZN3std4path4Path5_join17h516bc57fe1e4225dE, symObjAddr: 0x34358, symBinAddr: 0x1000300D4, symSize: 0x1AC }
  - { offset: 0x4E4E3, size: 0x8, addend: 0x0, symName: __ZN3std4path10Components15len_before_body17ha7ee2271a8a6c6d9E, symObjAddr: 0x31DBC, symBinAddr: 0x10002F070, symSize: 0x188 }
  - { offset: 0x4E4FA, size: 0x8, addend: 0x0, symName: __ZN3std4path10Components15len_before_body17ha7ee2271a8a6c6d9E, symObjAddr: 0x31DBC, symBinAddr: 0x10002F070, symSize: 0x188 }
  - { offset: 0x4E50F, size: 0x8, addend: 0x0, symName: __ZN3std4path10Components15len_before_body17ha7ee2271a8a6c6d9E, symObjAddr: 0x31DBC, symBinAddr: 0x10002F070, symSize: 0x188 }
  - { offset: 0x4E6F1, size: 0x8, addend: 0x0, symName: __ZN3std4path10Components7as_path17h6e25608fa8cb9557E, symObjAddr: 0x31F44, symBinAddr: 0x10002F1F8, symSize: 0x530 }
  - { offset: 0x4EBC4, size: 0x8, addend: 0x0, symName: __ZN3std4path10Components25parse_next_component_back17h5239b6f3b65d70c8E, symObjAddr: 0x32474, symBinAddr: 0x10002F728, symSize: 0x120 }
  - { offset: 0x4EDCF, size: 0x8, addend: 0x0, symName: '__ZN80_$LT$std..path..Components$u20$as$u20$core..iter..traits..iterator..Iterator$GT$4next17h6e8b0f281526c929E', symObjAddr: 0x3272C, symBinAddr: 0x10002F848, symSize: 0x340 }
  - { offset: 0x4F11E, size: 0x8, addend: 0x0, symName: '__ZN95_$LT$std..path..Components$u20$as$u20$core..iter..traits..double_ended..DoubleEndedIterator$GT$9next_back17h15500b5b5dde7decE', symObjAddr: 0x32A6C, symBinAddr: 0x10002FB88, symSize: 0x330 }
  - { offset: 0x4F2D5, size: 0x8, addend: 0x0, symName: '__ZN61_$LT$std..path..Component$u20$as$u20$core..cmp..PartialEq$GT$2eq17h238f4f8a8cc29bb2E', symObjAddr: 0x3C0CC, symBinAddr: 0x100032C48, symSize: 0x138 }
  - { offset: 0x4F49F, size: 0x8, addend: 0x0, symName: __ZN3std3sys3pal4unix2fs4File6open_c17h0a400570de534b0aE, symObjAddr: 0x3D220, symBinAddr: 0x1000331AC, symSize: 0x1B0 }
  - { offset: 0x4F608, size: 0x8, addend: 0x0, symName: '__ZN91_$LT$std..sys..pal..unix..fs..ReadDir$u20$as$u20$core..iter..traits..iterator..Iterator$GT$4next17he1b3299a727d70eaE', symObjAddr: 0x3CD90, symBinAddr: 0x100032FA8, symSize: 0x138 }
  - { offset: 0x4F8AF, size: 0x8, addend: 0x0, symName: '__ZN70_$LT$std..sys..pal..unix..fs..Dir$u20$as$u20$core..ops..drop..Drop$GT$4drop17h2f7cbb54b209bd1fE', symObjAddr: 0x3CEC8, symBinAddr: 0x1000330E0, symSize: 0xCC }
  - { offset: 0x4F9A2, size: 0x8, addend: 0x0, symName: __ZN3std3sys3pal4unix2fs7readdir17h52c204b360126013E, symObjAddr: 0x3DAF4, symBinAddr: 0x10003335C, symSize: 0x1A4 }
  - { offset: 0x4FC96, size: 0x8, addend: 0x0, symName: __ZN3std3sys3pal4unix2fd8FileDesc11read_to_end17hb48365a6d7f4162dE, symObjAddr: 0x3C5C8, symBinAddr: 0x100032D80, symSize: 0x228 }
  - { offset: 0x5012B, size: 0x8, addend: 0x0, symName: __ZN3std3sys3pal4unix7process13process_inner7Process4wait17h3c2b205dcceaa54aE, symObjAddr: 0x44A18, symBinAddr: 0x100036324, symSize: 0xA0 }
  - { offset: 0x502C2, size: 0x8, addend: 0x0, symName: __ZN3std3sys3pal4unix7process14process_common7Command3new17h1d046efb69807da0E, symObjAddr: 0x40DB4, symBinAddr: 0x100033D1C, symSize: 0x2C4 }
  - { offset: 0x5082C, size: 0x8, addend: 0x0, symName: __ZN3std3sys3pal4unix7process14process_common7Command3arg17h236ab9fd4e9e458bE, symObjAddr: 0x411AC, symBinAddr: 0x100033FE0, symSize: 0x15C }
  - { offset: 0x50BA5, size: 0x8, addend: 0x0, symName: __ZN3std3sys3pal4unix7process14process_common7Command11capture_env17h73b5aff2a246da54E, symObjAddr: 0x41528, symBinAddr: 0x10003413C, symSize: 0xA9C }
  - { offset: 0x528D0, size: 0x8, addend: 0x0, symName: __ZN3std3sys3pal4unix7process14process_common7Command8setup_io17hcfeddda79479f9dfE, symObjAddr: 0x41FC4, symBinAddr: 0x100034BD8, symSize: 0x2F0 }
  - { offset: 0x52D89, size: 0x8, addend: 0x0, symName: '__ZN3std3sys3pal4unix7process13process_inner71_$LT$impl$u20$std..sys..pal..unix..process..process_common..Command$GT$5spawn17hbb692d0a4a0abbffE', symObjAddr: 0x43CC4, symBinAddr: 0x10003561C, symSize: 0x9A8 }
  - { offset: 0x53FDD, size: 0x8, addend: 0x0, symName: '__ZN3std3sys3pal4unix7process13process_inner71_$LT$impl$u20$std..sys..pal..unix..process..process_common..Command$GT$7do_exec17he847cfd6d5f995b9E', symObjAddr: 0x4466C, symBinAddr: 0x100035FC4, symSize: 0x360 }
  - { offset: 0x5493E, size: 0x8, addend: 0x0, symName: __ZN3std3sys3pal4unix7process14process_common5Stdio14to_child_stdio17ha05e85644a02177cE, symObjAddr: 0x422B4, symBinAddr: 0x100034EC8, symSize: 0x15C }
  - { offset: 0x54B3D, size: 0x8, addend: 0x0, symName: __ZN3std3sys3pal4unix2os5errno17h1e687568046dfc01E, symObjAddr: 0x3FC68, symBinAddr: 0x100033500, symSize: 0x18 }
  - { offset: 0x54B51, size: 0x8, addend: 0x0, symName: __ZN3std3sys3pal4unix2os13env_read_lock17h1370e80127ab09adE, symObjAddr: 0x400EC, symBinAddr: 0x100033518, symSize: 0x2EC }
  - { offset: 0x55201, size: 0x8, addend: 0x0, symName: '__ZN3std3sys3pal4unix2os6getenv28_$u7b$$u7b$closure$u7d$$u7d$17h09d09dd30efbeda3E', symObjAddr: 0x403D8, symBinAddr: 0x100033804, symSize: 0x150 }
  - { offset: 0x55444, size: 0x8, addend: 0x0, symName: '__ZN69_$LT$std..sys..pal..unix..stdio..Stderr$u20$as$u20$std..io..Write$GT$5write17hf7eb28e2e3a5bd7dE', symObjAddr: 0x43178, symBinAddr: 0x1000353B4, symSize: 0x4C }
  - { offset: 0x55505, size: 0x8, addend: 0x0, symName: '__ZN69_$LT$std..sys..pal..unix..stdio..Stderr$u20$as$u20$std..io..Write$GT$14write_vectored17h6899437ee14ad0e1E', symObjAddr: 0x431C4, symBinAddr: 0x100035400, symSize: 0x4C }
  - { offset: 0x555C6, size: 0x8, addend: 0x0, symName: '__ZN69_$LT$std..sys..pal..unix..stdio..Stderr$u20$as$u20$std..io..Write$GT$17is_write_vectored17h9b2366713f7e1db9E', symObjAddr: 0x43210, symBinAddr: 0x10003544C, symSize: 0x14 }
  - { offset: 0x555E0, size: 0x8, addend: 0x0, symName: '__ZN69_$LT$std..sys..pal..unix..stdio..Stderr$u20$as$u20$std..io..Write$GT$5flush17hd9b43cd37b405524E', symObjAddr: 0x43224, symBinAddr: 0x100035460, symSize: 0x14 }
  - { offset: 0x55652, size: 0x8, addend: 0x0, symName: __ZN3std3sys3pal4unix4sync5mutex5Mutex4init17hdf1c4f248d85eb16E, symObjAddr: 0x43238, symBinAddr: 0x100035474, symSize: 0x16C }
  - { offset: 0x55709, size: 0x8, addend: 0x0, symName: __ZN3std3sys3pal4unix4sync5mutex5Mutex4lock4fail17h6819c36a4f036f8cE, symObjAddr: 0x433C0, symBinAddr: 0x10004C33C, symSize: 0xDC }
  - { offset: 0x559C9, size: 0x8, addend: 0x0, symName: __ZN3std3sys3pal4unix14stack_overflow3imp14signal_handler17h2fa8e10590380ab0E, symObjAddr: 0x42C40, symBinAddr: 0x100035024, symSize: 0xB0 }
  - { offset: 0x55A7A, size: 0x8, addend: 0x0, symName: '__ZN3std3sys3pal4unix14stack_overflow3imp14signal_handler28_$u7b$$u7b$closure$u7d$$u7d$17h58562be330c5529fE', symObjAddr: 0x42CF0, symBinAddr: 0x1000350D4, symSize: 0x100 }
  - { offset: 0x55CA0, size: 0x8, addend: 0x0, symName: __ZN3std3sys3pal4unix14stack_overflow3imp12make_handler17ha0e2e74c0ff811adE, symObjAddr: 0x42DF0, symBinAddr: 0x1000351D4, symSize: 0x1E0 }
  - { offset: 0x5604B, size: 0x8, addend: 0x0, symName: __ZN3std3sys3pal4unix4pipe8AnonPipe5write17h9d42360bb4720a56E, symObjAddr: 0x40B14, symBinAddr: 0x100033A7C, symSize: 0x48 }
  - { offset: 0x56113, size: 0x8, addend: 0x0, symName: __ZN3std3sys3pal4unix4pipe9anon_pipe17h3f2ef7b4629c71e8E, symObjAddr: 0x409EC, symBinAddr: 0x100033954, symSize: 0x128 }
  - { offset: 0x56408, size: 0x8, addend: 0x0, symName: __ZN3std3sys3pal4unix4pipe5read217he4ec31afe54221baE, symObjAddr: 0x40B5C, symBinAddr: 0x100033AC4, symSize: 0x258 }
  - { offset: 0x56936, size: 0x8, addend: 0x0, symName: '__ZN3std3sys3pal4unix4weak18DlsymWeak$LT$F$GT$10initialize17h5e388e39dc1ce791E', symObjAddr: 0x3C314, symBinAddr: 0x10004C2E4, symSize: 0x58 }
  - { offset: 0x569B8, size: 0x8, addend: 0x0, symName: __ZN3std3sys3pal4unix17decode_error_kind17h7a8628d240588c97E, symObjAddr: 0x43C48, symBinAddr: 0x1000355E0, symSize: 0x30 }
  - { offset: 0x569D2, size: 0x8, addend: 0x0, symName: __ZN3std3sys3pal4unix14abort_internal17h1f437a045e84c0acE, symObjAddr: 0x43C78, symBinAddr: 0x100035610, symSize: 0xC }
  - { offset: 0x56A70, size: 0x8, addend: 0x0, symName: __ZN3std3sys3pal6common14small_c_string24run_with_cstr_allocating17h0222687f57b5b8d8E, symObjAddr: 0x378C4, symBinAddr: 0x10004BFC0, symSize: 0xAC }
  - { offset: 0x56BCC, size: 0x8, addend: 0x0, symName: __ZN3std3sys3pal6common14small_c_string24run_with_cstr_allocating17h89545bf18b96ebe8E, symObjAddr: 0x37BC8, symBinAddr: 0x10004C06C, symSize: 0x9C }
  - { offset: 0x56D3B, size: 0x8, addend: 0x0, symName: __ZN3std3sys3pal6common14small_c_string24run_with_cstr_allocating17hf540475ca51d3e7bE, symObjAddr: 0x37DE8, symBinAddr: 0x10004C108, symSize: 0xC4 }
  - { offset: 0x56F71, size: 0x8, addend: 0x0, symName: __ZN3std3sys6os_str5bytes3Buf11into_string17h29e1c4bef11bc213E, symObjAddr: 0x467B0, symBinAddr: 0x1000367FC, symSize: 0xA0 }
  - { offset: 0x5707B, size: 0x8, addend: 0x0, symName: __ZN3std3sys6os_str5bytes5Slice8to_owned17hc513e25113f5e8a9E, symObjAddr: 0x46A14, symBinAddr: 0x10003689C, symSize: 0x98 }
  - { offset: 0x571B2, size: 0x8, addend: 0x0, symName: '__ZN69_$LT$std..sys..os_str..bytes..Slice$u20$as$u20$core..fmt..Display$GT$3fmt17h9ac75767c8ed01b2E', symObjAddr: 0x466F4, symBinAddr: 0x10003675C, symSize: 0xA0 }
  - { offset: 0x57223, size: 0x8, addend: 0x0, symName: '__ZN3std3sys11personality3gcc14find_eh_action28_$u7b$$u7b$closure$u7d$$u7d$17heb526fe46b317879E', symObjAddr: 0x44DB8, symBinAddr: 0x1000363C4, symSize: 0x18 }
  - { offset: 0x57237, size: 0x8, addend: 0x0, symName: '__ZN3std3sys11personality3gcc14find_eh_action28_$u7b$$u7b$closure$u7d$$u7d$17hdfacf1f5ab590eb6E', symObjAddr: 0x44DD0, symBinAddr: 0x1000363DC, symSize: 0x18 }
  - { offset: 0x57267, size: 0x8, addend: 0x0, symName: _rust_eh_personality, symObjAddr: 0x44DE8, symBinAddr: 0x1000363F4, symSize: 0x368 }
  - { offset: 0x5759C, size: 0x8, addend: 0x0, symName: __ZN3std3sys11personality5dwarf2eh19read_encoded_offset17he9cb5faabb9c188bE, symObjAddr: 0x3801C, symBinAddr: 0x1000308B8, symSize: 0x150 }
  - { offset: 0x576FF, size: 0x8, addend: 0x0, symName: '__ZN3std3sys9backtrace10_print_fmt28_$u7b$$u7b$closure$u7d$$u7d$17h1863ed5b66499a89E', symObjAddr: 0x38458, symBinAddr: 0x100030CF4, symSize: 0x30 }
  - { offset: 0x57728, size: 0x8, addend: 0x0, symName: '__ZN3std3sys9backtrace10_print_fmt28_$u7b$$u7b$closure$u7d$$u7d$17h49125cd88324db11E', symObjAddr: 0x38488, symBinAddr: 0x100030D24, symSize: 0x134 }
  - { offset: 0x5783C, size: 0x8, addend: 0x0, symName: '__ZN3std3sys9backtrace10_print_fmt28_$u7b$$u7b$closure$u7d$$u7d$28_$u7b$$u7b$closure$u7d$$u7d$17heb5be01c54158345E', symObjAddr: 0x385BC, symBinAddr: 0x100030E58, symSize: 0x25C }
  - { offset: 0x57A78, size: 0x8, addend: 0x0, symName: __ZN3std3sys9backtrace4lock17h6e02177f0f3558baE, symObjAddr: 0x3816C, symBinAddr: 0x100030A08, symSize: 0x70 }
  - { offset: 0x57BC1, size: 0x8, addend: 0x0, symName: __ZN3std3sys9backtrace13BacktraceLock5print17h115149c0b879e5c3E, symObjAddr: 0x381DC, symBinAddr: 0x100030A78, symSize: 0x54 }
  - { offset: 0x57C0E, size: 0x8, addend: 0x0, symName: '__ZN98_$LT$std..sys..backtrace..BacktraceLock..print..DisplayBacktrace$u20$as$u20$core..fmt..Display$GT$3fmt17h217270392019d164E', symObjAddr: 0x38230, symBinAddr: 0x100030ACC, symSize: 0x228 }
  - { offset: 0x58190, size: 0x8, addend: 0x0, symName: __ZN3std3sys9backtrace26__rust_end_short_backtrace17h911de07218b69a6cE, symObjAddr: 0x38818, symBinAddr: 0x1000310B4, symSize: 0xC }
  - { offset: 0x581AA, size: 0x8, addend: 0x0, symName: __ZN3std3sys9backtrace15output_filename17h988a0b5399b264d6E, symObjAddr: 0x38830, symBinAddr: 0x1000310C0, symSize: 0xFC }
  - { offset: 0x5836E, size: 0x8, addend: 0x0, symName: '__ZN3std3sys4sync8once_box16OnceBox$LT$T$GT$10initialize17h482967fb77aa636aE', symObjAddr: 0x3899C, symBinAddr: 0x10004C1CC, symSize: 0xEC }
  - { offset: 0x58657, size: 0x8, addend: 0x0, symName: __ZN3std3sys4sync6rwlock5queue6RwLock21read_unlock_contended17ha1da939695eb68a4E, symObjAddr: 0x479D0, symBinAddr: 0x10004C578, symSize: 0x50 }
  - { offset: 0x587C7, size: 0x8, addend: 0x0, symName: __ZN3std3sys4sync6rwlock5queue6RwLock16unlock_contended17hb1bda0f6c9583d94E, symObjAddr: 0x47A20, symBinAddr: 0x10004C5C8, symSize: 0x50 }
  - { offset: 0x588A3, size: 0x8, addend: 0x0, symName: __ZN3std3sys4sync6rwlock5queue6RwLock12unlock_queue17h1e38a16940d3a0e6E, symObjAddr: 0x47B84, symBinAddr: 0x100036BE0, symSize: 0x1D8 }
  - { offset: 0x58FF0, size: 0x8, addend: 0x0, symName: __ZN3std3sys4sync6rwlock5queue9read_lock17h02feed94edb2ee18E, symObjAddr: 0x47710, symBinAddr: 0x100036BB4, symSize: 0x2C }
  - { offset: 0x590CB, size: 0x8, addend: 0x0, symName: __ZN3std3sys4sync4once5queue4Once4call17hc1cbcad9bb87275cE, symObjAddr: 0x47310, symBinAddr: 0x10004C418, symSize: 0x160 }
  - { offset: 0x591F3, size: 0x8, addend: 0x0, symName: __ZN3std3sys4sync4once5queue4wait17h58ee39f231bfccb9E, symObjAddr: 0x47470, symBinAddr: 0x100036934, symSize: 0x198 }
  - { offset: 0x5976F, size: 0x8, addend: 0x0, symName: '__ZN82_$LT$std..sys..sync..once..queue..WaiterQueue$u20$as$u20$core..ops..drop..Drop$GT$4drop17h45f863b67fd27f71E', symObjAddr: 0x47608, symBinAddr: 0x100036ACC, symSize: 0xE8 }
  - { offset: 0x599CD, size: 0x8, addend: 0x0, symName: '__ZN3std3sys12thread_local6native4lazy20Storage$LT$T$C$D$GT$10initialize17h61fa4697cd48c6f6E', symObjAddr: 0x47E24, symBinAddr: 0x10004C618, symSize: 0xC0 }
  - { offset: 0x59BC3, size: 0x8, addend: 0x0, symName: __ZN3std3sys12thread_local6native4lazy7destroy17h26d4ae6c1bac34fbE, symObjAddr: 0x47EE4, symBinAddr: 0x100036DB8, symSize: 0x54 }
  - { offset: 0x59D31, size: 0x8, addend: 0x0, symName: __ZN3std3sys12thread_local5guard5apple6enable9run_dtors17h15022dedc81e5063E, symObjAddr: 0x4807C, symBinAddr: 0x100036F50, symSize: 0x13C }
  - { offset: 0x5A28B, size: 0x8, addend: 0x0, symName: __ZN3std3sys12thread_local11destructors4list8register17h51fb0c77f8b321e6E, symObjAddr: 0x47F38, symBinAddr: 0x100036E0C, symSize: 0x144 }
  - { offset: 0x5A94A, size: 0x8, addend: 0x0, symName: '__ZN80_$LT$std..io..Write..write_fmt..Adapter$LT$T$GT$$u20$as$u20$core..fmt..Write$GT$9write_str17h0698cdf4cfa713e8E', symObjAddr: 0x2D538, symBinAddr: 0x10002ECEC, symSize: 0xD8 }
  - { offset: 0x5AA9D, size: 0x8, addend: 0x0, symName: '__ZN80_$LT$std..io..Write..write_fmt..Adapter$LT$T$GT$$u20$as$u20$core..fmt..Write$GT$9write_str17h1c13ca75cd138050E', symObjAddr: 0x2D610, symBinAddr: 0x10002EDC4, symSize: 0x50 }
  - { offset: 0x5AAC7, size: 0x8, addend: 0x0, symName: '__ZN80_$LT$std..io..Write..write_fmt..Adapter$LT$T$GT$$u20$as$u20$core..fmt..Write$GT$9write_str17h58a4ca428f95c900E', symObjAddr: 0x2D738, symBinAddr: 0x10002EE14, symSize: 0xD0 }
  - { offset: 0x5AC7D, size: 0x8, addend: 0x0, symName: '__ZN80_$LT$std..io..Write..write_fmt..Adapter$LT$T$GT$$u20$as$u20$core..fmt..Write$GT$9write_str17h6eb5a36b1832c95eE', symObjAddr: 0x2D808, symBinAddr: 0x10002EEE4, symSize: 0x80 }
  - { offset: 0x5AE03, size: 0x8, addend: 0x0, symName: __ZN3std2io5Write9write_all17h87bc481c06d6b6c7E, symObjAddr: 0x2CC10, symBinAddr: 0x10002E3C4, symSize: 0xB8 }
  - { offset: 0x5AF33, size: 0x8, addend: 0x0, symName: __ZN3std2io5Write18write_all_vectored17h0d3be626dc41da2eE, symObjAddr: 0x2CCC8, symBinAddr: 0x10002E47C, symSize: 0x264 }
  - { offset: 0x5B3DB, size: 0x8, addend: 0x0, symName: __ZN3std2io5Write18write_all_vectored17h0f11e99192ac0da3E, symObjAddr: 0x2CF2C, symBinAddr: 0x10002E6E0, symSize: 0x2A0 }
  - { offset: 0x5B879, size: 0x8, addend: 0x0, symName: __ZN3std2io5Write9write_fmt17h6564db7565ec4928E, symObjAddr: 0x2D1CC, symBinAddr: 0x10002E980, symSize: 0x124 }
  - { offset: 0x5BA8D, size: 0x8, addend: 0x0, symName: __ZN3std2io5Write9write_fmt17h6e471a53cbe47e27E, symObjAddr: 0x2D2F0, symBinAddr: 0x10002EAA4, symSize: 0x124 }
  - { offset: 0x5BCA1, size: 0x8, addend: 0x0, symName: __ZN3std2io5Write9write_fmt17hb32eaafcfd249a19E, symObjAddr: 0x2D414, symBinAddr: 0x10002EBC8, symSize: 0x124 }
  - { offset: 0x5BECE, size: 0x8, addend: 0x0, symName: '__ZN3std2io5impls74_$LT$impl$u20$std..io..Write$u20$for$u20$alloc..vec..Vec$LT$u8$C$A$GT$$GT$5write17hf1a6df91b3a9c331E', symObjAddr: 0x2731C, symBinAddr: 0x10002D758, symSize: 0x84 }
  - { offset: 0x5C013, size: 0x8, addend: 0x0, symName: '__ZN3std2io5impls74_$LT$impl$u20$std..io..Write$u20$for$u20$alloc..vec..Vec$LT$u8$C$A$GT$$GT$14write_vectored17h935681c1f031c204E', symObjAddr: 0x273A0, symBinAddr: 0x10002D7DC, symSize: 0x174 }
  - { offset: 0x5C260, size: 0x8, addend: 0x0, symName: '__ZN3std2io5impls74_$LT$impl$u20$std..io..Write$u20$for$u20$alloc..vec..Vec$LT$u8$C$A$GT$$GT$17is_write_vectored17h4055b148f544ec6cE', symObjAddr: 0x27514, symBinAddr: 0x10002D950, symSize: 0x14 }
  - { offset: 0x5C27B, size: 0x8, addend: 0x0, symName: '__ZN3std2io5impls74_$LT$impl$u20$std..io..Write$u20$for$u20$alloc..vec..Vec$LT$u8$C$A$GT$$GT$9write_all17h8667482891c5bc01E', symObjAddr: 0x27528, symBinAddr: 0x10002D964, symSize: 0x80 }
  - { offset: 0x5C3B9, size: 0x8, addend: 0x0, symName: '__ZN3std2io5impls74_$LT$impl$u20$std..io..Write$u20$for$u20$alloc..vec..Vec$LT$u8$C$A$GT$$GT$5flush17h1aa70c4ce0391c44E', symObjAddr: 0x275A8, symBinAddr: 0x10002D9E4, symSize: 0x14 }
  - { offset: 0x5C591, size: 0x8, addend: 0x0, symName: __ZN3std2io5error14repr_bitpacked11decode_repr17h37cbf447dd36b64bE, symObjAddr: 0x26A7C, symBinAddr: 0x10002D24C, symSize: 0x64 }
  - { offset: 0x5C600, size: 0x8, addend: 0x0, symName: '__ZN58_$LT$std..io..error..Error$u20$as$u20$core..fmt..Debug$GT$3fmt17h4ed4286e752207faE', symObjAddr: 0x26AE0, symBinAddr: 0x10002D2B0, symSize: 0x10 }
  - { offset: 0x5C633, size: 0x8, addend: 0x0, symName: '__ZN3std2io5error83_$LT$impl$u20$core..fmt..Debug$u20$for$u20$std..io..error..repr_bitpacked..Repr$GT$3fmt17h65ae83bc7dc9681bE', symObjAddr: 0x26D88, symBinAddr: 0x10002D2C0, symSize: 0x294 }
  - { offset: 0x5C87E, size: 0x8, addend: 0x0, symName: '__ZN60_$LT$std..io..error..Error$u20$as$u20$core..fmt..Display$GT$3fmt17h9bd80ee0c1811a25E', symObjAddr: 0x2701C, symBinAddr: 0x10002D554, symSize: 0x204 }
  - { offset: 0x5CADD, size: 0x8, addend: 0x0, symName: '__ZN62_$LT$std..io..error..ErrorKind$u20$as$u20$core..fmt..Debug$GT$3fmt17h219a5c9d2c7eda43E', symObjAddr: 0x3C098, symBinAddr: 0x100032C14, symSize: 0x34 }
  - { offset: 0x5CB15, size: 0x8, addend: 0x0, symName: '__ZN3std2io8buffered9bufwriter18BufWriter$LT$W$GT$9flush_buf17h4bdccd2184fd8b56E', symObjAddr: 0x25FE4, symBinAddr: 0x10002D048, symSize: 0x204 }
  - { offset: 0x5D0CB, size: 0x8, addend: 0x0, symName: '__ZN3std2io8buffered9bufwriter18BufWriter$LT$W$GT$14write_all_cold17h03d13fe4cf302958E', symObjAddr: 0x26374, symBinAddr: 0x10004BDC0, symSize: 0x128 }
  - { offset: 0x5D4F9, size: 0x8, addend: 0x0, symName: '__ZN61_$LT$$RF$std..io..stdio..Stdout$u20$as$u20$std..io..Write$GT$9write_fmt17h14426c11ecd17a4cE', symObjAddr: 0x2A280, symBinAddr: 0x10002D9F8, symSize: 0x18C }
  - { offset: 0x5D8F3, size: 0x8, addend: 0x0, symName: '__ZN61_$LT$std..io..stdio..StdoutLock$u20$as$u20$std..io..Write$GT$9write_all17hdf550e962fae6ee2E', symObjAddr: 0x2A744, symBinAddr: 0x10002DB84, symSize: 0x268 }
  - { offset: 0x5E0CE, size: 0x8, addend: 0x0, symName: __ZN3std2io5stdio6Stderr4lock17ha6b178440672670eE, symObjAddr: 0x2ACBC, symBinAddr: 0x10002DDEC, symSize: 0xF0 }
  - { offset: 0x5E3BE, size: 0x8, addend: 0x0, symName: __ZN3std2io5stdio22try_set_output_capture17h3c34954bc62c0e61E, symObjAddr: 0x2BA8C, symBinAddr: 0x10002DEDC, symSize: 0xF4 }
  - { offset: 0x5E611, size: 0x8, addend: 0x0, symName: __ZN3std2io5stdio31print_to_buffer_if_capture_used17h604f8acf6a08e2ebE, symObjAddr: 0x2BB80, symBinAddr: 0x10002DFD0, symSize: 0x20C }
  - { offset: 0x5ED1C, size: 0x8, addend: 0x0, symName: __ZN3std2io5stdio6_print17h6200d46cef53dee1E, symObjAddr: 0x2BE5C, symBinAddr: 0x10002E1DC, symSize: 0xE4 }
  - { offset: 0x5EE81, size: 0x8, addend: 0x0, symName: __ZN3std2io19default_read_to_end16small_probe_read17heb774478ee1d979dE, symObjAddr: 0x2CA8C, symBinAddr: 0x10002E2C0, symSize: 0x104 }
  - { offset: 0x5F0BF, size: 0x8, addend: 0x0, symName: '__ZN3std4sync6poison4once4Once15call_once_force28_$u7b$$u7b$closure$u7d$$u7d$17hb663b4fc9d65cdd9E', symObjAddr: 0x36574, symBinAddr: 0x1000307D8, symSize: 0x60 }
  - { offset: 0x5F1A1, size: 0x8, addend: 0x0, symName: '__ZN3std4sync6poison4once4Once15call_once_force28_$u7b$$u7b$closure$u7d$$u7d$17hdc9b4573ce8ff5c2E', symObjAddr: 0x365D4, symBinAddr: 0x100030838, symSize: 0x80 }
  - { offset: 0x5F30F, size: 0x8, addend: 0x0, symName: '__ZN3std4sync6poison4once4Once9call_once28_$u7b$$u7b$closure$u7d$$u7d$17h972e10e961241d2eE', symObjAddr: 0x36114, symBinAddr: 0x10003057C, symSize: 0x25C }
  - { offset: 0x5FD62, size: 0x8, addend: 0x0, symName: '__ZN3std4sync9once_lock17OnceLock$LT$T$GT$10initialize17h5a4e2f750c24f788E', symObjAddr: 0x37008, symBinAddr: 0x10004BEF4, symSize: 0x64 }
  - { offset: 0x5FD8D, size: 0x8, addend: 0x0, symName: '__ZN3std4sync9once_lock17OnceLock$LT$T$GT$10initialize17h5a4e2f750c24f788E', symObjAddr: 0x37008, symBinAddr: 0x10004BEF4, symSize: 0x64 }
  - { offset: 0x5FDA1, size: 0x8, addend: 0x0, symName: '__ZN3std4sync9once_lock17OnceLock$LT$T$GT$10initialize17h5a4e2f750c24f788E', symObjAddr: 0x37008, symBinAddr: 0x10004BEF4, symSize: 0x64 }
  - { offset: 0x5FDB5, size: 0x8, addend: 0x0, symName: '__ZN3std4sync9once_lock17OnceLock$LT$T$GT$10initialize17h5a4e2f750c24f788E', symObjAddr: 0x37008, symBinAddr: 0x10004BEF4, symSize: 0x64 }
  - { offset: 0x5FDCB, size: 0x8, addend: 0x0, symName: '__ZN3std4sync9once_lock17OnceLock$LT$T$GT$10initialize17hde8bf60cb9cf1a08E', symObjAddr: 0x3706C, symBinAddr: 0x10004BF58, symSize: 0x68 }
  - { offset: 0x5FDF6, size: 0x8, addend: 0x0, symName: '__ZN3std4sync9once_lock17OnceLock$LT$T$GT$10initialize17hde8bf60cb9cf1a08E', symObjAddr: 0x3706C, symBinAddr: 0x10004BF58, symSize: 0x68 }
  - { offset: 0x5FE0A, size: 0x8, addend: 0x0, symName: '__ZN3std4sync9once_lock17OnceLock$LT$T$GT$10initialize17hde8bf60cb9cf1a08E', symObjAddr: 0x3706C, symBinAddr: 0x10004BF58, symSize: 0x68 }
  - { offset: 0x5FE1E, size: 0x8, addend: 0x0, symName: '__ZN3std4sync9once_lock17OnceLock$LT$T$GT$10initialize17hde8bf60cb9cf1a08E', symObjAddr: 0x3706C, symBinAddr: 0x10004BF58, symSize: 0x68 }
  - { offset: 0x5FF69, size: 0x8, addend: 0x0, symName: __ZN3std2rt19lang_start_internal17h95cf27b851151b9cE, symObjAddr: 0x1EEA4, symBinAddr: 0x10002BD90, symSize: 0x684 }
  - { offset: 0x60B95, size: 0x8, addend: 0x0, symName: __ZN3std12backtrace_rs9symbolize5gimli7Context3new17h596fdfe772dc2bb6E, symObjAddr: 0x482F4, symBinAddr: 0x100037118, symSize: 0x2410 }
  - { offset: 0x64A56, size: 0x8, addend: 0x0, symName: __ZN3std12backtrace_rs9symbolize5gimli7Context11find_frames17h5933b96d93a6487fE, symObjAddr: 0x4A704, symBinAddr: 0x100039528, symSize: 0x37C }
  - { offset: 0x64EEA, size: 0x8, addend: 0x0, symName: __ZN3std12backtrace_rs9symbolize5gimli5macho6Object5parse17h7c99ba302784e02bE, symObjAddr: 0x4D518, symBinAddr: 0x10003C30C, symSize: 0xBD0 }
  - { offset: 0x66DA9, size: 0x8, addend: 0x0, symName: __ZN3std12backtrace_rs9symbolize5gimli5macho6Object7section17h7775decf80db3f1dE, symObjAddr: 0x4E0E8, symBinAddr: 0x10003CEDC, symSize: 0x3A0 }
  - { offset: 0x6727F, size: 0x8, addend: 0x0, symName: __ZN3std12backtrace_rs9symbolize5gimli5macho11find_header17hcafb8c4177e72185E, symObjAddr: 0x4D344, symBinAddr: 0x10003C138, symSize: 0x1D4 }
  - { offset: 0x67982, size: 0x8, addend: 0x0, symName: __ZN3std12backtrace_rs9symbolize5gimli4mmap17h52426abb42b033dbE, symObjAddr: 0x4AA80, symBinAddr: 0x1000398A4, symSize: 0x160 }
  - { offset: 0x67F98, size: 0x8, addend: 0x0, symName: __ZN3std12backtrace_rs9symbolize5gimli7resolve17h4e500df68d74bbd0E, symObjAddr: 0x4ABE0, symBinAddr: 0x100039A04, symSize: 0x2734 }
  - { offset: 0x6DFA3, size: 0x8, addend: 0x0, symName: __ZN3std12backtrace_rs9symbolize6Symbol4name17hfe1d12d8092fe441E, symObjAddr: 0x3B724, symBinAddr: 0x100032560, symSize: 0xE4 }
  - { offset: 0x6E0DE, size: 0x8, addend: 0x0, symName: '__ZN79_$LT$std..backtrace_rs..symbolize..SymbolName$u20$as$u20$core..fmt..Display$GT$3fmt17hebc8fecc1f34ea4cE', symObjAddr: 0x3B948, symBinAddr: 0x100032644, symSize: 0x100 }
  - { offset: 0x6E21C, size: 0x8, addend: 0x0, symName: __ZN3std12backtrace_rs9backtrace9libunwind5trace8trace_fn17h8dbf4a7a3c414c4fE, symObjAddr: 0x482AC, symBinAddr: 0x1000370D0, symSize: 0x48 }
  - { offset: 0x6E2FB, size: 0x8, addend: 0x0, symName: __ZN3std12backtrace_rs5print17BacktraceFrameFmt21print_raw_with_column17h4b2c8f5f934c00c0E, symObjAddr: 0x3BB48, symBinAddr: 0x100032744, symSize: 0x4D0 }
  - { offset: 0x6E5FF, size: 0x8, addend: 0x0, symName: __ZN3std6thread7current16try_with_current17h38cb00b0189d4132E, symObjAddr: 0x1F754, symBinAddr: 0x10002C414, symSize: 0x98 }
  - { offset: 0x6E733, size: 0x8, addend: 0x0, symName: __ZN3std6thread7current12init_current17hb7b435bd17801980E, symObjAddr: 0x1F900, symBinAddr: 0x10004BC0C, symSize: 0x17C }
  - { offset: 0x6EAFF, size: 0x8, addend: 0x0, symName: __ZN3std6thread6Thread3new17h37ed5d6af114daceE, symObjAddr: 0x20814, symBinAddr: 0x10002C5A8, symSize: 0x164 }
  - { offset: 0x6EFCA, size: 0x8, addend: 0x0, symName: '__ZN118_$LT$std..thread..thread_name_string..ThreadNameString$u20$as$u20$core..convert..From$LT$alloc..string..String$GT$$GT$4from17h83ebc56d52812e83E', symObjAddr: 0x20718, symBinAddr: 0x10002C4AC, symSize: 0xFC }
  - { offset: 0x6F1B5, size: 0x8, addend: 0x0, symName: __ZN3std6thread8ThreadId3new9exhausted17h1c0c206286c216f1E, symObjAddr: 0x206E0, symBinAddr: 0x10004BD88, symSize: 0x38 }
  - { offset: 0x6F29E, size: 0x8, addend: 0x0, symName: __ZN3std5panic19get_backtrace_style17hb0947c7d43e173b3E, symObjAddr: 0x31B78, symBinAddr: 0x10002EF64, symSize: 0x10C }
  - { offset: 0x6F2BC, size: 0x8, addend: 0x0, symName: __ZN3std5panic19get_backtrace_style17hb0947c7d43e173b3E, symObjAddr: 0x31B78, symBinAddr: 0x10002EF64, symSize: 0x10C }
  - { offset: 0x6F2D1, size: 0x8, addend: 0x0, symName: __ZN3std5panic19get_backtrace_style17hb0947c7d43e173b3E, symObjAddr: 0x31B78, symBinAddr: 0x10002EF64, symSize: 0x10C }
  - { offset: 0x6F6E5, size: 0x8, addend: 0x0, symName: __ZN3std3env11current_dir17h378d2e00353b8c55E, symObjAddr: 0x21D9C, symBinAddr: 0x10002C70C, symSize: 0x1D0 }
  - { offset: 0x6FA5E, size: 0x8, addend: 0x0, symName: __ZN3std3env7vars_os17h852cf544c003c314E, symObjAddr: 0x21F7C, symBinAddr: 0x10002C8DC, symSize: 0x314 }
  - { offset: 0x700E1, size: 0x8, addend: 0x0, symName: __ZN3std3env4_var17hedb8b309980f1fb0E, symObjAddr: 0x225F0, symBinAddr: 0x10002CBF0, symSize: 0xA8 }
  - { offset: 0x701DD, size: 0x8, addend: 0x0, symName: __ZN3std3env7_var_os17h91cf52b19c1ae9d5E, symObjAddr: 0x22698, symBinAddr: 0x10002CC98, symSize: 0x160 }
  - { offset: 0x704A0, size: 0x8, addend: 0x0, symName: __ZN3std2fs11OpenOptions5_open17h060c4979cd359a16E, symObjAddr: 0x24BC4, symBinAddr: 0x10002CDF8, symSize: 0x250 }
  - { offset: 0x706E7, size: 0x8, addend: 0x0, symName: __ZN3std5alloc24default_alloc_error_hook17h2ab9053c5916c535E, symObjAddr: 0x39CF4, symBinAddr: 0x1000311BC, symSize: 0x13C }
  - { offset: 0x7092A, size: 0x8, addend: 0x0, symName: ___rdl_alloc, symObjAddr: 0x39E30, symBinAddr: 0x1000312F8, symSize: 0x6C }
  - { offset: 0x709A6, size: 0x8, addend: 0x0, symName: ___rdl_dealloc, symObjAddr: 0x39E9C, symBinAddr: 0x100031364, symSize: 0x10 }
  - { offset: 0x709D6, size: 0x8, addend: 0x0, symName: ___rdl_realloc, symObjAddr: 0x39EAC, symBinAddr: 0x100031374, symSize: 0xB0 }
  - { offset: 0x70AA8, size: 0x8, addend: 0x0, symName: ___rdl_alloc_zeroed, symObjAddr: 0x39F5C, symBinAddr: 0x100031424, symSize: 0x90 }
  - { offset: 0x70B46, size: 0x8, addend: 0x0, symName: __ZN3std5alloc8rust_oom17hb46c5aeb63fa3cb5E, symObjAddr: 0x481B8, symBinAddr: 0x10003708C, symSize: 0x2C }
  - { offset: 0x70B95, size: 0x8, addend: 0x0, symName: ___rg_oom, symObjAddr: 0x481E4, symBinAddr: 0x1000370B8, symSize: 0x18 }
  - { offset: 0x70CDC, size: 0x8, addend: 0x0, symName: '__ZN5gimli4read4unit32AttributeValue$LT$R$C$Offset$GT$11udata_value17h2b61cc9b6a98fb32E', symObjAddr: 0x14DE0, symBinAddr: 0x1000222A0, symSize: 0x90 }
  - { offset: 0x70D37, size: 0x8, addend: 0x0, symName: __ZN5gimli4read4unit15parse_attribute17h49f957a62d462029E, symObjAddr: 0x130AC, symBinAddr: 0x10002056C, symSize: 0xF74 }
  - { offset: 0x73A2A, size: 0x8, addend: 0x0, symName: __ZN5gimli4read4unit15skip_attributes17h31562773efeee2f1E, symObjAddr: 0x14020, symBinAddr: 0x1000214E0, symSize: 0x52C }
  - { offset: 0x7444C, size: 0x8, addend: 0x0, symName: '__ZN5gimli4read4unit18Attribute$LT$R$GT$5value17hbc90a819c686a39aE', symObjAddr: 0x1454C, symBinAddr: 0x100021A0C, symSize: 0x5DC }
  - { offset: 0x749F1, size: 0x8, addend: 0x0, symName: '__ZN5gimli4read4unit22EntriesCursor$LT$R$GT$10next_entry17hdf28d3cec3327cb6E', symObjAddr: 0x14B28, symBinAddr: 0x100021FE8, symSize: 0x2B8 }
  - { offset: 0x74FE7, size: 0x8, addend: 0x0, symName: '__ZN5gimli4read4unit33DebugInfoUnitHeadersIter$LT$R$GT$4next17h34712ebaabdffee4E', symObjAddr: 0x14E70, symBinAddr: 0x100022330, symSize: 0x524 }
  - { offset: 0x76120, size: 0x8, addend: 0x0, symName: '__ZN90_$LT$gimli..read..unit..AttributeValue$LT$R$C$Offset$GT$$u20$as$u20$core..clone..Clone$GT$5clone17h20eda0c245e8425dE', symObjAddr: 0x19914, symBinAddr: 0x10002691C, symSize: 0x68 }
  - { offset: 0x76371, size: 0x8, addend: 0x0, symName: __ZN5gimli4read6reader6Reader11read_offset17hb66bf69f998efb74E, symObjAddr: 0x179B8, symBinAddr: 0x100024E78, symSize: 0xBC }
  - { offset: 0x765AD, size: 0x8, addend: 0x0, symName: __ZN5gimli4read6reader6Reader12read_sleb12817hd93e25793436fd15E, symObjAddr: 0x17A74, symBinAddr: 0x100024F34, symSize: 0x21C }
  - { offset: 0x7669D, size: 0x8, addend: 0x0, symName: __ZN5gimli4read6reader6Reader12read_uleb12817ha415c724c08e32b4E, symObjAddr: 0x17C90, symBinAddr: 0x100025150, symSize: 0xB0 }
  - { offset: 0x76753, size: 0x8, addend: 0x0, symName: __ZN5gimli4read6reader6Reader17read_sized_offset17hbf387c98074d1971E, symObjAddr: 0x17D40, symBinAddr: 0x100025200, symSize: 0xEC }
  - { offset: 0x76B66, size: 0x8, addend: 0x0, symName: __ZN5gimli4read4line13parse_file_v517hcd59a31a0bc27fa9E, symObjAddr: 0x11F1C, symBinAddr: 0x10001F3DC, symSize: 0x2B4 }
  - { offset: 0x76CDE, size: 0x8, addend: 0x0, symName: __ZN5gimli4read4line15FileEntryFormat5parse17he68be02eb21a6f6cE, symObjAddr: 0x121D0, symBinAddr: 0x10001F690, symSize: 0x370 }
  - { offset: 0x77505, size: 0x8, addend: 0x0, symName: __ZN5gimli4read4line15parse_attribute17h6dcb28bb0d8f0d55E, symObjAddr: 0x12540, symBinAddr: 0x10001FA00, symSize: 0x86C }
  - { offset: 0x78CA2, size: 0x8, addend: 0x0, symName: __ZN5gimli4read4line18parse_directory_v517h7ed9e48bb2fa518bE, symObjAddr: 0x12DAC, symBinAddr: 0x10002026C, symSize: 0xE8 }
  - { offset: 0x78D33, size: 0x8, addend: 0x0, symName: '__ZN5gimli4read4line27FileEntry$LT$R$C$Offset$GT$5parse17h0cf5e73c1698de2fE', symObjAddr: 0x12E94, symBinAddr: 0x100020354, symSize: 0x218 }
  - { offset: 0x79459, size: 0x8, addend: 0x0, symName: '__ZN5gimli4read5dwarf14Dwarf$LT$R$GT$11attr_string17hc40cc697c7ad324fE', symObjAddr: 0x17104, symBinAddr: 0x1000245C4, symSize: 0x1E8 }
  - { offset: 0x79CA7, size: 0x8, addend: 0x0, symName: '__ZN5gimli4read5dwarf13Unit$LT$R$GT$3new17h9c8abef5d8c50a6dE', symObjAddr: 0x15394, symBinAddr: 0x100022854, symSize: 0x1D70 }
  - { offset: 0x7D8B9, size: 0x8, addend: 0x0, symName: '__ZN5gimli4read5index18UnitIndex$LT$R$GT$5parse17haa9f95b067464b66E', symObjAddr: 0x172EC, symBinAddr: 0x1000247AC, symSize: 0x6CC }
  - { offset: 0x7DE80, size: 0x8, addend: 0x0, symName: '__ZN5gimli4read7aranges30ArangeHeader$LT$R$C$Offset$GT$5parse17h20619b15205da501E', symObjAddr: 0x17E2C, symBinAddr: 0x1000252EC, symSize: 0x2A8 }
  - { offset: 0x7E737, size: 0x8, addend: 0x0, symName: '__ZN5gimli4read8rnglists20RngListIter$LT$R$GT$4next17h7e27fd598c933045E', symObjAddr: 0x180D4, symBinAddr: 0x100025594, symSize: 0xC74 }
  - { offset: 0x81676, size: 0x8, addend: 0x0, symName: '__ZN9addr2line8function17Function$LT$R$GT$14parse_children17he1d2dd4eaf8a7357E', symObjAddr: 0x1DDF8, symBinAddr: 0x10002AD48, symSize: 0xE88 }
  - { offset: 0x82EB5, size: 0x8, addend: 0x0, symName: __ZN9addr2line8function10name_entry17hd712c6a5749c0b0eE, symObjAddr: 0x1DA8C, symBinAddr: 0x10002A9DC, symSize: 0x36C }
  - { offset: 0x8337E, size: 0x8, addend: 0x0, symName: __ZN9addr2line8function9name_attr17h41adbb1d91e81904E, symObjAddr: 0x1EC80, symBinAddr: 0x10002BBD0, symSize: 0x1C0 }
  - { offset: 0x835A1, size: 0x8, addend: 0x0, symName: '__ZN9addr2line4unit16ResUnit$LT$R$GT$25find_function_or_location17h353b18e237b7b2c9E', symObjAddr: 0x1BBAC, symBinAddr: 0x100028AFC, symSize: 0x39C }
  - { offset: 0x83B06, size: 0x8, addend: 0x0, symName: '__ZN9addr2line4unit16ResUnit$LT$R$GT$25find_function_or_location28_$u7b$$u7b$closure$u7d$$u7d$17h6a4d5a45c96dd11cE', symObjAddr: 0x1BF48, symBinAddr: 0x100028E98, symSize: 0x1490 }
  - { offset: 0x86442, size: 0x8, addend: 0x0, symName: '__ZN9addr2line16Context$LT$R$GT$9find_unit17h672f8cef0a6cef5fE', symObjAddr: 0x19A34, symBinAddr: 0x100026984, symSize: 0x168 }
  - { offset: 0x865D9, size: 0x8, addend: 0x0, symName: __ZN9addr2line4line11render_file17h56c7df47359e37daE, symObjAddr: 0x19B9C, symBinAddr: 0x100026AEC, symSize: 0x4C0 }
  - { offset: 0x86EEF, size: 0x8, addend: 0x0, symName: __ZN9addr2line4line9LazyLines6borrow17ha6d975a019e23e93E, symObjAddr: 0x1A05C, symBinAddr: 0x100026FAC, symSize: 0x1B50 }
  - { offset: 0x8A33A, size: 0x8, addend: 0x0, symName: '__ZN9addr2line6lookup30LoopingLookup$LT$T$C$L$C$F$GT$10new_lookup17h590d4f5c6451cf3cE', symObjAddr: 0x1D654, symBinAddr: 0x10002A5A4, symSize: 0x438 }
  - { offset: 0x8A8D9, size: 0x8, addend: 0x0, symName: '__ZN9addr2line5frame18FrameIter$LT$R$GT$4next17h4512ac685f8f4647E', symObjAddr: 0x1D3D8, symBinAddr: 0x10002A328, symSize: 0x27C }
  - { offset: 0x8AD79, size: 0x8, addend: 0x0, symName: __ZN6object4read7archive13ArchiveMember5parse17he23e9c7a2dcdb639E, symObjAddr: 0x19204, symBinAddr: 0x100026270, symSize: 0x41C }
  - { offset: 0x8B90B, size: 0x8, addend: 0x0, symName: __ZN6object4read7archive23parse_bsd_extended_name17hc2b3d25eef9eeec9E, symObjAddr: 0x19620, symBinAddr: 0x10002668C, symSize: 0x250 }
  - { offset: 0x8C730, size: 0x8, addend: 0x0, symName: _OUTLINED_FUNCTION_0, symObjAddr: 0x4E488, symBinAddr: 0x10003D27C, symSize: 0x24 }
  - { offset: 0x8C748, size: 0x8, addend: 0x0, symName: _OUTLINED_FUNCTION_1, symObjAddr: 0x4E4AC, symBinAddr: 0x10003D2A0, symSize: 0x8 }
  - { offset: 0x8C760, size: 0x8, addend: 0x0, symName: _OUTLINED_FUNCTION_2, symObjAddr: 0x4E4B4, symBinAddr: 0x10003D2A8, symSize: 0x10 }
  - { offset: 0x8C778, size: 0x8, addend: 0x0, symName: _OUTLINED_FUNCTION_3, symObjAddr: 0x4E4C4, symBinAddr: 0x10003D2B8, symSize: 0x8 }
  - { offset: 0x8C790, size: 0x8, addend: 0x0, symName: _OUTLINED_FUNCTION_4, symObjAddr: 0x4E4CC, symBinAddr: 0x10003D2C0, symSize: 0x8 }
  - { offset: 0x8C7A8, size: 0x8, addend: 0x0, symName: _OUTLINED_FUNCTION_5, symObjAddr: 0x4E4D4, symBinAddr: 0x10003D2C8, symSize: 0xC }
  - { offset: 0x8C7DE, size: 0x8, addend: 0x0, symName: '__ZN4core3ptr49drop_in_place$LT$panic_unwind..imp..Exception$GT$17h82c2656372694058E', symObjAddr: 0x0, symBinAddr: 0x10003D2D4, symSize: 0x78 }
  - { offset: 0x8C804, size: 0x8, addend: 0x0, symName: '__ZN4core3ptr49drop_in_place$LT$panic_unwind..imp..Exception$GT$17h82c2656372694058E', symObjAddr: 0x0, symBinAddr: 0x10003D2D4, symSize: 0x78 }
  - { offset: 0x8C90B, size: 0x8, addend: 0x0, symName: '__ZN4core3ptr74drop_in_place$LT$alloc..boxed..Box$LT$panic_unwind..imp..Exception$GT$$GT$17h401304109b323233E', symObjAddr: 0x78, symBinAddr: 0x10003D34C, symSize: 0x8C }
  - { offset: 0x8CBE1, size: 0x8, addend: 0x0, symName: __ZN12panic_unwind3imp5panic17exception_cleanup17h71dcf2e4fc4aa769E, symObjAddr: 0x214, symBinAddr: 0x10003D4E8, symSize: 0x18 }
  - { offset: 0x8CBFD, size: 0x8, addend: 0x0, symName: ___rust_panic_cleanup, symObjAddr: 0x104, symBinAddr: 0x10003D3D8, symSize: 0x68 }
  - { offset: 0x8CC9F, size: 0x8, addend: 0x0, symName: ___rust_start_panic, symObjAddr: 0x16C, symBinAddr: 0x10003D440, symSize: 0xA8 }
  - { offset: 0x8CD8F, size: 0x8, addend: 0x0, symName: __ZN4core3fmt5Write9write_fmt17h34da48fe3ce12459E, symObjAddr: 0xB0, symBinAddr: 0x100045CEC, symSize: 0x1C }
  - { offset: 0x8CDD1, size: 0x8, addend: 0x0, symName: '__ZN53_$LT$core..fmt..Error$u20$as$u20$core..fmt..Debug$GT$3fmt17h157e499588de2939E', symObjAddr: 0x1A0, symBinAddr: 0x100045D30, symSize: 0x20 }
  - { offset: 0x8CE58, size: 0x8, addend: 0x0, symName: '__ZN4core3ptr42drop_in_place$LT$alloc..string..String$GT$17h80ba3db6f9cea51cE', symObjAddr: 0xF4, symBinAddr: 0x100045D08, symSize: 0x28 }
  - { offset: 0x8CF5E, size: 0x8, addend: 0x0, symName: '__ZN69_$LT$core..alloc..layout..LayoutError$u20$as$u20$core..fmt..Debug$GT$3fmt17h847390e718c251f1E', symObjAddr: 0x1C0, symBinAddr: 0x100045D50, symSize: 0x20 }
  - { offset: 0x8D3CA, size: 0x8, addend: 0x0, symName: __ZN5alloc7raw_vec17capacity_overflow17hf0a187d8de84083bE, symObjAddr: 0x1E0, symBinAddr: 0x100045D70, symSize: 0x34 }
  - { offset: 0x8D40C, size: 0x8, addend: 0x0, symName: '__ZN5alloc7raw_vec19RawVec$LT$T$C$A$GT$8grow_one17h207f2a977af11d07E', symObjAddr: 0x214, symBinAddr: 0x100045DA4, symSize: 0xAC }
  - { offset: 0x8D5AB, size: 0x8, addend: 0x0, symName: '__ZN5alloc7raw_vec20RawVecInner$LT$A$GT$7reserve21do_reserve_and_handle17hf907109019113e80E', symObjAddr: 0x2C0, symBinAddr: 0x10004C78C, symSize: 0xB0 }
  - { offset: 0x8D6AD, size: 0x8, addend: 0x0, symName: __ZN5alloc7raw_vec11finish_grow17h91993be477efd13cE, symObjAddr: 0x370, symBinAddr: 0x10004C83C, symSize: 0x88 }
  - { offset: 0x8D723, size: 0x8, addend: 0x0, symName: __ZN5alloc7raw_vec12handle_error17h7f0cbdf2396d2d52E, symObjAddr: 0x3F8, symBinAddr: 0x10004C8C4, symSize: 0x18 }
  - { offset: 0x8D81D, size: 0x8, addend: 0x0, symName: __ZN5alloc5alloc18handle_alloc_error17h14470fb7117d6c37E, symObjAddr: 0x410, symBinAddr: 0x10004C8DC, symSize: 0x18 }
  - { offset: 0x8D8A8, size: 0x8, addend: 0x0, symName: '__ZN93_$LT$alloc..collections..btree..mem..replace..PanicGuard$u20$as$u20$core..ops..drop..Drop$GT$4drop17h4dbb92e5b56c174aE', symObjAddr: 0xE10, symBinAddr: 0x100045E50, symSize: 0xC }
  - { offset: 0x8DA4C, size: 0x8, addend: 0x0, symName: __ZN5alloc6string6String15from_utf8_lossy17h7d31b366d97043dfE, symObjAddr: 0x2F28, symBinAddr: 0x100046310, symSize: 0x238 }
  - { offset: 0x8DFA7, size: 0x8, addend: 0x0, symName: '__ZN98_$LT$alloc..string..String$u20$as$u20$core..convert..From$LT$alloc..borrow..Cow$LT$str$GT$$GT$$GT$4from17hde800050cd4f6a42E', symObjAddr: 0x4D48, symBinAddr: 0x100046548, symSize: 0xBC }
  - { offset: 0x8E11D, size: 0x8, addend: 0x0, symName: '__ZN58_$LT$alloc..string..String$u20$as$u20$core..fmt..Write$GT$9write_str17h4bc2793cacc1d696E', symObjAddr: 0x4E04, symBinAddr: 0x100046604, symSize: 0x78 }
  - { offset: 0x8E270, size: 0x8, addend: 0x0, symName: '__ZN58_$LT$alloc..string..String$u20$as$u20$core..fmt..Write$GT$10write_char17h67c485e816708459E', symObjAddr: 0x4E7C, symBinAddr: 0x10004667C, symSize: 0x148 }
  - { offset: 0x8E5C5, size: 0x8, addend: 0x0, symName: '__ZN72_$LT$$RF$str$u20$as$u20$alloc..ffi..c_str..CString..new..SpecNewImpl$GT$13spec_new_impl17h37cb9b6572c7448bE', symObjAddr: 0xEA8, symBinAddr: 0x100045E5C, symSize: 0x11C }
  - { offset: 0x8E806, size: 0x8, addend: 0x0, symName: __ZN5alloc3ffi5c_str7CString19_from_vec_unchecked17h8dccb886daea0b28E, symObjAddr: 0x1110, symBinAddr: 0x100045F78, symSize: 0x160 }
  - { offset: 0x8EB32, size: 0x8, addend: 0x0, symName: '__ZN5alloc3ffi5c_str131_$LT$impl$u20$core..convert..From$LT$$RF$core..ffi..c_str..CStr$GT$$u20$for$u20$alloc..boxed..Box$LT$core..ffi..c_str..CStr$GT$$GT$4from17hdf0b8dc43b6e7f83E', symObjAddr: 0x15EC, symBinAddr: 0x1000460D8, symSize: 0x88 }
  - { offset: 0x8EC38, size: 0x8, addend: 0x0, symName: __ZN5alloc3fmt6format12format_inner17ha4482be48280c9dcE, symObjAddr: 0x195C, symBinAddr: 0x100046160, symSize: 0x1B0 }
  - { offset: 0x8EE81, size: 0x8, addend: 0x0, symName: __ZN5alloc4sync32arcinner_layout_for_value_layout17h83c76efa9058bc15E, symObjAddr: 0x516C, symBinAddr: 0x1000467C4, symSize: 0x74 }
  - { offset: 0x8F18B, size: 0x8, addend: 0x0, symName: '__ZN70_$LT$core..num..error..ParseIntError$u20$as$u20$core..fmt..Display$GT$3fmt17h90e89b6f3a4b6059E', symObjAddr: 0x4058, symBinAddr: 0x100046838, symSize: 0x34 }
  - { offset: 0x8F1E7, size: 0x8, addend: 0x0, symName: __ZN4core3num22from_ascii_radix_panic8do_panic7runtime17hbd3939a7be6472a6E, symObjAddr: 0x17130, symBinAddr: 0x10004AC6C, symSize: 0x44 }
  - { offset: 0x8F21A, size: 0x8, addend: 0x0, symName: __ZN4core3num22from_ascii_radix_panic17h997eb0f270b6b988E, symObjAddr: 0x4294, symBinAddr: 0x10004C8F4, symSize: 0xC }
  - { offset: 0x8F5C9, size: 0x8, addend: 0x0, symName: __ZN4core5slice5index26slice_start_index_len_fail8do_panic7runtime17h9ddc6a7ecebba1e9E, symObjAddr: 0x1B12C, symBinAddr: 0x10004B5E4, symSize: 0x50 }
  - { offset: 0x8F5FC, size: 0x8, addend: 0x0, symName: __ZN4core5slice5index26slice_start_index_len_fail17hbef4cde757a23982E, symObjAddr: 0xEAAC, symBinAddr: 0x10004CD14, symSize: 0xC }
  - { offset: 0x8F642, size: 0x8, addend: 0x0, symName: __ZN4core5slice5index24slice_end_index_len_fail8do_panic7runtime17h385f2d9d99153a75E, symObjAddr: 0x1B17C, symBinAddr: 0x10004B634, symSize: 0x50 }
  - { offset: 0x8F675, size: 0x8, addend: 0x0, symName: __ZN4core5slice5index24slice_end_index_len_fail17ha150b75f771021fbE, symObjAddr: 0xEAB8, symBinAddr: 0x10004CD20, symSize: 0xC }
  - { offset: 0x8F6BB, size: 0x8, addend: 0x0, symName: __ZN4core5slice5index22slice_index_order_fail8do_panic7runtime17he0b28f8ab2cd970eE, symObjAddr: 0x1B1CC, symBinAddr: 0x10004B684, symSize: 0x50 }
  - { offset: 0x8F6EE, size: 0x8, addend: 0x0, symName: __ZN4core5slice5index22slice_index_order_fail17h7613890af586566aE, symObjAddr: 0xEAC4, symBinAddr: 0x10004CD2C, symSize: 0xC }
  - { offset: 0x8FADF, size: 0x8, addend: 0x0, symName: __ZN4core5slice6memchr14memchr_aligned17h6296e9c99467795dE, symObjAddr: 0xE3FC, symBinAddr: 0x100048CB4, symSize: 0xE8 }
  - { offset: 0x8FBBB, size: 0x8, addend: 0x0, symName: __ZN4core5slice6memchr7memrchr17h6227400e5108dcb2E, symObjAddr: 0xE4E4, symBinAddr: 0x100048D9C, symSize: 0x120 }
  - { offset: 0x8FD14, size: 0x8, addend: 0x0, symName: __ZN4core5slice4sort6stable5drift11sqrt_approx17hea6fce954f57e78dE, symObjAddr: 0xE604, symBinAddr: 0x100048EBC, symSize: 0x38 }
  - { offset: 0x8FD91, size: 0x8, addend: 0x0, symName: __ZN4core5slice4sort6shared9smallsort22panic_on_ord_violation17h87158ad44664865dE, symObjAddr: 0xE63C, symBinAddr: 0x10004CCDC, symSize: 0x38 }
  - { offset: 0x8FF3E, size: 0x8, addend: 0x0, symName: '__ZN42_$LT$str$u20$as$u20$core..fmt..Display$GT$3fmt17hf009c24fe723987dE', symObjAddr: 0xE0B4, symBinAddr: 0x100048A34, symSize: 0x20 }
  - { offset: 0x9011E, size: 0x8, addend: 0x0, symName: __ZN4core3fmt9Formatter12pad_integral17hc0a697f6bef9bc99E, symObjAddr: 0xB878, symBinAddr: 0x1000478C4, symSize: 0x3E8 }
  - { offset: 0x90414, size: 0x8, addend: 0x0, symName: __ZN4core3fmt9Formatter3pad17hc45fb048fd353932E, symObjAddr: 0xBCDC, symBinAddr: 0x100047D28, symSize: 0x370 }
  - { offset: 0x908CF, size: 0x8, addend: 0x0, symName: __ZN4core3fmt9Formatter9write_str17h325369b1c335017bE, symObjAddr: 0xC49C, symBinAddr: 0x100048098, symSize: 0x1C }
  - { offset: 0x908E3, size: 0x8, addend: 0x0, symName: __ZN4core3fmt9Formatter12debug_struct17h01892abf43f6400aE, symObjAddr: 0xC4B8, symBinAddr: 0x1000480B4, symSize: 0x3C }
  - { offset: 0x90922, size: 0x8, addend: 0x0, symName: __ZN4core3fmt9Formatter26debug_struct_field1_finish17h9a6aad483cd91d8bE, symObjAddr: 0xC4F4, symBinAddr: 0x1000480F0, symSize: 0xD0 }
  - { offset: 0x909F9, size: 0x8, addend: 0x0, symName: __ZN4core3fmt9Formatter26debug_struct_field2_finish17h50e0aebce8a58786E, symObjAddr: 0xC5C4, symBinAddr: 0x1000481C0, symSize: 0x104 }
  - { offset: 0x90AD0, size: 0x8, addend: 0x0, symName: __ZN4core3fmt9Formatter11debug_tuple17hc10fd19a9736e89bE, symObjAddr: 0xCBD8, symBinAddr: 0x1000482C4, symSize: 0x50 }
  - { offset: 0x90B25, size: 0x8, addend: 0x0, symName: __ZN4core3fmt9Formatter25debug_tuple_field1_finish17ha7de20751beabbe9E, symObjAddr: 0xCC28, symBinAddr: 0x100048314, symSize: 0x168 }
  - { offset: 0x90D27, size: 0x8, addend: 0x0, symName: __ZN4core3fmt9Formatter25debug_tuple_field2_finish17h4e3f51f71b24019cE, symObjAddr: 0xCD90, symBinAddr: 0x10004847C, symSize: 0x1E0 }
  - { offset: 0x90FE1, size: 0x8, addend: 0x0, symName: __ZN4core3fmt9Formatter10debug_list17h017ce85e0805b545E, symObjAddr: 0xDB70, symBinAddr: 0x10004865C, symSize: 0x48 }
  - { offset: 0x91089, size: 0x8, addend: 0x0, symName: __ZN4core3fmt8builders11DebugStruct5field17h2f0dca0d2df6974aE, symObjAddr: 0x84A0, symBinAddr: 0x1000470BC, symSize: 0x1B8 }
  - { offset: 0x91288, size: 0x8, addend: 0x0, symName: __ZN4core3fmt8builders11DebugStruct6finish17he06e5b5d674203a3E, symObjAddr: 0x871C, symBinAddr: 0x100047274, symSize: 0x80 }
  - { offset: 0x91389, size: 0x8, addend: 0x0, symName: '__ZN68_$LT$core..fmt..builders..PadAdapter$u20$as$u20$core..fmt..Write$GT$9write_str17hfaa313c4119f7ed4E', symObjAddr: 0x81D0, symBinAddr: 0x100046DEC, symSize: 0x250 }
  - { offset: 0x91634, size: 0x8, addend: 0x0, symName: '__ZN68_$LT$core..fmt..builders..PadAdapter$u20$as$u20$core..fmt..Write$GT$10write_char17hde86c020ea7d2eadE', symObjAddr: 0x8420, symBinAddr: 0x10004703C, symSize: 0x80 }
  - { offset: 0x916B9, size: 0x8, addend: 0x0, symName: __ZN4core3fmt8builders10DebugTuple5field17hd1be49f816fc5cc6E, symObjAddr: 0x879C, symBinAddr: 0x1000472F4, symSize: 0x14C }
  - { offset: 0x91845, size: 0x8, addend: 0x0, symName: __ZN4core3fmt8builders10DebugTuple6finish17h27cf27fbab1a8a2aE, symObjAddr: 0x89A8, symBinAddr: 0x100047440, symSize: 0xB0 }
  - { offset: 0x91994, size: 0x8, addend: 0x0, symName: __ZN4core3fmt8builders8DebugSet5entry17h30a73ad81f14a0f2E, symObjAddr: 0x8A58, symBinAddr: 0x1000474F0, symSize: 0x14C }
  - { offset: 0x91B39, size: 0x8, addend: 0x0, symName: __ZN4core3fmt8builders9DebugList6finish17h106b57f1a22a675eE, symObjAddr: 0x8D7C, symBinAddr: 0x10004763C, symSize: 0x4C }
  - { offset: 0x91BF5, size: 0x8, addend: 0x0, symName: '__ZN4core3fmt3num3imp52_$LT$impl$u20$core..fmt..Display$u20$for$u20$u32$GT$3fmt17hbf1c5d9b6583f29fE', symObjAddr: 0x19B78, symBinAddr: 0x10004B128, symSize: 0x1C }
  - { offset: 0x91C1C, size: 0x8, addend: 0x0, symName: '__ZN4core3fmt3num3imp52_$LT$impl$u20$core..fmt..Display$u20$for$u20$u64$GT$3fmt17h339ac4429cb37bf0E', symObjAddr: 0x19CE0, symBinAddr: 0x10004B290, symSize: 0x1C }
  - { offset: 0x91C43, size: 0x8, addend: 0x0, symName: '__ZN4core3fmt3num3imp52_$LT$impl$u20$core..fmt..Display$u20$for$u20$i32$GT$3fmt17hf55f78073eda7290E', symObjAddr: 0x19B94, symBinAddr: 0x10004B144, symSize: 0x28 }
  - { offset: 0x91CA8, size: 0x8, addend: 0x0, symName: '__ZN4core3fmt3num3imp51_$LT$impl$u20$core..fmt..Display$u20$for$u20$u8$GT$3fmt17h4f4911bf2ed93697E', symObjAddr: 0x198A4, symBinAddr: 0x10004B078, symSize: 0xB0 }
  - { offset: 0x91D6E, size: 0x8, addend: 0x0, symName: '__ZN4core3fmt3num3imp21_$LT$impl$u20$u32$GT$4_fmt17h2969b048172ebb80E', symObjAddr: 0x19BBC, symBinAddr: 0x10004B16C, symSize: 0x124 }
  - { offset: 0x91E4F, size: 0x8, addend: 0x0, symName: '__ZN4core3fmt3num3imp21_$LT$impl$u20$u64$GT$4_fmt17h99108e3731ddbd8bE', symObjAddr: 0x19D24, symBinAddr: 0x10004B2AC, symSize: 0x130 }
  - { offset: 0x9206A, size: 0x8, addend: 0x0, symName: '__ZN4core3fmt3num53_$LT$impl$u20$core..fmt..LowerHex$u20$for$u20$i32$GT$3fmt17ha0cbda09c03c5041E', symObjAddr: 0x18C80, symBinAddr: 0x10004AE78, symSize: 0x80 }
  - { offset: 0x92112, size: 0x8, addend: 0x0, symName: '__ZN4core3fmt3num53_$LT$impl$u20$core..fmt..UpperHex$u20$for$u20$i32$GT$3fmt17heb47dcda93036a36E', symObjAddr: 0x18D00, symBinAddr: 0x10004AEF8, symSize: 0x80 }
  - { offset: 0x921BA, size: 0x8, addend: 0x0, symName: '__ZN4core3fmt3num53_$LT$impl$u20$core..fmt..LowerHex$u20$for$u20$i64$GT$3fmt17hf3c2c8f0bf48439fE', symObjAddr: 0x18E60, symBinAddr: 0x10004AF78, symSize: 0x80 }
  - { offset: 0x92262, size: 0x8, addend: 0x0, symName: '__ZN4core3fmt3num53_$LT$impl$u20$core..fmt..UpperHex$u20$for$u20$i64$GT$3fmt17h4be4db71703d1dabE', symObjAddr: 0x18EE0, symBinAddr: 0x10004AFF8, symSize: 0x80 }
  - { offset: 0x922FD, size: 0x8, addend: 0x0, symName: '__ZN4core3fmt3num52_$LT$impl$u20$core..fmt..LowerHex$u20$for$u20$i8$GT$3fmt17h7bff1931c71ac012E', symObjAddr: 0x188C0, symBinAddr: 0x10004AD78, symSize: 0x80 }
  - { offset: 0x923AC, size: 0x8, addend: 0x0, symName: '__ZN4core3fmt3num52_$LT$impl$u20$core..fmt..UpperHex$u20$for$u20$i8$GT$3fmt17h8dba84f19f74308cE', symObjAddr: 0x18940, symBinAddr: 0x10004ADF8, symSize: 0x80 }
  - { offset: 0x9246A, size: 0x8, addend: 0x0, symName: '__ZN57_$LT$core..fmt..Formatter$u20$as$u20$core..fmt..Write$GT$10write_char17h712a7a5b14df20b9E', symObjAddr: 0xDCC0, symBinAddr: 0x1000486A4, symSize: 0x1C }
  - { offset: 0x9249D, size: 0x8, addend: 0x0, symName: __ZN4core3fmt5Write9write_fmt17h3451af32630eef07E, symObjAddr: 0xB4E4, symBinAddr: 0x100047688, symSize: 0x1C }
  - { offset: 0x92506, size: 0x8, addend: 0x0, symName: '__ZN59_$LT$core..fmt..Arguments$u20$as$u20$core..fmt..Display$GT$3fmt17h5a31f19e8734f16eE', symObjAddr: 0xB658, symBinAddr: 0x1000476A4, symSize: 0x18 }
  - { offset: 0x92537, size: 0x8, addend: 0x0, symName: __ZN4core3fmt5write17he22fcab56bd3ec61E, symObjAddr: 0xB670, symBinAddr: 0x1000476BC, symSize: 0x208 }
  - { offset: 0x9274A, size: 0x8, addend: 0x0, symName: __ZN4core3fmt9Formatter12pad_integral12write_prefix17h37c97ab3a7046bd2E, symObjAddr: 0xBC60, symBinAddr: 0x100047CAC, symSize: 0x7C }
  - { offset: 0x92790, size: 0x8, addend: 0x0, symName: '__ZN42_$LT$$RF$T$u20$as$u20$core..fmt..Debug$GT$3fmt17h3133fac5ab5169ddE', symObjAddr: 0x1AE44, symBinAddr: 0x10004B3DC, symSize: 0xEC }
  - { offset: 0x928C2, size: 0x8, addend: 0x0, symName: '__ZN42_$LT$$RF$T$u20$as$u20$core..fmt..Debug$GT$3fmt17h54e81ade5e5de57dE', symObjAddr: 0x1AF30, symBinAddr: 0x10004B4C8, symSize: 0x1C }
  - { offset: 0x928D6, size: 0x8, addend: 0x0, symName: '__ZN42_$LT$$RF$T$u20$as$u20$core..fmt..Debug$GT$3fmt17h91eecf8d28a7cefeE', symObjAddr: 0x1AF4C, symBinAddr: 0x10004B4E4, symSize: 0xE4 }
  - { offset: 0x92A30, size: 0x8, addend: 0x0, symName: '__ZN40_$LT$str$u20$as$u20$core..fmt..Debug$GT$3fmt17hd8879d369458d53aE', symObjAddr: 0xDD40, symBinAddr: 0x1000486C0, symSize: 0x374 }
  - { offset: 0x92E89, size: 0x8, addend: 0x0, symName: '__ZN41_$LT$char$u20$as$u20$core..fmt..Debug$GT$3fmt17ha35a21095fe6b2aeE', symObjAddr: 0xE0D4, symBinAddr: 0x100048A54, symSize: 0xAC }
  - { offset: 0x92F90, size: 0x8, addend: 0x0, symName: '__ZN43_$LT$char$u20$as$u20$core..fmt..Display$GT$3fmt17h3667dcfbeb89f1b7E', symObjAddr: 0xE180, symBinAddr: 0x100048B00, symSize: 0xF0 }
  - { offset: 0x93018, size: 0x8, addend: 0x0, symName: __ZN4core3fmt17pointer_fmt_inner17ha05a056f67b250baE, symObjAddr: 0xE270, symBinAddr: 0x100048BF0, symSize: 0xC4 }
  - { offset: 0x930D6, size: 0x8, addend: 0x0, symName: '__ZN44_$LT$$RF$T$u20$as$u20$core..fmt..Display$GT$3fmt17h09a056bd82e73243E', symObjAddr: 0x1B044, symBinAddr: 0x10004B5C8, symSize: 0x1C }
  - { offset: 0x9327E, size: 0x8, addend: 0x0, symName: __ZN4core6option13unwrap_failed17h84f662fc2717d129E, symObjAddr: 0x7B40, symBinAddr: 0x10004C944, symSize: 0x1C }
  - { offset: 0x93299, size: 0x8, addend: 0x0, symName: __ZN4core6option13expect_failed17h064f2cf84916882aE, symObjAddr: 0x7B5C, symBinAddr: 0x10004C960, symSize: 0x48 }
  - { offset: 0x932F1, size: 0x8, addend: 0x0, symName: '__ZN71_$LT$core..ops..range..Range$LT$Idx$GT$$u20$as$u20$core..fmt..Debug$GT$3fmt17h8610e207370f6ef7E', symObjAddr: 0x442C, symBinAddr: 0x10004686C, symSize: 0x1FC }
  - { offset: 0x937E7, size: 0x8, addend: 0x0, symName: __ZN4core6result13unwrap_failed17h2bf1684417afbe6bE, symObjAddr: 0x80FC, symBinAddr: 0x10004CC80, symSize: 0x5C }
  - { offset: 0x93AAE, size: 0x8, addend: 0x0, symName: __ZN4core3str7pattern11StrSearcher3new17habaad989c72fb7a8E, symObjAddr: 0x10248, symBinAddr: 0x100049B0C, symSize: 0x904 }
  - { offset: 0x93D59, size: 0x8, addend: 0x0, symName: __ZN4core3str5count14do_count_chars17hc555c670c9b10e3bE, symObjAddr: 0xF128, symBinAddr: 0x100049138, symSize: 0x724 }
  - { offset: 0x940AA, size: 0x8, addend: 0x0, symName: __ZN4core3str5count23char_count_general_case17h0a6ef21a4825751aE, symObjAddr: 0xF84C, symBinAddr: 0x10004985C, symSize: 0x2B0 }
  - { offset: 0x94210, size: 0x8, addend: 0x0, symName: __ZN4core3str6traits23str_index_overflow_fail17h6ba0069023d715bdE, symObjAddr: 0x10214, symBinAddr: 0x10004CD38, symSize: 0x34 }
  - { offset: 0x94245, size: 0x8, addend: 0x0, symName: __ZN4core3str8converts9from_utf817h5b7081f8e3c98111E, symObjAddr: 0xECA0, symBinAddr: 0x100048EF4, symSize: 0x244 }
  - { offset: 0x942C7, size: 0x8, addend: 0x0, symName: '__ZN87_$LT$core..str..lossy..Utf8Chunks$u20$as$u20$core..iter..traits..iterator..Iterator$GT$4next17hc0bb2f8797014ed2E', symObjAddr: 0x10F30, symBinAddr: 0x10004A410, symSize: 0x1DC }
  - { offset: 0x944CA, size: 0x8, addend: 0x0, symName: __ZN4core3str16slice_error_fail17h8b847e853482f553E, symObjAddr: 0x111D8, symBinAddr: 0x10004CD6C, symSize: 0xC }
  - { offset: 0x944E4, size: 0x8, addend: 0x0, symName: __ZN4core3str19slice_error_fail_rt17hd494714b9640772bE, symObjAddr: 0x11218, symBinAddr: 0x10004A5EC, symSize: 0x390 }
  - { offset: 0x9478D, size: 0x8, addend: 0x0, symName: '__ZN4core4char7methods22_$LT$impl$u20$char$GT$16escape_debug_ext17hbfb443f01c84243eE', symObjAddr: 0x50B8, symBinAddr: 0x100046A8C, symSize: 0x260 }
  - { offset: 0x94985, size: 0x8, addend: 0x0, symName: __ZN4core4char7methods15encode_utf8_raw8do_panic7runtime17h78f2c250983698c5E, symObjAddr: 0x171EC, symBinAddr: 0x10004ACB0, symSize: 0xC8 }
  - { offset: 0x94A1C, size: 0x8, addend: 0x0, symName: '__ZN63_$LT$core..cell..BorrowMutError$u20$as$u20$core..fmt..Debug$GT$3fmt17h4f632190c10a8f91E', symObjAddr: 0x4F3C, symBinAddr: 0x100046A68, symSize: 0x24 }
  - { offset: 0x94A79, size: 0x8, addend: 0x0, symName: __ZN4core4cell22panic_already_borrowed17ha893d1f06b8b63deE, symObjAddr: 0x4F80, symBinAddr: 0x10004C900, symSize: 0x44 }
  - { offset: 0x94AC9, size: 0x8, addend: 0x0, symName: __ZN4core7unicode12unicode_data15grapheme_extend11lookup_slow17hbcdf8b5a821a33ffE, symObjAddr: 0x1C978, symBinAddr: 0x10004B6F8, symSize: 0x174 }
  - { offset: 0x94CB4, size: 0x8, addend: 0x0, symName: __ZN4core7unicode12unicode_data2cc6lookup17he25d7ab2d2fa0f97E, symObjAddr: 0x1C954, symBinAddr: 0x10004B6D4, symSize: 0x24 }
  - { offset: 0x94D20, size: 0x8, addend: 0x0, symName: __ZN4core7unicode9printable12is_printable17haae76351f6525626E, symObjAddr: 0x12144, symBinAddr: 0x10004A97C, symSize: 0x2C0 }
  - { offset: 0x9515E, size: 0x8, addend: 0x0, symName: __ZN4core3ffi5c_str4CStr19from_bytes_with_nul17h10506affebd054b1E, symObjAddr: 0x5700, symBinAddr: 0x100046CEC, symSize: 0x100 }
  - { offset: 0x9524B, size: 0x8, addend: 0x0, symName: __ZN4core9panicking9panic_fmt17h6a4014bec58fba4fE, symObjAddr: 0x7C94, symBinAddr: 0x10004C9A8, symSize: 0x20 }
  - { offset: 0x9528E, size: 0x8, addend: 0x0, symName: __ZN4core9panicking18panic_nounwind_fmt17hc1d4bd06ab2bbbabE, symObjAddr: 0x7CB4, symBinAddr: 0x10004C9C8, symSize: 0x3C }
  - { offset: 0x952D3, size: 0x8, addend: 0x0, symName: __ZN4core9panicking5panic17h3ce9043ca357f318E, symObjAddr: 0x7CF0, symBinAddr: 0x10004CA04, symSize: 0x34 }
  - { offset: 0x95302, size: 0x8, addend: 0x0, symName: __ZN4core9panicking14panic_nounwind17h96b8083b1a8e2dbdE, symObjAddr: 0x7D24, symBinAddr: 0x10004CA38, symSize: 0x3C }
  - { offset: 0x95331, size: 0x8, addend: 0x0, symName: __ZN4core9panicking26panic_nounwind_nobacktrace17h984deb6b7d0bc614E, symObjAddr: 0x7D60, symBinAddr: 0x10004CA74, symSize: 0x3C }
  - { offset: 0x95360, size: 0x8, addend: 0x0, symName: __ZN4core9panicking18panic_bounds_check17h1ecfa3d00f46f81cE, symObjAddr: 0x7DE4, symBinAddr: 0x10004CAB0, symSize: 0x50 }
  - { offset: 0x95392, size: 0x8, addend: 0x0, symName: __ZN4core9panicking19panic_cannot_unwind17ha5edf28dd2569dc8E, symObjAddr: 0x7EF8, symBinAddr: 0x10004CB00, symSize: 0x18 }
  - { offset: 0x953AD, size: 0x8, addend: 0x0, symName: __ZN4core9panicking16panic_in_cleanup17hb960b8c5dea287d4E, symObjAddr: 0x7F10, symBinAddr: 0x10004CB18, symSize: 0x18 }
  - { offset: 0x953C8, size: 0x8, addend: 0x0, symName: __ZN4core9panicking13assert_failed17h2af7932842d934b6E, symObjAddr: 0x7F8C, symBinAddr: 0x10004CB30, symSize: 0x24 }
  - { offset: 0x953E3, size: 0x8, addend: 0x0, symName: __ZN4core9panicking13assert_failed17hc7c9e0269eebc316E, symObjAddr: 0x7FB0, symBinAddr: 0x10004CB54, symSize: 0x24 }
  - { offset: 0x953FE, size: 0x8, addend: 0x0, symName: __ZN4core9panicking19assert_failed_inner17hafd35c69af0230bfE, symObjAddr: 0x7FF4, symBinAddr: 0x10004CB78, symSize: 0x108 }
  - { offset: 0x9544B, size: 0x8, addend: 0x0, symName: __ZN4core9panicking11panic_const24panic_const_add_overflow17h0235fd41b8202631E, symObjAddr: 0x17818, symBinAddr: 0x10004CD78, symSize: 0x34 }
  - { offset: 0x9547A, size: 0x8, addend: 0x0, symName: __ZN4core9panicking11panic_const23panic_const_div_by_zero17h0422238fbdaad2d7E, symObjAddr: 0x179B8, symBinAddr: 0x10004CDAC, symSize: 0x34 }
  - { offset: 0x954A9, size: 0x8, addend: 0x0, symName: __ZN4core9panicking11panic_const23panic_const_rem_by_zero17h723f338bbd7af040E, symObjAddr: 0x179EC, symBinAddr: 0x10004CDE0, symSize: 0x34 }
  - { offset: 0x95522, size: 0x8, addend: 0x0, symName: __ZN4core5alloc6layout6Layout19is_size_align_valid17h054933e8a3b2a17cE, symObjAddr: 0x126A0, symBinAddr: 0x10004AC3C, symSize: 0x30 }
  - { offset: 0x9557B, size: 0x8, addend: 0x0, symName: _OUTLINED_FUNCTION_0, symObjAddr: 0x1D194, symBinAddr: 0x10004B86C, symSize: 0x10 }
...
